	.file	"hppa-linux.c"
	.version	"01.01"
	.LEVEL 1.1
; GNU C (GCC) version 4.7.2 (hppa-linux)
;	compiled by GNU C version 4.2.1 20070719  [FreeBSD], GMP version 5.1.1, MPFR version 3.1.2, MPC version 1.0.1
; GGC heuristics: --param ggc-min-expand=100 --param ggc-min-heapsize=131072
; options passed:  -nostdinc hppa-linux.c -auxbase-strip hppa-linux.s -g -O
; -Wall -fno-builtin -fverbose-asm -fomit-frame-pointer
; options enabled:  -fauto-inc-dec -fbranch-count-reg
; -fcombine-stack-adjustments -fcommon -fcompare-elim -fcprop-registers
; -fdebug-types-section -fdefer-pop -fdelayed-branch
; -fdelete-null-pointer-checks -fdwarf2-cfi-asm -fearly-inlining
; -feliminate-unused-debug-types -fforward-propagate -ffunction-cse
; -fgcse-lm -fgnu-runtime -fguess-branch-probability -fident
; -fif-conversion -fif-conversion2 -finline -finline-atomics
; -finline-functions-called-once -fipa-profile -fipa-pure-const
; -fipa-reference -fira-share-save-slots -fira-share-spill-slots -fivopts
; -fkeep-static-consts -fleading-underscore -fmath-errno -fmerge-constants
; -fmerge-debug-strings -fmove-loop-invariants -fomit-frame-pointer
; -fpeephole -fprefetch-loop-arrays -freg-struct-return
; -fsched-critical-path-heuristic -fsched-dep-count-heuristic
; -fsched-group-heuristic -fsched-interblock -fsched-last-insn-heuristic
; -fsched-rank-heuristic -fsched-spec -fsched-spec-insn-heuristic
; -fsched-stalled-insns-dep -fshow-column -fshrink-wrap -fsigned-zeros
; -fsplit-ivs-in-unroller -fsplit-wide-types -fstrict-volatile-bitfields
; -ftoplevel-reorder -ftrapping-math -ftree-bit-ccp -ftree-ccp -ftree-ch
; -ftree-copy-prop -ftree-copyrename -ftree-cselim -ftree-dce
; -ftree-dominator-opts -ftree-dse -ftree-forwprop -ftree-fre
; -ftree-loop-if-convert -ftree-loop-im -ftree-loop-ivcanon
; -ftree-loop-optimize -ftree-parallelize-loops= -ftree-phiprop -ftree-pta
; -ftree-reassoc -ftree-scev-cprop -ftree-sink -ftree-slp-vectorize
; -ftree-sra -ftree-ter -ftree-vect-loop-version -funit-at-a-time
; -fvar-tracking -fvar-tracking-assignments -fverbose-asm
; -fzero-initialized-in-bss -mbig-switch -mgas -mglibc -mno-space-regs

	.text
.Ltext0:
	.cfi_sections	.debug_frame
	.align 4
.globl null
	.type	null, @function
.LFB0:
	.file 1 "hppa-linux.c"
	.loc 1 2 0
	.cfi_startproc
null:
	.PROC
	.CALLINFO FRAME=0,NO_CALLS
	.ENTRY
	bv,n %r0(%r2)
	.EXIT
	.PROCEND
	.cfi_endproc
.LFE0:
	.size	null, .-null
	.align 4
.globl return_zero
	.type	return_zero, @function
.LFB1:
	.loc 1 7 0
	.cfi_startproc
return_zero:
	.PROC
	.CALLINFO FRAME=0,NO_CALLS
	.ENTRY
	.loc 1 9 0
	bv %r0(%r2)
	ldi 0,%r28	;,
	.EXIT
	.PROCEND
	.cfi_endproc
.LFE1:
	.size	return_zero, .-return_zero
	.align 4
.globl return_one
	.type	return_one, @function
.LFB2:
	.loc 1 12 0
	.cfi_startproc
return_one:
	.PROC
	.CALLINFO FRAME=0,NO_CALLS
	.ENTRY
	.loc 1 14 0
	bv %r0(%r2)
	ldi 1,%r28	;,
	.EXIT
	.PROCEND
	.cfi_endproc
.LFE2:
	.size	return_one, .-return_one
	.align 4
.globl return_int_size
	.type	return_int_size, @function
.LFB3:
	.loc 1 17 0
	.cfi_startproc
return_int_size:
	.PROC
	.CALLINFO FRAME=0,NO_CALLS
	.ENTRY
	.loc 1 19 0
	bv %r0(%r2)
	ldi 4,%r28	;,
	.EXIT
	.PROCEND
	.cfi_endproc
.LFE3:
	.size	return_int_size, .-return_int_size
	.align 4
.globl return_pointer_size
	.type	return_pointer_size, @function
.LFB4:
	.loc 1 22 0
	.cfi_startproc
return_pointer_size:
	.PROC
	.CALLINFO FRAME=0,NO_CALLS
	.ENTRY
	.loc 1 24 0
	bv %r0(%r2)
	ldi 4,%r28	;,
	.EXIT
	.PROCEND
	.cfi_endproc
.LFE4:
	.size	return_pointer_size, .-return_pointer_size
	.align 4
.globl return_short_size
	.type	return_short_size, @function
.LFB5:
	.loc 1 27 0
	.cfi_startproc
return_short_size:
	.PROC
	.CALLINFO FRAME=0,NO_CALLS
	.ENTRY
	.loc 1 29 0
	bv %r0(%r2)
	ldi 2,%r28	;,
	.EXIT
	.PROCEND
	.cfi_endproc
.LFE5:
	.size	return_short_size, .-return_short_size
	.align 4
.globl return_long_size
	.type	return_long_size, @function
.LFB6:
	.loc 1 32 0
	.cfi_startproc
return_long_size:
	.PROC
	.CALLINFO FRAME=0,NO_CALLS
	.ENTRY
	.loc 1 34 0
	bv %r0(%r2)
	ldi 4,%r28	;,
	.EXIT
	.PROCEND
	.cfi_endproc
.LFE6:
	.size	return_long_size, .-return_long_size
	.align 4
.globl return_short
	.type	return_short, @function
.LFB7:
	.loc 1 37 0
	.cfi_startproc
return_short:
	.PROC
	.CALLINFO FRAME=0,NO_CALLS
	.ENTRY
	.loc 1 39 0
	ldil L'32768,%r28	;, tmp98
	bv %r0(%r2)
	ldo -2168(%r28),%r28	;, tmp98,
	.EXIT
	.PROCEND
	.cfi_endproc
.LFE7:
	.size	return_short, .-return_short
	.align 4
.globl return_long
	.type	return_long, @function
.LFB8:
	.loc 1 42 0
	.cfi_startproc
return_long:
	.PROC
	.CALLINFO FRAME=0,NO_CALLS
	.ENTRY
	.loc 1 44 0
	ldil L'2005434368,%r28	;, tmp98
	bv %r0(%r2)
	ldo 6570(%r28),%r28	;, tmp98,
	.EXIT
	.PROCEND
	.cfi_endproc
.LFE8:
	.size	return_long, .-return_long
	.align 4
.globl return_short_upper
	.type	return_short_upper, @function
.LFB9:
	.loc 1 47 0
	.cfi_startproc
return_short_upper:
	.PROC
	.CALLINFO FRAME=0,NO_CALLS
	.ENTRY
	.loc 1 49 0
	bv %r0(%r2)
	ldi -18,%r28	;,
	.EXIT
	.PROCEND
	.cfi_endproc
.LFE9:
	.size	return_short_upper, .-return_short_upper
	.align 4
.globl return_long_upper
	.type	return_long_upper, @function
.LFB10:
	.loc 1 52 0
	.cfi_startproc
return_long_upper:
	.PROC
	.CALLINFO FRAME=0,NO_CALLS
	.ENTRY
	.loc 1 54 0
	ldil L'-1130496,%r28	;, tmp98
	bv %r0(%r2)
	ldo 7628(%r28),%r28	;, tmp98,
	.EXIT
	.PROCEND
	.cfi_endproc
.LFE10:
	.size	return_long_upper, .-return_long_upper
	.align 4
.globl return_arg1
	.type	return_arg1, @function
.LFB11:
	.loc 1 57 0
	.cfi_startproc
return_arg1:
	.PROC
	.CALLINFO FRAME=0,NO_CALLS
	.ENTRY
.LVL0:
	.loc 1 59 0
	bv %r0(%r2)
	copy %r26,%r28	; a,
	.EXIT
	.PROCEND
	.cfi_endproc
.LFE11:
	.size	return_arg1, .-return_arg1
	.align 4
.globl return_arg2
	.type	return_arg2, @function
.LFB12:
	.loc 1 62 0
	.cfi_startproc
return_arg2:
	.PROC
	.CALLINFO FRAME=0,NO_CALLS
	.ENTRY
.LVL1:
	.loc 1 64 0
	bv %r0(%r2)
	copy %r25,%r28	; b,
	.EXIT
	.PROCEND
	.cfi_endproc
.LFE12:
	.size	return_arg2, .-return_arg2
	.align 4
.globl add
	.type	add, @function
.LFB13:
	.loc 1 67 0
	.cfi_startproc
add:
	.PROC
	.CALLINFO FRAME=0,NO_CALLS
	.ENTRY
.LVL2:
	.loc 1 69 0
	bv %r0(%r2)
	addl %r26,%r25,%r28	; a, b,
	.EXIT
	.PROCEND
	.cfi_endproc
.LFE13:
	.size	add, .-add
	.align 4
.globl add3
	.type	add3, @function
.LFB14:
	.loc 1 72 0
	.cfi_startproc
add3:
	.PROC
	.CALLINFO FRAME=0,NO_CALLS
	.ENTRY
.LVL3:
	.loc 1 73 0
	addl %r26,%r25,%r28	; a, b, tmp103
	.loc 1 74 0
	bv %r0(%r2)
	addl %r28,%r24,%r28	; tmp103, c,
	.EXIT
	.PROCEND
	.cfi_endproc
.LFE14:
	.size	add3, .-add3
	.align 4
.globl add_two
	.type	add_two, @function
.LFB15:
	.loc 1 77 0
	.cfi_startproc
add_two:
	.PROC
	.CALLINFO FRAME=0,NO_CALLS
	.ENTRY
.LVL4:
	.loc 1 79 0
	bv %r0(%r2)
	ldo 2(%r26),%r28	;, a,
	.EXIT
	.PROCEND
	.cfi_endproc
.LFE15:
	.size	add_two, .-add_two
	.align 4
.globl inc
	.type	inc, @function
.LFB16:
	.loc 1 82 0
	.cfi_startproc
inc:
	.PROC
	.CALLINFO FRAME=0,NO_CALLS
	.ENTRY
.LVL5:
	.loc 1 84 0
	bv %r0(%r2)
	ldo 1(%r26),%r28	;, a,
	.EXIT
	.PROCEND
	.cfi_endproc
.LFE16:
	.size	inc, .-inc
	.align 4
.globl or
	.type	or, @function
.LFB17:
	.loc 1 87 0
	.cfi_startproc
or:
	.PROC
	.CALLINFO FRAME=0,NO_CALLS
	.ENTRY
.LVL6:
	.loc 1 89 0
	bv %r0(%r2)
	or %r25,%r26,%r28	; b, a,
	.EXIT
	.PROCEND
	.cfi_endproc
.LFE17:
	.size	or, .-or
	.align 4
.globl or_one
	.type	or_one, @function
.LFB18:
	.loc 1 92 0
	.cfi_startproc
or_one:
	.PROC
	.CALLINFO FRAME=0,NO_CALLS
	.ENTRY
.LVL7:
	.loc 1 94 0
	copy %r26,%r28	; a,
	bv %r0(%r2)
	depi -1,31,1,%r28	;,,
	.EXIT
	.PROCEND
	.cfi_endproc
.LFE18:
	.size	or_one, .-or_one
	.align 4
.globl load
	.type	load, @function
.LFB19:
	.loc 1 97 0
	.cfi_startproc
load:
	.PROC
	.CALLINFO FRAME=0,NO_CALLS
	.ENTRY
.LVL8:
	.loc 1 99 0
	ldw 0(%r26),%r28	; *p_1(D),
	bv,n %r0(%r2)
	.EXIT
	.PROCEND
	.cfi_endproc
.LFE19:
	.size	load, .-load
	.align 4
.globl store
	.type	store, @function
.LFB20:
	.loc 1 102 0
	.cfi_startproc
store:
	.PROC
	.CALLINFO FRAME=0,NO_CALLS
	.ENTRY
.LVL9:
	.loc 1 103 0
	ldi 255,%r28	;, tmp97
	stw %r28,0(%r26)	; *p_1(D), tmp97
	bv,n %r0(%r2)
	.EXIT
	.PROCEND
	.cfi_endproc
.LFE20:
	.size	store, .-store
	.align 4
.globl load_long
	.type	load_long, @function
.LFB21:
	.loc 1 107 0
	.cfi_startproc
load_long:
	.PROC
	.CALLINFO FRAME=0,NO_CALLS
	.ENTRY
.LVL10:
	.loc 1 109 0
	ldw 0(%r26),%r28	; *p_1(D),
	bv,n %r0(%r2)
	.EXIT
	.PROCEND
	.cfi_endproc
.LFE21:
	.size	load_long, .-load_long
	.align 4
.globl store_long
	.type	store_long, @function
.LFB22:
	.loc 1 112 0
	.cfi_startproc
store_long:
	.PROC
	.CALLINFO FRAME=0,NO_CALLS
	.ENTRY
.LVL11:
	.loc 1 113 0
	ldil L'287457280,%r28	;, tmp98
	ldo -3260(%r28),%r28	;, tmp98, tmp97
	stw %r28,0(%r26)	; *p_1(D), tmp97
	bv,n %r0(%r2)
	.EXIT
	.PROCEND
	.cfi_endproc
.LFE22:
	.size	store_long, .-store_long
	.align 4
.globl member
	.type	member, @function
.LFB23:
	.loc 1 123 0
	.cfi_startproc
member:
	.PROC
	.CALLINFO FRAME=0,NO_CALLS
	.ENTRY
.LVL12:
	.loc 1 124 0
	ldi 1,%r28	;, tmp99
	stw %r28,4(%r26)	; p_1(D)->b, tmp99
	.loc 1 126 0
	bv %r0(%r2)
	ldw 8(%r26),%r28	; p_1(D)->c,
	.EXIT
	.PROCEND
	.cfi_endproc
.LFE23:
	.size	member, .-member
	.align 4
.globl get_static_value_addr
	.type	get_static_value_addr, @function
.LFB24:
	.loc 1 132 0
	.cfi_startproc
get_static_value_addr:
	.PROC
	.CALLINFO FRAME=0,NO_CALLS
	.ENTRY
	.loc 1 134 0
	addil LR'static_value-$global$,%r27	;
	bv %r0(%r2)
	ldo RR'static_value-$global$(%r1),%r28	;, tmp98,
	.EXIT
	.PROCEND
	.cfi_endproc
.LFE24:
	.size	get_static_value_addr, .-get_static_value_addr
	.align 4
.globl get_static_value
	.type	get_static_value, @function
.LFB25:
	.loc 1 137 0
	.cfi_startproc
get_static_value:
	.PROC
	.CALLINFO FRAME=0,NO_CALLS
	.ENTRY
	.loc 1 139 0
	addil LR'static_value-$global$,%r27	;
	bv %r0(%r2)
	ldw RR'static_value-$global$(%r1),%r28	; static_value,
	.EXIT
	.PROCEND
	.cfi_endproc
.LFE25:
	.size	get_static_value, .-get_static_value
	.align 4
.globl set_static_value
	.type	set_static_value, @function
.LFB26:
	.loc 1 142 0
	.cfi_startproc
set_static_value:
	.PROC
	.CALLINFO FRAME=0,NO_CALLS
	.ENTRY
.LVL13:
	.loc 1 143 0
	addil LR'static_value-$global$,%r27	;
	bv %r0(%r2)
	stw %r26,RR'static_value-$global$(%r1)	; static_value, a
	.EXIT
	.PROCEND
	.cfi_endproc
.LFE26:
	.size	set_static_value, .-set_static_value
	.align 4
.globl set_stack
	.type	set_stack, @function
.LFB27:
	.loc 1 149 0
	.cfi_startproc
set_stack:
	.PROC
	.CALLINFO FRAME=64,NO_CALLS
	.ENTRY
	ldo 64(%r30),%r30	;,,
.LCFI0:
	.cfi_def_cfa_offset -64
	.loc 1 150 0
	ldi 254,%r28	;, tmp96
	stw %r28,-56(%r30)	; a, tmp96
.LVL14:
	.loc 1 151 0
	ldi 255,%r28	;, tmp97
	stw %r28,-52(%r30)	; b, tmp97
.LVL15:
	.loc 1 152 0
	bv %r0(%r2)
	ldo -64(%r30),%r30	;,,
	.EXIT
	.PROCEND
	.cfi_endproc
.LFE27:
	.size	set_stack, .-set_stack
	.align 4
.globl use_stack
	.type	use_stack, @function
.LFB28:
	.loc 1 155 0
	.cfi_startproc
use_stack:
	.PROC
	.CALLINFO FRAME=64,NO_CALLS
	.ENTRY
	ldo 64(%r30),%r30	;,,
.LCFI1:
	.cfi_def_cfa_offset -64
	.loc 1 156 0
	ldi 254,%r28	;, tmp100
	stw %r28,-56(%r30)	; a, tmp100
.LVL16:
	.loc 1 157 0
	ldi 255,%r28	;, tmp101
	stw %r28,-52(%r30)	; b, tmp101
.LVL17:
	.loc 1 158 0
	ldw -56(%r30),%r19	; a, a.1
	ldw -52(%r30),%r28	; b, b.2
	.loc 1 159 0
	addl %r19,%r28,%r28	; a.1, b.2,
	bv %r0(%r2)
	ldo -64(%r30),%r30	;,,
	.EXIT
	.PROCEND
	.cfi_endproc
.LFE28:
	.size	use_stack, .-use_stack
	.align 4
.globl call_self
	.type	call_self, @function
.LFB29:
	.loc 1 162 0
	.cfi_startproc
call_self:
	.PROC
	.CALLINFO FRAME=64,CALLS,SAVE_RP
	.ENTRY
	stw %r2,-20(%r30)	;,
	ldo 64(%r30),%r30	;,,
.LCFI2:
	.cfi_def_cfa_offset -64
	.cfi_offset 2, -20
	.loc 1 163 0
	bl call_self,%r2	;,
	nop
.LVL18:
	.loc 1 164 0
	ldw -84(%r30),%r2	;,
	bv %r0(%r2)
	ldo -64(%r30),%r30	;,,
	.EXIT
	.PROCEND
	.cfi_endproc
.LFE29:
	.size	call_self, .-call_self
	.align 4
.globl call_simple
	.type	call_simple, @function
.LFB30:
	.loc 1 167 0
	.cfi_startproc
call_simple:
	.PROC
	.CALLINFO FRAME=64,CALLS,SAVE_RP
	.ENTRY
.LVL19:
	stw %r2,-20(%r30)	;,
	ldo 64(%r30),%r30	;,,
.LCFI3:
	.cfi_def_cfa_offset -64
	.cfi_offset 2, -20
	.loc 1 168 0
	bl return_arg1,%r2	;,
	nop
.LVL20:
	.loc 1 169 0
	ldw -84(%r30),%r2	;,
	bv %r0(%r2)
	ldo -64(%r30),%r30	;,,
	.EXIT
	.PROCEND
	.cfi_endproc
.LFE30:
	.size	call_simple, .-call_simple
	.align 4
.globl call_complex1
	.type	call_complex1, @function
.LFB31:
	.loc 1 172 0
	.cfi_startproc
call_complex1:
	.PROC
	.CALLINFO FRAME=64,CALLS,SAVE_RP
	.ENTRY
	stw %r2,-20(%r30)	;,
	ldo 64(%r30),%r30	;,,
.LCFI4:
	.cfi_def_cfa_offset -64
	.cfi_offset 2, -20
	.loc 1 173 0
	bl return_arg1,%r2	;,
	ldi 254,%r26	;,
.LVL21:
	.loc 1 174 0
	ldo 1(%r28),%r28	;,,
	ldw -84(%r30),%r2	;,
	bv %r0(%r2)
	ldo -64(%r30),%r30	;,,
	.EXIT
	.PROCEND
	.cfi_endproc
.LFE31:
	.size	call_complex1, .-call_complex1
	.align 4
.globl call_complex2
	.type	call_complex2, @function
.LFB32:
	.loc 1 177 0
	.cfi_startproc
call_complex2:
	.PROC
	.CALLINFO FRAME=64,CALLS,SAVE_RP,ENTRY_GR=3
	.ENTRY
.LVL22:
	stw %r2,-20(%r30)	;,
	stwm %r3,64(%r30)	;,,
.LCFI5:
	.cfi_def_cfa_offset -64
	.cfi_offset 2, -20
	.cfi_offset 3, 0
	copy %r25,%r3	; b, b
.LVL23:
	.loc 1 178 0
	bl return_arg1,%r2	;,
	copy %r25,%r26	; b,
.LVL24:
	addil LR'static_value-$global$,%r27	;
	stw %r28,RR'static_value-$global$(%r1)	; static_value,
	.loc 1 180 0
	copy %r3,%r28	; b,
	ldw -84(%r30),%r2	;,
.LVL25:
	bv %r0(%r2)
	ldwm -64(%r30),%r3	;,,
	.EXIT
	.PROCEND
	.cfi_endproc
.LFE32:
	.size	call_complex2, .-call_complex2
	.align 4
.globl call_pointer
	.type	call_pointer, @function
.LFB33:
	.loc 1 183 0
	.cfi_startproc
call_pointer:
	.PROC
	.CALLINFO FRAME=64,CALLS,SAVE_RP
	.ENTRY
.LVL26:
	stw %r2,-20(%r30)	;,
	ldo 64(%r30),%r30	;,,
.LCFI6:
	.cfi_def_cfa_offset -64
	.cfi_offset 2, -20
	.loc 1 184 0
	copy %r26,%r22	; f,
	.CALL	ARGW0=GR
	bl $$dyncall,%r31
	copy %r31,%r2
.LVL27:
	.loc 1 185 0
	ldw -84(%r30),%r2	;,
	bv %r0(%r2)
	ldo -64(%r30),%r30	;,,
	.EXIT
	.PROCEND
	.cfi_endproc
.LFE33:
	.size	call_pointer, .-call_pointer
	.align 4
.globl condition
	.type	condition, @function
.LFB34:
	.loc 1 188 0
	.cfi_startproc
condition:
	.PROC
	.CALLINFO FRAME=0,NO_CALLS
	.ENTRY
.LVL28:
	.loc 1 190 0
	comclr,<> %r25,%r26,%r0	; b,, a
	ldi 1,%r25	;, b
.LVL29:
	.loc 1 192 0
	bv %r0(%r2)
	ldo 1(%r25),%r28	;, b,
	.EXIT
	.PROCEND
	.cfi_endproc
.LFE34:
	.size	condition, .-condition
	.align 4
.globl loop
	.type	loop, @function
.LFB35:
	.loc 1 195 0
	.cfi_startproc
loop:
	.PROC
	.CALLINFO FRAME=0,NO_CALLS
	.ENTRY
.LVL30:
	.loc 1 197 0
	comib,>= 0,%r26,.L41	;,, n,
	ldi 0,%r28	;, sum
	.loc 1 197 0 is_stmt 0 discriminator 2
	ldi 0,%r19	;, i
.LVL31:
	.loc 1 198 0 is_stmt 1 discriminator 2
	addl %r28,%r19,%r28	; sum, i, sum
.LVL32:
.L43:
	.loc 1 197 0 discriminator 2
	ldo 1(%r19),%r19	;, i, i
.LVL33:
	comb,<>,n %r26,%r19,.L43	; n,, i,
	addl %r28,%r19,%r28	; sum, i, sum
	bv,n %r0(%r2)
.LVL34:
.L41:
	.loc 1 200 0
	bv,n %r0(%r2)
	.EXIT
	.PROCEND
	.cfi_endproc
.LFE35:
	.size	loop, .-loop
	.align 4
.globl many_args
	.type	many_args, @function
.LFB36:
	.loc 1 204 0
	.cfi_startproc
many_args:
	.PROC
	.CALLINFO FRAME=0,NO_CALLS
	.ENTRY
.LVL35:
	.loc 1 205 0
	addl %r26,%r23,%r23	; a0, a3, tmp109
.LVL36:
	ldw -56(%r30),%r28	; a5, a5
	addl %r23,%r28,%r23	; tmp109, a5, tmp110
	.loc 1 206 0
	ldw -64(%r30),%r28	; a7, a7
	bv %r0(%r2)
	addl %r23,%r28,%r28	; tmp110, a7,
	.EXIT
	.PROCEND
	.cfi_endproc
.LFE36:
	.size	many_args, .-many_args
	.align 4
.globl call_many_args
	.type	call_many_args, @function
.LFB37:
	.loc 1 209 0
	.cfi_startproc
call_many_args:
	.PROC
	.CALLINFO FRAME=64,CALLS,SAVE_RP
	.ENTRY
	stw %r2,-20(%r30)	;,
	ldo 64(%r30),%r30	;,,
.LCFI7:
	.cfi_def_cfa_offset -64
	.cfi_offset 2, -20
	.loc 1 210 0
	ldi 4,%r28	;, tmp98
	stw %r28,-52(%r30)	;, tmp98
	ldi 5,%r28	;, tmp99
	stw %r28,-56(%r30)	;, tmp99
	ldi 6,%r28	;, tmp100
	stw %r28,-60(%r30)	;, tmp100
	ldi 7,%r28	;, tmp101
	stw %r28,-64(%r30)	;, tmp101
	ldi 0,%r26	;,
	ldi 1,%r25	;,
	ldi 2,%r24	;,
	bl many_args,%r2	;,
	ldi 3,%r23	;,
.LVL37:
	.loc 1 211 0
	ldw -84(%r30),%r2	;,
	bv %r0(%r2)
	ldo -64(%r30),%r30	;,,
	.EXIT
	.PROCEND
	.cfi_endproc
.LFE37:
	.size	call_many_args, .-call_many_args
	.align 4
.globl direct
	.type	direct, @function
.LFB38:
	.loc 1 215 0
	.cfi_startproc
direct:
	.PROC
	.CALLINFO FRAME=0,NO_CALLS
	.ENTRY
	.loc 1 216 0
#APP
; 216 "hppa-linux.c" 1
	nop
; 0 "" 2
#NO_APP
	bv,n %r0(%r2)
	.EXIT
	.PROCEND
	.cfi_endproc
.LFE38:
	.size	direct, .-direct
	.align 4
.globl binary
	.type	binary, @function
.LFB39:
	.loc 1 223 0
	.cfi_startproc
binary:
	.PROC
	.CALLINFO FRAME=0,NO_CALLS
	.ENTRY
	.loc 1 224 0
#APP
; 224 "hppa-linux.c" 1
	.align 4
; 0 "" 2
	.loc 1 225 0
; 225 "hppa-linux.c" 1
	.int 0x0
; 0 "" 2
#NO_APP
	bv,n %r0(%r2)
	.EXIT
	.PROCEND
	.cfi_endproc
.LFE39:
	.size	binary, .-binary
	.align 4
.globl main
	.type	main, @function
.LFB40:
	.loc 1 231 0
	.cfi_startproc
main:
	.PROC
	.CALLINFO FRAME=0,NO_CALLS
	.ENTRY
	.loc 1 233 0
	bv %r0(%r2)
	ldi 0,%r28	;,
	.EXIT
	.PROCEND
	.cfi_endproc
.LFE40:
	.size	main, .-main
.globl static_long
	.data
	.align 4
	.type	static_long, @object
	.size	static_long, 4
static_long:
	.word	305419896
.globl static_value
	.align 4
	.type	static_value, @object
	.size	static_value, 4
static_value:
	.word	10
	.text
.Letext0: