	.file	"i386-elf.c"
	.text
.Ltext0:
	.globl	null
	.type	null, @function
null:
.LFB0:
	.file 1 "i386-elf.c"
	.loc 1 2 0
	.cfi_startproc
	ret
	.cfi_endproc
.LFE0:
	.size	null, .-null
	.globl	return_zero
	.type	return_zero, @function
return_zero:
.LFB1:
	.loc 1 7 0
	.cfi_startproc
	.loc 1 9 0
	movl	$0, %eax
	ret
	.cfi_endproc
.LFE1:
	.size	return_zero, .-return_zero
	.globl	return_one
	.type	return_one, @function
return_one:
.LFB2:
	.loc 1 12 0
	.cfi_startproc
	.loc 1 14 0
	movl	$1, %eax
	ret
	.cfi_endproc
.LFE2:
	.size	return_one, .-return_one
	.globl	return_int_size
	.type	return_int_size, @function
return_int_size:
.LFB3:
	.loc 1 17 0
	.cfi_startproc
	.loc 1 19 0
	movl	$4, %eax
	ret
	.cfi_endproc
.LFE3:
	.size	return_int_size, .-return_int_size
	.globl	return_pointer_size
	.type	return_pointer_size, @function
return_pointer_size:
.LFB4:
	.loc 1 22 0
	.cfi_startproc
	.loc 1 24 0
	movl	$4, %eax
	ret
	.cfi_endproc
.LFE4:
	.size	return_pointer_size, .-return_pointer_size
	.globl	return_short_size
	.type	return_short_size, @function
return_short_size:
.LFB5:
	.loc 1 27 0
	.cfi_startproc
	.loc 1 29 0
	movl	$2, %eax
	ret
	.cfi_endproc
.LFE5:
	.size	return_short_size, .-return_short_size
	.globl	return_long_size
	.type	return_long_size, @function
return_long_size:
.LFB6:
	.loc 1 32 0
	.cfi_startproc
	.loc 1 34 0
	movl	$4, %eax
	ret
	.cfi_endproc
.LFE6:
	.size	return_long_size, .-return_long_size
	.globl	return_short
	.type	return_short, @function
return_short:
.LFB7:
	.loc 1 37 0
	.cfi_startproc
	.loc 1 39 0
	movl	$30600, %eax
	ret
	.cfi_endproc
.LFE7:
	.size	return_short, .-return_short
	.globl	return_long
	.type	return_long, @function
return_long:
.LFB8:
	.loc 1 42 0
	.cfi_startproc
	.loc 1 44 0
	movl	$2005440938, %eax
	ret
	.cfi_endproc
.LFE8:
	.size	return_long, .-return_long
	.globl	return_short_upper
	.type	return_short_upper, @function
return_short_upper:
.LFB9:
	.loc 1 47 0
	.cfi_startproc
	.loc 1 49 0
	movl	$-18, %eax
	ret
	.cfi_endproc
.LFE9:
	.size	return_short_upper, .-return_short_upper
	.globl	return_long_upper
	.type	return_long_upper, @function
return_long_upper:
.LFB10:
	.loc 1 52 0
	.cfi_startproc
	.loc 1 54 0
	movl	$-1122868, %eax
	ret
	.cfi_endproc
.LFE10:
	.size	return_long_upper, .-return_long_upper
	.globl	return_arg1
	.type	return_arg1, @function
return_arg1:
.LFB11:
	.loc 1 57 0
	.cfi_startproc
.LVL0:
	.loc 1 59 0
	movl	4(%esp), %eax
	ret
	.cfi_endproc
.LFE11:
	.size	return_arg1, .-return_arg1
	.globl	return_arg2
	.type	return_arg2, @function
return_arg2:
.LFB12:
	.loc 1 62 0
	.cfi_startproc
.LVL1:
	.loc 1 64 0
	movl	8(%esp), %eax
	ret
	.cfi_endproc
.LFE12:
	.size	return_arg2, .-return_arg2
	.globl	add
	.type	add, @function
add:
.LFB13:
	.loc 1 67 0
	.cfi_startproc
.LVL2:
	.loc 1 68 0
	movl	8(%esp), %eax
	addl	4(%esp), %eax
	.loc 1 69 0
	ret
	.cfi_endproc
.LFE13:
	.size	add, .-add
	.globl	add3
	.type	add3, @function
add3:
.LFB14:
	.loc 1 72 0
	.cfi_startproc
.LVL3:
	.loc 1 73 0
	movl	8(%esp), %eax
	addl	4(%esp), %eax
	addl	12(%esp), %eax
	.loc 1 74 0
	ret
	.cfi_endproc
.LFE14:
	.size	add3, .-add3
	.globl	add_two
	.type	add_two, @function
add_two:
.LFB15:
	.loc 1 77 0
	.cfi_startproc
.LVL4:
	.loc 1 78 0
	movl	4(%esp), %eax
	addl	$2, %eax
	.loc 1 79 0
	ret
	.cfi_endproc
.LFE15:
	.size	add_two, .-add_two
	.globl	inc
	.type	inc, @function
inc:
.LFB16:
	.loc 1 82 0
	.cfi_startproc
.LVL5:
	.loc 1 83 0
	movl	4(%esp), %eax
	incl	%eax
.LVL6:
	.loc 1 84 0
	ret
	.cfi_endproc
.LFE16:
	.size	inc, .-inc
	.globl	or
	.type	or, @function
or:
.LFB17:
	.loc 1 87 0
	.cfi_startproc
.LVL7:
	.loc 1 88 0
	movl	8(%esp), %eax
	orl	4(%esp), %eax
	.loc 1 89 0
	ret
	.cfi_endproc
.LFE17:
	.size	or, .-or
	.globl	or_one
	.type	or_one, @function
or_one:
.LFB18:
	.loc 1 92 0
	.cfi_startproc
.LVL8:
	.loc 1 93 0
	movl	4(%esp), %eax
	orl	$1, %eax
	.loc 1 94 0
	ret
	.cfi_endproc
.LFE18:
	.size	or_one, .-or_one
	.globl	load
	.type	load, @function
load:
.LFB19:
	.loc 1 97 0
	.cfi_startproc
.LVL9:
	.loc 1 98 0
	movl	4(%esp), %eax
	movl	(%eax), %eax
	.loc 1 99 0
	ret
	.cfi_endproc
.LFE19:
	.size	load, .-load
	.globl	store
	.type	store, @function
store:
.LFB20:
	.loc 1 102 0
	.cfi_startproc
.LVL10:
	.loc 1 103 0
	movl	4(%esp), %eax
	movl	$255, (%eax)
	ret
	.cfi_endproc
.LFE20:
	.size	store, .-store
	.globl	load_long
	.type	load_long, @function
load_long:
.LFB21:
	.loc 1 107 0
	.cfi_startproc
.LVL11:
	.loc 1 108 0
	movl	4(%esp), %eax
	movl	(%eax), %eax
	.loc 1 109 0
	ret
	.cfi_endproc
.LFE21:
	.size	load_long, .-load_long
	.globl	store_long
	.type	store_long, @function
store_long:
.LFB22:
	.loc 1 112 0
	.cfi_startproc
.LVL12:
	.loc 1 113 0
	movl	4(%esp), %eax
	movl	$287454020, (%eax)
	ret
	.cfi_endproc
.LFE22:
	.size	store_long, .-store_long
	.globl	member
	.type	member, @function
member:
.LFB23:
	.loc 1 123 0
	.cfi_startproc
.LVL13:
	movl	4(%esp), %eax
	.loc 1 124 0
	movl	$1, 4(%eax)
	.loc 1 125 0
	movl	8(%eax), %eax
	.loc 1 126 0
	ret
	.cfi_endproc
.LFE23:
	.size	member, .-member
	.globl	get_static_value_addr
	.type	get_static_value_addr, @function
get_static_value_addr:
.LFB24:
	.loc 1 132 0
	.cfi_startproc
	.loc 1 134 0
	movl	$static_value, %eax
	ret
	.cfi_endproc
.LFE24:
	.size	get_static_value_addr, .-get_static_value_addr
	.globl	get_static_value
	.type	get_static_value, @function
get_static_value:
.LFB25:
	.loc 1 137 0
	.cfi_startproc
	.loc 1 139 0
	movl	static_value, %eax
	ret
	.cfi_endproc
.LFE25:
	.size	get_static_value, .-get_static_value
	.globl	set_static_value
	.type	set_static_value, @function
set_static_value:
.LFB26:
	.loc 1 142 0
	.cfi_startproc
.LVL14:
	.loc 1 143 0
	movl	4(%esp), %eax
	movl	%eax, static_value
	ret
	.cfi_endproc
.LFE26:
	.size	set_static_value, .-set_static_value
	.globl	set_stack
	.type	set_stack, @function
set_stack:
.LFB27:
	.loc 1 149 0
	.cfi_startproc
	subl	$16, %esp
.LCFI0:
	.cfi_def_cfa_offset 20
	.loc 1 150 0
	movl	$254, 12(%esp)
.LVL15:
	.loc 1 151 0
	movl	$255, 8(%esp)
.LVL16:
	.loc 1 152 0
	addl	$16, %esp
.LCFI1:
	.cfi_def_cfa_offset 4
	ret
	.cfi_endproc
.LFE27:
	.size	set_stack, .-set_stack
	.globl	use_stack
	.type	use_stack, @function
use_stack:
.LFB28:
	.loc 1 155 0
	.cfi_startproc
	subl	$16, %esp
.LCFI2:
	.cfi_def_cfa_offset 20
	.loc 1 156 0
	movl	$254, 12(%esp)
.LVL17:
	.loc 1 157 0
	movl	$255, 8(%esp)
.LVL18:
	.loc 1 158 0
	movl	12(%esp), %edx
	movl	8(%esp), %eax
	addl	%edx, %eax
	.loc 1 159 0
	addl	$16, %esp
.LCFI3:
	.cfi_def_cfa_offset 4
	ret
	.cfi_endproc
.LFE28:
	.size	use_stack, .-use_stack
	.globl	call_self
	.type	call_self, @function
call_self:
.LFB29:
	.loc 1 162 0
	.cfi_startproc
	subl	$12, %esp
.LCFI4:
	.cfi_def_cfa_offset 16
	.loc 1 163 0
	call	call_self
.LVL19:
	.loc 1 164 0
	addl	$12, %esp
.LCFI5:
	.cfi_def_cfa_offset 4
	ret
	.cfi_endproc
.LFE29:
	.size	call_self, .-call_self
	.globl	call_simple
	.type	call_simple, @function
call_simple:
.LFB30:
	.loc 1 167 0
	.cfi_startproc
.LVL20:
	subl	$4, %esp
.LCFI6:
	.cfi_def_cfa_offset 8
	.loc 1 168 0
	movl	8(%esp), %eax
	movl	%eax, (%esp)
	call	return_arg1
.LVL21:
	.loc 1 169 0
	addl	$4, %esp
.LCFI7:
	.cfi_def_cfa_offset 4
	ret
	.cfi_endproc
.LFE30:
	.size	call_simple, .-call_simple
	.globl	call_complex1
	.type	call_complex1, @function
call_complex1:
.LFB31:
	.loc 1 172 0
	.cfi_startproc
	subl	$4, %esp
.LCFI8:
	.cfi_def_cfa_offset 8
	.loc 1 173 0
	movl	$254, (%esp)
	call	return_arg1
.LVL22:
	incl	%eax
	.loc 1 174 0
	addl	$4, %esp
.LCFI9:
	.cfi_def_cfa_offset 4
	ret
	.cfi_endproc
.LFE31:
	.size	call_complex1, .-call_complex1
	.globl	call_complex2
	.type	call_complex2, @function
call_complex2:
.LFB32:
	.loc 1 177 0
	.cfi_startproc
.LVL23:
	pushl	%ebx
.LCFI10:
	.cfi_def_cfa_offset 8
	.cfi_offset 3, -8
	subl	$4, %esp
.LCFI11:
	.cfi_def_cfa_offset 12
	movl	16(%esp), %ebx
	.loc 1 178 0
	movl	%ebx, (%esp)
	call	return_arg1
.LVL24:
	movl	%eax, static_value
	.loc 1 180 0
	movl	%ebx, %eax
	addl	$4, %esp
.LCFI12:
	.cfi_def_cfa_offset 8
	popl	%ebx
.LCFI13:
	.cfi_restore 3
	.cfi_def_cfa_offset 4
	ret
	.cfi_endproc
.LFE32:
	.size	call_complex2, .-call_complex2
	.globl	call_pointer
	.type	call_pointer, @function
call_pointer:
.LFB33:
	.loc 1 183 0
	.cfi_startproc
.LVL25:
	subl	$12, %esp
.LCFI14:
	.cfi_def_cfa_offset 16
	.loc 1 184 0
	call	*16(%esp)
.LVL26:
	.loc 1 185 0
	addl	$12, %esp
.LCFI15:
	.cfi_def_cfa_offset 4
	ret
	.cfi_endproc
.LFE33:
	.size	call_pointer, .-call_pointer
	.globl	condition
	.type	condition, @function
condition:
.LFB34:
	.loc 1 188 0
	.cfi_startproc
.LVL27:
	movl	8(%esp), %eax
	.loc 1 189 0
	cmpl	%eax, 4(%esp)
	jne	.L43
	.loc 1 190 0
	movl	$1, %eax
.L43:
.LVL28:
	.loc 1 191 0
	incl	%eax
.LVL29:
	.loc 1 192 0
	ret
	.cfi_endproc
.LFE34:
	.size	condition, .-condition
	.globl	loop
	.type	loop, @function
loop:
.LFB35:
	.loc 1 195 0
	.cfi_startproc
.LVL30:
	movl	4(%esp), %ecx
.LVL31:
	.loc 1 197 0
	testl	%ecx, %ecx
	jle	.L48
	.loc 1 196 0 discriminator 2
	movl	$0, %eax
	.loc 1 197 0 discriminator 2
	movl	$0, %edx
.LVL32:
.L47:
	.loc 1 198 0 discriminator 2
	addl	%edx, %eax
.LVL33:
	.loc 1 197 0 discriminator 2
	incl	%edx
.LVL34:
	cmpl	%ecx, %edx
	jne	.L47
	ret
.LVL35:
.L48:
	.loc 1 196 0
	movl	$0, %eax
	.loc 1 200 0
	ret
	.cfi_endproc
.LFE35:
	.size	loop, .-loop
	.globl	many_args
	.type	many_args, @function
many_args:
.LFB36:
	.loc 1 204 0
	.cfi_startproc
.LVL36:
	.loc 1 205 0
	movl	16(%esp), %eax
	addl	4(%esp), %eax
	addl	24(%esp), %eax
	addl	32(%esp), %eax
	.loc 1 206 0
	ret
	.cfi_endproc
.LFE36:
	.size	many_args, .-many_args
	.globl	call_many_args
	.type	call_many_args, @function
call_many_args:
.LFB37:
	.loc 1 209 0
	.cfi_startproc
	subl	$32, %esp
.LCFI16:
	.cfi_def_cfa_offset 36
	.loc 1 210 0
	movl	$7, 28(%esp)
	movl	$6, 24(%esp)
	movl	$5, 20(%esp)
	movl	$4, 16(%esp)
	movl	$3, 12(%esp)
	movl	$2, 8(%esp)
	movl	$1, 4(%esp)
	movl	$0, (%esp)
	call	many_args
.LVL37:
	.loc 1 211 0
	addl	$32, %esp
.LCFI17:
	.cfi_def_cfa_offset 4
	ret
	.cfi_endproc
.LFE37:
	.size	call_many_args, .-call_many_args
	.globl	direct
	.type	direct, @function
direct:
.LFB38:
	.loc 1 215 0
	.cfi_startproc
	.loc 1 216 0
/APP
/  216 "i386-elf.c" 1
	nop
/  0 "" 2
/NO_APP
	ret
	.cfi_endproc
.LFE38:
	.size	direct, .-direct
	.globl	binary
	.type	binary, @function
binary:
.LFB39:
	.loc 1 223 0
	.cfi_startproc
	.loc 1 224 0
/APP
/  224 "i386-elf.c" 1
	.align 4
/  0 "" 2
	.loc 1 225 0
/  225 "i386-elf.c" 1
	.int 0x0
/  0 "" 2
/NO_APP
	ret
	.cfi_endproc
.LFE39:
	.size	binary, .-binary
	.globl	main
	.type	main, @function
main:
.LFB40:
	.loc 1 231 0
	.cfi_startproc
	.loc 1 233 0
	movl	$0, %eax
	ret
	.cfi_endproc
.LFE40:
	.size	main, .-main
	.globl	static_long
	.data
	.align 4
	.type	static_long, @object
	.size	static_long, 4
static_long:
	.long	305419896
	.globl	static_value
	.align 4
	.type	static_value, @object
	.size	static_value, 4
static_value:
	.long	10
	.text
.Letext0: