	.section .mdebug.abi32
	.previous
	.gnu_attribute 4, 1

 # -G value = 8, Arch = mips1, ISA = 1
 # GNU C (GCC) version 4.7.2 (mips-elf)
 #	compiled by GNU C version 4.2.1 20070719  [FreeBSD], GMP version 5.1.1, MPFR version 3.1.2, MPC version 1.0.1
 # GGC heuristics: --param ggc-min-expand=100 --param ggc-min-heapsize=131072
 # options passed:  -nostdinc mips-elf.c -mno-synci
 # -auxbase-strip mips-elf.s -g -O -Wall -fno-builtin -fverbose-asm
 # -fomit-frame-pointer
 # options enabled:  -fauto-inc-dec -fbranch-count-reg
 # -fcombine-stack-adjustments -fcommon -fcompare-elim -fcprop-registers
 # -fdebug-types-section -fdefer-pop -fdelayed-branch
 # -fdelete-null-pointer-checks -fdwarf2-cfi-asm -fearly-inlining
 # -feliminate-unused-debug-types -fforward-propagate -ffunction-cse
 # -fgcse-lm -fgnu-runtime -fguess-branch-probability -fident
 # -fif-conversion -fif-conversion2 -finline -finline-atomics
 # -finline-functions-called-once -fipa-profile -fipa-pure-const
 # -fipa-reference -fira-share-save-slots -fira-share-spill-slots -fivopts
 # -fkeep-static-consts -fleading-underscore -fmath-errno -fmerge-constants
 # -fmerge-debug-strings -fmove-loop-invariants -fomit-frame-pointer
 # -fpcc-struct-return -fpeephole -fprefetch-loop-arrays
 # -fsched-critical-path-heuristic -fsched-dep-count-heuristic
 # -fsched-group-heuristic -fsched-interblock -fsched-last-insn-heuristic
 # -fsched-rank-heuristic -fsched-spec -fsched-spec-insn-heuristic
 # -fsched-stalled-insns-dep -fshow-column -fshrink-wrap -fsigned-zeros
 # -fsplit-ivs-in-unroller -fsplit-wide-types -fstrict-volatile-bitfields
 # -ftoplevel-reorder -ftrapping-math -ftree-bit-ccp -ftree-ccp -ftree-ch
 # -ftree-copy-prop -ftree-copyrename -ftree-cselim -ftree-dce
 # -ftree-dominator-opts -ftree-dse -ftree-forwprop -ftree-fre
 # -ftree-loop-if-convert -ftree-loop-im -ftree-loop-ivcanon
 # -ftree-loop-optimize -ftree-parallelize-loops= -ftree-phiprop -ftree-pta
 # -ftree-reassoc -ftree-scev-cprop -ftree-sink -ftree-slp-vectorize
 # -ftree-sra -ftree-ter -ftree-vect-loop-version -funit-at-a-time
 # -fvar-tracking -fvar-tracking-assignments -fverbose-asm
 # -fzero-initialized-in-bss -mcheck-zero-division -mdivide-traps
 # -mdouble-float -meb -mexplicit-relocs -mextern-sdata -mfp-exceptions
 # -mfp32 -mfused-madd -mgp32 -mgpopt -mhard-float -mlocal-sdata -mlong32
 # -mno-mdmx -mno-mips16 -mno-mips3d -mshared

	.text
$Ltext0:
	.cfi_sections	.debug_frame
	.align	2
	.globl	null
$LFB0 = .
	.file 1 "mips-elf.c"
	.loc 1 2 0
	.cfi_startproc
	.set	nomips16
	.ent	null
	.type	null, @function
null:
	.frame	$sp,0,$31		# vars= 0, regs= 0/0, args= 0, gp= 0
	.mask	0x00000000,0
	.fmask	0x00000000,0
	.set	noreorder
	.set	nomacro
	j	$31
	nop

	.set	macro
	.set	reorder
	.end	null
	.cfi_endproc
$LFE0:
	.size	null, .-null
	.align	2
	.globl	return_zero
$LFB1 = .
	.loc 1 7 0
	.cfi_startproc
	.set	nomips16
	.ent	return_zero
	.type	return_zero, @function
return_zero:
	.frame	$sp,0,$31		# vars= 0, regs= 0/0, args= 0, gp= 0
	.mask	0x00000000,0
	.fmask	0x00000000,0
	.set	noreorder
	.set	nomacro
	.loc 1 9 0
	j	$31
	move	$2,$0	 #,

	.set	macro
	.set	reorder
	.end	return_zero
	.cfi_endproc
$LFE1:
	.size	return_zero, .-return_zero
	.align	2
	.globl	return_one
$LFB2 = .
	.loc 1 12 0
	.cfi_startproc
	.set	nomips16
	.ent	return_one
	.type	return_one, @function
return_one:
	.frame	$sp,0,$31		# vars= 0, regs= 0/0, args= 0, gp= 0
	.mask	0x00000000,0
	.fmask	0x00000000,0
	.set	noreorder
	.set	nomacro
	.loc 1 14 0
	j	$31
	li	$2,1			# 0x1	 #,

	.set	macro
	.set	reorder
	.end	return_one
	.cfi_endproc
$LFE2:
	.size	return_one, .-return_one
	.align	2
	.globl	return_int_size
$LFB3 = .
	.loc 1 17 0
	.cfi_startproc
	.set	nomips16
	.ent	return_int_size
	.type	return_int_size, @function
return_int_size:
	.frame	$sp,0,$31		# vars= 0, regs= 0/0, args= 0, gp= 0
	.mask	0x00000000,0
	.fmask	0x00000000,0
	.set	noreorder
	.set	nomacro
	.loc 1 19 0
	j	$31
	li	$2,4			# 0x4	 #,

	.set	macro
	.set	reorder
	.end	return_int_size
	.cfi_endproc
$LFE3:
	.size	return_int_size, .-return_int_size
	.align	2
	.globl	return_pointer_size
$LFB4 = .
	.loc 1 22 0
	.cfi_startproc
	.set	nomips16
	.ent	return_pointer_size
	.type	return_pointer_size, @function
return_pointer_size:
	.frame	$sp,0,$31		# vars= 0, regs= 0/0, args= 0, gp= 0
	.mask	0x00000000,0
	.fmask	0x00000000,0
	.set	noreorder
	.set	nomacro
	.loc 1 24 0
	j	$31
	li	$2,4			# 0x4	 #,

	.set	macro
	.set	reorder
	.end	return_pointer_size
	.cfi_endproc
$LFE4:
	.size	return_pointer_size, .-return_pointer_size
	.align	2
	.globl	return_short_size
$LFB5 = .
	.loc 1 27 0
	.cfi_startproc
	.set	nomips16
	.ent	return_short_size
	.type	return_short_size, @function
return_short_size:
	.frame	$sp,0,$31		# vars= 0, regs= 0/0, args= 0, gp= 0
	.mask	0x00000000,0
	.fmask	0x00000000,0
	.set	noreorder
	.set	nomacro
	.loc 1 29 0
	j	$31
	li	$2,2			# 0x2	 #,

	.set	macro
	.set	reorder
	.end	return_short_size
	.cfi_endproc
$LFE5:
	.size	return_short_size, .-return_short_size
	.align	2
	.globl	return_long_size
$LFB6 = .
	.loc 1 32 0
	.cfi_startproc
	.set	nomips16
	.ent	return_long_size
	.type	return_long_size, @function
return_long_size:
	.frame	$sp,0,$31		# vars= 0, regs= 0/0, args= 0, gp= 0
	.mask	0x00000000,0
	.fmask	0x00000000,0
	.set	noreorder
	.set	nomacro
	.loc 1 34 0
	j	$31
	li	$2,4			# 0x4	 #,

	.set	macro
	.set	reorder
	.end	return_long_size
	.cfi_endproc
$LFE6:
	.size	return_long_size, .-return_long_size
	.align	2
	.globl	return_short
$LFB7 = .
	.loc 1 37 0
	.cfi_startproc
	.set	nomips16
	.ent	return_short
	.type	return_short, @function
return_short:
	.frame	$sp,0,$31		# vars= 0, regs= 0/0, args= 0, gp= 0
	.mask	0x00000000,0
	.fmask	0x00000000,0
	.set	noreorder
	.set	nomacro
	.loc 1 39 0
	j	$31
	li	$2,30600			# 0x7788	 #,

	.set	macro
	.set	reorder
	.end	return_short
	.cfi_endproc
$LFE7:
	.size	return_short, .-return_short
	.align	2
	.globl	return_long
$LFB8 = .
	.loc 1 42 0
	.cfi_startproc
	.set	nomips16
	.ent	return_long
	.type	return_long, @function
return_long:
	.frame	$sp,0,$31		# vars= 0, regs= 0/0, args= 0, gp= 0
	.mask	0x00000000,0
	.fmask	0x00000000,0
	.set	noreorder
	.set	nomacro
	.loc 1 44 0
	li	$2,2005401600			# 0x77880000	 # tmp196,
	j	$31
	ori	$2,$2,0x99aa	 #, tmp196,

	.set	macro
	.set	reorder
	.end	return_long
	.cfi_endproc
$LFE8:
	.size	return_long, .-return_long
	.align	2
	.globl	return_short_upper
$LFB9 = .
	.loc 1 47 0
	.cfi_startproc
	.set	nomips16
	.ent	return_short_upper
	.type	return_short_upper, @function
return_short_upper:
	.frame	$sp,0,$31		# vars= 0, regs= 0/0, args= 0, gp= 0
	.mask	0x00000000,0
	.fmask	0x00000000,0
	.set	noreorder
	.set	nomacro
	.loc 1 49 0
	j	$31
	li	$2,-18			# 0xffffffffffffffee	 #,

	.set	macro
	.set	reorder
	.end	return_short_upper
	.cfi_endproc
$LFE9:
	.size	return_short_upper, .-return_short_upper
	.align	2
	.globl	return_long_upper
$LFB10 = .
	.loc 1 52 0
	.cfi_startproc
	.set	nomips16
	.ent	return_long_upper
	.type	return_long_upper, @function
return_long_upper:
	.frame	$sp,0,$31		# vars= 0, regs= 0/0, args= 0, gp= 0
	.mask	0x00000000,0
	.fmask	0x00000000,0
	.set	noreorder
	.set	nomacro
	.loc 1 54 0
	li	$2,-1179648			# 0xffffffffffee0000	 # tmp196,
	j	$31
	ori	$2,$2,0xddcc	 #, tmp196,

	.set	macro
	.set	reorder
	.end	return_long_upper
	.cfi_endproc
$LFE10:
	.size	return_long_upper, .-return_long_upper
	.align	2
	.globl	return_arg1
$LFB11 = .
	.loc 1 57 0
	.cfi_startproc
	.set	nomips16
	.ent	return_arg1
	.type	return_arg1, @function
return_arg1:
	.frame	$sp,0,$31		# vars= 0, regs= 0/0, args= 0, gp= 0
	.mask	0x00000000,0
	.fmask	0x00000000,0
	.set	noreorder
	.set	nomacro
$LVL0 = .
	.loc 1 59 0
	j	$31
	move	$2,$4	 #, a

	.set	macro
	.set	reorder
	.end	return_arg1
	.cfi_endproc
$LFE11:
	.size	return_arg1, .-return_arg1
	.align	2
	.globl	return_arg2
$LFB12 = .
	.loc 1 62 0
	.cfi_startproc
	.set	nomips16
	.ent	return_arg2
	.type	return_arg2, @function
return_arg2:
	.frame	$sp,0,$31		# vars= 0, regs= 0/0, args= 0, gp= 0
	.mask	0x00000000,0
	.fmask	0x00000000,0
	.set	noreorder
	.set	nomacro
$LVL1 = .
	.loc 1 64 0
	j	$31
	move	$2,$5	 #, b

	.set	macro
	.set	reorder
	.end	return_arg2
	.cfi_endproc
$LFE12:
	.size	return_arg2, .-return_arg2
	.align	2
	.globl	add
$LFB13 = .
	.loc 1 67 0
	.cfi_startproc
	.set	nomips16
	.ent	add
	.type	add, @function
add:
	.frame	$sp,0,$31		# vars= 0, regs= 0/0, args= 0, gp= 0
	.mask	0x00000000,0
	.fmask	0x00000000,0
	.set	noreorder
	.set	nomacro
$LVL2 = .
	.loc 1 69 0
	j	$31
	addu	$2,$4,$5	 #, a, b

	.set	macro
	.set	reorder
	.end	add
	.cfi_endproc
$LFE13:
	.size	add, .-add
	.align	2
	.globl	add3
$LFB14 = .
	.loc 1 72 0
	.cfi_startproc
	.set	nomips16
	.ent	add3
	.type	add3, @function
add3:
	.frame	$sp,0,$31		# vars= 0, regs= 0/0, args= 0, gp= 0
	.mask	0x00000000,0
	.fmask	0x00000000,0
	.set	noreorder
	.set	nomacro
$LVL3 = .
	.loc 1 73 0
	addu	$2,$4,$5	 # tmp201, a, b
	.loc 1 74 0
	j	$31
	addu	$2,$2,$6	 #, tmp201, c

	.set	macro
	.set	reorder
	.end	add3
	.cfi_endproc
$LFE14:
	.size	add3, .-add3
	.align	2
	.globl	add_two
$LFB15 = .
	.loc 1 77 0
	.cfi_startproc
	.set	nomips16
	.ent	add_two
	.type	add_two, @function
add_two:
	.frame	$sp,0,$31		# vars= 0, regs= 0/0, args= 0, gp= 0
	.mask	0x00000000,0
	.fmask	0x00000000,0
	.set	noreorder
	.set	nomacro
$LVL4 = .
	.loc 1 79 0
	j	$31
	addiu	$2,$4,2	 #, a,

	.set	macro
	.set	reorder
	.end	add_two
	.cfi_endproc
$LFE15:
	.size	add_two, .-add_two
	.align	2
	.globl	inc
$LFB16 = .
	.loc 1 82 0
	.cfi_startproc
	.set	nomips16
	.ent	inc
	.type	inc, @function
inc:
	.frame	$sp,0,$31		# vars= 0, regs= 0/0, args= 0, gp= 0
	.mask	0x00000000,0
	.fmask	0x00000000,0
	.set	noreorder
	.set	nomacro
$LVL5 = .
	.loc 1 84 0
	j	$31
	addiu	$2,$4,1	 #, a,

	.set	macro
	.set	reorder
	.end	inc
	.cfi_endproc
$LFE16:
	.size	inc, .-inc
	.align	2
	.globl	or
$LFB17 = .
	.loc 1 87 0
	.cfi_startproc
	.set	nomips16
	.ent	or
	.type	or, @function
or:
	.frame	$sp,0,$31		# vars= 0, regs= 0/0, args= 0, gp= 0
	.mask	0x00000000,0
	.fmask	0x00000000,0
	.set	noreorder
	.set	nomacro
$LVL6 = .
	.loc 1 89 0
	j	$31
	or	$2,$5,$4	 #, b, a

	.set	macro
	.set	reorder
	.end	or
	.cfi_endproc
$LFE17:
	.size	or, .-or
	.align	2
	.globl	or_one
$LFB18 = .
	.loc 1 92 0
	.cfi_startproc
	.set	nomips16
	.ent	or_one
	.type	or_one, @function
or_one:
	.frame	$sp,0,$31		# vars= 0, regs= 0/0, args= 0, gp= 0
	.mask	0x00000000,0
	.fmask	0x00000000,0
	.set	noreorder
	.set	nomacro
$LVL7 = .
	.loc 1 94 0
	j	$31
	ori	$2,$4,0x1	 #, a,

	.set	macro
	.set	reorder
	.end	or_one
	.cfi_endproc
$LFE18:
	.size	or_one, .-or_one
	.align	2
	.globl	load
$LFB19 = .
	.loc 1 97 0
	.cfi_startproc
	.set	nomips16
	.ent	load
	.type	load, @function
load:
	.frame	$sp,0,$31		# vars= 0, regs= 0/0, args= 0, gp= 0
	.mask	0x00000000,0
	.fmask	0x00000000,0
	.set	noreorder
	.set	nomacro
$LVL8 = .
	.loc 1 98 0
	lw	$2,0($4)	 # D.1089, *p_1(D)
	.loc 1 99 0
	j	$31
	nop

	.set	macro
	.set	reorder
	.end	load
	.cfi_endproc
$LFE19:
	.size	load, .-load
	.align	2
	.globl	store
$LFB20 = .
	.loc 1 102 0
	.cfi_startproc
	.set	nomips16
	.ent	store
	.type	store, @function
store:
	.frame	$sp,0,$31		# vars= 0, regs= 0/0, args= 0, gp= 0
	.mask	0x00000000,0
	.fmask	0x00000000,0
	.set	noreorder
	.set	nomacro
$LVL9 = .
	.loc 1 103 0
	li	$2,255			# 0xff	 # tmp195,
	sw	$2,0($4)	 # tmp195, *p_1(D)
	j	$31
	nop

	.set	macro
	.set	reorder
	.end	store
	.cfi_endproc
$LFE20:
	.size	store, .-store
	.align	2
	.globl	load_long
$LFB21 = .
	.loc 1 107 0
	.cfi_startproc
	.set	nomips16
	.ent	load_long
	.type	load_long, @function
load_long:
	.frame	$sp,0,$31		# vars= 0, regs= 0/0, args= 0, gp= 0
	.mask	0x00000000,0
	.fmask	0x00000000,0
	.set	noreorder
	.set	nomacro
$LVL10 = .
	.loc 1 108 0
	lw	$2,0($4)	 # D.1087, *p_1(D)
	.loc 1 109 0
	j	$31
	nop

	.set	macro
	.set	reorder
	.end	load_long
	.cfi_endproc
$LFE21:
	.size	load_long, .-load_long
	.align	2
	.globl	store_long
$LFB22 = .
	.loc 1 112 0
	.cfi_startproc
	.set	nomips16
	.ent	store_long
	.type	store_long, @function
store_long:
	.frame	$sp,0,$31		# vars= 0, regs= 0/0, args= 0, gp= 0
	.mask	0x00000000,0
	.fmask	0x00000000,0
	.set	noreorder
	.set	nomacro
$LVL11 = .
	.loc 1 113 0
	li	$2,287440896			# 0x11220000	 # tmp196,
	addiu	$2,$2,13124	 # tmp195, tmp196,
	sw	$2,0($4)	 # tmp195, *p_1(D)
	j	$31
	nop

	.set	macro
	.set	reorder
	.end	store_long
	.cfi_endproc
$LFE22:
	.size	store_long, .-store_long
	.align	2
	.globl	member
$LFB23 = .
	.loc 1 123 0
	.cfi_startproc
	.set	nomips16
	.ent	member
	.type	member, @function
member:
	.frame	$sp,0,$31		# vars= 0, regs= 0/0, args= 0, gp= 0
	.mask	0x00000000,0
	.fmask	0x00000000,0
	.set	noreorder
	.set	nomacro
$LVL12 = .
	.loc 1 124 0
	li	$2,1			# 0x1	 # tmp197,
	sw	$2,4($4)	 # tmp197, p_1(D)->b
	.loc 1 126 0
	lw	$2,8($4)	 #, p_1(D)->c
	j	$31
	nop

	.set	macro
	.set	reorder
	.end	member
	.cfi_endproc
$LFE23:
	.size	member, .-member
	.align	2
	.globl	get_static_value_addr
$LFB24 = .
	.loc 1 132 0
	.cfi_startproc
	.set	nomips16
	.ent	get_static_value_addr
	.type	get_static_value_addr, @function
get_static_value_addr:
	.frame	$sp,0,$31		# vars= 0, regs= 0/0, args= 0, gp= 0
	.mask	0x00000000,0
	.fmask	0x00000000,0
	.set	noreorder
	.set	nomacro
	.loc 1 134 0
	j	$31
	addiu	$2,$28,%gp_rel(static_value)	 #,,

	.set	macro
	.set	reorder
	.end	get_static_value_addr
	.cfi_endproc
$LFE24:
	.size	get_static_value_addr, .-get_static_value_addr
	.align	2
	.globl	get_static_value
$LFB25 = .
	.loc 1 137 0
	.cfi_startproc
	.set	nomips16
	.ent	get_static_value
	.type	get_static_value, @function
get_static_value:
	.frame	$sp,0,$31		# vars= 0, regs= 0/0, args= 0, gp= 0
	.mask	0x00000000,0
	.fmask	0x00000000,0
	.set	noreorder
	.set	nomacro
	.loc 1 139 0
	lw	$2,%gp_rel(static_value)($28)	 #, static_value
	j	$31
	nop

	.set	macro
	.set	reorder
	.end	get_static_value
	.cfi_endproc
$LFE25:
	.size	get_static_value, .-get_static_value
	.align	2
	.globl	set_static_value
$LFB26 = .
	.loc 1 142 0
	.cfi_startproc
	.set	nomips16
	.ent	set_static_value
	.type	set_static_value, @function
set_static_value:
	.frame	$sp,0,$31		# vars= 0, regs= 0/0, args= 0, gp= 0
	.mask	0x00000000,0
	.fmask	0x00000000,0
	.set	noreorder
	.set	nomacro
$LVL13 = .
	.loc 1 143 0
	j	$31
	sw	$4,%gp_rel(static_value)($28)	 # a, static_value

	.set	macro
	.set	reorder
	.end	set_static_value
	.cfi_endproc
$LFE26:
	.size	set_static_value, .-set_static_value
	.align	2
	.globl	set_stack
$LFB27 = .
	.loc 1 149 0
	.cfi_startproc
	.set	nomips16
	.ent	set_stack
	.type	set_stack, @function
set_stack:
	.frame	$sp,8,$31		# vars= 8, regs= 0/0, args= 0, gp= 0
	.mask	0x00000000,0
	.fmask	0x00000000,0
	.set	noreorder
	.set	nomacro
	addiu	$sp,$sp,-8	 #,,
$LCFI0 = .
	.cfi_def_cfa_offset 8
	.loc 1 150 0
	li	$2,254			# 0xfe	 # tmp194,
	sw	$2,0($sp)	 # tmp194, a
$LVL14 = .
	.loc 1 151 0
	li	$2,255			# 0xff	 # tmp195,
	sw	$2,4($sp)	 # tmp195, b
$LVL15 = .
	.loc 1 152 0
	j	$31	 #
	addiu	$sp,$sp,8	 #,,

$LCFI1 = .
	.cfi_def_cfa_offset 0
	.set	macro
	.set	reorder
	.end	set_stack
	.cfi_endproc
$LFE27:
	.size	set_stack, .-set_stack
	.align	2
	.globl	use_stack
$LFB28 = .
	.loc 1 155 0
	.cfi_startproc
	.set	nomips16
	.ent	use_stack
	.type	use_stack, @function
use_stack:
	.frame	$sp,8,$31		# vars= 8, regs= 0/0, args= 0, gp= 0
	.mask	0x00000000,0
	.fmask	0x00000000,0
	.set	noreorder
	.set	nomacro
	addiu	$sp,$sp,-8	 #,,
$LCFI2 = .
	.cfi_def_cfa_offset 8
	.loc 1 156 0
	li	$2,254			# 0xfe	 # tmp198,
	sw	$2,0($sp)	 # tmp198, a
$LVL16 = .
	.loc 1 157 0
	li	$2,255			# 0xff	 # tmp199,
	sw	$2,4($sp)	 # tmp199, b
$LVL17 = .
	.loc 1 158 0
	lw	$3,0($sp)	 # a.1, a
	lw	$2,4($sp)	 # b.2, b
	nop
	.loc 1 159 0
	addu	$2,$3,$2	 #, a.1, b.2
	j	$31	 #
	addiu	$sp,$sp,8	 #,,

$LCFI3 = .
	.cfi_def_cfa_offset 0
	.set	macro
	.set	reorder
	.end	use_stack
	.cfi_endproc
$LFE28:
	.size	use_stack, .-use_stack
	.align	2
	.globl	call_self
$LFB29 = .
	.loc 1 162 0
	.cfi_startproc
	.set	nomips16
	.ent	call_self
	.type	call_self, @function
call_self:
	.frame	$sp,24,$31		# vars= 0, regs= 1/0, args= 16, gp= 0
	.mask	0x80000000,-4
	.fmask	0x00000000,0
	.set	noreorder
	.set	nomacro
	addiu	$sp,$sp,-24	 #,,
$LCFI4 = .
	.cfi_def_cfa_offset 24
	sw	$31,20($sp)	 #,
	.cfi_offset 31, -4
	.loc 1 163 0
	jal	call_self
	nop
	 #
$LVL18 = .
	.loc 1 164 0
	lw	$31,20($sp)	 #,
	nop
	j	$31	 #
	addiu	$sp,$sp,24	 #,,

$LCFI5 = .
	.cfi_def_cfa_offset 0
	.cfi_restore 31
	.set	macro
	.set	reorder
	.end	call_self
	.cfi_endproc
$LFE29:
	.size	call_self, .-call_self
	.align	2
	.globl	call_simple
$LFB30 = .
	.loc 1 167 0
	.cfi_startproc
	.set	nomips16
	.ent	call_simple
	.type	call_simple, @function
call_simple:
	.frame	$sp,24,$31		# vars= 0, regs= 1/0, args= 16, gp= 0
	.mask	0x80000000,-4
	.fmask	0x00000000,0
	.set	noreorder
	.set	nomacro
$LVL19 = .
	addiu	$sp,$sp,-24	 #,,
$LCFI6 = .
	.cfi_def_cfa_offset 24
	sw	$31,20($sp)	 #,
	.cfi_offset 31, -4
	.loc 1 168 0
	jal	return_arg1
	nop
	 #
$LVL20 = .
	.loc 1 169 0
	lw	$31,20($sp)	 #,
	nop
	j	$31	 #
	addiu	$sp,$sp,24	 #,,

$LCFI7 = .
	.cfi_def_cfa_offset 0
	.cfi_restore 31
	.set	macro
	.set	reorder
	.end	call_simple
	.cfi_endproc
$LFE30:
	.size	call_simple, .-call_simple
	.align	2
	.globl	call_complex1
$LFB31 = .
	.loc 1 172 0
	.cfi_startproc
	.set	nomips16
	.ent	call_complex1
	.type	call_complex1, @function
call_complex1:
	.frame	$sp,24,$31		# vars= 0, regs= 1/0, args= 16, gp= 0
	.mask	0x80000000,-4
	.fmask	0x00000000,0
	.set	noreorder
	.set	nomacro
	addiu	$sp,$sp,-24	 #,,
$LCFI8 = .
	.cfi_def_cfa_offset 24
	sw	$31,20($sp)	 #,
	.cfi_offset 31, -4
	.loc 1 173 0
	jal	return_arg1	 #
	li	$4,254			# 0xfe	 #,

$LVL21 = .
	.loc 1 174 0
	addiu	$2,$2,1	 #,,
	lw	$31,20($sp)	 #,
	nop
	j	$31	 #
	addiu	$sp,$sp,24	 #,,

$LCFI9 = .
	.cfi_def_cfa_offset 0
	.cfi_restore 31
	.set	macro
	.set	reorder
	.end	call_complex1
	.cfi_endproc
$LFE31:
	.size	call_complex1, .-call_complex1
	.align	2
	.globl	call_complex2
$LFB32 = .
	.loc 1 177 0
	.cfi_startproc
	.set	nomips16
	.ent	call_complex2
	.type	call_complex2, @function
call_complex2:
	.frame	$sp,24,$31		# vars= 0, regs= 2/0, args= 16, gp= 0
	.mask	0x80010000,-4
	.fmask	0x00000000,0
	.set	noreorder
	.set	nomacro
$LVL22 = .
	addiu	$sp,$sp,-24	 #,,
$LCFI10 = .
	.cfi_def_cfa_offset 24
	sw	$31,20($sp)	 #,
	sw	$16,16($sp)	 #,
	.cfi_offset 31, -4
	.cfi_offset 16, -8
	move	$16,$5	 # b, b
$LVL23 = .
	.loc 1 178 0
	jal	return_arg1	 #
	move	$4,$5	 #, b

$LVL24 = .
	sw	$2,%gp_rel(static_value)($28)	 #, static_value
	.loc 1 180 0
	move	$2,$16	 #, b
	lw	$31,20($sp)	 #,
	lw	$16,16($sp)	 #,
$LVL25 = .
	j	$31	 #
	addiu	$sp,$sp,24	 #,,

$LCFI11 = .
	.cfi_def_cfa_offset 0
	.cfi_restore 16
	.cfi_restore 31
	.set	macro
	.set	reorder
	.end	call_complex2
	.cfi_endproc
$LFE32:
	.size	call_complex2, .-call_complex2
	.align	2
	.globl	call_pointer
$LFB33 = .
	.loc 1 183 0
	.cfi_startproc
	.set	nomips16
	.ent	call_pointer
	.type	call_pointer, @function
call_pointer:
	.frame	$sp,24,$31		# vars= 0, regs= 1/0, args= 16, gp= 0
	.mask	0x80000000,-4
	.fmask	0x00000000,0
	.set	noreorder
	.set	nomacro
$LVL26 = .
	addiu	$sp,$sp,-24	 #,,
$LCFI12 = .
	.cfi_def_cfa_offset 24
	sw	$31,20($sp)	 #,
	.cfi_offset 31, -4
	.loc 1 184 0
	jalr	$4
	nop
	 # f
$LVL27 = .
	.loc 1 185 0
	lw	$31,20($sp)	 #,
	nop
	j	$31	 #
	addiu	$sp,$sp,24	 #,,

$LCFI13 = .
	.cfi_def_cfa_offset 0
	.cfi_restore 31
	.set	macro
	.set	reorder
	.end	call_pointer
	.cfi_endproc
$LFE33:
	.size	call_pointer, .-call_pointer
	.align	2
	.globl	condition
$LFB34 = .
	.loc 1 188 0
	.cfi_startproc
	.set	nomips16
	.ent	condition
	.type	condition, @function
condition:
	.frame	$sp,0,$31		# vars= 0, regs= 0/0, args= 0, gp= 0
	.mask	0x00000000,0
	.fmask	0x00000000,0
	.set	noreorder
	.set	nomacro
$LVL28 = .
	.loc 1 189 0
	bne	$4,$5,$L43
	nop
	 #, a, b,
	.loc 1 190 0
	li	$5,1			# 0x1	 # b,
$LVL29 = .
$L43:
	.loc 1 192 0
	j	$31
	addiu	$2,$5,1	 #, b,

	.set	macro
	.set	reorder
	.end	condition
	.cfi_endproc
$LFE34:
	.size	condition, .-condition
	.align	2
	.globl	loop
$LFB35 = .
	.loc 1 195 0
	.cfi_startproc
	.set	nomips16
	.ent	loop
	.type	loop, @function
loop:
	.frame	$sp,0,$31		# vars= 0, regs= 0/0, args= 0, gp= 0
	.mask	0x00000000,0
	.fmask	0x00000000,0
	.set	noreorder
	.set	nomacro
$LVL30 = .
	.loc 1 197 0
	blez	$4,$L48	 #, n,
	move	$3,$0	 # i,

	.loc 1 196 0 discriminator 2
	move	$2,$0	 # sum,
$LVL31 = .
	.loc 1 198 0 discriminator 2
	addu	$2,$2,$3	 # sum, sum, i
$LVL32 = .
$L50:
	.loc 1 197 0 discriminator 2
	addiu	$3,$3,1	 # i, i,
$LVL33 = .
	bne	$3,$4,$L50	 #, i, n,
	addu	$2,$2,$3	 # sum, sum, i

	.loc 1 197 0 is_stmt 0
	j	$31
	subu	$2,$2,$3	 # sum, sum, i

$LVL34 = .
$L48:
	.loc 1 200 0 is_stmt 1
	j	$31
	move	$2,$0	 # sum,

	.set	macro
	.set	reorder
	.end	loop
	.cfi_endproc
$LFE35:
	.size	loop, .-loop
	.align	2
	.globl	many_args
$LFB36 = .
	.loc 1 204 0
	.cfi_startproc
	.set	nomips16
	.ent	many_args
	.type	many_args, @function
many_args:
	.frame	$sp,0,$31		# vars= 0, regs= 0/0, args= 0, gp= 0
	.mask	0x00000000,0
	.fmask	0x00000000,0
	.set	noreorder
	.set	nomacro
$LVL35 = .
	.loc 1 205 0
	addu	$4,$4,$7	 # tmp207, a0, a3
$LVL36 = .
	lw	$2,20($sp)	 # a5, a5
	nop
	addu	$4,$4,$2	 # tmp208, tmp207, a5
	.loc 1 206 0
	lw	$2,28($sp)	 # a7, a7
	j	$31
	addu	$2,$4,$2	 #, tmp208, a7

	.set	macro
	.set	reorder
	.end	many_args
	.cfi_endproc
$LFE36:
	.size	many_args, .-many_args
	.align	2
	.globl	call_many_args
$LFB37 = .
	.loc 1 209 0
	.cfi_startproc
	.set	nomips16
	.ent	call_many_args
	.type	call_many_args, @function
call_many_args:
	.frame	$sp,40,$31		# vars= 0, regs= 1/0, args= 32, gp= 0
	.mask	0x80000000,-4
	.fmask	0x00000000,0
	.set	noreorder
	.set	nomacro
	addiu	$sp,$sp,-40	 #,,
$LCFI14 = .
	.cfi_def_cfa_offset 40
	sw	$31,36($sp)	 #,
	.cfi_offset 31, -4
	.loc 1 210 0
	li	$2,4			# 0x4	 # tmp196,
	sw	$2,16($sp)	 # tmp196,
	li	$2,5			# 0x5	 # tmp197,
	sw	$2,20($sp)	 # tmp197,
	li	$2,6			# 0x6	 # tmp198,
	sw	$2,24($sp)	 # tmp198,
	li	$2,7			# 0x7	 # tmp199,
	sw	$2,28($sp)	 # tmp199,
	move	$4,$0	 #,
	li	$5,1			# 0x1	 #,
	li	$6,2			# 0x2	 #,
	jal	many_args	 #
	li	$7,3			# 0x3	 #,

$LVL37 = .
	.loc 1 211 0
	lw	$31,36($sp)	 #,
	nop
	j	$31	 #
	addiu	$sp,$sp,40	 #,,

$LCFI15 = .
	.cfi_def_cfa_offset 0
	.cfi_restore 31
	.set	macro
	.set	reorder
	.end	call_many_args
	.cfi_endproc
$LFE37:
	.size	call_many_args, .-call_many_args
	.align	2
	.globl	direct
$LFB38 = .
	.loc 1 215 0
	.cfi_startproc
	.set	nomips16
	.ent	direct
	.type	direct, @function
direct:
	.frame	$sp,0,$31		# vars= 0, regs= 0/0, args= 0, gp= 0
	.mask	0x00000000,0
	.fmask	0x00000000,0
	.loc 1 216 0
 #APP
 # 216 "mips-elf.c" 1
	nop
 # 0 "" 2
 #NO_APP
	j	$31
	.end	direct
	.cfi_endproc
$LFE38:
	.size	direct, .-direct
	.align	2
	.globl	binary
$LFB39 = .
	.loc 1 223 0
	.cfi_startproc
	.set	nomips16
	.ent	binary
	.type	binary, @function
binary:
	.frame	$sp,0,$31		# vars= 0, regs= 0/0, args= 0, gp= 0
	.mask	0x00000000,0
	.fmask	0x00000000,0
	.loc 1 224 0
 #APP
 # 224 "mips-elf.c" 1
	.align 4
 # 0 "" 2
	.loc 1 225 0
 # 225 "mips-elf.c" 1
	.int 0x0
 # 0 "" 2
 #NO_APP
	j	$31
	.end	binary
	.cfi_endproc
$LFE39:
	.size	binary, .-binary
	.align	2
	.globl	main
$LFB40 = .
	.loc 1 231 0
	.cfi_startproc
	.set	nomips16
	.ent	main
	.type	main, @function
main:
	.frame	$sp,0,$31		# vars= 0, regs= 0/0, args= 0, gp= 0
	.mask	0x00000000,0
	.fmask	0x00000000,0
	.set	noreorder
	.set	nomacro
	.loc 1 233 0
	j	$31
	move	$2,$0	 #,

	.set	macro
	.set	reorder
	.end	main
	.cfi_endproc
$LFE40:
	.size	main, .-main
	.globl	static_long
	.section	.sdata,"aw",@progbits
	.align	2
	.type	static_long, @object
	.size	static_long, 4
static_long:
	.word	305419896
	.globl	static_value
	.align	2
	.type	static_value, @object
	.size	static_value, 4
static_value:
	.word	10
	.text
$Letext0: