	.file	"powerpc-elf.c"

 # rs6000/powerpc options: -msdata=data -G 8
 # GNU C (GCC) version 4.7.2 (powerpc-elf)
 #	compiled by GNU C version 4.2.1 20070719  [FreeBSD], GMP version 5.1.1, MPFR version 3.1.2, MPC version 1.0.1
 # GGC heuristics: --param ggc-min-expand=100 --param ggc-min-heapsize=131072
 # options passed:  -nostdinc powerpc-elf.c -auxbase-strip powerpc-elf.s -g
 # -O -Wall -fno-builtin -fverbose-asm -fomit-frame-pointer
 # options enabled:  -fauto-inc-dec -fbranch-count-reg
 # -fcombine-stack-adjustments -fcommon -fcompare-elim -fcprop-registers
 # -fdebug-types-section -fdefer-pop -fdelete-null-pointer-checks
 # -fdwarf2-cfi-asm -fearly-inlining -feliminate-unused-debug-types
 # -fforward-propagate -ffunction-cse -fgcse-lm -fgnu-runtime
 # -fguess-branch-probability -fident -fif-conversion -fif-conversion2
 # -finline -finline-atomics -finline-functions-called-once -fipa-profile
 # -fipa-pure-const -fipa-reference -fira-share-save-slots
 # -fira-share-spill-slots -fivopts -fkeep-static-consts
 # -fleading-underscore -fmath-errno -fmerge-constants
 # -fmerge-debug-strings -fmove-loop-invariants -fomit-frame-pointer
 # -fpeephole -fprefetch-loop-arrays -freg-struct-return
 # -fsched-critical-path-heuristic -fsched-dep-count-heuristic
 # -fsched-group-heuristic -fsched-interblock -fsched-last-insn-heuristic
 # -fsched-rank-heuristic -fsched-spec -fsched-spec-insn-heuristic
 # -fsched-stalled-insns-dep -fsection-anchors -fshow-column -fshrink-wrap
 # -fsigned-zeros -fsplit-ivs-in-unroller -fsplit-wide-types
 # -fstrict-volatile-bitfields -ftoplevel-reorder -ftrapping-math
 # -ftree-bit-ccp -ftree-ccp -ftree-ch -ftree-copy-prop -ftree-copyrename
 # -ftree-cselim -ftree-dce -ftree-dominator-opts -ftree-dse
 # -ftree-forwprop -ftree-fre -ftree-loop-if-convert -ftree-loop-im
 # -ftree-loop-ivcanon -ftree-loop-optimize -ftree-parallelize-loops=
 # -ftree-phiprop -ftree-pta -ftree-reassoc -ftree-scev-cprop -ftree-sink
 # -ftree-slp-vectorize -ftree-sra -ftree-ter -ftree-vect-loop-version
 # -funit-at-a-time -fvar-tracking -fvar-tracking-assignments -fverbose-asm
 # -fzero-initialized-in-bss -m32 -malign-branch-targets -malways-hint
 # -mbig -mbig-endian -mblock-move-inline-limit= -mbss-plt -mfriz
 # -mgen-cell-microcode -mhard-float -mnew-mnemonics -mno-fp-in-toc
 # -mpointers-to-nested-functions -mpowerpc -msched-groups -msched-prolog
 # -msvr4-struct-return -mtls-markers -mupdate -mvectorize-builtins
 # -mvsx-scalar-double

	.section	".text"
.Ltext0:
	.cfi_sections	.debug_frame
	.align 2
	.globl null
	.type	null, @function
null:
.LFB0:
	.file 1 "powerpc-elf.c"
	.loc 1 2 0
	.cfi_startproc
	blr
	.cfi_endproc
.LFE0:
	.size	null, .-null
	.align 2
	.globl return_zero
	.type	return_zero, @function
return_zero:
.LFB1:
	.loc 1 7 0
	.cfi_startproc
	.loc 1 9 0
	li 3,0	 #,
	blr
	.cfi_endproc
.LFE1:
	.size	return_zero, .-return_zero
	.align 2
	.globl return_one
	.type	return_one, @function
return_one:
.LFB2:
	.loc 1 12 0
	.cfi_startproc
	.loc 1 14 0
	li 3,1	 #,
	blr
	.cfi_endproc
.LFE2:
	.size	return_one, .-return_one
	.align 2
	.globl return_int_size
	.type	return_int_size, @function
return_int_size:
.LFB3:
	.loc 1 17 0
	.cfi_startproc
	.loc 1 19 0
	li 3,4	 #,
	blr
	.cfi_endproc
.LFE3:
	.size	return_int_size, .-return_int_size
	.align 2
	.globl return_pointer_size
	.type	return_pointer_size, @function
return_pointer_size:
.LFB4:
	.loc 1 22 0
	.cfi_startproc
	.loc 1 24 0
	li 3,4	 #,
	blr
	.cfi_endproc
.LFE4:
	.size	return_pointer_size, .-return_pointer_size
	.align 2
	.globl return_short_size
	.type	return_short_size, @function
return_short_size:
.LFB5:
	.loc 1 27 0
	.cfi_startproc
	.loc 1 29 0
	li 3,2	 #,
	blr
	.cfi_endproc
.LFE5:
	.size	return_short_size, .-return_short_size
	.align 2
	.globl return_long_size
	.type	return_long_size, @function
return_long_size:
.LFB6:
	.loc 1 32 0
	.cfi_startproc
	.loc 1 34 0
	li 3,4	 #,
	blr
	.cfi_endproc
.LFE6:
	.size	return_long_size, .-return_long_size
	.align 2
	.globl return_short
	.type	return_short, @function
return_short:
.LFB7:
	.loc 1 37 0
	.cfi_startproc
	.loc 1 39 0
	li 3,30600	 #,
	blr
	.cfi_endproc
.LFE7:
	.size	return_short, .-return_short
	.align 2
	.globl return_long
	.type	return_long, @function
return_long:
.LFB8:
	.loc 1 42 0
	.cfi_startproc
	.loc 1 44 0
	lis 3,0x7788	 # tmp122,
	ori 3,3,39338	 #,, tmp122,
	blr
	.cfi_endproc
.LFE8:
	.size	return_long, .-return_long
	.align 2
	.globl return_short_upper
	.type	return_short_upper, @function
return_short_upper:
.LFB9:
	.loc 1 47 0
	.cfi_startproc
	.loc 1 49 0
	li 3,-18	 #,
	blr
	.cfi_endproc
.LFE9:
	.size	return_short_upper, .-return_short_upper
	.align 2
	.globl return_long_upper
	.type	return_long_upper, @function
return_long_upper:
.LFB10:
	.loc 1 52 0
	.cfi_startproc
	.loc 1 54 0
	lis 3,0xffee	 # tmp122,
	ori 3,3,56780	 #,, tmp122,
	blr
	.cfi_endproc
.LFE10:
	.size	return_long_upper, .-return_long_upper
	.align 2
	.globl return_arg1
	.type	return_arg1, @function
return_arg1:
.LFB11:
	.loc 1 57 0
	.cfi_startproc
.LVL0:
	.loc 1 59 0
	blr
	.cfi_endproc
.LFE11:
	.size	return_arg1, .-return_arg1
	.align 2
	.globl return_arg2
	.type	return_arg2, @function
return_arg2:
.LFB12:
	.loc 1 62 0
	.cfi_startproc
.LVL1:
	.loc 1 64 0
	mr 3,4	 #, b
.LVL2:
	blr
	.cfi_endproc
.LFE12:
	.size	return_arg2, .-return_arg2
	.align 2
	.globl add
	.type	add, @function
add:
.LFB13:
	.loc 1 67 0
	.cfi_startproc
.LVL3:
	.loc 1 69 0
	add 3,3,4	 #, a, b
.LVL4:
	blr
	.cfi_endproc
.LFE13:
	.size	add, .-add
	.align 2
	.globl add3
	.type	add3, @function
add3:
.LFB14:
	.loc 1 72 0
	.cfi_startproc
.LVL5:
	.loc 1 73 0
	add 3,3,4	 # tmp127, a, b
.LVL6:
	.loc 1 74 0
	add 3,3,5	 #, tmp127, c
	blr
	.cfi_endproc
.LFE14:
	.size	add3, .-add3
	.align 2
	.globl add_two
	.type	add_two, @function
add_two:
.LFB15:
	.loc 1 77 0
	.cfi_startproc
.LVL7:
	.loc 1 79 0
	addi 3,3,2	 #, a,
.LVL8:
	blr
	.cfi_endproc
.LFE15:
	.size	add_two, .-add_two
	.align 2
	.globl inc
	.type	inc, @function
inc:
.LFB16:
	.loc 1 82 0
	.cfi_startproc
.LVL9:
	.loc 1 84 0
	addi 3,3,1	 #, a,
.LVL10:
	blr
	.cfi_endproc
.LFE16:
	.size	inc, .-inc
	.align 2
	.globl or
	.type	or, @function
or:
.LFB17:
	.loc 1 87 0
	.cfi_startproc
.LVL11:
	.loc 1 89 0
	or 3,4,3	 #,, b, a
.LVL12:
	blr
	.cfi_endproc
.LFE17:
	.size	or, .-or
	.align 2
	.globl or_one
	.type	or_one, @function
or_one:
.LFB18:
	.loc 1 92 0
	.cfi_startproc
.LVL13:
	.loc 1 94 0
	ori 3,3,1	 #,, a,
.LVL14:
	blr
	.cfi_endproc
.LFE18:
	.size	or_one, .-or_one
	.align 2
	.globl load
	.type	load, @function
load:
.LFB19:
	.loc 1 97 0
	.cfi_startproc
.LVL15:
	.loc 1 98 0
	lwz 3,0(3)	 # *p_1(D), D.1107
.LVL16:
	.loc 1 99 0
	blr
	.cfi_endproc
.LFE19:
	.size	load, .-load
	.align 2
	.globl store
	.type	store, @function
store:
.LFB20:
	.loc 1 102 0
	.cfi_startproc
.LVL17:
	.loc 1 103 0
	li 9,255	 # tmp121,
	stw 9,0(3)	 # *p_1(D), tmp121
	blr
	.cfi_endproc
.LFE20:
	.size	store, .-store
	.align 2
	.globl load_long
	.type	load_long, @function
load_long:
.LFB21:
	.loc 1 107 0
	.cfi_startproc
.LVL18:
	.loc 1 108 0
	lwz 3,0(3)	 # *p_1(D), D.1105
.LVL19:
	.loc 1 109 0
	blr
	.cfi_endproc
.LFE21:
	.size	load_long, .-load_long
	.align 2
	.globl store_long
	.type	store_long, @function
store_long:
.LFB22:
	.loc 1 112 0
	.cfi_startproc
.LVL20:
	.loc 1 113 0
	lis 9,0x1122	 # tmp122,
	ori 9,9,13124	 #, tmp121, tmp122,
	stw 9,0(3)	 # *p_1(D), tmp121
	blr
	.cfi_endproc
.LFE22:
	.size	store_long, .-store_long
	.align 2
	.globl member
	.type	member, @function
member:
.LFB23:
	.loc 1 123 0
	.cfi_startproc
.LVL21:
	.loc 1 124 0
	li 9,1	 # tmp123,
	stw 9,4(3)	 # p_1(D)->b, tmp123
	.loc 1 126 0
	lwz 3,8(3)	 # p_1(D)->c,
.LVL22:
	blr
	.cfi_endproc
.LFE23:
	.size	member, .-member
	.align 2
	.globl get_static_value_addr
	.type	get_static_value_addr, @function
get_static_value_addr:
.LFB24:
	.loc 1 132 0
	.cfi_startproc
	.loc 1 134 0
	lis 3,static_value@ha	 # tmp122,
	la 3,static_value@l(3)	 #,, tmp122
	blr
	.cfi_endproc
.LFE24:
	.size	get_static_value_addr, .-get_static_value_addr
	.align 2
	.globl get_static_value
	.type	get_static_value, @function
get_static_value:
.LFB25:
	.loc 1 137 0
	.cfi_startproc
	.loc 1 139 0
	lis 9,static_value@ha	 # tmp124,
	lwz 3,static_value@l(9)	 # static_value,
	blr
	.cfi_endproc
.LFE25:
	.size	get_static_value, .-get_static_value
	.align 2
	.globl set_static_value
	.type	set_static_value, @function
set_static_value:
.LFB26:
	.loc 1 142 0
	.cfi_startproc
.LVL23:
	.loc 1 143 0
	lis 9,static_value@ha	 # tmp122,
	stw 3,static_value@l(9)	 # static_value, a
	blr
	.cfi_endproc
.LFE26:
	.size	set_static_value, .-set_static_value
	.align 2
	.globl set_stack
	.type	set_stack, @function
set_stack:
.LFB27:
	.loc 1 149 0
	.cfi_startproc
	stwu 1,-32(1)	 #,,
.LCFI0:
	.cfi_def_cfa_offset 32
	.loc 1 150 0
	li 9,254	 # tmp120,
	stw 9,8(1)	 # a, tmp120
.LVL24:
	.loc 1 151 0
	li 9,255	 # tmp121,
	stw 9,12(1)	 # b, tmp121
.LVL25:
	.loc 1 152 0
	addi 1,1,32	 #,,
.LCFI1:
	.cfi_def_cfa_offset 0
	blr	 #
	.cfi_endproc
.LFE27:
	.size	set_stack, .-set_stack
	.align 2
	.globl use_stack
	.type	use_stack, @function
use_stack:
.LFB28:
	.loc 1 155 0
	.cfi_startproc
	stwu 1,-32(1)	 #,,
.LCFI2:
	.cfi_def_cfa_offset 32
	.loc 1 156 0
	li 9,254	 # tmp124,
	stw 9,8(1)	 # a, tmp124
.LVL26:
	.loc 1 157 0
	li 9,255	 # tmp125,
	stw 9,12(1)	 # b, tmp125
.LVL27:
	.loc 1 158 0
	lwz 3,8(1)	 # a, a.1
	lwz 9,12(1)	 # b, b.2
	.loc 1 159 0
	add 3,3,9	 #, a.1, b.2
	addi 1,1,32	 #,,
.LCFI3:
	.cfi_def_cfa_offset 0
	blr	 #
	.cfi_endproc
.LFE28:
	.size	use_stack, .-use_stack
	.align 2
	.globl call_self
	.type	call_self, @function
call_self:
.LFB29:
	.loc 1 162 0
	.cfi_startproc
	stwu 1,-16(1)	 #,,
.LCFI4:
	.cfi_def_cfa_offset 16
	mflr 0	 #,
	stw 0,20(1)	 #,
	.cfi_offset 65, 4
	.loc 1 163 0
	bl call_self	 #
.LVL28:
	.loc 1 164 0
	lwz 0,20(1)	 #,
	mtlr 0	 #,
	addi 1,1,16	 #,,
.LCFI5:
	.cfi_restore 65
	.cfi_def_cfa_offset 0
	blr	 #
	.cfi_endproc
.LFE29:
	.size	call_self, .-call_self
	.align 2
	.globl call_simple
	.type	call_simple, @function
call_simple:
.LFB30:
	.loc 1 167 0
	.cfi_startproc
.LVL29:
	stwu 1,-16(1)	 #,,
.LCFI6:
	.cfi_def_cfa_offset 16
	mflr 0	 #,
	stw 0,20(1)	 #,
	.cfi_offset 65, 4
	.loc 1 168 0
	bl return_arg1	 #
.LVL30:
	.loc 1 169 0
	lwz 0,20(1)	 #,
	mtlr 0	 #,
	addi 1,1,16	 #,,
.LCFI7:
	.cfi_restore 65
	.cfi_def_cfa_offset 0
	blr	 #
	.cfi_endproc
.LFE30:
	.size	call_simple, .-call_simple
	.align 2
	.globl call_complex1
	.type	call_complex1, @function
call_complex1:
.LFB31:
	.loc 1 172 0
	.cfi_startproc
	stwu 1,-16(1)	 #,,
.LCFI8:
	.cfi_def_cfa_offset 16
	mflr 0	 #,
	stw 0,20(1)	 #,
	.cfi_offset 65, 4
	.loc 1 173 0
	li 3,254	 #,
	bl return_arg1	 #
.LVL31:
	.loc 1 174 0
	addi 3,3,1	 #,,
	lwz 0,20(1)	 #,
	mtlr 0	 #,
	addi 1,1,16	 #,,
.LCFI9:
	.cfi_restore 65
	.cfi_def_cfa_offset 0
	blr	 #
	.cfi_endproc
.LFE31:
	.size	call_complex1, .-call_complex1
	.align 2
	.globl call_complex2
	.type	call_complex2, @function
call_complex2:
.LFB32:
	.loc 1 177 0
	.cfi_startproc
.LVL32:
	stwu 1,-16(1)	 #,,
.LCFI10:
	.cfi_def_cfa_offset 16
	mflr 0	 #,
	stw 0,20(1)	 #,
	stw 31,12(1)	 #,
	.cfi_offset 65, 4
	.cfi_offset 31, -4
	mr 31,4	 # b, b
	.loc 1 178 0
	mr 3,4	 #, b
.LVL33:
	bl return_arg1	 #
.LVL34:
	lis 9,static_value@ha	 # tmp125,
	stw 3,static_value@l(9)	 # static_value,
	.loc 1 180 0
	mr 3,31	 #, b
	lwz 0,20(1)	 #,
	mtlr 0	 #,
	lwz 31,12(1)	 #,
.LVL35:
	addi 1,1,16	 #,,
.LCFI11:
	.cfi_restore 31
	.cfi_restore 65
	.cfi_def_cfa_offset 0
	blr	 #
	.cfi_endproc
.LFE32:
	.size	call_complex2, .-call_complex2
	.align 2
	.globl call_pointer
	.type	call_pointer, @function
call_pointer:
.LFB33:
	.loc 1 183 0
	.cfi_startproc
.LVL36:
	stwu 1,-16(1)	 #,,
.LCFI12:
	.cfi_def_cfa_offset 16
	mflr 0	 #,
	stw 0,20(1)	 #,
	.cfi_offset 65, 4
	.loc 1 184 0
	mtctr 3	 #, f
	bctrl	 #
.LVL37:
	.loc 1 185 0
	lwz 0,20(1)	 #,
	mtlr 0	 #,
	addi 1,1,16	 #,,
.LCFI13:
	.cfi_restore 65
	.cfi_def_cfa_offset 0
	blr	 #
	.cfi_endproc
.LFE33:
	.size	call_pointer, .-call_pointer
	.align 2
	.globl condition
	.type	condition, @function
condition:
.LFB34:
	.loc 1 188 0
	.cfi_startproc
.LVL38:
	.loc 1 189 0
	cmpw 7,3,4	 # b, tmp124, a
	bne+ 7,.L43	 #
	.loc 1 190 0
	li 4,1	 # b,
.LVL39:
.L43:
	.loc 1 192 0
	addi 3,4,1	 #, b,
.LVL40:
	blr
	.cfi_endproc
.LFE34:
	.size	condition, .-condition
	.align 2
	.globl loop
	.type	loop, @function
loop:
.LFB35:
	.loc 1 195 0
	.cfi_startproc
.LVL41:
	.loc 1 197 0
	mr. 10,3	 # n, n
	ble- 0,.L48	 #
	.loc 1 196 0 discriminator 2
	li 3,0	 # sum,
.LVL42:
	.loc 1 197 0 discriminator 2
	li 9,0	 # i,
	subf 10,9,10	 #, i, n
	mtctr 10	 # tmp128,
.LVL43:
.L47:
	.loc 1 198 0 discriminator 2
	add 3,3,9	 # sum, sum, i
.LVL44:
	.loc 1 197 0 discriminator 2
	addi 9,9,1	 # i, i,
.LVL45:
	bdnz .L47	 #
	blr
.LVL46:
.L48:
	.loc 1 196 0
	li 3,0	 # sum,
.LVL47:
	.loc 1 200 0
	blr
	.cfi_endproc
.LFE35:
	.size	loop, .-loop
	.align 2
	.globl many_args
	.type	many_args, @function
many_args:
.LFB36:
	.loc 1 204 0
	.cfi_startproc
.LVL48:
	.loc 1 205 0
	add 3,3,6	 # tmp133, a0, a3
.LVL49:
	add 3,3,8	 # tmp134, tmp133, a5
	.loc 1 206 0
	add 3,3,10	 #, tmp134, a7
	blr
	.cfi_endproc
.LFE36:
	.size	many_args, .-many_args
	.align 2
	.globl call_many_args
	.type	call_many_args, @function
call_many_args:
.LFB37:
	.loc 1 209 0
	.cfi_startproc
	stwu 1,-16(1)	 #,,
.LCFI14:
	.cfi_def_cfa_offset 16
	mflr 0	 #,
	stw 0,20(1)	 #,
	.cfi_offset 65, 4
	.loc 1 210 0
	li 3,0	 #,
	li 4,1	 #,
	li 5,2	 #,
	li 6,3	 #,
	li 7,4	 #,
	li 8,5	 #,
	li 9,6	 #,
	li 10,7	 #,
	bl many_args	 #
.LVL50:
	.loc 1 211 0
	lwz 0,20(1)	 #,
	mtlr 0	 #,
	addi 1,1,16	 #,,
.LCFI15:
	.cfi_restore 65
	.cfi_def_cfa_offset 0
	blr	 #
	.cfi_endproc
.LFE37:
	.size	call_many_args, .-call_many_args
	.align 2
	.globl direct
	.type	direct, @function
direct:
.LFB38:
	.loc 1 215 0
	.cfi_startproc
	.loc 1 216 0
 # 216 "powerpc-elf.c" 1
	nop
 # 0 "" 2
	blr
	.cfi_endproc
.LFE38:
	.size	direct, .-direct
	.align 2
	.globl binary
	.type	binary, @function
binary:
.LFB39:
	.loc 1 223 0
	.cfi_startproc
	.loc 1 224 0
 # 224 "powerpc-elf.c" 1
	.align 4
 # 0 "" 2
	.loc 1 225 0
 # 225 "powerpc-elf.c" 1
	.int 0x0
 # 0 "" 2
	blr
	.cfi_endproc
.LFE39:
	.size	binary, .-binary
	.align 2
	.globl main
	.type	main, @function
main:
.LFB40:
	.loc 1 231 0
	.cfi_startproc
	.loc 1 233 0
	li 3,0	 #,
	blr
	.cfi_endproc
.LFE40:
	.size	main, .-main
	.globl static_long
	.globl static_value
	.section	.sdata,"aw",@progbits
	.align 2
	.type	static_long, @object
	.size	static_long, 4
static_long:
	.long	305419896
	.type	static_value, @object
	.size	static_value, 4
static_value:
	.long	10
	.section	".text"
.Letext0: