	.file	"sh-elf.c"
	.text
! GNU C (GCC) version 4.7.2 (sh-elf)
!	compiled by GNU C version 4.2.1 20070719  [FreeBSD], GMP version 5.1.1, MPFR version 3.1.2, MPC version 1.0.1
! GGC heuristics: --param ggc-min-expand=100 --param ggc-min-heapsize=131072
! options passed:  -nostdinc sh-elf.c -auxbase-strip sh-elf.s -g -O -Wall
! -fno-builtin -fverbose-asm -fomit-frame-pointer
! options enabled:  -fauto-inc-dec -fbranch-count-reg
! -fcombine-stack-adjustments -fcommon -fcompare-elim -fcprop-registers
! -fdebug-types-section -fdefer-pop -fdelayed-branch
! -fdelete-null-pointer-checks -fdwarf2-cfi-asm -fearly-inlining
! -feliminate-unused-debug-types -fforward-propagate -ffunction-cse
! -fgcse-lm -fgnu-runtime -fguess-branch-probability -fident
! -fif-conversion -fif-conversion2 -finline -finline-atomics
! -finline-functions-called-once -fipa-profile -fipa-pure-const
! -fipa-reference -fira-share-save-slots -fira-share-spill-slots -fivopts
! -fkeep-static-consts -fleading-underscore -fmath-errno -fmerge-constants
! -fmerge-debug-strings -fmove-loop-invariants -fomit-frame-pointer
! -fpeephole -fprefetch-loop-arrays -freg-struct-return
! -fsched-critical-path-heuristic -fsched-dep-count-heuristic
! -fsched-group-heuristic -fsched-interblock -fsched-last-insn-heuristic
! -fsched-rank-heuristic -fsched-spec -fsched-spec-insn-heuristic
! -fsched-stalled-insns-dep -fshow-column -fshrink-wrap -fsigned-zeros
! -fsplit-ivs-in-unroller -fsplit-wide-types -fstrict-volatile-bitfields
! -ftoplevel-reorder -ftrapping-math -ftree-bit-ccp -ftree-ccp -ftree-ch
! -ftree-copy-prop -ftree-copyrename -ftree-cselim -ftree-dce
! -ftree-dominator-opts -ftree-dse -ftree-forwprop -ftree-fre
! -ftree-loop-if-convert -ftree-loop-im -ftree-loop-ivcanon
! -ftree-loop-optimize -ftree-parallelize-loops= -ftree-phiprop -ftree-pta
! -ftree-reassoc -ftree-scev-cprop -ftree-sink -ftree-slp-vectorize
! -ftree-sra -ftree-ter -ftree-vect-loop-version -funit-at-a-time
! -fvar-tracking -fvar-tracking-assignments -fverbose-asm
! -fzero-initialized-in-bss -maccumulate-outgoing-args -mb

	.text
.Ltext0:
	.cfi_sections	.debug_frame
	.align 1
	.global	_null
	.type	_null, @function
_null:
.LFB0:
	.file 1 "sh-elf.c"
	.loc 1 2 0
	.cfi_startproc
	rts	
	nop
	.cfi_endproc
.LFE0:
	.size	_null, .-_null
	.align 1
	.global	_return_zero
	.type	_return_zero, @function
_return_zero:
.LFB1:
	.loc 1 7 0
	.cfi_startproc
	.loc 1 9 0
	rts	
	mov	#0,r0	!,
	.cfi_endproc
.LFE1:
	.size	_return_zero, .-_return_zero
	.align 1
	.global	_return_one
	.type	_return_one, @function
_return_one:
.LFB2:
	.loc 1 12 0
	.cfi_startproc
	.loc 1 14 0
	rts	
	mov	#1,r0	!,
	.cfi_endproc
.LFE2:
	.size	_return_one, .-_return_one
	.align 1
	.global	_return_int_size
	.type	_return_int_size, @function
_return_int_size:
.LFB3:
	.loc 1 17 0
	.cfi_startproc
	.loc 1 19 0
	rts	
	mov	#4,r0	!,
	.cfi_endproc
.LFE3:
	.size	_return_int_size, .-_return_int_size
	.align 1
	.global	_return_pointer_size
	.type	_return_pointer_size, @function
_return_pointer_size:
.LFB4:
	.loc 1 22 0
	.cfi_startproc
	.loc 1 24 0
	rts	
	mov	#4,r0	!,
	.cfi_endproc
.LFE4:
	.size	_return_pointer_size, .-_return_pointer_size
	.align 1
	.global	_return_short_size
	.type	_return_short_size, @function
_return_short_size:
.LFB5:
	.loc 1 27 0
	.cfi_startproc
	.loc 1 29 0
	rts	
	mov	#2,r0	!,
	.cfi_endproc
.LFE5:
	.size	_return_short_size, .-_return_short_size
	.align 1
	.global	_return_long_size
	.type	_return_long_size, @function
_return_long_size:
.LFB6:
	.loc 1 32 0
	.cfi_startproc
	.loc 1 34 0
	rts	
	mov	#4,r0	!,
	.cfi_endproc
.LFE6:
	.size	_return_long_size, .-_return_long_size
	.align 1
	.global	_return_short
	.type	_return_short, @function
_return_short:
.LFB7:
	.loc 1 37 0
	.cfi_startproc
	.loc 1 39 0
	mov.w	.L9,r0	!,
	rts	
	nop
	.align 1
.L9:
	.short	30600
	.cfi_endproc
.LFE7:
	.size	_return_short, .-_return_short
	.align 1
	.global	_return_long
	.type	_return_long, @function
_return_long:
.LFB8:
	.loc 1 42 0
	.cfi_startproc
	.loc 1 44 0
	mov.l	.L11,r0	!,
	rts	
	nop
.L12:
	.align 2
.L11:
	.long	2005440938
	.cfi_endproc
.LFE8:
	.size	_return_long, .-_return_long
	.align 1
	.global	_return_short_upper
	.type	_return_short_upper, @function
_return_short_upper:
.LFB9:
	.loc 1 47 0
	.cfi_startproc
	.loc 1 49 0
	rts	
	mov	#-18,r0	!,
	.cfi_endproc
.LFE9:
	.size	_return_short_upper, .-_return_short_upper
	.align 1
	.global	_return_long_upper
	.type	_return_long_upper, @function
_return_long_upper:
.LFB10:
	.loc 1 52 0
	.cfi_startproc
	.loc 1 54 0
	mov.l	.L15,r0	!,
	rts	
	nop
.L16:
	.align 2
.L15:
	.long	-1122868
	.cfi_endproc
.LFE10:
	.size	_return_long_upper, .-_return_long_upper
	.align 1
	.global	_return_arg1
	.type	_return_arg1, @function
_return_arg1:
.LFB11:
	.loc 1 57 0
	.cfi_startproc
.LVL0:
	.loc 1 59 0
	rts	
	mov	r4,r0	! a,
	.cfi_endproc
.LFE11:
	.size	_return_arg1, .-_return_arg1
	.align 1
	.global	_return_arg2
	.type	_return_arg2, @function
_return_arg2:
.LFB12:
	.loc 1 62 0
	.cfi_startproc
.LVL1:
	.loc 1 64 0
	rts	
	mov	r5,r0	! b,
	.cfi_endproc
.LFE12:
	.size	_return_arg2, .-_return_arg2
	.align 1
	.global	_add
	.type	_add, @function
_add:
.LFB13:
	.loc 1 67 0
	.cfi_startproc
.LVL2:
	.loc 1 68 0
	mov	r4,r0	! a, tmp164
	.loc 1 69 0
	rts	
	add	r5,r0	! b, tmp164
	.cfi_endproc
.LFE13:
	.size	_add, .-_add
	.align 1
	.global	_add3
	.type	_add3, @function
_add3:
.LFB14:
	.loc 1 72 0
	.cfi_startproc
.LVL3:
	.loc 1 73 0
	add	r4,r5	! a, tmp167
.LVL4:
	mov	r5,r0	! tmp167, tmp166
	.loc 1 74 0
	rts	
	add	r6,r0	! c, tmp166
	.cfi_endproc
.LFE14:
	.size	_add3, .-_add3
	.align 1
	.global	_add_two
	.type	_add_two, @function
_add_two:
.LFB15:
	.loc 1 77 0
	.cfi_startproc
.LVL5:
	.loc 1 78 0
	mov	r4,r0	! a, tmp163
	.loc 1 79 0
	rts	
	add	#2,r0	!, tmp163
	.cfi_endproc
.LFE15:
	.size	_add_two, .-_add_two
	.align 1
	.global	_inc
	.type	_inc, @function
_inc:
.LFB16:
	.loc 1 82 0
	.cfi_startproc
.LVL6:
	.loc 1 83 0
	mov	r4,r0	! a, tmp163
.LVL7:
	.loc 1 84 0
	rts	
	add	#1,r0	!, tmp163
	.cfi_endproc
.LFE16:
	.size	_inc, .-_inc
	.align 1
	.global	_or
	.type	_or, @function
_or:
.LFB17:
	.loc 1 87 0
	.cfi_startproc
.LVL8:
	.loc 1 88 0
	mov	r5,r0	! b, tmp164
	.loc 1 89 0
	rts	
	or	r4,r0	! a, tmp164
	.cfi_endproc
.LFE17:
	.size	_or, .-_or
	.align 1
	.global	_or_one
	.type	_or_one, @function
_or_one:
.LFB18:
	.loc 1 92 0
	.cfi_startproc
.LVL9:
	.loc 1 93 0
	mov	r4,r0	! a, tmp163
	.loc 1 94 0
	rts	
	or	#1,r0	!, tmp163
	.cfi_endproc
.LFE18:
	.size	_or_one, .-_or_one
	.align 1
	.global	_load
	.type	_load, @function
_load:
.LFB19:
	.loc 1 97 0
	.cfi_startproc
.LVL10:
	.loc 1 98 0
	mov.l	@r4,r0	! *p_1(D), D.1057
	.loc 1 99 0
	rts	
	nop
	.cfi_endproc
.LFE19:
	.size	_load, .-_load
	.align 1
	.global	_store
	.type	_store, @function
_store:
.LFB20:
	.loc 1 102 0
	.cfi_startproc
.LVL11:
	.loc 1 103 0
	mov.w	.L27,r1	!,
	mov.l	r1,@r4	! tmp161, *p_1(D)
	rts	
	nop
	.align 1
.L27:
	.short	255
	.cfi_endproc
.LFE20:
	.size	_store, .-_store
	.align 1
	.global	_load_long
	.type	_load_long, @function
_load_long:
.LFB21:
	.loc 1 107 0
	.cfi_startproc
.LVL12:
	.loc 1 108 0
	mov.l	@r4,r0	! *p_1(D), D.1055
	.loc 1 109 0
	rts	
	nop
	.cfi_endproc
.LFE21:
	.size	_load_long, .-_load_long
	.align 1
	.global	_store_long
	.type	_store_long, @function
_store_long:
.LFB22:
	.loc 1 112 0
	.cfi_startproc
.LVL13:
	.loc 1 113 0
	mov.l	.L30,r1	!, tmp161
	mov.l	r1,@r4	! tmp161, *p_1(D)
	rts	
	nop
.L31:
	.align 2
.L30:
	.long	287454020
	.cfi_endproc
.LFE22:
	.size	_store_long, .-_store_long
	.align 1
	.global	_member
	.type	_member, @function
_member:
.LFB23:
	.loc 1 123 0
	.cfi_startproc
.LVL14:
	.loc 1 124 0
	mov	#1,r1	!, tmp163
	mov.l	r1,@(4,r4)	! tmp163, p_1(D)->b
	.loc 1 126 0
	rts	
	mov.l	@(8,r4),r0	! p_1(D)->c, p_1(D)->c
	.cfi_endproc
.LFE23:
	.size	_member, .-_member
	.align 1
	.global	_get_static_value_addr
	.type	_get_static_value_addr, @function
_get_static_value_addr:
.LFB24:
	.loc 1 132 0
	.cfi_startproc
	.loc 1 134 0
	mov.l	.L34,r0	!,
	rts	
	nop
.L35:
	.align 2
.L34:
	.long	_static_value
	.cfi_endproc
.LFE24:
	.size	_get_static_value_addr, .-_get_static_value_addr
	.align 1
	.global	_get_static_value
	.type	_get_static_value, @function
_get_static_value:
.LFB25:
	.loc 1 137 0
	.cfi_startproc
	.loc 1 138 0
	mov.l	.L37,r1	!, tmp163
	.loc 1 139 0
	rts	
	mov.l	@r1,r0	! static_value, static_value
.L38:
	.align 2
.L37:
	.long	_static_value
	.cfi_endproc
.LFE25:
	.size	_get_static_value, .-_get_static_value
	.align 1
	.global	_set_static_value
	.type	_set_static_value, @function
_set_static_value:
.LFB26:
	.loc 1 142 0
	.cfi_startproc
.LVL15:
	.loc 1 143 0
	mov.l	.L40,r1	!, tmp161
	rts	
	mov.l	r4,@r1	! a, static_value
.L41:
	.align 2
.L40:
	.long	_static_value
	.cfi_endproc
.LFE26:
	.size	_set_static_value, .-_set_static_value
	.align 1
	.global	_set_stack
	.type	_set_stack, @function
_set_stack:
.LFB27:
	.loc 1 149 0
	.cfi_startproc
	add	#-8,r15	!,
.LCFI0:
	.cfi_def_cfa_offset 8
	.loc 1 150 0
	mov.w	.L43,r1	!,
	mov.l	r1,@(4,r15)	! tmp161, a
.LVL16:
	.loc 1 151 0
	add	#1,r1	!, tmp163
	mov.l	r1,@r15	! tmp163, b
.LVL17:
	.loc 1 152 0
	rts	
	add	#8,r15	!,
	.align 1
.L43:
	.short	254
	.cfi_endproc
.LFE27:
	.size	_set_stack, .-_set_stack
	.align 1
	.global	_use_stack
	.type	_use_stack, @function
_use_stack:
.LFB28:
	.loc 1 155 0
	.cfi_startproc
	add	#-8,r15	!,
.LCFI1:
	.cfi_def_cfa_offset 8
	.loc 1 156 0
	mov.w	.L45,r1	!,
	mov.l	r1,@(4,r15)	! tmp165, a
.LVL18:
	.loc 1 157 0
	add	#1,r1	!, tmp167
	mov.l	r1,@r15	! tmp167, b
.LVL19:
	.loc 1 158 0
	mov.l	@(4,r15),r0	! a, a.1
	mov.l	@r15,r1	! b, b.2
	add	r1,r0	! b.2, tmp170
	.loc 1 159 0
	rts	
	add	#8,r15	!,
	.align 1
.L45:
	.short	254
	.cfi_endproc
.LFE28:
	.size	_use_stack, .-_use_stack
	.align 1
	.global	_call_self
	.type	_call_self, @function
_call_self:
.LFB29:
	.loc 1 162 0
	.cfi_startproc
	sts.l	pr,@-r15	!,
.LCFI2:
	.cfi_def_cfa_offset 4
	.cfi_offset 17, -4
	.loc 1 163 0
	mov.l	.L47,r1	!, tmp160
	jsr	@r1
	nop	! tmp160
.LVL20:
	.loc 1 164 0
	lds.l   @r15+,pr	!,
	rts	
	nop
.L48:
	.align 2
.L47:
	.long	_call_self
	.cfi_endproc
.LFE29:
	.size	_call_self, .-_call_self
	.align 1
	.global	_call_simple
	.type	_call_simple, @function
_call_simple:
.LFB30:
	.loc 1 167 0
	.cfi_startproc
.LVL21:
	sts.l	pr,@-r15	!,
.LCFI3:
	.cfi_def_cfa_offset 4
	.cfi_offset 17, -4
	.loc 1 168 0
	mov.l	.L50,r0	!, tmp163
	jsr	@r0
	nop	! tmp163
.LVL22:
	.loc 1 169 0
	lds.l   @r15+,pr	!,
	rts	
	nop
.L51:
	.align 2
.L50:
	.long	_return_arg1
	.cfi_endproc
.LFE30:
	.size	_call_simple, .-_call_simple
	.align 1
	.global	_call_complex1
	.type	_call_complex1, @function
_call_complex1:
.LFB31:
	.loc 1 172 0
	.cfi_startproc
	sts.l	pr,@-r15	!,
.LCFI4:
	.cfi_def_cfa_offset 4
	.cfi_offset 17, -4
	.loc 1 173 0
	mov.w	.L53,r4	!,
	mov.l	.L54,r0	!, tmp164
	jsr	@r0
	nop	! tmp164
.LVL23:
	add	#1,r0	!, tmp165
	.loc 1 174 0
	lds.l   @r15+,pr	!,
	rts	
	nop
	.align 1
.L53:
	.short	254
.L55:
	.align 2
.L54:
	.long	_return_arg1
	.cfi_endproc
.LFE31:
	.size	_call_complex1, .-_call_complex1
	.align 1
	.global	_call_complex2
	.type	_call_complex2, @function
_call_complex2:
.LFB32:
	.loc 1 177 0
	.cfi_startproc
.LVL24:
	mov.l	r8,@-r15	!,
.LCFI5:
	.cfi_def_cfa_offset 4
	.cfi_offset 8, -4
	sts.l	pr,@-r15	!,
.LCFI6:
	.cfi_def_cfa_offset 8
	.cfi_offset 17, -8
	mov	r5,r8	! b, b
.LVL25:
	.loc 1 178 0
	mov.l	.L57,r0	!, tmp164
	jsr	@r0	! tmp164
	mov	r5,r4	! b,
.LVL26:
	mov.l	.L58,r1	!, tmp165
	mov.l	r0,@r1	! static_value.0, static_value
	.loc 1 180 0
	mov	r8,r0	! b,
	lds.l   @r15+,pr	!,
	mov.l   @r15+,r8	!,
.LVL27:
	rts	
	nop
.L59:
	.align 2
.L57:
	.long	_return_arg1
.L58:
	.long	_static_value
	.cfi_endproc
.LFE32:
	.size	_call_complex2, .-_call_complex2
	.align 1
	.global	_call_pointer
	.type	_call_pointer, @function
_call_pointer:
.LFB33:
	.loc 1 183 0
	.cfi_startproc
.LVL28:
	sts.l	pr,@-r15	!,
.LCFI7:
	.cfi_def_cfa_offset 4
	.cfi_offset 17, -4
	.loc 1 184 0
	jsr	@r4
	nop	! f
.LVL29:
	.loc 1 185 0
	lds.l   @r15+,pr	!,
	rts	
	nop
	.cfi_endproc
.LFE33:
	.size	_call_pointer, .-_call_pointer
	.align 1
	.global	_condition
	.type	_condition, @function
_condition:
.LFB34:
	.loc 1 188 0
	.cfi_startproc
.LVL30:
	.loc 1 189 0
	cmp/eq	r5,r4	! b, a
	bf	.L62	!
	.loc 1 190 0
	mov	#1,r5	!, b
.LVL31:
.L62:
	.loc 1 191 0
	mov	r5,r0	! b, tmp164
	.loc 1 192 0
	rts	
	add	#1,r0	!, tmp164
	.cfi_endproc
.LFE34:
	.size	_condition, .-_condition
	.align 1
	.global	_loop
	.type	_loop, @function
_loop:
.LFB35:
	.loc 1 195 0
	.cfi_startproc
.LVL32:
	.loc 1 197 0
	cmp/pl	r4	! n
	bf	.L67	!
	.loc 1 196 0 discriminator 2
	mov	#0,r0	!, sum
	.loc 1 197 0 discriminator 2
	mov	#0,r1	!, i
.LVL33:
.L66:
	.loc 1 198 0 discriminator 2
	add	r1,r0	! i, sum
.LVL34:
	.loc 1 197 0 discriminator 2
	add	#1,r1	!, i
.LVL35:
	cmp/eq	r4,r1	! n, i
	bf	.L66	!
	rts	
	nop
.LVL36:
	.align 1
.L67:
	.loc 1 200 0
	rts	
	mov	#0,r0	!, sum
	.cfi_endproc
.LFE35:
	.size	_loop, .-_loop
	.align 1
	.global	_many_args
	.type	_many_args, @function
_many_args:
.LFB36:
	.loc 1 204 0
	.cfi_startproc
.LVL37:
	.loc 1 205 0
	add	r4,r7	! a0, tmp173
.LVL38:
	mov.l	@(4,r15),r1	! a5, a5
	mov	r7,r0	! tmp173, tmp174
	add	r1,r0	! a5, tmp174
	mov.l	@(12,r15),r1	! a7, a7
	.loc 1 206 0
	rts	
	add	r1,r0	! a7, tmp172
	.cfi_endproc
.LFE36:
	.size	_many_args, .-_many_args
	.align 1
	.global	_call_many_args
	.type	_call_many_args, @function
_call_many_args:
.LFB37:
	.loc 1 209 0
	.cfi_startproc
	sts.l	pr,@-r15	!,
.LCFI8:
	.cfi_def_cfa_offset 4
	.cfi_offset 17, -4
	add	#-16,r15	!,
.LCFI9:
	.cfi_def_cfa_offset 20
	.loc 1 210 0
	mov	#4,r1	!, tmp162
	mov.l	r1,@r15	! tmp162,
	mov	#5,r1	!, tmp163
	mov.l	r1,@(4,r15)	! tmp163,
	mov	#6,r1	!, tmp164
	mov.l	r1,@(8,r15)	! tmp164,
	mov	#7,r1	!, tmp165
	mov.l	r1,@(12,r15)	! tmp165,
	mov	#0,r4	!,
	mov	#1,r5	!,
	mov	#2,r6	!,
	mov.l	.L71,r0	!, tmp166
	jsr	@r0	! tmp166
	mov	#3,r7	!,
.LVL39:
	.loc 1 211 0
	add	#16,r15	!,
	lds.l   @r15+,pr	!,
	rts	
	nop
.L72:
	.align 2
.L71:
	.long	_many_args
	.cfi_endproc
.LFE37:
	.size	_call_many_args, .-_call_many_args
	.align 1
	.global	_direct
	.type	_direct, @function
_direct:
.LFB38:
	.loc 1 215 0
	.cfi_startproc
	.loc 1 216 0
! 216 "sh-elf.c" 1
	nop
! 0 "" 2
	rts	
	nop
	.cfi_endproc
.LFE38:
	.size	_direct, .-_direct
	.align 1
	.global	_binary
	.type	_binary, @function
_binary:
.LFB39:
	.loc 1 223 0
	.cfi_startproc
	.loc 1 224 0
! 224 "sh-elf.c" 1
	.align 4
! 0 "" 2
	.loc 1 225 0
! 225 "sh-elf.c" 1
	.int 0x0
! 0 "" 2
	rts	
	nop
	.cfi_endproc
.LFE39:
	.size	_binary, .-_binary
	.align 1
	.global	_main
	.type	_main, @function
_main:
.LFB40:
	.loc 1 231 0
	.cfi_startproc
	.loc 1 233 0
	rts	
	mov	#0,r0	!,
	.cfi_endproc
.LFE40:
	.size	_main, .-_main
	.global	_static_long
	.data
	.align 2
	.type	_static_long, @object
	.size	_static_long, 4
_static_long:
	.long	305419896
	.global	_static_value
	.align 2
	.type	_static_value, @object
	.size	_static_value, 4
_static_value:
	.long	10
	.text
.Letext0: