	.file	"sparc-elf.c"
! GNU C (GCC) version 4.7.2 (sparc-elf)
!	compiled by GNU C version 4.2.1 20070719  [FreeBSD], GMP version 5.1.1, MPFR version 3.1.2, MPC version 1.0.1
! GGC heuristics: --param ggc-min-expand=100 --param ggc-min-heapsize=131072
! options passed:  -nostdinc sparc-elf.c -mcpu=v7
! -auxbase-strip sparc-elf.s -g -O -Wall -fno-builtin -fverbose-asm
! -fomit-frame-pointer
! options enabled:  -fauto-inc-dec -fbranch-count-reg
! -fcombine-stack-adjustments -fcommon -fcompare-elim -fcprop-registers
! -fdebug-types-section -fdefer-pop -fdelayed-branch
! -fdelete-null-pointer-checks -fdwarf2-cfi-asm -fearly-inlining
! -feliminate-unused-debug-types -fforward-propagate -ffunction-cse
! -fgcse-lm -fgnu-runtime -fguess-branch-probability -fident
! -fif-conversion -fif-conversion2 -finline -finline-atomics
! -finline-functions-called-once -fipa-profile -fipa-pure-const
! -fipa-reference -fira-share-spill-slots -fivopts -fkeep-static-consts
! -fleading-underscore -fmath-errno -fmerge-constants -fmerge-debug-strings
! -fmove-loop-invariants -fomit-frame-pointer -fpcc-struct-return
! -fpeephole -fprefetch-loop-arrays -fsched-critical-path-heuristic
! -fsched-dep-count-heuristic -fsched-group-heuristic -fsched-interblock
! -fsched-last-insn-heuristic -fsched-rank-heuristic -fsched-spec
! -fsched-spec-insn-heuristic -fsched-stalled-insns-dep -fshow-column
! -fshrink-wrap -fsigned-zeros -fsplit-ivs-in-unroller -fsplit-wide-types
! -fstrict-volatile-bitfields -ftoplevel-reorder -ftrapping-math
! -ftree-bit-ccp -ftree-ccp -ftree-ch -ftree-copy-prop -ftree-copyrename
! -ftree-cselim -ftree-dce -ftree-dominator-opts -ftree-dse -ftree-forwprop
! -ftree-fre -ftree-loop-if-convert -ftree-loop-im -ftree-loop-ivcanon
! -ftree-loop-optimize -ftree-parallelize-loops= -ftree-phiprop -ftree-pta
! -ftree-reassoc -ftree-scev-cprop -ftree-sink -ftree-slp-vectorize
! -ftree-sra -ftree-ter -ftree-vect-loop-version -funit-at-a-time
! -fvar-tracking -fvar-tracking-assignments -fverbose-asm
! -fzero-initialized-in-bss -m32 -mapp-regs -mfpu -mptr32 -msoft-quad-float

	.section	".text"
.LLtext0:
	.cfi_sections	.debug_frame
	.align 4
	.global null
	.type	null, #function
	.proc	020
null:
.LLFB0:
	.file 1 "sparc-elf.c"
	.loc 1 2 0
	.cfi_startproc
	jmp	%o7+8
	 nop
	.cfi_endproc
.LLFE0:
	.size	null, .-null
	.align 4
	.global return_zero
	.type	return_zero, #function
	.proc	04
return_zero:
.LLFB1:
	.loc 1 7 0
	.cfi_startproc
	.loc 1 9 0
	jmp	%o7+8
	 mov	0, %o0	!, tmp24
	.cfi_endproc
.LLFE1:
	.size	return_zero, .-return_zero
	.align 4
	.global return_one
	.type	return_one, #function
	.proc	04
return_one:
.LLFB2:
	.loc 1 12 0
	.cfi_startproc
	.loc 1 14 0
	jmp	%o7+8
	 mov	1, %o0	!, tmp24
	.cfi_endproc
.LLFE2:
	.size	return_one, .-return_one
	.align 4
	.global return_int_size
	.type	return_int_size, #function
	.proc	04
return_int_size:
.LLFB3:
	.loc 1 17 0
	.cfi_startproc
	.loc 1 19 0
	jmp	%o7+8
	 mov	4, %o0	!, tmp24
	.cfi_endproc
.LLFE3:
	.size	return_int_size, .-return_int_size
	.align 4
	.global return_pointer_size
	.type	return_pointer_size, #function
	.proc	04
return_pointer_size:
.LLFB4:
	.loc 1 22 0
	.cfi_startproc
	.loc 1 24 0
	jmp	%o7+8
	 mov	4, %o0	!, tmp24
	.cfi_endproc
.LLFE4:
	.size	return_pointer_size, .-return_pointer_size
	.align 4
	.global return_short_size
	.type	return_short_size, #function
	.proc	04
return_short_size:
.LLFB5:
	.loc 1 27 0
	.cfi_startproc
	.loc 1 29 0
	jmp	%o7+8
	 mov	2, %o0	!, tmp24
	.cfi_endproc
.LLFE5:
	.size	return_short_size, .-return_short_size
	.align 4
	.global return_long_size
	.type	return_long_size, #function
	.proc	04
return_long_size:
.LLFB6:
	.loc 1 32 0
	.cfi_startproc
	.loc 1 34 0
	jmp	%o7+8
	 mov	4, %o0	!, tmp24
	.cfi_endproc
.LLFE6:
	.size	return_long_size, .-return_long_size
	.align 4
	.global return_short
	.type	return_short, #function
	.proc	03
return_short:
.LLFB7:
	.loc 1 37 0
	.cfi_startproc
	.loc 1 39 0
	sethi	%hi(29696), %o0	!, tmp111
	jmp	%o7+8
	 or	%o0, 904, %o0	! tmp111,, tmp24
	.cfi_endproc
.LLFE7:
	.size	return_short, .-return_short
	.align 4
	.global return_long
	.type	return_long, #function
	.proc	04
return_long:
.LLFB8:
	.loc 1 42 0
	.cfi_startproc
	.loc 1 44 0
	sethi	%hi(2005440512), %o0	!, tmp111
	jmp	%o7+8
	 or	%o0, 426, %o0	! tmp111,, tmp24
	.cfi_endproc
.LLFE8:
	.size	return_long, .-return_long
	.align 4
	.global return_short_upper
	.type	return_short_upper, #function
	.proc	03
return_short_upper:
.LLFB9:
	.loc 1 47 0
	.cfi_startproc
	.loc 1 49 0
	jmp	%o7+8
	 mov	-18, %o0	!, tmp24
	.cfi_endproc
.LLFE9:
	.size	return_short_upper, .-return_short_upper
	.align 4
	.global return_long_upper
	.type	return_long_upper, #function
	.proc	04
return_long_upper:
.LLFB10:
	.loc 1 52 0
	.cfi_startproc
	.loc 1 54 0
	sethi	%hi(-1123328), %o0	!, tmp111
	jmp	%o7+8
	 or	%o0, 460, %o0	! tmp111,, tmp24
	.cfi_endproc
.LLFE10:
	.size	return_long_upper, .-return_long_upper
	.align 4
	.global return_arg1
	.type	return_arg1, #function
	.proc	04
return_arg1:
.LLFB11:
	.loc 1 57 0
	.cfi_startproc
.LLVL0:
	.loc 1 59 0
	jmp	%o7+8
	 nop
	.cfi_endproc
.LLFE11:
	.size	return_arg1, .-return_arg1
	.align 4
	.global return_arg2
	.type	return_arg2, #function
	.proc	04
return_arg2:
.LLFB12:
	.loc 1 62 0
	.cfi_startproc
.LLVL1:
	.loc 1 64 0
	jmp	%o7+8
	 mov	%o1, %o0	! b, tmp24
	.cfi_endproc
.LLFE12:
	.size	return_arg2, .-return_arg2
	.align 4
	.global add
	.type	add, #function
	.proc	04
add:
.LLFB13:
	.loc 1 67 0
	.cfi_startproc
.LLVL2:
	.loc 1 69 0
	jmp	%o7+8
	 add	%o0, %o1, %o0	! a, b, tmp24
	.cfi_endproc
.LLFE13:
	.size	add, .-add
	.align 4
	.global add3
	.type	add3, #function
	.proc	04
add3:
.LLFB14:
	.loc 1 72 0
	.cfi_startproc
.LLVL3:
	.loc 1 73 0
	add	%o0, %o1, %o0	! a, b, tmp116
	.loc 1 74 0
	jmp	%o7+8
	 add	%o0, %o2, %o0	! tmp116, c, tmp24
	.cfi_endproc
.LLFE14:
	.size	add3, .-add3
	.align 4
	.global add_two
	.type	add_two, #function
	.proc	04
add_two:
.LLFB15:
	.loc 1 77 0
	.cfi_startproc
.LLVL4:
	.loc 1 79 0
	jmp	%o7+8
	 add	%o0, 2, %o0	! a,, tmp24
	.cfi_endproc
.LLFE15:
	.size	add_two, .-add_two
	.align 4
	.global inc
	.type	inc, #function
	.proc	04
inc:
.LLFB16:
	.loc 1 82 0
	.cfi_startproc
.LLVL5:
	.loc 1 84 0
	jmp	%o7+8
	 add	%o0, 1, %o0	! a,, tmp24
	.cfi_endproc
.LLFE16:
	.size	inc, .-inc
	.align 4
	.global or
	.type	or, #function
	.proc	04
or:
.LLFB17:
	.loc 1 87 0
	.cfi_startproc
.LLVL6:
	.loc 1 89 0
	jmp	%o7+8
	 or	%o1, %o0, %o0	! b, a, tmp24
	.cfi_endproc
.LLFE17:
	.size	or, .-or
	.align 4
	.global or_one
	.type	or_one, #function
	.proc	04
or_one:
.LLFB18:
	.loc 1 92 0
	.cfi_startproc
.LLVL7:
	.loc 1 94 0
	jmp	%o7+8
	 or	%o0, 1, %o0	! a,, tmp24
	.cfi_endproc
.LLFE18:
	.size	or_one, .-or_one
	.align 4
	.global load
	.type	load, #function
	.proc	04
load:
.LLFB19:
	.loc 1 97 0
	.cfi_startproc
.LLVL8:
	.loc 1 99 0
	ld	[%o0], %o0	! *p_1(D), tmp24
	jmp	%o7+8
	 nop
	.cfi_endproc
.LLFE19:
	.size	load, .-load
	.align 4
	.global store
	.type	store, #function
	.proc	020
store:
.LLFB20:
	.loc 1 102 0
	.cfi_startproc
.LLVL9:
	.loc 1 103 0
	mov	255, %g1	!, tmp110
	st	%g1, [%o0]	! tmp110, *p_1(D)
	jmp	%o7+8
	 nop
	.cfi_endproc
.LLFE20:
	.size	store, .-store
	.align 4
	.global load_long
	.type	load_long, #function
	.proc	04
load_long:
.LLFB21:
	.loc 1 107 0
	.cfi_startproc
.LLVL10:
	.loc 1 109 0
	ld	[%o0], %o0	! *p_1(D), tmp24
	jmp	%o7+8
	 nop
	.cfi_endproc
.LLFE21:
	.size	load_long, .-load_long
	.align 4
	.global store_long
	.type	store_long, #function
	.proc	020
store_long:
.LLFB22:
	.loc 1 112 0
	.cfi_startproc
.LLVL11:
	.loc 1 113 0
	sethi	%hi(287453184), %g1	!, tmp111
	or	%g1, 836, %g1	! tmp111,, tmp110
	st	%g1, [%o0]	! tmp110, *p_1(D)
	jmp	%o7+8
	 nop
	.cfi_endproc
.LLFE22:
	.size	store_long, .-store_long
	.align 4
	.global member
	.type	member, #function
	.proc	04
member:
.LLFB23:
	.loc 1 123 0
	.cfi_startproc
.LLVL12:
	.loc 1 124 0
	mov	1, %g1	!, tmp112
	st	%g1, [%o0+4]	! tmp112, p_1(D)->b
	.loc 1 126 0
	jmp	%o7+8
	 ld	[%o0+8], %o0	! p_1(D)->c, tmp24
	.cfi_endproc
.LLFE23:
	.size	member, .-member
	.align 4
	.global get_static_value_addr
	.type	get_static_value_addr, #function
	.proc	0104
get_static_value_addr:
.LLFB24:
	.loc 1 132 0
	.cfi_startproc
	.loc 1 134 0
	sethi	%hi(static_value), %o0	!, tmp111
	jmp	%o7+8
	 or	%o0, %lo(static_value), %o0	! tmp111,, tmp24
	.cfi_endproc
.LLFE24:
	.size	get_static_value_addr, .-get_static_value_addr
	.align 4
	.global get_static_value
	.type	get_static_value, #function
	.proc	04
get_static_value:
.LLFB25:
	.loc 1 137 0
	.cfi_startproc
	.loc 1 139 0
	sethi	%hi(static_value), %g1	!, tmp113
	jmp	%o7+8
	 ld	[%g1+%lo(static_value)], %o0	! static_value, tmp24
	.cfi_endproc
.LLFE25:
	.size	get_static_value, .-get_static_value
	.align 4
	.global set_static_value
	.type	set_static_value, #function
	.proc	020
set_static_value:
.LLFB26:
	.loc 1 142 0
	.cfi_startproc
.LLVL13:
	.loc 1 143 0
	sethi	%hi(static_value), %g1	!, tmp111
	jmp	%o7+8
	 st	%o0, [%g1+%lo(static_value)]	! a, static_value
	.cfi_endproc
.LLFE26:
	.size	set_static_value, .-set_static_value
	.align 4
	.global set_stack
	.type	set_stack, #function
	.proc	020
set_stack:
.LLFB27:
	.loc 1 149 0
	.cfi_startproc
	add	%sp, -80, %sp	!,,
.LLCFI0:
	.cfi_def_cfa_offset 80
	.loc 1 150 0
	mov	254, %g1	!, tmp109
	st	%g1, [%sp+76]	! tmp109, a
.LLVL14:
	.loc 1 151 0
	mov	255, %g1	!, tmp110
	st	%g1, [%sp+72]	! tmp110, b
.LLVL15:
	.loc 1 152 0
	jmp	%o7+8
	 sub	%sp, -80, %sp	!,,
	.cfi_endproc
.LLFE27:
	.size	set_stack, .-set_stack
	.align 4
	.global use_stack
	.type	use_stack, #function
	.proc	04
use_stack:
.LLFB28:
	.loc 1 155 0
	.cfi_startproc
	add	%sp, -80, %sp	!,,
.LLCFI1:
	.cfi_def_cfa_offset 80
	.loc 1 156 0
	mov	254, %g1	!, tmp113
	st	%g1, [%sp+76]	! tmp113, a
.LLVL16:
	.loc 1 157 0
	mov	255, %g1	!, tmp114
	st	%g1, [%sp+72]	! tmp114, b
.LLVL17:
	.loc 1 158 0
	ld	[%sp+76], %o0	! a, a.1
	ld	[%sp+72], %g1	! b, b.2
	.loc 1 159 0
	add	%o0, %g1, %o0	! a.1, b.2, tmp24
	jmp	%o7+8
	 sub	%sp, -80, %sp	!,,
	.cfi_endproc
.LLFE28:
	.size	use_stack, .-use_stack
	.align 4
	.global call_self
	.type	call_self, #function
	.proc	020
call_self:
.LLFB29:
	.loc 1 162 0
	.cfi_startproc
	save	%sp, -96, %sp	!
.LLCFI2:
	.cfi_window_save
	.cfi_register 15, 31
	.cfi_def_cfa_register 30
	.loc 1 163 0
	call	call_self, 0
	 nop	!,
.LLVL18:
	jmp	%i7+8
	 restore
	.cfi_endproc
.LLFE29:
	.size	call_self, .-call_self
	.align 4
	.global call_simple
	.type	call_simple, #function
	.proc	04
call_simple:
.LLFB30:
	.loc 1 167 0
	.cfi_startproc
.LLVL19:
	save	%sp, -96, %sp	!
.LLCFI3:
	.cfi_window_save
	.cfi_register 15, 31
	.cfi_def_cfa_register 30
.LLVL20:
	.loc 1 168 0
	call	return_arg1, 0	!,
	 mov	%i0, %o0	! a,
.LLVL21:
	.loc 1 169 0
	jmp	%i7+8
	 restore %g0, %o0, %o0	!,
	.cfi_endproc
.LLFE30:
	.size	call_simple, .-call_simple
	.align 4
	.global call_complex1
	.type	call_complex1, #function
	.proc	04
call_complex1:
.LLFB31:
	.loc 1 172 0
	.cfi_startproc
	save	%sp, -96, %sp	!
.LLCFI4:
	.cfi_window_save
	.cfi_register 15, 31
	.cfi_def_cfa_register 30
	.loc 1 173 0
	call	return_arg1, 0	!,
	 mov	254, %o0	!,
.LLVL22:
	.loc 1 174 0
	jmp	%i7+8
	 restore %o0, 1, %o0	!,,
	.cfi_endproc
.LLFE31:
	.size	call_complex1, .-call_complex1
	.align 4
	.global call_complex2
	.type	call_complex2, #function
	.proc	04
call_complex2:
.LLFB32:
	.loc 1 177 0
	.cfi_startproc
.LLVL23:
	save	%sp, -96, %sp	!
.LLCFI5:
	.cfi_window_save
	.cfi_register 15, 31
	.cfi_def_cfa_register 30
.LLVL24:
	.loc 1 178 0
	call	return_arg1, 0	!,
	 mov	%i1, %o0	! b,
.LLVL25:
	sethi	%hi(static_value), %g1	!, tmp114
	st	%o0, [%g1+%lo(static_value)]	!, static_value
.LLVL26:
	.loc 1 180 0
	jmp	%i7+8
	 restore %g0, %i1, %o0	! b,
	.cfi_endproc
.LLFE32:
	.size	call_complex2, .-call_complex2
	.align 4
	.global call_pointer
	.type	call_pointer, #function
	.proc	020
call_pointer:
.LLFB33:
	.loc 1 183 0
	.cfi_startproc
.LLVL27:
	save	%sp, -96, %sp	!
.LLCFI6:
	.cfi_window_save
	.cfi_register 15, 31
	.cfi_def_cfa_register 30
.LLVL28:
	.loc 1 184 0
	call	%i0, 0
	 nop	! f,
.LLVL29:
	jmp	%i7+8
	 restore
	.cfi_endproc
.LLFE33:
	.size	call_pointer, .-call_pointer
	.align 4
	.global condition
	.type	condition, #function
	.proc	04
condition:
.LLFB34:
	.loc 1 188 0
	.cfi_startproc
.LLVL30:
	.loc 1 189 0
	cmp	%o0, %o1	! a, b
	be,a	.LL36	!
	 mov	1, %o1	!, b
.LL36:
	.loc 1 192 0
	jmp	%o7+8
	 add	%o1, 1, %o0	! b,, tmp24
	.cfi_endproc
.LLFE34:
	.size	condition, .-condition
	.align 4
	.global loop
	.type	loop, #function
	.proc	04
loop:
.LLFB35:
	.loc 1 195 0
	.cfi_startproc
.LLVL31:
	.loc 1 197 0
	cmp	%o0, 0	! n,
	ble	.LL41	!
	 mov	0, %g2	!, sum
	.loc 1 197 0 is_stmt 0 discriminator 2
	mov	0, %g1	!, i
.LLVL32:
	.loc 1 198 0 is_stmt 1 discriminator 2
	add	%g2, %g1, %g2	! sum, i, sum
.LLVL33:
.LL44:
	.loc 1 197 0 discriminator 2
	add	%g1, 1, %g1	! i,, i
.LLVL34:
	cmp	%g1, %o0	! i, n
	bne,a	.LL44	!
	 add	%g2, %g1, %g2	! sum, i, sum
	.loc 1 200 0
	jmp	%o7+8
	 mov	%g2, %o0	! sum, tmp24
.LLVL35:
.LL41:
	mov	%g2, %o0	! sum, tmp24
	jmp	%o7+8
	 nop
	.cfi_endproc
.LLFE35:
	.size	loop, .-loop
	.align 4
	.global many_args
	.type	many_args, #function
	.proc	04
many_args:
.LLFB36:
	.loc 1 204 0
	.cfi_startproc
.LLVL36:
	.loc 1 205 0
	add	%o0, %o3, %o0	! a0, a3, tmp122
	add	%o0, %o5, %o0	! tmp122, a5, tmp123
	.loc 1 206 0
	ld	[%sp+96], %g1	! a7, a7
	jmp	%o7+8
	 add	%o0, %g1, %o0	! tmp123, a7, tmp24
	.cfi_endproc
.LLFE36:
	.size	many_args, .-many_args
	.align 4
	.global call_many_args
	.type	call_many_args, #function
	.proc	04
call_many_args:
.LLFB37:
	.loc 1 209 0
	.cfi_startproc
	save	%sp, -104, %sp	!
.LLCFI7:
	.cfi_window_save
	.cfi_register 15, 31
	.cfi_def_cfa_register 30
	.loc 1 210 0
	mov	6, %g1	!, tmp111
	st	%g1, [%sp+92]	! tmp111,
	mov	7, %g1	!, tmp112
	st	%g1, [%sp+96]	! tmp112,
	mov	0, %o0	!,
	mov	1, %o1	!,
	mov	2, %o2	!,
	mov	3, %o3	!,
	mov	4, %o4	!,
	call	many_args, 0	!,
	 mov	5, %o5	!,
.LLVL37:
	.loc 1 211 0
	jmp	%i7+8
	 restore %g0, %o0, %o0	!,
	.cfi_endproc
.LLFE37:
	.size	call_many_args, .-call_many_args
	.align 4
	.global direct
	.type	direct, #function
	.proc	020
direct:
.LLFB38:
	.loc 1 215 0
	.cfi_startproc
	.loc 1 216 0
! 216 "sparc-elf.c" 1
	nop
! 0 "" 2
	jmp	%o7+8
	 nop
	.cfi_endproc
.LLFE38:
	.size	direct, .-direct
	.align 4
	.global binary
	.type	binary, #function
	.proc	020
binary:
.LLFB39:
	.loc 1 223 0
	.cfi_startproc
	.loc 1 224 0
! 224 "sparc-elf.c" 1
	.align 4
! 0 "" 2
	.loc 1 225 0
! 225 "sparc-elf.c" 1
	.int 0x0
! 0 "" 2
	jmp	%o7+8
	 nop
	.cfi_endproc
.LLFE39:
	.size	binary, .-binary
	.align 4
	.global main
	.type	main, #function
	.proc	04
main:
.LLFB40:
	.loc 1 231 0
	.cfi_startproc
	.loc 1 233 0
	jmp	%o7+8
	 mov	0, %o0	!, tmp24
	.cfi_endproc
.LLFE40:
	.size	main, .-main
	.global static_long
	.section	".data"
	.align 4
	.type	static_long, #object
	.size	static_long, 4
static_long:
	.long	305419896
	.global static_value
	.align 4
	.type	static_value, #object
	.size	static_value, 4
static_value:
	.long	10
	.section	".text"
.LLetext0: