	.file	"strongarm-elf.c"
@ GNU C (GCC) version 4.7.2 (strongarm-elf)
@	compiled by GNU C version 4.2.1 20070719  [FreeBSD], GMP version 5.1.1, MPFR version 3.1.2, MPC version 1.0.1
@ GGC heuristics: --param ggc-min-expand=100 --param ggc-min-heapsize=131072
@ options passed:  -nostdinc -D__USES_INITFINI__ strongarm-elf.c
@ -auxbase-strip strongarm-elf.s -g -O -Wall -fno-builtin -fverbose-asm
@ -fomit-frame-pointer
@ options enabled:  -fauto-inc-dec -fbranch-count-reg
@ -fcombine-stack-adjustments -fcommon -fcompare-elim -fcprop-registers
@ -fdebug-types-section -fdefer-pop -fdelete-null-pointer-checks
@ -fdwarf2-cfi-asm -fearly-inlining -feliminate-unused-debug-types
@ -fforward-propagate -ffunction-cse -fgcse-lm -fgnu-runtime
@ -fguess-branch-probability -fident -fif-conversion -fif-conversion2
@ -finline -finline-atomics -finline-functions-called-once -fipa-profile
@ -fipa-pure-const -fipa-reference -fira-share-save-slots
@ -fira-share-spill-slots -fivopts -fkeep-static-consts
@ -fleading-underscore -fmath-errno -fmerge-constants -fmerge-debug-strings
@ -fmove-loop-invariants -fomit-frame-pointer -fpeephole
@ -fprefetch-loop-arrays -freg-struct-return
@ -fsched-critical-path-heuristic -fsched-dep-count-heuristic
@ -fsched-group-heuristic -fsched-interblock -fsched-last-insn-heuristic
@ -fsched-rank-heuristic -fsched-spec -fsched-spec-insn-heuristic
@ -fsched-stalled-insns-dep -fsection-anchors -fshow-column -fshrink-wrap
@ -fsigned-zeros -fsplit-ivs-in-unroller -fsplit-wide-types
@ -fstrict-volatile-bitfields -ftoplevel-reorder -ftrapping-math
@ -ftree-bit-ccp -ftree-ccp -ftree-ch -ftree-copy-prop -ftree-copyrename
@ -ftree-cselim -ftree-dce -ftree-dominator-opts -ftree-dse -ftree-forwprop
@ -ftree-fre -ftree-loop-if-convert -ftree-loop-im -ftree-loop-ivcanon
@ -ftree-loop-optimize -ftree-parallelize-loops= -ftree-phiprop -ftree-pta
@ -ftree-reassoc -ftree-scev-cprop -ftree-sink -ftree-slp-vectorize
@ -ftree-sra -ftree-ter -ftree-vect-loop-version -funit-at-a-time
@ -fvar-tracking -fvar-tracking-assignments -fverbose-asm
@ -fzero-initialized-in-bss -marm -mlittle-endian -msched-prolog
@ -mvectorize-with-neon-quad

	.text
.Ltext0:
	.cfi_sections	.debug_frame
	.align	2
	.global	null
	.type	null, %function
null:
.LFB0:
	.file 1 "strongarm-elf.c"
	.loc 1 2 0
	.cfi_startproc
	@ args = 0, pretend = 0, frame = 0
	@ frame_needed = 0, uses_anonymous_args = 0
	@ link register save eliminated.
	bx	lr	@
	.cfi_endproc
.LFE0:
	.size	null, .-null
	.align	2
	.global	return_zero
	.type	return_zero, %function
return_zero:
.LFB1:
	.loc 1 7 0
	.cfi_startproc
	@ args = 0, pretend = 0, frame = 0
	@ frame_needed = 0, uses_anonymous_args = 0
	@ link register save eliminated.
	.loc 1 9 0
	mov	r0, #0	@,
	bx	lr	@
	.cfi_endproc
.LFE1:
	.size	return_zero, .-return_zero
	.align	2
	.global	return_one
	.type	return_one, %function
return_one:
.LFB2:
	.loc 1 12 0
	.cfi_startproc
	@ args = 0, pretend = 0, frame = 0
	@ frame_needed = 0, uses_anonymous_args = 0
	@ link register save eliminated.
	.loc 1 14 0
	mov	r0, #1	@,
	bx	lr	@
	.cfi_endproc
.LFE2:
	.size	return_one, .-return_one
	.align	2
	.global	return_int_size
	.type	return_int_size, %function
return_int_size:
.LFB3:
	.loc 1 17 0
	.cfi_startproc
	@ args = 0, pretend = 0, frame = 0
	@ frame_needed = 0, uses_anonymous_args = 0
	@ link register save eliminated.
	.loc 1 19 0
	mov	r0, #4	@,
	bx	lr	@
	.cfi_endproc
.LFE3:
	.size	return_int_size, .-return_int_size
	.align	2
	.global	return_pointer_size
	.type	return_pointer_size, %function
return_pointer_size:
.LFB4:
	.loc 1 22 0
	.cfi_startproc
	@ args = 0, pretend = 0, frame = 0
	@ frame_needed = 0, uses_anonymous_args = 0
	@ link register save eliminated.
	.loc 1 24 0
	mov	r0, #4	@,
	bx	lr	@
	.cfi_endproc
.LFE4:
	.size	return_pointer_size, .-return_pointer_size
	.align	2
	.global	return_short_size
	.type	return_short_size, %function
return_short_size:
.LFB5:
	.loc 1 27 0
	.cfi_startproc
	@ args = 0, pretend = 0, frame = 0
	@ frame_needed = 0, uses_anonymous_args = 0
	@ link register save eliminated.
	.loc 1 29 0
	mov	r0, #2	@,
	bx	lr	@
	.cfi_endproc
.LFE5:
	.size	return_short_size, .-return_short_size
	.align	2
	.global	return_long_size
	.type	return_long_size, %function
return_long_size:
.LFB6:
	.loc 1 32 0
	.cfi_startproc
	@ args = 0, pretend = 0, frame = 0
	@ frame_needed = 0, uses_anonymous_args = 0
	@ link register save eliminated.
	.loc 1 34 0
	mov	r0, #4	@,
	bx	lr	@
	.cfi_endproc
.LFE6:
	.size	return_long_size, .-return_long_size
	.align	2
	.global	return_short
	.type	return_short, %function
return_short:
.LFB7:
	.loc 1 37 0
	.cfi_startproc
	@ args = 0, pretend = 0, frame = 0
	@ frame_needed = 0, uses_anonymous_args = 0
	@ link register save eliminated.
	.loc 1 39 0
	ldr	r0, .L9	@,
	bx	lr	@
.L10:
	.align	2
.L9:
	.word	30600
	.cfi_endproc
.LFE7:
	.size	return_short, .-return_short
	.align	2
	.global	return_long
	.type	return_long, %function
return_long:
.LFB8:
	.loc 1 42 0
	.cfi_startproc
	@ args = 0, pretend = 0, frame = 0
	@ frame_needed = 0, uses_anonymous_args = 0
	@ link register save eliminated.
	.loc 1 44 0
	ldr	r0, .L12	@,
	bx	lr	@
.L13:
	.align	2
.L12:
	.word	2005440938
	.cfi_endproc
.LFE8:
	.size	return_long, .-return_long
	.align	2
	.global	return_short_upper
	.type	return_short_upper, %function
return_short_upper:
.LFB9:
	.loc 1 47 0
	.cfi_startproc
	@ args = 0, pretend = 0, frame = 0
	@ frame_needed = 0, uses_anonymous_args = 0
	@ link register save eliminated.
	.loc 1 49 0
	mvn	r0, #17	@,
	bx	lr	@
	.cfi_endproc
.LFE9:
	.size	return_short_upper, .-return_short_upper
	.align	2
	.global	return_long_upper
	.type	return_long_upper, %function
return_long_upper:
.LFB10:
	.loc 1 52 0
	.cfi_startproc
	@ args = 0, pretend = 0, frame = 0
	@ frame_needed = 0, uses_anonymous_args = 0
	@ link register save eliminated.
	.loc 1 54 0
	ldr	r0, .L16	@,
	bx	lr	@
.L17:
	.align	2
.L16:
	.word	-1122868
	.cfi_endproc
.LFE10:
	.size	return_long_upper, .-return_long_upper
	.align	2
	.global	return_arg1
	.type	return_arg1, %function
return_arg1:
.LFB11:
	.loc 1 57 0
	.cfi_startproc
	@ args = 0, pretend = 0, frame = 0
	@ frame_needed = 0, uses_anonymous_args = 0
	@ link register save eliminated.
.LVL0:
	.loc 1 59 0
	bx	lr	@
	.cfi_endproc
.LFE11:
	.size	return_arg1, .-return_arg1
	.align	2
	.global	return_arg2
	.type	return_arg2, %function
return_arg2:
.LFB12:
	.loc 1 62 0
	.cfi_startproc
	@ args = 0, pretend = 0, frame = 0
	@ frame_needed = 0, uses_anonymous_args = 0
	@ link register save eliminated.
.LVL1:
	.loc 1 64 0
	mov	r0, r1	@, b
.LVL2:
	bx	lr	@
	.cfi_endproc
.LFE12:
	.size	return_arg2, .-return_arg2
	.align	2
	.global	add
	.type	add, %function
add:
.LFB13:
	.loc 1 67 0
	.cfi_startproc
	@ args = 0, pretend = 0, frame = 0
	@ frame_needed = 0, uses_anonymous_args = 0
	@ link register save eliminated.
.LVL3:
	.loc 1 69 0
	add	r0, r0, r1	@, a, b
.LVL4:
	bx	lr	@
	.cfi_endproc
.LFE13:
	.size	add, .-add
	.align	2
	.global	add3
	.type	add3, %function
add3:
.LFB14:
	.loc 1 72 0
	.cfi_startproc
	@ args = 0, pretend = 0, frame = 0
	@ frame_needed = 0, uses_anonymous_args = 0
	@ link register save eliminated.
.LVL5:
	.loc 1 73 0
	add	r0, r0, r1	@ tmp141, a, b
.LVL6:
	.loc 1 74 0
	add	r0, r0, r2	@, tmp141, c
	bx	lr	@
	.cfi_endproc
.LFE14:
	.size	add3, .-add3
	.align	2
	.global	add_two
	.type	add_two, %function
add_two:
.LFB15:
	.loc 1 77 0
	.cfi_startproc
	@ args = 0, pretend = 0, frame = 0
	@ frame_needed = 0, uses_anonymous_args = 0
	@ link register save eliminated.
.LVL7:
	.loc 1 79 0
	add	r0, r0, #2	@, a,
.LVL8:
	bx	lr	@
	.cfi_endproc
.LFE15:
	.size	add_two, .-add_two
	.align	2
	.global	inc
	.type	inc, %function
inc:
.LFB16:
	.loc 1 82 0
	.cfi_startproc
	@ args = 0, pretend = 0, frame = 0
	@ frame_needed = 0, uses_anonymous_args = 0
	@ link register save eliminated.
.LVL9:
	.loc 1 84 0
	add	r0, r0, #1	@, a,
.LVL10:
	bx	lr	@
	.cfi_endproc
.LFE16:
	.size	inc, .-inc
	.align	2
	.global	or
	.type	or, %function
or:
.LFB17:
	.loc 1 87 0
	.cfi_startproc
	@ args = 0, pretend = 0, frame = 0
	@ frame_needed = 0, uses_anonymous_args = 0
	@ link register save eliminated.
.LVL11:
	.loc 1 89 0
	orr	r0, r1, r0	@, b, a
.LVL12:
	bx	lr	@
	.cfi_endproc
.LFE17:
	.size	or, .-or
	.align	2
	.global	or_one
	.type	or_one, %function
or_one:
.LFB18:
	.loc 1 92 0
	.cfi_startproc
	@ args = 0, pretend = 0, frame = 0
	@ frame_needed = 0, uses_anonymous_args = 0
	@ link register save eliminated.
.LVL13:
	.loc 1 94 0
	orr	r0, r0, #1	@, a,
.LVL14:
	bx	lr	@
	.cfi_endproc
.LFE18:
	.size	or_one, .-or_one
	.align	2
	.global	load
	.type	load, %function
load:
.LFB19:
	.loc 1 97 0
	.cfi_startproc
	@ args = 0, pretend = 0, frame = 0
	@ frame_needed = 0, uses_anonymous_args = 0
	@ link register save eliminated.
.LVL15:
	.loc 1 98 0
	ldr	r0, [r0, #0]	@ D.1059, *p_1(D)
.LVL16:
	.loc 1 99 0
	bx	lr	@
	.cfi_endproc
.LFE19:
	.size	load, .-load
	.align	2
	.global	store
	.type	store, %function
store:
.LFB20:
	.loc 1 102 0
	.cfi_startproc
	@ args = 0, pretend = 0, frame = 0
	@ frame_needed = 0, uses_anonymous_args = 0
	@ link register save eliminated.
.LVL17:
	.loc 1 103 0
	mov	r3, #255	@ tmp135,
	str	r3, [r0, #0]	@ tmp135, *p_1(D)
	bx	lr	@
	.cfi_endproc
.LFE20:
	.size	store, .-store
	.align	2
	.global	load_long
	.type	load_long, %function
load_long:
.LFB21:
	.loc 1 107 0
	.cfi_startproc
	@ args = 0, pretend = 0, frame = 0
	@ frame_needed = 0, uses_anonymous_args = 0
	@ link register save eliminated.
.LVL18:
	.loc 1 108 0
	ldr	r0, [r0, #0]	@ D.1057, *p_1(D)
.LVL19:
	.loc 1 109 0
	bx	lr	@
	.cfi_endproc
.LFE21:
	.size	load_long, .-load_long
	.align	2
	.global	store_long
	.type	store_long, %function
store_long:
.LFB22:
	.loc 1 112 0
	.cfi_startproc
	@ args = 0, pretend = 0, frame = 0
	@ frame_needed = 0, uses_anonymous_args = 0
	@ link register save eliminated.
.LVL20:
	.loc 1 113 0
	ldr	r3, .L30	@ tmp135,
	str	r3, [r0, #0]	@ tmp135, *p_1(D)
	bx	lr	@
.L31:
	.align	2
.L30:
	.word	287454020
	.cfi_endproc
.LFE22:
	.size	store_long, .-store_long
	.align	2
	.global	member
	.type	member, %function
member:
.LFB23:
	.loc 1 123 0
	.cfi_startproc
	@ args = 0, pretend = 0, frame = 0
	@ frame_needed = 0, uses_anonymous_args = 0
	@ link register save eliminated.
.LVL21:
	.loc 1 124 0
	mov	r3, #1	@ tmp137,
	str	r3, [r0, #4]	@ tmp137, p_1(D)->b
	.loc 1 126 0
	ldr	r0, [r0, #8]	@, p_1(D)->c
.LVL22:
	bx	lr	@
	.cfi_endproc
.LFE23:
	.size	member, .-member
	.align	2
	.global	get_static_value_addr
	.type	get_static_value_addr, %function
get_static_value_addr:
.LFB24:
	.loc 1 132 0
	.cfi_startproc
	@ args = 0, pretend = 0, frame = 0
	@ frame_needed = 0, uses_anonymous_args = 0
	@ link register save eliminated.
	.loc 1 134 0
	ldr	r0, .L34	@,
	bx	lr	@
.L35:
	.align	2
.L34:
	.word	.LANCHOR0
	.cfi_endproc
.LFE24:
	.size	get_static_value_addr, .-get_static_value_addr
	.align	2
	.global	get_static_value
	.type	get_static_value, %function
get_static_value:
.LFB25:
	.loc 1 137 0
	.cfi_startproc
	@ args = 0, pretend = 0, frame = 0
	@ frame_needed = 0, uses_anonymous_args = 0
	@ link register save eliminated.
	.loc 1 139 0
	ldr	r3, .L37	@ tmp137,
	ldr	r0, [r3, #0]	@, static_value
	bx	lr	@
.L38:
	.align	2
.L37:
	.word	.LANCHOR0
	.cfi_endproc
.LFE25:
	.size	get_static_value, .-get_static_value
	.align	2
	.global	set_static_value
	.type	set_static_value, %function
set_static_value:
.LFB26:
	.loc 1 142 0
	.cfi_startproc
	@ args = 0, pretend = 0, frame = 0
	@ frame_needed = 0, uses_anonymous_args = 0
	@ link register save eliminated.
.LVL23:
	.loc 1 143 0
	ldr	r3, .L40	@ tmp135,
	str	r0, [r3, #0]	@ a, static_value
	bx	lr	@
.L41:
	.align	2
.L40:
	.word	.LANCHOR0
	.cfi_endproc
.LFE26:
	.size	set_static_value, .-set_static_value
	.align	2
	.global	set_stack
	.type	set_stack, %function
set_stack:
.LFB27:
	.loc 1 149 0
	.cfi_startproc
	@ args = 0, pretend = 0, frame = 8
	@ frame_needed = 0, uses_anonymous_args = 0
	@ link register save eliminated.
	sub	sp, sp, #8	@,,
.LCFI0:
	.cfi_def_cfa_offset 8
	.loc 1 150 0
	mov	r3, #254	@ tmp134,
	str	r3, [sp, #4]	@ tmp134, a
.LVL24:
	.loc 1 151 0
	mov	r3, #255	@ tmp135,
	str	r3, [sp, #0]	@ tmp135, b
.LVL25:
	.loc 1 152 0
	add	sp, sp, #8	@,,
	bx	lr
	.cfi_endproc
.LFE27:
	.size	set_stack, .-set_stack
	.align	2
	.global	use_stack
	.type	use_stack, %function
use_stack:
.LFB28:
	.loc 1 155 0
	.cfi_startproc
	@ args = 0, pretend = 0, frame = 8
	@ frame_needed = 0, uses_anonymous_args = 0
	@ link register save eliminated.
	sub	sp, sp, #8	@,,
.LCFI1:
	.cfi_def_cfa_offset 8
	.loc 1 156 0
	mov	r3, #254	@ tmp138,
	str	r3, [sp, #4]	@ tmp138, a
.LVL26:
	.loc 1 157 0
	mov	r3, #255	@ tmp139,
	str	r3, [sp, #0]	@ tmp139, b
.LVL27:
	.loc 1 158 0
	ldr	r0, [sp, #4]	@ a.1, a
	ldr	r3, [sp, #0]	@ b.2, b
	.loc 1 159 0
	add	r0, r0, r3	@, a.1, b.2
	add	sp, sp, #8	@,,
	bx	lr
	.cfi_endproc
.LFE28:
	.size	use_stack, .-use_stack
	.align	2
	.global	call_self
	.type	call_self, %function
call_self:
.LFB29:
	.loc 1 162 0
	.cfi_startproc
	@ args = 0, pretend = 0, frame = 0
	@ frame_needed = 0, uses_anonymous_args = 0
	str	lr, [sp, #-4]!	@,
.LCFI2:
	.cfi_def_cfa_offset 4
	.cfi_offset 14, -4
	.loc 1 163 0
	bl	call_self	@
.LVL28:
	ldr	pc, [sp], #4	@
	.cfi_endproc
.LFE29:
	.size	call_self, .-call_self
	.align	2
	.global	call_simple
	.type	call_simple, %function
call_simple:
.LFB30:
	.loc 1 167 0
	.cfi_startproc
	@ args = 0, pretend = 0, frame = 0
	@ frame_needed = 0, uses_anonymous_args = 0
.LVL29:
	str	lr, [sp, #-4]!	@,
.LCFI3:
	.cfi_def_cfa_offset 4
	.cfi_offset 14, -4
	.loc 1 168 0
	bl	return_arg1	@
.LVL30:
	.loc 1 169 0
	ldr	pc, [sp], #4	@
	.cfi_endproc
.LFE30:
	.size	call_simple, .-call_simple
	.align	2
	.global	call_complex1
	.type	call_complex1, %function
call_complex1:
.LFB31:
	.loc 1 172 0
	.cfi_startproc
	@ args = 0, pretend = 0, frame = 0
	@ frame_needed = 0, uses_anonymous_args = 0
	str	lr, [sp, #-4]!	@,
.LCFI4:
	.cfi_def_cfa_offset 4
	.cfi_offset 14, -4
	.loc 1 173 0
	mov	r0, #254	@,
	bl	return_arg1	@
.LVL31:
	.loc 1 174 0
	add	r0, r0, #1	@,,
	ldr	pc, [sp], #4	@
	.cfi_endproc
.LFE31:
	.size	call_complex1, .-call_complex1
	.align	2
	.global	call_complex2
	.type	call_complex2, %function
call_complex2:
.LFB32:
	.loc 1 177 0
	.cfi_startproc
	@ args = 0, pretend = 0, frame = 0
	@ frame_needed = 0, uses_anonymous_args = 0
.LVL32:
	stmfd	sp!, {r4, lr}	@,
.LCFI5:
	.cfi_def_cfa_offset 8
	.cfi_offset 4, -8
	.cfi_offset 14, -4
	mov	r4, r1	@ b, b
	.loc 1 178 0
	mov	r0, r1	@, b
.LVL33:
	bl	return_arg1	@
.LVL34:
	ldr	r3, .L48	@ tmp138,
	str	r0, [r3, #0]	@, static_value
	.loc 1 180 0
	mov	r0, r4	@, b
	ldmfd	sp!, {r4, pc}	@
.L49:
	.align	2
.L48:
	.word	.LANCHOR0
	.cfi_endproc
.LFE32:
	.size	call_complex2, .-call_complex2
	.align	2
	.global	call_pointer
	.type	call_pointer, %function
call_pointer:
.LFB33:
	.loc 1 183 0
	.cfi_startproc
	@ args = 0, pretend = 0, frame = 0
	@ frame_needed = 0, uses_anonymous_args = 0
.LVL35:
	str	lr, [sp, #-4]!	@,
.LCFI6:
	.cfi_def_cfa_offset 4
	.cfi_offset 14, -4
	.loc 1 184 0
	mov	lr, pc
	bx	r0	@ f
.LVL36:
	ldr	pc, [sp], #4	@
	.cfi_endproc
.LFE33:
	.size	call_pointer, .-call_pointer
	.align	2
	.global	condition
	.type	condition, %function
condition:
.LFB34:
	.loc 1 188 0
	.cfi_startproc
	@ args = 0, pretend = 0, frame = 0
	@ frame_needed = 0, uses_anonymous_args = 0
	@ link register save eliminated.
.LVL37:
	.loc 1 190 0
	cmp	r0, r1	@ a, b
	moveq	r1, #1	@ b,
.LVL38:
	.loc 1 192 0
	add	r0, r1, #1	@, b,
.LVL39:
	bx	lr	@
	.cfi_endproc
.LFE34:
	.size	condition, .-condition
	.align	2
	.global	loop
	.type	loop, %function
loop:
.LFB35:
	.loc 1 195 0
	.cfi_startproc
	@ args = 0, pretend = 0, frame = 0
	@ frame_needed = 0, uses_anonymous_args = 0
	@ link register save eliminated.
.LVL40:
	.loc 1 197 0
	subs	r2, r0, #0	@ n, n
	ble	.L57	@,
	.loc 1 196 0 discriminator 2
	mov	r0, #0	@ sum,
.LVL41:
	.loc 1 197 0 discriminator 2
	mov	r3, r0	@ i, sum
.LVL42:
.L56:
	.loc 1 198 0 discriminator 2
	add	r0, r0, r3	@ sum, sum, i
.LVL43:
	.loc 1 197 0 discriminator 2
	add	r3, r3, #1	@ i, i,
.LVL44:
	cmp	r3, r2	@ i, n
	bne	.L56	@,
	bx	lr	@
.LVL45:
.L57:
	.loc 1 196 0
	mov	r0, #0	@ sum,
.LVL46:
	.loc 1 200 0
	bx	lr	@
	.cfi_endproc
.LFE35:
	.size	loop, .-loop
	.align	2
	.global	many_args
	.type	many_args, %function
many_args:
.LFB36:
	.loc 1 204 0
	.cfi_startproc
	@ args = 16, pretend = 0, frame = 0
	@ frame_needed = 0, uses_anonymous_args = 0
	@ link register save eliminated.
.LVL47:
	.loc 1 205 0
	add	r0, r0, r3	@ tmp147, a0, a3
.LVL48:
	ldr	r2, [sp, #4]	@ a5, a5
.LVL49:
	add	r0, r0, r2	@ tmp148, tmp147, a5
	.loc 1 206 0
	ldr	r2, [sp, #12]	@ a7, a7
	add	r0, r0, r2	@, tmp148, a7
	bx	lr	@
	.cfi_endproc
.LFE36:
	.size	many_args, .-many_args
	.align	2
	.global	call_many_args
	.type	call_many_args, %function
call_many_args:
.LFB37:
	.loc 1 209 0
	.cfi_startproc
	@ args = 0, pretend = 0, frame = 0
	@ frame_needed = 0, uses_anonymous_args = 0
	str	lr, [sp, #-4]!	@,
.LCFI7:
	.cfi_def_cfa_offset 4
	.cfi_offset 14, -4
	sub	sp, sp, #16	@,,
.LCFI8:
	.cfi_def_cfa_offset 20
	.loc 1 210 0
	mov	r3, #4	@ tmp136,
	str	r3, [sp, #0]	@ tmp136,
	mov	r3, #5	@ tmp137,
	str	r3, [sp, #4]	@ tmp137,
	mov	r3, #6	@ tmp138,
	str	r3, [sp, #8]	@ tmp138,
	mov	r3, #7	@ tmp139,
	str	r3, [sp, #12]	@ tmp139,
	mov	r0, #0	@,
	mov	r1, #1	@,
	mov	r2, #2	@,
	mov	r3, #3	@,
	bl	many_args	@
.LVL50:
	.loc 1 211 0
	add	sp, sp, #16	@,,
	ldmfd	sp!, {pc}
	.cfi_endproc
.LFE37:
	.size	call_many_args, .-call_many_args
	.align	2
	.global	direct
	.type	direct, %function
direct:
.LFB38:
	.loc 1 215 0
	.cfi_startproc
	@ args = 0, pretend = 0, frame = 0
	@ frame_needed = 0, uses_anonymous_args = 0
	@ link register save eliminated.
	.loc 1 216 0
@ 216 "strongarm-elf.c" 1
	nop
@ 0 "" 2
	bx	lr	@
	.cfi_endproc
.LFE38:
	.size	direct, .-direct
	.align	2
	.global	binary
	.type	binary, %function
binary:
.LFB39:
	.loc 1 223 0
	.cfi_startproc
	@ args = 0, pretend = 0, frame = 0
	@ frame_needed = 0, uses_anonymous_args = 0
	@ link register save eliminated.
	.loc 1 224 0
@ 224 "strongarm-elf.c" 1
	.align 4
@ 0 "" 2
	.loc 1 225 0
@ 225 "strongarm-elf.c" 1
	.int 0x0
@ 0 "" 2
	bx	lr	@
	.cfi_endproc
.LFE39:
	.size	binary, .-binary
	.align	2
	.global	main
	.type	main, %function
main:
.LFB40:
	.loc 1 231 0
	.cfi_startproc
	@ args = 0, pretend = 0, frame = 0
	@ frame_needed = 0, uses_anonymous_args = 0
	@ link register save eliminated.
	.loc 1 233 0
	mov	r0, #0	@,
	bx	lr	@
	.cfi_endproc
.LFE40:
	.size	main, .-main
	.global	static_long
	.global	static_value
	.data
	.align	2
	.set	.LANCHOR0,. + 0
	.type	static_value, %object
	.size	static_value, 4
static_value:
	.word	10
	.type	static_long, %object
	.size	static_long, 4
static_long:
	.word	305419896
	.text
.Letext0: