
./0.elf:     file format elf32-littlearm


Disassembly of section .init:

00010158 <_init>:
   10158:	e92d4008 	push	{r3, lr}
   1015c:	eb00008f 	bl	103a0 <call_weak_fn>
   10160:	e8bd8008 	pop	{r3, pc}

Disassembly of section .text:

00010170 <backtrace_and_maps>:
   10170:	e3500001 	cmp	r0, #1
   10174:	d3a01000 	movle	r1, #0
   10178:	c2011001 	andgt	r1, r1, #1
   1017c:	e3510000 	cmp	r1, #0
   10180:	012fff1e 	bxeq	lr
   10184:	e92d47f0 	push	{r4, r5, r6, r7, r8, r9, sl, lr}
   10188:	e24ddc05 	sub	sp, sp, #1280	; 0x500
   1018c:	e1a0000d 	mov	r0, sp
   10190:	e3a01040 	mov	r1, #64	; 0x40
   10194:	e1a04002 	mov	r4, r2
   10198:	eb0064ff 	bl	2959c <__backtrace>
   1019c:	e3500002 	cmp	r0, #2
   101a0:	e1a05000 	mov	r5, r0
   101a4:	da00004f 	ble	102e8 <backtrace_and_maps+0x178>
   101a8:	e1a00004 	mov	r0, r4
   101ac:	e59f113c 	ldr	r1, [pc, #316]	; 102f0 <backtrace_and_maps+0x180>
   101b0:	e3a0201d 	mov	r2, #29
   101b4:	e3a07004 	mov	r7, #4
   101b8:	ef000000 	svc	0x00000000
   101bc:	e3700a01 	cmn	r0, #4096	; 0x1000
   101c0:	9a000004 	bls	101d8 <backtrace_and_maps+0x68>
   101c4:	e59f2128 	ldr	r2, [pc, #296]	; 102f4 <backtrace_and_maps+0x184>
   101c8:	e2603000 	rsb	r3, r0, #0
   101cc:	eb0002db 	bl	10d40 <__aeabi_read_tp>
   101d0:	e79f2002 	ldr	r2, [pc, r2]
   101d4:	e7803002 	str	r3, [r0, r2]
   101d8:	e2451001 	sub	r1, r5, #1
   101dc:	e28d0004 	add	r0, sp, #4
   101e0:	e1a02004 	mov	r2, r4
   101e4:	eb006508 	bl	2960c <__backtrace_symbols_fd>
   101e8:	e3a07004 	mov	r7, #4
   101ec:	e1a00004 	mov	r0, r4
   101f0:	e59f1100 	ldr	r1, [pc, #256]	; 102f8 <backtrace_and_maps+0x188>
   101f4:	e3a0201d 	mov	r2, #29
   101f8:	ef000000 	svc	0x00000000
   101fc:	e3700a01 	cmn	r0, #4096	; 0x1000
   10200:	9a000004 	bls	10218 <backtrace_and_maps+0xa8>
   10204:	e59f20f0 	ldr	r2, [pc, #240]	; 102fc <backtrace_and_maps+0x18c>
   10208:	e2603000 	rsb	r3, r0, #0
   1020c:	eb0002cb 	bl	10d40 <__aeabi_read_tp>
   10210:	e79f2002 	ldr	r2, [pc, r2]
   10214:	e7803002 	str	r3, [r0, r2]
   10218:	e59f00e0 	ldr	r0, [pc, #224]	; 10300 <backtrace_and_maps+0x190>
   1021c:	e3a01000 	mov	r1, #0
   10220:	e3a07005 	mov	r7, #5
   10224:	ef000000 	svc	0x00000000
   10228:	e3700a01 	cmn	r0, #4096	; 0x1000
   1022c:	e1a05000 	mov	r5, r0
   10230:	9a000005 	bls	1024c <backtrace_and_maps+0xdc>
   10234:	e59f30c8 	ldr	r3, [pc, #200]	; 10304 <backtrace_and_maps+0x194>
   10238:	e3e05000 	mvn	r5, #0
   1023c:	e2602000 	rsb	r2, r0, #0
   10240:	e79f3003 	ldr	r3, [pc, r3]
   10244:	eb0002bd 	bl	10d40 <__aeabi_read_tp>
   10248:	e7802003 	str	r2, [r0, r3]
   1024c:	e3a0ab01 	mov	sl, #1024	; 0x400
   10250:	e3a09003 	mov	r9, #3
   10254:	e3a08004 	mov	r8, #4
   10258:	e3e06000 	mvn	r6, #0
   1025c:	e1a00005 	mov	r0, r5
   10260:	e28d1c01 	add	r1, sp, #256	; 0x100
   10264:	e1a0200a 	mov	r2, sl
   10268:	e1a07009 	mov	r7, r9
   1026c:	ef000000 	svc	0x00000000
   10270:	e1a03000 	mov	r3, r0
   10274:	e3730a01 	cmn	r3, #4096	; 0x1000
   10278:	e1a02000 	mov	r2, r0
   1027c:	e1a07008 	mov	r7, r8
   10280:	e1a00004 	mov	r0, r4
   10284:	9a000008 	bls	102ac <backtrace_and_maps+0x13c>
   10288:	e59f2078 	ldr	r2, [pc, #120]	; 10308 <backtrace_and_maps+0x198>
   1028c:	e2633000 	rsb	r3, r3, #0
   10290:	eb0002aa 	bl	10d40 <__aeabi_read_tp>
   10294:	e79f2002 	ldr	r2, [pc, r2]
   10298:	e7803002 	str	r3, [r0, r2]
   1029c:	e1a00005 	mov	r0, r5
   102a0:	e3a07006 	mov	r7, #6
   102a4:	ef000000 	svc	0x00000000
   102a8:	ea00000e 	b	102e8 <backtrace_and_maps+0x178>
   102ac:	e3530000 	cmp	r3, #0
   102b0:	dafffff9 	ble	1029c <backtrace_and_maps+0x12c>
   102b4:	ef000000 	svc	0x00000000
   102b8:	e3700a01 	cmn	r0, #4096	; 0x1000
   102bc:	e1a02000 	mov	r2, r0
   102c0:	9a000005 	bls	102dc <backtrace_and_maps+0x16c>
   102c4:	e59f1040 	ldr	r1, [pc, #64]	; 1030c <backtrace_and_maps+0x19c>
   102c8:	e1a02006 	mov	r2, r6
   102cc:	e2607000 	rsb	r7, r0, #0
   102d0:	e79f1001 	ldr	r1, [pc, r1]
   102d4:	eb000299 	bl	10d40 <__aeabi_read_tp>
   102d8:	e7807001 	str	r7, [r0, r1]
   102dc:	e1530002 	cmp	r3, r2
   102e0:	0affffdd 	beq	1025c <backtrace_and_maps+0xec>
   102e4:	eaffffec 	b	1029c <backtrace_and_maps+0x12c>
   102e8:	e28ddc05 	add	sp, sp, #1280	; 0x500
   102ec:	e8bd87f0 	pop	{r4, r5, r6, r7, r8, r9, sl, pc}
   102f0:	0006ff3c 	.word	0x0006ff3c
   102f4:	00084e6c 	.word	0x00084e6c
   102f8:	0006ff5c 	.word	0x0006ff5c
   102fc:	00084e2c 	.word	0x00084e2c
   10300:	0006ff7c 	.word	0x0006ff7c
   10304:	00084dfc 	.word	0x00084dfc
   10308:	00084da8 	.word	0x00084da8
   1030c:	00084d6c 	.word	0x00084d6c

00010310 <detach_arena.part.1>:
   10310:	e92d4010 	push	{r4, lr}
   10314:	e59f300c 	ldr	r3, [pc, #12]	; 10328 <detach_arena.part.1+0x18>
   10318:	e59f200c 	ldr	r2, [pc, #12]	; 1032c <detach_arena.part.1+0x1c>
   1031c:	e59f100c 	ldr	r1, [pc, #12]	; 10330 <detach_arena.part.1+0x20>
   10320:	e59f000c 	ldr	r0, [pc, #12]	; 10334 <detach_arena.part.1+0x24>
   10324:	eb0037e3 	bl	1e2b8 <__malloc_assert>
   10328:	00070ee0 	.word	0x00070ee0
   1032c:	00000272 	.word	0x00000272
   10330:	00070094 	.word	0x00070094
   10334:	00070144 	.word	0x00070144

00010338 <oom>:
   10338:	e3a00002 	mov	r0, #2
   1033c:	e92d4010 	push	{r4, lr}
   10340:	e59f1008 	ldr	r1, [pc, #8]	; 10350 <oom+0x18>
   10344:	eb0116e5 	bl	55ee0 <_dl_dprintf>
   10348:	e3a0007f 	mov	r0, #127	; 0x7f
   1034c:	eb005989 	bl	26978 <_exit>
   10350:	000807d4 	.word	0x000807d4

00010354 <fini>:
   10354:	e59f3004 	ldr	r3, [pc, #4]	; 10360 <fini+0xc>
   10358:	e5930014 	ldr	r0, [r3, #20]
   1035c:	ea012e0e 	b	5bb9c <check_free.isra.0>
   10360:	00096618 	.word	0x00096618

00010364 <_start>:
   10364:	e3a0b000 	mov	fp, #0
   10368:	e3a0e000 	mov	lr, #0
   1036c:	e49d1004 	pop	{r1}		; (ldr r1, [sp], #4)
   10370:	e1a0200d 	mov	r2, sp
   10374:	e52d2004 	push	{r2}		; (str r2, [sp, #-4]!)
   10378:	e52d0004 	push	{r0}		; (str r0, [sp, #-4]!)
   1037c:	e59fc010 	ldr	ip, [pc, #16]	; 10394 <_start+0x30>
   10380:	e52dc004 	push	{ip}		; (str ip, [sp, #-4]!)
   10384:	e59f000c 	ldr	r0, [pc, #12]	; 10398 <_start+0x34>
   10388:	e59f300c 	ldr	r3, [pc, #12]	; 1039c <_start+0x38>
   1038c:	eb00006a 	bl	1053c <__libc_start_main>
   10390:	eb001440 	bl	15498 <abort>
   10394:	00010d00 	.word	0x00010d00
   10398:	00010524 	.word	0x00010524
   1039c:	00010c64 	.word	0x00010c64

000103a0 <call_weak_fn>:
   103a0:	e59f3014 	ldr	r3, [pc, #20]	; 103bc <call_weak_fn+0x1c>
   103a4:	e59f2014 	ldr	r2, [pc, #20]	; 103c0 <call_weak_fn+0x20>
   103a8:	e08f3003 	add	r3, pc, r3
   103ac:	e7932002 	ldr	r2, [r3, r2]
   103b0:	e3520000 	cmp	r2, #0
   103b4:	012fff1e 	bxeq	lr
   103b8:	e1a00000 	nop			; (mov r0, r0)
   103bc:	00084c50 	.word	0x00084c50
   103c0:	0000007c 	.word	0x0000007c

000103c4 <deregister_tm_clones>:
   103c4:	e59f301c 	ldr	r3, [pc, #28]	; 103e8 <deregister_tm_clones+0x24>
   103c8:	e59f001c 	ldr	r0, [pc, #28]	; 103ec <deregister_tm_clones+0x28>
   103cc:	e0433000 	sub	r3, r3, r0
   103d0:	e3530006 	cmp	r3, #6
   103d4:	912fff1e 	bxls	lr
   103d8:	e59f3010 	ldr	r3, [pc, #16]	; 103f0 <deregister_tm_clones+0x2c>
   103dc:	e3530000 	cmp	r3, #0
   103e0:	012fff1e 	bxeq	lr
   103e4:	e12fff13 	bx	r3
   103e8:	00095ed3 	.word	0x00095ed3
   103ec:	00095ed0 	.word	0x00095ed0
   103f0:	00000000 	.word	0x00000000

000103f4 <register_tm_clones>:
   103f4:	e59f1024 	ldr	r1, [pc, #36]	; 10420 <register_tm_clones+0x2c>
   103f8:	e59f0024 	ldr	r0, [pc, #36]	; 10424 <register_tm_clones+0x30>
   103fc:	e0411000 	sub	r1, r1, r0
   10400:	e1a01141 	asr	r1, r1, #2
   10404:	e0811fa1 	add	r1, r1, r1, lsr #31
   10408:	e1b010c1 	asrs	r1, r1, #1
   1040c:	012fff1e 	bxeq	lr
   10410:	e59f3010 	ldr	r3, [pc, #16]	; 10428 <register_tm_clones+0x34>
   10414:	e3530000 	cmp	r3, #0
   10418:	012fff1e 	bxeq	lr
   1041c:	e12fff13 	bx	r3
   10420:	00095ed0 	.word	0x00095ed0
   10424:	00095ed0 	.word	0x00095ed0
   10428:	00000000 	.word	0x00000000

0001042c <__do_global_dtors_aux>:
   1042c:	e92d4010 	push	{r4, lr}
   10430:	e59f402c 	ldr	r4, [pc, #44]	; 10464 <__do_global_dtors_aux+0x38>
   10434:	e5d43000 	ldrb	r3, [r4]
   10438:	e3530000 	cmp	r3, #0
   1043c:	18bd8010 	popne	{r4, pc}
   10440:	ebffffdf 	bl	103c4 <deregister_tm_clones>
   10444:	e59f301c 	ldr	r3, [pc, #28]	; 10468 <__do_global_dtors_aux+0x3c>
   10448:	e3530000 	cmp	r3, #0
   1044c:	0a000001 	beq	10458 <__do_global_dtors_aux+0x2c>
   10450:	e59f0014 	ldr	r0, [pc, #20]	; 1046c <__do_global_dtors_aux+0x40>
   10454:	e1a00000 	nop			; (mov r0, r0)
   10458:	e3a03001 	mov	r3, #1
   1045c:	e5c43000 	strb	r3, [r4]
   10460:	e8bd8010 	pop	{r4, pc}
   10464:	00095ed0 	.word	0x00095ed0
   10468:	00000000 	.word	0x00000000
   1046c:	00084d48 	.word	0x00084d48

00010470 <frame_dummy>:
   10470:	e59f3040 	ldr	r3, [pc, #64]	; 104b8 <frame_dummy+0x48>
   10474:	e92d4010 	push	{r4, lr}
   10478:	e3530000 	cmp	r3, #0
   1047c:	0a000002 	beq	1048c <frame_dummy+0x1c>
   10480:	e59f1034 	ldr	r1, [pc, #52]	; 104bc <frame_dummy+0x4c>
   10484:	e59f0034 	ldr	r0, [pc, #52]	; 104c0 <frame_dummy+0x50>
   10488:	e1a00000 	nop			; (mov r0, r0)
   1048c:	e59f0030 	ldr	r0, [pc, #48]	; 104c4 <frame_dummy+0x54>
   10490:	e5903000 	ldr	r3, [r0]
   10494:	e3530000 	cmp	r3, #0
   10498:	1a000001 	bne	104a4 <frame_dummy+0x34>
   1049c:	e8bd4010 	pop	{r4, lr}
   104a0:	eaffffd3 	b	103f4 <register_tm_clones>
   104a4:	e59f301c 	ldr	r3, [pc, #28]	; 104c8 <frame_dummy+0x58>
   104a8:	e3530000 	cmp	r3, #0
   104ac:	0afffffa 	beq	1049c <frame_dummy+0x2c>
   104b0:	e12fff33 	blx	r3
   104b4:	eafffff8 	b	1049c <frame_dummy+0x2c>
   104b8:	00000000 	.word	0x00000000
   104bc:	00095ed4 	.word	0x00095ed4
   104c0:	00084d48 	.word	0x00084d48
   104c4:	00094f88 	.word	0x00094f88
   104c8:	00000000 	.word	0x00000000

000104cc <vuln>:
   104cc:	e92d4800 	push	{fp, lr}
   104d0:	e28db004 	add	fp, sp, #4
   104d4:	e24dd040 	sub	sp, sp, #64	; 0x40
   104d8:	e59f3038 	ldr	r3, [pc, #56]	; 10518 <vuln+0x4c>
   104dc:	e5933000 	ldr	r3, [r3]
   104e0:	e3a01000 	mov	r1, #0
   104e4:	e1a00003 	mov	r0, r3
   104e8:	eb00220f 	bl	18d2c <setbuf>
   104ec:	e59f0028 	ldr	r0, [pc, #40]	; 1051c <vuln+0x50>
   104f0:	eb001b14 	bl	17148 <_IO_puts>
   104f4:	e24b3044 	sub	r3, fp, #68	; 0x44
   104f8:	e1a00003 	mov	r0, r3
   104fc:	eb001a8e 	bl	16f3c <_IO_gets>
   10500:	e59f0018 	ldr	r0, [pc, #24]	; 10520 <vuln+0x54>
   10504:	eb001b0f 	bl	17148 <_IO_puts>
   10508:	e3a03000 	mov	r3, #0
   1050c:	e1a00003 	mov	r0, r3
   10510:	e24bd004 	sub	sp, fp, #4
   10514:	e8bd8800 	pop	{fp, pc}
   10518:	000954a8 	.word	0x000954a8
   1051c:	0006faac 	.word	0x0006faac
   10520:	0006fac4 	.word	0x0006fac4

00010524 <main>:
   10524:	e92d4800 	push	{fp, lr}
   10528:	e28db004 	add	fp, sp, #4
   1052c:	ebffffe6 	bl	104cc <vuln>
   10530:	e3a03000 	mov	r3, #0
   10534:	e1a00003 	mov	r0, r3
   10538:	e8bd8800 	pop	{fp, pc}

0001053c <__libc_start_main>:
   1053c:	e59fc2e8 	ldr	ip, [pc, #744]	; 1082c <__libc_start_main+0x2f0>
   10540:	e92d41f0 	push	{r4, r5, r6, r7, r8, lr}
   10544:	e24dde13 	sub	sp, sp, #304	; 0x130
   10548:	e35c0000 	cmp	ip, #0
   1054c:	e98d0006 	stmib	sp, {r1, r2}
   10550:	e59d2004 	ldr	r2, [sp, #4]
   10554:	e1a05003 	mov	r5, r3
   10558:	159c3000 	ldrne	r3, [ip]
   1055c:	01a0300c 	moveq	r3, ip
   10560:	e58d000c 	str	r0, [sp, #12]
   10564:	e59fe2c4 	ldr	lr, [pc, #708]	; 10830 <__libc_start_main+0x2f4>
   10568:	e2820001 	add	r0, r2, #1
   1056c:	e59fc2c0 	ldr	ip, [pc, #704]	; 10834 <__libc_start_main+0x2f8>
   10570:	e59f22c0 	ldr	r2, [pc, #704]	; 10838 <__libc_start_main+0x2fc>
   10574:	e59d4008 	ldr	r4, [sp, #8]
   10578:	e59d1150 	ldr	r1, [sp, #336]	; 0x150
   1057c:	116f3f13 	clzne	r3, r3
   10580:	e0840100 	add	r0, r4, r0, lsl #2
   10584:	11a032a3 	lsrne	r3, r3, #5
   10588:	e58e0000 	str	r0, [lr]
   1058c:	e58c3000 	str	r3, [ip]
   10590:	e5821000 	str	r1, [r2]
   10594:	e4903004 	ldr	r3, [r0], #4
   10598:	e3530000 	cmp	r3, #0
   1059c:	1afffffc 	bne	10594 <__libc_start_main+0x58>
   105a0:	eb0064d4 	bl	298f8 <_dl_aux_init>
   105a4:	e59f2290 	ldr	r2, [pc, #656]	; 1083c <__libc_start_main+0x300>
   105a8:	e59f3290 	ldr	r3, [pc, #656]	; 10840 <__libc_start_main+0x304>
   105ac:	e3520000 	cmp	r2, #0
   105b0:	e3a01001 	mov	r1, #1
   105b4:	e5933000 	ldr	r3, [r3]
   105b8:	01a01002 	moveq	r1, r2
   105bc:	e16f3f13 	clz	r3, r3
   105c0:	e1a032a3 	lsr	r3, r3, #5
   105c4:	e1130001 	tst	r3, r1
   105c8:	0a00000f 	beq	1060c <__libc_start_main+0xd0>
   105cc:	e59f3268 	ldr	r3, [pc, #616]	; 1083c <__libc_start_main+0x300>
   105d0:	e1d322ba 	ldrh	r2, [r3, #42]	; 0x2a
   105d4:	e3520020 	cmp	r2, #32
   105d8:	0a000004 	beq	105f0 <__libc_start_main+0xb4>
   105dc:	e59f3260 	ldr	r3, [pc, #608]	; 10844 <__libc_start_main+0x308>
   105e0:	e3a020af 	mov	r2, #175	; 0xaf
   105e4:	e59f125c 	ldr	r1, [pc, #604]	; 10848 <__libc_start_main+0x30c>
   105e8:	e59f025c 	ldr	r0, [pc, #604]	; 1084c <__libc_start_main+0x310>
   105ec:	eb000230 	bl	10eb4 <__assert_fail>
   105f0:	e593201c 	ldr	r2, [r3, #28]
   105f4:	e1d312bc 	ldrh	r1, [r3, #44]	; 0x2c
   105f8:	e59f0240 	ldr	r0, [pc, #576]	; 10840 <__libc_start_main+0x304>
   105fc:	e0823003 	add	r3, r2, r3
   10600:	e59f2248 	ldr	r2, [pc, #584]	; 10850 <__libc_start_main+0x314>
   10604:	e5803000 	str	r3, [r0]
   10608:	e5821000 	str	r1, [r2]
   1060c:	e59f3220 	ldr	r3, [pc, #544]	; 10834 <__libc_start_main+0x2f8>
   10610:	e5933000 	ldr	r3, [r3]
   10614:	e3530000 	cmp	r3, #0
   10618:	0a000019 	beq	10684 <__libc_start_main+0x148>
   1061c:	e59f4230 	ldr	r4, [pc, #560]	; 10854 <__libc_start_main+0x318>
   10620:	e59f2230 	ldr	r2, [pc, #560]	; 10858 <__libc_start_main+0x31c>
   10624:	e1540002 	cmp	r4, r2
   10628:	2a000023 	bcs	106bc <__libc_start_main+0x180>
   1062c:	e5d43004 	ldrb	r3, [r4, #4]
   10630:	e5946000 	ldr	r6, [r4]
   10634:	e35300a0 	cmp	r3, #160	; 0xa0
   10638:	1a00000f 	bne	1067c <__libc_start_main+0x140>
   1063c:	e1e07004 	mvn	r7, r4
   10640:	e0877002 	add	r7, r7, r2
   10644:	e3c77007 	bic	r7, r7, #7
   10648:	e59f820c 	ldr	r8, [pc, #524]	; 1085c <__libc_start_main+0x320>
   1064c:	e0847007 	add	r7, r4, r7
   10650:	e5963000 	ldr	r3, [r6]
   10654:	e5980000 	ldr	r0, [r8]
   10658:	e12fff33 	blx	r3
   1065c:	e1540007 	cmp	r4, r7
   10660:	e5860000 	str	r0, [r6]
   10664:	0a000014 	beq	106bc <__libc_start_main+0x180>
   10668:	e1a03004 	mov	r3, r4
   1066c:	e5b46008 	ldr	r6, [r4, #8]!
   10670:	e5d3300c 	ldrb	r3, [r3, #12]
   10674:	e35300a0 	cmp	r3, #160	; 0xa0
   10678:	0afffff4 	beq	10650 <__libc_start_main+0x114>
   1067c:	e59f01dc 	ldr	r0, [pc, #476]	; 10860 <__libc_start_main+0x324>
   10680:	eb0022b5 	bl	1915c <__libc_fatal>
   10684:	eb0068bf 	bl	2a988 <_dl_discover_osversion>
   10688:	e3500000 	cmp	r0, #0
   1068c:	ba000060 	blt	10814 <__libc_start_main+0x2d8>
   10690:	e59f31cc 	ldr	r3, [pc, #460]	; 10864 <__libc_start_main+0x328>
   10694:	e5933000 	ldr	r3, [r3]
   10698:	e3530000 	cmp	r3, #0
   1069c:	1a000040 	bne	107a4 <__libc_start_main+0x268>
   106a0:	e59f31bc 	ldr	r3, [pc, #444]	; 10864 <__libc_start_main+0x328>
   106a4:	e5830000 	str	r0, [r3]
   106a8:	e59f31b8 	ldr	r3, [pc, #440]	; 10868 <__libc_start_main+0x32c>
   106ac:	e1500003 	cmp	r0, r3
   106b0:	caffffd9 	bgt	1061c <__libc_start_main+0xe0>
   106b4:	e59f01b0 	ldr	r0, [pc, #432]	; 1086c <__libc_start_main+0x330>
   106b8:	eb0022a7 	bl	1915c <__libc_fatal>
   106bc:	eb00015d 	bl	10c38 <__pthread_initialize_minimal>
   106c0:	e59f31a8 	ldr	r3, [pc, #424]	; 10870 <__libc_start_main+0x334>
   106c4:	e59d114c 	ldr	r1, [sp, #332]	; 0x14c
   106c8:	e59f21a4 	ldr	r2, [pc, #420]	; 10874 <__libc_start_main+0x338>
   106cc:	e3510000 	cmp	r1, #0
   106d0:	e5931000 	ldr	r1, [r3]
   106d4:	e5913000 	ldr	r3, [r1]
   106d8:	e5911004 	ldr	r1, [r1, #4]
   106dc:	e3c330ff 	bic	r3, r3, #255	; 0xff
   106e0:	e5823000 	str	r3, [r2]
   106e4:	e5821004 	str	r1, [r2, #4]
   106e8:	0a000003 	beq	106fc <__libc_start_main+0x1c0>
   106ec:	e3a02000 	mov	r2, #0
   106f0:	e1a01002 	mov	r1, r2
   106f4:	e59d014c 	ldr	r0, [sp, #332]	; 0x14c
   106f8:	eb001672 	bl	160c8 <__cxa_atexit>
   106fc:	e59f312c 	ldr	r3, [pc, #300]	; 10830 <__libc_start_main+0x2f4>
   10700:	e99d0003 	ldmib	sp, {r0, r1}
   10704:	e5932000 	ldr	r2, [r3]
   10708:	eb0068e2 	bl	2aa98 <__libc_init_first>
   1070c:	e59d3148 	ldr	r3, [sp, #328]	; 0x148
   10710:	e3530000 	cmp	r3, #0
   10714:	0a000003 	beq	10728 <__libc_start_main+0x1ec>
   10718:	e3a02000 	mov	r2, #0
   1071c:	e1a01002 	mov	r1, r2
   10720:	e59d0148 	ldr	r0, [sp, #328]	; 0x148
   10724:	eb001667 	bl	160c8 <__cxa_atexit>
   10728:	e59f3148 	ldr	r3, [pc, #328]	; 10878 <__libc_start_main+0x33c>
   1072c:	e5933000 	ldr	r3, [r3]
   10730:	e3530000 	cmp	r3, #0
   10734:	1a000038 	bne	1081c <__libc_start_main+0x2e0>
   10738:	e3550000 	cmp	r5, #0
   1073c:	0a000003 	beq	10750 <__libc_start_main+0x214>
   10740:	e59f30e8 	ldr	r3, [pc, #232]	; 10830 <__libc_start_main+0x2f4>
   10744:	e99d0003 	ldmib	sp, {r0, r1}
   10748:	e5932000 	ldr	r2, [r3]
   1074c:	e12fff35 	blx	r5
   10750:	e3a01000 	mov	r1, #0
   10754:	e1a00001 	mov	r0, r1
   10758:	eb006444 	bl	29870 <_dl_debug_initialize>
   1075c:	e28d0018 	add	r0, sp, #24
   10760:	eb00134a 	bl	15490 <_setjmp>
   10764:	e3500000 	cmp	r0, #0
   10768:	1a000010 	bne	107b0 <__libc_start_main+0x274>
   1076c:	e59f20bc 	ldr	r2, [pc, #188]	; 10830 <__libc_start_main+0x2f4>
   10770:	eb000172 	bl	10d40 <__aeabi_read_tp>
   10774:	e1a03000 	mov	r3, r0
   10778:	e510e440 	ldr	lr, [r0, #-1088]	; 0xfffffbc0
   1077c:	e510c444 	ldr	ip, [r0, #-1092]	; 0xfffffbbc
   10780:	e28d4018 	add	r4, sp, #24
   10784:	e5034440 	str	r4, [r3, #-1088]	; 0xfffffbc0
   10788:	e99d0003 	ldmib	sp, {r0, r1}
   1078c:	e5922000 	ldr	r2, [r2]
   10790:	e59d300c 	ldr	r3, [sp, #12]
   10794:	e58de120 	str	lr, [sp, #288]	; 0x120
   10798:	e58dc124 	str	ip, [sp, #292]	; 0x124
   1079c:	e12fff33 	blx	r3
   107a0:	eb0015c1 	bl	15eac <exit>
   107a4:	e1530000 	cmp	r3, r0
   107a8:	9affffbe 	bls	106a8 <__libc_start_main+0x16c>
   107ac:	eaffffbb 	b	106a0 <__libc_start_main+0x164>
   107b0:	e1a00000 	nop			; (mov r0, r0)
   107b4:	e59f20c0 	ldr	r2, [pc, #192]	; 1087c <__libc_start_main+0x340>
   107b8:	e5923000 	ldr	r3, [r2]
   107bc:	e2431001 	sub	r1, r3, #1
   107c0:	e58d3014 	str	r3, [sp, #20]
   107c4:	e1920f9f 	ldrex	r0, [r2]
   107c8:	e1500003 	cmp	r0, r3
   107cc:	1a000003 	bne	107e0 <__libc_start_main+0x2a4>
   107d0:	e182cf91 	strex	ip, r1, [r2]
   107d4:	e35c0000 	cmp	ip, #0
   107d8:	1afffff9 	bne	107c4 <__libc_start_main+0x288>
   107dc:	ee070fba 	mcr	15, 0, r0, cr7, cr10, {5}
   107e0:	03a01001 	moveq	r1, #1
   107e4:	13a01000 	movne	r1, #0
   107e8:	158d0014 	strne	r0, [sp, #20]
   107ec:	e3510000 	cmp	r1, #0
   107f0:	0afffff0 	beq	107b8 <__libc_start_main+0x27c>
   107f4:	e3530001 	cmp	r3, #1
   107f8:	0a000009 	beq	10824 <__libc_start_main+0x2e8>
   107fc:	e3a02000 	mov	r2, #0
   10800:	e3a03001 	mov	r3, #1
   10804:	e1a00002 	mov	r0, r2
   10808:	e1a07003 	mov	r7, r3
   1080c:	ef000000 	svc	0x00000000
   10810:	eafffffb 	b	10804 <__libc_start_main+0x2c8>
   10814:	e59f0064 	ldr	r0, [pc, #100]	; 10880 <__libc_start_main+0x344>
   10818:	eb00224f 	bl	1915c <__libc_fatal>
   1081c:	eb000055 	bl	10978 <__libc_check_standard_fds>
   10820:	eaffffc4 	b	10738 <__libc_start_main+0x1fc>
   10824:	e3a00000 	mov	r0, #0
   10828:	eaffffdc 	b	107a0 <__libc_start_main+0x264>
   1082c:	00000000 	.word	0x00000000
   10830:	00096438 	.word	0x00096438
   10834:	00095c84 	.word	0x00095c84
   10838:	00094fd8 	.word	0x00094fd8
   1083c:	00010000 	.word	0x00010000
   10840:	00096994 	.word	0x00096994
   10844:	0006fb74 	.word	0x0006fb74
   10848:	0006facc 	.word	0x0006facc
   1084c:	0006fadc 	.word	0x0006fadc
   10850:	000969b4 	.word	0x000969b4
   10854:	00010158 	.word	0x00010158
   10858:	00010158 	.word	0x00010158
   1085c:	00096450 	.word	0x00096450
   10860:	0006fb4c 	.word	0x0006fb4c
   10864:	000969c4 	.word	0x000969c4
   10868:	000301ff 	.word	0x000301ff
   1086c:	0006fb0c 	.word	0x0006fb0c
   10870:	00094f94 	.word	0x00094f94
   10874:	00094f8c 	.word	0x00094f8c
   10878:	00094fdc 	.word	0x00094fdc
   1087c:	00000000 	.word	0x00000000
   10880:	0006fb24 	.word	0x0006fb24

00010884 <check_one_fd>:
   10884:	e92d43b0 	push	{r4, r5, r7, r8, r9, lr}
   10888:	e1a04001 	mov	r4, r1
   1088c:	e24dd068 	sub	sp, sp, #104	; 0x68
   10890:	e3a01001 	mov	r1, #1
   10894:	e1a05000 	mov	r5, r0
   10898:	eb005b74 	bl	27670 <__libc_fcntl>
   1089c:	e3700001 	cmn	r0, #1
   108a0:	0a000001 	beq	108ac <check_one_fd+0x28>
   108a4:	e28dd068 	add	sp, sp, #104	; 0x68
   108a8:	e8bd83b0 	pop	{r4, r5, r7, r8, r9, pc}
   108ac:	e59f30ac 	ldr	r3, [pc, #172]	; 10960 <check_one_fd+0xdc>
   108b0:	eb000122 	bl	10d40 <__aeabi_read_tp>
   108b4:	e79f3003 	ldr	r3, [pc, r3]
   108b8:	e7903003 	ldr	r3, [r0, r3]
   108bc:	e3530009 	cmp	r3, #9
   108c0:	1afffff7 	bne	108a4 <check_one_fd+0x20>
   108c4:	e2043003 	and	r3, r4, #3
   108c8:	e3530001 	cmp	r3, #1
   108cc:	13a09000 	movne	r9, #0
   108d0:	159f808c 	ldrne	r8, [pc, #140]	; 10964 <check_one_fd+0xe0>
   108d4:	159f008c 	ldrne	r0, [pc, #140]	; 10968 <check_one_fd+0xe4>
   108d8:	059f008c 	ldreq	r0, [pc, #140]	; 1096c <check_one_fd+0xe8>
   108dc:	059f808c 	ldreq	r8, [pc, #140]	; 10970 <check_one_fd+0xec>
   108e0:	03a09000 	moveq	r9, #0
   108e4:	e1a01004 	mov	r1, r4
   108e8:	e3a02000 	mov	r2, #0
   108ec:	e3a07005 	mov	r7, #5
   108f0:	ef000000 	svc	0x00000000
   108f4:	e3700a01 	cmn	r0, #4096	; 0x1000
   108f8:	e1a03000 	mov	r3, r0
   108fc:	8a000010 	bhi	10944 <check_one_fd+0xc0>
   10900:	e1550003 	cmp	r5, r3
   10904:	1a00000d 	bne	10940 <check_one_fd+0xbc>
   10908:	e1a01005 	mov	r1, r5
   1090c:	e1a0200d 	mov	r2, sp
   10910:	e3a00003 	mov	r0, #3
   10914:	eb005abe 	bl	27414 <___fxstat64>
   10918:	e3500000 	cmp	r0, #0
   1091c:	1a000007 	bne	10940 <check_one_fd+0xbc>
   10920:	e59d3010 	ldr	r3, [sp, #16]
   10924:	e2033a0f 	and	r3, r3, #61440	; 0xf000
   10928:	e3530a02 	cmp	r3, #8192	; 0x2000
   1092c:	1a000003 	bne	10940 <check_one_fd+0xbc>
   10930:	e1cd22d0 	ldrd	r2, [sp, #32]
   10934:	e1530009 	cmp	r3, r9
   10938:	01520008 	cmpeq	r2, r8
   1093c:	0affffd8 	beq	108a4 <check_one_fd+0x20>
   10940:	e7f000f0 	udf	#0
   10944:	e59f2028 	ldr	r2, [pc, #40]	; 10974 <check_one_fd+0xf0>
   10948:	e2601000 	rsb	r1, r0, #0
   1094c:	e3e03000 	mvn	r3, #0
   10950:	e79f2002 	ldr	r2, [pc, r2]
   10954:	eb0000f9 	bl	10d40 <__aeabi_read_tp>
   10958:	e7801002 	str	r1, [r0, r2]
   1095c:	eaffffe7 	b	10900 <check_one_fd+0x7c>
   10960:	00084788 	.word	0x00084788
   10964:	00000103 	.word	0x00000103
   10968:	0006fb94 	.word	0x0006fb94
   1096c:	0006fb88 	.word	0x0006fb88
   10970:	00000107 	.word	0x00000107
   10974:	000846ec 	.word	0x000846ec

00010978 <__libc_check_standard_fds>:
   10978:	e92d4010 	push	{r4, lr}
   1097c:	e3a00000 	mov	r0, #0
   10980:	e59f101c 	ldr	r1, [pc, #28]	; 109a4 <__libc_check_standard_fds+0x2c>
   10984:	ebffffbe 	bl	10884 <check_one_fd>
   10988:	e3a01902 	mov	r1, #32768	; 0x8000
   1098c:	e3a00001 	mov	r0, #1
   10990:	ebffffbb 	bl	10884 <check_one_fd>
   10994:	e3a01902 	mov	r1, #32768	; 0x8000
   10998:	e3a00002 	mov	r0, #2
   1099c:	e8bd4010 	pop	{r4, lr}
   109a0:	eaffffb7 	b	10884 <check_one_fd>
   109a4:	00008001 	.word	0x00008001

000109a8 <__libc_setup_tls>:
   109a8:	e59f31dc 	ldr	r3, [pc, #476]	; 10b8c <__libc_setup_tls+0x1e4>
   109ac:	e92d4ff0 	push	{r4, r5, r6, r7, r8, r9, sl, fp, lr}
   109b0:	e1a05001 	mov	r5, r1
   109b4:	e5933000 	ldr	r3, [r3]
   109b8:	e24dd01c 	sub	sp, sp, #28
   109bc:	e3530000 	cmp	r3, #0
   109c0:	0a00001c 	beq	10a38 <__libc_setup_tls+0x90>
   109c4:	e59f21c4 	ldr	r2, [pc, #452]	; 10b90 <__libc_setup_tls+0x1e8>
   109c8:	e5921000 	ldr	r1, [r2]
   109cc:	e0831281 	add	r1, r3, r1, lsl #5
   109d0:	e1510003 	cmp	r1, r3
   109d4:	8a000003 	bhi	109e8 <__libc_setup_tls+0x40>
   109d8:	ea000015 	b	10a34 <__libc_setup_tls+0x8c>
   109dc:	e2833020 	add	r3, r3, #32
   109e0:	e1510003 	cmp	r1, r3
   109e4:	9a000012 	bls	10a34 <__libc_setup_tls+0x8c>
   109e8:	e5932000 	ldr	r2, [r3]
   109ec:	e3520007 	cmp	r2, #7
   109f0:	1afffff9 	bne	109dc <__libc_setup_tls+0x34>
   109f4:	e593401c 	ldr	r4, [r3, #28]
   109f8:	e5932014 	ldr	r2, [r3, #20]
   109fc:	e1550004 	cmp	r5, r4
   10a00:	e58d2000 	str	r2, [sp]
   10a04:	e5932010 	ldr	r2, [r3, #16]
   10a08:	e5933008 	ldr	r3, [r3, #8]
   10a0c:	31a05004 	movcc	r5, r4
   10a10:	e3540000 	cmp	r4, #0
   10a14:	e58d3008 	str	r3, [sp, #8]
   10a18:	12443001 	subne	r3, r4, #1
   10a1c:	e58d2004 	str	r2, [sp, #4]
   10a20:	158d300c 	strne	r3, [sp, #12]
   10a24:	10800003 	addne	r0, r0, r3
   10a28:	158d4010 	strne	r4, [sp, #16]
   10a2c:	1a000008 	bne	10a54 <__libc_setup_tls+0xac>
   10a30:	ea000003 	b	10a44 <__libc_setup_tls+0x9c>
   10a34:	e3a03000 	mov	r3, #0
   10a38:	e58d3008 	str	r3, [sp, #8]
   10a3c:	e58d3004 	str	r3, [sp, #4]
   10a40:	e58d3000 	str	r3, [sp]
   10a44:	e3a04001 	mov	r4, #1
   10a48:	e3a03000 	mov	r3, #0
   10a4c:	e58d300c 	str	r3, [sp, #12]
   10a50:	e58d3010 	str	r3, [sp, #16]
   10a54:	e1a01004 	mov	r1, r4
   10a58:	eb01705f 	bl	6cbdc <__udivsi3>
   10a5c:	e59f3130 	ldr	r3, [pc, #304]	; 10b94 <__libc_setup_tls+0x1ec>
   10a60:	e59f9130 	ldr	r9, [pc, #304]	; 10b98 <__libc_setup_tls+0x1f0>
   10a64:	e58d3014 	str	r3, [sp, #20]
   10a68:	e5932000 	ldr	r2, [r3]
   10a6c:	e59d3000 	ldr	r3, [sp]
   10a70:	e2822d13 	add	r2, r2, #1216	; 0x4c0
   10a74:	e0822003 	add	r2, r2, r3
   10a78:	e0822005 	add	r2, r2, r5
   10a7c:	e2656000 	rsb	r6, r5, #0
   10a80:	e3a0b001 	mov	fp, #1
   10a84:	e2899008 	add	r9, r9, #8
   10a88:	e59f710c 	ldr	r7, [pc, #268]	; 10b9c <__libc_setup_tls+0x1f4>
   10a8c:	e00a0094 	mul	sl, r4, r0
   10a90:	e082000a 	add	r0, r2, sl
   10a94:	eb005d4c 	bl	27fcc <__sbrk>
   10a98:	e59f2100 	ldr	r2, [pc, #256]	; 10ba0 <__libc_setup_tls+0x1f8>
   10a9c:	e245c001 	sub	ip, r5, #1
   10aa0:	e5c9b00c 	strb	fp, [r9, #12]
   10aa4:	e5928000 	ldr	r8, [r2]
   10aa8:	e3a0203e 	mov	r2, #62	; 0x3e
   10aac:	e5092008 	str	r2, [r9, #-8]
   10ab0:	e588a23c 	str	sl, [r8, #572]	; 0x23c
   10ab4:	e59d2004 	ldr	r2, [sp, #4]
   10ab8:	e59d1008 	ldr	r1, [sp, #8]
   10abc:	e2800d13 	add	r0, r0, #1216	; 0x4c0
   10ac0:	e080000c 	add	r0, r0, ip
   10ac4:	e0066000 	and	r6, r6, r0
   10ac8:	e086c00a 	add	ip, r6, sl
   10acc:	e589c008 	str	ip, [r9, #8]
   10ad0:	e1a0000c 	mov	r0, ip
   10ad4:	eb005595 	bl	26130 <memcpy>
   10ad8:	e5869000 	str	r9, [r6]
   10adc:	e1a00006 	mov	r0, r6
   10ae0:	ef000000 	svc	0x00000000
   10ae4:	e3700a01 	cmn	r0, #4096	; 0x1000
   10ae8:	9a000001 	bls	10af4 <__libc_setup_tls+0x14c>
   10aec:	e59f00b0 	ldr	r0, [pc, #176]	; 10ba4 <__libc_setup_tls+0x1fc>
   10af0:	eb002199 	bl	1915c <__libc_fatal>
   10af4:	e59d0008 	ldr	r0, [sp, #8]
   10af8:	e59d3010 	ldr	r3, [sp, #16]
   10afc:	e5880228 	str	r0, [r8, #552]	; 0x228
   10b00:	e59d0004 	ldr	r0, [sp, #4]
   10b04:	e59f209c 	ldr	r2, [pc, #156]	; 10ba8 <__libc_setup_tls+0x200>
   10b08:	e59fc09c 	ldr	ip, [pc, #156]	; 10bac <__libc_setup_tls+0x204>
   10b0c:	e59f109c 	ldr	r1, [pc, #156]	; 10bb0 <__libc_setup_tls+0x208>
   10b10:	e5883234 	str	r3, [r8, #564]	; 0x234
   10b14:	e588022c 	str	r0, [r8, #556]	; 0x22c
   10b18:	e59d3000 	ldr	r3, [sp]
   10b1c:	e59d000c 	ldr	r0, [sp, #12]
   10b20:	e3a0e040 	mov	lr, #64	; 0x40
   10b24:	e5883230 	str	r3, [r8, #560]	; 0x230
   10b28:	e582e000 	str	lr, [r2]
   10b2c:	e58c2000 	str	r2, [ip]
   10b30:	e581b000 	str	fp, [r1]
   10b34:	e5828014 	str	r8, [r2, #20]
   10b38:	e1a01004 	mov	r1, r4
   10b3c:	e588b240 	str	fp, [r8, #576]	; 0x240
   10b40:	e0830000 	add	r0, r3, r0
   10b44:	eb017024 	bl	6cbdc <__udivsi3>
   10b48:	e59d3014 	ldr	r3, [sp, #20]
   10b4c:	e59f1060 	ldr	r1, [pc, #96]	; 10bb4 <__libc_setup_tls+0x20c>
   10b50:	e59fe060 	ldr	lr, [pc, #96]	; 10bb8 <__libc_setup_tls+0x210>
   10b54:	e5932000 	ldr	r2, [r3]
   10b58:	e59fc05c 	ldr	ip, [pc, #92]	; 10bbc <__libc_setup_tls+0x214>
   10b5c:	e282200f 	add	r2, r2, #15
   10b60:	e3550010 	cmp	r5, #16
   10b64:	33a05010 	movcc	r5, #16
   10b68:	e58e5000 	str	r5, [lr]
   10b6c:	e58cb000 	str	fp, [ip]
   10b70:	e020a490 	mla	r0, r0, r4, sl
   10b74:	e0822000 	add	r2, r2, r0
   10b78:	e3c2200f 	bic	r2, r2, #15
   10b7c:	e5810000 	str	r0, [r1]
   10b80:	e5832000 	str	r2, [r3]
   10b84:	e28dd01c 	add	sp, sp, #28
   10b88:	e8bd8ff0 	pop	{r4, r5, r6, r7, r8, r9, sl, fp, pc}
   10b8c:	00096994 	.word	0x00096994
   10b90:	000969b4 	.word	0x000969b4
   10b94:	00095088 	.word	0x00095088
   10b98:	00096730 	.word	0x00096730
   10b9c:	000f0005 	.word	0x000f0005
   10ba0:	00095c20 	.word	0x00095c20
   10ba4:	0006fba0 	.word	0x0006fba0
   10ba8:	00095eec 	.word	0x00095eec
   10bac:	00096930 	.word	0x00096930
   10bb0:	0009672c 	.word	0x0009672c
   10bb4:	00096724 	.word	0x00096724
   10bb8:	00096728 	.word	0x00096728
   10bbc:	0009693c 	.word	0x0009693c

00010bc0 <_dl_tls_setup>:
   10bc0:	e59f1054 	ldr	r1, [pc, #84]	; 10c1c <_dl_tls_setup+0x5c>
   10bc4:	e92d4070 	push	{r4, r5, r6, lr}
   10bc8:	e3a00000 	mov	r0, #0
   10bcc:	e5913000 	ldr	r3, [r1]
   10bd0:	e59f2048 	ldr	r2, [pc, #72]	; 10c20 <_dl_tls_setup+0x60>
   10bd4:	e59f6048 	ldr	r6, [pc, #72]	; 10c24 <_dl_tls_setup+0x64>
   10bd8:	e283300f 	add	r3, r3, #15
   10bdc:	e59f5044 	ldr	r5, [pc, #68]	; 10c28 <_dl_tls_setup+0x68>
   10be0:	e59f4044 	ldr	r4, [pc, #68]	; 10c2c <_dl_tls_setup+0x6c>
   10be4:	e59fe044 	ldr	lr, [pc, #68]	; 10c30 <_dl_tls_setup+0x70>
   10be8:	e59fc044 	ldr	ip, [pc, #68]	; 10c34 <_dl_tls_setup+0x74>
   10bec:	e3c3300f 	bic	r3, r3, #15
   10bf0:	e5813000 	str	r3, [r1]
   10bf4:	e3a01040 	mov	r1, #64	; 0x40
   10bf8:	e3a03001 	mov	r3, #1
   10bfc:	e5821000 	str	r1, [r2]
   10c00:	e5862000 	str	r2, [r6]
   10c04:	e3a02010 	mov	r2, #16
   10c08:	e5853000 	str	r3, [r5]
   10c0c:	e5843000 	str	r3, [r4]
   10c10:	e58e0000 	str	r0, [lr]
   10c14:	e58c2000 	str	r2, [ip]
   10c18:	e8bd8070 	pop	{r4, r5, r6, pc}
   10c1c:	00095088 	.word	0x00095088
   10c20:	00095eec 	.word	0x00095eec
   10c24:	00096930 	.word	0x00096930
   10c28:	0009672c 	.word	0x0009672c
   10c2c:	0009693c 	.word	0x0009693c
   10c30:	00096724 	.word	0x00096724
   10c34:	00096728 	.word	0x00096728

00010c38 <__pthread_initialize_minimal>:
   10c38:	e3a01010 	mov	r1, #16
   10c3c:	e3a00008 	mov	r0, #8
   10c40:	eaffff58 	b	109a8 <__libc_setup_tls>

00010c44 <__tls_get_addr>:
   10c44:	e52de004 	push	{lr}		; (str lr, [sp, #-4]!)
   10c48:	e1a03000 	mov	r3, r0
   10c4c:	eb00003b 	bl	10d40 <__aeabi_read_tp>
   10c50:	e5902000 	ldr	r2, [r0]
   10c54:	e5933004 	ldr	r3, [r3, #4]
   10c58:	e5920008 	ldr	r0, [r2, #8]
   10c5c:	e0800003 	add	r0, r0, r3
   10c60:	e49df004 	pop	{pc}		; (ldr pc, [sp], #4)

00010c64 <__libc_csu_init>:
   10c64:	e92d47f0 	push	{r4, r5, r6, r7, r8, r9, sl, lr}
   10c68:	e1a06000 	mov	r6, r0
   10c6c:	e59f907c 	ldr	r9, [pc, #124]	; 10cf0 <__libc_csu_init+0x8c>
   10c70:	e59f507c 	ldr	r5, [pc, #124]	; 10cf4 <__libc_csu_init+0x90>
   10c74:	e1a07001 	mov	r7, r1
   10c78:	e0499005 	sub	r9, r9, r5
   10c7c:	e1a08002 	mov	r8, r2
   10c80:	e1b09149 	asrs	r9, r9, #2
   10c84:	13a04000 	movne	r4, #0
   10c88:	0a000007 	beq	10cac <__libc_csu_init+0x48>
   10c8c:	e2844001 	add	r4, r4, #1
   10c90:	e4953004 	ldr	r3, [r5], #4
   10c94:	e1a02008 	mov	r2, r8
   10c98:	e1a01007 	mov	r1, r7
   10c9c:	e1a00006 	mov	r0, r6
   10ca0:	e12fff33 	blx	r3
   10ca4:	e1590004 	cmp	r9, r4
   10ca8:	1afffff7 	bne	10c8c <__libc_csu_init+0x28>
   10cac:	e59f9044 	ldr	r9, [pc, #68]	; 10cf8 <__libc_csu_init+0x94>
   10cb0:	e59f5044 	ldr	r5, [pc, #68]	; 10cfc <__libc_csu_init+0x98>
   10cb4:	ebfffd27 	bl	10158 <__rel_iplt_end>
   10cb8:	e0499005 	sub	r9, r9, r5
   10cbc:	e1b09149 	asrs	r9, r9, #2
   10cc0:	13a04000 	movne	r4, #0
   10cc4:	0a000008 	beq	10cec <__libc_csu_init+0x88>
   10cc8:	e2844001 	add	r4, r4, #1
   10ccc:	e4953004 	ldr	r3, [r5], #4
   10cd0:	e1a02008 	mov	r2, r8
   10cd4:	e1a01007 	mov	r1, r7
   10cd8:	e1a00006 	mov	r0, r6
   10cdc:	e12fff33 	blx	r3
   10ce0:	e1590004 	cmp	r9, r4
   10ce4:	1afffff7 	bne	10cc8 <__libc_csu_init+0x64>
   10ce8:	e8bd87f0 	pop	{r4, r5, r6, r7, r8, r9, sl, pc}
   10cec:	e8bd87f0 	pop	{r4, r5, r6, r7, r8, r9, sl, pc}
   10cf0:	00094f7c 	.word	0x00094f7c
   10cf4:	00094f7c 	.word	0x00094f7c
   10cf8:	00094f80 	.word	0x00094f80
   10cfc:	00094f7c 	.word	0x00094f7c

00010d00 <__libc_csu_fini>:
   10d00:	e92d4070 	push	{r4, r5, r6, lr}
   10d04:	e59f5028 	ldr	r5, [pc, #40]	; 10d34 <__libc_csu_fini+0x34>
   10d08:	e59f4028 	ldr	r4, [pc, #40]	; 10d38 <__libc_csu_fini+0x38>
   10d0c:	e0444005 	sub	r4, r4, r5
   10d10:	e1b04144 	asrs	r4, r4, #2
   10d14:	10855104 	addne	r5, r5, r4, lsl #2
   10d18:	0a000003 	beq	10d2c <__libc_csu_fini+0x2c>
   10d1c:	e5353004 	ldr	r3, [r5, #-4]!
   10d20:	e12fff33 	blx	r3
   10d24:	e2544001 	subs	r4, r4, #1
   10d28:	1afffffb 	bne	10d1c <__libc_csu_fini+0x1c>
   10d2c:	e8bd4070 	pop	{r4, r5, r6, lr}
   10d30:	ea017b5a 	b	6faa0 <_fini>
   10d34:	00094f80 	.word	0x00094f80
   10d38:	00094f88 	.word	0x00094f88
   10d3c:	00000000 	.word	0x00000000

00010d40 <__aeabi_read_tp>:
   10d40:	e3e00a0f 	mvn	r0, #61440	; 0xf000
   10d44:	e240f01f 	sub	pc, r0, #31

00010d48 <__assert_fail_base>:
   10d48:	e59fc140 	ldr	ip, [pc, #320]	; 10e90 <__assert_fail_base+0x148>
   10d4c:	e92d4080 	push	{r7, lr}
   10d50:	e24dd020 	sub	sp, sp, #32
   10d54:	e35c0000 	cmp	ip, #0
   10d58:	e1a05000 	mov	r5, r0
   10d5c:	e1a06001 	mov	r6, r1
   10d60:	e1a07002 	mov	r7, r2
   10d64:	e1a08003 	mov	r8, r3
   10d68:	e59d4028 	ldr	r4, [sp, #40]	; 0x28
   10d6c:	0a000002 	beq	10d7c <__assert_fail_base+0x34>
   10d70:	e3a01000 	mov	r1, #0
   10d74:	e3a00001 	mov	r0, #1
   10d78:	e1a00000 	nop			; (mov r0, r0)
   10d7c:	e59f3110 	ldr	r3, [pc, #272]	; 10e94 <__assert_fail_base+0x14c>
   10d80:	e59f1110 	ldr	r1, [pc, #272]	; 10e98 <__assert_fail_base+0x150>
   10d84:	e59fc110 	ldr	ip, [pc, #272]	; 10e9c <__assert_fail_base+0x154>
   10d88:	e5932000 	ldr	r2, [r3]
   10d8c:	e5d20000 	ldrb	r0, [r2]
   10d90:	e58d6010 	str	r6, [sp, #16]
   10d94:	e88d0180 	stm	sp, {r7, r8}
   10d98:	e3500000 	cmp	r0, #0
   10d9c:	11a03001 	movne	r3, r1
   10da0:	01a0300c 	moveq	r3, ip
   10da4:	e3540000 	cmp	r4, #0
   10da8:	01a0400c 	moveq	r4, ip
   10dac:	01a01004 	moveq	r1, r4
   10db0:	e28d001c 	add	r0, sp, #28
   10db4:	e58d100c 	str	r1, [sp, #12]
   10db8:	e58d0014 	str	r0, [sp, #20]
   10dbc:	e58d4008 	str	r4, [sp, #8]
   10dc0:	e1a01005 	mov	r1, r5
   10dc4:	e28d0018 	add	r0, sp, #24
   10dc8:	eb0016a8 	bl	16870 <___asprintf>
   10dcc:	e3500000 	cmp	r0, #0
   10dd0:	ba000029 	blt	10e7c <__assert_fail_base+0x134>
   10dd4:	e59d2018 	ldr	r2, [sp, #24]
   10dd8:	e59f10c0 	ldr	r1, [pc, #192]	; 10ea0 <__assert_fail_base+0x158>
   10ddc:	e3a00000 	mov	r0, #0
   10de0:	eb0016ae 	bl	168a0 <__fxprintf>
   10de4:	e59f30b8 	ldr	r3, [pc, #184]	; 10ea4 <__assert_fail_base+0x15c>
   10de8:	e5930000 	ldr	r0, [r3]
   10dec:	eb00179b 	bl	16c60 <_IO_fflush>
   10df0:	e59f30b0 	ldr	r3, [pc, #176]	; 10ea8 <__assert_fail_base+0x160>
   10df4:	e59dc01c 	ldr	ip, [sp, #28]
   10df8:	e3a00000 	mov	r0, #0
   10dfc:	e5933000 	ldr	r3, [r3]
   10e00:	e3e02000 	mvn	r2, #0
   10e04:	e083c00c 	add	ip, r3, ip
   10e08:	e2633000 	rsb	r3, r3, #0
   10e0c:	e00cc003 	and	ip, ip, r3
   10e10:	e58d2000 	str	r2, [sp]
   10e14:	e1a0100c 	mov	r1, ip
   10e18:	e58d0004 	str	r0, [sp, #4]
   10e1c:	e3a03022 	mov	r3, #34	; 0x22
   10e20:	e3a02003 	mov	r2, #3
   10e24:	e58dc01c 	str	ip, [sp, #28]
   10e28:	eb005cb0 	bl	280f0 <__mmap>
   10e2c:	e3700001 	cmn	r0, #1
   10e30:	e1a04000 	mov	r4, r0
   10e34:	0a00000d 	beq	10e70 <__assert_fail_base+0x128>
   10e38:	e59d301c 	ldr	r3, [sp, #28]
   10e3c:	e59d1018 	ldr	r1, [sp, #24]
   10e40:	e4803004 	str	r3, [r0], #4
   10e44:	eb004ed1 	bl	24990 <strcpy>
   10e48:	e59f305c 	ldr	r3, [pc, #92]	; 10eac <__assert_fail_base+0x164>
   10e4c:	e1930f9f 	ldrex	r0, [r3]
   10e50:	e1832f94 	strex	r2, r4, [r3]
   10e54:	e3520000 	cmp	r2, #0
   10e58:	1afffffb 	bne	10e4c <__assert_fail_base+0x104>
   10e5c:	e3500000 	cmp	r0, #0
   10e60:	ee070fba 	mcr	15, 0, r0, cr7, cr10, {5}
   10e64:	0a000001 	beq	10e70 <__assert_fail_base+0x128>
   10e68:	e5901000 	ldr	r1, [r0]
   10e6c:	eb005ce3 	bl	28200 <__munmap>
   10e70:	e59d0018 	ldr	r0, [sp, #24]
   10e74:	eb0047d6 	bl	22dd4 <__cfree>
   10e78:	eb001186 	bl	15498 <abort>
   10e7c:	e3a02012 	mov	r2, #18
   10e80:	e59f1028 	ldr	r1, [pc, #40]	; 10eb0 <__assert_fail_base+0x168>
   10e84:	e3a00002 	mov	r0, #2
   10e88:	eb0059c4 	bl	275a0 <__libc_write>
   10e8c:	eafffff9 	b	10e78 <__assert_fail_base+0x130>
   10e90:	00000000 	.word	0x00000000
   10e94:	00095958 	.word	0x00095958
   10e98:	0008019c 	.word	0x0008019c
   10e9c:	00080b4c 	.word	0x00080b4c
   10ea0:	00083620 	.word	0x00083620
   10ea4:	000954a4 	.word	0x000954a4
   10ea8:	00095960 	.word	0x00095960
   10eac:	000961a8 	.word	0x000961a8
   10eb0:	0006fbdc 	.word	0x0006fbdc

00010eb4 <__assert_fail>:
   10eb4:	e92d4080 	push	{r7, lr}
   10eb8:	e24dd008 	sub	sp, sp, #8
   10ebc:	e1a07003 	mov	r7, r3
   10ec0:	e1a04000 	mov	r4, r0
   10ec4:	e1a05001 	mov	r5, r1
   10ec8:	e1a06002 	mov	r6, r2
   10ecc:	e59f101c 	ldr	r1, [pc, #28]	; 10ef0 <__assert_fail+0x3c>
   10ed0:	e3a02005 	mov	r2, #5
   10ed4:	e59f0018 	ldr	r0, [pc, #24]	; 10ef4 <__assert_fail+0x40>
   10ed8:	eb000006 	bl	10ef8 <__dcgettext>
   10edc:	e58d7000 	str	r7, [sp]
   10ee0:	e1a03006 	mov	r3, r6
   10ee4:	e1a02005 	mov	r2, r5
   10ee8:	e1a01004 	mov	r1, r4
   10eec:	ebffff95 	bl	10d48 <__assert_fail_base>
   10ef0:	0006fbb0 	.word	0x0006fbb0
   10ef4:	0007e58c 	.word	0x0007e58c

00010ef8 <__dcgettext>:
   10ef8:	e52de004 	push	{lr}		; (str lr, [sp, #-4]!)
   10efc:	e24dd00c 	sub	sp, sp, #12
   10f00:	e3a03000 	mov	r3, #0
   10f04:	e58d2004 	str	r2, [sp, #4]
   10f08:	e58d3000 	str	r3, [sp]
   10f0c:	e1a02003 	mov	r2, r3
   10f10:	eb000346 	bl	11c30 <__dcigettext>
   10f14:	e28dd00c 	add	sp, sp, #12
   10f18:	e49df004 	pop	{pc}		; (ldr pc, [sp], #4)

00010f1c <plural_eval>:
   10f1c:	e92d41f0 	push	{r4, r5, r6, r7, r8, lr}
   10f20:	e1a05000 	mov	r5, r0
   10f24:	e1a04001 	mov	r4, r1
   10f28:	e5953000 	ldr	r3, [r5]
   10f2c:	e3530003 	cmp	r3, #3
   10f30:	979ff103 	ldrls	pc, [pc, r3, lsl #2]
   10f34:	ea000016 	b	10f94 <plural_eval+0x78>
   10f38:	00010fb4 	.word	0x00010fb4
   10f3c:	00010f9c 	.word	0x00010f9c
   10f40:	00010f68 	.word	0x00010f68
   10f44:	00010f48 	.word	0x00010f48
   10f48:	e5950008 	ldr	r0, [r5, #8]
   10f4c:	e1a01004 	mov	r1, r4
   10f50:	ebfffff1 	bl	10f1c <plural_eval>
   10f54:	e3500000 	cmp	r0, #0
   10f58:	13a00003 	movne	r0, #3
   10f5c:	03a00004 	moveq	r0, #4
   10f60:	e7955100 	ldr	r5, [r5, r0, lsl #2]
   10f64:	eaffffef 	b	10f28 <plural_eval+0xc>
   10f68:	e1a01004 	mov	r1, r4
   10f6c:	e5950008 	ldr	r0, [r5, #8]
   10f70:	ebffffe9 	bl	10f1c <plural_eval>
   10f74:	e5956004 	ldr	r6, [r5, #4]
   10f78:	e356000f 	cmp	r6, #15
   10f7c:	e1a07000 	mov	r7, r0
   10f80:	0a000014 	beq	10fd8 <plural_eval+0xbc>
   10f84:	e356000e 	cmp	r6, #14
   10f88:	1a00001c 	bne	11000 <plural_eval+0xe4>
   10f8c:	e3500000 	cmp	r0, #0
   10f90:	1a000014 	bne	10fe8 <plural_eval+0xcc>
   10f94:	e3a00000 	mov	r0, #0
   10f98:	e8bd81f0 	pop	{r4, r5, r6, r7, r8, pc}
   10f9c:	e1a01004 	mov	r1, r4
   10fa0:	e5950008 	ldr	r0, [r5, #8]
   10fa4:	ebffffdc 	bl	10f1c <plural_eval>
   10fa8:	e16f0f10 	clz	r0, r0
   10fac:	e1a002a0 	lsr	r0, r0, #5
   10fb0:	e8bd81f0 	pop	{r4, r5, r6, r7, r8, pc}
   10fb4:	e5953004 	ldr	r3, [r5, #4]
   10fb8:	e3530000 	cmp	r3, #0
   10fbc:	0a000003 	beq	10fd0 <plural_eval+0xb4>
   10fc0:	e3530001 	cmp	r3, #1
   10fc4:	1afffff2 	bne	10f94 <plural_eval+0x78>
   10fc8:	e5950008 	ldr	r0, [r5, #8]
   10fcc:	e8bd81f0 	pop	{r4, r5, r6, r7, r8, pc}
   10fd0:	e1a00004 	mov	r0, r4
   10fd4:	e8bd81f0 	pop	{r4, r5, r6, r7, r8, pc}
   10fd8:	e3500000 	cmp	r0, #0
   10fdc:	0a000001 	beq	10fe8 <plural_eval+0xcc>
   10fe0:	e3a00001 	mov	r0, #1
   10fe4:	e8bd81f0 	pop	{r4, r5, r6, r7, r8, pc}
   10fe8:	e1a01004 	mov	r1, r4
   10fec:	e595000c 	ldr	r0, [r5, #12]
   10ff0:	ebffffc9 	bl	10f1c <plural_eval>
   10ff4:	e2900000 	adds	r0, r0, #0
   10ff8:	13a00001 	movne	r0, #1
   10ffc:	e8bd81f0 	pop	{r4, r5, r6, r7, r8, pc}
   11000:	e1a01004 	mov	r1, r4
   11004:	e595000c 	ldr	r0, [r5, #12]
   11008:	e2466003 	sub	r6, r6, #3
   1100c:	ebffffc2 	bl	10f1c <plural_eval>
   11010:	e356000a 	cmp	r6, #10
   11014:	979ff106 	ldrls	pc, [pc, r6, lsl #2]
   11018:	eaffffdd 	b	10f94 <plural_eval+0x78>
   1101c:	000110d8 	.word	0x000110d8
   11020:	000110c8 	.word	0x000110c8
   11024:	000110b4 	.word	0x000110b4
   11028:	000110ac 	.word	0x000110ac
   1102c:	000110a4 	.word	0x000110a4
   11030:	00011094 	.word	0x00011094
   11034:	00011084 	.word	0x00011084
   11038:	00011074 	.word	0x00011074
   1103c:	00011064 	.word	0x00011064
   11040:	00011054 	.word	0x00011054
   11044:	00011048 	.word	0x00011048
   11048:	e0570000 	subs	r0, r7, r0
   1104c:	13a00001 	movne	r0, #1
   11050:	e8bd81f0 	pop	{r4, r5, r6, r7, r8, pc}
   11054:	e0470000 	sub	r0, r7, r0
   11058:	e16f0f10 	clz	r0, r0
   1105c:	e1a002a0 	lsr	r0, r0, #5
   11060:	e8bd81f0 	pop	{r4, r5, r6, r7, r8, pc}
   11064:	e1570000 	cmp	r7, r0
   11068:	33a00000 	movcc	r0, #0
   1106c:	23a00001 	movcs	r0, #1
   11070:	e8bd81f0 	pop	{r4, r5, r6, r7, r8, pc}
   11074:	e1570000 	cmp	r7, r0
   11078:	83a00000 	movhi	r0, #0
   1107c:	93a00001 	movls	r0, #1
   11080:	e8bd81f0 	pop	{r4, r5, r6, r7, r8, pc}
   11084:	e1570000 	cmp	r7, r0
   11088:	93a00000 	movls	r0, #0
   1108c:	83a00001 	movhi	r0, #1
   11090:	e8bd81f0 	pop	{r4, r5, r6, r7, r8, pc}
   11094:	e1570000 	cmp	r7, r0
   11098:	23a00000 	movcs	r0, #0
   1109c:	33a00001 	movcc	r0, #1
   110a0:	e8bd81f0 	pop	{r4, r5, r6, r7, r8, pc}
   110a4:	e0470000 	sub	r0, r7, r0
   110a8:	e8bd81f0 	pop	{r4, r5, r6, r7, r8, pc}
   110ac:	e0870000 	add	r0, r7, r0
   110b0:	e8bd81f0 	pop	{r4, r5, r6, r7, r8, pc}
   110b4:	e1a01000 	mov	r1, r0
   110b8:	e1a00007 	mov	r0, r7
   110bc:	eb016f41 	bl	6cdc8 <__aeabi_uidivmod>
   110c0:	e1a00001 	mov	r0, r1
   110c4:	e8bd81f0 	pop	{r4, r5, r6, r7, r8, pc}
   110c8:	e1a01000 	mov	r1, r0
   110cc:	e1a00007 	mov	r0, r7
   110d0:	eb016ec1 	bl	6cbdc <__udivsi3>
   110d4:	e8bd81f0 	pop	{r4, r5, r6, r7, r8, pc}
   110d8:	e0000790 	mul	r0, r0, r7
   110dc:	e8bd81f0 	pop	{r4, r5, r6, r7, r8, pc}

000110e0 <transcmp>:
   110e0:	e5903010 	ldr	r3, [r0, #16]
   110e4:	e92d4070 	push	{r4, r5, r6, lr}
   110e8:	e3530000 	cmp	r3, #0
   110ec:	e1a05000 	mov	r5, r0
   110f0:	e5913010 	ldr	r3, [r1, #16]
   110f4:	e1a04001 	mov	r4, r1
   110f8:	1280001c 	addne	r0, r0, #28
   110fc:	0595001c 	ldreq	r0, [r5, #28]
   11100:	e3530000 	cmp	r3, #0
   11104:	1281101c 	addne	r1, r1, #28
   11108:	0594101c 	ldreq	r1, [r4, #28]
   1110c:	eb004e0e 	bl	2494c <strcmp>
   11110:	e3500000 	cmp	r0, #0
   11114:	18bd8070 	popne	{r4, r5, r6, pc}
   11118:	e5941000 	ldr	r1, [r4]
   1111c:	e5950000 	ldr	r0, [r5]
   11120:	eb004e09 	bl	2494c <strcmp>
   11124:	e3500000 	cmp	r0, #0
   11128:	18bd8070 	popne	{r4, r5, r6, pc}
   1112c:	e5941008 	ldr	r1, [r4, #8]
   11130:	e5950008 	ldr	r0, [r5, #8]
   11134:	eb004e04 	bl	2494c <strcmp>
   11138:	e3500000 	cmp	r0, #0
   1113c:	05943004 	ldreq	r3, [r4, #4]
   11140:	05950004 	ldreq	r0, [r5, #4]
   11144:	00400003 	subeq	r0, r0, r3
   11148:	e8bd8070 	pop	{r4, r5, r6, pc}

0001114c <plural_lookup.isra.1>:
   1114c:	e92d41f0 	push	{r4, r5, r6, r7, r8, lr}
   11150:	e1a06000 	mov	r6, r0
   11154:	e5900060 	ldr	r0, [r0, #96]	; 0x60
   11158:	e1a05003 	mov	r5, r3
   1115c:	e1a07002 	mov	r7, r2
   11160:	ebffff6d 	bl	10f1c <plural_eval>
   11164:	e5963064 	ldr	r3, [r6, #100]	; 0x64
   11168:	e1500003 	cmp	r0, r3
   1116c:	2a00000b 	bcs	111a0 <plural_lookup.isra.1+0x54>
   11170:	e1a04000 	mov	r4, r0
   11174:	e0875005 	add	r5, r7, r5
   11178:	e1a02007 	mov	r2, r7
   1117c:	e3a06000 	mov	r6, #0
   11180:	e2544001 	subs	r4, r4, #1
   11184:	e1a00002 	mov	r0, r2
   11188:	e1a01006 	mov	r1, r6
   1118c:	3a000005 	bcc	111a8 <plural_lookup.isra.1+0x5c>
   11190:	eb0054b2 	bl	26460 <__rawmemchr>
   11194:	e2802001 	add	r2, r0, #1
   11198:	e1520005 	cmp	r2, r5
   1119c:	3afffff7 	bcc	11180 <plural_lookup.isra.1+0x34>
   111a0:	e1a00007 	mov	r0, r7
   111a4:	e8bd81f0 	pop	{r4, r5, r6, r7, r8, pc}
   111a8:	e8bd81f0 	pop	{r4, r5, r6, r7, r8, pc}

000111ac <_nl_find_msg>:
   111ac:	e92d4ff0 	push	{r4, r5, r6, r7, r8, r9, sl, fp, lr}
   111b0:	e1a08002 	mov	r8, r2
   111b4:	e28db020 	add	fp, sp, #32
   111b8:	e24dd03c 	sub	sp, sp, #60	; 0x3c
   111bc:	e5902004 	ldr	r2, [r0, #4]
   111c0:	e50b0048 	str	r0, [fp, #-72]	; 0xffffffb8
   111c4:	e3520000 	cmp	r2, #0
   111c8:	e50b304c 	str	r3, [fp, #-76]	; 0xffffffb4
   111cc:	e50b1050 	str	r1, [fp, #-80]	; 0xffffffb0
   111d0:	da0000c7 	ble	114f4 <_nl_find_msg+0x348>
   111d4:	e51b3048 	ldr	r3, [fp, #-72]	; 0xffffffb8
   111d8:	e5936008 	ldr	r6, [r3, #8]
   111dc:	e3560000 	cmp	r6, #0
   111e0:	0a00005e 	beq	11360 <_nl_find_msg+0x1b4>
   111e4:	e5963030 	ldr	r3, [r6, #48]	; 0x30
   111e8:	e5967014 	ldr	r7, [r6, #20]
   111ec:	e3530000 	cmp	r3, #0
   111f0:	01a05003 	moveq	r5, r3
   111f4:	050b703c 	streq	r7, [fp, #-60]	; 0xffffffc4
   111f8:	050b8038 	streq	r8, [fp, #-56]	; 0xffffffc8
   111fc:	0a000044 	beq	11314 <_nl_find_msg+0x168>
   11200:	e1a00008 	mov	r0, r8
   11204:	eb004ed5 	bl	24d60 <strlen>
   11208:	e1a0a000 	mov	sl, r0
   1120c:	e1a00008 	mov	r0, r8
   11210:	eb001091 	bl	1545c <__hash_string>
   11214:	e596402c 	ldr	r4, [r6, #44]	; 0x2c
   11218:	e1a01004 	mov	r1, r4
   1121c:	e1a09000 	mov	r9, r0
   11220:	eb016ee8 	bl	6cdc8 <__aeabi_uidivmod>
   11224:	e1a00009 	mov	r0, r9
   11228:	e1a05001 	mov	r5, r1
   1122c:	e2441002 	sub	r1, r4, #2
   11230:	eb016ee4 	bl	6cdc8 <__aeabi_uidivmod>
   11234:	e5963034 	ldr	r3, [r6, #52]	; 0x34
   11238:	e5969030 	ldr	r9, [r6, #48]	; 0x30
   1123c:	e2812001 	add	r2, r1, #1
   11240:	e1a01002 	mov	r1, r2
   11244:	e0411004 	sub	r1, r1, r4
   11248:	e50b103c 	str	r1, [fp, #-60]	; 0xffffffc4
   1124c:	e1a01008 	mov	r1, r8
   11250:	e50b2038 	str	r2, [fp, #-56]	; 0xffffffc8
   11254:	e1a08003 	mov	r8, r3
   11258:	e0442002 	sub	r2, r4, r2
   1125c:	e1a03001 	mov	r3, r1
   11260:	ea000018 	b	112c8 <_nl_find_msg+0x11c>
   11264:	e596100c 	ldr	r1, [r6, #12]
   11268:	e3510000 	cmp	r1, #0
   1126c:	e5961018 	ldr	r1, [r6, #24]
   11270:	e0810184 	add	r0, r1, r4, lsl #3
   11274:	e7911184 	ldr	r1, [r1, r4, lsl #3]
   11278:	0a00003c 	beq	11370 <_nl_find_msg+0x1c4>
   1127c:	e6bf1f31 	rev	r1, r1
   11280:	e15a0001 	cmp	sl, r1
   11284:	8a00000b 	bhi	112b8 <_nl_find_msg+0x10c>
   11288:	e5900004 	ldr	r0, [r0, #4]
   1128c:	e596c000 	ldr	ip, [r6]
   11290:	e6bf1f30 	rev	r1, r0
   11294:	e08c1001 	add	r1, ip, r1
   11298:	e50b2044 	str	r2, [fp, #-68]	; 0xffffffbc
   1129c:	e1a00003 	mov	r0, r3
   112a0:	e50b3040 	str	r3, [fp, #-64]	; 0xffffffc0
   112a4:	eb004da8 	bl	2494c <strcmp>
   112a8:	e51b3040 	ldr	r3, [fp, #-64]	; 0xffffffc0
   112ac:	e51b2044 	ldr	r2, [fp, #-68]	; 0xffffffbc
   112b0:	e3500000 	cmp	r0, #0
   112b4:	0a000033 	beq	11388 <_nl_find_msg+0x1dc>
   112b8:	e1550002 	cmp	r5, r2
   112bc:	251b103c 	ldrcs	r1, [fp, #-60]	; 0xffffffc4
   112c0:	351b1038 	ldrcc	r1, [fp, #-56]	; 0xffffffc8
   112c4:	e0855001 	add	r5, r5, r1
   112c8:	e7994105 	ldr	r4, [r9, r5, lsl #2]
   112cc:	e3580000 	cmp	r8, #0
   112d0:	16bf4f34 	revne	r4, r4
   112d4:	e3540000 	cmp	r4, #0
   112d8:	0a000020 	beq	11360 <_nl_find_msg+0x1b4>
   112dc:	e2444001 	sub	r4, r4, #1
   112e0:	e1570004 	cmp	r7, r4
   112e4:	8affffde 	bhi	11264 <_nl_find_msg+0xb8>
   112e8:	e5961024 	ldr	r1, [r6, #36]	; 0x24
   112ec:	e0440007 	sub	r0, r4, r7
   112f0:	e791c180 	ldr	ip, [r1, r0, lsl #3]
   112f4:	e0811180 	add	r1, r1, r0, lsl #3
   112f8:	e15a000c 	cmp	sl, ip
   112fc:	2affffed 	bcs	112b8 <_nl_find_msg+0x10c>
   11300:	e50b2044 	str	r2, [fp, #-68]	; 0xffffffbc
   11304:	e5911004 	ldr	r1, [r1, #4]
   11308:	eaffffe3 	b	1129c <_nl_find_msg+0xf0>
   1130c:	0a00001c 	beq	11384 <_nl_find_msg+0x1d8>
   11310:	e2845001 	add	r5, r4, #1
   11314:	e1550007 	cmp	r5, r7
   11318:	2a000010 	bcs	11360 <_nl_find_msg+0x1b4>
   1131c:	e5968000 	ldr	r8, [r6]
   11320:	e596900c 	ldr	r9, [r6, #12]
   11324:	e596a018 	ldr	sl, [r6, #24]
   11328:	e0854007 	add	r4, r5, r7
   1132c:	e3590000 	cmp	r9, #0
   11330:	e1a040a4 	lsr	r4, r4, #1
   11334:	e51b0038 	ldr	r0, [fp, #-56]	; 0xffffffc8
   11338:	e08a3184 	add	r3, sl, r4, lsl #3
   1133c:	e5931004 	ldr	r1, [r3, #4]
   11340:	16bf1f31 	revne	r1, r1
   11344:	e0881001 	add	r1, r8, r1
   11348:	eb004d7f 	bl	2494c <strcmp>
   1134c:	e3500000 	cmp	r0, #0
   11350:	aaffffed 	bge	1130c <_nl_find_msg+0x160>
   11354:	e1550004 	cmp	r5, r4
   11358:	e1a07004 	mov	r7, r4
   1135c:	3afffff1 	bcc	11328 <_nl_find_msg+0x17c>
   11360:	e3a05000 	mov	r5, #0
   11364:	e1a00005 	mov	r0, r5
   11368:	e24bd020 	sub	sp, fp, #32
   1136c:	e8bd8ff0 	pop	{r4, r5, r6, r7, r8, r9, sl, fp, pc}
   11370:	e15a0001 	cmp	sl, r1
   11374:	8affffcf 	bhi	112b8 <_nl_find_msg+0x10c>
   11378:	e5901004 	ldr	r1, [r0, #4]
   1137c:	e596c000 	ldr	ip, [r6]
   11380:	eaffffc3 	b	11294 <_nl_find_msg+0xe8>
   11384:	e51b703c 	ldr	r7, [fp, #-60]	; 0xffffffc4
   11388:	e1540007 	cmp	r4, r7
   1138c:	2a000042 	bcs	1149c <_nl_find_msg+0x2f0>
   11390:	e596300c 	ldr	r3, [r6, #12]
   11394:	e5965000 	ldr	r5, [r6]
   11398:	e3530000 	cmp	r3, #0
   1139c:	e596301c 	ldr	r3, [r6, #28]
   113a0:	0a00004c 	beq	114d8 <_nl_find_msg+0x32c>
   113a4:	e0832184 	add	r2, r3, r4, lsl #3
   113a8:	e7933184 	ldr	r3, [r3, r4, lsl #3]
   113ac:	e5922004 	ldr	r2, [r2, #4]
   113b0:	e6bf3f33 	rev	r3, r3
   113b4:	e2833001 	add	r3, r3, #1
   113b8:	e50b3038 	str	r3, [fp, #-56]	; 0xffffffc8
   113bc:	e51b304c 	ldr	r3, [fp, #-76]	; 0xffffffb4
   113c0:	e6bf2f32 	rev	r2, r2
   113c4:	e3530000 	cmp	r3, #0
   113c8:	e0855002 	add	r5, r5, r2
   113cc:	0a00003b 	beq	114c0 <_nl_find_msg+0x314>
   113d0:	e51b3050 	ldr	r3, [fp, #-80]	; 0xffffffb0
   113d4:	e3530000 	cmp	r3, #0
   113d8:	0a00006d 	beq	11594 <_nl_find_msg+0x3e8>
   113dc:	e5939008 	ldr	r9, [r3, #8]
   113e0:	e3590000 	cmp	r9, #0
   113e4:	0a00006a 	beq	11594 <_nl_find_msg+0x3e8>
   113e8:	e59f380c 	ldr	r3, [pc, #2060]	; 11bfc <_nl_find_msg+0xa50>
   113ec:	e3530000 	cmp	r3, #0
   113f0:	0a000001 	beq	113fc <_nl_find_msg+0x250>
   113f4:	e2860040 	add	r0, r6, #64	; 0x40
   113f8:	e1a00000 	nop			; (mov r0, r0)
   113fc:	e596a03c 	ldr	sl, [r6, #60]	; 0x3c
   11400:	e35a0000 	cmp	sl, #0
   11404:	0a00003c 	beq	114fc <_nl_find_msg+0x350>
   11408:	e08a308a 	add	r3, sl, sl, lsl #1
   1140c:	e5962038 	ldr	r2, [r6, #56]	; 0x38
   11410:	e0823103 	add	r3, r2, r3, lsl #2
   11414:	ea000001 	b	11420 <_nl_find_msg+0x274>
   11418:	e35a0000 	cmp	sl, #0
   1141c:	0a000036 	beq	114fc <_nl_find_msg+0x350>
   11420:	e513000c 	ldr	r0, [r3, #-12]
   11424:	e1a01009 	mov	r1, r9
   11428:	e243800c 	sub	r8, r3, #12
   1142c:	eb004d46 	bl	2494c <strcmp>
   11430:	e24aa001 	sub	sl, sl, #1
   11434:	e1a03008 	mov	r3, r8
   11438:	e3500000 	cmp	r0, #0
   1143c:	1afffff5 	bne	11418 <_nl_find_msg+0x26c>
   11440:	e59f37b8 	ldr	r3, [pc, #1976]	; 11c00 <_nl_find_msg+0xa54>
   11444:	e3530000 	cmp	r3, #0
   11448:	e50b303c 	str	r3, [fp, #-60]	; 0xffffffc4
   1144c:	0a000001 	beq	11458 <_nl_find_msg+0x2ac>
   11450:	e2860040 	add	r0, r6, #64	; 0x40
   11454:	e1a00000 	nop			; (mov r0, r0)
   11458:	e3580000 	cmp	r8, #0
   1145c:	0a00002b 	beq	11510 <_nl_find_msg+0x364>
   11460:	e5983004 	ldr	r3, [r8, #4]
   11464:	e3730001 	cmn	r3, #1
   11468:	0a000014 	beq	114c0 <_nl_find_msg+0x314>
   1146c:	e5983008 	ldr	r3, [r8, #8]
   11470:	e3530000 	cmp	r3, #0
   11474:	0a000066 	beq	11614 <_nl_find_msg+0x468>
   11478:	e3730001 	cmn	r3, #1
   1147c:	0a000057 	beq	115e0 <_nl_find_msg+0x434>
   11480:	e7933104 	ldr	r3, [r3, r4, lsl #2]
   11484:	e3530000 	cmp	r3, #0
   11488:	0a000114 	beq	118e0 <_nl_find_msg+0x734>
   1148c:	e5932000 	ldr	r2, [r3]
   11490:	e2835004 	add	r5, r3, #4
   11494:	e50b2038 	str	r2, [fp, #-56]	; 0xffffffc8
   11498:	ea000008 	b	114c0 <_nl_find_msg+0x314>
   1149c:	e0443007 	sub	r3, r4, r7
   114a0:	e5962028 	ldr	r2, [r6, #40]	; 0x28
   114a4:	e0821183 	add	r1, r2, r3, lsl #3
   114a8:	e7923183 	ldr	r3, [r2, r3, lsl #3]
   114ac:	e5915004 	ldr	r5, [r1, #4]
   114b0:	e50b3038 	str	r3, [fp, #-56]	; 0xffffffc8
   114b4:	e51b304c 	ldr	r3, [fp, #-76]	; 0xffffffb4
   114b8:	e3530000 	cmp	r3, #0
   114bc:	1affffc3 	bne	113d0 <_nl_find_msg+0x224>
   114c0:	e59b3004 	ldr	r3, [fp, #4]
   114c4:	e51b2038 	ldr	r2, [fp, #-56]	; 0xffffffc8
   114c8:	e1a00005 	mov	r0, r5
   114cc:	e5832000 	str	r2, [r3]
   114d0:	e24bd020 	sub	sp, fp, #32
   114d4:	e8bd8ff0 	pop	{r4, r5, r6, r7, r8, r9, sl, fp, pc}
   114d8:	e0831184 	add	r1, r3, r4, lsl #3
   114dc:	e7932184 	ldr	r2, [r3, r4, lsl #3]
   114e0:	e5913004 	ldr	r3, [r1, #4]
   114e4:	e2822001 	add	r2, r2, #1
   114e8:	e50b2038 	str	r2, [fp, #-56]	; 0xffffffc8
   114ec:	e0855003 	add	r5, r5, r3
   114f0:	eaffffef 	b	114b4 <_nl_find_msg+0x308>
   114f4:	eb000477 	bl	126d8 <_nl_load_domain>
   114f8:	eaffff35 	b	111d4 <_nl_find_msg+0x28>
   114fc:	e59f36fc 	ldr	r3, [pc, #1788]	; 11c00 <_nl_find_msg+0xa54>
   11500:	e3530000 	cmp	r3, #0
   11504:	e50b303c 	str	r3, [fp, #-60]	; 0xffffffc4
   11508:	13a08000 	movne	r8, #0
   1150c:	1affffcf 	bne	11450 <_nl_find_msg+0x2a4>
   11510:	e59f36ec 	ldr	r3, [pc, #1772]	; 11c04 <_nl_find_msg+0xa58>
   11514:	e3530000 	cmp	r3, #0
   11518:	0a000001 	beq	11524 <_nl_find_msg+0x378>
   1151c:	e2860040 	add	r0, r6, #64	; 0x40
   11520:	e1a00000 	nop			; (mov r0, r0)
   11524:	e596303c 	ldr	r3, [r6, #60]	; 0x3c
   11528:	e3530000 	cmp	r3, #0
   1152c:	e50b3040 	str	r3, [fp, #-64]	; 0xffffffc0
   11530:	e5963038 	ldr	r3, [r6, #56]	; 0x38
   11534:	050b3044 	streq	r3, [fp, #-68]	; 0xffffffbc
   11538:	0a000053 	beq	1168c <_nl_find_msg+0x4e0>
   1153c:	e51ba040 	ldr	sl, [fp, #-64]	; 0xffffffc0
   11540:	e1a02003 	mov	r2, r3
   11544:	e50b3044 	str	r3, [fp, #-68]	; 0xffffffbc
   11548:	e08a308a 	add	r3, sl, sl, lsl #1
   1154c:	e0823103 	add	r3, r2, r3, lsl #2
   11550:	ea000001 	b	1155c <_nl_find_msg+0x3b0>
   11554:	e35a0000 	cmp	sl, #0
   11558:	0a00004b 	beq	1168c <_nl_find_msg+0x4e0>
   1155c:	e513000c 	ldr	r0, [r3, #-12]
   11560:	e1a01009 	mov	r1, r9
   11564:	e243800c 	sub	r8, r3, #12
   11568:	eb004cf7 	bl	2494c <strcmp>
   1156c:	e24aa001 	sub	sl, sl, #1
   11570:	e1a03008 	mov	r3, r8
   11574:	e3500000 	cmp	r0, #0
   11578:	1afffff5 	bne	11554 <_nl_find_msg+0x3a8>
   1157c:	e51b303c 	ldr	r3, [fp, #-60]	; 0xffffffc4
   11580:	e3530000 	cmp	r3, #0
   11584:	0affffb5 	beq	11460 <_nl_find_msg+0x2b4>
   11588:	e2860040 	add	r0, r6, #64	; 0x40
   1158c:	e1a00000 	nop			; (mov r0, r0)
   11590:	eaffffb2 	b	11460 <_nl_find_msg+0x2b4>
   11594:	e59fa66c 	ldr	sl, [pc, #1644]	; 11c08 <_nl_find_msg+0xa5c>
   11598:	e59a3008 	ldr	r3, [sl, #8]
   1159c:	e3530000 	cmp	r3, #0
   115a0:	0a000010 	beq	115e8 <_nl_find_msg+0x43c>
   115a4:	e59a900c 	ldr	r9, [sl, #12]
   115a8:	e3590000 	cmp	r9, #0
   115ac:	1affff8d 	bne	113e8 <_nl_find_msg+0x23c>
   115b0:	e59f3654 	ldr	r3, [pc, #1620]	; 11c0c <_nl_find_msg+0xa60>
   115b4:	ebfffde1 	bl	10d40 <__aeabi_read_tp>
   115b8:	e79f3003 	ldr	r3, [pc, r3]
   115bc:	e7903003 	ldr	r3, [r0, r3]
   115c0:	e5933000 	ldr	r3, [r3]
   115c4:	e593905c 	ldr	r9, [r3, #92]	; 0x5c
   115c8:	eaffff86 	b	113e8 <_nl_find_msg+0x23c>
   115cc:	e51b303c 	ldr	r3, [fp, #-60]	; 0xffffffc4
   115d0:	e3530000 	cmp	r3, #0
   115d4:	0a000001 	beq	115e0 <_nl_find_msg+0x434>
   115d8:	e2860040 	add	r0, r6, #64	; 0x40
   115dc:	e1a00000 	nop			; (mov r0, r0)
   115e0:	e3e05000 	mvn	r5, #0
   115e4:	eaffff5e 	b	11364 <_nl_find_msg+0x1b8>
   115e8:	e59f0620 	ldr	r0, [pc, #1568]	; 11c10 <_nl_find_msg+0xa64>
   115ec:	eb00119b 	bl	15c60 <getenv>
   115f0:	e2508000 	subs	r8, r0, #0
   115f4:	0a000002 	beq	11604 <_nl_find_msg+0x458>
   115f8:	e5d83000 	ldrb	r3, [r8]
   115fc:	e3530000 	cmp	r3, #0
   11600:	1a00011a 	bne	11a70 <_nl_find_msg+0x8c4>
   11604:	e59a900c 	ldr	r9, [sl, #12]
   11608:	e3a03001 	mov	r3, #1
   1160c:	e58a3008 	str	r3, [sl, #8]
   11610:	eaffffe4 	b	115a8 <_nl_find_msg+0x3fc>
   11614:	e50b3028 	str	r3, [fp, #-40]	; 0xffffffd8
   11618:	e59f35f4 	ldr	r3, [pc, #1524]	; 11c14 <_nl_find_msg+0xa68>
   1161c:	e3a02001 	mov	r2, #1
   11620:	e1a00003 	mov	r0, r3
   11624:	e1a01003 	mov	r1, r3
   11628:	e50b303c 	str	r3, [fp, #-60]	; 0xffffffc4
   1162c:	e1913f9f 	ldrex	r3, [r1]
   11630:	e3530000 	cmp	r3, #0
   11634:	1a000003 	bne	11648 <_nl_find_msg+0x49c>
   11638:	e181cf92 	strex	ip, r2, [r1]
   1163c:	e35c0000 	cmp	ip, #0
   11640:	1afffff9 	bne	1162c <_nl_find_msg+0x480>
   11644:	ee070fba 	mcr	15, 0, r0, cr7, cr10, {5}
   11648:	0a000001 	beq	11654 <_nl_find_msg+0x4a8>
   1164c:	e50b3028 	str	r3, [fp, #-40]	; 0xffffffd8
   11650:	eb005f35 	bl	2932c <__lll_lock_wait_private>
   11654:	e5983008 	ldr	r3, [r8, #8]
   11658:	e3530000 	cmp	r3, #0
   1165c:	0a00010f 	beq	11aa0 <_nl_find_msg+0x8f4>
   11660:	e3a03000 	mov	r3, #0
   11664:	e51b103c 	ldr	r1, [fp, #-60]	; 0xffffffc4
   11668:	ee070fba 	mcr	15, 0, r0, cr7, cr10, {5}
   1166c:	e1912f9f 	ldrex	r2, [r1]
   11670:	e1810f93 	strex	r0, r3, [r1]
   11674:	e3500000 	cmp	r0, #0
   11678:	1afffffb 	bne	1166c <_nl_find_msg+0x4c0>
   1167c:	e3520001 	cmp	r2, #1
   11680:	ca000125 	bgt	11b1c <_nl_find_msg+0x970>
   11684:	e5983008 	ldr	r3, [r8, #8]
   11688:	eaffff7a 	b	11478 <_nl_find_msg+0x2cc>
   1168c:	e51b3044 	ldr	r3, [fp, #-68]	; 0xffffffbc
   11690:	e3530000 	cmp	r3, #0
   11694:	0a00010b 	beq	11ac8 <_nl_find_msg+0x91c>
   11698:	e51b2040 	ldr	r2, [fp, #-64]	; 0xffffffc0
   1169c:	e1a00003 	mov	r0, r3
   116a0:	e2821001 	add	r1, r2, #1
   116a4:	e0811081 	add	r1, r1, r1, lsl #1
   116a8:	e1a01101 	lsl	r1, r1, #2
   116ac:	eb0045fc 	bl	22ea4 <__libc_realloc>
   116b0:	e1a02000 	mov	r2, r0
   116b4:	e3520000 	cmp	r2, #0
   116b8:	0affffc3 	beq	115cc <_nl_find_msg+0x420>
   116bc:	e1a00009 	mov	r0, r9
   116c0:	e5862038 	str	r2, [r6, #56]	; 0x38
   116c4:	e50b2044 	str	r2, [fp, #-68]	; 0xffffffbc
   116c8:	eb004d97 	bl	24d2c <__strdup>
   116cc:	e2509000 	subs	r9, r0, #0
   116d0:	0affffbd 	beq	115cc <_nl_find_msg+0x420>
   116d4:	e51b3040 	ldr	r3, [fp, #-64]	; 0xffffffc0
   116d8:	e51b2044 	ldr	r2, [fp, #-68]	; 0xffffffbc
   116dc:	e3e0c000 	mvn	ip, #0
   116e0:	e0833083 	add	r3, r3, r3, lsl #1
   116e4:	e51b1050 	ldr	r1, [fp, #-80]	; 0xffffffb0
   116e8:	e1a03103 	lsl	r3, r3, #2
   116ec:	e0828003 	add	r8, r2, r3
   116f0:	e7829003 	str	r9, [r2, r3]
   116f4:	e24b2028 	sub	r2, fp, #40	; 0x28
   116f8:	e588c004 	str	ip, [r8, #4]
   116fc:	e51b0048 	ldr	r0, [fp, #-72]	; 0xffffffb8
   11700:	e58d2000 	str	r2, [sp]
   11704:	e3a03000 	mov	r3, #0
   11708:	e59f2508 	ldr	r2, [pc, #1288]	; 11c18 <_nl_find_msg+0xa6c>
   1170c:	ebfffea6 	bl	111ac <_nl_find_msg>
   11710:	e3700001 	cmn	r0, #1
   11714:	0affffb1 	beq	115e0 <_nl_find_msg+0x434>
   11718:	e3500000 	cmp	r0, #0
   1171c:	0a000069 	beq	118c8 <_nl_find_msg+0x71c>
   11720:	e59f14f4 	ldr	r1, [pc, #1268]	; 11c1c <_nl_find_msg+0xa70>
   11724:	eb004f2f 	bl	253e8 <strstr>
   11728:	e3500000 	cmp	r0, #0
   1172c:	0a000065 	beq	118c8 <_nl_find_msg+0x71c>
   11730:	e280a008 	add	sl, r0, #8
   11734:	e59f14e4 	ldr	r1, [pc, #1252]	; 11c20 <_nl_find_msg+0xa74>
   11738:	e1a0000a 	mov	r0, sl
   1173c:	eb004d28 	bl	24be4 <strcspn>
   11740:	e1a0100a 	mov	r1, sl
   11744:	e280200f 	add	r2, r0, #15
   11748:	e3c22007 	bic	r2, r2, #7
   1174c:	e04dd002 	sub	sp, sp, r2
   11750:	e1a03000 	mov	r3, r0
   11754:	e28d2008 	add	r2, sp, #8
   11758:	e50b2040 	str	r2, [fp, #-64]	; 0xffffffc0
   1175c:	e1a00002 	mov	r0, r2
   11760:	e1a02003 	mov	r2, r3
   11764:	e50b3044 	str	r3, [fp, #-68]	; 0xffffffbc
   11768:	eb005270 	bl	26130 <memcpy>
   1176c:	e51b3044 	ldr	r3, [fp, #-68]	; 0xffffffbc
   11770:	e3a0c000 	mov	ip, #0
   11774:	e1a01009 	mov	r1, r9
   11778:	e1a02009 	mov	r2, r9
   1177c:	e7c0c003 	strb	ip, [r0, r3]
   11780:	ea000002 	b	11790 <_nl_find_msg+0x5e4>
   11784:	e350002f 	cmp	r0, #47	; 0x2f
   11788:	e1a02003 	mov	r2, r3
   1178c:	028cc001 	addeq	ip, ip, #1
   11790:	e1a03002 	mov	r3, r2
   11794:	e4d30001 	ldrb	r0, [r3], #1
   11798:	e3500000 	cmp	r0, #0
   1179c:	1afffff8 	bne	11784 <_nl_find_msg+0x5d8>
   117a0:	e0423009 	sub	r3, r2, r9
   117a4:	e2833019 	add	r3, r3, #25
   117a8:	e5d92000 	ldrb	r2, [r9]
   117ac:	e3c33007 	bic	r3, r3, #7
   117b0:	e04dd003 	sub	sp, sp, r3
   117b4:	e28d3008 	add	r3, sp, #8
   117b8:	e3520000 	cmp	r2, #0
   117bc:	e50b3044 	str	r3, [fp, #-68]	; 0xffffffbc
   117c0:	0a0000c7 	beq	11ae4 <_nl_find_msg+0x938>
   117c4:	e59f0458 	ldr	r0, [pc, #1112]	; 11c24 <_nl_find_msg+0xa78>
   117c8:	e590e03c 	ldr	lr, [r0, #60]	; 0x3c
   117cc:	e79e0102 	ldr	r0, [lr, r2, lsl #2]
   117d0:	e5f12001 	ldrb	r2, [r1, #1]!
   117d4:	e4c30001 	strb	r0, [r3], #1
   117d8:	e3520000 	cmp	r2, #0
   117dc:	1afffffa 	bne	117cc <_nl_find_msg+0x620>
   117e0:	e35c0001 	cmp	ip, #1
   117e4:	8a000009 	bhi	11810 <_nl_find_msg+0x664>
   117e8:	e35c0000 	cmp	ip, #0
   117ec:	e3a0102f 	mov	r1, #47	; 0x2f
   117f0:	059f2430 	ldreq	r2, [pc, #1072]	; 11c28 <_nl_find_msg+0xa7c>
   117f4:	e5c31000 	strb	r1, [r3]
   117f8:	05c31001 	strbeq	r1, [r3, #1]
   117fc:	08b20003 	ldmeq	r2!, {r0, r1}
   11800:	12833001 	addne	r3, r3, #1
   11804:	05830002 	streq	r0, [r3, #2]
   11808:	05831006 	streq	r1, [r3, #6]
   1180c:	0283300a 	addeq	r3, r3, #10
   11810:	e51b2040 	ldr	r2, [fp, #-64]	; 0xffffffc0
   11814:	e3a0c000 	mov	ip, #0
   11818:	e5c3c000 	strb	ip, [r3]
   1181c:	e1a01002 	mov	r1, r2
   11820:	ea000002 	b	11830 <_nl_find_msg+0x684>
   11824:	e350002f 	cmp	r0, #47	; 0x2f
   11828:	e1a02003 	mov	r2, r3
   1182c:	028cc001 	addeq	ip, ip, #1
   11830:	e1a03002 	mov	r3, r2
   11834:	e4d30001 	ldrb	r0, [r3], #1
   11838:	e3500000 	cmp	r0, #0
   1183c:	1afffff8 	bne	11824 <_nl_find_msg+0x678>
   11840:	e51b3040 	ldr	r3, [fp, #-64]	; 0xffffffc0
   11844:	e0422003 	sub	r2, r2, r3
   11848:	e5d33000 	ldrb	r3, [r3]
   1184c:	e2822011 	add	r2, r2, #17
   11850:	e3c22007 	bic	r2, r2, #7
   11854:	e04dd002 	sub	sp, sp, r2
   11858:	e3530000 	cmp	r3, #0
   1185c:	e28da008 	add	sl, sp, #8
   11860:	0a0000ab 	beq	11b14 <_nl_find_msg+0x968>
   11864:	e59f03b8 	ldr	r0, [pc, #952]	; 11c24 <_nl_find_msg+0xa78>
   11868:	e1a0200a 	mov	r2, sl
   1186c:	e590e03c 	ldr	lr, [r0, #60]	; 0x3c
   11870:	e79e0103 	ldr	r0, [lr, r3, lsl #2]
   11874:	e5f13001 	ldrb	r3, [r1, #1]!
   11878:	e4c20001 	strb	r0, [r2], #1
   1187c:	e3530000 	cmp	r3, #0
   11880:	1afffffa 	bne	11870 <_nl_find_msg+0x6c4>
   11884:	e35c0001 	cmp	ip, #1
   11888:	8a000005 	bhi	118a4 <_nl_find_msg+0x6f8>
   1188c:	e35c0000 	cmp	ip, #0
   11890:	e3a0302f 	mov	r3, #47	; 0x2f
   11894:	e5c23000 	strb	r3, [r2]
   11898:	05c23001 	strbeq	r3, [r2, #1]
   1189c:	12822001 	addne	r2, r2, #1
   118a0:	02822002 	addeq	r2, r2, #2
   118a4:	e3a0c000 	mov	ip, #0
   118a8:	e5c2c000 	strb	ip, [r2]
   118ac:	e1a0100a 	mov	r1, sl
   118b0:	e51b0044 	ldr	r0, [fp, #-68]	; 0xffffffbc
   118b4:	e3a03001 	mov	r3, #1
   118b8:	e2882004 	add	r2, r8, #4
   118bc:	eb0064b4 	bl	2ab94 <__gconv_open>
   118c0:	e3500000 	cmp	r0, #0
   118c4:	1a000088 	bne	11aec <_nl_find_msg+0x940>
   118c8:	e596303c 	ldr	r3, [r6, #60]	; 0x3c
   118cc:	e3a02000 	mov	r2, #0
   118d0:	e2833001 	add	r3, r3, #1
   118d4:	e5882008 	str	r2, [r8, #8]
   118d8:	e586303c 	str	r3, [r6, #60]	; 0x3c
   118dc:	eaffff26 	b	1157c <_nl_find_msg+0x3d0>
   118e0:	e50b3028 	str	r3, [fp, #-40]	; 0xffffffd8
   118e4:	e59f3328 	ldr	r3, [pc, #808]	; 11c14 <_nl_find_msg+0xa68>
   118e8:	e3a02001 	mov	r2, #1
   118ec:	e1a00003 	mov	r0, r3
   118f0:	e1a01003 	mov	r1, r3
   118f4:	e50b303c 	str	r3, [fp, #-60]	; 0xffffffc4
   118f8:	e1913f9f 	ldrex	r3, [r1]
   118fc:	e3530000 	cmp	r3, #0
   11900:	1a000003 	bne	11914 <_nl_find_msg+0x768>
   11904:	e181cf92 	strex	ip, r2, [r1]
   11908:	e35c0000 	cmp	ip, #0
   1190c:	1afffff9 	bne	118f8 <_nl_find_msg+0x74c>
   11910:	ee070fba 	mcr	15, 0, r0, cr7, cr10, {5}
   11914:	0a000001 	beq	11920 <_nl_find_msg+0x774>
   11918:	e50b3028 	str	r3, [fp, #-40]	; 0xffffffd8
   1191c:	eb005e82 	bl	2932c <__lll_lock_wait_private>
   11920:	e59fa2e0 	ldr	sl, [pc, #736]	; 11c08 <_nl_find_msg+0xa5c>
   11924:	e24b3024 	sub	r3, fp, #36	; 0x24
   11928:	e1a01003 	mov	r1, r3
   1192c:	e59a2014 	ldr	r2, [sl, #20]
   11930:	e59a3018 	ldr	r3, [sl, #24]
   11934:	e2822004 	add	r2, r2, #4
   11938:	e5212008 	str	r2, [r1, #-8]!
   1193c:	e3a06000 	mov	r6, #0
   11940:	e50b5030 	str	r5, [fp, #-48]	; 0xffffffd0
   11944:	e50b1040 	str	r1, [fp, #-64]	; 0xffffffc0
   11948:	ea000012 	b	11998 <_nl_find_msg+0x7ec>
   1194c:	e3560000 	cmp	r6, #0
   11950:	e2866001 	add	r6, r6, #1
   11954:	0a000024 	beq	119ec <_nl_find_msg+0x840>
   11958:	e0663406 	rsb	r3, r6, r6, lsl #8
   1195c:	e59a7004 	ldr	r7, [sl, #4]
   11960:	e1a09203 	lsl	r9, r3, #4
   11964:	e1a01009 	mov	r1, r9
   11968:	e1a00007 	mov	r0, r7
   1196c:	e58a9018 	str	r9, [sl, #24]
   11970:	eb00454b 	bl	22ea4 <__libc_realloc>
   11974:	e2493004 	sub	r3, r9, #4
   11978:	e3500000 	cmp	r0, #0
   1197c:	0a000025 	beq	11a18 <_nl_find_msg+0x86c>
   11980:	e58a0004 	str	r0, [sl, #4]
   11984:	e2802004 	add	r2, r0, #4
   11988:	e2800008 	add	r0, r0, #8
   1198c:	e58a3018 	str	r3, [sl, #24]
   11990:	e58a2014 	str	r2, [sl, #20]
   11994:	e50b002c 	str	r0, [fp, #-44]	; 0xffffffd4
   11998:	e3530003 	cmp	r3, #3
   1199c:	9affffea 	bls	1194c <_nl_find_msg+0x7a0>
   119a0:	e51b102c 	ldr	r1, [fp, #-44]	; 0xffffffd4
   119a4:	e2433004 	sub	r3, r3, #4
   119a8:	e0813003 	add	r3, r1, r3
   119ac:	e5980004 	ldr	r0, [r8, #4]
   119b0:	e58d3000 	str	r3, [sp]
   119b4:	e24b3028 	sub	r3, fp, #40	; 0x28
   119b8:	e51b2030 	ldr	r2, [fp, #-48]	; 0xffffffd0
   119bc:	e58d3004 	str	r3, [sp, #4]
   119c0:	e51b3038 	ldr	r3, [fp, #-56]	; 0xffffffc8
   119c4:	e24b1030 	sub	r1, fp, #48	; 0x30
   119c8:	e0822003 	add	r2, r2, r3
   119cc:	e51b3040 	ldr	r3, [fp, #-64]	; 0xffffffc0
   119d0:	eb0065c0 	bl	2b0d8 <__gconv>
   119d4:	e3d03004 	bics	r3, r0, #4
   119d8:	0a000065 	beq	11b74 <_nl_find_msg+0x9c8>
   119dc:	e3500005 	cmp	r0, #5
   119e0:	1a000053 	bne	11b34 <_nl_find_msg+0x988>
   119e4:	e50b5030 	str	r5, [fp, #-48]	; 0xffffffd0
   119e8:	eaffffd7 	b	1194c <_nl_find_msg+0x7a0>
   119ec:	e3a00eff 	mov	r0, #4080	; 0xff0
   119f0:	e58a0018 	str	r0, [sl, #24]
   119f4:	eb00437c 	bl	227ec <__libc_malloc>
   119f8:	e3a06001 	mov	r6, #1
   119fc:	e59f3228 	ldr	r3, [pc, #552]	; 11c2c <_nl_find_msg+0xa80>
   11a00:	e3500000 	cmp	r0, #0
   11a04:	0a000007 	beq	11a28 <_nl_find_msg+0x87c>
   11a08:	e59a2004 	ldr	r2, [sl, #4]
   11a0c:	e58a0004 	str	r0, [sl, #4]
   11a10:	e5802000 	str	r2, [r0]
   11a14:	eaffffda 	b	11984 <_nl_find_msg+0x7d8>
   11a18:	e5973000 	ldr	r3, [r7]
   11a1c:	e1a00007 	mov	r0, r7
   11a20:	e58a3004 	str	r3, [sl, #4]
   11a24:	eb0044ea 	bl	22dd4 <__cfree>
   11a28:	e3a03000 	mov	r3, #0
   11a2c:	e58a3014 	str	r3, [sl, #20]
   11a30:	e58a3018 	str	r3, [sl, #24]
   11a34:	e51b103c 	ldr	r1, [fp, #-60]	; 0xffffffc4
   11a38:	ee070fba 	mcr	15, 0, r0, cr7, cr10, {5}
   11a3c:	e1912f9f 	ldrex	r2, [r1]
   11a40:	e1810f93 	strex	r0, r3, [r1]
   11a44:	e3500000 	cmp	r0, #0
   11a48:	1afffffb 	bne	11a3c <_nl_find_msg+0x890>
   11a4c:	e3520001 	cmp	r2, #1
   11a50:	dafffee2 	ble	115e0 <_nl_find_msg+0x434>
   11a54:	e59f01b8 	ldr	r0, [pc, #440]	; 11c14 <_nl_find_msg+0xa68>
   11a58:	e3a01081 	mov	r1, #129	; 0x81
   11a5c:	e3a02001 	mov	r2, #1
   11a60:	e3a070f0 	mov	r7, #240	; 0xf0
   11a64:	ef000000 	svc	0x00000000
   11a68:	e3e05000 	mvn	r5, #0
   11a6c:	eafffe3c 	b	11364 <_nl_find_msg+0x1b8>
   11a70:	eb004cba 	bl	24d60 <strlen>
   11a74:	e2802001 	add	r2, r0, #1
   11a78:	e1a00002 	mov	r0, r2
   11a7c:	e50b203c 	str	r2, [fp, #-60]	; 0xffffffc4
   11a80:	eb004359 	bl	227ec <__libc_malloc>
   11a84:	e2509000 	subs	r9, r0, #0
   11a88:	0a000002 	beq	11a98 <_nl_find_msg+0x8ec>
   11a8c:	e51b203c 	ldr	r2, [fp, #-60]	; 0xffffffc4
   11a90:	e1a01008 	mov	r1, r8
   11a94:	eb0051a5 	bl	26130 <memcpy>
   11a98:	e58a900c 	str	r9, [sl, #12]
   11a9c:	eafffed9 	b	11608 <_nl_find_msg+0x45c>
   11aa0:	e5960020 	ldr	r0, [r6, #32]
   11aa4:	e3a01004 	mov	r1, #4
   11aa8:	e0870000 	add	r0, r7, r0
   11aac:	eb0045be 	bl	231ac <__calloc>
   11ab0:	e3500000 	cmp	r0, #0
   11ab4:	e5880008 	str	r0, [r8, #8]
   11ab8:	1affff98 	bne	11920 <_nl_find_msg+0x774>
   11abc:	e3e03000 	mvn	r3, #0
   11ac0:	e5883008 	str	r3, [r8, #8]
   11ac4:	eafffee5 	b	11660 <_nl_find_msg+0x4b4>
   11ac8:	e51b3040 	ldr	r3, [fp, #-64]	; 0xffffffc0
   11acc:	e2830001 	add	r0, r3, #1
   11ad0:	e0800080 	add	r0, r0, r0, lsl #1
   11ad4:	e1a00100 	lsl	r0, r0, #2
   11ad8:	eb004343 	bl	227ec <__libc_malloc>
   11adc:	e1a02000 	mov	r2, r0
   11ae0:	eafffef3 	b	116b4 <_nl_find_msg+0x508>
   11ae4:	e51b3044 	ldr	r3, [fp, #-68]	; 0xffffffbc
   11ae8:	eaffff3c 	b	117e0 <_nl_find_msg+0x634>
   11aec:	e3700001 	cmn	r0, #1
   11af0:	0a000039 	beq	11bdc <_nl_find_msg+0xa30>
   11af4:	e51b303c 	ldr	r3, [fp, #-60]	; 0xffffffc4
   11af8:	e3530000 	cmp	r3, #0
   11afc:	0a000001 	beq	11b08 <_nl_find_msg+0x95c>
   11b00:	e2860040 	add	r0, r6, #64	; 0x40
   11b04:	e1a00000 	nop			; (mov r0, r0)
   11b08:	e1a00009 	mov	r0, r9
   11b0c:	eb0044b0 	bl	22dd4 <__cfree>
   11b10:	eafffe12 	b	11360 <_nl_find_msg+0x1b4>
   11b14:	e1a0200a 	mov	r2, sl
   11b18:	eaffff59 	b	11884 <_nl_find_msg+0x6d8>
   11b1c:	e59f00f0 	ldr	r0, [pc, #240]	; 11c14 <_nl_find_msg+0xa68>
   11b20:	e3a01081 	mov	r1, #129	; 0x81
   11b24:	e3a02001 	mov	r2, #1
   11b28:	e3a070f0 	mov	r7, #240	; 0xf0
   11b2c:	ef000000 	svc	0x00000000
   11b30:	eafffed3 	b	11684 <_nl_find_msg+0x4d8>
   11b34:	e3a03000 	mov	r3, #0
   11b38:	e51b103c 	ldr	r1, [fp, #-60]	; 0xffffffc4
   11b3c:	ee070fba 	mcr	15, 0, r0, cr7, cr10, {5}
   11b40:	e1912f9f 	ldrex	r2, [r1]
   11b44:	e1810f93 	strex	r0, r3, [r1]
   11b48:	e3500000 	cmp	r0, #0
   11b4c:	1afffffb 	bne	11b40 <_nl_find_msg+0x994>
   11b50:	e3520001 	cmp	r2, #1
   11b54:	dafffe01 	ble	11360 <_nl_find_msg+0x1b4>
   11b58:	e59f00b4 	ldr	r0, [pc, #180]	; 11c14 <_nl_find_msg+0xa68>
   11b5c:	e3a01081 	mov	r1, #129	; 0x81
   11b60:	e3a02001 	mov	r2, #1
   11b64:	e3a070f0 	mov	r7, #240	; 0xf0
   11b68:	ef000000 	svc	0x00000000
   11b6c:	e1a05003 	mov	r5, r3
   11b70:	eafffdfb 	b	11364 <_nl_find_msg+0x1b8>
   11b74:	e59ac014 	ldr	ip, [sl, #20]
   11b78:	e51b102c 	ldr	r1, [fp, #-44]	; 0xffffffd4
   11b7c:	e59a2018 	ldr	r2, [sl, #24]
   11b80:	e598e008 	ldr	lr, [r8, #8]
   11b84:	e041000c 	sub	r0, r1, ip
   11b88:	e0422000 	sub	r2, r2, r0
   11b8c:	e2400004 	sub	r0, r0, #4
   11b90:	e58c0000 	str	r0, [ip]
   11b94:	e2020003 	and	r0, r2, #3
   11b98:	e78ec104 	str	ip, [lr, r4, lsl #2]
   11b9c:	e1a04104 	lsl	r4, r4, #2
   11ba0:	e0811000 	add	r1, r1, r0
   11ba4:	e3c22003 	bic	r2, r2, #3
   11ba8:	e58a1014 	str	r1, [sl, #20]
   11bac:	e58a2018 	str	r2, [sl, #24]
   11bb0:	e51b103c 	ldr	r1, [fp, #-60]	; 0xffffffc4
   11bb4:	ee070fba 	mcr	15, 0, r0, cr7, cr10, {5}
   11bb8:	e1912f9f 	ldrex	r2, [r1]
   11bbc:	e1810f93 	strex	r0, r3, [r1]
   11bc0:	e3500000 	cmp	r0, #0
   11bc4:	1afffffb 	bne	11bb8 <_nl_find_msg+0xa0c>
   11bc8:	e3520001 	cmp	r2, #1
   11bcc:	ca000004 	bgt	11be4 <_nl_find_msg+0xa38>
   11bd0:	e5983008 	ldr	r3, [r8, #8]
   11bd4:	e7933004 	ldr	r3, [r3, r4]
   11bd8:	eafffe2b 	b	1148c <_nl_find_msg+0x2e0>
   11bdc:	e5880004 	str	r0, [r8, #4]
   11be0:	eaffff38 	b	118c8 <_nl_find_msg+0x71c>
   11be4:	e59f0028 	ldr	r0, [pc, #40]	; 11c14 <_nl_find_msg+0xa68>
   11be8:	e3a01081 	mov	r1, #129	; 0x81
   11bec:	e3a02001 	mov	r2, #1
   11bf0:	e3a070f0 	mov	r7, #240	; 0xf0
   11bf4:	ef000000 	svc	0x00000000
   11bf8:	eafffff4 	b	11bd0 <_nl_find_msg+0xa24>
	...
   11c08:	000960f4 	.word	0x000960f4
   11c0c:	00083a80 	.word	0x00083a80
   11c10:	0006fbf0 	.word	0x0006fbf0
   11c14:	00096104 	.word	0x00096104
   11c18:	00080b4c 	.word	0x00080b4c
   11c1c:	0006fc00 	.word	0x0006fc00
   11c20:	0006fc0c 	.word	0x0006fc0c
   11c24:	0007e5a8 	.word	0x0007e5a8
   11c28:	00071030 	.word	0x00071030
   11c2c:	00000fec 	.word	0x00000fec

00011c30 <__dcigettext>:
   11c30:	e92d4ff0 	push	{r4, r5, r6, r7, r8, r9, sl, fp, lr}
   11c34:	e28db020 	add	fp, sp, #32
   11c38:	e3510000 	cmp	r1, #0
   11c3c:	e24dd06c 	sub	sp, sp, #108	; 0x6c
   11c40:	e50b1050 	str	r1, [fp, #-80]	; 0xffffffb0
   11c44:	e50b2064 	str	r2, [fp, #-100]	; 0xffffff9c
   11c48:	e50b3060 	str	r3, [fp, #-96]	; 0xffffffa0
   11c4c:	0a0000d9 	beq	11fb8 <__dcigettext+0x388>
   11c50:	e59b2008 	ldr	r2, [fp, #8]
   11c54:	e2425006 	sub	r5, r2, #6
   11c58:	e16f5f15 	clz	r5, r5
   11c5c:	e1a052a5 	lsr	r5, r5, #5
   11c60:	e352000c 	cmp	r2, #12
   11c64:	83855001 	orrhi	r5, r5, #1
   11c68:	e3550000 	cmp	r5, #0
   11c6c:	1a0000d5 	bne	11fc8 <__dcigettext+0x398>
   11c70:	e59f3788 	ldr	r3, [pc, #1928]	; 12400 <__dcigettext+0x7d0>
   11c74:	e59f4788 	ldr	r4, [pc, #1928]	; 12404 <__dcigettext+0x7d4>
   11c78:	e1a08000 	mov	r8, r0
   11c7c:	e79f3003 	ldr	r3, [pc, r3]
   11c80:	ebfffc2e 	bl	10d40 <__aeabi_read_tp>
   11c84:	e3540000 	cmp	r4, #0
   11c88:	e7903003 	ldr	r3, [r0, r3]
   11c8c:	e50b306c 	str	r3, [fp, #-108]	; 0xffffff94
   11c90:	0a000110 	beq	120d8 <__dcigettext+0x4a8>
   11c94:	e59f076c 	ldr	r0, [pc, #1900]	; 12408 <__dcigettext+0x7d8>
   11c98:	e1a00000 	nop			; (mov r0, r0)
   11c9c:	e59f0768 	ldr	r0, [pc, #1896]	; 1240c <__dcigettext+0x7dc>
   11ca0:	e1a00000 	nop			; (mov r0, r0)
   11ca4:	e3580000 	cmp	r8, #0
   11ca8:	0a00013b 	beq	1219c <__dcigettext+0x56c>
   11cac:	e51b3050 	ldr	r3, [fp, #-80]	; 0xffffffb0
   11cb0:	e59b0008 	ldr	r0, [fp, #8]
   11cb4:	e50b3028 	str	r3, [fp, #-40]	; 0xffffffd8
   11cb8:	e50b5034 	str	r5, [fp, #-52]	; 0xffffffcc
   11cbc:	e50b8044 	str	r8, [fp, #-68]	; 0xffffffbc
   11cc0:	e50b0040 	str	r0, [fp, #-64]	; 0xffffffc0
   11cc4:	eb008f2a 	bl	35974 <__current_locale_name>
   11cc8:	e1a04000 	mov	r4, r0
   11ccc:	eb004c23 	bl	24d60 <strlen>
   11cd0:	e1a01004 	mov	r1, r4
   11cd4:	e280300f 	add	r3, r0, #15
   11cd8:	e3c33007 	bic	r3, r3, #7
   11cdc:	e04dd003 	sub	sp, sp, r3
   11ce0:	e2802001 	add	r2, r0, #1
   11ce4:	e28d0008 	add	r0, sp, #8
   11ce8:	eb005110 	bl	26130 <memcpy>
   11cec:	e50b0074 	str	r0, [fp, #-116]	; 0xffffff8c
   11cf0:	e50b003c 	str	r0, [fp, #-60]	; 0xffffffc4
   11cf4:	e59f0714 	ldr	r0, [pc, #1812]	; 12410 <__dcigettext+0x7e0>
   11cf8:	e1a00000 	nop			; (mov r0, r0)
   11cfc:	e59f2710 	ldr	r2, [pc, #1808]	; 12414 <__dcigettext+0x7e4>
   11d00:	e59f1710 	ldr	r1, [pc, #1808]	; 12418 <__dcigettext+0x7e8>
   11d04:	e24b0044 	sub	r0, fp, #68	; 0x44
   11d08:	eb005a43 	bl	2861c <__tfind>
   11d0c:	e59f3708 	ldr	r3, [pc, #1800]	; 1241c <__dcigettext+0x7ec>
   11d10:	e3530000 	cmp	r3, #0
   11d14:	e50b0068 	str	r0, [fp, #-104]	; 0xffffff98
   11d18:	0a000001 	beq	11d24 <__dcigettext+0xf4>
   11d1c:	e59f06ec 	ldr	r0, [pc, #1772]	; 12410 <__dcigettext+0x7e0>
   11d20:	e1a00000 	nop			; (mov r0, r0)
   11d24:	e51b3068 	ldr	r3, [fp, #-104]	; 0xffffff98
   11d28:	e3530000 	cmp	r3, #0
   11d2c:	0a000005 	beq	11d48 <__dcigettext+0x118>
   11d30:	e5932000 	ldr	r2, [r3]
   11d34:	e59f36e4 	ldr	r3, [pc, #1764]	; 12420 <__dcigettext+0x7f0>
   11d38:	e592100c 	ldr	r1, [r2, #12]
   11d3c:	e5933000 	ldr	r3, [r3]
   11d40:	e1510003 	cmp	r1, r3
   11d44:	0a0000ff 	beq	12148 <__dcigettext+0x518>
   11d48:	e59f36d4 	ldr	r3, [pc, #1748]	; 12424 <__dcigettext+0x7f4>
   11d4c:	e5935000 	ldr	r5, [r3]
   11d50:	e3550000 	cmp	r5, #0
   11d54:	1a000004 	bne	11d6c <__dcigettext+0x13c>
   11d58:	ea0000f3 	b	1212c <__dcigettext+0x4fc>
   11d5c:	ba0000f5 	blt	12138 <__dcigettext+0x508>
   11d60:	e5955000 	ldr	r5, [r5]
   11d64:	e3550000 	cmp	r5, #0
   11d68:	0a0000ef 	beq	1212c <__dcigettext+0x4fc>
   11d6c:	e285100c 	add	r1, r5, #12
   11d70:	e1a00008 	mov	r0, r8
   11d74:	eb004af4 	bl	2494c <strcmp>
   11d78:	e3500000 	cmp	r0, #0
   11d7c:	1afffff6 	bne	11d5c <__dcigettext+0x12c>
   11d80:	e5953004 	ldr	r3, [r5, #4]
   11d84:	e1a07000 	mov	r7, r0
   11d88:	e50b3054 	str	r3, [fp, #-84]	; 0xffffffac
   11d8c:	e5d33000 	ldrb	r3, [r3]
   11d90:	e353002f 	cmp	r3, #47	; 0x2f
   11d94:	0a000026 	beq	11e34 <__dcigettext+0x204>
   11d98:	e51b0054 	ldr	r0, [fp, #-84]	; 0xffffffac
   11d9c:	eb004bef 	bl	24d60 <strlen>
   11da0:	e59f4680 	ldr	r4, [pc, #1664]	; 12428 <__dcigettext+0x7f8>
   11da4:	e59fa680 	ldr	sl, [pc, #1664]	; 1242c <__dcigettext+0x7fc>
   11da8:	e50b5058 	str	r5, [fp, #-88]	; 0xffffffa8
   11dac:	e2803001 	add	r3, r0, #1
   11db0:	e1a06003 	mov	r6, r3
   11db4:	ea000003 	b	11dc8 <__dcigettext+0x198>
   11db8:	e79f3003 	ldr	r3, [pc, r3]
   11dbc:	e7993003 	ldr	r3, [r9, r3]
   11dc0:	e3530022 	cmp	r3, #34	; 0x22
   11dc4:	1a00006a 	bne	11f74 <__dcigettext+0x344>
   11dc8:	e0843006 	add	r3, r4, r6
   11dcc:	e283300e 	add	r3, r3, #14
   11dd0:	e3c33007 	bic	r3, r3, #7
   11dd4:	e04dd003 	sub	sp, sp, r3
   11dd8:	e79f300a 	ldr	r3, [pc, sl]
   11ddc:	ebfffbd7 	bl	10d40 <__aeabi_read_tp>
   11de0:	e28d5008 	add	r5, sp, #8
   11de4:	e1a09000 	mov	r9, r0
   11de8:	e1a01004 	mov	r1, r4
   11dec:	e1a00005 	mov	r0, r5
   11df0:	e7897003 	str	r7, [r9, r3]
   11df4:	eb005663 	bl	27788 <__getcwd>
   11df8:	e08440a4 	add	r4, r4, r4, lsr #1
   11dfc:	e59f362c 	ldr	r3, [pc, #1580]	; 12430 <__dcigettext+0x800>
   11e00:	e2844020 	add	r4, r4, #32
   11e04:	e3500000 	cmp	r0, #0
   11e08:	0affffea 	beq	11db8 <__dcigettext+0x188>
   11e0c:	e1a09005 	mov	r9, r5
   11e10:	e3a01000 	mov	r1, #0
   11e14:	e1a00009 	mov	r0, r9
   11e18:	eb005190 	bl	26460 <__rawmemchr>
   11e1c:	e3a0202f 	mov	r2, #47	; 0x2f
   11e20:	e51b1054 	ldr	r1, [fp, #-84]	; 0xffffffac
   11e24:	e51b5058 	ldr	r5, [fp, #-88]	; 0xffffffa8
   11e28:	e50b9054 	str	r9, [fp, #-84]	; 0xffffffac
   11e2c:	e4c02001 	strb	r2, [r0], #1
   11e30:	eb004ad6 	bl	24990 <strcpy>
   11e34:	e59f25f8 	ldr	r2, [pc, #1528]	; 12434 <__dcigettext+0x804>
   11e38:	e59b0008 	ldr	r0, [fp, #8]
   11e3c:	e59f35f4 	ldr	r3, [pc, #1524]	; 12438 <__dcigettext+0x808>
   11e40:	e7d26000 	ldrb	r6, [r2, r0]
   11e44:	e0866003 	add	r6, r6, r3
   11e48:	eb008ec9 	bl	35974 <__current_locale_name>
   11e4c:	e5d03000 	ldrb	r3, [r0]
   11e50:	e1a04000 	mov	r4, r0
   11e54:	e3530043 	cmp	r3, #67	; 0x43
   11e58:	1a000062 	bne	11fe8 <__dcigettext+0x3b8>
   11e5c:	e5d03001 	ldrb	r3, [r0, #1]
   11e60:	e3530000 	cmp	r3, #0
   11e64:	1a00005f 	bne	11fe8 <__dcigettext+0x3b8>
   11e68:	e1a00008 	mov	r0, r8
   11e6c:	eb004bbb 	bl	24d60 <strlen>
   11e70:	e59f95c4 	ldr	r9, [pc, #1476]	; 1243c <__dcigettext+0x80c>
   11e74:	e24ba048 	sub	sl, fp, #72	; 0x48
   11e78:	e3a07001 	mov	r7, #1
   11e7c:	e50b0070 	str	r0, [fp, #-112]	; 0xffffff90
   11e80:	e1a00006 	mov	r0, r6
   11e84:	eb004bb5 	bl	24d60 <strlen>
   11e88:	e1a01006 	mov	r1, r6
   11e8c:	e51b6070 	ldr	r6, [fp, #-112]	; 0xffffff90
   11e90:	e0863000 	add	r3, r6, r0
   11e94:	e2833013 	add	r3, r3, #19
   11e98:	e3c33007 	bic	r3, r3, #7
   11e9c:	e04dd003 	sub	sp, sp, r3
   11ea0:	e28d3008 	add	r3, sp, #8
   11ea4:	e1a00003 	mov	r0, r3
   11ea8:	e50b3058 	str	r3, [fp, #-88]	; 0xffffffa8
   11eac:	eb004ab3 	bl	24980 <__stpcpy>
   11eb0:	e59f3588 	ldr	r3, [pc, #1416]	; 12440 <__dcigettext+0x810>
   11eb4:	e1a02006 	mov	r2, r6
   11eb8:	e1a01008 	mov	r1, r8
   11ebc:	e1d330b0 	ldrh	r3, [r3]
   11ec0:	e0c030b1 	strh	r3, [r0], #1
   11ec4:	eb005099 	bl	26130 <memcpy>
   11ec8:	e59f2574 	ldr	r2, [pc, #1396]	; 12444 <__dcigettext+0x814>
   11ecc:	e1a03000 	mov	r3, r0
   11ed0:	e5920000 	ldr	r0, [r2]
   11ed4:	e7830006 	str	r0, [r3, r6]
   11ed8:	e1a00004 	mov	r0, r4
   11edc:	eb004b9f 	bl	24d60 <strlen>
   11ee0:	e280000f 	add	r0, r0, #15
   11ee4:	e3c00007 	bic	r0, r0, #7
   11ee8:	e04dd000 	sub	sp, sp, r0
   11eec:	e28d6008 	add	r6, sp, #8
   11ef0:	e5d43000 	ldrb	r3, [r4]
   11ef4:	e353003a 	cmp	r3, #58	; 0x3a
   11ef8:	0a00005a 	beq	12068 <__dcigettext+0x438>
   11efc:	e3530000 	cmp	r3, #0
   11f00:	1a000040 	bne	12008 <__dcigettext+0x3d8>
   11f04:	e3a02043 	mov	r2, #67	; 0x43
   11f08:	e5c62000 	strb	r2, [r6]
   11f0c:	e5c63001 	strb	r3, [r6, #1]
   11f10:	e5d63001 	ldrb	r3, [r6, #1]
   11f14:	e3530000 	cmp	r3, #0
   11f18:	0a000015 	beq	11f74 <__dcigettext+0x344>
   11f1c:	e59f1524 	ldr	r1, [pc, #1316]	; 12448 <__dcigettext+0x818>
   11f20:	e1a00006 	mov	r0, r6
   11f24:	eb004a88 	bl	2494c <strcmp>
   11f28:	e3500000 	cmp	r0, #0
   11f2c:	0a000010 	beq	11f74 <__dcigettext+0x344>
   11f30:	e1a03005 	mov	r3, r5
   11f34:	e51b2058 	ldr	r2, [fp, #-88]	; 0xffffffa8
   11f38:	e1a01006 	mov	r1, r6
   11f3c:	e51b0054 	ldr	r0, [fp, #-84]	; 0xffffffac
   11f40:	eb000148 	bl	12468 <_nl_find_domain>
   11f44:	e2503000 	subs	r3, r0, #0
   11f48:	e50b305c 	str	r3, [fp, #-92]	; 0xffffffa4
   11f4c:	0affffe7 	beq	11ef0 <__dcigettext+0x2c0>
   11f50:	e1a03007 	mov	r3, r7
   11f54:	e58da000 	str	sl, [sp]
   11f58:	e51b2050 	ldr	r2, [fp, #-80]	; 0xffffffb0
   11f5c:	e1a01005 	mov	r1, r5
   11f60:	ebfffc91 	bl	111ac <_nl_find_msg>
   11f64:	e2503000 	subs	r3, r0, #0
   11f68:	0a000040 	beq	12070 <__dcigettext+0x440>
   11f6c:	e3730001 	cmn	r3, #1
   11f70:	1a0000a7 	bne	12214 <__dcigettext+0x5e4>
   11f74:	e59f34a0 	ldr	r3, [pc, #1184]	; 1241c <__dcigettext+0x7ec>
   11f78:	e3530000 	cmp	r3, #0
   11f7c:	0a000003 	beq	11f90 <__dcigettext+0x360>
   11f80:	e59f0484 	ldr	r0, [pc, #1156]	; 1240c <__dcigettext+0x7dc>
   11f84:	e1a00000 	nop			; (mov r0, r0)
   11f88:	e59f0478 	ldr	r0, [pc, #1144]	; 12408 <__dcigettext+0x7d8>
   11f8c:	e1a00000 	nop			; (mov r0, r0)
   11f90:	e59f34b4 	ldr	r3, [pc, #1204]	; 1244c <__dcigettext+0x81c>
   11f94:	e59b2004 	ldr	r2, [fp, #4]
   11f98:	e51b1060 	ldr	r1, [fp, #-96]	; 0xffffffa0
   11f9c:	e79f3003 	ldr	r3, [pc, r3]
   11fa0:	ebfffb66 	bl	10d40 <__aeabi_read_tp>
   11fa4:	e3510000 	cmp	r1, #0
   11fa8:	13520001 	cmpne	r2, #1
   11fac:	e51b206c 	ldr	r2, [fp, #-108]	; 0xffffff94
   11fb0:	e7802003 	str	r2, [r0, r3]
   11fb4:	1a000007 	bne	11fd8 <__dcigettext+0x3a8>
   11fb8:	e51b3050 	ldr	r3, [fp, #-80]	; 0xffffffb0
   11fbc:	e1a00003 	mov	r0, r3
   11fc0:	e24bd020 	sub	sp, fp, #32
   11fc4:	e8bd8ff0 	pop	{r4, r5, r6, r7, r8, r9, sl, fp, pc}
   11fc8:	e59b2004 	ldr	r2, [fp, #4]
   11fcc:	e3530000 	cmp	r3, #0
   11fd0:	13520001 	cmpne	r2, #1
   11fd4:	0afffff7 	beq	11fb8 <__dcigettext+0x388>
   11fd8:	e51b3064 	ldr	r3, [fp, #-100]	; 0xffffff9c
   11fdc:	e1a00003 	mov	r0, r3
   11fe0:	e24bd020 	sub	sp, fp, #32
   11fe4:	e8bd8ff0 	pop	{r4, r5, r6, r7, r8, r9, sl, fp, pc}
   11fe8:	e59f0460 	ldr	r0, [pc, #1120]	; 12450 <__dcigettext+0x820>
   11fec:	eb000f1b 	bl	15c60 <getenv>
   11ff0:	e3500000 	cmp	r0, #0
   11ff4:	0affff9b 	beq	11e68 <__dcigettext+0x238>
   11ff8:	e5d03000 	ldrb	r3, [r0]
   11ffc:	e3530000 	cmp	r3, #0
   12000:	11a04000 	movne	r4, r0
   12004:	eaffff97 	b	11e68 <__dcigettext+0x238>
   12008:	e2842001 	add	r2, r4, #1
   1200c:	e1a01006 	mov	r1, r6
   12010:	e4c13001 	strb	r3, [r1], #1
   12014:	e5d23000 	ldrb	r3, [r2]
   12018:	e1a04002 	mov	r4, r2
   1201c:	e2822001 	add	r2, r2, #1
   12020:	e3530000 	cmp	r3, #0
   12024:	1353003a 	cmpne	r3, #58	; 0x3a
   12028:	13a00001 	movne	r0, #1
   1202c:	03a00000 	moveq	r0, #0
   12030:	1afffff6 	bne	12010 <__dcigettext+0x3e0>
   12034:	e5993000 	ldr	r3, [r9]
   12038:	e5c10000 	strb	r0, [r1]
   1203c:	e3530000 	cmp	r3, #0
   12040:	0a000004 	beq	12058 <__dcigettext+0x428>
   12044:	e3a0102f 	mov	r1, #47	; 0x2f
   12048:	e1a00006 	mov	r0, r6
   1204c:	eb004a0b 	bl	24880 <strchr>
   12050:	e3500000 	cmp	r0, #0
   12054:	1affffa5 	bne	11ef0 <__dcigettext+0x2c0>
   12058:	e5d63000 	ldrb	r3, [r6]
   1205c:	e3530043 	cmp	r3, #67	; 0x43
   12060:	1affffad 	bne	11f1c <__dcigettext+0x2ec>
   12064:	eaffffa9 	b	11f10 <__dcigettext+0x2e0>
   12068:	e2844001 	add	r4, r4, #1
   1206c:	eaffff9f 	b	11ef0 <__dcigettext+0x2c0>
   12070:	e51b205c 	ldr	r2, [fp, #-92]	; 0xffffffa4
   12074:	e5920010 	ldr	r0, [r2, #16]
   12078:	e3500000 	cmp	r0, #0
   1207c:	0affff9b 	beq	11ef0 <__dcigettext+0x2c0>
   12080:	e2822014 	add	r2, r2, #20
   12084:	e50b407c 	str	r4, [fp, #-124]	; 0xffffff84
   12088:	e50b6080 	str	r6, [fp, #-128]	; 0xffffff80
   1208c:	e50b8078 	str	r8, [fp, #-120]	; 0xffffff88
   12090:	e1a04002 	mov	r4, r2
   12094:	e1a06003 	mov	r6, r3
   12098:	e51b8050 	ldr	r8, [fp, #-80]	; 0xffffffb0
   1209c:	ea000005 	b	120b8 <__dcigettext+0x488>
   120a0:	e3500000 	cmp	r0, #0
   120a4:	1a000054 	bne	121fc <__dcigettext+0x5cc>
   120a8:	e4940004 	ldr	r0, [r4], #4
   120ac:	e2866001 	add	r6, r6, #1
   120b0:	e3500000 	cmp	r0, #0
   120b4:	0a00007b 	beq	122a8 <__dcigettext+0x678>
   120b8:	e58da000 	str	sl, [sp]
   120bc:	e1a03007 	mov	r3, r7
   120c0:	e1a02008 	mov	r2, r8
   120c4:	e1a01005 	mov	r1, r5
   120c8:	ebfffc37 	bl	111ac <_nl_find_msg>
   120cc:	e3700001 	cmn	r0, #1
   120d0:	1afffff2 	bne	120a0 <__dcigettext+0x470>
   120d4:	eaffffa6 	b	11f74 <__dcigettext+0x344>
   120d8:	e3580000 	cmp	r8, #0
   120dc:	0a00002e 	beq	1219c <__dcigettext+0x56c>
   120e0:	e51b3050 	ldr	r3, [fp, #-80]	; 0xffffffb0
   120e4:	e59b0008 	ldr	r0, [fp, #8]
   120e8:	e50b3028 	str	r3, [fp, #-40]	; 0xffffffd8
   120ec:	e50b4034 	str	r4, [fp, #-52]	; 0xffffffcc
   120f0:	e50b8044 	str	r8, [fp, #-68]	; 0xffffffbc
   120f4:	e50b0040 	str	r0, [fp, #-64]	; 0xffffffc0
   120f8:	eb008e1d 	bl	35974 <__current_locale_name>
   120fc:	e1a04000 	mov	r4, r0
   12100:	eb004b16 	bl	24d60 <strlen>
   12104:	e1a01004 	mov	r1, r4
   12108:	e280300f 	add	r3, r0, #15
   1210c:	e3c33007 	bic	r3, r3, #7
   12110:	e04dd003 	sub	sp, sp, r3
   12114:	e2802001 	add	r2, r0, #1
   12118:	e28d0008 	add	r0, sp, #8
   1211c:	eb005003 	bl	26130 <memcpy>
   12120:	e50b0074 	str	r0, [fp, #-116]	; 0xffffff8c
   12124:	e50b003c 	str	r0, [fp, #-60]	; 0xffffffc4
   12128:	eafffef3 	b	11cfc <__dcigettext+0xcc>
   1212c:	e59f3320 	ldr	r3, [pc, #800]	; 12454 <__dcigettext+0x824>
   12130:	e50b3054 	str	r3, [fp, #-84]	; 0xffffffac
   12134:	eaffff3e 	b	11e34 <__dcigettext+0x204>
   12138:	e59f3314 	ldr	r3, [pc, #788]	; 12454 <__dcigettext+0x824>
   1213c:	e3a05000 	mov	r5, #0
   12140:	e50b3054 	str	r3, [fp, #-84]	; 0xffffffac
   12144:	eaffff3a 	b	11e34 <__dcigettext+0x204>
   12148:	e51b3060 	ldr	r3, [fp, #-96]	; 0xffffffa0
   1214c:	e3530000 	cmp	r3, #0
   12150:	05923014 	ldreq	r3, [r2, #20]
   12154:	1a00004c 	bne	1228c <__dcigettext+0x65c>
   12158:	e59f22bc 	ldr	r2, [pc, #700]	; 1241c <__dcigettext+0x7ec>
   1215c:	e3520000 	cmp	r2, #0
   12160:	0a000005 	beq	1217c <__dcigettext+0x54c>
   12164:	e59f02a0 	ldr	r0, [pc, #672]	; 1240c <__dcigettext+0x7dc>
   12168:	e50b3050 	str	r3, [fp, #-80]	; 0xffffffb0
   1216c:	e1a00000 	nop			; (mov r0, r0)
   12170:	e59f0290 	ldr	r0, [pc, #656]	; 12408 <__dcigettext+0x7d8>
   12174:	e1a00000 	nop			; (mov r0, r0)
   12178:	e51b3050 	ldr	r3, [fp, #-80]	; 0xffffffb0
   1217c:	e59f22d4 	ldr	r2, [pc, #724]	; 12458 <__dcigettext+0x828>
   12180:	e51b106c 	ldr	r1, [fp, #-108]	; 0xffffff94
   12184:	ebfffaed 	bl	10d40 <__aeabi_read_tp>
   12188:	e79f2002 	ldr	r2, [pc, r2]
   1218c:	e7801002 	str	r1, [r0, r2]
   12190:	e1a00003 	mov	r0, r3
   12194:	e24bd020 	sub	sp, fp, #32
   12198:	e8bd8ff0 	pop	{r4, r5, r6, r7, r8, r9, sl, fp, pc}
   1219c:	e59f22b8 	ldr	r2, [pc, #696]	; 1245c <__dcigettext+0x82c>
   121a0:	e59b0008 	ldr	r0, [fp, #8]
   121a4:	e3a03000 	mov	r3, #0
   121a8:	e5928000 	ldr	r8, [r2]
   121ac:	e51b2050 	ldr	r2, [fp, #-80]	; 0xffffffb0
   121b0:	e50b3034 	str	r3, [fp, #-52]	; 0xffffffcc
   121b4:	e50b2028 	str	r2, [fp, #-40]	; 0xffffffd8
   121b8:	e50b0040 	str	r0, [fp, #-64]	; 0xffffffc0
   121bc:	e50b8044 	str	r8, [fp, #-68]	; 0xffffffbc
   121c0:	eb008deb 	bl	35974 <__current_locale_name>
   121c4:	e1a05000 	mov	r5, r0
   121c8:	eb004ae4 	bl	24d60 <strlen>
   121cc:	e1a01005 	mov	r1, r5
   121d0:	e280300f 	add	r3, r0, #15
   121d4:	e3c33007 	bic	r3, r3, #7
   121d8:	e04dd003 	sub	sp, sp, r3
   121dc:	e2802001 	add	r2, r0, #1
   121e0:	e28d0008 	add	r0, sp, #8
   121e4:	eb004fd1 	bl	26130 <memcpy>
   121e8:	e3540000 	cmp	r4, #0
   121ec:	e50b0074 	str	r0, [fp, #-116]	; 0xffffff8c
   121f0:	e50b003c 	str	r0, [fp, #-60]	; 0xffffffc4
   121f4:	1afffebe 	bne	11cf4 <__dcigettext+0xc4>
   121f8:	eafffebf 	b	11cfc <__dcigettext+0xcc>
   121fc:	e51b205c 	ldr	r2, [fp, #-92]	; 0xffffffa4
   12200:	e2867004 	add	r7, r6, #4
   12204:	e51b8078 	ldr	r8, [fp, #-120]	; 0xffffff88
   12208:	e7922107 	ldr	r2, [r2, r7, lsl #2]
   1220c:	e1a03000 	mov	r3, r0
   12210:	e50b205c 	str	r2, [fp, #-92]	; 0xffffffa4
   12214:	e51b2068 	ldr	r2, [fp, #-104]	; 0xffffff98
   12218:	e3520000 	cmp	r2, #0
   1221c:	0a00002d 	beq	122d8 <__dcigettext+0x6a8>
   12220:	e51b2068 	ldr	r2, [fp, #-104]	; 0xffffff98
   12224:	e59f01f4 	ldr	r0, [pc, #500]	; 12420 <__dcigettext+0x7f0>
   12228:	e51b1048 	ldr	r1, [fp, #-72]	; 0xffffffb8
   1222c:	e5922000 	ldr	r2, [r2]
   12230:	e5900000 	ldr	r0, [r0]
   12234:	e51bc05c 	ldr	ip, [fp, #-92]	; 0xffffffa4
   12238:	e5823014 	str	r3, [r2, #20]
   1223c:	e582c010 	str	ip, [r2, #16]
   12240:	e582000c 	str	r0, [r2, #12]
   12244:	e5821018 	str	r1, [r2, #24]
   12248:	e59f2210 	ldr	r2, [pc, #528]	; 12460 <__dcigettext+0x830>
   1224c:	e51b1060 	ldr	r1, [fp, #-96]	; 0xffffffa0
   12250:	ebfffaba 	bl	10d40 <__aeabi_read_tp>
   12254:	e79f2002 	ldr	r2, [pc, r2]
   12258:	e3510000 	cmp	r1, #0
   1225c:	e51b106c 	ldr	r1, [fp, #-108]	; 0xffffff94
   12260:	e7801002 	str	r1, [r0, r2]
   12264:	1a000013 	bne	122b8 <__dcigettext+0x688>
   12268:	e59f21ac 	ldr	r2, [pc, #428]	; 1241c <__dcigettext+0x7ec>
   1226c:	e3520000 	cmp	r2, #0
   12270:	0affff59 	beq	11fdc <__dcigettext+0x3ac>
   12274:	e59f0190 	ldr	r0, [pc, #400]	; 1240c <__dcigettext+0x7dc>
   12278:	e50b3050 	str	r3, [fp, #-80]	; 0xffffffb0
   1227c:	e1a00000 	nop			; (mov r0, r0)
   12280:	e59f0180 	ldr	r0, [pc, #384]	; 12408 <__dcigettext+0x7d8>
   12284:	e1a00000 	nop			; (mov r0, r0)
   12288:	eaffff4a 	b	11fb8 <__dcigettext+0x388>
   1228c:	e2821010 	add	r1, r2, #16
   12290:	e891000e 	ldm	r1, {r1, r2, r3}
   12294:	e5910008 	ldr	r0, [r1, #8]
   12298:	e59b1004 	ldr	r1, [fp, #4]
   1229c:	ebfffbaa 	bl	1114c <plural_lookup.isra.1>
   122a0:	e1a03000 	mov	r3, r0
   122a4:	eaffffab 	b	12158 <__dcigettext+0x528>
   122a8:	e51b407c 	ldr	r4, [fp, #-124]	; 0xffffff84
   122ac:	e51b6080 	ldr	r6, [fp, #-128]	; 0xffffff80
   122b0:	e51b8078 	ldr	r8, [fp, #-120]	; 0xffffff88
   122b4:	eaffff0d 	b	11ef0 <__dcigettext+0x2c0>
   122b8:	e1a02003 	mov	r2, r3
   122bc:	e51b305c 	ldr	r3, [fp, #-92]	; 0xffffffa4
   122c0:	e59b1004 	ldr	r1, [fp, #4]
   122c4:	e5930008 	ldr	r0, [r3, #8]
   122c8:	e51b3048 	ldr	r3, [fp, #-72]	; 0xffffffb8
   122cc:	ebfffb9e 	bl	1114c <plural_lookup.isra.1>
   122d0:	e1a03000 	mov	r3, r0
   122d4:	eaffffe3 	b	12268 <__dcigettext+0x638>
   122d8:	e51ba050 	ldr	sl, [fp, #-80]	; 0xffffffb0
   122dc:	e50b3054 	str	r3, [fp, #-84]	; 0xffffffac
   122e0:	e1a0000a 	mov	r0, sl
   122e4:	eb004a9d 	bl	24d60 <strlen>
   122e8:	e51b9074 	ldr	r9, [fp, #-116]	; 0xffffff8c
   122ec:	e2804001 	add	r4, r0, #1
   122f0:	e1a00009 	mov	r0, r9
   122f4:	eb004a99 	bl	24d60 <strlen>
   122f8:	e51b6070 	ldr	r6, [fp, #-112]	; 0xffffff90
   122fc:	e1a07000 	mov	r7, r0
   12300:	e286001e 	add	r0, r6, #30
   12304:	e0800007 	add	r0, r0, r7
   12308:	e0800004 	add	r0, r0, r4
   1230c:	eb004136 	bl	227ec <__libc_malloc>
   12310:	e51b3054 	ldr	r3, [fp, #-84]	; 0xffffffac
   12314:	e2505000 	subs	r5, r0, #0
   12318:	0affffca 	beq	12248 <__dcigettext+0x618>
   1231c:	e1a02004 	mov	r2, r4
   12320:	e1a0100a 	mov	r1, sl
   12324:	e285001c 	add	r0, r5, #28
   12328:	e50b3050 	str	r3, [fp, #-80]	; 0xffffffb0
   1232c:	eb004f7f 	bl	26130 <memcpy>
   12330:	e2862001 	add	r2, r6, #1
   12334:	e1a01008 	mov	r1, r8
   12338:	e0804004 	add	r4, r0, r4
   1233c:	e0846002 	add	r6, r4, r2
   12340:	e1a00004 	mov	r0, r4
   12344:	eb004f79 	bl	26130 <memcpy>
   12348:	e2872001 	add	r2, r7, #1
   1234c:	e1a01009 	mov	r1, r9
   12350:	e1a00006 	mov	r0, r6
   12354:	eb004f75 	bl	26130 <memcpy>
   12358:	e59b3008 	ldr	r3, [fp, #8]
   1235c:	e59f10bc 	ldr	r1, [pc, #188]	; 12420 <__dcigettext+0x7f0>
   12360:	e5853004 	str	r3, [r5, #4]
   12364:	e51b305c 	ldr	r3, [fp, #-92]	; 0xffffffa4
   12368:	e59f00f4 	ldr	r0, [pc, #244]	; 12464 <__dcigettext+0x834>
   1236c:	e51b2048 	ldr	r2, [fp, #-72]	; 0xffffffb8
   12370:	e5911000 	ldr	r1, [r1]
   12374:	e5853010 	str	r3, [r5, #16]
   12378:	e51b3050 	ldr	r3, [fp, #-80]	; 0xffffffb0
   1237c:	e3500000 	cmp	r0, #0
   12380:	e5856008 	str	r6, [r5, #8]
   12384:	e5854000 	str	r4, [r5]
   12388:	e5853014 	str	r3, [r5, #20]
   1238c:	e585100c 	str	r1, [r5, #12]
   12390:	e5852018 	str	r2, [r5, #24]
   12394:	0a000002 	beq	123a4 <__dcigettext+0x774>
   12398:	e59f0070 	ldr	r0, [pc, #112]	; 12410 <__dcigettext+0x7e0>
   1239c:	e1a00000 	nop			; (mov r0, r0)
   123a0:	e51b3050 	ldr	r3, [fp, #-80]	; 0xffffffb0
   123a4:	e59f2068 	ldr	r2, [pc, #104]	; 12414 <__dcigettext+0x7e4>
   123a8:	e59f1068 	ldr	r1, [pc, #104]	; 12418 <__dcigettext+0x7e8>
   123ac:	e1a00005 	mov	r0, r5
   123b0:	e50b3050 	str	r3, [fp, #-80]	; 0xffffffb0
   123b4:	eb00583c 	bl	284ac <__tsearch>
   123b8:	e59f305c 	ldr	r3, [pc, #92]	; 1241c <__dcigettext+0x7ec>
   123bc:	e3530000 	cmp	r3, #0
   123c0:	e51b3050 	ldr	r3, [fp, #-80]	; 0xffffffb0
   123c4:	e1a04000 	mov	r4, r0
   123c8:	0a000002 	beq	123d8 <__dcigettext+0x7a8>
   123cc:	e59f003c 	ldr	r0, [pc, #60]	; 12410 <__dcigettext+0x7e0>
   123d0:	e1a00000 	nop			; (mov r0, r0)
   123d4:	e51b3050 	ldr	r3, [fp, #-80]	; 0xffffffb0
   123d8:	e3540000 	cmp	r4, #0
   123dc:	0a000002 	beq	123ec <__dcigettext+0x7bc>
   123e0:	e5942000 	ldr	r2, [r4]
   123e4:	e1550002 	cmp	r5, r2
   123e8:	0affff96 	beq	12248 <__dcigettext+0x618>
   123ec:	e1a00005 	mov	r0, r5
   123f0:	e50b3050 	str	r3, [fp, #-80]	; 0xffffffb0
   123f4:	eb004276 	bl	22dd4 <__cfree>
   123f8:	e51b3050 	ldr	r3, [fp, #-80]	; 0xffffffb0
   123fc:	eaffff91 	b	12248 <__dcigettext+0x618>
   12400:	000833c0 	.word	0x000833c0
   12404:	00000000 	.word	0x00000000
   12408:	00096488 	.word	0x00096488
   1240c:	00096110 	.word	0x00096110
   12410:	00096130 	.word	0x00096130
   12414:	000110e0 	.word	0x000110e0
   12418:	000960f4 	.word	0x000960f4
   1241c:	00000000 	.word	0x00000000
   12420:	00096944 	.word	0x00096944
   12424:	00096940 	.word	0x00096940
   12428:	00001002 	.word	0x00001002
   1242c:	00083264 	.word	0x00083264
   12430:	00083284 	.word	0x00083284
   12434:	00072448 	.word	0x00072448
   12438:	000723bc 	.word	0x000723bc
   1243c:	00094fdc 	.word	0x00094fdc
   12440:	00071c64 	.word	0x00071c64
   12444:	0006fc1c 	.word	0x0006fc1c
   12448:	0006fc20 	.word	0x0006fc20
   1244c:	000830a0 	.word	0x000830a0
   12450:	0006fc10 	.word	0x0006fc10
   12454:	0006fc28 	.word	0x0006fc28
   12458:	00082eb4 	.word	0x00082eb4
   1245c:	0009508c 	.word	0x0009508c
   12460:	00082de8 	.word	0x00082de8
   12464:	00000000 	.word	0x00000000

00012468 <_nl_find_domain>:
   12468:	e59fc254 	ldr	ip, [pc, #596]	; 126c4 <_nl_find_domain+0x25c>
   1246c:	e92d4ff0 	push	{r4, r5, r6, r7, r8, r9, sl, fp, lr}
   12470:	e35c0000 	cmp	ip, #0
   12474:	e24dd03c 	sub	sp, sp, #60	; 0x3c
   12478:	e1a04000 	mov	r4, r0
   1247c:	e1a07001 	mov	r7, r1
   12480:	e1a09002 	mov	r9, r2
   12484:	e1a06003 	mov	r6, r3
   12488:	0a000001 	beq	12494 <_nl_find_domain+0x2c>
   1248c:	e59f0234 	ldr	r0, [pc, #564]	; 126c8 <_nl_find_domain+0x260>
   12490:	e1a00000 	nop			; (mov r0, r0)
   12494:	e1a00004 	mov	r0, r4
   12498:	eb004a30 	bl	24d60 <strlen>
   1249c:	e3a03000 	mov	r3, #0
   124a0:	e58d9014 	str	r9, [sp, #20]
   124a4:	e58d7000 	str	r7, [sp]
   124a8:	e58d3018 	str	r3, [sp, #24]
   124ac:	e58d3010 	str	r3, [sp, #16]
   124b0:	e58d300c 	str	r3, [sp, #12]
   124b4:	e58d3008 	str	r3, [sp, #8]
   124b8:	e58d3004 	str	r3, [sp, #4]
   124bc:	e1a01004 	mov	r1, r4
   124c0:	e59f8204 	ldr	r8, [pc, #516]	; 126cc <_nl_find_domain+0x264>
   124c4:	e2802001 	add	r2, r0, #1
   124c8:	e59f0200 	ldr	r0, [pc, #512]	; 126d0 <_nl_find_domain+0x268>
   124cc:	eb000710 	bl	14114 <_nl_make_l10nflist>
   124d0:	e3580000 	cmp	r8, #0
   124d4:	e1a05000 	mov	r5, r0
   124d8:	0a000001 	beq	124e4 <_nl_find_domain+0x7c>
   124dc:	e59f01e4 	ldr	r0, [pc, #484]	; 126c8 <_nl_find_domain+0x260>
   124e0:	e1a00000 	nop			; (mov r0, r0)
   124e4:	e3550000 	cmp	r5, #0
   124e8:	0a00001e 	beq	12568 <_nl_find_domain+0x100>
   124ec:	e5953004 	ldr	r3, [r5, #4]
   124f0:	e3530000 	cmp	r3, #0
   124f4:	da000017 	ble	12558 <_nl_find_domain+0xf0>
   124f8:	e5953008 	ldr	r3, [r5, #8]
   124fc:	e3530000 	cmp	r3, #0
   12500:	0a000002 	beq	12510 <_nl_find_domain+0xa8>
   12504:	e1a00005 	mov	r0, r5
   12508:	e28dd03c 	add	sp, sp, #60	; 0x3c
   1250c:	e8bd8ff0 	pop	{r4, r5, r6, r7, r8, r9, sl, fp, pc}
   12510:	e5950010 	ldr	r0, [r5, #16]
   12514:	e3500000 	cmp	r0, #0
   12518:	0afffff9 	beq	12504 <_nl_find_domain+0x9c>
   1251c:	e2854010 	add	r4, r5, #16
   12520:	ea000006 	b	12540 <_nl_find_domain+0xd8>
   12524:	e4943004 	ldr	r3, [r4], #4
   12528:	e5933008 	ldr	r3, [r3, #8]
   1252c:	e3530000 	cmp	r3, #0
   12530:	1afffff3 	bne	12504 <_nl_find_domain+0x9c>
   12534:	e5940000 	ldr	r0, [r4]
   12538:	e3500000 	cmp	r0, #0
   1253c:	0afffff0 	beq	12504 <_nl_find_domain+0x9c>
   12540:	e5903004 	ldr	r3, [r0, #4]
   12544:	e3530000 	cmp	r3, #0
   12548:	cafffff5 	bgt	12524 <_nl_find_domain+0xbc>
   1254c:	e1a01006 	mov	r1, r6
   12550:	eb000060 	bl	126d8 <_nl_load_domain>
   12554:	eafffff2 	b	12524 <_nl_find_domain+0xbc>
   12558:	e1a01006 	mov	r1, r6
   1255c:	e1a00005 	mov	r0, r5
   12560:	eb00005c 	bl	126d8 <_nl_load_domain>
   12564:	eaffffe3 	b	124f8 <_nl_find_domain+0x90>
   12568:	e1a00007 	mov	r0, r7
   1256c:	eb000680 	bl	13f74 <_nl_expand_alias>
   12570:	e250b000 	subs	fp, r0, #0
   12574:	0a000002 	beq	12584 <_nl_find_domain+0x11c>
   12578:	eb0049eb 	bl	24d2c <__strdup>
   1257c:	e2507000 	subs	r7, r0, #0
   12580:	0affffdf 	beq	12504 <_nl_find_domain+0x9c>
   12584:	e28d2034 	add	r2, sp, #52	; 0x34
   12588:	e28d3030 	add	r3, sp, #48	; 0x30
   1258c:	e58d2004 	str	r2, [sp, #4]
   12590:	e58d3000 	str	r3, [sp]
   12594:	e28d2028 	add	r2, sp, #40	; 0x28
   12598:	e28d302c 	add	r3, sp, #44	; 0x2c
   1259c:	e28d1024 	add	r1, sp, #36	; 0x24
   125a0:	e1a00007 	mov	r0, r7
   125a4:	eb000860 	bl	1472c <_nl_explode_name>
   125a8:	e3700001 	cmn	r0, #1
   125ac:	e1a0a000 	mov	sl, r0
   125b0:	0affffd3 	beq	12504 <_nl_find_domain+0x9c>
   125b4:	e59f3118 	ldr	r3, [pc, #280]	; 126d4 <_nl_find_domain+0x26c>
   125b8:	e3530000 	cmp	r3, #0
   125bc:	0a000001 	beq	125c8 <_nl_find_domain+0x160>
   125c0:	e59f0100 	ldr	r0, [pc, #256]	; 126c8 <_nl_find_domain+0x260>
   125c4:	e1a00000 	nop			; (mov r0, r0)
   125c8:	e1a00004 	mov	r0, r4
   125cc:	eb0049e3 	bl	24d60 <strlen>
   125d0:	e59dc028 	ldr	ip, [sp, #40]	; 0x28
   125d4:	e59d2034 	ldr	r2, [sp, #52]	; 0x34
   125d8:	e59d3030 	ldr	r3, [sp, #48]	; 0x30
   125dc:	e58dc010 	str	ip, [sp, #16]
   125e0:	e58d200c 	str	r2, [sp, #12]
   125e4:	e59dc02c 	ldr	ip, [sp, #44]	; 0x2c
   125e8:	e59d2024 	ldr	r2, [sp, #36]	; 0x24
   125ec:	e58d3008 	str	r3, [sp, #8]
   125f0:	e3a03001 	mov	r3, #1
   125f4:	e88d1004 	stm	sp, {r2, ip}
   125f8:	e58d3018 	str	r3, [sp, #24]
   125fc:	e58d9014 	str	r9, [sp, #20]
   12600:	e1a01004 	mov	r1, r4
   12604:	e1a0300a 	mov	r3, sl
   12608:	e2802001 	add	r2, r0, #1
   1260c:	e59f00bc 	ldr	r0, [pc, #188]	; 126d0 <_nl_find_domain+0x268>
   12610:	eb0006bf 	bl	14114 <_nl_make_l10nflist>
   12614:	e3580000 	cmp	r8, #0
   12618:	e1a05000 	mov	r5, r0
   1261c:	0a000001 	beq	12628 <_nl_find_domain+0x1c0>
   12620:	e59f00a0 	ldr	r0, [pc, #160]	; 126c8 <_nl_find_domain+0x260>
   12624:	e1a00000 	nop			; (mov r0, r0)
   12628:	e3550000 	cmp	r5, #0
   1262c:	0a000009 	beq	12658 <_nl_find_domain+0x1f0>
   12630:	e5953004 	ldr	r3, [r5, #4]
   12634:	e3530000 	cmp	r3, #0
   12638:	da00001d 	ble	126b4 <_nl_find_domain+0x24c>
   1263c:	e5953008 	ldr	r3, [r5, #8]
   12640:	e3530000 	cmp	r3, #0
   12644:	0a000008 	beq	1266c <_nl_find_domain+0x204>
   12648:	e35b0000 	cmp	fp, #0
   1264c:	0a000001 	beq	12658 <_nl_find_domain+0x1f0>
   12650:	e1a00007 	mov	r0, r7
   12654:	eb0041de 	bl	22dd4 <__cfree>
   12658:	e31a0001 	tst	sl, #1
   1265c:	0affffa8 	beq	12504 <_nl_find_domain+0x9c>
   12660:	e59d0034 	ldr	r0, [sp, #52]	; 0x34
   12664:	eb0041da 	bl	22dd4 <__cfree>
   12668:	eaffffa5 	b	12504 <_nl_find_domain+0x9c>
   1266c:	e5950010 	ldr	r0, [r5, #16]
   12670:	e3500000 	cmp	r0, #0
   12674:	0afffff3 	beq	12648 <_nl_find_domain+0x1e0>
   12678:	e2854010 	add	r4, r5, #16
   1267c:	ea000006 	b	1269c <_nl_find_domain+0x234>
   12680:	e4943004 	ldr	r3, [r4], #4
   12684:	e5933008 	ldr	r3, [r3, #8]
   12688:	e3530000 	cmp	r3, #0
   1268c:	1affffed 	bne	12648 <_nl_find_domain+0x1e0>
   12690:	e5940000 	ldr	r0, [r4]
   12694:	e3500000 	cmp	r0, #0
   12698:	0affffea 	beq	12648 <_nl_find_domain+0x1e0>
   1269c:	e5903004 	ldr	r3, [r0, #4]
   126a0:	e3530000 	cmp	r3, #0
   126a4:	cafffff5 	bgt	12680 <_nl_find_domain+0x218>
   126a8:	e1a01006 	mov	r1, r6
   126ac:	eb000009 	bl	126d8 <_nl_load_domain>
   126b0:	eafffff2 	b	12680 <_nl_find_domain+0x218>
   126b4:	e1a01006 	mov	r1, r6
   126b8:	e1a00005 	mov	r0, r5
   126bc:	eb000005 	bl	126d8 <_nl_load_domain>
   126c0:	eaffffdd 	b	1263c <_nl_find_domain+0x1d4>
   126c4:	00000000 	.word	0x00000000
   126c8:	00096150 	.word	0x00096150
   126cc:	00000000 	.word	0x00000000
   126d0:	00096170 	.word	0x00096170
   126d4:	00000000 	.word	0x00000000

000126d8 <_nl_load_domain>:
   126d8:	e92d4ff0 	push	{r4, r5, r6, r7, r8, r9, sl, fp, lr}
   126dc:	e28db020 	add	fp, sp, #32
   126e0:	e59f4fbc 	ldr	r4, [pc, #4028]	; 136a4 <_nl_load_domain+0xfcc>
   126e4:	e24dd0d4 	sub	sp, sp, #212	; 0xd4
   126e8:	e5943008 	ldr	r3, [r4, #8]
   126ec:	e1a06000 	mov	r6, r0
   126f0:	ebfff992 	bl	10d40 <__aeabi_read_tp>
   126f4:	e2405d13 	sub	r5, r0, #1216	; 0x4c0
   126f8:	e1550003 	cmp	r5, r3
   126fc:	e50b1098 	str	r1, [fp, #-152]	; 0xffffff68
   12700:	0a00000b 	beq	12734 <_nl_load_domain+0x5c>
   12704:	e3a03000 	mov	r3, #0
   12708:	e50b308c 	str	r3, [fp, #-140]	; 0xffffff74
   1270c:	e3a03001 	mov	r3, #1
   12710:	e1942f9f 	ldrex	r2, [r4]
   12714:	e3520000 	cmp	r2, #0
   12718:	1a000003 	bne	1272c <_nl_load_domain+0x54>
   1271c:	e1841f93 	strex	r1, r3, [r4]
   12720:	e3510000 	cmp	r1, #0
   12724:	1afffff9 	bne	12710 <_nl_load_domain+0x38>
   12728:	ee070fba 	mcr	15, 0, r0, cr7, cr10, {5}
   1272c:	1a0000e8 	bne	12ad4 <_nl_load_domain+0x3fc>
   12730:	e5845008 	str	r5, [r4, #8]
   12734:	e5943004 	ldr	r3, [r4, #4]
   12738:	e5961004 	ldr	r1, [r6, #4]
   1273c:	e2833001 	add	r3, r3, #1
   12740:	e3510000 	cmp	r1, #0
   12744:	e5843004 	str	r3, [r4, #4]
   12748:	1a0000db 	bne	12abc <_nl_load_domain+0x3e4>
   1274c:	e5960000 	ldr	r0, [r6]
   12750:	e3e02000 	mvn	r2, #0
   12754:	e3500000 	cmp	r0, #0
   12758:	e5861008 	str	r1, [r6, #8]
   1275c:	e5862004 	str	r2, [r6, #4]
   12760:	0a0000d3 	beq	12ab4 <_nl_load_domain+0x3dc>
   12764:	e3a07005 	mov	r7, #5
   12768:	ef000000 	svc	0x00000000
   1276c:	e3700a01 	cmn	r0, #4096	; 0x1000
   12770:	e1a05000 	mov	r5, r0
   12774:	8a0000c8 	bhi	12a9c <_nl_load_domain+0x3c4>
   12778:	e1a01000 	mov	r1, r0
   1277c:	e24b208c 	sub	r2, fp, #140	; 0x8c
   12780:	e3a00003 	mov	r0, #3
   12784:	eb005322 	bl	27414 <___fxstat64>
   12788:	e2503000 	subs	r3, r0, #0
   1278c:	e1a01003 	mov	r1, r3
   12790:	e50b309c 	str	r3, [fp, #-156]	; 0xffffff64
   12794:	1a0000d9 	bne	12b00 <_nl_load_domain+0x428>
   12798:	e14b25dc 	ldrd	r2, [fp, #-92]	; 0xffffffa4
   1279c:	e1a09003 	mov	r9, r3
   127a0:	e3a03000 	mov	r3, #0
   127a4:	e1530009 	cmp	r3, r9
   127a8:	e1a08002 	mov	r8, r2
   127ac:	01520008 	cmpeq	r2, r8
   127b0:	13a03001 	movne	r3, #1
   127b4:	03a03000 	moveq	r3, #0
   127b8:	e358002f 	cmp	r8, #47	; 0x2f
   127bc:	93833001 	orrls	r3, r3, #1
   127c0:	e3530000 	cmp	r3, #0
   127c4:	e14b8af4 	strd	r8, [fp, #-164]	; 0xffffff5c
   127c8:	1a0000cc 	bne	12b00 <_nl_load_domain+0x428>
   127cc:	e58d1004 	str	r1, [sp, #4]
   127d0:	e58d5000 	str	r5, [sp]
   127d4:	e1a01008 	mov	r1, r8
   127d8:	e3a03002 	mov	r3, #2
   127dc:	e3a02001 	mov	r2, #1
   127e0:	eb005642 	bl	280f0 <__mmap>
   127e4:	e3700001 	cmn	r0, #1
   127e8:	e1a08000 	mov	r8, r0
   127ec:	0a000174 	beq	12dc4 <_nl_load_domain+0x6ec>
   127f0:	e1a00005 	mov	r0, r5
   127f4:	e3a07006 	mov	r7, #6
   127f8:	ef000000 	svc	0x00000000
   127fc:	e59f2ea4 	ldr	r2, [pc, #3748]	; 136a8 <_nl_load_domain+0xfd0>
   12800:	e5983000 	ldr	r3, [r8]
   12804:	e59f1ea0 	ldr	r1, [pc, #3744]	; 136ac <_nl_load_domain+0xfd4>
   12808:	e0537002 	subs	r7, r3, r2
   1280c:	13a07001 	movne	r7, #1
   12810:	e1530001 	cmp	r3, r1
   12814:	11530002 	cmpne	r3, r2
   12818:	1a0001ac 	bne	12ed0 <_nl_load_domain+0x7f8>
   1281c:	e3a03001 	mov	r3, #1
   12820:	e50b309c 	str	r3, [fp, #-156]	; 0xffffff64
   12824:	e3a00068 	mov	r0, #104	; 0x68
   12828:	eb003fef 	bl	227ec <__libc_malloc>
   1282c:	e2505000 	subs	r5, r0, #0
   12830:	0a0000d6 	beq	12b90 <_nl_load_domain+0x4b8>
   12834:	e51b309c 	ldr	r3, [fp, #-156]	; 0xffffff64
   12838:	e3a00000 	mov	r0, #0
   1283c:	e5853004 	str	r3, [r5, #4]
   12840:	e51b30a4 	ldr	r3, [fp, #-164]	; 0xffffff5c
   12844:	e3570000 	cmp	r7, #0
   12848:	e5853008 	str	r3, [r5, #8]
   1284c:	e5865008 	str	r5, [r6, #8]
   12850:	e5858000 	str	r8, [r5]
   12854:	e585700c 	str	r7, [r5, #12]
   12858:	e5850010 	str	r0, [r5, #16]
   1285c:	e5983004 	ldr	r3, [r8, #4]
   12860:	0a0000cc 	beq	12b98 <_nl_load_domain+0x4c0>
   12864:	e6bf3f33 	rev	r3, r3
   12868:	e3530802 	cmp	r3, #131072	; 0x20000
   1286c:	2a0000bc 	bcs	12b64 <_nl_load_domain+0x48c>
   12870:	e2880008 	add	r0, r8, #8
   12874:	e8901007 	ldm	r0, {r0, r1, r2, ip}
   12878:	e6bfef3c 	rev	lr, ip
   1287c:	e6bf1f31 	rev	r1, r1
   12880:	e6bf2f32 	rev	r2, r2
   12884:	e0881001 	add	r1, r8, r1
   12888:	e6bf0f30 	rev	r0, r0
   1288c:	e0882002 	add	r2, r8, r2
   12890:	e35e0002 	cmp	lr, #2
   12894:	e5851018 	str	r1, [r5, #24]
   12898:	e5850014 	str	r0, [r5, #20]
   1289c:	e585201c 	str	r2, [r5, #28]
   128a0:	e585e02c 	str	lr, [r5, #44]	; 0x2c
   128a4:	9a0000e7 	bls	12c48 <_nl_load_domain+0x570>
   128a8:	e5982018 	ldr	r2, [r8, #24]
   128ac:	e6bf2f32 	rev	r2, r2
   128b0:	e6ff3073 	uxth	r3, r3
   128b4:	e3530000 	cmp	r3, #0
   128b8:	e0883002 	add	r3, r8, r2
   128bc:	e5853030 	str	r3, [r5, #48]	; 0x30
   128c0:	e5857034 	str	r7, [r5, #52]	; 0x34
   128c4:	0a0000c6 	beq	12be4 <_nl_load_domain+0x50c>
   128c8:	e3530000 	cmp	r3, #0
   128cc:	0a0000e3 	beq	12c60 <_nl_load_domain+0x588>
   128d0:	e3570000 	cmp	r7, #0
   128d4:	e5983024 	ldr	r3, [r8, #36]	; 0x24
   128d8:	0a0000e2 	beq	12c68 <_nl_load_domain+0x590>
   128dc:	e6bf3f33 	rev	r3, r3
   128e0:	e3530000 	cmp	r3, #0
   128e4:	e50b30ac 	str	r3, [fp, #-172]	; 0xffffff54
   128e8:	0a0000bd 	beq	12be4 <_nl_load_domain+0x50c>
   128ec:	e598301c 	ldr	r3, [r8, #28]
   128f0:	e5982020 	ldr	r2, [r8, #32]
   128f4:	e6bf3f33 	rev	r3, r3
   128f8:	e50b30c0 	str	r3, [fp, #-192]	; 0xffffff40
   128fc:	e3530000 	cmp	r3, #0
   12900:	e1a03103 	lsl	r3, r3, #2
   12904:	e283300e 	add	r3, r3, #14
   12908:	e3c33007 	bic	r3, r3, #7
   1290c:	e04dd003 	sub	sp, sp, r3
   12910:	e6bf2f32 	rev	r2, r2
   12914:	e28d3008 	add	r3, sp, #8
   12918:	e50b30b4 	str	r3, [fp, #-180]	; 0xffffff4c
   1291c:	e088c002 	add	ip, r8, r2
   12920:	0a000172 	beq	12ef0 <_nl_load_domain+0x818>
   12924:	e51b30b4 	ldr	r3, [fp, #-180]	; 0xffffff4c
   12928:	e50be0b0 	str	lr, [fp, #-176]	; 0xffffff50
   1292c:	e243a004 	sub	sl, r3, #4
   12930:	e1a0900c 	mov	r9, ip
   12934:	e3a00000 	mov	r0, #0
   12938:	e50b50a8 	str	r5, [fp, #-168]	; 0xffffff58
   1293c:	e51be0c0 	ldr	lr, [fp, #-192]	; 0xffffff40
   12940:	ea00000b 	b	12974 <_nl_load_domain+0x29c>
   12944:	e3510049 	cmp	r1, #73	; 0x49
   12948:	1a000004 	bne	12960 <_nl_load_domain+0x288>
   1294c:	e5d32001 	ldrb	r2, [r3, #1]
   12950:	e59f3d58 	ldr	r3, [pc, #3416]	; 136b0 <_nl_load_domain+0xfd8>
   12954:	e3520000 	cmp	r2, #0
   12958:	13a03000 	movne	r3, #0
   1295c:	e1a02003 	mov	r2, r3
   12960:	e2800001 	add	r0, r0, #1
   12964:	e15e0000 	cmp	lr, r0
   12968:	e5aa2004 	str	r2, [sl, #4]!
   1296c:	e2899008 	add	r9, r9, #8
   12970:	9a00015a 	bls	12ee0 <_nl_load_domain+0x808>
   12974:	e5993004 	ldr	r3, [r9, #4]
   12978:	e79c2180 	ldr	r2, [ip, r0, lsl #3]
   1297c:	e3570000 	cmp	r7, #0
   12980:	16bf3f33 	revne	r3, r3
   12984:	16bf2f32 	revne	r2, r2
   12988:	10883003 	addne	r3, r8, r3
   1298c:	00883003 	addeq	r3, r8, r3
   12990:	e3520000 	cmp	r2, #0
   12994:	0a00014a 	beq	12ec4 <_nl_load_domain+0x7ec>
   12998:	e0832002 	add	r2, r3, r2
   1299c:	e5522001 	ldrb	r2, [r2, #-1]
   129a0:	e3520000 	cmp	r2, #0
   129a4:	1a000146 	bne	12ec4 <_nl_load_domain+0x7ec>
   129a8:	e5d31000 	ldrb	r1, [r3]
   129ac:	e3510050 	cmp	r1, #80	; 0x50
   129b0:	1affffe3 	bne	12944 <_nl_load_domain+0x26c>
   129b4:	e5d31001 	ldrb	r1, [r3, #1]
   129b8:	e3510052 	cmp	r1, #82	; 0x52
   129bc:	1affffe7 	bne	12960 <_nl_load_domain+0x288>
   129c0:	e5d31002 	ldrb	r1, [r3, #2]
   129c4:	e3510049 	cmp	r1, #73	; 0x49
   129c8:	1affffe4 	bne	12960 <_nl_load_domain+0x288>
   129cc:	e5d31003 	ldrb	r1, [r3, #3]
   129d0:	e3510069 	cmp	r1, #105	; 0x69
   129d4:	13510064 	cmpne	r1, #100	; 0x64
   129d8:	03a05001 	moveq	r5, #1
   129dc:	13a05000 	movne	r5, #0
   129e0:	e50b50b8 	str	r5, [fp, #-184]	; 0xffffff48
   129e4:	e351006f 	cmp	r1, #111	; 0x6f
   129e8:	03855001 	orreq	r5, r5, #1
   129ec:	e50b50bc 	str	r5, [fp, #-188]	; 0xffffff44
   129f0:	e3510075 	cmp	r1, #117	; 0x75
   129f4:	03855001 	orreq	r5, r5, #1
   129f8:	e50b50c4 	str	r5, [fp, #-196]	; 0xffffff3c
   129fc:	e3510078 	cmp	r1, #120	; 0x78
   12a00:	03855001 	orreq	r5, r5, #1
   12a04:	e50b50c8 	str	r5, [fp, #-200]	; 0xffffff38
   12a08:	e3510058 	cmp	r1, #88	; 0x58
   12a0c:	03855001 	orreq	r5, r5, #1
   12a10:	e3550000 	cmp	r5, #0
   12a14:	01a02005 	moveq	r2, r5
   12a18:	0affffd0 	beq	12960 <_nl_load_domain+0x288>
   12a1c:	e5d35004 	ldrb	r5, [r3, #4]
   12a20:	e3550038 	cmp	r5, #56	; 0x38
   12a24:	0a000137 	beq	12f08 <_nl_load_domain+0x830>
   12a28:	e3550031 	cmp	r5, #49	; 0x31
   12a2c:	0a000149 	beq	12f58 <_nl_load_domain+0x880>
   12a30:	e3550033 	cmp	r5, #51	; 0x33
   12a34:	1a00015f 	bne	12fb8 <_nl_load_domain+0x8e0>
   12a38:	e5d32005 	ldrb	r2, [r3, #5]
   12a3c:	e3520032 	cmp	r2, #50	; 0x32
   12a40:	13a02000 	movne	r2, #0
   12a44:	1affffc5 	bne	12960 <_nl_load_domain+0x288>
   12a48:	e5d33006 	ldrb	r3, [r3, #6]
   12a4c:	e3530000 	cmp	r3, #0
   12a50:	13a02000 	movne	r2, #0
   12a54:	1affffc1 	bne	12960 <_nl_load_domain+0x288>
   12a58:	e3510064 	cmp	r1, #100	; 0x64
   12a5c:	0a00026f 	beq	13420 <_nl_load_domain+0xd48>
   12a60:	e51b30b8 	ldr	r3, [fp, #-184]	; 0xffffff48
   12a64:	e3530000 	cmp	r3, #0
   12a68:	1a000278 	bne	13450 <_nl_load_domain+0xd78>
   12a6c:	e51b30bc 	ldr	r3, [fp, #-188]	; 0xffffff44
   12a70:	e3530000 	cmp	r3, #0
   12a74:	1a000273 	bne	13448 <_nl_load_domain+0xd70>
   12a78:	e51b30c4 	ldr	r3, [fp, #-196]	; 0xffffff3c
   12a7c:	e3530000 	cmp	r3, #0
   12a80:	1a000274 	bne	13458 <_nl_load_domain+0xd80>
   12a84:	e51b10c8 	ldr	r1, [fp, #-200]	; 0xffffff38
   12a88:	e59f3c48 	ldr	r3, [pc, #3144]	; 136d8 <_nl_load_domain+0x1000>
   12a8c:	e3510000 	cmp	r1, #0
   12a90:	e59f2c44 	ldr	r2, [pc, #3140]	; 136dc <_nl_load_domain+0x1004>
   12a94:	11a02003 	movne	r2, r3
   12a98:	eaffffb0 	b	12960 <_nl_load_domain+0x288>
   12a9c:	e59f2c10 	ldr	r2, [pc, #3088]	; 136b4 <_nl_load_domain+0xfdc>
   12aa0:	e5943004 	ldr	r3, [r4, #4]
   12aa4:	e2605000 	rsb	r5, r0, #0
   12aa8:	e79f2002 	ldr	r2, [pc, r2]
   12aac:	ebfff8a3 	bl	10d40 <__aeabi_read_tp>
   12ab0:	e7805002 	str	r5, [r0, r2]
   12ab4:	e3a02001 	mov	r2, #1
   12ab8:	e5862004 	str	r2, [r6, #4]
   12abc:	e2433001 	sub	r3, r3, #1
   12ac0:	e3530000 	cmp	r3, #0
   12ac4:	e5843004 	str	r3, [r4, #4]
   12ac8:	0a000011 	beq	12b14 <_nl_load_domain+0x43c>
   12acc:	e24bd020 	sub	sp, fp, #32
   12ad0:	e8bd8ff0 	pop	{r4, r5, r6, r7, r8, r9, sl, fp, pc}
   12ad4:	e1a00004 	mov	r0, r4
   12ad8:	e50b208c 	str	r2, [fp, #-140]	; 0xffffff74
   12adc:	eb005a12 	bl	2932c <__lll_lock_wait_private>
   12ae0:	eaffff12 	b	12730 <_nl_load_domain+0x58>
   12ae4:	e59f1bcc 	ldr	r1, [pc, #3020]	; 136b8 <_nl_load_domain+0xfe0>
   12ae8:	e2602000 	rsb	r2, r0, #0
   12aec:	ebfff893 	bl	10d40 <__aeabi_read_tp>
   12af0:	e79f1001 	ldr	r1, [pc, r1]
   12af4:	e3520004 	cmp	r2, #4
   12af8:	e7802001 	str	r2, [r0, r1]
   12afc:	0a0000c2 	beq	12e0c <_nl_load_domain+0x734>
   12b00:	e1a00005 	mov	r0, r5
   12b04:	e3a07006 	mov	r7, #6
   12b08:	ef000000 	svc	0x00000000
   12b0c:	e5943004 	ldr	r3, [r4, #4]
   12b10:	eaffffe7 	b	12ab4 <_nl_load_domain+0x3dc>
   12b14:	e5843008 	str	r3, [r4, #8]
   12b18:	ee070fba 	mcr	15, 0, r0, cr7, cr10, {5}
   12b1c:	e1942f9f 	ldrex	r2, [r4]
   12b20:	e1841f93 	strex	r1, r3, [r4]
   12b24:	e3510000 	cmp	r1, #0
   12b28:	1afffffb 	bne	12b1c <_nl_load_domain+0x444>
   12b2c:	e3520001 	cmp	r2, #1
   12b30:	daffffe5 	ble	12acc <_nl_load_domain+0x3f4>
   12b34:	e59f0b68 	ldr	r0, [pc, #2920]	; 136a4 <_nl_load_domain+0xfcc>
   12b38:	e3a01081 	mov	r1, #129	; 0x81
   12b3c:	e3a02001 	mov	r2, #1
   12b40:	e3a070f0 	mov	r7, #240	; 0xf0
   12b44:	ef000000 	svc	0x00000000
   12b48:	eaffffdf 	b	12acc <_nl_load_domain+0x3f4>
   12b4c:	e59f3b68 	ldr	r3, [pc, #2920]	; 136bc <_nl_load_domain+0xfe4>
   12b50:	e3530000 	cmp	r3, #0
   12b54:	0a000041 	beq	12c60 <_nl_load_domain+0x588>
   12b58:	e2850040 	add	r0, r5, #64	; 0x40
   12b5c:	e1a00000 	nop			; (mov r0, r0)
   12b60:	e5950010 	ldr	r0, [r5, #16]
   12b64:	eb00409a 	bl	22dd4 <__cfree>
   12b68:	e51b309c 	ldr	r3, [fp, #-156]	; 0xffffff64
   12b6c:	e3530000 	cmp	r3, #0
   12b70:	0a000016 	beq	12bd0 <_nl_load_domain+0x4f8>
   12b74:	e51b10a4 	ldr	r1, [fp, #-164]	; 0xffffff5c
   12b78:	e1a00008 	mov	r0, r8
   12b7c:	eb00559f 	bl	28200 <__munmap>
   12b80:	e1a00005 	mov	r0, r5
   12b84:	eb004092 	bl	22dd4 <__cfree>
   12b88:	e3a03000 	mov	r3, #0
   12b8c:	e5863008 	str	r3, [r6, #8]
   12b90:	e5943004 	ldr	r3, [r4, #4]
   12b94:	eaffffc6 	b	12ab4 <_nl_load_domain+0x3dc>
   12b98:	e3530802 	cmp	r3, #131072	; 0x20000
   12b9c:	2a00000e 	bcs	12bdc <_nl_load_domain+0x504>
   12ba0:	e2880008 	add	r0, r8, #8
   12ba4:	e8904007 	ldm	r0, {r0, r1, r2, lr}
   12ba8:	e0881001 	add	r1, r8, r1
   12bac:	e0882002 	add	r2, r8, r2
   12bb0:	e35e0002 	cmp	lr, #2
   12bb4:	e5851018 	str	r1, [r5, #24]
   12bb8:	e5850014 	str	r0, [r5, #20]
   12bbc:	e585201c 	str	r2, [r5, #28]
   12bc0:	e585e02c 	str	lr, [r5, #44]	; 0x2c
   12bc4:	9a00001f 	bls	12c48 <_nl_load_domain+0x570>
   12bc8:	e5982018 	ldr	r2, [r8, #24]
   12bcc:	eaffff37 	b	128b0 <_nl_load_domain+0x1d8>
   12bd0:	e1a00008 	mov	r0, r8
   12bd4:	eb00407e 	bl	22dd4 <__cfree>
   12bd8:	eaffffe8 	b	12b80 <_nl_load_domain+0x4a8>
   12bdc:	e1a00007 	mov	r0, r7
   12be0:	eaffffdf 	b	12b64 <_nl_load_domain+0x48c>
   12be4:	e3a03000 	mov	r3, #0
   12be8:	e5853020 	str	r3, [r5, #32]
   12bec:	e5853024 	str	r3, [r5, #36]	; 0x24
   12bf0:	e5853028 	str	r3, [r5, #40]	; 0x28
   12bf4:	e59f3ac4 	ldr	r3, [pc, #2756]	; 136c0 <_nl_load_domain+0xfe8>
   12bf8:	e3a01000 	mov	r1, #0
   12bfc:	e1530001 	cmp	r3, r1
   12c00:	e5851038 	str	r1, [r5, #56]	; 0x38
   12c04:	e585103c 	str	r1, [r5, #60]	; 0x3c
   12c08:	0a000001 	beq	12c14 <_nl_load_domain+0x53c>
   12c0c:	e2850040 	add	r0, r5, #64	; 0x40
   12c10:	e1a00000 	nop			; (mov r0, r0)
   12c14:	e24b3094 	sub	r3, fp, #148	; 0x94
   12c18:	e58d3000 	str	r3, [sp]
   12c1c:	e51b1098 	ldr	r1, [fp, #-152]	; 0xffffff68
   12c20:	e3a03000 	mov	r3, #0
   12c24:	e59f2a98 	ldr	r2, [pc, #2712]	; 136c4 <_nl_load_domain+0xfec>
   12c28:	e1a00006 	mov	r0, r6
   12c2c:	ebfff95e 	bl	111ac <_nl_find_msg>
   12c30:	e3700001 	cmn	r0, #1
   12c34:	0affffc4 	beq	12b4c <_nl_load_domain+0x474>
   12c38:	e2852064 	add	r2, r5, #100	; 0x64
   12c3c:	e2851060 	add	r1, r5, #96	; 0x60
   12c40:	eb0009c6 	bl	15360 <__gettext_extract_plural>
   12c44:	eaffffd1 	b	12b90 <_nl_load_domain+0x4b8>
   12c48:	e6ff3073 	uxth	r3, r3
   12c4c:	e3530000 	cmp	r3, #0
   12c50:	e3a03000 	mov	r3, #0
   12c54:	e5857034 	str	r7, [r5, #52]	; 0x34
   12c58:	e5853030 	str	r3, [r5, #48]	; 0x30
   12c5c:	0affffe0 	beq	12be4 <_nl_load_domain+0x50c>
   12c60:	e5950010 	ldr	r0, [r5, #16]
   12c64:	eaffffbe 	b	12b64 <_nl_load_domain+0x48c>
   12c68:	e3530000 	cmp	r3, #0
   12c6c:	e50b30ac 	str	r3, [fp, #-172]	; 0xffffff54
   12c70:	0affffdb 	beq	12be4 <_nl_load_domain+0x50c>
   12c74:	e598301c 	ldr	r3, [r8, #28]
   12c78:	e5982020 	ldr	r2, [r8, #32]
   12c7c:	e50b30c0 	str	r3, [fp, #-192]	; 0xffffff40
   12c80:	e3530000 	cmp	r3, #0
   12c84:	e1a03103 	lsl	r3, r3, #2
   12c88:	e283300e 	add	r3, r3, #14
   12c8c:	e3c33007 	bic	r3, r3, #7
   12c90:	e04dd003 	sub	sp, sp, r3
   12c94:	e28d3008 	add	r3, sp, #8
   12c98:	e50b30b4 	str	r3, [fp, #-180]	; 0xffffff4c
   12c9c:	e088c002 	add	ip, r8, r2
   12ca0:	1affff1f 	bne	12924 <_nl_load_domain+0x24c>
   12ca4:	e5983028 	ldr	r3, [r8, #40]	; 0x28
   12ca8:	e598202c 	ldr	r2, [r8, #44]	; 0x2c
   12cac:	e0883003 	add	r3, r8, r3
   12cb0:	e50b50d4 	str	r5, [fp, #-212]	; 0xffffff2c
   12cb4:	e51b50c0 	ldr	r5, [fp, #-192]	; 0xffffff40
   12cb8:	e50b60c0 	str	r6, [fp, #-192]	; 0xffffff40
   12cbc:	e51b60b4 	ldr	r6, [fp, #-180]	; 0xffffff4c
   12cc0:	e1a0110e 	lsl	r1, lr, #2
   12cc4:	e0882002 	add	r2, r8, r2
   12cc8:	e3a00000 	mov	r0, #0
   12ccc:	e50b10d8 	str	r1, [fp, #-216]	; 0xffffff28
   12cd0:	e50b30d0 	str	r3, [fp, #-208]	; 0xffffff30
   12cd4:	e50b20cc 	str	r2, [fp, #-204]	; 0xffffff34
   12cd8:	e50b00c4 	str	r0, [fp, #-196]	; 0xffffff3c
   12cdc:	e50b20a8 	str	r2, [fp, #-168]	; 0xffffff58
   12ce0:	e50b30bc 	str	r3, [fp, #-188]	; 0xffffff44
   12ce4:	e50b10c8 	str	r1, [fp, #-200]	; 0xffffff38
   12ce8:	e50b00b0 	str	r0, [fp, #-176]	; 0xffffff50
   12cec:	e50b80b8 	str	r8, [fp, #-184]	; 0xffffff48
   12cf0:	e3a09000 	mov	r9, #0
   12cf4:	e3570000 	cmp	r7, #0
   12cf8:	0a00006c 	beq	12eb0 <_nl_load_domain+0x7d8>
   12cfc:	e3590000 	cmp	r9, #0
   12d00:	051b30bc 	ldreq	r3, [fp, #-188]	; 0xffffff44
   12d04:	151b30a8 	ldrne	r3, [fp, #-168]	; 0xffffff58
   12d08:	e5933000 	ldr	r3, [r3]
   12d0c:	e6bfaf33 	rev	sl, r3
   12d10:	e51b30b8 	ldr	r3, [fp, #-184]	; 0xffffff48
   12d14:	e083a00a 	add	sl, r3, sl
   12d18:	e59a3008 	ldr	r3, [sl, #8]
   12d1c:	e2933001 	adds	r3, r3, #1
   12d20:	13a03001 	movne	r3, #1
   12d24:	e3530000 	cmp	r3, #0
   12d28:	1a000047 	bne	12e4c <_nl_load_domain+0x774>
   12d2c:	e3a08000 	mov	r8, #0
   12d30:	e24b3094 	sub	r3, fp, #148	; 0x94
   12d34:	e7838109 	str	r8, [r3, r9, lsl #2]
   12d38:	e2899001 	add	r9, r9, #1
   12d3c:	e3590002 	cmp	r9, #2
   12d40:	1affffeb 	bne	12cf4 <_nl_load_domain+0x61c>
   12d44:	e51b2090 	ldr	r2, [fp, #-144]	; 0xffffff70
   12d48:	e51b3094 	ldr	r3, [fp, #-148]	; 0xffffff6c
   12d4c:	e51b10b0 	ldr	r1, [fp, #-176]	; 0xffffff50
   12d50:	e0833002 	add	r3, r3, r2
   12d54:	e51b20c8 	ldr	r2, [fp, #-200]	; 0xffffff38
   12d58:	e2811001 	add	r1, r1, #1
   12d5c:	e0823003 	add	r3, r2, r3
   12d60:	e50b10b0 	str	r1, [fp, #-176]	; 0xffffff50
   12d64:	e50b30c8 	str	r3, [fp, #-200]	; 0xffffff38
   12d68:	e51b30c4 	ldr	r3, [fp, #-196]	; 0xffffff3c
   12d6c:	e51b20ac 	ldr	r2, [fp, #-172]	; 0xffffff54
   12d70:	e2833001 	add	r3, r3, #1
   12d74:	e50b30c4 	str	r3, [fp, #-196]	; 0xffffff3c
   12d78:	e1530002 	cmp	r3, r2
   12d7c:	e51b30bc 	ldr	r3, [fp, #-188]	; 0xffffff44
   12d80:	e2833004 	add	r3, r3, #4
   12d84:	e50b30bc 	str	r3, [fp, #-188]	; 0xffffff44
   12d88:	e51b30a8 	ldr	r3, [fp, #-168]	; 0xffffff58
   12d8c:	e2833004 	add	r3, r3, #4
   12d90:	e50b30a8 	str	r3, [fp, #-168]	; 0xffffff58
   12d94:	3affffd5 	bcc	12cf0 <_nl_load_domain+0x618>
   12d98:	e51b30b0 	ldr	r3, [fp, #-176]	; 0xffffff50
   12d9c:	e51b80b8 	ldr	r8, [fp, #-184]	; 0xffffff48
   12da0:	e3530000 	cmp	r3, #0
   12da4:	e51b50d4 	ldr	r5, [fp, #-212]	; 0xffffff2c
   12da8:	e51b60c0 	ldr	r6, [fp, #-192]	; 0xffffff40
   12dac:	1a00009c 	bne	13024 <_nl_load_domain+0x94c>
   12db0:	e51b30b0 	ldr	r3, [fp, #-176]	; 0xffffff50
   12db4:	e5853020 	str	r3, [r5, #32]
   12db8:	e5853024 	str	r3, [r5, #36]	; 0x24
   12dbc:	e5853028 	str	r3, [r5, #40]	; 0x28
   12dc0:	eaffff8b 	b	12bf4 <_nl_load_domain+0x51c>
   12dc4:	e51b00a4 	ldr	r0, [fp, #-164]	; 0xffffff5c
   12dc8:	eb003e87 	bl	227ec <__libc_malloc>
   12dcc:	e2508000 	subs	r8, r0, #0
   12dd0:	0affff4a 	beq	12b00 <_nl_load_domain+0x428>
   12dd4:	e51b30a4 	ldr	r3, [fp, #-164]	; 0xffffff5c
   12dd8:	e1a0a008 	mov	sl, r8
   12ddc:	e3a09003 	mov	r9, #3
   12de0:	e1a00005 	mov	r0, r5
   12de4:	e1a0100a 	mov	r1, sl
   12de8:	e1a02003 	mov	r2, r3
   12dec:	e1a07009 	mov	r7, r9
   12df0:	ef000000 	svc	0x00000000
   12df4:	e3700a01 	cmn	r0, #4096	; 0x1000
   12df8:	8affff39 	bhi	12ae4 <_nl_load_domain+0x40c>
   12dfc:	e3500000 	cmp	r0, #0
   12e00:	daffff3e 	ble	12b00 <_nl_load_domain+0x428>
   12e04:	e08aa000 	add	sl, sl, r0
   12e08:	e0433000 	sub	r3, r3, r0
   12e0c:	e3530000 	cmp	r3, #0
   12e10:	1afffff2 	bne	12de0 <_nl_load_domain+0x708>
   12e14:	e1a00005 	mov	r0, r5
   12e18:	e3a07006 	mov	r7, #6
   12e1c:	ef000000 	svc	0x00000000
   12e20:	e59f2880 	ldr	r2, [pc, #2176]	; 136a8 <_nl_load_domain+0xfd0>
   12e24:	e5983000 	ldr	r3, [r8]
   12e28:	e59f187c 	ldr	r1, [pc, #2172]	; 136ac <_nl_load_domain+0xfd4>
   12e2c:	e0537002 	subs	r7, r3, r2
   12e30:	13a07001 	movne	r7, #1
   12e34:	e1530001 	cmp	r3, r1
   12e38:	11530002 	cmpne	r3, r2
   12e3c:	0afffe78 	beq	12824 <_nl_load_domain+0x14c>
   12e40:	e1a00008 	mov	r0, r8
   12e44:	eb003fe2 	bl	22dd4 <__cfree>
   12e48:	eaffff50 	b	12b90 <_nl_load_domain+0x4b8>
   12e4c:	e28aa00c 	add	sl, sl, #12
   12e50:	e3a00000 	mov	r0, #0
   12e54:	ea000005 	b	12e70 <_nl_load_domain+0x798>
   12e58:	e7960103 	ldr	r0, [r6, r3, lsl #2]
   12e5c:	e28aa008 	add	sl, sl, #8
   12e60:	e3500000 	cmp	r0, #0
   12e64:	0affffbf 	beq	12d68 <_nl_load_domain+0x690>
   12e68:	eb0047bc 	bl	24d60 <strlen>
   12e6c:	e0800008 	add	r0, r0, r8
   12e70:	e51a8008 	ldr	r8, [sl, #-8]
   12e74:	e51a3004 	ldr	r3, [sl, #-4]
   12e78:	e3570000 	cmp	r7, #0
   12e7c:	16bf8f38 	revne	r8, r8
   12e80:	16bf3f33 	revne	r3, r3
   12e84:	10808008 	addne	r8, r0, r8
   12e88:	00808008 	addeq	r8, r0, r8
   12e8c:	e3730001 	cmn	r3, #1
   12e90:	0affffa6 	beq	12d30 <_nl_load_domain+0x658>
   12e94:	e1530005 	cmp	r3, r5
   12e98:	3affffee 	bcc	12e58 <_nl_load_domain+0x780>
   12e9c:	e51b50d4 	ldr	r5, [fp, #-212]	; 0xffffff2c
   12ea0:	e51b80b8 	ldr	r8, [fp, #-184]	; 0xffffff48
   12ea4:	e51b60c0 	ldr	r6, [fp, #-192]	; 0xffffff40
   12ea8:	e5950010 	ldr	r0, [r5, #16]
   12eac:	eaffff2c 	b	12b64 <_nl_load_domain+0x48c>
   12eb0:	e3590000 	cmp	r9, #0
   12eb4:	051b30bc 	ldreq	r3, [fp, #-188]	; 0xffffff44
   12eb8:	151b30a8 	ldrne	r3, [fp, #-168]	; 0xffffff58
   12ebc:	e593a000 	ldr	sl, [r3]
   12ec0:	eaffff92 	b	12d10 <_nl_load_domain+0x638>
   12ec4:	e51b50a8 	ldr	r5, [fp, #-168]	; 0xffffff58
   12ec8:	e5950010 	ldr	r0, [r5, #16]
   12ecc:	eaffff24 	b	12b64 <_nl_load_domain+0x48c>
   12ed0:	e51b10a4 	ldr	r1, [fp, #-164]	; 0xffffff5c
   12ed4:	e1a00008 	mov	r0, r8
   12ed8:	eb0054c8 	bl	28200 <__munmap>
   12edc:	eaffff2b 	b	12b90 <_nl_load_domain+0x4b8>
   12ee0:	e3570000 	cmp	r7, #0
   12ee4:	e51be0b0 	ldr	lr, [fp, #-176]	; 0xffffff50
   12ee8:	e51b50a8 	ldr	r5, [fp, #-168]	; 0xffffff58
   12eec:	0affff6c 	beq	12ca4 <_nl_load_domain+0x5cc>
   12ef0:	e5983028 	ldr	r3, [r8, #40]	; 0x28
   12ef4:	e598202c 	ldr	r2, [r8, #44]	; 0x2c
   12ef8:	e6bf3f33 	rev	r3, r3
   12efc:	e0883003 	add	r3, r8, r3
   12f00:	e6bf2f32 	rev	r2, r2
   12f04:	eaffff69 	b	12cb0 <_nl_load_domain+0x5d8>
   12f08:	e5d33005 	ldrb	r3, [r3, #5]
   12f0c:	e3530000 	cmp	r3, #0
   12f10:	1afffe92 	bne	12960 <_nl_load_domain+0x288>
   12f14:	e3510064 	cmp	r1, #100	; 0x64
   12f18:	0a00013b 	beq	1340c <_nl_load_domain+0xd34>
   12f1c:	e51b30b8 	ldr	r3, [fp, #-184]	; 0xffffff48
   12f20:	e3530000 	cmp	r3, #0
   12f24:	1a000136 	bne	13404 <_nl_load_domain+0xd2c>
   12f28:	e51b30bc 	ldr	r3, [fp, #-188]	; 0xffffff44
   12f2c:	e3530000 	cmp	r3, #0
   12f30:	1a000131 	bne	133fc <_nl_load_domain+0xd24>
   12f34:	e51b30c4 	ldr	r3, [fp, #-196]	; 0xffffff3c
   12f38:	e3530000 	cmp	r3, #0
   12f3c:	1a000134 	bne	13414 <_nl_load_domain+0xd3c>
   12f40:	e51b10c8 	ldr	r1, [fp, #-200]	; 0xffffff38
   12f44:	e59f378c 	ldr	r3, [pc, #1932]	; 136d8 <_nl_load_domain+0x1000>
   12f48:	e3510000 	cmp	r1, #0
   12f4c:	e59f2788 	ldr	r2, [pc, #1928]	; 136dc <_nl_load_domain+0x1004>
   12f50:	11a02003 	movne	r2, r3
   12f54:	eafffe81 	b	12960 <_nl_load_domain+0x288>
   12f58:	e5d35005 	ldrb	r5, [r3, #5]
   12f5c:	e3550036 	cmp	r5, #54	; 0x36
   12f60:	1afffe7e 	bne	12960 <_nl_load_domain+0x288>
   12f64:	e5d33006 	ldrb	r3, [r3, #6]
   12f68:	e3530000 	cmp	r3, #0
   12f6c:	13a02000 	movne	r2, #0
   12f70:	1afffe7a 	bne	12960 <_nl_load_domain+0x288>
   12f74:	e3510064 	cmp	r1, #100	; 0x64
   12f78:	0a000130 	beq	13440 <_nl_load_domain+0xd68>
   12f7c:	e51b30b8 	ldr	r3, [fp, #-184]	; 0xffffff48
   12f80:	e3530000 	cmp	r3, #0
   12f84:	1a00012b 	bne	13438 <_nl_load_domain+0xd60>
   12f88:	e51b30bc 	ldr	r3, [fp, #-188]	; 0xffffff44
   12f8c:	e3530000 	cmp	r3, #0
   12f90:	1a000126 	bne	13430 <_nl_load_domain+0xd58>
   12f94:	e51b30c4 	ldr	r3, [fp, #-196]	; 0xffffff3c
   12f98:	e3530000 	cmp	r3, #0
   12f9c:	1a000121 	bne	13428 <_nl_load_domain+0xd50>
   12fa0:	e51b10c8 	ldr	r1, [fp, #-200]	; 0xffffff38
   12fa4:	e59f372c 	ldr	r3, [pc, #1836]	; 136d8 <_nl_load_domain+0x1000>
   12fa8:	e3510000 	cmp	r1, #0
   12fac:	e59f2728 	ldr	r2, [pc, #1832]	; 136dc <_nl_load_domain+0x1004>
   12fb0:	11a02003 	movne	r2, r3
   12fb4:	eafffe69 	b	12960 <_nl_load_domain+0x288>
   12fb8:	e3550036 	cmp	r5, #54	; 0x36
   12fbc:	1a00012f 	bne	13480 <_nl_load_domain+0xda8>
   12fc0:	e5d32005 	ldrb	r2, [r3, #5]
   12fc4:	e3520034 	cmp	r2, #52	; 0x34
   12fc8:	13a02000 	movne	r2, #0
   12fcc:	1afffe63 	bne	12960 <_nl_load_domain+0x288>
   12fd0:	e5d33006 	ldrb	r3, [r3, #6]
   12fd4:	e3530000 	cmp	r3, #0
   12fd8:	13a02000 	movne	r2, #0
   12fdc:	1afffe5f 	bne	12960 <_nl_load_domain+0x288>
   12fe0:	e3510064 	cmp	r1, #100	; 0x64
   12fe4:	0a000123 	beq	13478 <_nl_load_domain+0xda0>
   12fe8:	e51b30b8 	ldr	r3, [fp, #-184]	; 0xffffff48
   12fec:	e3530000 	cmp	r3, #0
   12ff0:	1a00011e 	bne	13470 <_nl_load_domain+0xd98>
   12ff4:	e51b30bc 	ldr	r3, [fp, #-188]	; 0xffffff44
   12ff8:	e3530000 	cmp	r3, #0
   12ffc:	1a000119 	bne	13468 <_nl_load_domain+0xd90>
   13000:	e51b30c4 	ldr	r3, [fp, #-196]	; 0xffffff3c
   13004:	e3530000 	cmp	r3, #0
   13008:	1a000114 	bne	13460 <_nl_load_domain+0xd88>
   1300c:	e51b10c8 	ldr	r1, [fp, #-200]	; 0xffffff38
   13010:	e59f36b0 	ldr	r3, [pc, #1712]	; 136c8 <_nl_load_domain+0xff0>
   13014:	e3510000 	cmp	r1, #0
   13018:	e59f26ac 	ldr	r2, [pc, #1708]	; 136cc <_nl_load_domain+0xff4>
   1301c:	01a02003 	moveq	r2, r3
   13020:	eafffe4e 	b	12960 <_nl_load_domain+0x288>
   13024:	e51b20b0 	ldr	r2, [fp, #-176]	; 0xffffff50
   13028:	e51b30c8 	ldr	r3, [fp, #-200]	; 0xffffff38
   1302c:	e0830202 	add	r0, r3, r2, lsl #4
   13030:	eb003ded 	bl	227ec <__libc_malloc>
   13034:	e2503000 	subs	r3, r0, #0
   13038:	e50b30c4 	str	r3, [fp, #-196]	; 0xffffff3c
   1303c:	0affff07 	beq	12c60 <_nl_load_domain+0x588>
   13040:	e51b20b0 	ldr	r2, [fp, #-176]	; 0xffffff50
   13044:	e51b30c4 	ldr	r3, [fp, #-196]	; 0xffffff3c
   13048:	e51b00d8 	ldr	r0, [fp, #-216]	; 0xffffff28
   1304c:	e083a202 	add	sl, r3, r2, lsl #4
   13050:	e08a9000 	add	r9, sl, r0
   13054:	e50ba0e4 	str	sl, [fp, #-228]	; 0xffffff1c
   13058:	e51ba0b4 	ldr	sl, [fp, #-180]	; 0xffffff4c
   1305c:	e3a01000 	mov	r1, #0
   13060:	e5853010 	str	r3, [r5, #16]
   13064:	e0833182 	add	r3, r3, r2, lsl #3
   13068:	e50b10c0 	str	r1, [fp, #-192]	; 0xffffff40
   1306c:	e50b10c8 	str	r1, [fp, #-200]	; 0xffffff38
   13070:	e50b30dc 	str	r3, [fp, #-220]	; 0xffffff24
   13074:	e50b80b8 	str	r8, [fp, #-184]	; 0xffffff48
   13078:	e50b50d4 	str	r5, [fp, #-212]	; 0xffffff2c
   1307c:	e50b60e8 	str	r6, [fp, #-232]	; 0xffffff18
   13080:	e51b30d4 	ldr	r3, [fp, #-212]	; 0xffffff2c
   13084:	e3a01000 	mov	r1, #0
   13088:	e593700c 	ldr	r7, [r3, #12]
   1308c:	e3570000 	cmp	r7, #0
   13090:	0a000099 	beq	132fc <_nl_load_domain+0xc24>
   13094:	e3510000 	cmp	r1, #0
   13098:	051b30d0 	ldreq	r3, [fp, #-208]	; 0xffffff30
   1309c:	151b30cc 	ldrne	r3, [fp, #-204]	; 0xffffff34
   130a0:	e5933000 	ldr	r3, [r3]
   130a4:	e6bf2f33 	rev	r2, r3
   130a8:	e51b30b8 	ldr	r3, [fp, #-184]	; 0xffffff48
   130ac:	e0832002 	add	r2, r3, r2
   130b0:	e5923008 	ldr	r3, [r2, #8]
   130b4:	e2933001 	adds	r3, r3, #1
   130b8:	13a03001 	movne	r3, #1
   130bc:	e3530000 	cmp	r3, #0
   130c0:	0a00000a 	beq	130f0 <_nl_load_domain+0xa18>
   130c4:	e2822004 	add	r2, r2, #4
   130c8:	ea000003 	b	130dc <_nl_load_domain+0xa04>
   130cc:	e79a3103 	ldr	r3, [sl, r3, lsl #2]
   130d0:	e3530000 	cmp	r3, #0
   130d4:	0a000035 	beq	131b0 <_nl_load_domain+0xad8>
   130d8:	e2822008 	add	r2, r2, #8
   130dc:	e5923004 	ldr	r3, [r2, #4]
   130e0:	e3570000 	cmp	r7, #0
   130e4:	16bf3f33 	revne	r3, r3
   130e8:	e3730001 	cmn	r3, #1
   130ec:	1afffff6 	bne	130cc <_nl_load_domain+0x9f4>
   130f0:	e2811001 	add	r1, r1, #1
   130f4:	e3510002 	cmp	r1, #2
   130f8:	1affffe3 	bne	1308c <_nl_load_domain+0x9b4>
   130fc:	e51b30c0 	ldr	r3, [fp, #-192]	; 0xffffff40
   13100:	e51b20c4 	ldr	r2, [fp, #-196]	; 0xffffff3c
   13104:	e1a03183 	lsl	r3, r3, #3
   13108:	e0822003 	add	r2, r2, r3
   1310c:	e50b20d8 	str	r2, [fp, #-216]	; 0xffffff28
   13110:	e51b20dc 	ldr	r2, [fp, #-220]	; 0xffffff24
   13114:	e0823003 	add	r3, r2, r3
   13118:	e50b30e0 	str	r3, [fp, #-224]	; 0xffffff20
   1311c:	e3a03000 	mov	r3, #0
   13120:	e50b30b4 	str	r3, [fp, #-180]	; 0xffffff4c
   13124:	e3570000 	cmp	r7, #0
   13128:	e51b30b4 	ldr	r3, [fp, #-180]	; 0xffffff4c
   1312c:	0a00009b 	beq	133a0 <_nl_load_domain+0xcc8>
   13130:	e3530000 	cmp	r3, #0
   13134:	051b30d0 	ldreq	r3, [fp, #-208]	; 0xffffff30
   13138:	151b30cc 	ldrne	r3, [fp, #-204]	; 0xffffff34
   1313c:	051b20d8 	ldreq	r2, [fp, #-216]	; 0xffffff28
   13140:	151b20e0 	ldrne	r2, [fp, #-224]	; 0xffffff20
   13144:	05933000 	ldreq	r3, [r3]
   13148:	15933000 	ldrne	r3, [r3]
   1314c:	e50b20bc 	str	r2, [fp, #-188]	; 0xffffff44
   13150:	e51b20b8 	ldr	r2, [fp, #-184]	; 0xffffff48
   13154:	e6bf3f33 	rev	r3, r3
   13158:	e0825003 	add	r5, r2, r3
   1315c:	e7928003 	ldr	r8, [r2, r3]
   13160:	e6bf8f38 	rev	r8, r8
   13164:	e0823008 	add	r3, r2, r8
   13168:	e50b30a8 	str	r3, [fp, #-168]	; 0xffffff58
   1316c:	e5953008 	ldr	r3, [r5, #8]
   13170:	e3730001 	cmn	r3, #1
   13174:	1a000068 	bne	1331c <_nl_load_domain+0xc44>
   13178:	e5953004 	ldr	r3, [r5, #4]
   1317c:	e6bf3f33 	rev	r3, r3
   13180:	e51b20bc 	ldr	r2, [fp, #-188]	; 0xffffff44
   13184:	e5823000 	str	r3, [r2]
   13188:	e51b30a8 	ldr	r3, [fp, #-168]	; 0xffffff58
   1318c:	e5823004 	str	r3, [r2, #4]
   13190:	e51b30b4 	ldr	r3, [fp, #-180]	; 0xffffff4c
   13194:	e2833001 	add	r3, r3, #1
   13198:	e3530002 	cmp	r3, #2
   1319c:	e50b30b4 	str	r3, [fp, #-180]	; 0xffffff4c
   131a0:	1a00005a 	bne	13310 <_nl_load_domain+0xc38>
   131a4:	e51b30c0 	ldr	r3, [fp, #-192]	; 0xffffff40
   131a8:	e2833001 	add	r3, r3, #1
   131ac:	e50b30c0 	str	r3, [fp, #-192]	; 0xffffff40
   131b0:	e51b30c8 	ldr	r3, [fp, #-200]	; 0xffffff38
   131b4:	e51b20ac 	ldr	r2, [fp, #-172]	; 0xffffff54
   131b8:	e2833001 	add	r3, r3, #1
   131bc:	e50b30c8 	str	r3, [fp, #-200]	; 0xffffff38
   131c0:	e1530002 	cmp	r3, r2
   131c4:	e51b30d0 	ldr	r3, [fp, #-208]	; 0xffffff30
   131c8:	e2833004 	add	r3, r3, #4
   131cc:	e50b30d0 	str	r3, [fp, #-208]	; 0xffffff30
   131d0:	e51b30cc 	ldr	r3, [fp, #-204]	; 0xffffff34
   131d4:	e2833004 	add	r3, r3, #4
   131d8:	e50b30cc 	str	r3, [fp, #-204]	; 0xffffff34
   131dc:	3affffa7 	bcc	13080 <_nl_load_domain+0x9a8>
   131e0:	e51b30b0 	ldr	r3, [fp, #-176]	; 0xffffff50
   131e4:	e51b20c0 	ldr	r2, [fp, #-192]	; 0xffffff40
   131e8:	e51b80b8 	ldr	r8, [fp, #-184]	; 0xffffff48
   131ec:	e1530002 	cmp	r3, r2
   131f0:	e51b50d4 	ldr	r5, [fp, #-212]	; 0xffffff2c
   131f4:	e51ba0e4 	ldr	sl, [fp, #-228]	; 0xffffff1c
   131f8:	e51b60e8 	ldr	r6, [fp, #-232]	; 0xffffff18
   131fc:	1a000086 	bne	1341c <_nl_load_domain+0xd44>
   13200:	e595202c 	ldr	r2, [r5, #44]	; 0x2c
   13204:	e3520000 	cmp	r2, #0
   13208:	108a2102 	addne	r2, sl, r2, lsl #2
   1320c:	1595c034 	ldrne	ip, [r5, #52]	; 0x34
   13210:	15950030 	ldrne	r0, [r5, #48]	; 0x30
   13214:	11a0300a 	movne	r3, sl
   13218:	0a000006 	beq	13238 <_nl_load_domain+0xb60>
   1321c:	e043100a 	sub	r1, r3, sl
   13220:	e35c0000 	cmp	ip, #0
   13224:	e7901001 	ldr	r1, [r0, r1]
   13228:	16bf1f31 	revne	r1, r1
   1322c:	e4831004 	str	r1, [r3], #4
   13230:	e1520003 	cmp	r2, r3
   13234:	1afffff8 	bne	1321c <_nl_load_domain+0xb44>
   13238:	e51b30c4 	ldr	r3, [fp, #-196]	; 0xffffff3c
   1323c:	e3a02000 	mov	r2, #0
   13240:	e50b80ac 	str	r8, [fp, #-172]	; 0xffffff54
   13244:	e50b60b4 	str	r6, [fp, #-180]	; 0xffffff4c
   13248:	e1a08003 	mov	r8, r3
   1324c:	e1a06005 	mov	r6, r5
   13250:	e1a05002 	mov	r5, r2
   13254:	e5980004 	ldr	r0, [r8, #4]
   13258:	eb00087f 	bl	1545c <__hash_string>
   1325c:	e596902c 	ldr	r9, [r6, #44]	; 0x2c
   13260:	e1a01009 	mov	r1, r9
   13264:	e50b00a8 	str	r0, [fp, #-168]	; 0xffffff58
   13268:	eb0166d6 	bl	6cdc8 <__aeabi_uidivmod>
   1326c:	e51b30a8 	ldr	r3, [fp, #-168]	; 0xffffff58
   13270:	e1a00003 	mov	r0, r3
   13274:	e1a07001 	mov	r7, r1
   13278:	e2491002 	sub	r1, r9, #2
   1327c:	eb0166d1 	bl	6cdc8 <__aeabi_uidivmod>
   13280:	e2811001 	add	r1, r1, #1
   13284:	e049c001 	sub	ip, r9, r1
   13288:	e0419009 	sub	r9, r1, r9
   1328c:	ea000002 	b	1329c <_nl_load_domain+0xbc4>
   13290:	e157000c 	cmp	r7, ip
   13294:	20877009 	addcs	r7, r7, r9
   13298:	30877001 	addcc	r7, r7, r1
   1329c:	e79a3107 	ldr	r3, [sl, r7, lsl #2]
   132a0:	e08a0107 	add	r0, sl, r7, lsl #2
   132a4:	e3530000 	cmp	r3, #0
   132a8:	1afffff8 	bne	13290 <_nl_load_domain+0xbb8>
   132ac:	e5961014 	ldr	r1, [r6, #20]
   132b0:	e51b20b0 	ldr	r2, [fp, #-176]	; 0xffffff50
   132b4:	e2811001 	add	r1, r1, #1
   132b8:	e0811005 	add	r1, r1, r5
   132bc:	e2855001 	add	r5, r5, #1
   132c0:	e1520005 	cmp	r2, r5
   132c4:	e2888008 	add	r8, r8, #8
   132c8:	e5801000 	str	r1, [r0]
   132cc:	1affffe0 	bne	13254 <_nl_load_domain+0xb7c>
   132d0:	e1a05006 	mov	r5, r6
   132d4:	e51b80ac 	ldr	r8, [fp, #-172]	; 0xffffff54
   132d8:	e5852020 	str	r2, [r5, #32]
   132dc:	e51b20c4 	ldr	r2, [fp, #-196]	; 0xffffff3c
   132e0:	e51b60b4 	ldr	r6, [fp, #-180]	; 0xffffff4c
   132e4:	e5852024 	str	r2, [r5, #36]	; 0x24
   132e8:	e51b20dc 	ldr	r2, [fp, #-220]	; 0xffffff24
   132ec:	e585a030 	str	sl, [r5, #48]	; 0x30
   132f0:	e5852028 	str	r2, [r5, #40]	; 0x28
   132f4:	e5853034 	str	r3, [r5, #52]	; 0x34
   132f8:	eafffe3d 	b	12bf4 <_nl_load_domain+0x51c>
   132fc:	e3510000 	cmp	r1, #0
   13300:	051b30d0 	ldreq	r3, [fp, #-208]	; 0xffffff30
   13304:	151b30cc 	ldrne	r3, [fp, #-204]	; 0xffffff34
   13308:	e5932000 	ldr	r2, [r3]
   1330c:	eaffff65 	b	130a8 <_nl_load_domain+0x9d0>
   13310:	e51b30d4 	ldr	r3, [fp, #-212]	; 0xffffff2c
   13314:	e593700c 	ldr	r7, [r3, #12]
   13318:	eaffff81 	b	13124 <_nl_load_domain+0xa4c>
   1331c:	e51b30bc 	ldr	r3, [fp, #-188]	; 0xffffff44
   13320:	e285500c 	add	r5, r5, #12
   13324:	e5839004 	str	r9, [r3, #4]
   13328:	ea00000b 	b	1335c <_nl_load_domain+0xc84>
   1332c:	e3760001 	cmn	r6, #1
   13330:	e2855008 	add	r5, r5, #8
   13334:	0a00002b 	beq	133e8 <_nl_load_domain+0xd10>
   13338:	e79a8106 	ldr	r8, [sl, r6, lsl #2]
   1333c:	e1a00008 	mov	r0, r8
   13340:	eb004686 	bl	24d60 <strlen>
   13344:	e1a01008 	mov	r1, r8
   13348:	e1a06000 	mov	r6, r0
   1334c:	e1a02000 	mov	r2, r0
   13350:	e1a00009 	mov	r0, r9
   13354:	eb004b75 	bl	26130 <memcpy>
   13358:	e0899006 	add	r9, r9, r6
   1335c:	e3570000 	cmp	r7, #0
   13360:	19150048 	ldmdbne	r5, {r3, r6}
   13364:	05158008 	ldreq	r8, [r5, #-8]
   13368:	05156004 	ldreq	r6, [r5, #-4]
   1336c:	16bf8f33 	revne	r8, r3
   13370:	16bf6f36 	revne	r6, r6
   13374:	e3580000 	cmp	r8, #0
   13378:	0affffeb 	beq	1332c <_nl_load_domain+0xc54>
   1337c:	e1a00009 	mov	r0, r9
   13380:	e1a02008 	mov	r2, r8
   13384:	e51b10a8 	ldr	r1, [fp, #-168]	; 0xffffff58
   13388:	eb004b68 	bl	26130 <memcpy>
   1338c:	e51b30a8 	ldr	r3, [fp, #-168]	; 0xffffff58
   13390:	e0899008 	add	r9, r9, r8
   13394:	e0833008 	add	r3, r3, r8
   13398:	e50b30a8 	str	r3, [fp, #-168]	; 0xffffff58
   1339c:	eaffffe2 	b	1332c <_nl_load_domain+0xc54>
   133a0:	e3530000 	cmp	r3, #0
   133a4:	051b30d0 	ldreq	r3, [fp, #-208]	; 0xffffff30
   133a8:	151b30cc 	ldrne	r3, [fp, #-204]	; 0xffffff34
   133ac:	051b20d8 	ldreq	r2, [fp, #-216]	; 0xffffff28
   133b0:	151b20e0 	ldrne	r2, [fp, #-224]	; 0xffffff20
   133b4:	05933000 	ldreq	r3, [r3]
   133b8:	15933000 	ldrne	r3, [r3]
   133bc:	e50b20bc 	str	r2, [fp, #-188]	; 0xffffff44
   133c0:	e51b20b8 	ldr	r2, [fp, #-184]	; 0xffffff48
   133c4:	e0825003 	add	r5, r2, r3
   133c8:	e7928003 	ldr	r8, [r2, r3]
   133cc:	e0823008 	add	r3, r2, r8
   133d0:	e50b30a8 	str	r3, [fp, #-168]	; 0xffffff58
   133d4:	e5953008 	ldr	r3, [r5, #8]
   133d8:	e3730001 	cmn	r3, #1
   133dc:	1affffce 	bne	1331c <_nl_load_domain+0xc44>
   133e0:	e5953004 	ldr	r3, [r5, #4]
   133e4:	eaffff65 	b	13180 <_nl_load_domain+0xaa8>
   133e8:	e51b20bc 	ldr	r2, [fp, #-188]	; 0xffffff44
   133ec:	e5923004 	ldr	r3, [r2, #4]
   133f0:	e0493003 	sub	r3, r9, r3
   133f4:	e5823000 	str	r3, [r2]
   133f8:	eaffff64 	b	13190 <_nl_load_domain+0xab8>
   133fc:	e59f22e8 	ldr	r2, [pc, #744]	; 136ec <_nl_load_domain+0x1014>
   13400:	eafffd56 	b	12960 <_nl_load_domain+0x288>
   13404:	e59f22e4 	ldr	r2, [pc, #740]	; 136f0 <_nl_load_domain+0x1018>
   13408:	eafffd54 	b	12960 <_nl_load_domain+0x288>
   1340c:	e59f22e0 	ldr	r2, [pc, #736]	; 136f4 <_nl_load_domain+0x101c>
   13410:	eafffd52 	b	12960 <_nl_load_domain+0x288>
   13414:	e59f22cc 	ldr	r2, [pc, #716]	; 136e8 <_nl_load_domain+0x1010>
   13418:	eafffd50 	b	12960 <_nl_load_domain+0x288>
   1341c:	eb00081d 	bl	15498 <abort>
   13420:	e59f22cc 	ldr	r2, [pc, #716]	; 136f4 <_nl_load_domain+0x101c>
   13424:	eafffd4d 	b	12960 <_nl_load_domain+0x288>
   13428:	e59f22b8 	ldr	r2, [pc, #696]	; 136e8 <_nl_load_domain+0x1010>
   1342c:	eafffd4b 	b	12960 <_nl_load_domain+0x288>
   13430:	e59f22b4 	ldr	r2, [pc, #692]	; 136ec <_nl_load_domain+0x1014>
   13434:	eafffd49 	b	12960 <_nl_load_domain+0x288>
   13438:	e59f22b0 	ldr	r2, [pc, #688]	; 136f0 <_nl_load_domain+0x1018>
   1343c:	eafffd47 	b	12960 <_nl_load_domain+0x288>
   13440:	e59f22ac 	ldr	r2, [pc, #684]	; 136f4 <_nl_load_domain+0x101c>
   13444:	eafffd45 	b	12960 <_nl_load_domain+0x288>
   13448:	e59f229c 	ldr	r2, [pc, #668]	; 136ec <_nl_load_domain+0x1014>
   1344c:	eafffd43 	b	12960 <_nl_load_domain+0x288>
   13450:	e59f2298 	ldr	r2, [pc, #664]	; 136f0 <_nl_load_domain+0x1018>
   13454:	eafffd41 	b	12960 <_nl_load_domain+0x288>
   13458:	e59f2288 	ldr	r2, [pc, #648]	; 136e8 <_nl_load_domain+0x1010>
   1345c:	eafffd3f 	b	12960 <_nl_load_domain+0x288>
   13460:	e59f2268 	ldr	r2, [pc, #616]	; 136d0 <_nl_load_domain+0xff8>
   13464:	eafffd3d 	b	12960 <_nl_load_domain+0x288>
   13468:	e59f2270 	ldr	r2, [pc, #624]	; 136e0 <_nl_load_domain+0x1008>
   1346c:	eafffd3b 	b	12960 <_nl_load_domain+0x288>
   13470:	e59f226c 	ldr	r2, [pc, #620]	; 136e4 <_nl_load_domain+0x100c>
   13474:	eafffd39 	b	12960 <_nl_load_domain+0x288>
   13478:	e59f2254 	ldr	r2, [pc, #596]	; 136d4 <_nl_load_domain+0xffc>
   1347c:	eafffd37 	b	12960 <_nl_load_domain+0x288>
   13480:	e355004c 	cmp	r5, #76	; 0x4c
   13484:	1a000032 	bne	13554 <_nl_load_domain+0xe7c>
   13488:	e5d32005 	ldrb	r2, [r3, #5]
   1348c:	e3520045 	cmp	r2, #69	; 0x45
   13490:	13a02000 	movne	r2, #0
   13494:	1afffd31 	bne	12960 <_nl_load_domain+0x288>
   13498:	e5d32006 	ldrb	r2, [r3, #6]
   1349c:	e3520041 	cmp	r2, #65	; 0x41
   134a0:	13a02000 	movne	r2, #0
   134a4:	1afffd2d 	bne	12960 <_nl_load_domain+0x288>
   134a8:	e5d32007 	ldrb	r2, [r3, #7]
   134ac:	e3520053 	cmp	r2, #83	; 0x53
   134b0:	13a02000 	movne	r2, #0
   134b4:	1afffd29 	bne	12960 <_nl_load_domain+0x288>
   134b8:	e5d32008 	ldrb	r2, [r3, #8]
   134bc:	e3520054 	cmp	r2, #84	; 0x54
   134c0:	13a02000 	movne	r2, #0
   134c4:	1afffd25 	bne	12960 <_nl_load_domain+0x288>
   134c8:	e5d32009 	ldrb	r2, [r3, #9]
   134cc:	e3520038 	cmp	r2, #56	; 0x38
   134d0:	0a000146 	beq	139f0 <_nl_load_domain+0x1318>
   134d4:	e3520031 	cmp	r2, #49	; 0x31
   134d8:	0a00012b 	beq	1398c <_nl_load_domain+0x12b4>
   134dc:	e3520033 	cmp	r2, #51	; 0x33
   134e0:	0a000110 	beq	13928 <_nl_load_domain+0x1250>
   134e4:	e3520036 	cmp	r2, #54	; 0x36
   134e8:	13a02000 	movne	r2, #0
   134ec:	1afffd1b 	bne	12960 <_nl_load_domain+0x288>
   134f0:	e5d3200a 	ldrb	r2, [r3, #10]
   134f4:	e3520034 	cmp	r2, #52	; 0x34
   134f8:	13a02000 	movne	r2, #0
   134fc:	1afffd17 	bne	12960 <_nl_load_domain+0x288>
   13500:	e5d3300b 	ldrb	r3, [r3, #11]
   13504:	e3530000 	cmp	r3, #0
   13508:	13a02000 	movne	r2, #0
   1350c:	1afffd13 	bne	12960 <_nl_load_domain+0x288>
   13510:	e3510064 	cmp	r1, #100	; 0x64
   13514:	0a000101 	beq	13920 <_nl_load_domain+0x1248>
   13518:	e51b30b8 	ldr	r3, [fp, #-184]	; 0xffffff48
   1351c:	e3530000 	cmp	r3, #0
   13520:	1a000151 	bne	13a6c <_nl_load_domain+0x1394>
   13524:	e51b30bc 	ldr	r3, [fp, #-188]	; 0xffffff44
   13528:	e3530000 	cmp	r3, #0
   1352c:	1a00014c 	bne	13a64 <_nl_load_domain+0x138c>
   13530:	e51b30c4 	ldr	r3, [fp, #-196]	; 0xffffff3c
   13534:	e3530000 	cmp	r3, #0
   13538:	1a000036 	bne	13618 <_nl_load_domain+0xf40>
   1353c:	e51b10c8 	ldr	r1, [fp, #-200]	; 0xffffff38
   13540:	e59f3180 	ldr	r3, [pc, #384]	; 136c8 <_nl_load_domain+0xff0>
   13544:	e3510000 	cmp	r1, #0
   13548:	e59f217c 	ldr	r2, [pc, #380]	; 136cc <_nl_load_domain+0xff4>
   1354c:	01a02003 	moveq	r2, r3
   13550:	eafffd02 	b	12960 <_nl_load_domain+0x288>
   13554:	e3550046 	cmp	r5, #70	; 0x46
   13558:	1a0000a4 	bne	137f0 <_nl_load_domain+0x1118>
   1355c:	e5d32005 	ldrb	r2, [r3, #5]
   13560:	e3520041 	cmp	r2, #65	; 0x41
   13564:	13a02000 	movne	r2, #0
   13568:	1afffcfc 	bne	12960 <_nl_load_domain+0x288>
   1356c:	e5d32006 	ldrb	r2, [r3, #6]
   13570:	e3520053 	cmp	r2, #83	; 0x53
   13574:	13a02000 	movne	r2, #0
   13578:	1afffcf8 	bne	12960 <_nl_load_domain+0x288>
   1357c:	e5d32007 	ldrb	r2, [r3, #7]
   13580:	e3520054 	cmp	r2, #84	; 0x54
   13584:	13a02000 	movne	r2, #0
   13588:	1afffcf4 	bne	12960 <_nl_load_domain+0x288>
   1358c:	e5d32008 	ldrb	r2, [r3, #8]
   13590:	e3520038 	cmp	r2, #56	; 0x38
   13594:	0a000080 	beq	1379c <_nl_load_domain+0x10c4>
   13598:	e3520031 	cmp	r2, #49	; 0x31
   1359c:	0a000055 	beq	136f8 <_nl_load_domain+0x1020>
   135a0:	e3520033 	cmp	r2, #51	; 0x33
   135a4:	0a000025 	beq	13640 <_nl_load_domain+0xf68>
   135a8:	e3520036 	cmp	r2, #54	; 0x36
   135ac:	13a02000 	movne	r2, #0
   135b0:	1afffcea 	bne	12960 <_nl_load_domain+0x288>
   135b4:	e5d32009 	ldrb	r2, [r3, #9]
   135b8:	e3520034 	cmp	r2, #52	; 0x34
   135bc:	13a02000 	movne	r2, #0
   135c0:	1afffce6 	bne	12960 <_nl_load_domain+0x288>
   135c4:	e5d3300a 	ldrb	r3, [r3, #10]
   135c8:	e3530000 	cmp	r3, #0
   135cc:	13a02000 	movne	r2, #0
   135d0:	1afffce2 	bne	12960 <_nl_load_domain+0x288>
   135d4:	e3510064 	cmp	r1, #100	; 0x64
   135d8:	0a000016 	beq	13638 <_nl_load_domain+0xf60>
   135dc:	e51b30b8 	ldr	r3, [fp, #-184]	; 0xffffff48
   135e0:	e3530000 	cmp	r3, #0
   135e4:	1a000011 	bne	13630 <_nl_load_domain+0xf58>
   135e8:	e51b30bc 	ldr	r3, [fp, #-188]	; 0xffffff44
   135ec:	e3530000 	cmp	r3, #0
   135f0:	1a00000c 	bne	13628 <_nl_load_domain+0xf50>
   135f4:	e51b30c4 	ldr	r3, [fp, #-196]	; 0xffffff3c
   135f8:	e3530000 	cmp	r3, #0
   135fc:	1a000007 	bne	13620 <_nl_load_domain+0xf48>
   13600:	e51b10c8 	ldr	r1, [fp, #-200]	; 0xffffff38
   13604:	e59f30bc 	ldr	r3, [pc, #188]	; 136c8 <_nl_load_domain+0xff0>
   13608:	e3510000 	cmp	r1, #0
   1360c:	e59f20b8 	ldr	r2, [pc, #184]	; 136cc <_nl_load_domain+0xff4>
   13610:	01a02003 	moveq	r2, r3
   13614:	eafffcd1 	b	12960 <_nl_load_domain+0x288>
   13618:	e59f20b0 	ldr	r2, [pc, #176]	; 136d0 <_nl_load_domain+0xff8>
   1361c:	eafffccf 	b	12960 <_nl_load_domain+0x288>
   13620:	e59f20a8 	ldr	r2, [pc, #168]	; 136d0 <_nl_load_domain+0xff8>
   13624:	eafffccd 	b	12960 <_nl_load_domain+0x288>
   13628:	e59f20b0 	ldr	r2, [pc, #176]	; 136e0 <_nl_load_domain+0x1008>
   1362c:	eafffccb 	b	12960 <_nl_load_domain+0x288>
   13630:	e59f20ac 	ldr	r2, [pc, #172]	; 136e4 <_nl_load_domain+0x100c>
   13634:	eafffcc9 	b	12960 <_nl_load_domain+0x288>
   13638:	e59f2094 	ldr	r2, [pc, #148]	; 136d4 <_nl_load_domain+0xffc>
   1363c:	eafffcc7 	b	12960 <_nl_load_domain+0x288>
   13640:	e5d32009 	ldrb	r2, [r3, #9]
   13644:	e3520032 	cmp	r2, #50	; 0x32
   13648:	13a02000 	movne	r2, #0
   1364c:	1afffcc3 	bne	12960 <_nl_load_domain+0x288>
   13650:	e5d3300a 	ldrb	r3, [r3, #10]
   13654:	e3530000 	cmp	r3, #0
   13658:	13a02000 	movne	r2, #0
   1365c:	1afffcbf 	bne	12960 <_nl_load_domain+0x288>
   13660:	e3510064 	cmp	r1, #100	; 0x64
   13664:	0a000042 	beq	13774 <_nl_load_domain+0x109c>
   13668:	e51b30b8 	ldr	r3, [fp, #-184]	; 0xffffff48
   1366c:	e3530000 	cmp	r3, #0
   13670:	1a00003d 	bne	1376c <_nl_load_domain+0x1094>
   13674:	e51b30bc 	ldr	r3, [fp, #-188]	; 0xffffff44
   13678:	e3530000 	cmp	r3, #0
   1367c:	1a000038 	bne	13764 <_nl_load_domain+0x108c>
   13680:	e51b30c4 	ldr	r3, [fp, #-196]	; 0xffffff3c
   13684:	e3530000 	cmp	r3, #0
   13688:	1a000033 	bne	1375c <_nl_load_domain+0x1084>
   1368c:	e51b10c8 	ldr	r1, [fp, #-200]	; 0xffffff38
   13690:	e59f3040 	ldr	r3, [pc, #64]	; 136d8 <_nl_load_domain+0x1000>
   13694:	e3510000 	cmp	r1, #0
   13698:	e59f203c 	ldr	r2, [pc, #60]	; 136dc <_nl_load_domain+0x1004>
   1369c:	11a02003 	movne	r2, r3
   136a0:	eafffcae 	b	12960 <_nl_load_domain+0x288>
   136a4:	00096174 	.word	0x00096174
   136a8:	950412de 	.word	0x950412de
   136ac:	de120495 	.word	0xde120495
   136b0:	0006fc68 	.word	0x0006fc68
   136b4:	00082594 	.word	0x00082594
   136b8:	0008254c 	.word	0x0008254c
	...
   136c4:	00080b4c 	.word	0x00080b4c
   136c8:	0006fc64 	.word	0x0006fc64
   136cc:	0006fc5c 	.word	0x0006fc5c
   136d0:	0006fc54 	.word	0x0006fc54
   136d4:	0006fc50 	.word	0x0006fc50
   136d8:	0006fc4c 	.word	0x0006fc4c
   136dc:	00070aa8 	.word	0x00070aa8
   136e0:	0006fc60 	.word	0x0006fc60
   136e4:	0006fc58 	.word	0x0006fc58
   136e8:	0006fc48 	.word	0x0006fc48
   136ec:	0007119c 	.word	0x0007119c
   136f0:	0007fbec 	.word	0x0007fbec
   136f4:	00084070 	.word	0x00084070
   136f8:	e5d32009 	ldrb	r2, [r3, #9]
   136fc:	e3520036 	cmp	r2, #54	; 0x36
   13700:	13a02000 	movne	r2, #0
   13704:	1afffc95 	bne	12960 <_nl_load_domain+0x288>
   13708:	e5d3300a 	ldrb	r3, [r3, #10]
   1370c:	e3530000 	cmp	r3, #0
   13710:	13a02000 	movne	r2, #0
   13714:	1afffc91 	bne	12960 <_nl_load_domain+0x288>
   13718:	e3510064 	cmp	r1, #100	; 0x64
   1371c:	0a00001c 	beq	13794 <_nl_load_domain+0x10bc>
   13720:	e51b30b8 	ldr	r3, [fp, #-184]	; 0xffffff48
   13724:	e3530000 	cmp	r3, #0
   13728:	1a000017 	bne	1378c <_nl_load_domain+0x10b4>
   1372c:	e51b30bc 	ldr	r3, [fp, #-188]	; 0xffffff44
   13730:	e3530000 	cmp	r3, #0
   13734:	1a000012 	bne	13784 <_nl_load_domain+0x10ac>
   13738:	e51b30c4 	ldr	r3, [fp, #-196]	; 0xffffff3c
   1373c:	e3530000 	cmp	r3, #0
   13740:	1a00000d 	bne	1377c <_nl_load_domain+0x10a4>
   13744:	e51b10c8 	ldr	r1, [fp, #-200]	; 0xffffff38
   13748:	e51f3078 	ldr	r3, [pc, #-120]	; 136d8 <_nl_load_domain+0x1000>
   1374c:	e3510000 	cmp	r1, #0
   13750:	e51f207c 	ldr	r2, [pc, #-124]	; 136dc <_nl_load_domain+0x1004>
   13754:	11a02003 	movne	r2, r3
   13758:	eafffc80 	b	12960 <_nl_load_domain+0x288>
   1375c:	e51f207c 	ldr	r2, [pc, #-124]	; 136e8 <_nl_load_domain+0x1010>
   13760:	eafffc7e 	b	12960 <_nl_load_domain+0x288>
   13764:	e51f2080 	ldr	r2, [pc, #-128]	; 136ec <_nl_load_domain+0x1014>
   13768:	eafffc7c 	b	12960 <_nl_load_domain+0x288>
   1376c:	e51f2084 	ldr	r2, [pc, #-132]	; 136f0 <_nl_load_domain+0x1018>
   13770:	eafffc7a 	b	12960 <_nl_load_domain+0x288>
   13774:	e51f2088 	ldr	r2, [pc, #-136]	; 136f4 <_nl_load_domain+0x101c>
   13778:	eafffc78 	b	12960 <_nl_load_domain+0x288>
   1377c:	e51f209c 	ldr	r2, [pc, #-156]	; 136e8 <_nl_load_domain+0x1010>
   13780:	eafffc76 	b	12960 <_nl_load_domain+0x288>
   13784:	e51f20a0 	ldr	r2, [pc, #-160]	; 136ec <_nl_load_domain+0x1014>
   13788:	eafffc74 	b	12960 <_nl_load_domain+0x288>
   1378c:	e51f20a4 	ldr	r2, [pc, #-164]	; 136f0 <_nl_load_domain+0x1018>
   13790:	eafffc72 	b	12960 <_nl_load_domain+0x288>
   13794:	e51f20a8 	ldr	r2, [pc, #-168]	; 136f4 <_nl_load_domain+0x101c>
   13798:	eafffc70 	b	12960 <_nl_load_domain+0x288>
   1379c:	e5d33009 	ldrb	r3, [r3, #9]
   137a0:	e3530000 	cmp	r3, #0
   137a4:	13a02000 	movne	r2, #0
   137a8:	1afffc6c 	bne	12960 <_nl_load_domain+0x288>
   137ac:	e3510064 	cmp	r1, #100	; 0x64
   137b0:	0a0000af 	beq	13a74 <_nl_load_domain+0x139c>
   137b4:	e51b30b8 	ldr	r3, [fp, #-184]	; 0xffffff48
   137b8:	e3530000 	cmp	r3, #0
   137bc:	1a000055 	bne	13918 <_nl_load_domain+0x1240>
   137c0:	e51b30bc 	ldr	r3, [fp, #-188]	; 0xffffff44
   137c4:	e3530000 	cmp	r3, #0
   137c8:	1a000029 	bne	13874 <_nl_load_domain+0x119c>
   137cc:	e51b30c4 	ldr	r3, [fp, #-196]	; 0xffffff3c
   137d0:	e3530000 	cmp	r3, #0
   137d4:	1a000024 	bne	1386c <_nl_load_domain+0x1194>
   137d8:	e51b10c8 	ldr	r1, [fp, #-200]	; 0xffffff38
   137dc:	e51f310c 	ldr	r3, [pc, #-268]	; 136d8 <_nl_load_domain+0x1000>
   137e0:	e3510000 	cmp	r1, #0
   137e4:	e51f2110 	ldr	r2, [pc, #-272]	; 136dc <_nl_load_domain+0x1004>
   137e8:	11a02003 	movne	r2, r3
   137ec:	eafffc5b 	b	12960 <_nl_load_domain+0x288>
   137f0:	e355004d 	cmp	r5, #77	; 0x4d
   137f4:	1a000028 	bne	1389c <_nl_load_domain+0x11c4>
   137f8:	e5d32005 	ldrb	r2, [r3, #5]
   137fc:	e3520041 	cmp	r2, #65	; 0x41
   13800:	13a02000 	movne	r2, #0
   13804:	1afffc55 	bne	12960 <_nl_load_domain+0x288>
   13808:	e5d32006 	ldrb	r2, [r3, #6]
   1380c:	e3520058 	cmp	r2, #88	; 0x58
   13810:	13a02000 	movne	r2, #0
   13814:	1afffc51 	bne	12960 <_nl_load_domain+0x288>
   13818:	e5d33007 	ldrb	r3, [r3, #7]
   1381c:	e3530000 	cmp	r3, #0
   13820:	13a02000 	movne	r2, #0
   13824:	1afffc4d 	bne	12960 <_nl_load_domain+0x288>
   13828:	e3510064 	cmp	r1, #100	; 0x64
   1382c:	0a000018 	beq	13894 <_nl_load_domain+0x11bc>
   13830:	e51b30b8 	ldr	r3, [fp, #-184]	; 0xffffff48
   13834:	e3530000 	cmp	r3, #0
   13838:	1a000013 	bne	1388c <_nl_load_domain+0x11b4>
   1383c:	e51b30bc 	ldr	r3, [fp, #-188]	; 0xffffff44
   13840:	e3530000 	cmp	r3, #0
   13844:	1a00000e 	bne	13884 <_nl_load_domain+0x11ac>
   13848:	e51b30c4 	ldr	r3, [fp, #-196]	; 0xffffff3c
   1384c:	e3530000 	cmp	r3, #0
   13850:	1a000009 	bne	1387c <_nl_load_domain+0x11a4>
   13854:	e51b10c8 	ldr	r1, [fp, #-200]	; 0xffffff38
   13858:	e51f3198 	ldr	r3, [pc, #-408]	; 136c8 <_nl_load_domain+0xff0>
   1385c:	e3510000 	cmp	r1, #0
   13860:	e51f219c 	ldr	r2, [pc, #-412]	; 136cc <_nl_load_domain+0xff4>
   13864:	01a02003 	moveq	r2, r3
   13868:	eafffc3c 	b	12960 <_nl_load_domain+0x288>
   1386c:	e51f218c 	ldr	r2, [pc, #-396]	; 136e8 <_nl_load_domain+0x1010>
   13870:	eafffc3a 	b	12960 <_nl_load_domain+0x288>
   13874:	e51f2190 	ldr	r2, [pc, #-400]	; 136ec <_nl_load_domain+0x1014>
   13878:	eafffc38 	b	12960 <_nl_load_domain+0x288>
   1387c:	e51f21b4 	ldr	r2, [pc, #-436]	; 136d0 <_nl_load_domain+0xff8>
   13880:	eafffc36 	b	12960 <_nl_load_domain+0x288>
   13884:	e51f21ac 	ldr	r2, [pc, #-428]	; 136e0 <_nl_load_domain+0x1008>
   13888:	eafffc34 	b	12960 <_nl_load_domain+0x288>
   1388c:	e51f21b0 	ldr	r2, [pc, #-432]	; 136e4 <_nl_load_domain+0x100c>
   13890:	eafffc32 	b	12960 <_nl_load_domain+0x288>
   13894:	e51f21c8 	ldr	r2, [pc, #-456]	; 136d4 <_nl_load_domain+0xffc>
   13898:	eafffc30 	b	12960 <_nl_load_domain+0x288>
   1389c:	e3550050 	cmp	r5, #80	; 0x50
   138a0:	1a00007d 	bne	13a9c <_nl_load_domain+0x13c4>
   138a4:	e5d32005 	ldrb	r2, [r3, #5]
   138a8:	e3520054 	cmp	r2, #84	; 0x54
   138ac:	13a02000 	movne	r2, #0
   138b0:	1afffc2a 	bne	12960 <_nl_load_domain+0x288>
   138b4:	e5d32006 	ldrb	r2, [r3, #6]
   138b8:	e3520052 	cmp	r2, #82	; 0x52
   138bc:	13a02000 	movne	r2, #0
   138c0:	1afffc26 	bne	12960 <_nl_load_domain+0x288>
   138c4:	e5d33007 	ldrb	r3, [r3, #7]
   138c8:	e3530000 	cmp	r3, #0
   138cc:	13a02000 	movne	r2, #0
   138d0:	1afffc22 	bne	12960 <_nl_load_domain+0x288>
   138d4:	e3510064 	cmp	r1, #100	; 0x64
   138d8:	0a00006d 	beq	13a94 <_nl_load_domain+0x13bc>
   138dc:	e51b30b8 	ldr	r3, [fp, #-184]	; 0xffffff48
   138e0:	e3530000 	cmp	r3, #0
   138e4:	1a000068 	bne	13a8c <_nl_load_domain+0x13b4>
   138e8:	e51b30bc 	ldr	r3, [fp, #-188]	; 0xffffff44
   138ec:	e3530000 	cmp	r3, #0
   138f0:	1a000063 	bne	13a84 <_nl_load_domain+0x13ac>
   138f4:	e51b30c4 	ldr	r3, [fp, #-196]	; 0xffffff3c
   138f8:	e3530000 	cmp	r3, #0
   138fc:	1a00005e 	bne	13a7c <_nl_load_domain+0x13a4>
   13900:	e51b10c8 	ldr	r1, [fp, #-200]	; 0xffffff38
   13904:	e51f3234 	ldr	r3, [pc, #-564]	; 136d8 <_nl_load_domain+0x1000>
   13908:	e3510000 	cmp	r1, #0
   1390c:	e51f2238 	ldr	r2, [pc, #-568]	; 136dc <_nl_load_domain+0x1004>
   13910:	11a02003 	movne	r2, r3
   13914:	eafffc11 	b	12960 <_nl_load_domain+0x288>
   13918:	e51f2230 	ldr	r2, [pc, #-560]	; 136f0 <_nl_load_domain+0x1018>
   1391c:	eafffc0f 	b	12960 <_nl_load_domain+0x288>
   13920:	e51f2254 	ldr	r2, [pc, #-596]	; 136d4 <_nl_load_domain+0xffc>
   13924:	eafffc0d 	b	12960 <_nl_load_domain+0x288>
   13928:	e5d3200a 	ldrb	r2, [r3, #10]
   1392c:	e3520032 	cmp	r2, #50	; 0x32
   13930:	13a02000 	movne	r2, #0
   13934:	1afffc09 	bne	12960 <_nl_load_domain+0x288>
   13938:	e5d3300b 	ldrb	r3, [r3, #11]
   1393c:	e3530000 	cmp	r3, #0
   13940:	13a02000 	movne	r2, #0
   13944:	1afffc05 	bne	12960 <_nl_load_domain+0x288>
   13948:	e3510064 	cmp	r1, #100	; 0x64
   1394c:	0a00005a 	beq	13abc <_nl_load_domain+0x13e4>
   13950:	e51b30b8 	ldr	r3, [fp, #-184]	; 0xffffff48
   13954:	e3530000 	cmp	r3, #0
   13958:	1a000055 	bne	13ab4 <_nl_load_domain+0x13dc>
   1395c:	e51b30bc 	ldr	r3, [fp, #-188]	; 0xffffff44
   13960:	e3530000 	cmp	r3, #0
   13964:	1a000050 	bne	13aac <_nl_load_domain+0x13d4>
   13968:	e51b30c4 	ldr	r3, [fp, #-196]	; 0xffffff3c
   1396c:	e3530000 	cmp	r3, #0
   13970:	1a00004b 	bne	13aa4 <_nl_load_domain+0x13cc>
   13974:	e51b10c8 	ldr	r1, [fp, #-200]	; 0xffffff38
   13978:	e51f32a8 	ldr	r3, [pc, #-680]	; 136d8 <_nl_load_domain+0x1000>
   1397c:	e3510000 	cmp	r1, #0
   13980:	e51f22ac 	ldr	r2, [pc, #-684]	; 136dc <_nl_load_domain+0x1004>
   13984:	11a02003 	movne	r2, r3
   13988:	eafffbf4 	b	12960 <_nl_load_domain+0x288>
   1398c:	e5d3200a 	ldrb	r2, [r3, #10]
   13990:	e3520036 	cmp	r2, #54	; 0x36
   13994:	13a02000 	movne	r2, #0
   13998:	1afffbf0 	bne	12960 <_nl_load_domain+0x288>
   1399c:	e5d3300b 	ldrb	r3, [r3, #11]
   139a0:	e3530000 	cmp	r3, #0
   139a4:	13a02000 	movne	r2, #0
   139a8:	1afffbec 	bne	12960 <_nl_load_domain+0x288>
   139ac:	e3510064 	cmp	r1, #100	; 0x64
   139b0:	0a000029 	beq	13a5c <_nl_load_domain+0x1384>
   139b4:	e51b30b8 	ldr	r3, [fp, #-184]	; 0xffffff48
   139b8:	e3530000 	cmp	r3, #0
   139bc:	1a000024 	bne	13a54 <_nl_load_domain+0x137c>
   139c0:	e51b30bc 	ldr	r3, [fp, #-188]	; 0xffffff44
   139c4:	e3530000 	cmp	r3, #0
   139c8:	1a00001f 	bne	13a4c <_nl_load_domain+0x1374>
   139cc:	e51b30c4 	ldr	r3, [fp, #-196]	; 0xffffff3c
   139d0:	e3530000 	cmp	r3, #0
   139d4:	1a00001a 	bne	13a44 <_nl_load_domain+0x136c>
   139d8:	e51b10c8 	ldr	r1, [fp, #-200]	; 0xffffff38
   139dc:	e51f330c 	ldr	r3, [pc, #-780]	; 136d8 <_nl_load_domain+0x1000>
   139e0:	e3510000 	cmp	r1, #0
   139e4:	e51f2310 	ldr	r2, [pc, #-784]	; 136dc <_nl_load_domain+0x1004>
   139e8:	11a02003 	movne	r2, r3
   139ec:	eafffbdb 	b	12960 <_nl_load_domain+0x288>
   139f0:	e5d3300a 	ldrb	r3, [r3, #10]
   139f4:	e3530000 	cmp	r3, #0
   139f8:	13a02000 	movne	r2, #0
   139fc:	1afffbd7 	bne	12960 <_nl_load_domain+0x288>
   13a00:	e3510064 	cmp	r1, #100	; 0x64
   13a04:	0a000034 	beq	13adc <_nl_load_domain+0x1404>
   13a08:	e51b30b8 	ldr	r3, [fp, #-184]	; 0xffffff48
   13a0c:	e3530000 	cmp	r3, #0
   13a10:	1a00002f 	bne	13ad4 <_nl_load_domain+0x13fc>
   13a14:	e51b30bc 	ldr	r3, [fp, #-188]	; 0xffffff44
   13a18:	e3530000 	cmp	r3, #0
   13a1c:	1a00002a 	bne	13acc <_nl_load_domain+0x13f4>
   13a20:	e51b30c4 	ldr	r3, [fp, #-196]	; 0xffffff3c
   13a24:	e3530000 	cmp	r3, #0
   13a28:	1a000025 	bne	13ac4 <_nl_load_domain+0x13ec>
   13a2c:	e51b10c8 	ldr	r1, [fp, #-200]	; 0xffffff38
   13a30:	e51f3360 	ldr	r3, [pc, #-864]	; 136d8 <_nl_load_domain+0x1000>
   13a34:	e3510000 	cmp	r1, #0
   13a38:	e51f2364 	ldr	r2, [pc, #-868]	; 136dc <_nl_load_domain+0x1004>
   13a3c:	11a02003 	movne	r2, r3
   13a40:	eafffbc6 	b	12960 <_nl_load_domain+0x288>
   13a44:	e51f2364 	ldr	r2, [pc, #-868]	; 136e8 <_nl_load_domain+0x1010>
   13a48:	eafffbc4 	b	12960 <_nl_load_domain+0x288>
   13a4c:	e51f2368 	ldr	r2, [pc, #-872]	; 136ec <_nl_load_domain+0x1014>
   13a50:	eafffbc2 	b	12960 <_nl_load_domain+0x288>
   13a54:	e51f236c 	ldr	r2, [pc, #-876]	; 136f0 <_nl_load_domain+0x1018>
   13a58:	eafffbc0 	b	12960 <_nl_load_domain+0x288>
   13a5c:	e51f2370 	ldr	r2, [pc, #-880]	; 136f4 <_nl_load_domain+0x101c>
   13a60:	eafffbbe 	b	12960 <_nl_load_domain+0x288>
   13a64:	e51f238c 	ldr	r2, [pc, #-908]	; 136e0 <_nl_load_domain+0x1008>
   13a68:	eafffbbc 	b	12960 <_nl_load_domain+0x288>
   13a6c:	e51f2390 	ldr	r2, [pc, #-912]	; 136e4 <_nl_load_domain+0x100c>
   13a70:	eafffbba 	b	12960 <_nl_load_domain+0x288>
   13a74:	e51f2388 	ldr	r2, [pc, #-904]	; 136f4 <_nl_load_domain+0x101c>
   13a78:	eafffbb8 	b	12960 <_nl_load_domain+0x288>
   13a7c:	e51f239c 	ldr	r2, [pc, #-924]	; 136e8 <_nl_load_domain+0x1010>
   13a80:	eafffbb6 	b	12960 <_nl_load_domain+0x288>
   13a84:	e51f23a0 	ldr	r2, [pc, #-928]	; 136ec <_nl_load_domain+0x1014>
   13a88:	eafffbb4 	b	12960 <_nl_load_domain+0x288>
   13a8c:	e51f23a4 	ldr	r2, [pc, #-932]	; 136f0 <_nl_load_domain+0x1018>
   13a90:	eafffbb2 	b	12960 <_nl_load_domain+0x288>
   13a94:	e51f23a8 	ldr	r2, [pc, #-936]	; 136f4 <_nl_load_domain+0x101c>
   13a98:	eafffbb0 	b	12960 <_nl_load_domain+0x288>
   13a9c:	e3a02000 	mov	r2, #0
   13aa0:	eafffbae 	b	12960 <_nl_load_domain+0x288>
   13aa4:	e51f23c4 	ldr	r2, [pc, #-964]	; 136e8 <_nl_load_domain+0x1010>
   13aa8:	eafffbac 	b	12960 <_nl_load_domain+0x288>
   13aac:	e51f23c8 	ldr	r2, [pc, #-968]	; 136ec <_nl_load_domain+0x1014>
   13ab0:	eafffbaa 	b	12960 <_nl_load_domain+0x288>
   13ab4:	e51f23cc 	ldr	r2, [pc, #-972]	; 136f0 <_nl_load_domain+0x1018>
   13ab8:	eafffba8 	b	12960 <_nl_load_domain+0x288>
   13abc:	e51f23d0 	ldr	r2, [pc, #-976]	; 136f4 <_nl_load_domain+0x101c>
   13ac0:	eafffba6 	b	12960 <_nl_load_domain+0x288>
   13ac4:	e51f23e4 	ldr	r2, [pc, #-996]	; 136e8 <_nl_load_domain+0x1010>
   13ac8:	eafffba4 	b	12960 <_nl_load_domain+0x288>
   13acc:	e51f23e8 	ldr	r2, [pc, #-1000]	; 136ec <_nl_load_domain+0x1014>
   13ad0:	eafffba2 	b	12960 <_nl_load_domain+0x288>
   13ad4:	e51f23ec 	ldr	r2, [pc, #-1004]	; 136f0 <_nl_load_domain+0x1018>
   13ad8:	eafffba0 	b	12960 <_nl_load_domain+0x288>
   13adc:	e51f23f0 	ldr	r2, [pc, #-1008]	; 136f4 <_nl_load_domain+0x101c>
   13ae0:	eafffb9e 	b	12960 <_nl_load_domain+0x288>

00013ae4 <alias_compare>:
   13ae4:	e5911000 	ldr	r1, [r1]
   13ae8:	e5900000 	ldr	r0, [r0]
   13aec:	e59f2000 	ldr	r2, [pc]	; 13af4 <alias_compare+0x10>
   13af0:	ea00497d 	b	260ec <__strcasecmp_l>
   13af4:	0007e5a8 	.word	0x0007e5a8

00013af8 <read_alias_file>:
   13af8:	e281301c 	add	r3, r1, #28
   13afc:	e92d4ff0 	push	{r4, r5, r6, r7, r8, r9, sl, fp, lr}
   13b00:	e3c33007 	bic	r3, r3, #7
   13b04:	e28db020 	add	fp, sp, #32
   13b08:	e24ddf6f 	sub	sp, sp, #444	; 0x1bc
   13b0c:	e1a04001 	mov	r4, r1
   13b10:	e04dd003 	sub	sp, sp, r3
   13b14:	e1a01000 	mov	r1, r0
   13b18:	e1a02004 	mov	r2, r4
   13b1c:	e1a0000d 	mov	r0, sp
   13b20:	eb004982 	bl	26130 <memcpy>
   13b24:	e59f3430 	ldr	r3, [pc, #1072]	; 13f5c <read_alias_file+0x464>
   13b28:	e080c004 	add	ip, r0, r4
   13b2c:	e1a0e000 	mov	lr, r0
   13b30:	e8b30007 	ldm	r3!, {r0, r1, r2}
   13b34:	e1d330b0 	ldrh	r3, [r3]
   13b38:	e78e0004 	str	r0, [lr, r4]
   13b3c:	e58c1004 	str	r1, [ip, #4]
   13b40:	e1a0000d 	mov	r0, sp
   13b44:	e1cc30bc 	strh	r3, [ip, #12]
   13b48:	e58c2008 	str	r2, [ip, #8]
   13b4c:	e59f140c 	ldr	r1, [pc, #1036]	; 13f60 <read_alias_file+0x468>
   13b50:	eb000cf7 	bl	16f34 <_IO_new_fopen>
   13b54:	e250a000 	subs	sl, r0, #0
   13b58:	0a0000f7 	beq	13f3c <read_alias_file+0x444>
   13b5c:	e59a3000 	ldr	r3, [sl]
   13b60:	e3832902 	orr	r2, r3, #32768	; 0x8000
   13b64:	e2133010 	ands	r3, r3, #16
   13b68:	e58a2000 	str	r2, [sl]
   13b6c:	1a0000f6 	bne	13f4c <read_alias_file+0x454>
   13b70:	e59f73ec 	ldr	r7, [pc, #1004]	; 13f64 <read_alias_file+0x46c>
   13b74:	e3a08e19 	mov	r8, #400	; 0x190
   13b78:	e3a0900a 	mov	r9, #10
   13b7c:	e50b31c0 	str	r3, [fp, #-448]	; 0xfffffe40
   13b80:	e1a0200a 	mov	r2, sl
   13b84:	e1a01008 	mov	r1, r8
   13b88:	e24b0f6d 	sub	r0, fp, #436	; 0x1b4
   13b8c:	eb001585 	bl	191a8 <__fgets_unlocked>
   13b90:	e3500000 	cmp	r0, #0
   13b94:	0a000080 	beq	13d9c <read_alias_file+0x2a4>
   13b98:	e1a01009 	mov	r1, r9
   13b9c:	e24b0f6d 	sub	r0, fp, #436	; 0x1b4
   13ba0:	eb004336 	bl	24880 <strchr>
   13ba4:	e59f33bc 	ldr	r3, [pc, #956]	; 13f68 <read_alias_file+0x470>
   13ba8:	e55b21b4 	ldrb	r2, [fp, #-436]	; 0xfffffe4c
   13bac:	e24b4f6d 	sub	r4, fp, #436	; 0x1b4
   13bb0:	e79f3003 	ldr	r3, [pc, r3]
   13bb4:	e1a01082 	lsl	r1, r2, #1
   13bb8:	e1a06000 	mov	r6, r0
   13bbc:	ebfff45f 	bl	10d40 <__aeabi_read_tp>
   13bc0:	e7903003 	ldr	r3, [r0, r3]
   13bc4:	e19310b1 	ldrh	r1, [r3, r1]
   13bc8:	e3110a02 	tst	r1, #8192	; 0x2000
   13bcc:	0a000004 	beq	13be4 <read_alias_file+0xec>
   13bd0:	e5f42001 	ldrb	r2, [r4, #1]!
   13bd4:	e1a01082 	lsl	r1, r2, #1
   13bd8:	e19310b1 	ldrh	r1, [r3, r1]
   13bdc:	e3110a02 	tst	r1, #8192	; 0x2000
   13be0:	1afffffa 	bne	13bd0 <read_alias_file+0xd8>
   13be4:	e3520000 	cmp	r2, #0
   13be8:	13520023 	cmpne	r2, #35	; 0x23
   13bec:	0a000065 	beq	13d88 <read_alias_file+0x290>
   13bf0:	e5d42001 	ldrb	r2, [r4, #1]
   13bf4:	e2845001 	add	r5, r4, #1
   13bf8:	e3520000 	cmp	r2, #0
   13bfc:	0a000081 	beq	13e08 <read_alias_file+0x310>
   13c00:	e1a02082 	lsl	r2, r2, #1
   13c04:	ea000003 	b	13c18 <read_alias_file+0x120>
   13c08:	e5f52001 	ldrb	r2, [r5, #1]!
   13c0c:	e3520000 	cmp	r2, #0
   13c10:	e1a02082 	lsl	r2, r2, #1
   13c14:	0a00007b 	beq	13e08 <read_alias_file+0x310>
   13c18:	e19320b2 	ldrh	r2, [r3, r2]
   13c1c:	e3120a02 	tst	r2, #8192	; 0x2000
   13c20:	0afffff8 	beq	13c08 <read_alias_file+0x110>
   13c24:	e5d52001 	ldrb	r2, [r5, #1]
   13c28:	e3a00000 	mov	r0, #0
   13c2c:	e5c50000 	strb	r0, [r5]
   13c30:	e2855001 	add	r5, r5, #1
   13c34:	e1a01082 	lsl	r1, r2, #1
   13c38:	e19310b1 	ldrh	r1, [r3, r1]
   13c3c:	e3110a02 	tst	r1, #8192	; 0x2000
   13c40:	0a000004 	beq	13c58 <read_alias_file+0x160>
   13c44:	e5f52001 	ldrb	r2, [r5, #1]!
   13c48:	e1a01082 	lsl	r1, r2, #1
   13c4c:	e19310b1 	ldrh	r1, [r3, r1]
   13c50:	e3110a02 	tst	r1, #8192	; 0x2000
   13c54:	1afffffa 	bne	13c44 <read_alias_file+0x14c>
   13c58:	e3520000 	cmp	r2, #0
   13c5c:	0a000049 	beq	13d88 <read_alias_file+0x290>
   13c60:	e5d52001 	ldrb	r2, [r5, #1]
   13c64:	e2851001 	add	r1, r5, #1
   13c68:	e3520000 	cmp	r2, #0
   13c6c:	0a00000d 	beq	13ca8 <read_alias_file+0x1b0>
   13c70:	e1a00082 	lsl	r0, r2, #1
   13c74:	ea000003 	b	13c88 <read_alias_file+0x190>
   13c78:	e5f12001 	ldrb	r2, [r1, #1]!
   13c7c:	e3520000 	cmp	r2, #0
   13c80:	e1a00082 	lsl	r0, r2, #1
   13c84:	0a000007 	beq	13ca8 <read_alias_file+0x1b0>
   13c88:	e19300b0 	ldrh	r0, [r3, r0]
   13c8c:	e3100a02 	tst	r0, #8192	; 0x2000
   13c90:	0afffff8 	beq	13c78 <read_alias_file+0x180>
   13c94:	e352000a 	cmp	r2, #10
   13c98:	1a00007b 	bne	13e8c <read_alias_file+0x394>
   13c9c:	e3a03000 	mov	r3, #0
   13ca0:	e5c12001 	strb	r2, [r1, #1]
   13ca4:	e5c13000 	strb	r3, [r1]
   13ca8:	e5973000 	ldr	r3, [r7]
   13cac:	e5972004 	ldr	r2, [r7, #4]
   13cb0:	e50b31bc 	str	r3, [fp, #-444]	; 0xfffffe44
   13cb4:	e1530002 	cmp	r3, r2
   13cb8:	2a000076 	bcs	13e98 <read_alias_file+0x3a0>
   13cbc:	e1a00004 	mov	r0, r4
   13cc0:	eb004426 	bl	24d60 <strlen>
   13cc4:	e2803001 	add	r3, r0, #1
   13cc8:	e1a00005 	mov	r0, r5
   13ccc:	e50b31b8 	str	r3, [fp, #-440]	; 0xfffffe48
   13cd0:	eb004422 	bl	24d60 <strlen>
   13cd4:	e5971008 	ldr	r1, [r7, #8]
   13cd8:	e51b21b8 	ldr	r2, [fp, #-440]	; 0xfffffe48
   13cdc:	e50b11c8 	str	r1, [fp, #-456]	; 0xfffffe38
   13ce0:	e0822001 	add	r2, r2, r1
   13ce4:	e597300c 	ldr	r3, [r7, #12]
   13ce8:	e50b21cc 	str	r2, [fp, #-460]	; 0xfffffe34
   13cec:	e2801001 	add	r1, r0, #1
   13cf0:	e0812002 	add	r2, r1, r2
   13cf4:	e1520003 	cmp	r2, r3
   13cf8:	e50b11c4 	str	r1, [fp, #-452]	; 0xfffffe3c
   13cfc:	e50b21d0 	str	r2, [fp, #-464]	; 0xfffffe30
   13d00:	8a000044 	bhi	13e18 <read_alias_file+0x320>
   13d04:	e59f2260 	ldr	r2, [pc, #608]	; 13f6c <read_alias_file+0x474>
   13d08:	e59f325c 	ldr	r3, [pc, #604]	; 13f6c <read_alias_file+0x474>
   13d0c:	e5922000 	ldr	r2, [r2]
   13d10:	e5933004 	ldr	r3, [r3, #4]
   13d14:	e50b21d4 	str	r2, [fp, #-468]	; 0xfffffe2c
   13d18:	e51b21bc 	ldr	r2, [fp, #-444]	; 0xfffffe44
   13d1c:	e1a02182 	lsl	r2, r2, #3
   13d20:	e50b21d8 	str	r2, [fp, #-472]	; 0xfffffe28
   13d24:	e51b01c8 	ldr	r0, [fp, #-456]	; 0xfffffe38
   13d28:	e51b21b8 	ldr	r2, [fp, #-440]	; 0xfffffe48
   13d2c:	e1a01004 	mov	r1, r4
   13d30:	e0830000 	add	r0, r3, r0
   13d34:	e50b31b8 	str	r3, [fp, #-440]	; 0xfffffe48
   13d38:	eb0048fc 	bl	26130 <memcpy>
   13d3c:	e51b31d4 	ldr	r3, [fp, #-468]	; 0xfffffe2c
   13d40:	e51bc1d8 	ldr	ip, [fp, #-472]	; 0xfffffe28
   13d44:	e51be1c0 	ldr	lr, [fp, #-448]	; 0xfffffe40
   13d48:	e083400c 	add	r4, r3, ip
   13d4c:	e28ee001 	add	lr, lr, #1
   13d50:	e51b21c4 	ldr	r2, [fp, #-452]	; 0xfffffe3c
   13d54:	e1a01005 	mov	r1, r5
   13d58:	e50be1c0 	str	lr, [fp, #-448]	; 0xfffffe40
   13d5c:	e783000c 	str	r0, [r3, ip]
   13d60:	e51b31b8 	ldr	r3, [fp, #-440]	; 0xfffffe48
   13d64:	e51b01cc 	ldr	r0, [fp, #-460]	; 0xfffffe34
   13d68:	e0830000 	add	r0, r3, r0
   13d6c:	eb0048ef 	bl	26130 <memcpy>
   13d70:	e51b31bc 	ldr	r3, [fp, #-444]	; 0xfffffe44
   13d74:	e2833001 	add	r3, r3, #1
   13d78:	e5873000 	str	r3, [r7]
   13d7c:	e51b31d0 	ldr	r3, [fp, #-464]	; 0xfffffe30
   13d80:	e5873008 	str	r3, [r7, #8]
   13d84:	e5840004 	str	r0, [r4, #4]
   13d88:	e3560000 	cmp	r6, #0
   13d8c:	0a000014 	beq	13de4 <read_alias_file+0x2ec>
   13d90:	e59a3000 	ldr	r3, [sl]
   13d94:	e3130010 	tst	r3, #16
   13d98:	0affff78 	beq	13b80 <read_alias_file+0x88>
   13d9c:	e1a0000a 	mov	r0, sl
   13da0:	eb000afb 	bl	16994 <_IO_new_fclose>
   13da4:	e51b31c0 	ldr	r3, [fp, #-448]	; 0xfffffe40
   13da8:	e3530000 	cmp	r3, #0
   13dac:	0a000006 	beq	13dcc <read_alias_file+0x2d4>
   13db0:	e59f21b4 	ldr	r2, [pc, #436]	; 13f6c <read_alias_file+0x474>
   13db4:	e59f11a8 	ldr	r1, [pc, #424]	; 13f64 <read_alias_file+0x46c>
   13db8:	e59f31b0 	ldr	r3, [pc, #432]	; 13f70 <read_alias_file+0x478>
   13dbc:	e5920000 	ldr	r0, [r2]
   13dc0:	e5911000 	ldr	r1, [r1]
   13dc4:	e3a02008 	mov	r2, #8
   13dc8:	eb00079d 	bl	15c44 <qsort>
   13dcc:	e51b01c0 	ldr	r0, [fp, #-448]	; 0xfffffe40
   13dd0:	e24bd020 	sub	sp, fp, #32
   13dd4:	e8bd8ff0 	pop	{r4, r5, r6, r7, r8, r9, sl, fp, pc}
   13dd8:	eb0042a8 	bl	24880 <strchr>
   13ddc:	e3500000 	cmp	r0, #0
   13de0:	1affffea 	bne	13d90 <read_alias_file+0x298>
   13de4:	e1a01008 	mov	r1, r8
   13de8:	e1a0200a 	mov	r2, sl
   13dec:	e24b0f6d 	sub	r0, fp, #436	; 0x1b4
   13df0:	eb0014ec 	bl	191a8 <__fgets_unlocked>
   13df4:	e1a01009 	mov	r1, r9
   13df8:	e3500000 	cmp	r0, #0
   13dfc:	e24b0f6d 	sub	r0, fp, #436	; 0x1b4
   13e00:	1afffff4 	bne	13dd8 <read_alias_file+0x2e0>
   13e04:	eaffffe1 	b	13d90 <read_alias_file+0x298>
   13e08:	e1d320b0 	ldrh	r2, [r3]
   13e0c:	e3120a02 	tst	r2, #8192	; 0x2000
   13e10:	1affff8b 	bne	13c44 <read_alias_file+0x14c>
   13e14:	eaffffdb 	b	13d88 <read_alias_file+0x290>
   13e18:	e51b21b8 	ldr	r2, [fp, #-440]	; 0xfffffe48
   13e1c:	e51b11c4 	ldr	r1, [fp, #-452]	; 0xfffffe3c
   13e20:	e0821001 	add	r1, r2, r1
   13e24:	e59f2140 	ldr	r2, [pc, #320]	; 13f6c <read_alias_file+0x474>
   13e28:	e3510b01 	cmp	r1, #1024	; 0x400
   13e2c:	20833001 	addcs	r3, r3, r1
   13e30:	32833b01 	addcc	r3, r3, #1024	; 0x400
   13e34:	e1a01003 	mov	r1, r3
   13e38:	e5922004 	ldr	r2, [r2, #4]
   13e3c:	e50b31dc 	str	r3, [fp, #-476]	; 0xfffffe24
   13e40:	e1a00002 	mov	r0, r2
   13e44:	e50b21d4 	str	r2, [fp, #-468]	; 0xfffffe2c
   13e48:	eb003c15 	bl	22ea4 <__libc_realloc>
   13e4c:	e2503000 	subs	r3, r0, #0
   13e50:	0affffd1 	beq	13d9c <read_alias_file+0x2a4>
   13e54:	e51b21d4 	ldr	r2, [fp, #-468]	; 0xfffffe2c
   13e58:	e1520003 	cmp	r2, r3
   13e5c:	1a00001d 	bne	13ed8 <read_alias_file+0x3e0>
   13e60:	e59f2104 	ldr	r2, [pc, #260]	; 13f6c <read_alias_file+0x474>
   13e64:	e5922000 	ldr	r2, [r2]
   13e68:	e50b21d4 	str	r2, [fp, #-468]	; 0xfffffe2c
   13e6c:	e51b21bc 	ldr	r2, [fp, #-444]	; 0xfffffe44
   13e70:	e1a02182 	lsl	r2, r2, #3
   13e74:	e50b21d8 	str	r2, [fp, #-472]	; 0xfffffe28
   13e78:	e59f20ec 	ldr	r2, [pc, #236]	; 13f6c <read_alias_file+0x474>
   13e7c:	e5823004 	str	r3, [r2, #4]
   13e80:	e51b21dc 	ldr	r2, [fp, #-476]	; 0xfffffe24
   13e84:	e587200c 	str	r2, [r7, #12]
   13e88:	eaffffa5 	b	13d24 <read_alias_file+0x22c>
   13e8c:	e3a03000 	mov	r3, #0
   13e90:	e5c13000 	strb	r3, [r1]
   13e94:	eaffff83 	b	13ca8 <read_alias_file+0x1b0>
   13e98:	e3520000 	cmp	r2, #0
   13e9c:	11a03082 	lslne	r3, r2, #1
   13ea0:	03a03064 	moveq	r3, #100	; 0x64
   13ea4:	e50b31b8 	str	r3, [fp, #-440]	; 0xfffffe48
   13ea8:	e59f30bc 	ldr	r3, [pc, #188]	; 13f6c <read_alias_file+0x474>
   13eac:	11a01202 	lslne	r1, r2, #4
   13eb0:	03a01e32 	moveq	r1, #800	; 0x320
   13eb4:	e5930000 	ldr	r0, [r3]
   13eb8:	eb003bf9 	bl	22ea4 <__libc_realloc>
   13ebc:	e3500000 	cmp	r0, #0
   13ec0:	0affffb5 	beq	13d9c <read_alias_file+0x2a4>
   13ec4:	e59f30a0 	ldr	r3, [pc, #160]	; 13f6c <read_alias_file+0x474>
   13ec8:	e5830000 	str	r0, [r3]
   13ecc:	e51b31b8 	ldr	r3, [fp, #-440]	; 0xfffffe48
   13ed0:	e5873004 	str	r3, [r7, #4]
   13ed4:	eaffff78 	b	13cbc <read_alias_file+0x1c4>
   13ed8:	e51bc1bc 	ldr	ip, [fp, #-444]	; 0xfffffe44
   13edc:	e35c0000 	cmp	ip, #0
   13ee0:	0affffde 	beq	13e60 <read_alias_file+0x368>
   13ee4:	e59f1080 	ldr	r1, [pc, #128]	; 13f6c <read_alias_file+0x474>
   13ee8:	e0432002 	sub	r2, r3, r2
   13eec:	e5911000 	ldr	r1, [r1]
   13ef0:	e1a00001 	mov	r0, r1
   13ef4:	e50b11d4 	str	r1, [fp, #-468]	; 0xfffffe2c
   13ef8:	e1a0118c 	lsl	r1, ip, #3
   13efc:	e1a0e001 	mov	lr, r1
   13f00:	e50b11d8 	str	r1, [fp, #-472]	; 0xfffffe28
   13f04:	e1a01000 	mov	r1, r0
   13f08:	e081e00e 	add	lr, r1, lr
   13f0c:	e2800004 	add	r0, r0, #4
   13f10:	e510c004 	ldr	ip, [r0, #-4]
   13f14:	e2811008 	add	r1, r1, #8
   13f18:	e08cc002 	add	ip, ip, r2
   13f1c:	e500c004 	str	ip, [r0, #-4]
   13f20:	e511c004 	ldr	ip, [r1, #-4]
   13f24:	e2800008 	add	r0, r0, #8
   13f28:	e08cc002 	add	ip, ip, r2
   13f2c:	e501c004 	str	ip, [r1, #-4]
   13f30:	e151000e 	cmp	r1, lr
   13f34:	1afffff5 	bne	13f10 <read_alias_file+0x418>
   13f38:	eaffffce 	b	13e78 <read_alias_file+0x380>
   13f3c:	e50ba1c0 	str	sl, [fp, #-448]	; 0xfffffe40
   13f40:	e51b01c0 	ldr	r0, [fp, #-448]	; 0xfffffe40
   13f44:	e24bd020 	sub	sp, fp, #32
   13f48:	e8bd8ff0 	pop	{r4, r5, r6, r7, r8, r9, sl, fp, pc}
   13f4c:	eb000a90 	bl	16994 <_IO_new_fclose>
   13f50:	e3a03000 	mov	r3, #0
   13f54:	e50b31c0 	str	r3, [fp, #-448]	; 0xfffffe40
   13f58:	eaffff9b 	b	13dcc <read_alias_file+0x2d4>
   13f5c:	0006fc70 	.word	0x0006fc70
   13f60:	0006fc6c 	.word	0x0006fc6c
   13f64:	00096180 	.word	0x00096180
   13f68:	0008149c 	.word	0x0008149c
   13f6c:	00096a60 	.word	0x00096a60
   13f70:	00013ae4 	.word	0x00013ae4

00013f74 <_nl_expand_alias>:
   13f74:	e59f1184 	ldr	r1, [pc, #388]	; 14100 <_nl_expand_alias+0x18c>
   13f78:	e92d4ff0 	push	{r4, r5, r6, r7, r8, r9, sl, fp, lr}
   13f7c:	e3a02001 	mov	r2, #1
   13f80:	e24dd00c 	sub	sp, sp, #12
   13f84:	e1a08000 	mov	r8, r0
   13f88:	e3a03000 	mov	r3, #0
   13f8c:	e58d3004 	str	r3, [sp, #4]
   13f90:	e1913f9f 	ldrex	r3, [r1]
   13f94:	e3530000 	cmp	r3, #0
   13f98:	1a000003 	bne	13fac <_nl_expand_alias+0x38>
   13f9c:	e1810f92 	strex	r0, r2, [r1]
   13fa0:	e3500000 	cmp	r0, #0
   13fa4:	1afffff9 	bne	13f90 <_nl_expand_alias+0x1c>
   13fa8:	ee070fba 	mcr	15, 0, r0, cr7, cr10, {5}
   13fac:	0a000002 	beq	13fbc <_nl_expand_alias+0x48>
   13fb0:	e1a00001 	mov	r0, r1
   13fb4:	e58d3004 	str	r3, [sp, #4]
   13fb8:	eb0054db 	bl	2932c <__lll_lock_wait_private>
   13fbc:	e59f9140 	ldr	r9, [pc, #320]	; 14104 <_nl_expand_alias+0x190>
   13fc0:	e59fb140 	ldr	fp, [pc, #320]	; 14108 <_nl_expand_alias+0x194>
   13fc4:	e59f7140 	ldr	r7, [pc, #320]	; 1410c <_nl_expand_alias+0x198>
   13fc8:	e5993014 	ldr	r3, [r9, #20]
   13fcc:	e3530000 	cmp	r3, #0
   13fd0:	059f3138 	ldreq	r3, [pc, #312]	; 14110 <_nl_expand_alias+0x19c>
   13fd4:	05893014 	streq	r3, [r9, #20]
   13fd8:	e5996000 	ldr	r6, [r9]
   13fdc:	e3560000 	cmp	r6, #0
   13fe0:	0a000012 	beq	14030 <_nl_expand_alias+0xbc>
   13fe4:	e59ba000 	ldr	sl, [fp]
   13fe8:	e3a05000 	mov	r5, #0
   13fec:	ea000003 	b	14000 <_nl_expand_alias+0x8c>
   13ff0:	0a000038 	beq	140d8 <_nl_expand_alias+0x164>
   13ff4:	e2845001 	add	r5, r4, #1
   13ff8:	e1560005 	cmp	r6, r5
   13ffc:	9a00000b 	bls	14030 <_nl_expand_alias+0xbc>
   14000:	e0864005 	add	r4, r6, r5
   14004:	e1a02007 	mov	r2, r7
   14008:	e1a040a4 	lsr	r4, r4, #1
   1400c:	e1a00008 	mov	r0, r8
   14010:	e79a1184 	ldr	r1, [sl, r4, lsl #3]
   14014:	eb004834 	bl	260ec <__strcasecmp_l>
   14018:	e08a2184 	add	r2, sl, r4, lsl #3
   1401c:	e3500000 	cmp	r0, #0
   14020:	aafffff2 	bge	13ff0 <_nl_expand_alias+0x7c>
   14024:	e1a06004 	mov	r6, r4
   14028:	e1560005 	cmp	r6, r5
   1402c:	8afffff3 	bhi	14000 <_nl_expand_alias+0x8c>
   14030:	e5992014 	ldr	r2, [r9, #20]
   14034:	e5d23000 	ldrb	r3, [r2]
   14038:	e3530000 	cmp	r3, #0
   1403c:	0a000012 	beq	1408c <_nl_expand_alias+0x118>
   14040:	e353003a 	cmp	r3, #58	; 0x3a
   14044:	e1a00002 	mov	r0, r2
   14048:	1a000004 	bne	14060 <_nl_expand_alias+0xec>
   1404c:	e5f03001 	ldrb	r3, [r0, #1]!
   14050:	e353003a 	cmp	r3, #58	; 0x3a
   14054:	0afffffc 	beq	1404c <_nl_expand_alias+0xd8>
   14058:	e3530000 	cmp	r3, #0
   1405c:	0a000009 	beq	14088 <_nl_expand_alias+0x114>
   14060:	e1a02000 	mov	r2, r0
   14064:	e5f23001 	ldrb	r3, [r2, #1]!
   14068:	e3530000 	cmp	r3, #0
   1406c:	1353003a 	cmpne	r3, #58	; 0x3a
   14070:	1afffffb 	bne	14064 <_nl_expand_alias+0xf0>
   14074:	e1500002 	cmp	r0, r2
   14078:	3a000010 	bcc	140c0 <_nl_expand_alias+0x14c>
   1407c:	e3530000 	cmp	r3, #0
   14080:	e1a00002 	mov	r0, r2
   14084:	1affffed 	bne	14040 <_nl_expand_alias+0xcc>
   14088:	e5890014 	str	r0, [r9, #20]
   1408c:	e3a0c000 	mov	ip, #0
   14090:	e59f1068 	ldr	r1, [pc, #104]	; 14100 <_nl_expand_alias+0x18c>
   14094:	e3a03000 	mov	r3, #0
   14098:	ee070fba 	mcr	15, 0, r0, cr7, cr10, {5}
   1409c:	e1912f9f 	ldrex	r2, [r1]
   140a0:	e1810f93 	strex	r0, r3, [r1]
   140a4:	e3500000 	cmp	r0, #0
   140a8:	1afffffb 	bne	1409c <_nl_expand_alias+0x128>
   140ac:	e3520001 	cmp	r2, #1
   140b0:	ca00000a 	bgt	140e0 <_nl_expand_alias+0x16c>
   140b4:	e1a0000c 	mov	r0, ip
   140b8:	e28dd00c 	add	sp, sp, #12
   140bc:	e8bd8ff0 	pop	{r4, r5, r6, r7, r8, r9, sl, fp, pc}
   140c0:	e0421000 	sub	r1, r2, r0
   140c4:	e5892014 	str	r2, [r9, #20]
   140c8:	ebfffe8a 	bl	13af8 <read_alias_file>
   140cc:	e3500000 	cmp	r0, #0
   140d0:	0affffd6 	beq	14030 <_nl_expand_alias+0xbc>
   140d4:	eaffffbf 	b	13fd8 <_nl_expand_alias+0x64>
   140d8:	e592c004 	ldr	ip, [r2, #4]
   140dc:	eaffffeb 	b	14090 <_nl_expand_alias+0x11c>
   140e0:	e1a00001 	mov	r0, r1
   140e4:	e3a02001 	mov	r2, #1
   140e8:	e3a01081 	mov	r1, #129	; 0x81
   140ec:	e3a070f0 	mov	r7, #240	; 0xf0
   140f0:	ef000000 	svc	0x00000000
   140f4:	e1a0000c 	mov	r0, ip
   140f8:	e28dd00c 	add	sp, sp, #12
   140fc:	e8bd8ff0 	pop	{r4, r5, r6, r7, r8, r9, sl, fp, pc}
   14100:	00096190 	.word	0x00096190
   14104:	00096180 	.word	0x00096180
   14108:	00096a60 	.word	0x00096a60
   1410c:	0007e5a8 	.word	0x0007e5a8
   14110:	0006fc28 	.word	0x0006fc28

00014114 <_nl_make_l10nflist>:
   14114:	e92d4ff0 	push	{r4, r5, r6, r7, r8, r9, sl, fp, lr}
   14118:	e24dd03c 	sub	sp, sp, #60	; 0x3c
   1411c:	e1a05002 	mov	r5, r2
   14120:	e59db060 	ldr	fp, [sp, #96]	; 0x60
   14124:	e58d0020 	str	r0, [sp, #32]
   14128:	e1a0000b 	mov	r0, fp
   1412c:	e1a09003 	mov	r9, r3
   14130:	e58d1028 	str	r1, [sp, #40]	; 0x28
   14134:	e58d2024 	str	r2, [sp, #36]	; 0x24
   14138:	eb004308 	bl	24d60 <strlen>
   1413c:	e2197004 	ands	r7, r9, #4
   14140:	e2856002 	add	r6, r5, #2
   14144:	01a05007 	moveq	r5, r7
   14148:	e1a04000 	mov	r4, r0
   1414c:	0a000002 	beq	1415c <_nl_make_l10nflist+0x48>
   14150:	e59d0064 	ldr	r0, [sp, #100]	; 0x64
   14154:	eb004301 	bl	24d60 <strlen>
   14158:	e2805001 	add	r5, r0, #1
   1415c:	e2193002 	ands	r3, r9, #2
   14160:	e58d302c 	str	r3, [sp, #44]	; 0x2c
   14164:	e0844006 	add	r4, r4, r6
   14168:	0a0000ee 	beq	14528 <_nl_make_l10nflist+0x414>
   1416c:	e59d0068 	ldr	r0, [sp, #104]	; 0x68
   14170:	eb0042fa 	bl	24d60 <strlen>
   14174:	e2808001 	add	r8, r0, #1
   14178:	e2193001 	ands	r3, r9, #1
   1417c:	e58d3030 	str	r3, [sp, #48]	; 0x30
   14180:	e0855004 	add	r5, r5, r4
   14184:	0a0000e5 	beq	14520 <_nl_make_l10nflist+0x40c>
   14188:	e59d006c 	ldr	r0, [sp, #108]	; 0x6c
   1418c:	eb0042f3 	bl	24d60 <strlen>
   14190:	e2806001 	add	r6, r0, #1
   14194:	e2193008 	ands	r3, r9, #8
   14198:	e58d3034 	str	r3, [sp, #52]	; 0x34
   1419c:	e0885005 	add	r5, r8, r5
   141a0:	0a0000dc 	beq	14518 <_nl_make_l10nflist+0x404>
   141a4:	e59d0070 	ldr	r0, [sp, #112]	; 0x70
   141a8:	eb0042ec 	bl	24d60 <strlen>
   141ac:	e2804001 	add	r4, r0, #1
   141b0:	e59d0074 	ldr	r0, [sp, #116]	; 0x74
   141b4:	eb0042e9 	bl	24d60 <strlen>
   141b8:	e0865005 	add	r5, r6, r5
   141bc:	e1a08000 	mov	r8, r0
   141c0:	e0850004 	add	r0, r5, r4
   141c4:	e0800008 	add	r0, r0, r8
   141c8:	eb003987 	bl	227ec <__libc_malloc>
   141cc:	e2505000 	subs	r5, r0, #0
   141d0:	0a000102 	beq	145e0 <_nl_make_l10nflist+0x4cc>
   141d4:	e59d4024 	ldr	r4, [sp, #36]	; 0x24
   141d8:	e59d1028 	ldr	r1, [sp, #40]	; 0x28
   141dc:	e1a02004 	mov	r2, r4
   141e0:	eb0047d2 	bl	26130 <memcpy>
   141e4:	e3540000 	cmp	r4, #0
   141e8:	0a00000a 	beq	14218 <_nl_make_l10nflist+0x104>
   141ec:	e1a0a004 	mov	sl, r4
   141f0:	e1a06005 	mov	r6, r5
   141f4:	e3a0403a 	mov	r4, #58	; 0x3a
   141f8:	e1a00006 	mov	r0, r6
   141fc:	eb0042d7 	bl	24d60 <strlen>
   14200:	e1e03000 	mvn	r3, r0
   14204:	e09aa003 	adds	sl, sl, r3
   14208:	e0866000 	add	r6, r6, r0
   1420c:	15c64000 	strbne	r4, [r6]
   14210:	12866001 	addne	r6, r6, #1
   14214:	1afffff7 	bne	141f8 <_nl_make_l10nflist+0xe4>
   14218:	e59d3024 	ldr	r3, [sp, #36]	; 0x24
   1421c:	e1a0100b 	mov	r1, fp
   14220:	e0850003 	add	r0, r5, r3
   14224:	e3a0302f 	mov	r3, #47	; 0x2f
   14228:	e5403001 	strb	r3, [r0, #-1]
   1422c:	eb0041d3 	bl	24980 <__stpcpy>
   14230:	e3570000 	cmp	r7, #0
   14234:	1a0000bd 	bne	14530 <_nl_make_l10nflist+0x41c>
   14238:	e59d302c 	ldr	r3, [sp, #44]	; 0x2c
   1423c:	e3530000 	cmp	r3, #0
   14240:	1a0000c2 	bne	14550 <_nl_make_l10nflist+0x43c>
   14244:	e59d3030 	ldr	r3, [sp, #48]	; 0x30
   14248:	e3530000 	cmp	r3, #0
   1424c:	1a0000c7 	bne	14570 <_nl_make_l10nflist+0x45c>
   14250:	e59d3034 	ldr	r3, [sp, #52]	; 0x34
   14254:	e3530000 	cmp	r3, #0
   14258:	1a0000cc 	bne	14590 <_nl_make_l10nflist+0x47c>
   1425c:	e3a0302f 	mov	r3, #47	; 0x2f
   14260:	e4c03001 	strb	r3, [r0], #1
   14264:	e2882001 	add	r2, r8, #1
   14268:	e59d1074 	ldr	r1, [sp, #116]	; 0x74
   1426c:	eb0047af 	bl	26130 <memcpy>
   14270:	e59d3020 	ldr	r3, [sp, #32]
   14274:	e5937000 	ldr	r7, [r3]
   14278:	e3570000 	cmp	r7, #0
   1427c:	0a0000d9 	beq	145e8 <_nl_make_l10nflist+0x4d4>
   14280:	e1a08007 	mov	r8, r7
   14284:	e3a06000 	mov	r6, #0
   14288:	e5983000 	ldr	r3, [r8]
   1428c:	e1a01005 	mov	r1, r5
   14290:	e2530000 	subs	r0, r3, #0
   14294:	0a000004 	beq	142ac <_nl_make_l10nflist+0x198>
   14298:	eb0041ab 	bl	2494c <strcmp>
   1429c:	e3500000 	cmp	r0, #0
   142a0:	0a0000c1 	beq	145ac <_nl_make_l10nflist+0x498>
   142a4:	ba000003 	blt	142b8 <_nl_make_l10nflist+0x1a4>
   142a8:	e1a06008 	mov	r6, r8
   142ac:	e598800c 	ldr	r8, [r8, #12]
   142b0:	e3580000 	cmp	r8, #0
   142b4:	1afffff3 	bne	14288 <_nl_make_l10nflist+0x174>
   142b8:	e59d3078 	ldr	r3, [sp, #120]	; 0x78
   142bc:	e3530000 	cmp	r3, #0
   142c0:	0a0000b8 	beq	145a8 <_nl_make_l10nflist+0x494>
   142c4:	e59d3024 	ldr	r3, [sp, #36]	; 0x24
   142c8:	e3530000 	cmp	r3, #0
   142cc:	0a0000bb 	beq	145c0 <_nl_make_l10nflist+0x4ac>
   142d0:	e59d4024 	ldr	r4, [sp, #36]	; 0x24
   142d4:	e59d8028 	ldr	r8, [sp, #40]	; 0x28
   142d8:	e3a0a000 	mov	sl, #0
   142dc:	e1a00008 	mov	r0, r8
   142e0:	eb00429e 	bl	24d60 <strlen>
   142e4:	e28aa001 	add	sl, sl, #1
   142e8:	e1e03000 	mvn	r3, r0
   142ec:	e0944003 	adds	r4, r4, r3
   142f0:	e2800001 	add	r0, r0, #1
   142f4:	e0888000 	add	r8, r8, r0
   142f8:	1afffff7 	bne	142dc <_nl_make_l10nflist+0x1c8>
   142fc:	e59f22ec 	ldr	r2, [pc, #748]	; 145f0 <_nl_make_l10nflist+0x4dc>
   14300:	e59f32ec 	ldr	r3, [pc, #748]	; 145f4 <_nl_make_l10nflist+0x4e0>
   14304:	e00220c9 	and	r2, r2, r9, asr #1
   14308:	e0033009 	and	r3, r3, r9
   1430c:	e0822003 	add	r2, r2, r3
   14310:	e59f12e0 	ldr	r1, [pc, #736]	; 145f8 <_nl_make_l10nflist+0x4e4>
   14314:	e59f32e0 	ldr	r3, [pc, #736]	; 145fc <_nl_make_l10nflist+0x4e8>
   14318:	e0011002 	and	r1, r1, r2
   1431c:	e0033142 	and	r3, r3, r2, asr #2
   14320:	e0833001 	add	r3, r3, r1
   14324:	e59f22d4 	ldr	r2, [pc, #724]	; 14600 <_nl_make_l10nflist+0x4ec>
   14328:	e0833243 	add	r3, r3, r3, asr #4
   1432c:	e0022003 	and	r2, r2, r3
   14330:	e1a03a03 	lsl	r3, r3, #20
   14334:	e0823e23 	add	r3, r2, r3, lsr #28
   14338:	e6ef0073 	uxtb	r0, r3
   1433c:	e1a0001a 	lsl	r0, sl, r0
   14340:	e2800005 	add	r0, r0, #5
   14344:	e1a00100 	lsl	r0, r0, #2
   14348:	eb003927 	bl	227ec <__libc_malloc>
   1434c:	e2508000 	subs	r8, r0, #0
   14350:	0a0000a0 	beq	145d8 <_nl_make_l10nflist+0x4c4>
   14354:	e5885000 	str	r5, [r8]
   14358:	e59da024 	ldr	sl, [sp, #36]	; 0x24
   1435c:	e59d5028 	ldr	r5, [sp, #40]	; 0x28
   14360:	e1a00005 	mov	r0, r5
   14364:	eb00427d 	bl	24d60 <strlen>
   14368:	e2844001 	add	r4, r4, #1
   1436c:	e1e03000 	mvn	r3, r0
   14370:	e09aa003 	adds	sl, sl, r3
   14374:	e2800001 	add	r0, r0, #1
   14378:	e0855000 	add	r5, r5, r0
   1437c:	1afffff7 	bne	14360 <_nl_make_l10nflist+0x24c>
   14380:	e3540001 	cmp	r4, #1
   14384:	02093003 	andeq	r3, r9, #3
   14388:	02433003 	subeq	r3, r3, #3
   1438c:	13a03001 	movne	r3, #1
   14390:	016f3f13 	clzeq	r3, r3
   14394:	01a032a3 	lsreq	r3, r3, #5
   14398:	e3560000 	cmp	r6, #0
   1439c:	e5883004 	str	r3, [r8, #4]
   143a0:	059d3020 	ldreq	r3, [sp, #32]
   143a4:	1596300c 	ldrne	r3, [r6, #12]
   143a8:	e3a02000 	mov	r2, #0
   143ac:	1588300c 	strne	r3, [r8, #12]
   143b0:	05838000 	streq	r8, [r3]
   143b4:	e59d3024 	ldr	r3, [sp, #36]	; 0x24
   143b8:	e5882008 	str	r2, [r8, #8]
   143bc:	0588700c 	streq	r7, [r8, #12]
   143c0:	1586800c 	strne	r8, [r6, #12]
   143c4:	e3530000 	cmp	r3, #0
   143c8:	0a00000d 	beq	14404 <_nl_make_l10nflist+0x2f0>
   143cc:	e59d4028 	ldr	r4, [sp, #40]	; 0x28
   143d0:	e1a05003 	mov	r5, r3
   143d4:	e3a06000 	mov	r6, #0
   143d8:	e1a00004 	mov	r0, r4
   143dc:	eb00425f 	bl	24d60 <strlen>
   143e0:	e2866001 	add	r6, r6, #1
   143e4:	e1e03000 	mvn	r3, r0
   143e8:	e0955003 	adds	r5, r5, r3
   143ec:	e2800001 	add	r0, r0, #1
   143f0:	e0844000 	add	r4, r4, r0
   143f4:	1afffff7 	bne	143d8 <_nl_make_l10nflist+0x2c4>
   143f8:	e3560001 	cmp	r6, #1
   143fc:	02497001 	subeq	r7, r9, #1
   14400:	0a000000 	beq	14408 <_nl_make_l10nflist+0x2f4>
   14404:	e1a07009 	mov	r7, r9
   14408:	e3570000 	cmp	r7, #0
   1440c:	e3a06000 	mov	r6, #0
   14410:	ba00003a 	blt	14500 <_nl_make_l10nflist+0x3ec>
   14414:	e1e03009 	mvn	r3, r9
   14418:	e58d302c 	str	r3, [sp, #44]	; 0x2c
   1441c:	e59d2024 	ldr	r2, [sp, #36]	; 0x24
   14420:	e59d3028 	ldr	r3, [sp, #40]	; 0x28
   14424:	e58d8030 	str	r8, [sp, #48]	; 0x30
   14428:	e1a0a006 	mov	sl, r6
   1442c:	e0839002 	add	r9, r3, r2
   14430:	e59d8074 	ldr	r8, [sp, #116]	; 0x74
   14434:	ea000001 	b	14440 <_nl_make_l10nflist+0x32c>
   14438:	e2577001 	subs	r7, r7, #1
   1443c:	3a00002e 	bcc	144fc <_nl_make_l10nflist+0x3e8>
   14440:	e59d302c 	ldr	r3, [sp, #44]	; 0x2c
   14444:	e1130007 	tst	r3, r7
   14448:	1afffffa 	bne	14438 <_nl_make_l10nflist+0x324>
   1444c:	e2865004 	add	r5, r6, #4
   14450:	e1a0400a 	mov	r4, sl
   14454:	e59d3030 	ldr	r3, [sp, #48]	; 0x30
   14458:	e2540000 	subs	r0, r4, #0
   1445c:	e0835105 	add	r5, r3, r5, lsl #2
   14460:	e1a0100a 	mov	r1, sl
   14464:	0a00001e 	beq	144e4 <_nl_make_l10nflist+0x3d0>
   14468:	e1540009 	cmp	r4, r9
   1446c:	2afffff1 	bcs	14438 <_nl_make_l10nflist+0x324>
   14470:	eb0047fa 	bl	26460 <__rawmemchr>
   14474:	e2804001 	add	r4, r0, #1
   14478:	e3540000 	cmp	r4, #0
   1447c:	11540009 	cmpne	r4, r9
   14480:	2affffec 	bcs	14438 <_nl_make_l10nflist+0x324>
   14484:	e1a00004 	mov	r0, r4
   14488:	eb004234 	bl	24d60 <strlen>
   1448c:	e3a03001 	mov	r3, #1
   14490:	e58d3018 	str	r3, [sp, #24]
   14494:	e59d3070 	ldr	r3, [sp, #112]	; 0x70
   14498:	e1a01004 	mov	r1, r4
   1449c:	e58d3010 	str	r3, [sp, #16]
   144a0:	e59d306c 	ldr	r3, [sp, #108]	; 0x6c
   144a4:	e58d8014 	str	r8, [sp, #20]
   144a8:	e58d300c 	str	r3, [sp, #12]
   144ac:	e59d3068 	ldr	r3, [sp, #104]	; 0x68
   144b0:	e58db000 	str	fp, [sp]
   144b4:	e58d3008 	str	r3, [sp, #8]
   144b8:	e59d3064 	ldr	r3, [sp, #100]	; 0x64
   144bc:	e2866001 	add	r6, r6, #1
   144c0:	e58d3004 	str	r3, [sp, #4]
   144c4:	e1a03007 	mov	r3, r7
   144c8:	e2802001 	add	r2, r0, #1
   144cc:	e59d0020 	ldr	r0, [sp, #32]
   144d0:	ebffff0f 	bl	14114 <_nl_make_l10nflist>
   144d4:	e1a0100a 	mov	r1, sl
   144d8:	e4850004 	str	r0, [r5], #4
   144dc:	e2540000 	subs	r0, r4, #0
   144e0:	1affffe0 	bne	14468 <_nl_make_l10nflist+0x354>
   144e4:	e59d3024 	ldr	r3, [sp, #36]	; 0x24
   144e8:	e59d4028 	ldr	r4, [sp, #40]	; 0x28
   144ec:	e3530000 	cmp	r3, #0
   144f0:	1affffe3 	bne	14484 <_nl_make_l10nflist+0x370>
   144f4:	e2577001 	subs	r7, r7, #1
   144f8:	2affffd0 	bcs	14440 <_nl_make_l10nflist+0x32c>
   144fc:	e59d8030 	ldr	r8, [sp, #48]	; 0x30
   14500:	e2866004 	add	r6, r6, #4
   14504:	e3a03000 	mov	r3, #0
   14508:	e7883106 	str	r3, [r8, r6, lsl #2]
   1450c:	e1a00008 	mov	r0, r8
   14510:	e28dd03c 	add	sp, sp, #60	; 0x3c
   14514:	e8bd8ff0 	pop	{r4, r5, r6, r7, r8, r9, sl, fp, pc}
   14518:	e2194008 	ands	r4, r9, #8
   1451c:	eaffff23 	b	141b0 <_nl_make_l10nflist+0x9c>
   14520:	e2196001 	ands	r6, r9, #1
   14524:	eaffff1a 	b	14194 <_nl_make_l10nflist+0x80>
   14528:	e2198002 	ands	r8, r9, #2
   1452c:	eaffff11 	b	14178 <_nl_make_l10nflist+0x64>
   14530:	e3a0305f 	mov	r3, #95	; 0x5f
   14534:	e5c03000 	strb	r3, [r0]
   14538:	e59d1064 	ldr	r1, [sp, #100]	; 0x64
   1453c:	e2800001 	add	r0, r0, #1
   14540:	eb00410e 	bl	24980 <__stpcpy>
   14544:	e59d302c 	ldr	r3, [sp, #44]	; 0x2c
   14548:	e3530000 	cmp	r3, #0
   1454c:	0affff3c 	beq	14244 <_nl_make_l10nflist+0x130>
   14550:	e3a0302e 	mov	r3, #46	; 0x2e
   14554:	e5c03000 	strb	r3, [r0]
   14558:	e59d1068 	ldr	r1, [sp, #104]	; 0x68
   1455c:	e2800001 	add	r0, r0, #1
   14560:	eb004106 	bl	24980 <__stpcpy>
   14564:	e59d3030 	ldr	r3, [sp, #48]	; 0x30
   14568:	e3530000 	cmp	r3, #0
   1456c:	0affff37 	beq	14250 <_nl_make_l10nflist+0x13c>
   14570:	e3a0302e 	mov	r3, #46	; 0x2e
   14574:	e5c03000 	strb	r3, [r0]
   14578:	e59d106c 	ldr	r1, [sp, #108]	; 0x6c
   1457c:	e2800001 	add	r0, r0, #1
   14580:	eb0040fe 	bl	24980 <__stpcpy>
   14584:	e59d3034 	ldr	r3, [sp, #52]	; 0x34
   14588:	e3530000 	cmp	r3, #0
   1458c:	0affff32 	beq	1425c <_nl_make_l10nflist+0x148>
   14590:	e3a03040 	mov	r3, #64	; 0x40
   14594:	e5c03000 	strb	r3, [r0]
   14598:	e59d1070 	ldr	r1, [sp, #112]	; 0x70
   1459c:	e2800001 	add	r0, r0, #1
   145a0:	eb0040f6 	bl	24980 <__stpcpy>
   145a4:	eaffff2c 	b	1425c <_nl_make_l10nflist+0x148>
   145a8:	e59d8078 	ldr	r8, [sp, #120]	; 0x78
   145ac:	e1a00005 	mov	r0, r5
   145b0:	eb003a07 	bl	22dd4 <__cfree>
   145b4:	e1a00008 	mov	r0, r8
   145b8:	e28dd03c 	add	sp, sp, #60	; 0x3c
   145bc:	e8bd8ff0 	pop	{r4, r5, r6, r7, r8, r9, sl, fp, pc}
   145c0:	e3a00014 	mov	r0, #20
   145c4:	eb003888 	bl	227ec <__libc_malloc>
   145c8:	e2508000 	subs	r8, r0, #0
   145cc:	13a03001 	movne	r3, #1
   145d0:	15885000 	strne	r5, [r8]
   145d4:	1affff6f 	bne	14398 <_nl_make_l10nflist+0x284>
   145d8:	e1a00005 	mov	r0, r5
   145dc:	eb0039fc 	bl	22dd4 <__cfree>
   145e0:	e3a08000 	mov	r8, #0
   145e4:	eaffffc8 	b	1450c <_nl_make_l10nflist+0x3f8>
   145e8:	e1a06007 	mov	r6, r7
   145ec:	eaffff31 	b	142b8 <_nl_make_l10nflist+0x1a4>
   145f0:	ffffd555 	.word	0xffffd555
   145f4:	00005555 	.word	0x00005555
   145f8:	00003333 	.word	0x00003333
   145fc:	fffff333 	.word	0xfffff333
   14600:	00000f0f 	.word	0x00000f0f

00014604 <_nl_normalize_codeset>:
   14604:	e92d41f0 	push	{r4, r5, r6, r7, r8, lr}
   14608:	e2518000 	subs	r8, r1, #0
   1460c:	e1a04000 	mov	r4, r0
   14610:	0a00003c 	beq	14708 <_nl_normalize_codeset+0x104>
   14614:	e59f7108 	ldr	r7, [pc, #264]	; 14724 <_nl_normalize_codeset+0x120>
   14618:	e1a02000 	mov	r2, r0
   1461c:	e0805008 	add	r5, r0, r8
   14620:	e5971034 	ldr	r1, [r7, #52]	; 0x34
   14624:	e3a06001 	mov	r6, #1
   14628:	e3a00000 	mov	r0, #0
   1462c:	e4d23001 	ldrb	r3, [r2], #1
   14630:	e243c030 	sub	ip, r3, #48	; 0x30
   14634:	e1a03083 	lsl	r3, r3, #1
   14638:	e19130b3 	ldrh	r3, [r1, r3]
   1463c:	e3130008 	tst	r3, #8
   14640:	0a000002 	beq	14650 <_nl_normalize_codeset+0x4c>
   14644:	e35c0009 	cmp	ip, #9
   14648:	e2800001 	add	r0, r0, #1
   1464c:	83a06000 	movhi	r6, #0
   14650:	e1550002 	cmp	r5, r2
   14654:	1afffff4 	bne	1462c <_nl_normalize_codeset+0x28>
   14658:	e3560000 	cmp	r6, #0
   1465c:	1a00001c 	bne	146d4 <_nl_normalize_codeset+0xd0>
   14660:	e2800001 	add	r0, r0, #1
   14664:	eb003860 	bl	227ec <__libc_malloc>
   14668:	e250c000 	subs	ip, r0, #0
   1466c:	11a0000c 	movne	r0, ip
   14670:	0a000029 	beq	1471c <_nl_normalize_codeset+0x118>
   14674:	e5978034 	ldr	r8, [r7, #52]	; 0x34
   14678:	e5976038 	ldr	r6, [r7, #56]	; 0x38
   1467c:	e1a02004 	mov	r2, r4
   14680:	ea000004 	b	14698 <_nl_normalize_codeset+0x94>
   14684:	e7963101 	ldr	r3, [r6, r1, lsl #2]
   14688:	e1550002 	cmp	r5, r2
   1468c:	e5cc3000 	strb	r3, [ip]
   14690:	e28cc001 	add	ip, ip, #1
   14694:	0a00000b 	beq	146c8 <_nl_normalize_codeset+0xc4>
   14698:	e4d23001 	ldrb	r3, [r2], #1
   1469c:	e2434030 	sub	r4, r3, #48	; 0x30
   146a0:	e6bf1073 	sxth	r1, r3
   146a4:	e1a0e081 	lsl	lr, r1, #1
   146a8:	e198e0be 	ldrh	lr, [r8, lr]
   146ac:	e31e0b01 	tst	lr, #1024	; 0x400
   146b0:	1afffff3 	bne	14684 <_nl_normalize_codeset+0x80>
   146b4:	e3540009 	cmp	r4, #9
   146b8:	95cc3000 	strbls	r3, [ip]
   146bc:	928cc001 	addls	ip, ip, #1
   146c0:	e1550002 	cmp	r5, r2
   146c4:	1afffff3 	bne	14698 <_nl_normalize_codeset+0x94>
   146c8:	e3a03000 	mov	r3, #0
   146cc:	e5cc3000 	strb	r3, [ip]
   146d0:	e8bd81f0 	pop	{r4, r5, r6, r7, r8, pc}
   146d4:	e2800004 	add	r0, r0, #4
   146d8:	eb003843 	bl	227ec <__libc_malloc>
   146dc:	e3500000 	cmp	r0, #0
   146e0:	0a000007 	beq	14704 <_nl_normalize_codeset+0x100>
   146e4:	e59f303c 	ldr	r3, [pc, #60]	; 14728 <_nl_normalize_codeset+0x124>
   146e8:	e1a0c000 	mov	ip, r0
   146ec:	e3580000 	cmp	r8, #0
   146f0:	e48c3003 	str	r3, [ip], #3
   146f4:	0afffff3 	beq	146c8 <_nl_normalize_codeset+0xc4>
   146f8:	e0845008 	add	r5, r4, r8
   146fc:	e59f7020 	ldr	r7, [pc, #32]	; 14724 <_nl_normalize_codeset+0x120>
   14700:	eaffffdb 	b	14674 <_nl_normalize_codeset+0x70>
   14704:	e8bd81f0 	pop	{r4, r5, r6, r7, r8, pc}
   14708:	e3a00004 	mov	r0, #4
   1470c:	eb003836 	bl	227ec <__libc_malloc>
   14710:	e3500000 	cmp	r0, #0
   14714:	1afffff2 	bne	146e4 <_nl_normalize_codeset+0xe0>
   14718:	e8bd81f0 	pop	{r4, r5, r6, r7, r8, pc}
   1471c:	e1a00006 	mov	r0, r6
   14720:	e8bd81f0 	pop	{r4, r5, r6, r7, r8, pc}
   14724:	0007e5a8 	.word	0x0007e5a8
   14728:	006f7369 	.word	0x006f7369

0001472c <_nl_explode_name>:
   1472c:	e92d4ff8 	push	{r3, r4, r5, r6, r7, r8, r9, sl, fp, lr}
   14730:	e1a09003 	mov	r9, r3
   14734:	e3a03000 	mov	r3, #0
   14738:	e5823000 	str	r3, [r2]
   1473c:	e59d6028 	ldr	r6, [sp, #40]	; 0x28
   14740:	e1a08002 	mov	r8, r2
   14744:	e59d202c 	ldr	r2, [sp, #44]	; 0x2c
   14748:	e5893000 	str	r3, [r9]
   1474c:	e5863000 	str	r3, [r6]
   14750:	e5823000 	str	r3, [r2]
   14754:	e5810000 	str	r0, [r1]
   14758:	e5d03000 	ldrb	r3, [r0]
   1475c:	e20320bf 	and	r2, r3, #191	; 0xbf
   14760:	e353005f 	cmp	r3, #95	; 0x5f
   14764:	13520000 	cmpne	r2, #0
   14768:	0a000062 	beq	148f8 <_nl_explode_name+0x1cc>
   1476c:	e353002e 	cmp	r3, #46	; 0x2e
   14770:	0a000060 	beq	148f8 <_nl_explode_name+0x1cc>
   14774:	e1a0c000 	mov	ip, r0
   14778:	ea000005 	b	14794 <_nl_explode_name+0x68>
   1477c:	e3510040 	cmp	r1, #64	; 0x40
   14780:	1351002e 	cmpne	r1, #46	; 0x2e
   14784:	13a05001 	movne	r5, #1
   14788:	03a05000 	moveq	r5, #0
   1478c:	e1a0c00e 	mov	ip, lr
   14790:	0a00003b 	beq	14884 <_nl_explode_name+0x158>
   14794:	e5dc1001 	ldrb	r1, [ip, #1]
   14798:	e28ce001 	add	lr, ip, #1
   1479c:	e3510000 	cmp	r1, #0
   147a0:	1351005f 	cmpne	r1, #95	; 0x5f
   147a4:	13a05001 	movne	r5, #1
   147a8:	03a05000 	moveq	r5, #0
   147ac:	1afffff2 	bne	1477c <_nl_explode_name+0x50>
   147b0:	e150000e 	cmp	r0, lr
   147b4:	0a00004f 	beq	148f8 <_nl_explode_name+0x1cc>
   147b8:	e351005f 	cmp	r1, #95	; 0x5f
   147bc:	11a0400e 	movne	r4, lr
   147c0:	1a000032 	bne	14890 <_nl_explode_name+0x164>
   147c4:	e28c4002 	add	r4, ip, #2
   147c8:	e5ce5000 	strb	r5, [lr]
   147cc:	e5894000 	str	r4, [r9]
   147d0:	e5de1001 	ldrb	r1, [lr, #1]
   147d4:	e20130bf 	and	r3, r1, #191	; 0xbf
   147d8:	e351002e 	cmp	r1, #46	; 0x2e
   147dc:	13530000 	cmpne	r3, #0
   147e0:	0a000004 	beq	147f8 <_nl_explode_name+0xcc>
   147e4:	e5f41001 	ldrb	r1, [r4, #1]!
   147e8:	e20130bf 	and	r3, r1, #191	; 0xbf
   147ec:	e351002e 	cmp	r1, #46	; 0x2e
   147f0:	13530000 	cmpne	r3, #0
   147f4:	1afffffa 	bne	147e4 <_nl_explode_name+0xb8>
   147f8:	e351002e 	cmp	r1, #46	; 0x2e
   147fc:	e3a05004 	mov	r5, #4
   14800:	1a000024 	bne	14898 <_nl_explode_name+0x16c>
   14804:	e1a00004 	mov	r0, r4
   14808:	e3a03000 	mov	r3, #0
   1480c:	e4c03001 	strb	r3, [r0], #1
   14810:	e5860000 	str	r0, [r6]
   14814:	e5d41001 	ldrb	r1, [r4, #1]
   14818:	e31100bf 	tst	r1, #191	; 0xbf
   1481c:	0a000040 	beq	14924 <_nl_explode_name+0x1f8>
   14820:	e1a0b000 	mov	fp, r0
   14824:	ea000000 	b	1482c <_nl_explode_name+0x100>
   14828:	e1a0b004 	mov	fp, r4
   1482c:	e5db3001 	ldrb	r3, [fp, #1]
   14830:	e28b4001 	add	r4, fp, #1
   14834:	e31300bf 	tst	r3, #191	; 0xbf
   14838:	1afffffa 	bne	14828 <_nl_explode_name+0xfc>
   1483c:	e1500004 	cmp	r0, r4
   14840:	e385a002 	orr	sl, r5, #2
   14844:	0a000039 	beq	14930 <_nl_explode_name+0x204>
   14848:	e0441000 	sub	r1, r4, r0
   1484c:	ebffff6c 	bl	14604 <_nl_normalize_codeset>
   14850:	e59d302c 	ldr	r3, [sp, #44]	; 0x2c
   14854:	e3500000 	cmp	r0, #0
   14858:	e1a07000 	mov	r7, r0
   1485c:	e5830000 	str	r0, [r3]
   14860:	0a000034 	beq	14938 <_nl_explode_name+0x20c>
   14864:	e1a01000 	mov	r1, r0
   14868:	e5960000 	ldr	r0, [r6]
   1486c:	eb004036 	bl	2494c <strcmp>
   14870:	e3500000 	cmp	r0, #0
   14874:	0a000025 	beq	14910 <_nl_explode_name+0x1e4>
   14878:	e3855003 	orr	r5, r5, #3
   1487c:	e5db1001 	ldrb	r1, [fp, #1]
   14880:	ea000004 	b	14898 <_nl_explode_name+0x16c>
   14884:	e150000e 	cmp	r0, lr
   14888:	0a00001a 	beq	148f8 <_nl_explode_name+0x1cc>
   1488c:	e1a0400e 	mov	r4, lr
   14890:	e351002e 	cmp	r1, #46	; 0x2e
   14894:	0affffda 	beq	14804 <_nl_explode_name+0xd8>
   14898:	e3510040 	cmp	r1, #64	; 0x40
   1489c:	0a00000d 	beq	148d8 <_nl_explode_name+0x1ac>
   148a0:	e5993000 	ldr	r3, [r9]
   148a4:	e3530000 	cmp	r3, #0
   148a8:	0a000002 	beq	148b8 <_nl_explode_name+0x18c>
   148ac:	e5d33000 	ldrb	r3, [r3]
   148b0:	e3530000 	cmp	r3, #0
   148b4:	03c55004 	biceq	r5, r5, #4
   148b8:	e5963000 	ldr	r3, [r6]
   148bc:	e3530000 	cmp	r3, #0
   148c0:	0a000002 	beq	148d0 <_nl_explode_name+0x1a4>
   148c4:	e5d33000 	ldrb	r3, [r3]
   148c8:	e3530000 	cmp	r3, #0
   148cc:	03c55002 	biceq	r5, r5, #2
   148d0:	e1a00005 	mov	r0, r5
   148d4:	e8bd8ff8 	pop	{r3, r4, r5, r6, r7, r8, r9, sl, fp, pc}
   148d8:	e1a03004 	mov	r3, r4
   148dc:	e3a02000 	mov	r2, #0
   148e0:	e4c32001 	strb	r2, [r3], #1
   148e4:	e5883000 	str	r3, [r8]
   148e8:	e5d43001 	ldrb	r3, [r4, #1]
   148ec:	e1530002 	cmp	r3, r2
   148f0:	13855008 	orrne	r5, r5, #8
   148f4:	eaffffe9 	b	148a0 <_nl_explode_name+0x174>
   148f8:	e3a01000 	mov	r1, #0
   148fc:	eb0046d7 	bl	26460 <__rawmemchr>
   14900:	e3a05000 	mov	r5, #0
   14904:	e1a04000 	mov	r4, r0
   14908:	e5d01000 	ldrb	r1, [r0]
   1490c:	eaffffe1 	b	14898 <_nl_explode_name+0x16c>
   14910:	e1a00007 	mov	r0, r7
   14914:	eb00392e 	bl	22dd4 <__cfree>
   14918:	e1a0500a 	mov	r5, sl
   1491c:	e5db1001 	ldrb	r1, [fp, #1]
   14920:	eaffffdc 	b	14898 <_nl_explode_name+0x16c>
   14924:	e3855002 	orr	r5, r5, #2
   14928:	e1a04000 	mov	r4, r0
   1492c:	eaffffd9 	b	14898 <_nl_explode_name+0x16c>
   14930:	e1a0500a 	mov	r5, sl
   14934:	eaffffd7 	b	14898 <_nl_explode_name+0x16c>
   14938:	e3e05000 	mvn	r5, #0
   1493c:	eaffffe3 	b	148d0 <_nl_explode_name+0x1a4>

00014940 <__gettext_free_exp>:
   14940:	e92d4010 	push	{r4, lr}
   14944:	e2504000 	subs	r4, r0, #0
   14948:	08bd8010 	popeq	{r4, pc}
   1494c:	e5943000 	ldr	r3, [r4]
   14950:	e3530002 	cmp	r3, #2
   14954:	0a000008 	beq	1497c <__gettext_free_exp+0x3c>
   14958:	e3530003 	cmp	r3, #3
   1495c:	0a000004 	beq	14974 <__gettext_free_exp+0x34>
   14960:	e3530001 	cmp	r3, #1
   14964:	0a000006 	beq	14984 <__gettext_free_exp+0x44>
   14968:	e1a00004 	mov	r0, r4
   1496c:	e8bd4010 	pop	{r4, lr}
   14970:	ea003917 	b	22dd4 <__cfree>
   14974:	e5940010 	ldr	r0, [r4, #16]
   14978:	ebfffff0 	bl	14940 <__gettext_free_exp>
   1497c:	e594000c 	ldr	r0, [r4, #12]
   14980:	ebffffee 	bl	14940 <__gettext_free_exp>
   14984:	e5940008 	ldr	r0, [r4, #8]
   14988:	ebffffec 	bl	14940 <__gettext_free_exp>
   1498c:	e1a00004 	mov	r0, r4
   14990:	e8bd4010 	pop	{r4, lr}
   14994:	ea00390e 	b	22dd4 <__cfree>

00014998 <new_exp>:
   14998:	e92d47f0 	push	{r4, r5, r6, r7, r8, r9, sl, lr}
   1499c:	e2504001 	subs	r4, r0, #1
   149a0:	e1a08000 	mov	r8, r0
   149a4:	e1a09001 	mov	r9, r1
   149a8:	4a000021 	bmi	14a34 <new_exp+0x9c>
   149ac:	e7926104 	ldr	r6, [r2, r4, lsl #2]
   149b0:	e1a07104 	lsl	r7, r4, #2
   149b4:	e3560000 	cmp	r6, #0
   149b8:	e0825007 	add	r5, r2, r7
   149bc:	e1a0a002 	mov	sl, r2
   149c0:	11a00005 	movne	r0, r5
   149c4:	11a03004 	movne	r3, r4
   149c8:	1a000003 	bne	149dc <new_exp+0x44>
   149cc:	ea000011 	b	14a18 <new_exp+0x80>
   149d0:	e530c004 	ldr	ip, [r0, #-4]!
   149d4:	e35c0000 	cmp	ip, #0
   149d8:	0a00000e 	beq	14a18 <new_exp+0x80>
   149dc:	e2533001 	subs	r3, r3, #1
   149e0:	2afffffa 	bcs	149d0 <new_exp+0x38>
   149e4:	e3a00014 	mov	r0, #20
   149e8:	eb00377f 	bl	227ec <__libc_malloc>
   149ec:	e3500000 	cmp	r0, #0
   149f0:	0a000008 	beq	14a18 <new_exp+0x80>
   149f4:	e2873008 	add	r3, r7, #8
   149f8:	e0803003 	add	r3, r0, r3
   149fc:	e8800300 	stm	r0, {r8, r9}
   14a00:	e155000a 	cmp	r5, sl
   14a04:	e4036004 	str	r6, [r3], #-4
   14a08:	08bd87f0 	popeq	{r4, r5, r6, r7, r8, r9, sl, pc}
   14a0c:	e5356004 	ldr	r6, [r5, #-4]!
   14a10:	eafffffa 	b	14a00 <new_exp+0x68>
   14a14:	e5356004 	ldr	r6, [r5, #-4]!
   14a18:	e1a00006 	mov	r0, r6
   14a1c:	e2444001 	sub	r4, r4, #1
   14a20:	ebffffc6 	bl	14940 <__gettext_free_exp>
   14a24:	e3740001 	cmn	r4, #1
   14a28:	1afffff9 	bne	14a14 <new_exp+0x7c>
   14a2c:	e3a00000 	mov	r0, #0
   14a30:	e8bd87f0 	pop	{r4, r5, r6, r7, r8, r9, sl, pc}
   14a34:	e3a00014 	mov	r0, #20
   14a38:	eb00376b 	bl	227ec <__libc_malloc>
   14a3c:	e3500000 	cmp	r0, #0
   14a40:	0afffff9 	beq	14a2c <new_exp+0x94>
   14a44:	e8800300 	stm	r0, {r8, r9}
   14a48:	e8bd87f0 	pop	{r4, r5, r6, r7, r8, r9, sl, pc}

00014a4c <__gettextparse>:
   14a4c:	e92d4ff0 	push	{r4, r5, r6, r7, r8, r9, sl, fp, lr}
   14a50:	e24dde4d 	sub	sp, sp, #1232	; 0x4d0
   14a54:	e24dd00c 	sub	sp, sp, #12
   14a58:	e3a03000 	mov	r3, #0
   14a5c:	e28d5028 	add	r5, sp, #40	; 0x28
   14a60:	e59f78dc 	ldr	r7, [pc, #2268]	; 15344 <__gettextparse+0x8f8>
   14a64:	e1a06003 	mov	r6, r3
   14a68:	e1a08005 	mov	r8, r5
   14a6c:	e3e0b001 	mvn	fp, #1
   14a70:	e28d4f6e 	add	r4, sp, #440	; 0x1b8
   14a74:	e3a0a0c8 	mov	sl, #200	; 0xc8
   14a78:	e58d000c 	str	r0, [sp, #12]
   14a7c:	e1cd32b8 	strh	r3, [sp, #40]	; 0x28
   14a80:	e58d3010 	str	r3, [sp, #16]
   14a84:	e58d4008 	str	r4, [sp, #8]
   14a88:	e58da000 	str	sl, [sp]
   14a8c:	e19720d6 	ldrsb	r2, [r7, r6]
   14a90:	e372000a 	cmn	r2, #10
   14a94:	0a00000d 	beq	14ad0 <__gettextparse+0x84>
   14a98:	e37b0002 	cmn	fp, #2
   14a9c:	0a0000b5 	beq	14d78 <__gettextparse+0x32c>
   14aa0:	e35b0000 	cmp	fp, #0
   14aa4:	da0000a3 	ble	14d38 <__gettextparse+0x2ec>
   14aa8:	e087100b 	add	r1, r7, fp
   14aac:	e5d1101c 	ldrb	r1, [r1, #28]
   14ab0:	e0812002 	add	r2, r1, r2
   14ab4:	e3520036 	cmp	r2, #54	; 0x36
   14ab8:	8a000004 	bhi	14ad0 <__gettextparse+0x84>
   14abc:	e0872002 	add	r2, r7, r2
   14ac0:	e2820f49 	add	r0, r2, #292	; 0x124
   14ac4:	e1d000d0 	ldrsb	r0, [r0]
   14ac8:	e1510000 	cmp	r1, r0
   14acc:	0a00009c 	beq	14d44 <__gettextparse+0x2f8>
   14ad0:	e0872006 	add	r2, r7, r6
   14ad4:	e5d22194 	ldrb	r2, [r2, #404]	; 0x194
   14ad8:	e3520000 	cmp	r2, #0
   14adc:	0a000013 	beq	14b30 <__gettextparse+0xe4>
   14ae0:	e0871002 	add	r1, r7, r2
   14ae4:	e242c002 	sub	ip, r2, #2
   14ae8:	e5d111b0 	ldrb	r1, [r1, #432]	; 0x1b0
   14aec:	e2610001 	rsb	r0, r1, #1
   14af0:	e7940100 	ldr	r0, [r4, r0, lsl #2]
   14af4:	e35c000b 	cmp	ip, #11
   14af8:	979ff10c 	ldrls	pc, [pc, ip, lsl #2]
   14afc:	ea0001ff 	b	15300 <__gettextparse+0x8b4>
   14b00:	00014ff0 	.word	0x00014ff0
   14b04:	0001509c 	.word	0x0001509c
   14b08:	000150d8 	.word	0x000150d8
   14b0c:	00014fc4 	.word	0x00014fc4
   14b10:	00014bd8 	.word	0x00014bd8
   14b14:	00014bd8 	.word	0x00014bd8
   14b18:	00014bd8 	.word	0x00014bd8
   14b1c:	00014bd8 	.word	0x00014bd8
   14b20:	00015018 	.word	0x00015018
   14b24:	00015078 	.word	0x00015078
   14b28:	00015044 	.word	0x00015044
   14b2c:	00014fd8 	.word	0x00014fd8
   14b30:	e59d3010 	ldr	r3, [sp, #16]
   14b34:	e3530003 	cmp	r3, #3
   14b38:	1a000004 	bne	14b50 <__gettextparse+0x104>
   14b3c:	ea000017 	b	14ba0 <__gettextparse+0x154>
   14b40:	e1550008 	cmp	r5, r8
   14b44:	0a000019 	beq	14bb0 <__gettextparse+0x164>
   14b48:	e17560f2 	ldrsh	r6, [r5, #-2]!
   14b4c:	e2444004 	sub	r4, r4, #4
   14b50:	e19730d6 	ldrsb	r3, [r7, r6]
   14b54:	e373000a 	cmn	r3, #10
   14b58:	e2832001 	add	r2, r3, #1
   14b5c:	0afffff7 	beq	14b40 <__gettextparse+0xf4>
   14b60:	e3520036 	cmp	r2, #54	; 0x36
   14b64:	e0873002 	add	r3, r7, r2
   14b68:	8afffff4 	bhi	14b40 <__gettextparse+0xf4>
   14b6c:	e5d32124 	ldrb	r2, [r3, #292]	; 0x124
   14b70:	e3520001 	cmp	r2, #1
   14b74:	1afffff1 	bne	14b40 <__gettextparse+0xf4>
   14b78:	e5d3615c 	ldrb	r6, [r3, #348]	; 0x15c
   14b7c:	e3560000 	cmp	r6, #0
   14b80:	0affffee 	beq	14b40 <__gettextparse+0xf4>
   14b84:	e59d3014 	ldr	r3, [sp, #20]
   14b88:	e1a02005 	mov	r2, r5
   14b8c:	e5843004 	str	r3, [r4, #4]
   14b90:	e3a03003 	mov	r3, #3
   14b94:	e2844004 	add	r4, r4, #4
   14b98:	e58d3010 	str	r3, [sp, #16]
   14b9c:	ea000029 	b	14c48 <__gettextparse+0x1fc>
   14ba0:	e35b0000 	cmp	fp, #0
   14ba4:	c3e0b001 	mvngt	fp, #1
   14ba8:	caffffe8 	bgt	14b50 <__gettextparse+0x104>
   14bac:	1affffe7 	bne	14b50 <__gettextparse+0x104>
   14bb0:	e3a04001 	mov	r4, #1
   14bb4:	e28d3028 	add	r3, sp, #40	; 0x28
   14bb8:	e1580003 	cmp	r8, r3
   14bbc:	0a000001 	beq	14bc8 <__gettextparse+0x17c>
   14bc0:	e1a00008 	mov	r0, r8
   14bc4:	eb003882 	bl	22dd4 <__cfree>
   14bc8:	e1a00004 	mov	r0, r4
   14bcc:	e28dde4d 	add	sp, sp, #1232	; 0x4d0
   14bd0:	e28dd00c 	add	sp, sp, #12
   14bd4:	e8bd8ff0 	pop	{r4, r5, r6, r7, r8, r9, sl, fp, pc}
   14bd8:	e8144002 	ldmda	r4, {r1, lr}
   14bdc:	e514c008 	ldr	ip, [r4, #-8]
   14be0:	e28d201c 	add	r2, sp, #28
   14be4:	e3a00002 	mov	r0, #2
   14be8:	e58de020 	str	lr, [sp, #32]
   14bec:	e58dc01c 	str	ip, [sp, #28]
   14bf0:	e3e06000 	mvn	r6, #0
   14bf4:	ebffff67 	bl	14998 <new_exp>
   14bf8:	e3a01002 	mov	r1, #2
   14bfc:	e3e02005 	mvn	r2, #5
   14c00:	e3e0e00b 	mvn	lr, #11
   14c04:	e195c0f2 	ldrsh	ip, [r5, r2]
   14c08:	e084400e 	add	r4, r4, lr
   14c0c:	e0852002 	add	r2, r5, r2
   14c10:	e08c6006 	add	r6, ip, r6
   14c14:	e3560036 	cmp	r6, #54	; 0x36
   14c18:	e5840004 	str	r0, [r4, #4]
   14c1c:	e2844004 	add	r4, r4, #4
   14c20:	8a000005 	bhi	14c3c <__gettextparse+0x1f0>
   14c24:	e0876006 	add	r6, r7, r6
   14c28:	e2860f49 	add	r0, r6, #292	; 0x124
   14c2c:	e1d000d0 	ldrsb	r0, [r0]
   14c30:	e150000c 	cmp	r0, ip
   14c34:	05d6615c 	ldrbeq	r6, [r6, #348]	; 0x15c
   14c38:	0a000002 	beq	14c48 <__gettextparse+0x1fc>
   14c3c:	e0871001 	add	r1, r7, r1
   14c40:	e2811f75 	add	r1, r1, #468	; 0x1d4
   14c44:	e1d160d0 	ldrsb	r6, [r1]
   14c48:	e59d3000 	ldr	r3, [sp]
   14c4c:	e2825002 	add	r5, r2, #2
   14c50:	e2431106 	sub	r1, r3, #-2147483647	; 0x80000001
   14c54:	e1c260b2 	strh	r6, [r2, #2]
   14c58:	e1a01081 	lsl	r1, r1, #1
   14c5c:	e0880001 	add	r0, r8, r1
   14c60:	e1550000 	cmp	r5, r0
   14c64:	3a00002f 	bcc	14d28 <__gettextparse+0x2dc>
   14c68:	e0459008 	sub	r9, r5, r8
   14c6c:	e59f26d4 	ldr	r2, [pc, #1748]	; 15348 <__gettextparse+0x8fc>
   14c70:	e1a090c9 	asr	r9, r9, #1
   14c74:	e1530002 	cmp	r3, r2
   14c78:	e2899001 	add	r9, r9, #1
   14c7c:	8a000192 	bhi	152cc <__gettextparse+0x880>
   14c80:	e59f36c4 	ldr	r3, [pc, #1732]	; 1534c <__gettextparse+0x900>
   14c84:	e2811002 	add	r1, r1, #2
   14c88:	e1510003 	cmp	r1, r3
   14c8c:	31a03001 	movcc	r3, r1
   14c90:	e58d3000 	str	r3, [sp]
   14c94:	e1a05083 	lsl	r5, r3, #1
   14c98:	e0850003 	add	r0, r5, r3
   14c9c:	e1a00080 	lsl	r0, r0, #1
   14ca0:	e2800003 	add	r0, r0, #3
   14ca4:	eb0036d0 	bl	227ec <__libc_malloc>
   14ca8:	e2503000 	subs	r3, r0, #0
   14cac:	e58d3004 	str	r3, [sp, #4]
   14cb0:	0a000185 	beq	152cc <__gettextparse+0x880>
   14cb4:	e1a04089 	lsl	r4, r9, #1
   14cb8:	e1a02004 	mov	r2, r4
   14cbc:	e1a01008 	mov	r1, r8
   14cc0:	eb00451a 	bl	26130 <memcpy>
   14cc4:	e285a003 	add	sl, r5, #3
   14cc8:	e59d3004 	ldr	r3, [sp, #4]
   14ccc:	e3caa003 	bic	sl, sl, #3
   14cd0:	e083a00a 	add	sl, r3, sl
   14cd4:	e1a09109 	lsl	r9, r9, #2
   14cd8:	e59d1008 	ldr	r1, [sp, #8]
   14cdc:	e1a0000a 	mov	r0, sl
   14ce0:	e1a02009 	mov	r2, r9
   14ce4:	eb004511 	bl	26130 <memcpy>
   14ce8:	e28d3028 	add	r3, sp, #40	; 0x28
   14cec:	e1580003 	cmp	r8, r3
   14cf0:	0a000001 	beq	14cfc <__gettextparse+0x2b0>
   14cf4:	e1a00008 	mov	r0, r8
   14cf8:	eb003835 	bl	22dd4 <__cfree>
   14cfc:	e59d3004 	ldr	r3, [sp, #4]
   14d00:	e2444002 	sub	r4, r4, #2
   14d04:	e2452002 	sub	r2, r5, #2
   14d08:	e0832002 	add	r2, r3, r2
   14d0c:	e0835004 	add	r5, r3, r4
   14d10:	e2499004 	sub	r9, r9, #4
   14d14:	e1550002 	cmp	r5, r2
   14d18:	e08a4009 	add	r4, sl, r9
   14d1c:	2a000174 	bcs	152f4 <__gettextparse+0x8a8>
   14d20:	e1a08003 	mov	r8, r3
   14d24:	e58da008 	str	sl, [sp, #8]
   14d28:	e3560009 	cmp	r6, #9
   14d2c:	1affff56 	bne	14a8c <__gettextparse+0x40>
   14d30:	e3a04000 	mov	r4, #0
   14d34:	eaffff9e 	b	14bb4 <__gettextparse+0x168>
   14d38:	e3a0b000 	mov	fp, #0
   14d3c:	e1a0100b 	mov	r1, fp
   14d40:	eaffff5a 	b	14ab0 <__gettextparse+0x64>
   14d44:	e5d2615c 	ldrb	r6, [r2, #348]	; 0x15c
   14d48:	e3560000 	cmp	r6, #0
   14d4c:	0a0000e6 	beq	150ec <__gettextparse+0x6a0>
   14d50:	e59d3010 	ldr	r3, [sp, #16]
   14d54:	e1a02005 	mov	r2, r5
   14d58:	e3530000 	cmp	r3, #0
   14d5c:	12433001 	subne	r3, r3, #1
   14d60:	158d3010 	strne	r3, [sp, #16]
   14d64:	e59d3014 	ldr	r3, [sp, #20]
   14d68:	e2844004 	add	r4, r4, #4
   14d6c:	e5843000 	str	r3, [r4]
   14d70:	e3e0b001 	mvn	fp, #1
   14d74:	eaffffb3 	b	14c48 <__gettextparse+0x1fc>
   14d78:	e59d300c 	ldr	r3, [sp, #12]
   14d7c:	e5930000 	ldr	r0, [r3]
   14d80:	e5d01000 	ldrb	r1, [r0]
   14d84:	e3510000 	cmp	r1, #0
   14d88:	1a000003 	bne	14d9c <__gettextparse+0x350>
   14d8c:	ea000087 	b	14fb0 <__gettextparse+0x564>
   14d90:	e5f01001 	ldrb	r1, [r0, #1]!
   14d94:	e3510000 	cmp	r1, #0
   14d98:	0a000084 	beq	14fb0 <__gettextparse+0x564>
   14d9c:	e3510020 	cmp	r1, #32
   14da0:	13510009 	cmpne	r1, #9
   14da4:	0afffff9 	beq	14d90 <__gettextparse+0x344>
   14da8:	e280c001 	add	ip, r0, #1
   14dac:	e1a0b001 	mov	fp, r1
   14db0:	e351007c 	cmp	r1, #124	; 0x7c
   14db4:	979ff101 	ldrls	pc, [pc, r1, lsl #2]
   14db8:	ea0000f3 	b	1518c <__gettextparse+0x740>
   14dbc:	00014fb0 	.word	0x00014fb0
   14dc0:	0001518c 	.word	0x0001518c
   14dc4:	0001518c 	.word	0x0001518c
   14dc8:	0001518c 	.word	0x0001518c
   14dcc:	0001518c 	.word	0x0001518c
   14dd0:	0001518c 	.word	0x0001518c
   14dd4:	0001518c 	.word	0x0001518c
   14dd8:	0001518c 	.word	0x0001518c
   14ddc:	0001518c 	.word	0x0001518c
   14de0:	0001518c 	.word	0x0001518c
   14de4:	00014fb0 	.word	0x00014fb0
   14de8:	0001518c 	.word	0x0001518c
   14dec:	0001518c 	.word	0x0001518c
   14df0:	0001518c 	.word	0x0001518c
   14df4:	0001518c 	.word	0x0001518c
   14df8:	0001518c 	.word	0x0001518c
   14dfc:	0001518c 	.word	0x0001518c
   14e00:	0001518c 	.word	0x0001518c
   14e04:	0001518c 	.word	0x0001518c
   14e08:	0001518c 	.word	0x0001518c
   14e0c:	0001518c 	.word	0x0001518c
   14e10:	0001518c 	.word	0x0001518c
   14e14:	0001518c 	.word	0x0001518c
   14e18:	0001518c 	.word	0x0001518c
   14e1c:	0001518c 	.word	0x0001518c
   14e20:	0001518c 	.word	0x0001518c
   14e24:	0001518c 	.word	0x0001518c
   14e28:	0001518c 	.word	0x0001518c
   14e2c:	0001518c 	.word	0x0001518c
   14e30:	0001518c 	.word	0x0001518c
   14e34:	0001518c 	.word	0x0001518c
   14e38:	0001518c 	.word	0x0001518c
   14e3c:	0001518c 	.word	0x0001518c
   14e40:	000152ac 	.word	0x000152ac
   14e44:	0001518c 	.word	0x0001518c
   14e48:	0001518c 	.word	0x0001518c
   14e4c:	0001518c 	.word	0x0001518c
   14e50:	00015154 	.word	0x00015154
   14e54:	00015290 	.word	0x00015290
   14e58:	0001518c 	.word	0x0001518c
   14e5c:	000152a0 	.word	0x000152a0
   14e60:	000152a0 	.word	0x000152a0
   14e64:	00015138 	.word	0x00015138
   14e68:	0001511c 	.word	0x0001511c
   14e6c:	0001518c 	.word	0x0001518c
   14e70:	00015170 	.word	0x00015170
   14e74:	0001518c 	.word	0x0001518c
   14e78:	00015100 	.word	0x00015100
   14e7c:	0001523c 	.word	0x0001523c
   14e80:	0001523c 	.word	0x0001523c
   14e84:	0001523c 	.word	0x0001523c
   14e88:	0001523c 	.word	0x0001523c
   14e8c:	0001523c 	.word	0x0001523c
   14e90:	0001523c 	.word	0x0001523c
   14e94:	0001523c 	.word	0x0001523c
   14e98:	0001523c 	.word	0x0001523c
   14e9c:	0001523c 	.word	0x0001523c
   14ea0:	0001523c 	.word	0x0001523c
   14ea4:	000152a0 	.word	0x000152a0
   14ea8:	00014fb0 	.word	0x00014fb0
   14eac:	00015204 	.word	0x00015204
   14eb0:	000151d8 	.word	0x000151d8
   14eb4:	000151a0 	.word	0x000151a0
   14eb8:	000152a0 	.word	0x000152a0
   14ebc:	0001518c 	.word	0x0001518c
   14ec0:	0001518c 	.word	0x0001518c
   14ec4:	0001518c 	.word	0x0001518c
   14ec8:	0001518c 	.word	0x0001518c
   14ecc:	0001518c 	.word	0x0001518c
   14ed0:	0001518c 	.word	0x0001518c
   14ed4:	0001518c 	.word	0x0001518c
   14ed8:	0001518c 	.word	0x0001518c
   14edc:	0001518c 	.word	0x0001518c
   14ee0:	0001518c 	.word	0x0001518c
   14ee4:	0001518c 	.word	0x0001518c
   14ee8:	0001518c 	.word	0x0001518c
   14eec:	0001518c 	.word	0x0001518c
   14ef0:	0001518c 	.word	0x0001518c
   14ef4:	0001518c 	.word	0x0001518c
   14ef8:	0001518c 	.word	0x0001518c
   14efc:	0001518c 	.word	0x0001518c
   14f00:	0001518c 	.word	0x0001518c
   14f04:	0001518c 	.word	0x0001518c
   14f08:	0001518c 	.word	0x0001518c
   14f0c:	0001518c 	.word	0x0001518c
   14f10:	0001518c 	.word	0x0001518c
   14f14:	0001518c 	.word	0x0001518c
   14f18:	0001518c 	.word	0x0001518c
   14f1c:	0001518c 	.word	0x0001518c
   14f20:	0001518c 	.word	0x0001518c
   14f24:	0001518c 	.word	0x0001518c
   14f28:	0001518c 	.word	0x0001518c
   14f2c:	0001518c 	.word	0x0001518c
   14f30:	0001518c 	.word	0x0001518c
   14f34:	0001518c 	.word	0x0001518c
   14f38:	0001518c 	.word	0x0001518c
   14f3c:	0001518c 	.word	0x0001518c
   14f40:	0001518c 	.word	0x0001518c
   14f44:	0001518c 	.word	0x0001518c
   14f48:	0001518c 	.word	0x0001518c
   14f4c:	0001518c 	.word	0x0001518c
   14f50:	0001518c 	.word	0x0001518c
   14f54:	0001518c 	.word	0x0001518c
   14f58:	0001518c 	.word	0x0001518c
   14f5c:	0001518c 	.word	0x0001518c
   14f60:	0001518c 	.word	0x0001518c
   14f64:	0001518c 	.word	0x0001518c
   14f68:	0001518c 	.word	0x0001518c
   14f6c:	0001518c 	.word	0x0001518c
   14f70:	0001518c 	.word	0x0001518c
   14f74:	000152a0 	.word	0x000152a0
   14f78:	0001518c 	.word	0x0001518c
   14f7c:	0001518c 	.word	0x0001518c
   14f80:	0001518c 	.word	0x0001518c
   14f84:	0001518c 	.word	0x0001518c
   14f88:	0001518c 	.word	0x0001518c
   14f8c:	0001518c 	.word	0x0001518c
   14f90:	0001518c 	.word	0x0001518c
   14f94:	0001518c 	.word	0x0001518c
   14f98:	0001518c 	.word	0x0001518c
   14f9c:	0001518c 	.word	0x0001518c
   14fa0:	0001518c 	.word	0x0001518c
   14fa4:	0001518c 	.word	0x0001518c
   14fa8:	0001518c 	.word	0x0001518c
   14fac:	00015290 	.word	0x00015290
   14fb0:	e59d300c 	ldr	r3, [sp, #12]
   14fb4:	e3a01000 	mov	r1, #0
   14fb8:	e1a0b001 	mov	fp, r1
   14fbc:	e5830000 	str	r0, [r3]
   14fc0:	eafffeba 	b	14ab0 <__gettextparse+0x64>
   14fc4:	e594e000 	ldr	lr, [r4]
   14fc8:	e514c008 	ldr	ip, [r4, #-8]
   14fcc:	e28d201c 	add	r2, sp, #28
   14fd0:	e3a0100e 	mov	r1, #14
   14fd4:	eaffff02 	b	14be4 <__gettextparse+0x198>
   14fd8:	e5140004 	ldr	r0, [r4, #-4]
   14fdc:	e3e06000 	mvn	r6, #0
   14fe0:	e3a01002 	mov	r1, #2
   14fe4:	e3e02005 	mvn	r2, #5
   14fe8:	e3e0e00b 	mvn	lr, #11
   14fec:	eaffff04 	b	14c04 <__gettextparse+0x1b8>
   14ff0:	e5942000 	ldr	r2, [r4]
   14ff4:	e3520000 	cmp	r2, #0
   14ff8:	0afffeec 	beq	14bb0 <__gettextparse+0x164>
   14ffc:	e59d300c 	ldr	r3, [sp, #12]
   15000:	e3e06009 	mvn	r6, #9
   15004:	e3a01001 	mov	r1, #1
   15008:	e5832004 	str	r2, [r3, #4]
   1500c:	e3e0e003 	mvn	lr, #3
   15010:	e3e02001 	mvn	r2, #1
   15014:	eafffefa 	b	14c04 <__gettextparse+0x1b8>
   15018:	e594c000 	ldr	ip, [r4]
   1501c:	e28d201c 	add	r2, sp, #28
   15020:	e3a01002 	mov	r1, #2
   15024:	e3a00001 	mov	r0, #1
   15028:	e58dc01c 	str	ip, [sp, #28]
   1502c:	e3e06000 	mvn	r6, #0
   15030:	ebfffe58 	bl	14998 <new_exp>
   15034:	e3a01002 	mov	r1, #2
   15038:	e3e02003 	mvn	r2, #3
   1503c:	e3e0e007 	mvn	lr, #7
   15040:	eafffeef 	b	14c04 <__gettextparse+0x1b8>
   15044:	e3a02000 	mov	r2, #0
   15048:	e1a00002 	mov	r0, r2
   1504c:	e3a01001 	mov	r1, #1
   15050:	ebfffe50 	bl	14998 <new_exp>
   15054:	e3500000 	cmp	r0, #0
   15058:	0a0000b4 	beq	15330 <__gettextparse+0x8e4>
   1505c:	e5942000 	ldr	r2, [r4]
   15060:	e3e06000 	mvn	r6, #0
   15064:	e5802008 	str	r2, [r0, #8]
   15068:	e3a01002 	mov	r1, #2
   1506c:	e3e02001 	mvn	r2, #1
   15070:	e3e0e003 	mvn	lr, #3
   15074:	eafffee2 	b	14c04 <__gettextparse+0x1b8>
   15078:	e3a02000 	mov	r2, #0
   1507c:	e1a01002 	mov	r1, r2
   15080:	e1a00002 	mov	r0, r2
   15084:	ebfffe43 	bl	14998 <new_exp>
   15088:	e3e06000 	mvn	r6, #0
   1508c:	e3a01002 	mov	r1, #2
   15090:	e3e02001 	mvn	r2, #1
   15094:	e3e0e003 	mvn	lr, #3
   15098:	eafffed9 	b	14c04 <__gettextparse+0x1b8>
   1509c:	e5146008 	ldr	r6, [r4, #-8]
   150a0:	e594e000 	ldr	lr, [r4]
   150a4:	e514c010 	ldr	ip, [r4, #-16]
   150a8:	e28d201c 	add	r2, sp, #28
   150ac:	e3a01010 	mov	r1, #16
   150b0:	e3a00003 	mov	r0, #3
   150b4:	e58d6020 	str	r6, [sp, #32]
   150b8:	e58de024 	str	lr, [sp, #36]	; 0x24
   150bc:	e58dc01c 	str	ip, [sp, #28]
   150c0:	e3e06000 	mvn	r6, #0
   150c4:	ebfffe33 	bl	14998 <new_exp>
   150c8:	e3a01002 	mov	r1, #2
   150cc:	e3e02009 	mvn	r2, #9
   150d0:	e3e0e013 	mvn	lr, #19
   150d4:	eafffeca 	b	14c04 <__gettextparse+0x1b8>
   150d8:	e594e000 	ldr	lr, [r4]
   150dc:	e514c008 	ldr	ip, [r4, #-8]
   150e0:	e28d201c 	add	r2, sp, #28
   150e4:	e3a0100f 	mov	r1, #15
   150e8:	eafffebd 	b	14be4 <__gettextparse+0x198>
   150ec:	e5940004 	ldr	r0, [r4, #4]
   150f0:	e3e0100f 	mvn	r1, #15
   150f4:	e1a02006 	mov	r2, r6
   150f8:	e1a0e006 	mov	lr, r6
   150fc:	eafffec0 	b	14c04 <__gettextparse+0x1b8>
   15100:	e59d300c 	ldr	r3, [sp, #12]
   15104:	e3a01009 	mov	r1, #9
   15108:	e59fb240 	ldr	fp, [pc, #576]	; 15350 <__gettextparse+0x904>
   1510c:	e583c000 	str	ip, [r3]
   15110:	e3a03004 	mov	r3, #4
   15114:	e58d3014 	str	r3, [sp, #20]
   15118:	eafffe64 	b	14ab0 <__gettextparse+0x64>
   1511c:	e59d300c 	ldr	r3, [sp, #12]
   15120:	e3a01008 	mov	r1, #8
   15124:	e3a0bf41 	mov	fp, #260	; 0x104
   15128:	e583c000 	str	ip, [r3]
   1512c:	e3a03006 	mov	r3, #6
   15130:	e58d3014 	str	r3, [sp, #20]
   15134:	eafffe5d 	b	14ab0 <__gettextparse+0x64>
   15138:	e59d300c 	ldr	r3, [sp, #12]
   1513c:	e3a01009 	mov	r1, #9
   15140:	e59fb208 	ldr	fp, [pc, #520]	; 15350 <__gettextparse+0x904>
   15144:	e583c000 	str	ip, [r3]
   15148:	e3a03003 	mov	r3, #3
   1514c:	e58d3014 	str	r3, [sp, #20]
   15150:	eafffe56 	b	14ab0 <__gettextparse+0x64>
   15154:	e59d300c 	ldr	r3, [sp, #12]
   15158:	e3a01009 	mov	r1, #9
   1515c:	e59fb1ec 	ldr	fp, [pc, #492]	; 15350 <__gettextparse+0x904>
   15160:	e583c000 	str	ip, [r3]
   15164:	e3a03005 	mov	r3, #5
   15168:	e58d3014 	str	r3, [sp, #20]
   1516c:	eafffe4f 	b	14ab0 <__gettextparse+0x64>
   15170:	e59d300c 	ldr	r3, [sp, #12]
   15174:	e3a01008 	mov	r1, #8
   15178:	e3a0bf41 	mov	fp, #260	; 0x104
   1517c:	e583c000 	str	ip, [r3]
   15180:	e3a03007 	mov	r3, #7
   15184:	e58d3014 	str	r3, [sp, #20]
   15188:	eafffe48 	b	14ab0 <__gettextparse+0x64>
   1518c:	e59d300c 	ldr	r3, [sp, #12]
   15190:	e3a01001 	mov	r1, #1
   15194:	e3a0bc01 	mov	fp, #256	; 0x100
   15198:	e583c000 	str	ip, [r3]
   1519c:	eafffe43 	b	14ab0 <__gettextparse+0x64>
   151a0:	e5d03001 	ldrb	r3, [r0, #1]
   151a4:	e59fb1a8 	ldr	fp, [pc, #424]	; 15354 <__gettextparse+0x908>
   151a8:	e353003d 	cmp	r3, #61	; 0x3d
   151ac:	02800002 	addeq	r0, r0, #2
   151b0:	059d300c 	ldreq	r3, [sp, #12]
   151b4:	159d300c 	ldrne	r3, [sp, #12]
   151b8:	03a01007 	moveq	r1, #7
   151bc:	05830000 	streq	r0, [r3]
   151c0:	1583c000 	strne	ip, [r3]
   151c4:	03a0300b 	moveq	r3, #11
   151c8:	13a03009 	movne	r3, #9
   151cc:	13a01007 	movne	r1, #7
   151d0:	e58d3014 	str	r3, [sp, #20]
   151d4:	eafffe35 	b	14ab0 <__gettextparse+0x64>
   151d8:	e5d03001 	ldrb	r3, [r0, #1]
   151dc:	e353003d 	cmp	r3, #61	; 0x3d
   151e0:	1affffe9 	bne	1518c <__gettextparse+0x740>
   151e4:	e59d300c 	ldr	r3, [sp, #12]
   151e8:	e2800002 	add	r0, r0, #2
   151ec:	e3a01006 	mov	r1, #6
   151f0:	e5830000 	str	r0, [r3]
   151f4:	e3a0300c 	mov	r3, #12
   151f8:	e58d3014 	str	r3, [sp, #20]
   151fc:	e59fb154 	ldr	fp, [pc, #340]	; 15358 <__gettextparse+0x90c>
   15200:	eafffe2a 	b	14ab0 <__gettextparse+0x64>
   15204:	e5d03001 	ldrb	r3, [r0, #1]
   15208:	e59fb144 	ldr	fp, [pc, #324]	; 15354 <__gettextparse+0x908>
   1520c:	e353003d 	cmp	r3, #61	; 0x3d
   15210:	02800002 	addeq	r0, r0, #2
   15214:	059d300c 	ldreq	r3, [sp, #12]
   15218:	159d300c 	ldrne	r3, [sp, #12]
   1521c:	03a01007 	moveq	r1, #7
   15220:	05830000 	streq	r0, [r3]
   15224:	1583c000 	strne	ip, [r3]
   15228:	03a0300a 	moveq	r3, #10
   1522c:	13a03008 	movne	r3, #8
   15230:	13a01007 	movne	r1, #7
   15234:	e58d3014 	str	r3, [sp, #20]
   15238:	eafffe1c 	b	14ab0 <__gettextparse+0x64>
   1523c:	e5d00001 	ldrb	r0, [r0, #1]
   15240:	e2413030 	sub	r3, r1, #48	; 0x30
   15244:	e1a01003 	mov	r1, r3
   15248:	e58d3014 	str	r3, [sp, #20]
   1524c:	e2403030 	sub	r3, r0, #48	; 0x30
   15250:	e3530009 	cmp	r3, #9
   15254:	8a000008 	bhi	1527c <__gettextparse+0x830>
   15258:	e1a03001 	mov	r3, r1
   1525c:	e0833103 	add	r3, r3, r3, lsl #2
   15260:	e0803083 	add	r3, r0, r3, lsl #1
   15264:	e5fc0001 	ldrb	r0, [ip, #1]!
   15268:	e2433030 	sub	r3, r3, #48	; 0x30
   1526c:	e2401030 	sub	r1, r0, #48	; 0x30
   15270:	e3510009 	cmp	r1, #9
   15274:	9afffff8 	bls	1525c <__gettextparse+0x810>
   15278:	e58d3014 	str	r3, [sp, #20]
   1527c:	e59d300c 	ldr	r3, [sp, #12]
   15280:	e3a0100b 	mov	r1, #11
   15284:	e59fb0d0 	ldr	fp, [pc, #208]	; 1535c <__gettextparse+0x910>
   15288:	e583c000 	str	ip, [r3]
   1528c:	eafffe07 	b	14ab0 <__gettextparse+0x64>
   15290:	e5d0e001 	ldrb	lr, [r0, #1]
   15294:	e151000e 	cmp	r1, lr
   15298:	0280c002 	addeq	ip, r0, #2
   1529c:	1affffba 	bne	1518c <__gettextparse+0x740>
   152a0:	e59d300c 	ldr	r3, [sp, #12]
   152a4:	e583c000 	str	ip, [r3]
   152a8:	eafffdfc 	b	14aa0 <__gettextparse+0x54>
   152ac:	e5d03001 	ldrb	r3, [r0, #1]
   152b0:	e353003d 	cmp	r3, #61	; 0x3d
   152b4:	0a000006 	beq	152d4 <__gettextparse+0x888>
   152b8:	e59d300c 	ldr	r3, [sp, #12]
   152bc:	e3a0100a 	mov	r1, #10
   152c0:	e3a0b021 	mov	fp, #33	; 0x21
   152c4:	e583c000 	str	ip, [r3]
   152c8:	eafffdf8 	b	14ab0 <__gettextparse+0x64>
   152cc:	e3a04002 	mov	r4, #2
   152d0:	eafffe37 	b	14bb4 <__gettextparse+0x168>
   152d4:	e59d300c 	ldr	r3, [sp, #12]
   152d8:	e2800002 	add	r0, r0, #2
   152dc:	e3a01006 	mov	r1, #6
   152e0:	e5830000 	str	r0, [r3]
   152e4:	e3a0300d 	mov	r3, #13
   152e8:	e58d3014 	str	r3, [sp, #20]
   152ec:	e59fb064 	ldr	fp, [pc, #100]	; 15358 <__gettextparse+0x90c>
   152f0:	eafffdee 	b	14ab0 <__gettextparse+0x64>
   152f4:	e59d8004 	ldr	r8, [sp, #4]
   152f8:	e3a04001 	mov	r4, #1
   152fc:	eafffe2c 	b	14bb4 <__gettextparse+0x168>
   15300:	e0872002 	add	r2, r7, r2
   15304:	e6bf1071 	sxth	r1, r1
   15308:	e5d2c1c0 	ldrb	ip, [r2, #448]	; 0x1c0
   1530c:	e1a0e101 	lsl	lr, r1, #2
   15310:	e1a02081 	lsl	r2, r1, #1
   15314:	e24c1010 	sub	r1, ip, #16
   15318:	e087c001 	add	ip, r7, r1
   1531c:	e28cce1d 	add	ip, ip, #464	; 0x1d0
   15320:	e26ee000 	rsb	lr, lr, #0
   15324:	e1dc60d0 	ldrsb	r6, [ip]
   15328:	e2622000 	rsb	r2, r2, #0
   1532c:	eafffe34 	b	14c04 <__gettextparse+0x1b8>
   15330:	e3e06000 	mvn	r6, #0
   15334:	e3a01002 	mov	r1, #2
   15338:	e3e02001 	mvn	r2, #1
   1533c:	e3e0e003 	mvn	lr, #3
   15340:	eafffe2f 	b	14c04 <__gettextparse+0x1b8>
   15344:	0006fc80 	.word	0x0006fc80
   15348:	0000270f 	.word	0x0000270f
   1534c:	00002710 	.word	0x00002710
   15350:	00000105 	.word	0x00000105
   15354:	00000103 	.word	0x00000103
   15358:	00000102 	.word	0x00000102
   1535c:	00000106 	.word	0x00000106

00015360 <__gettext_extract_plural>:
   15360:	e92d40f0 	push	{r4, r5, r6, r7, lr}
   15364:	e2504000 	subs	r4, r0, #0
   15368:	e24dd014 	sub	sp, sp, #20
   1536c:	e1a06001 	mov	r6, r1
   15370:	e1a05002 	mov	r5, r2
   15374:	0a00002b 	beq	15428 <__gettext_extract_plural+0xc8>
   15378:	e59f10cc 	ldr	r1, [pc, #204]	; 1544c <__gettext_extract_plural+0xec>
   1537c:	eb004019 	bl	253e8 <strstr>
   15380:	e59f10c8 	ldr	r1, [pc, #200]	; 15450 <__gettext_extract_plural+0xf0>
   15384:	e1a07000 	mov	r7, r0
   15388:	e1a00004 	mov	r0, r4
   1538c:	eb004015 	bl	253e8 <strstr>
   15390:	e3500000 	cmp	r0, #0
   15394:	13570000 	cmpne	r7, #0
   15398:	0a000022 	beq	15428 <__gettext_extract_plural+0xc8>
   1539c:	e5d03009 	ldrb	r3, [r0, #9]
   153a0:	e2804009 	add	r4, r0, #9
   153a4:	e3530000 	cmp	r3, #0
   153a8:	0a00001e 	beq	15428 <__gettext_extract_plural+0xc8>
   153ac:	e59f10a0 	ldr	r1, [pc, #160]	; 15454 <__gettext_extract_plural+0xf4>
   153b0:	ebffee62 	bl	10d40 <__aeabi_read_tp>
   153b4:	e1a02083 	lsl	r2, r3, #1
   153b8:	e79f1001 	ldr	r1, [pc, r1]
   153bc:	e7901001 	ldr	r1, [r0, r1]
   153c0:	ea000003 	b	153d4 <__gettext_extract_plural+0x74>
   153c4:	e5f43001 	ldrb	r3, [r4, #1]!
   153c8:	e3530000 	cmp	r3, #0
   153cc:	e1a02083 	lsl	r2, r3, #1
   153d0:	0a000014 	beq	15428 <__gettext_extract_plural+0xc8>
   153d4:	e19120b2 	ldrh	r2, [r1, r2]
   153d8:	e3120a02 	tst	r2, #8192	; 0x2000
   153dc:	1afffff8 	bne	153c4 <__gettext_extract_plural+0x64>
   153e0:	e2433030 	sub	r3, r3, #48	; 0x30
   153e4:	e3530009 	cmp	r3, #9
   153e8:	8a00000e 	bhi	15428 <__gettext_extract_plural+0xc8>
   153ec:	e3a0200a 	mov	r2, #10
   153f0:	e28d1004 	add	r1, sp, #4
   153f4:	e1a00004 	mov	r0, r4
   153f8:	eb000342 	bl	16108 <__strtoul>
   153fc:	e59d3004 	ldr	r3, [sp, #4]
   15400:	e1530004 	cmp	r3, r4
   15404:	0a000007 	beq	15428 <__gettext_extract_plural+0xc8>
   15408:	e28d3010 	add	r3, sp, #16
   1540c:	e2877007 	add	r7, r7, #7
   15410:	e5850000 	str	r0, [r5]
   15414:	e5237008 	str	r7, [r3, #-8]!
   15418:	e1a00003 	mov	r0, r3
   1541c:	ebfffd8a 	bl	14a4c <__gettextparse>
   15420:	e3500000 	cmp	r0, #0
   15424:	0a000005 	beq	15440 <__gettext_extract_plural+0xe0>
   15428:	e59f2028 	ldr	r2, [pc, #40]	; 15458 <__gettext_extract_plural+0xf8>
   1542c:	e3a03002 	mov	r3, #2
   15430:	e5862000 	str	r2, [r6]
   15434:	e5853000 	str	r3, [r5]
   15438:	e28dd014 	add	sp, sp, #20
   1543c:	e8bd80f0 	pop	{r4, r5, r6, r7, pc}
   15440:	e59d300c 	ldr	r3, [sp, #12]
   15444:	e5863000 	str	r3, [r6]
   15448:	eafffffa 	b	15438 <__gettext_extract_plural+0xd8>
   1544c:	0006fe94 	.word	0x0006fe94
   15450:	0006fe9c 	.word	0x0006fe9c
   15454:	0007fc94 	.word	0x0007fc94
   15458:	0006fe58 	.word	0x0006fe58

0001545c <__hash_string>:
   1545c:	e2402001 	sub	r2, r0, #1
   15460:	e3a00000 	mov	r0, #0
   15464:	ea000003 	b	15478 <__hash_string+0x1c>
   15468:	e0830200 	add	r0, r3, r0, lsl #4
   1546c:	e210120f 	ands	r1, r0, #-268435456	; 0xf0000000
   15470:	e3c0320f 	bic	r3, r0, #-268435456	; 0xf0000000
   15474:	10230c21 	eorne	r0, r3, r1, lsr #24
   15478:	e5f23001 	ldrb	r3, [r2, #1]!
   1547c:	e3530000 	cmp	r3, #0
   15480:	1afffff8 	bne	15468 <__hash_string+0xc>
   15484:	e12fff1e 	bx	lr
	...

00015490 <_setjmp>:
   15490:	e3a01000 	mov	r1, #0
   15494:	ea008179 	b	35a80 <__sigsetjmp>

00015498 <abort>:
   15498:	e59f4244 	ldr	r4, [pc, #580]	; 156e4 <abort+0x24c>
   1549c:	e92d4080 	push	{r7, lr}
   154a0:	ebffee26 	bl	10d40 <__aeabi_read_tp>
   154a4:	e5943008 	ldr	r3, [r4, #8]
   154a8:	e2406d13 	sub	r6, r0, #1216	; 0x4c0
   154ac:	e1560003 	cmp	r6, r3
   154b0:	e24dde11 	sub	sp, sp, #272	; 0x110
   154b4:	0a00000b 	beq	154e8 <abort+0x50>
   154b8:	e3a03000 	mov	r3, #0
   154bc:	e58d3084 	str	r3, [sp, #132]	; 0x84
   154c0:	e3a03001 	mov	r3, #1
   154c4:	e1942f9f 	ldrex	r2, [r4]
   154c8:	e3520000 	cmp	r2, #0
   154cc:	1a000003 	bne	154e0 <abort+0x48>
   154d0:	e1841f93 	strex	r1, r3, [r4]
   154d4:	e3510000 	cmp	r1, #0
   154d8:	1afffff9 	bne	154c4 <abort+0x2c>
   154dc:	ee070fba 	mcr	15, 0, r0, cr7, cr10, {5}
   154e0:	1a000015 	bne	1553c <abort+0xa4>
   154e4:	e5846008 	str	r6, [r4, #8]
   154e8:	e5943004 	ldr	r3, [r4, #4]
   154ec:	e594500c 	ldr	r5, [r4, #12]
   154f0:	e2833001 	add	r3, r3, #1
   154f4:	e3550000 	cmp	r5, #0
   154f8:	e5843004 	str	r3, [r4, #4]
   154fc:	0a000012 	beq	1554c <abort+0xb4>
   15500:	e3550001 	cmp	r5, #1
   15504:	0a000062 	beq	15694 <abort+0x1fc>
   15508:	e3550002 	cmp	r5, #2
   1550c:	0a00001c 	beq	15584 <abort+0xec>
   15510:	e3550003 	cmp	r5, #3
   15514:	0a000038 	beq	155fc <abort+0x164>
   15518:	e3550004 	cmp	r5, #4
   1551c:	0a000062 	beq	156ac <abort+0x214>
   15520:	e3550005 	cmp	r5, #5
   15524:	0a000065 	beq	156c0 <abort+0x228>
   15528:	e3550006 	cmp	r5, #6
   1552c:	0a000069 	beq	156d8 <abort+0x240>
   15530:	e3550007 	cmp	r5, #7
   15534:	0a000044 	beq	1564c <abort+0x1b4>
   15538:	e7f000f0 	udf	#0
   1553c:	e1a00004 	mov	r0, r4
   15540:	e58d2084 	str	r2, [sp, #132]	; 0x84
   15544:	eb004f78 	bl	2932c <__lll_lock_wait_private>
   15548:	eaffffe5 	b	154e4 <abort+0x4c>
   1554c:	e1a01005 	mov	r1, r5
   15550:	e3a07001 	mov	r7, #1
   15554:	e3a02080 	mov	r2, #128	; 0x80
   15558:	e28d0004 	add	r0, sp, #4
   1555c:	e584700c 	str	r7, [r4, #12]
   15560:	eb0042c2 	bl	26070 <memset>
   15564:	e1a02005 	mov	r2, r5
   15568:	e3a03020 	mov	r3, #32
   1556c:	e28d1004 	add	r1, sp, #4
   15570:	e1a00007 	mov	r0, r7
   15574:	e58d3004 	str	r3, [sp, #4]
   15578:	eb0081ed 	bl	35d34 <__sigprocmask>
   1557c:	e594500c 	ldr	r5, [r4, #12]
   15580:	eaffffde 	b	15500 <abort+0x68>
   15584:	e5943004 	ldr	r3, [r4, #4]
   15588:	e3a02000 	mov	r2, #0
   1558c:	e2433001 	sub	r3, r3, #1
   15590:	e1530002 	cmp	r3, r2
   15594:	e5843004 	str	r3, [r4, #4]
   15598:	e584200c 	str	r2, [r4, #12]
   1559c:	0a00002e 	beq	1565c <abort+0x1c4>
   155a0:	e3a00006 	mov	r0, #6
   155a4:	eb008161 	bl	35b30 <raise>
   155a8:	e5943008 	ldr	r3, [r4, #8]
   155ac:	e1560003 	cmp	r6, r3
   155b0:	0a00000e 	beq	155f0 <abort+0x158>
   155b4:	e3a03000 	mov	r3, #0
   155b8:	e58d3084 	str	r3, [sp, #132]	; 0x84
   155bc:	e3a03001 	mov	r3, #1
   155c0:	e1942f9f 	ldrex	r2, [r4]
   155c4:	e3520000 	cmp	r2, #0
   155c8:	1a000003 	bne	155dc <abort+0x144>
   155cc:	e1841f93 	strex	r1, r3, [r4]
   155d0:	e3510000 	cmp	r1, #0
   155d4:	1afffff9 	bne	155c0 <abort+0x128>
   155d8:	ee070fba 	mcr	15, 0, r0, cr7, cr10, {5}
   155dc:	0a000002 	beq	155ec <abort+0x154>
   155e0:	e59f00fc 	ldr	r0, [pc, #252]	; 156e4 <abort+0x24c>
   155e4:	e58d2084 	str	r2, [sp, #132]	; 0x84
   155e8:	eb004f4f 	bl	2932c <__lll_lock_wait_private>
   155ec:	e5846008 	str	r6, [r4, #8]
   155f0:	e5943004 	ldr	r3, [r4, #4]
   155f4:	e2833001 	add	r3, r3, #1
   155f8:	e5843004 	str	r3, [r4, #4]
   155fc:	e3a03004 	mov	r3, #4
   15600:	e3a0208c 	mov	r2, #140	; 0x8c
   15604:	e3a01000 	mov	r1, #0
   15608:	e28d0084 	add	r0, sp, #132	; 0x84
   1560c:	e584300c 	str	r3, [r4, #12]
   15610:	eb004296 	bl	26070 <memset>
   15614:	e28d3f42 	add	r3, sp, #264	; 0x108
   15618:	e28d1088 	add	r1, sp, #136	; 0x88
   1561c:	e3e02000 	mvn	r2, #0
   15620:	e5232004 	str	r2, [r3, #-4]!
   15624:	e1530001 	cmp	r3, r1
   15628:	1afffffc 	bne	15620 <abort+0x188>
   1562c:	e3a03000 	mov	r3, #0
   15630:	e28d1084 	add	r1, sp, #132	; 0x84
   15634:	e1a02003 	mov	r2, r3
   15638:	e3a00006 	mov	r0, #6
   1563c:	e58d3108 	str	r3, [sp, #264]	; 0x108
   15640:	eb0081ae 	bl	35d00 <__sigaction>
   15644:	e594500c 	ldr	r5, [r4, #12]
   15648:	eaffffb2 	b	15518 <abort+0x80>
   1564c:	e3a03008 	mov	r3, #8
   15650:	e3a0007f 	mov	r0, #127	; 0x7f
   15654:	e584300c 	str	r3, [r4, #12]
   15658:	eb0044c6 	bl	26978 <_exit>
   1565c:	e5843008 	str	r3, [r4, #8]
   15660:	ee070fba 	mcr	15, 0, r0, cr7, cr10, {5}
   15664:	e1942f9f 	ldrex	r2, [r4]
   15668:	e1841f93 	strex	r1, r3, [r4]
   1566c:	e3510000 	cmp	r1, #0
   15670:	1afffffb 	bne	15664 <abort+0x1cc>
   15674:	e3520001 	cmp	r2, #1
   15678:	daffffc8 	ble	155a0 <abort+0x108>
   1567c:	e59f0060 	ldr	r0, [pc, #96]	; 156e4 <abort+0x24c>
   15680:	e3a01081 	mov	r1, #129	; 0x81
   15684:	e3a02001 	mov	r2, #1
   15688:	e3a070f0 	mov	r7, #240	; 0xf0
   1568c:	ef000000 	svc	0x00000000
   15690:	eaffffc2 	b	155a0 <abort+0x108>
   15694:	e3a03002 	mov	r3, #2
   15698:	e3a00000 	mov	r0, #0
   1569c:	e584300c 	str	r3, [r4, #12]
   156a0:	eb001dae 	bl	1cd60 <_IO_flush_all_lockp>
   156a4:	e594500c 	ldr	r5, [r4, #12]
   156a8:	eaffff96 	b	15508 <abort+0x70>
   156ac:	e3a03005 	mov	r3, #5
   156b0:	e584300c 	str	r3, [r4, #12]
   156b4:	eb000df1 	bl	18e80 <__fcloseall>
   156b8:	e594500c 	ldr	r5, [r4, #12]
   156bc:	eaffff97 	b	15520 <abort+0x88>
   156c0:	e3a03006 	mov	r3, #6
   156c4:	e1a00003 	mov	r0, r3
   156c8:	e584300c 	str	r3, [r4, #12]
   156cc:	eb008117 	bl	35b30 <raise>
   156d0:	e594500c 	ldr	r5, [r4, #12]
   156d4:	eaffff93 	b	15528 <abort+0x90>
   156d8:	e3a03007 	mov	r3, #7
   156dc:	e584300c 	str	r3, [r4, #12]
   156e0:	e7f000f0 	udf	#0
   156e4:	00096198 	.word	0x00096198

000156e8 <msort_with_tmp.part.0>:
   156e8:	e92d4ff0 	push	{r4, r5, r6, r7, r8, r9, sl, fp, lr}
   156ec:	e1a060a2 	lsr	r6, r2, #1
   156f0:	e5905000 	ldr	r5, [r0]
   156f4:	e24dd014 	sub	sp, sp, #20
   156f8:	e3560001 	cmp	r6, #1
   156fc:	e58d0004 	str	r0, [sp, #4]
   15700:	e58d200c 	str	r2, [sp, #12]
   15704:	e58d1008 	str	r1, [sp, #8]
   15708:	e042b006 	sub	fp, r2, r6
   1570c:	e0251695 	mla	r5, r5, r6, r1
   15710:	9a000001 	bls	1571c <msort_with_tmp.part.0+0x34>
   15714:	e1a02006 	mov	r2, r6
   15718:	ebfffff2 	bl	156e8 <msort_with_tmp.part.0>
   1571c:	e35b0001 	cmp	fp, #1
   15720:	9a000003 	bls	15734 <msort_with_tmp.part.0+0x4c>
   15724:	e1a0200b 	mov	r2, fp
   15728:	e1a01005 	mov	r1, r5
   1572c:	e59d0004 	ldr	r0, [sp, #4]
   15730:	ebffffec 	bl	156e8 <msort_with_tmp.part.0>
   15734:	e59d3004 	ldr	r3, [sp, #4]
   15738:	e59d7008 	ldr	r7, [sp, #8]
   1573c:	e5932004 	ldr	r2, [r3, #4]
   15740:	e5934010 	ldr	r4, [r3, #16]
   15744:	e5938000 	ldr	r8, [r3]
   15748:	e593a008 	ldr	sl, [r3, #8]
   1574c:	e593900c 	ldr	r9, [r3, #12]
   15750:	e3520003 	cmp	r2, #3
   15754:	979ff102 	ldrls	pc, [pc, r2, lsl #2]
   15758:	ea000020 	b	157e0 <msort_with_tmp.part.0+0xf8>
   1575c:	000158ec 	.word	0x000158ec
   15760:	00015898 	.word	0x00015898
   15764:	00015770 	.word	0x00015770
   15768:	00015824 	.word	0x00015824
   1576c:	e1a04001 	mov	r4, r1
   15770:	e3560000 	cmp	r6, #0
   15774:	135b0000 	cmpne	fp, #0
   15778:	0a00002c 	beq	15830 <msort_with_tmp.part.0+0x148>
   1577c:	e1a01005 	mov	r1, r5
   15780:	e1a00007 	mov	r0, r7
   15784:	e1a02009 	mov	r2, r9
   15788:	e12fff3a 	blx	sl
   1578c:	e0841008 	add	r1, r4, r8
   15790:	e3500000 	cmp	r0, #0
   15794:	c1a03005 	movgt	r3, r5
   15798:	d1a03007 	movle	r3, r7
   1579c:	c24bb001 	subgt	fp, fp, #1
   157a0:	c0855008 	addgt	r5, r5, r8
   157a4:	d2466001 	suble	r6, r6, #1
   157a8:	d0877008 	addle	r7, r7, r8
   157ac:	e1540001 	cmp	r4, r1
   157b0:	2affffed 	bcs	1576c <msort_with_tmp.part.0+0x84>
   157b4:	e4932004 	ldr	r2, [r3], #4
   157b8:	e4842004 	str	r2, [r4], #4
   157bc:	e1510004 	cmp	r1, r4
   157c0:	8afffffb 	bhi	157b4 <msort_with_tmp.part.0+0xcc>
   157c4:	e1a04001 	mov	r4, r1
   157c8:	eaffffe8 	b	15770 <msort_with_tmp.part.0+0x88>
   157cc:	e1a01007 	mov	r1, r7
   157d0:	eb004256 	bl	26130 <memcpy>
   157d4:	e2466001 	sub	r6, r6, #1
   157d8:	e0877008 	add	r7, r7, r8
   157dc:	e0804008 	add	r4, r0, r8
   157e0:	e3560000 	cmp	r6, #0
   157e4:	135b0000 	cmpne	fp, #0
   157e8:	e1a01005 	mov	r1, r5
   157ec:	e1a02009 	mov	r2, r9
   157f0:	e1a00007 	mov	r0, r7
   157f4:	0a00000d 	beq	15830 <msort_with_tmp.part.0+0x148>
   157f8:	e12fff3a 	blx	sl
   157fc:	e1a01005 	mov	r1, r5
   15800:	e1a02008 	mov	r2, r8
   15804:	e3500000 	cmp	r0, #0
   15808:	e1a00004 	mov	r0, r4
   1580c:	daffffee 	ble	157cc <msort_with_tmp.part.0+0xe4>
   15810:	eb004246 	bl	26130 <memcpy>
   15814:	e0855008 	add	r5, r5, r8
   15818:	e24bb001 	sub	fp, fp, #1
   1581c:	e0804008 	add	r4, r0, r8
   15820:	eaffffee 	b	157e0 <msort_with_tmp.part.0+0xf8>
   15824:	e35b0000 	cmp	fp, #0
   15828:	13560000 	cmpne	r6, #0
   1582c:	1a00000a 	bne	1585c <msort_with_tmp.part.0+0x174>
   15830:	e3560000 	cmp	r6, #0
   15834:	1a00003e 	bne	15934 <msort_with_tmp.part.0+0x24c>
   15838:	e59d300c 	ldr	r3, [sp, #12]
   1583c:	e59d0008 	ldr	r0, [sp, #8]
   15840:	e043200b 	sub	r2, r3, fp
   15844:	e59d3004 	ldr	r3, [sp, #4]
   15848:	e0020298 	mul	r2, r8, r2
   1584c:	e5931010 	ldr	r1, [r3, #16]
   15850:	e28dd014 	add	sp, sp, #20
   15854:	e8bd4ff0 	pop	{r4, r5, r6, r7, r8, r9, sl, fp, lr}
   15858:	ea004234 	b	26130 <memcpy>
   1585c:	e5951000 	ldr	r1, [r5]
   15860:	e5970000 	ldr	r0, [r7]
   15864:	e1a02009 	mov	r2, r9
   15868:	e12fff3a 	blx	sl
   1586c:	e2844004 	add	r4, r4, #4
   15870:	e3500000 	cmp	r0, #0
   15874:	d2466001 	suble	r6, r6, #1
   15878:	d4973004 	ldrle	r3, [r7], #4
   1587c:	c4953004 	ldrgt	r3, [r5], #4
   15880:	c24bb001 	subgt	fp, fp, #1
   15884:	e3560000 	cmp	r6, #0
   15888:	135b0000 	cmpne	fp, #0
   1588c:	e5043004 	str	r3, [r4, #-4]
   15890:	1afffff1 	bne	1585c <msort_with_tmp.part.0+0x174>
   15894:	eaffffe5 	b	15830 <msort_with_tmp.part.0+0x148>
   15898:	e35b0000 	cmp	fp, #0
   1589c:	13560000 	cmpne	r6, #0
   158a0:	1a000007 	bne	158c4 <msort_with_tmp.part.0+0x1dc>
   158a4:	eaffffe1 	b	15830 <msort_with_tmp.part.0+0x148>
   158a8:	e0c520d8 	ldrd	r2, [r5], #8
   158ac:	e24bb001 	sub	fp, fp, #1
   158b0:	e1c420f0 	strd	r2, [r4]
   158b4:	e3560000 	cmp	r6, #0
   158b8:	135b0000 	cmpne	fp, #0
   158bc:	e2844008 	add	r4, r4, #8
   158c0:	0affffda 	beq	15830 <msort_with_tmp.part.0+0x148>
   158c4:	e1a02009 	mov	r2, r9
   158c8:	e1a01005 	mov	r1, r5
   158cc:	e1a00007 	mov	r0, r7
   158d0:	e12fff3a 	blx	sl
   158d4:	e3500000 	cmp	r0, #0
   158d8:	cafffff2 	bgt	158a8 <msort_with_tmp.part.0+0x1c0>
   158dc:	e0c720d8 	ldrd	r2, [r7], #8
   158e0:	e2466001 	sub	r6, r6, #1
   158e4:	e1c420f0 	strd	r2, [r4]
   158e8:	eafffff1 	b	158b4 <msort_with_tmp.part.0+0x1cc>
   158ec:	e35b0000 	cmp	fp, #0
   158f0:	13560000 	cmpne	r6, #0
   158f4:	0affffcd 	beq	15830 <msort_with_tmp.part.0+0x148>
   158f8:	e1a01005 	mov	r1, r5
   158fc:	e1a00007 	mov	r0, r7
   15900:	e1a02009 	mov	r2, r9
   15904:	e12fff3a 	blx	sl
   15908:	e2844004 	add	r4, r4, #4
   1590c:	e3500000 	cmp	r0, #0
   15910:	d2466001 	suble	r6, r6, #1
   15914:	d4973004 	ldrle	r3, [r7], #4
   15918:	c4953004 	ldrgt	r3, [r5], #4
   1591c:	c24bb001 	subgt	fp, fp, #1
   15920:	e3560000 	cmp	r6, #0
   15924:	135b0000 	cmpne	fp, #0
   15928:	e5043004 	str	r3, [r4, #-4]
   1592c:	1afffff1 	bne	158f8 <msort_with_tmp.part.0+0x210>
   15930:	eaffffbe 	b	15830 <msort_with_tmp.part.0+0x148>
   15934:	e0020896 	mul	r2, r6, r8
   15938:	e1a01007 	mov	r1, r7
   1593c:	e1a00004 	mov	r0, r4
   15940:	eb0041fa 	bl	26130 <memcpy>
   15944:	eaffffbb 	b	15838 <msort_with_tmp.part.0+0x150>

00015948 <__qsort_r>:
   15948:	e92d4ff0 	push	{r4, r5, r6, r7, r8, r9, sl, fp, lr}
   1594c:	e3520020 	cmp	r2, #32
   15950:	e28db020 	add	fp, sp, #32
   15954:	e1a06003 	mov	r6, r3
   15958:	91a03001 	movls	r3, r1
   1595c:	e24dd03c 	sub	sp, sp, #60	; 0x3c
   15960:	e50b104c 	str	r1, [fp, #-76]	; 0xffffffb4
   15964:	851b304c 	ldrhi	r3, [fp, #-76]	; 0xffffffb4
   15968:	90040392 	mulls	r4, r2, r3
   1596c:	80824183 	addhi	r4, r2, r3, lsl #3
   15970:	e3540b01 	cmp	r4, #1024	; 0x400
   15974:	e1a07002 	mov	r7, r2
   15978:	e50b0040 	str	r0, [fp, #-64]	; 0xffffffc0
   1597c:	3a000089 	bcc	15ba8 <__qsort_r+0x260>
   15980:	e59f52b0 	ldr	r5, [pc, #688]	; 15c38 <__qsort_r+0x2f0>
   15984:	e5951000 	ldr	r1, [r5]
   15988:	e3510000 	cmp	r1, #0
   1598c:	0a00008d 	beq	15bc8 <__qsort_r+0x280>
   15990:	e1a00004 	mov	r0, r4
   15994:	eb015c90 	bl	6cbdc <__udivsi3>
   15998:	e5953004 	ldr	r3, [r5, #4]
   1599c:	e1500003 	cmp	r0, r3
   159a0:	8a000062 	bhi	15b30 <__qsort_r+0x1e8>
   159a4:	e59f3290 	ldr	r3, [pc, #656]	; 15c3c <__qsort_r+0x2f4>
   159a8:	ebffece4 	bl	10d40 <__aeabi_read_tp>
   159ac:	e1a05000 	mov	r5, r0
   159b0:	e79f3003 	ldr	r3, [pc, r3]
   159b4:	e1a00004 	mov	r0, r4
   159b8:	e7954003 	ldr	r4, [r5, r3]
   159bc:	eb00338a 	bl	227ec <__libc_malloc>
   159c0:	e59f3278 	ldr	r3, [pc, #632]	; 15c40 <__qsort_r+0x2f8>
   159c4:	e79f3003 	ldr	r3, [pc, r3]
   159c8:	e7854003 	str	r4, [r5, r3]
   159cc:	e2503000 	subs	r3, r0, #0
   159d0:	e50b3054 	str	r3, [fp, #-84]	; 0xffffffac
   159d4:	0a000055 	beq	15b30 <__qsort_r+0x1e8>
   159d8:	e50b3028 	str	r3, [fp, #-40]	; 0xffffffd8
   159dc:	e59b2004 	ldr	r2, [fp, #4]
   159e0:	e3a03004 	mov	r3, #4
   159e4:	e3570020 	cmp	r7, #32
   159e8:	e50b7038 	str	r7, [fp, #-56]	; 0xffffffc8
   159ec:	e50b6030 	str	r6, [fp, #-48]	; 0xffffffd0
   159f0:	e50b202c 	str	r2, [fp, #-44]	; 0xffffffd4
   159f4:	e50b3034 	str	r3, [fp, #-52]	; 0xffffffcc
   159f8:	9a000055 	bls	15b54 <__qsort_r+0x20c>
   159fc:	e51b304c 	ldr	r3, [fp, #-76]	; 0xffffffb4
   15a00:	e51b6028 	ldr	r6, [fp, #-40]	; 0xffffffd8
   15a04:	e1a01103 	lsl	r1, r3, #2
   15a08:	e0866001 	add	r6, r6, r1
   15a0c:	e0863001 	add	r3, r6, r1
   15a10:	e1560003 	cmp	r6, r3
   15a14:	e1a00003 	mov	r0, r3
   15a18:	e50b3050 	str	r3, [fp, #-80]	; 0xffffffb0
   15a1c:	2a000083 	bcs	15c30 <__qsort_r+0x2e8>
   15a20:	e51b3040 	ldr	r3, [fp, #-64]	; 0xffffffc0
   15a24:	e1a02006 	mov	r2, r6
   15a28:	e4823004 	str	r3, [r2], #4
   15a2c:	e1500002 	cmp	r0, r2
   15a30:	e0833007 	add	r3, r3, r7
   15a34:	8afffffb 	bhi	15a28 <__qsort_r+0xe0>
   15a38:	e51b3028 	ldr	r3, [fp, #-40]	; 0xffffffd8
   15a3c:	e0831001 	add	r1, r3, r1
   15a40:	e51b004c 	ldr	r0, [fp, #-76]	; 0xffffffb4
   15a44:	e3a02004 	mov	r2, #4
   15a48:	e3a03003 	mov	r3, #3
   15a4c:	e3500001 	cmp	r0, #1
   15a50:	e50b2038 	str	r2, [fp, #-56]	; 0xffffffc8
   15a54:	e50b3034 	str	r3, [fp, #-52]	; 0xffffffcc
   15a58:	9a00006a 	bls	15c08 <__qsort_r+0x2c0>
   15a5c:	e1a02000 	mov	r2, r0
   15a60:	e24b0038 	sub	r0, fp, #56	; 0x38
   15a64:	ebffff1f 	bl	156e8 <msort_with_tmp.part.0>
   15a68:	e51b8040 	ldr	r8, [fp, #-64]	; 0xffffffc0
   15a6c:	e2463004 	sub	r3, r6, #4
   15a70:	e50b3048 	str	r3, [fp, #-72]	; 0xffffffb8
   15a74:	e3a03000 	mov	r3, #0
   15a78:	e50b3044 	str	r3, [fp, #-68]	; 0xffffffbc
   15a7c:	e51b3048 	ldr	r3, [fp, #-72]	; 0xffffffb8
   15a80:	e5b34004 	ldr	r4, [r3, #4]!
   15a84:	e1540008 	cmp	r4, r8
   15a88:	e50b3048 	str	r3, [fp, #-72]	; 0xffffffb8
   15a8c:	0a00001c 	beq	15b04 <__qsort_r+0x1bc>
   15a90:	e1a02007 	mov	r2, r7
   15a94:	e1a01008 	mov	r1, r8
   15a98:	e51b0050 	ldr	r0, [fp, #-80]	; 0xffffffb0
   15a9c:	eb0041a3 	bl	26130 <memcpy>
   15aa0:	e1a09008 	mov	r9, r8
   15aa4:	e51ba044 	ldr	sl, [fp, #-68]	; 0xffffffbc
   15aa8:	ea000000 	b	15ab0 <__qsort_r+0x168>
   15aac:	e1a04003 	mov	r4, r3
   15ab0:	e51b3040 	ldr	r3, [fp, #-64]	; 0xffffffc0
   15ab4:	e1a01007 	mov	r1, r7
   15ab8:	e0440003 	sub	r0, r4, r3
   15abc:	eb015c46 	bl	6cbdc <__udivsi3>
   15ac0:	e786910a 	str	r9, [r6, sl, lsl #2]
   15ac4:	e1a02007 	mov	r2, r7
   15ac8:	e1a01004 	mov	r1, r4
   15acc:	e1a05000 	mov	r5, r0
   15ad0:	e1a00009 	mov	r0, r9
   15ad4:	eb004195 	bl	26130 <memcpy>
   15ad8:	e7963105 	ldr	r3, [r6, r5, lsl #2]
   15adc:	e0860105 	add	r0, r6, r5, lsl #2
   15ae0:	e1530008 	cmp	r3, r8
   15ae4:	e1a0a005 	mov	sl, r5
   15ae8:	e1a09004 	mov	r9, r4
   15aec:	1affffee 	bne	15aac <__qsort_r+0x164>
   15af0:	e5804000 	str	r4, [r0]
   15af4:	e1a02007 	mov	r2, r7
   15af8:	e1a00004 	mov	r0, r4
   15afc:	e51b1050 	ldr	r1, [fp, #-80]	; 0xffffffb0
   15b00:	eb00418a 	bl	26130 <memcpy>
   15b04:	e51b3044 	ldr	r3, [fp, #-68]	; 0xffffffbc
   15b08:	e51b204c 	ldr	r2, [fp, #-76]	; 0xffffffb4
   15b0c:	e2833001 	add	r3, r3, #1
   15b10:	e1520003 	cmp	r2, r3
   15b14:	e50b3044 	str	r3, [fp, #-68]	; 0xffffffbc
   15b18:	e0888007 	add	r8, r8, r7
   15b1c:	1affffd6 	bne	15a7c <__qsort_r+0x134>
   15b20:	e51b0054 	ldr	r0, [fp, #-84]	; 0xffffffac
   15b24:	eb0034aa 	bl	22dd4 <__cfree>
   15b28:	e24bd020 	sub	sp, fp, #32
   15b2c:	e8bd8ff0 	pop	{r4, r5, r6, r7, r8, r9, sl, fp, pc}
   15b30:	e59b3004 	ldr	r3, [fp, #4]
   15b34:	e1a02007 	mov	r2, r7
   15b38:	e58d3000 	str	r3, [sp]
   15b3c:	e51b104c 	ldr	r1, [fp, #-76]	; 0xffffffb4
   15b40:	e1a03006 	mov	r3, r6
   15b44:	e51b0040 	ldr	r0, [fp, #-64]	; 0xffffffc0
   15b48:	eb0080ae 	bl	35e08 <_quicksort>
   15b4c:	e24bd020 	sub	sp, fp, #32
   15b50:	e8bd8ff0 	pop	{r4, r5, r6, r7, r8, r9, sl, fp, pc}
   15b54:	e3170003 	tst	r7, #3
   15b58:	1a000008 	bne	15b80 <__qsort_r+0x238>
   15b5c:	e51b3040 	ldr	r3, [fp, #-64]	; 0xffffffc0
   15b60:	e2133003 	ands	r3, r3, #3
   15b64:	1a000005 	bne	15b80 <__qsort_r+0x238>
   15b68:	e3570004 	cmp	r7, #4
   15b6c:	0a000002 	beq	15b7c <__qsort_r+0x234>
   15b70:	e3570008 	cmp	r7, #8
   15b74:	0a000027 	beq	15c18 <__qsort_r+0x2d0>
   15b78:	e3a03002 	mov	r3, #2
   15b7c:	e50b3034 	str	r3, [fp, #-52]	; 0xffffffcc
   15b80:	e51b304c 	ldr	r3, [fp, #-76]	; 0xffffffb4
   15b84:	e3530001 	cmp	r3, #1
   15b88:	9affffe4 	bls	15b20 <__qsort_r+0x1d8>
   15b8c:	e24b0038 	sub	r0, fp, #56	; 0x38
   15b90:	e1a02003 	mov	r2, r3
   15b94:	e51b1040 	ldr	r1, [fp, #-64]	; 0xffffffc0
   15b98:	ebfffed2 	bl	156e8 <msort_with_tmp.part.0>
   15b9c:	e51b0054 	ldr	r0, [fp, #-84]	; 0xffffffac
   15ba0:	eb00348b 	bl	22dd4 <__cfree>
   15ba4:	eaffffdf 	b	15b28 <__qsort_r+0x1e0>
   15ba8:	e284300e 	add	r3, r4, #14
   15bac:	e3c33007 	bic	r3, r3, #7
   15bb0:	e04dd003 	sub	sp, sp, r3
   15bb4:	e28d3008 	add	r3, sp, #8
   15bb8:	e50b3028 	str	r3, [fp, #-40]	; 0xffffffd8
   15bbc:	e3a03000 	mov	r3, #0
   15bc0:	e50b3054 	str	r3, [fp, #-84]	; 0xffffffac
   15bc4:	eaffff84 	b	159dc <__qsort_r+0x94>
   15bc8:	e3a00055 	mov	r0, #85	; 0x55
   15bcc:	eb004383 	bl	269e0 <__sysconf>
   15bd0:	e3700001 	cmn	r0, #1
   15bd4:	03e0320e 	mvneq	r3, #-536870912	; 0xe0000000
   15bd8:	0a000003 	beq	15bec <__qsort_r+0x2a4>
   15bdc:	e2803003 	add	r3, r0, #3
   15be0:	e3500000 	cmp	r0, #0
   15be4:	b1a00003 	movlt	r0, r3
   15be8:	e1a03140 	asr	r3, r0, #2
   15bec:	e5853004 	str	r3, [r5, #4]
   15bf0:	e3a0001e 	mov	r0, #30
   15bf4:	ee070fba 	mcr	15, 0, r0, cr7, cr10, {5}
   15bf8:	eb004378 	bl	269e0 <__sysconf>
   15bfc:	e1a01000 	mov	r1, r0
   15c00:	e5850000 	str	r0, [r5]
   15c04:	eaffff61 	b	15990 <__qsort_r+0x48>
   15c08:	e51b304c 	ldr	r3, [fp, #-76]	; 0xffffffb4
   15c0c:	e3530000 	cmp	r3, #0
   15c10:	1affff94 	bne	15a68 <__qsort_r+0x120>
   15c14:	eaffffc1 	b	15b20 <__qsort_r+0x1d8>
   15c18:	e51b3040 	ldr	r3, [fp, #-64]	; 0xffffffc0
   15c1c:	e3130007 	tst	r3, #7
   15c20:	03a03001 	moveq	r3, #1
   15c24:	050b3034 	streq	r3, [fp, #-52]	; 0xffffffcc
   15c28:	0affffd4 	beq	15b80 <__qsort_r+0x238>
   15c2c:	eaffffd1 	b	15b78 <__qsort_r+0x230>
   15c30:	e1a01006 	mov	r1, r6
   15c34:	eaffff81 	b	15a40 <__qsort_r+0xf8>
   15c38:	000961ac 	.word	0x000961ac
   15c3c:	0007f68c 	.word	0x0007f68c
   15c40:	0007f678 	.word	0x0007f678

00015c44 <qsort>:
   15c44:	e52de004 	push	{lr}		; (str lr, [sp, #-4]!)
   15c48:	e24dd00c 	sub	sp, sp, #12
   15c4c:	e3a0c000 	mov	ip, #0
   15c50:	e58dc000 	str	ip, [sp]
   15c54:	ebffff3b 	bl	15948 <__qsort_r>
   15c58:	e28dd00c 	add	sp, sp, #12
   15c5c:	e49df004 	pop	{pc}		; (ldr pc, [sp], #4)

00015c60 <getenv>:
   15c60:	e92d47f0 	push	{r4, r5, r6, r7, r8, r9, sl, lr}
   15c64:	e1a06000 	mov	r6, r0
   15c68:	eb003c3c 	bl	24d60 <strlen>
   15c6c:	e59f30e8 	ldr	r3, [pc, #232]	; 15d5c <getenv+0xfc>
   15c70:	e5935000 	ldr	r5, [r3]
   15c74:	e3550000 	cmp	r5, #0
   15c78:	0a000035 	beq	15d54 <getenv+0xf4>
   15c7c:	e5d62000 	ldrb	r2, [r6]
   15c80:	e3520000 	cmp	r2, #0
   15c84:	0a000030 	beq	15d4c <getenv+0xec>
   15c88:	e5d69001 	ldrb	r9, [r6, #1]
   15c8c:	e3590000 	cmp	r9, #0
   15c90:	1a00000f 	bne	15cd4 <getenv+0x74>
   15c94:	e5954000 	ldr	r4, [r5]
   15c98:	e3822c3d 	orr	r2, r2, #15616	; 0x3d00
   15c9c:	e3540000 	cmp	r4, #0
   15ca0:	1a000003 	bne	15cb4 <getenv+0x54>
   15ca4:	ea000008 	b	15ccc <getenv+0x6c>
   15ca8:	e5b54004 	ldr	r4, [r5, #4]!
   15cac:	e3540000 	cmp	r4, #0
   15cb0:	0a000005 	beq	15ccc <getenv+0x6c>
   15cb4:	e5d41001 	ldrb	r1, [r4, #1]
   15cb8:	e5d43000 	ldrb	r3, [r4]
   15cbc:	e1833401 	orr	r3, r3, r1, lsl #8
   15cc0:	e1520003 	cmp	r2, r3
   15cc4:	1afffff7 	bne	15ca8 <getenv+0x48>
   15cc8:	e2844002 	add	r4, r4, #2
   15ccc:	e1a00004 	mov	r0, r4
   15cd0:	e8bd87f0 	pop	{r4, r5, r6, r7, r8, r9, sl, pc}
   15cd4:	e5954000 	ldr	r4, [r5]
   15cd8:	e1822409 	orr	r2, r2, r9, lsl #8
   15cdc:	e3540000 	cmp	r4, #0
   15ce0:	e1a08000 	mov	r8, r0
   15ce4:	e6bf9072 	sxth	r9, r2
   15ce8:	e2866002 	add	r6, r6, #2
   15cec:	e2407002 	sub	r7, r0, #2
   15cf0:	1a000003 	bne	15d04 <getenv+0xa4>
   15cf4:	eafffff4 	b	15ccc <getenv+0x6c>
   15cf8:	e5b54004 	ldr	r4, [r5, #4]!
   15cfc:	e3540000 	cmp	r4, #0
   15d00:	0afffff1 	beq	15ccc <getenv+0x6c>
   15d04:	e5d42001 	ldrb	r2, [r4, #1]
   15d08:	e5d43000 	ldrb	r3, [r4]
   15d0c:	e1833402 	orr	r3, r3, r2, lsl #8
   15d10:	e6bf3073 	sxth	r3, r3
   15d14:	e1590003 	cmp	r9, r3
   15d18:	1afffff6 	bne	15cf8 <getenv+0x98>
   15d1c:	e1a02007 	mov	r2, r7
   15d20:	e1a01006 	mov	r1, r6
   15d24:	e2840002 	add	r0, r4, #2
   15d28:	eb003c2c 	bl	24de0 <strncmp>
   15d2c:	e3500000 	cmp	r0, #0
   15d30:	1afffff0 	bne	15cf8 <getenv+0x98>
   15d34:	e7d43008 	ldrb	r3, [r4, r8]
   15d38:	e353003d 	cmp	r3, #61	; 0x3d
   15d3c:	1affffed 	bne	15cf8 <getenv+0x98>
   15d40:	e2888001 	add	r8, r8, #1
   15d44:	e0844008 	add	r4, r4, r8
   15d48:	eaffffdf 	b	15ccc <getenv+0x6c>
   15d4c:	e1a04002 	mov	r4, r2
   15d50:	eaffffdd 	b	15ccc <getenv+0x6c>
   15d54:	e1a04005 	mov	r4, r5
   15d58:	eaffffdb 	b	15ccc <getenv+0x6c>
   15d5c:	00096438 	.word	0x00096438

00015d60 <__run_exit_handlers>:
   15d60:	e59fc134 	ldr	ip, [pc, #308]	; 15e9c <__run_exit_handlers+0x13c>
   15d64:	e92d4080 	push	{r7, lr}
   15d68:	e35c0000 	cmp	ip, #0
   15d6c:	e1a07002 	mov	r7, r2
   15d70:	01a0200c 	moveq	r2, ip
   15d74:	13a02001 	movne	r2, #1
   15d78:	e1130002 	tst	r3, r2
   15d7c:	e1a05000 	mov	r5, r0
   15d80:	e1a06001 	mov	r6, r1
   15d84:	1a000042 	bne	15e94 <__run_exit_handlers+0x134>
   15d88:	e59f4110 	ldr	r4, [pc, #272]	; 15ea0 <__run_exit_handlers+0x140>
   15d8c:	e5968000 	ldr	r8, [r6]
   15d90:	e3580000 	cmp	r8, #0
   15d94:	0a000013 	beq	15de8 <__run_exit_handlers+0x88>
   15d98:	e5983004 	ldr	r3, [r8, #4]
   15d9c:	e3530000 	cmp	r3, #0
   15da0:	e0881203 	add	r1, r8, r3, lsl #4
   15da4:	0a00000b 	beq	15dd8 <__run_exit_handlers+0x78>
   15da8:	e5112008 	ldr	r2, [r1, #-8]
   15dac:	e2433001 	sub	r3, r3, #1
   15db0:	e3520003 	cmp	r2, #3
   15db4:	e5883004 	str	r3, [r8, #4]
   15db8:	0a00002c 	beq	15e70 <__run_exit_handlers+0x110>
   15dbc:	e3520004 	cmp	r2, #4
   15dc0:	0a000022 	beq	15e50 <__run_exit_handlers+0xf0>
   15dc4:	e3520002 	cmp	r2, #2
   15dc8:	0a000018 	beq	15e30 <__run_exit_handlers+0xd0>
   15dcc:	e3530000 	cmp	r3, #0
   15dd0:	e2411010 	sub	r1, r1, #16
   15dd4:	1afffff3 	bne	15da8 <__run_exit_handlers+0x48>
   15dd8:	e5983000 	ldr	r3, [r8]
   15ddc:	e3530000 	cmp	r3, #0
   15de0:	e5863000 	str	r3, [r6]
   15de4:	1a000027 	bne	15e88 <__run_exit_handlers+0x128>
   15de8:	e3570000 	cmp	r7, #0
   15dec:	0a00000d 	beq	15e28 <__run_exit_handlers+0xc8>
   15df0:	e59f60ac 	ldr	r6, [pc, #172]	; 15ea4 <__run_exit_handlers+0x144>
   15df4:	e59f30ac 	ldr	r3, [pc, #172]	; 15ea8 <__run_exit_handlers+0x148>
   15df8:	e1560003 	cmp	r6, r3
   15dfc:	2a000009 	bcs	15e28 <__run_exit_handlers+0xc8>
   15e00:	e1e07006 	mvn	r7, r6
   15e04:	e0877003 	add	r7, r7, r3
   15e08:	e3a04000 	mov	r4, #0
   15e0c:	e1a07127 	lsr	r7, r7, #2
   15e10:	e2877001 	add	r7, r7, #1
   15e14:	e2844001 	add	r4, r4, #1
   15e18:	e4963004 	ldr	r3, [r6], #4
   15e1c:	e12fff33 	blx	r3
   15e20:	e1540007 	cmp	r4, r7
   15e24:	1afffffa 	bne	15e14 <__run_exit_handlers+0xb4>
   15e28:	e1a00005 	mov	r0, r5
   15e2c:	eb0042d1 	bl	26978 <_exit>
   15e30:	e0883203 	add	r3, r8, r3, lsl #4
   15e34:	e5940000 	ldr	r0, [r4]
   15e38:	e593200c 	ldr	r2, [r3, #12]
   15e3c:	e5931010 	ldr	r1, [r3, #16]
   15e40:	e0223000 	eor	r3, r2, r0
   15e44:	e1a00005 	mov	r0, r5
   15e48:	e12fff33 	blx	r3
