
tricky1:     file format elf64-x86-64


Disassembly of section .init:

0000000000400b30 <_init>:
  400b30:	48 83 ec 08          	sub    rsp,0x8
  400b34:	48 8b 05 bd 14 20 00 	mov    rax,QWORD PTR [rip+0x2014bd]        # 601ff8 <_DYNAMIC+0x1f0>
  400b3b:	48 85 c0             	test   rax,rax
  400b3e:	74 05                	je     400b45 <_init+0x15>
  400b40:	e8 2b 00 00 00       	call   400b70 <__gmon_start__@plt>
  400b45:	48 83 c4 08          	add    rsp,0x8
  400b49:	c3                   	ret    

Disassembly of section .plt:

0000000000400b50 <_ZNSsC1Ev@plt-0x10>:
  400b50:	ff 35 b2 14 20 00    	push   QWORD PTR [rip+0x2014b2]        # 602008 <_GLOBAL_OFFSET_TABLE_+0x8>
  400b56:	ff 25 b4 14 20 00    	jmp    QWORD PTR [rip+0x2014b4]        # 602010 <_GLOBAL_OFFSET_TABLE_+0x10>
  400b5c:	0f 1f 40 00          	nop    DWORD PTR [rax+0x0]

0000000000400b60 <_ZNSsC1Ev@plt>:
  400b60:	ff 25 b2 14 20 00    	jmp    QWORD PTR [rip+0x2014b2]        # 602018 <_GLOBAL_OFFSET_TABLE_+0x18>
  400b66:	68 00 00 00 00       	push   0x0
  400b6b:	e9 e0 ff ff ff       	jmp    400b50 <_init+0x20>

0000000000400b70 <__gmon_start__@plt>:
  400b70:	ff 25 aa 14 20 00    	jmp    QWORD PTR [rip+0x2014aa]        # 602020 <_GLOBAL_OFFSET_TABLE_+0x20>
  400b76:	68 01 00 00 00       	push   0x1
  400b7b:	e9 d0 ff ff ff       	jmp    400b50 <_init+0x20>

0000000000400b80 <_ZNKSs4sizeEv@plt>:
  400b80:	ff 25 a2 14 20 00    	jmp    QWORD PTR [rip+0x2014a2]        # 602028 <_GLOBAL_OFFSET_TABLE_+0x28>
  400b86:	68 02 00 00 00       	push   0x2
  400b8b:	e9 c0 ff ff ff       	jmp    400b50 <_init+0x20>

0000000000400b90 <_ZNSt8ios_base4InitC1Ev@plt>:
  400b90:	ff 25 9a 14 20 00    	jmp    QWORD PTR [rip+0x20149a]        # 602030 <_GLOBAL_OFFSET_TABLE_+0x30>
  400b96:	68 03 00 00 00       	push   0x3
  400b9b:	e9 b0 ff ff ff       	jmp    400b50 <_init+0x20>

0000000000400ba0 <__libc_start_main@plt>:
  400ba0:	ff 25 92 14 20 00    	jmp    QWORD PTR [rip+0x201492]        # 602038 <_GLOBAL_OFFSET_TABLE_+0x38>
  400ba6:	68 04 00 00 00       	push   0x4
  400bab:	e9 a0 ff ff ff       	jmp    400b50 <_init+0x20>

0000000000400bb0 <_ZNSsC1ERKSs@plt>:
  400bb0:	ff 25 8a 14 20 00    	jmp    QWORD PTR [rip+0x20148a]        # 602040 <_GLOBAL_OFFSET_TABLE_+0x40>
  400bb6:	68 05 00 00 00       	push   0x5
  400bbb:	e9 90 ff ff ff       	jmp    400b50 <_init+0x20>

0000000000400bc0 <__cxa_atexit@plt>:
  400bc0:	ff 25 82 14 20 00    	jmp    QWORD PTR [rip+0x201482]        # 602048 <_GLOBAL_OFFSET_TABLE_+0x48>
  400bc6:	68 06 00 00 00       	push   0x6
  400bcb:	e9 80 ff ff ff       	jmp    400b50 <_init+0x20>

0000000000400bd0 <_ZNSt8ios_base4InitD1Ev@plt>:
  400bd0:	ff 25 7a 14 20 00    	jmp    QWORD PTR [rip+0x20147a]        # 602050 <_GLOBAL_OFFSET_TABLE_+0x50>
  400bd6:	68 07 00 00 00       	push   0x7
  400bdb:	e9 70 ff ff ff       	jmp    400b50 <_init+0x20>

0000000000400be0 <_ZStlsISt11char_traitsIcEERSt13basic_ostreamIcT_ES5_PKc@plt>:
  400be0:	ff 25 72 14 20 00    	jmp    QWORD PTR [rip+0x201472]        # 602058 <_GLOBAL_OFFSET_TABLE_+0x58>
  400be6:	68 08 00 00 00       	push   0x8
  400beb:	e9 60 ff ff ff       	jmp    400b50 <_init+0x20>

0000000000400bf0 <_ZStrsIcSt11char_traitsIcESaIcEERSt13basic_istreamIT_T0_ES7_RSbIS4_S5_T1_E@plt>:
  400bf0:	ff 25 6a 14 20 00    	jmp    QWORD PTR [rip+0x20146a]        # 602060 <_GLOBAL_OFFSET_TABLE_+0x60>
  400bf6:	68 09 00 00 00       	push   0x9
  400bfb:	e9 50 ff ff ff       	jmp    400b50 <_init+0x20>

0000000000400c00 <_ZNSsD1Ev@plt>:
  400c00:	ff 25 62 14 20 00    	jmp    QWORD PTR [rip+0x201462]        # 602068 <_GLOBAL_OFFSET_TABLE_+0x68>
  400c06:	68 0a 00 00 00       	push   0xa
  400c0b:	e9 40 ff ff ff       	jmp    400b50 <_init+0x20>

0000000000400c10 <_ZNSsC1EPKcRKSaIcE@plt>:
  400c10:	ff 25 5a 14 20 00    	jmp    QWORD PTR [rip+0x20145a]        # 602070 <_GLOBAL_OFFSET_TABLE_+0x70>
  400c16:	68 0b 00 00 00       	push   0xb
  400c1b:	e9 30 ff ff ff       	jmp    400b50 <_init+0x20>

0000000000400c20 <ptrace@plt>:
  400c20:	ff 25 52 14 20 00    	jmp    QWORD PTR [rip+0x201452]        # 602078 <_GLOBAL_OFFSET_TABLE_+0x78>
  400c26:	68 0c 00 00 00       	push   0xc
  400c2b:	e9 20 ff ff ff       	jmp    400b50 <_init+0x20>

0000000000400c30 <_ZNSsixEm@plt>:
  400c30:	ff 25 4a 14 20 00    	jmp    QWORD PTR [rip+0x20144a]        # 602080 <_GLOBAL_OFFSET_TABLE_+0x80>
  400c36:	68 0d 00 00 00       	push   0xd
  400c3b:	e9 10 ff ff ff       	jmp    400b50 <_init+0x20>

0000000000400c40 <_ZNKSs4dataEv@plt>:
  400c40:	ff 25 42 14 20 00    	jmp    QWORD PTR [rip+0x201442]        # 602088 <_GLOBAL_OFFSET_TABLE_+0x88>
  400c46:	68 0e 00 00 00       	push   0xe
  400c4b:	e9 00 ff ff ff       	jmp    400b50 <_init+0x20>

0000000000400c50 <_ZNSaIcED1Ev@plt>:
  400c50:	ff 25 3a 14 20 00    	jmp    QWORD PTR [rip+0x20143a]        # 602090 <_GLOBAL_OFFSET_TABLE_+0x90>
  400c56:	68 0f 00 00 00       	push   0xf
  400c5b:	e9 f0 fe ff ff       	jmp    400b50 <_init+0x20>

0000000000400c60 <memcmp@plt>:
  400c60:	ff 25 32 14 20 00    	jmp    QWORD PTR [rip+0x201432]        # 602098 <_GLOBAL_OFFSET_TABLE_+0x98>
  400c66:	68 10 00 00 00       	push   0x10
  400c6b:	e9 e0 fe ff ff       	jmp    400b50 <_init+0x20>

0000000000400c70 <_ZNSolsEPFRSoS_E@plt>:
  400c70:	ff 25 2a 14 20 00    	jmp    QWORD PTR [rip+0x20142a]        # 6020a0 <_GLOBAL_OFFSET_TABLE_+0xa0>
  400c76:	68 11 00 00 00       	push   0x11
  400c7b:	e9 d0 fe ff ff       	jmp    400b50 <_init+0x20>

0000000000400c80 <_ZSt4endlIcSt11char_traitsIcEERSt13basic_ostreamIT_T0_ES6_@plt>:
  400c80:	ff 25 22 14 20 00    	jmp    QWORD PTR [rip+0x201422]        # 6020a8 <_GLOBAL_OFFSET_TABLE_+0xa8>
  400c86:	68 12 00 00 00       	push   0x12
  400c8b:	e9 c0 fe ff ff       	jmp    400b50 <_init+0x20>

0000000000400c90 <_ZNSaIcEC1Ev@plt>:
  400c90:	ff 25 1a 14 20 00    	jmp    QWORD PTR [rip+0x20141a]        # 6020b0 <_GLOBAL_OFFSET_TABLE_+0xb0>
  400c96:	68 13 00 00 00       	push   0x13
  400c9b:	e9 b0 fe ff ff       	jmp    400b50 <_init+0x20>

0000000000400ca0 <__gxx_personality_v0@plt>:
  400ca0:	ff 25 12 14 20 00    	jmp    QWORD PTR [rip+0x201412]        # 6020b8 <_GLOBAL_OFFSET_TABLE_+0xb8>
  400ca6:	68 14 00 00 00       	push   0x14
  400cab:	e9 a0 fe ff ff       	jmp    400b50 <_init+0x20>

0000000000400cb0 <_Unwind_Resume@plt>:
  400cb0:	ff 25 0a 14 20 00    	jmp    QWORD PTR [rip+0x20140a]        # 6020c0 <_GLOBAL_OFFSET_TABLE_+0xc0>
  400cb6:	68 15 00 00 00       	push   0x15
  400cbb:	e9 90 fe ff ff       	jmp    400b50 <_init+0x20>

Disassembly of section .text:

0000000000400cc0 <_start>:
  400cc0:	31 ed                	xor    ebp,ebp
  400cc2:	49 89 d1             	mov    r9,rdx
  400cc5:	5e                   	pop    rsi
  400cc6:	48 89 e2             	mov    rdx,rsp
  400cc9:	48 83 e4 f0          	and    rsp,0xfffffffffffffff0
  400ccd:	50                   	push   rax
  400cce:	54                   	push   rsp
  400ccf:	49 c7 c0 c0 11 40 00 	mov    r8,0x4011c0
  400cd6:	48 c7 c1 50 11 40 00 	mov    rcx,0x401150
  400cdd:	48 c7 c7 be 0e 40 00 	mov    rdi,0x400ebe
  400ce4:	e8 b7 fe ff ff       	call   400ba0 <__libc_start_main@plt>
  400ce9:	f4                   	hlt    
  400cea:	66 0f 1f 44 00 00    	nop    WORD PTR [rax+rax*1+0x0]

0000000000400cf0 <deregister_tm_clones>:
  400cf0:	b8 df 20 60 00       	mov    eax,0x6020df
  400cf5:	55                   	push   rbp
  400cf6:	48 2d d8 20 60 00    	sub    rax,0x6020d8
  400cfc:	48 83 f8 0e          	cmp    rax,0xe
  400d00:	48 89 e5             	mov    rbp,rsp
  400d03:	77 02                	ja     400d07 <deregister_tm_clones+0x17>
  400d05:	5d                   	pop    rbp
  400d06:	c3                   	ret    
  400d07:	b8 00 00 00 00       	mov    eax,0x0
  400d0c:	48 85 c0             	test   rax,rax
  400d0f:	74 f4                	je     400d05 <deregister_tm_clones+0x15>
  400d11:	5d                   	pop    rbp
  400d12:	bf d8 20 60 00       	mov    edi,0x6020d8
  400d17:	ff e0                	jmp    rax
  400d19:	0f 1f 80 00 00 00 00 	nop    DWORD PTR [rax+0x0]

0000000000400d20 <register_tm_clones>:
  400d20:	b8 d8 20 60 00       	mov    eax,0x6020d8
  400d25:	55                   	push   rbp
  400d26:	48 2d d8 20 60 00    	sub    rax,0x6020d8
  400d2c:	48 c1 f8 03          	sar    rax,0x3
  400d30:	48 89 e5             	mov    rbp,rsp
  400d33:	48 89 c2             	mov    rdx,rax
  400d36:	48 c1 ea 3f          	shr    rdx,0x3f
  400d3a:	48 01 d0             	add    rax,rdx
  400d3d:	48 d1 f8             	sar    rax,1
  400d40:	75 02                	jne    400d44 <register_tm_clones+0x24>
  400d42:	5d                   	pop    rbp
  400d43:	c3                   	ret    
  400d44:	ba 00 00 00 00       	mov    edx,0x0
  400d49:	48 85 d2             	test   rdx,rdx
  400d4c:	74 f4                	je     400d42 <register_tm_clones+0x22>
  400d4e:	5d                   	pop    rbp
  400d4f:	48 89 c6             	mov    rsi,rax
  400d52:	bf d8 20 60 00       	mov    edi,0x6020d8
  400d57:	ff e2                	jmp    rdx
  400d59:	0f 1f 80 00 00 00 00 	nop    DWORD PTR [rax+0x0]

0000000000400d60 <__do_global_dtors_aux>:
  400d60:	80 3d a9 15 20 00 00 	cmp    BYTE PTR [rip+0x2015a9],0x0        # 602310 <completed.6973>
  400d67:	75 11                	jne    400d7a <__do_global_dtors_aux+0x1a>
  400d69:	55                   	push   rbp
  400d6a:	48 89 e5             	mov    rbp,rsp
  400d6d:	e8 7e ff ff ff       	call   400cf0 <deregister_tm_clones>
  400d72:	5d                   	pop    rbp
  400d73:	c6 05 96 15 20 00 01 	mov    BYTE PTR [rip+0x201596],0x1        # 602310 <completed.6973>
  400d7a:	f3 c3                	repz ret 
  400d7c:	0f 1f 40 00          	nop    DWORD PTR [rax+0x0]

0000000000400d80 <frame_dummy>:
  400d80:	48 83 3d 78 10 20 00 	cmp    QWORD PTR [rip+0x201078],0x0        # 601e00 <__JCR_END__>
  400d87:	00 
  400d88:	74 1e                	je     400da8 <frame_dummy+0x28>
  400d8a:	b8 00 00 00 00       	mov    eax,0x0
  400d8f:	48 85 c0             	test   rax,rax
  400d92:	74 14                	je     400da8 <frame_dummy+0x28>
  400d94:	55                   	push   rbp
  400d95:	bf 00 1e 60 00       	mov    edi,0x601e00
  400d9a:	48 89 e5             	mov    rbp,rsp
  400d9d:	ff d0                	call   rax
  400d9f:	5d                   	pop    rbp
  400da0:	e9 7b ff ff ff       	jmp    400d20 <register_tm_clones>
  400da5:	0f 1f 00             	nop    DWORD PTR [rax]
  400da8:	e9 73 ff ff ff       	jmp    400d20 <register_tm_clones>

0000000000400dad <_Z11stack_checkv>:
  400dad:	55                   	push   rbp
  400dae:	48 89 e5             	mov    rbp,rsp
  400db1:	53                   	push   rbx
  400db2:	48 83 ec 38          	sub    rsp,0x38
  400db6:	48 89 7d c8          	mov    QWORD PTR [rbp-0x38],rdi
  400dba:	48 8d 45 db          	lea    rax,[rbp-0x25]
  400dbe:	48 89 c7             	mov    rdi,rax
  400dc1:	e8 ca fe ff ff       	call   400c90 <_ZNSaIcEC1Ev@plt>
  400dc6:	48 8d 55 db          	lea    rdx,[rbp-0x25]
  400dca:	48 8d 45 e0          	lea    rax,[rbp-0x20]
  400dce:	be d8 11 40 00       	mov    esi,0x4011d8
  400dd3:	48 89 c7             	mov    rdi,rax
  400dd6:	e8 35 fe ff ff       	call   400c10 <_ZNSsC1EPKcRKSaIcE@plt>
  400ddb:	48 8d 45 db          	lea    rax,[rbp-0x25]
  400ddf:	48 89 c7             	mov    rdi,rax
  400de2:	e8 69 fe ff ff       	call   400c50 <_ZNSaIcED1Ev@plt>
  400de7:	c7 45 dc 00 00 00 00 	mov    DWORD PTR [rbp-0x24],0x0
  400dee:	eb 55                	jmp    400e45 <_Z11stack_checkv+0x98>
  400df0:	8b 45 dc             	mov    eax,DWORD PTR [rbp-0x24]
  400df3:	48 63 d8             	movsxd rbx,eax
  400df6:	48 8d 45 e0          	lea    rax,[rbp-0x20]
  400dfa:	48 89 c7             	mov    rdi,rax
  400dfd:	e8 7e fd ff ff       	call   400b80 <_ZNKSs4sizeEv@plt>
  400e02:	48 89 c1             	mov    rcx,rax
  400e05:	48 89 d8             	mov    rax,rbx
  400e08:	ba 00 00 00 00       	mov    edx,0x0
  400e0d:	48 f7 f1             	div    rcx
  400e10:	48 89 d1             	mov    rcx,rdx
  400e13:	48 89 ca             	mov    rdx,rcx
  400e16:	48 8d 45 e0          	lea    rax,[rbp-0x20]
  400e1a:	48 89 d6             	mov    rsi,rdx
  400e1d:	48 89 c7             	mov    rdi,rax
  400e20:	e8 0b fe ff ff       	call   400c30 <_ZNSsixEm@plt>
  400e25:	0f b6 18             	movzx  ebx,BYTE PTR [rax]
  400e28:	8b 45 dc             	mov    eax,DWORD PTR [rbp-0x24]
  400e2b:	48 98                	cdqe   
  400e2d:	48 89 c6             	mov    rsi,rax
  400e30:	bf 18 23 60 00       	mov    edi,0x602318
  400e35:	e8 f6 fd ff ff       	call   400c30 <_ZNSsixEm@plt>
  400e3a:	0f b6 10             	movzx  edx,BYTE PTR [rax]
  400e3d:	31 da                	xor    edx,ebx
  400e3f:	88 10                	mov    BYTE PTR [rax],dl
  400e41:	83 45 dc 01          	add    DWORD PTR [rbp-0x24],0x1
  400e45:	8b 45 dc             	mov    eax,DWORD PTR [rbp-0x24]
  400e48:	48 63 d8             	movsxd rbx,eax
  400e4b:	bf 18 23 60 00       	mov    edi,0x602318
  400e50:	e8 2b fd ff ff       	call   400b80 <_ZNKSs4sizeEv@plt>
  400e55:	48 39 c3             	cmp    rbx,rax
  400e58:	0f 92 c0             	setb   al
  400e5b:	84 c0                	test   al,al
  400e5d:	75 91                	jne    400df0 <_Z11stack_checkv+0x43>
  400e5f:	48 8b 45 c8          	mov    rax,QWORD PTR [rbp-0x38]
  400e63:	be 18 23 60 00       	mov    esi,0x602318
  400e68:	48 89 c7             	mov    rdi,rax
  400e6b:	e8 40 fd ff ff       	call   400bb0 <_ZNSsC1ERKSs@plt>
  400e70:	90                   	nop
  400e71:	48 8d 45 e0          	lea    rax,[rbp-0x20]
  400e75:	48 89 c7             	mov    rdi,rax
  400e78:	e8 83 fd ff ff       	call   400c00 <_ZNSsD1Ev@plt>
  400e7d:	eb 34                	jmp    400eb3 <_Z11stack_checkv+0x106>
  400e7f:	48 89 c3             	mov    rbx,rax
  400e82:	48 8d 45 db          	lea    rax,[rbp-0x25]
  400e86:	48 89 c7             	mov    rdi,rax
  400e89:	e8 c2 fd ff ff       	call   400c50 <_ZNSaIcED1Ev@plt>
  400e8e:	48 89 d8             	mov    rax,rbx
  400e91:	48 89 c7             	mov    rdi,rax
  400e94:	e8 17 fe ff ff       	call   400cb0 <_Unwind_Resume@plt>
  400e99:	48 89 c3             	mov    rbx,rax
  400e9c:	48 8d 45 e0          	lea    rax,[rbp-0x20]
  400ea0:	48 89 c7             	mov    rdi,rax
  400ea3:	e8 58 fd ff ff       	call   400c00 <_ZNSsD1Ev@plt>
  400ea8:	48 89 d8             	mov    rax,rbx
  400eab:	48 89 c7             	mov    rdi,rax
  400eae:	e8 fd fd ff ff       	call   400cb0 <_Unwind_Resume@plt>
  400eb3:	48 8b 45 c8          	mov    rax,QWORD PTR [rbp-0x38]
  400eb7:	48 83 c4 38          	add    rsp,0x38
  400ebb:	5b                   	pop    rbx
  400ebc:	5d                   	pop    rbp
  400ebd:	c3                   	ret    

0000000000400ebe <main>:
  400ebe:	55                   	push   rbp
  400ebf:	48 89 e5             	mov    rbp,rsp
  400ec2:	53                   	push   rbx
  400ec3:	48 83 ec 28          	sub    rsp,0x28
  400ec7:	b9 00 00 00 00       	mov    ecx,0x0
  400ecc:	ba 01 00 00 00       	mov    edx,0x1
  400ed1:	be 00 00 00 00       	mov    esi,0x0
  400ed6:	bf 00 00 00 00       	mov    edi,0x0
  400edb:	b8 00 00 00 00       	mov    eax,0x0
  400ee0:	e8 3b fd ff ff       	call   400c20 <ptrace@plt>
  400ee5:	48 c1 e8 3f          	shr    rax,0x3f
  400ee9:	84 c0                	test   al,al
  400eeb:	74 19                	je     400f06 <main+0x48>
  400eed:	be dc 11 40 00       	mov    esi,0x4011dc
  400ef2:	bf 00 22 60 00       	mov    edi,0x602200
  400ef7:	e8 e4 fc ff ff       	call   400be0 <_ZStlsISt11char_traitsIcEERSt13basic_ostreamIcT_ES5_PKc@plt>
  400efc:	bb 2a 00 00 00       	mov    ebx,0x2a
  400f01:	e9 a8 00 00 00       	jmp    400fae <main+0xf0>
  400f06:	48 8d 45 d0          	lea    rax,[rbp-0x30]
  400f0a:	48 89 c7             	mov    rdi,rax
  400f0d:	e8 4e fc ff ff       	call   400b60 <_ZNSsC1Ev@plt>
  400f12:	be f7 11 40 00       	mov    esi,0x4011f7
  400f17:	bf 00 22 60 00       	mov    edi,0x602200
  400f1c:	e8 bf fc ff ff       	call   400be0 <_ZStlsISt11char_traitsIcEERSt13basic_ostreamIcT_ES5_PKc@plt>
  400f21:	48 8d 45 d0          	lea    rax,[rbp-0x30] # Input around here
  400f25:	48 89 c6             	mov    rsi,rax
  400f28:	bf e0 20 60 00       	mov    edi,0x6020e0
  400f2d:	e8 be fc ff ff       	call   400bf0 <_ZStrsIcSt11char_traitsIcESaIcEERSt13basic_istreamIT_T0_ES7_RSbIS4_S5_T1_E@plt>
  400f32:	48 8d 45 e0          	lea    rax,[rbp-0x20]
  400f36:	48 89 c7             	mov    rdi,rax
  400f39:	e8 6f fe ff ff       	call   400dad <_Z11stack_checkv>
  400f3e:	48 8d 55 e0          	lea    rdx,[rbp-0x20]
  400f42:	48 8d 45 d0          	lea    rax,[rbp-0x30]
  400f46:	48 89 d6             	mov    rsi,rdx
  400f49:	48 89 c7             	mov    rdi,rax
  400f4c:	e8 7a 01 00 00       	call   4010cb <_ZSteqIcEN9__gnu_cxx11__enable_ifIXsrSt9__is_charIT_E7__valueEbE6__typeERKSbIS3_St11char_traitsIS3_ESaIS3_EESC_>
  400f51:	89 c3                	mov    ebx,eax
  400f53:	48 8d 45 e0          	lea    rax,[rbp-0x20]
  400f57:	48 89 c7             	mov    rdi,rax
  400f5a:	e8 a1 fc ff ff       	call   400c00 <_ZNSsD1Ev@plt>
  400f5f:	84 db                	test   bl,bl
  400f61:	74 1e                	je     400f81 <main+0xc3>
  400f63:	be 10 12 40 00       	mov    esi,0x401210
  400f68:	bf 00 22 60 00       	mov    edi,0x602200
  400f6d:	e8 6e fc ff ff       	call   400be0 <_ZStlsISt11char_traitsIcEERSt13basic_ostreamIcT_ES5_PKc@plt>
  400f72:	be 80 0c 40 00       	mov    esi,0x400c80
  400f77:	48 89 c7             	mov    rdi,rax
  400f7a:	e8 f1 fc ff ff       	call   400c70 <_ZNSolsEPFRSoS_E@plt>
  400f7f:	eb 1c                	jmp    400f9d <main+0xdf>
  400f81:	be 50 12 40 00       	mov    esi,0x401250
  400f86:	bf 00 22 60 00       	mov    edi,0x602200
  400f8b:	e8 50 fc ff ff       	call   400be0 <_ZStlsISt11char_traitsIcEERSt13basic_ostreamIcT_ES5_PKc@plt>
  400f90:	be 80 0c 40 00       	mov    esi,0x400c80
  400f95:	48 89 c7             	mov    rdi,rax
  400f98:	e8 d3 fc ff ff       	call   400c70 <_ZNSolsEPFRSoS_E@plt>
  400f9d:	bb 00 00 00 00       	mov    ebx,0x0
  400fa2:	48 8d 45 d0          	lea    rax,[rbp-0x30]
  400fa6:	48 89 c7             	mov    rdi,rax
  400fa9:	e8 52 fc ff ff       	call   400c00 <_ZNSsD1Ev@plt>
  400fae:	89 d8                	mov    eax,ebx
  400fb0:	eb 2b                	jmp    400fdd <main+0x11f>
  400fb2:	48 89 c3             	mov    rbx,rax
  400fb5:	48 8d 45 e0          	lea    rax,[rbp-0x20]
  400fb9:	48 89 c7             	mov    rdi,rax
  400fbc:	e8 3f fc ff ff       	call   400c00 <_ZNSsD1Ev@plt>
  400fc1:	eb 03                	jmp    400fc6 <main+0x108>
  400fc3:	48 89 c3             	mov    rbx,rax
  400fc6:	48 8d 45 d0          	lea    rax,[rbp-0x30]
  400fca:	48 89 c7             	mov    rdi,rax
  400fcd:	e8 2e fc ff ff       	call   400c00 <_ZNSsD1Ev@plt>
  400fd2:	48 89 d8             	mov    rax,rbx
  400fd5:	48 89 c7             	mov    rdi,rax
  400fd8:	e8 d3 fc ff ff       	call   400cb0 <_Unwind_Resume@plt>
  400fdd:	48 83 c4 28          	add    rsp,0x28
  400fe1:	5b                   	pop    rbx
  400fe2:	5d                   	pop    rbp
  400fe3:	c3                   	ret    

0000000000400fe4 <_Z41__static_initialization_and_destruction_0ii>:
  400fe4:	55                   	push   rbp
  400fe5:	48 89 e5             	mov    rbp,rsp
  400fe8:	53                   	push   rbx
  400fe9:	48 83 ec 28          	sub    rsp,0x28
  400fed:	89 7d dc             	mov    DWORD PTR [rbp-0x24],edi
  400ff0:	89 75 d8             	mov    DWORD PTR [rbp-0x28],esi
  400ff3:	83 7d dc 01          	cmp    DWORD PTR [rbp-0x24],0x1
  400ff7:	0f 85 85 00 00 00    	jne    401082 <_Z41__static_initialization_and_destruction_0ii+0x9e>
  400ffd:	81 7d d8 ff ff 00 00 	cmp    DWORD PTR [rbp-0x28],0xffff
  401004:	75 7c                	jne    401082 <_Z41__static_initialization_and_destruction_0ii+0x9e>
  401006:	bf 20 23 60 00       	mov    edi,0x602320
  40100b:	e8 80 fb ff ff       	call   400b90 <_ZNSt8ios_base4InitC1Ev@plt>
  401010:	ba d0 20 60 00       	mov    edx,0x6020d0
  401015:	be 20 23 60 00       	mov    esi,0x602320
  40101a:	bf d0 0b 40 00       	mov    edi,0x400bd0
  40101f:	e8 9c fb ff ff       	call   400bc0 <__cxa_atexit@plt>
  401024:	48 8d 45 ef          	lea    rax,[rbp-0x11]
  401028:	48 89 c7             	mov    rdi,rax
  40102b:	e8 60 fc ff ff       	call   400c90 <_ZNSaIcEC1Ev@plt>
  401030:	48 8d 45 ef          	lea    rax,[rbp-0x11]
  401034:	48 89 c2             	mov    rdx,rax
  401037:	be 78 12 40 00       	mov    esi,0x401278
  40103c:	bf 18 23 60 00       	mov    edi,0x602318
  401041:	e8 ca fb ff ff       	call   400c10 <_ZNSsC1EPKcRKSaIcE@plt>
  401046:	48 8d 45 ef          	lea    rax,[rbp-0x11]
  40104a:	48 89 c7             	mov    rdi,rax
  40104d:	e8 fe fb ff ff       	call   400c50 <_ZNSaIcED1Ev@plt>
  401052:	ba d0 20 60 00       	mov    edx,0x6020d0
  401057:	be 18 23 60 00       	mov    esi,0x602318
  40105c:	bf 00 0c 40 00       	mov    edi,0x400c00
  401061:	e8 5a fb ff ff       	call   400bc0 <__cxa_atexit@plt>
  401066:	eb 1a                	jmp    401082 <_Z41__static_initialization_and_destruction_0ii+0x9e>
  401068:	48 89 c3             	mov    rbx,rax
  40106b:	48 8d 45 ef          	lea    rax,[rbp-0x11]
  40106f:	48 89 c7             	mov    rdi,rax
  401072:	e8 d9 fb ff ff       	call   400c50 <_ZNSaIcED1Ev@plt>
  401077:	48 89 d8             	mov    rax,rbx
  40107a:	48 89 c7             	mov    rdi,rax
  40107d:	e8 2e fc ff ff       	call   400cb0 <_Unwind_Resume@plt>
  401082:	48 83 c4 28          	add    rsp,0x28
  401086:	5b                   	pop    rbx
  401087:	5d                   	pop    rbp
  401088:	c3                   	ret    

0000000000401089 <_GLOBAL__sub_I_base>:
  401089:	55                   	push   rbp
  40108a:	48 89 e5             	mov    rbp,rsp
  40108d:	be ff ff 00 00       	mov    esi,0xffff
  401092:	bf 01 00 00 00       	mov    edi,0x1
  401097:	e8 48 ff ff ff       	call   400fe4 <_Z41__static_initialization_and_destruction_0ii>
  40109c:	5d                   	pop    rbp
  40109d:	c3                   	ret    

000000000040109e <_ZNSt11char_traitsIcE7compareEPKcS2_m>:
  40109e:	55                   	push   rbp
  40109f:	48 89 e5             	mov    rbp,rsp
  4010a2:	48 83 ec 20          	sub    rsp,0x20
  4010a6:	48 89 7d f8          	mov    QWORD PTR [rbp-0x8],rdi
  4010aa:	48 89 75 f0          	mov    QWORD PTR [rbp-0x10],rsi
  4010ae:	48 89 55 e8          	mov    QWORD PTR [rbp-0x18],rdx
  4010b2:	48 8b 55 e8          	mov    rdx,QWORD PTR [rbp-0x18]
  4010b6:	48 8b 4d f0          	mov    rcx,QWORD PTR [rbp-0x10]
  4010ba:	48 8b 45 f8          	mov    rax,QWORD PTR [rbp-0x8]
  4010be:	48 89 ce             	mov    rsi,rcx
  4010c1:	48 89 c7             	mov    rdi,rax
  4010c4:	e8 97 fb ff ff       	call   400c60 <memcmp@plt>
  4010c9:	c9                   	leave  
  4010ca:	c3                   	ret    

00000000004010cb <_ZSteqIcEN9__gnu_cxx11__enable_ifIXsrSt9__is_charIT_E7__valueEbE6__typeERKSbIS3_St11char_traitsIS3_ESaIS3_EESC_>:
  4010cb:	55                   	push   rbp
  4010cc:	48 89 e5             	mov    rbp,rsp
  4010cf:	41 54                	push   r12
  4010d1:	53                   	push   rbx
  4010d2:	48 83 ec 10          	sub    rsp,0x10
  4010d6:	48 89 7d e8          	mov    QWORD PTR [rbp-0x18],rdi
  4010da:	48 89 75 e0          	mov    QWORD PTR [rbp-0x20],rsi
  4010de:	48 8b 45 e8          	mov    rax,QWORD PTR [rbp-0x18]
  4010e2:	48 89 c7             	mov    rdi,rax
  4010e5:	e8 96 fa ff ff       	call   400b80 <_ZNKSs4sizeEv@plt>
  4010ea:	48 89 c3             	mov    rbx,rax
  4010ed:	48 8b 45 e0          	mov    rax,QWORD PTR [rbp-0x20]
  4010f1:	48 89 c7             	mov    rdi,rax
  4010f4:	e8 87 fa ff ff       	call   400b80 <_ZNKSs4sizeEv@plt>
  4010f9:	48 39 c3             	cmp    rbx,rax
  4010fc:	75 43                	jne    401141 <_ZSteqIcEN9__gnu_cxx11__enable_ifIXsrSt9__is_charIT_E7__valueEbE6__typeERKSbIS3_St11char_traitsIS3_ESaIS3_EESC_+0x76>
  4010fe:	48 8b 45 e8          	mov    rax,QWORD PTR [rbp-0x18]
  401102:	48 89 c7             	mov    rdi,rax
  401105:	e8 76 fa ff ff       	call   400b80 <_ZNKSs4sizeEv@plt>
  40110a:	49 89 c4             	mov    r12,rax
  40110d:	48 8b 45 e0          	mov    rax,QWORD PTR [rbp-0x20]
  401111:	48 89 c7             	mov    rdi,rax
  401114:	e8 27 fb ff ff       	call   400c40 <_ZNKSs4dataEv@plt>
  401119:	48 89 c3             	mov    rbx,rax
  40111c:	48 8b 45 e8          	mov    rax,QWORD PTR [rbp-0x18]
  401120:	48 89 c7             	mov    rdi,rax
  401123:	e8 18 fb ff ff       	call   400c40 <_ZNKSs4dataEv@plt>
  401128:	4c 89 e2             	mov    rdx,r12
  40112b:	48 89 de             	mov    rsi,rbx
  40112e:	48 89 c7             	mov    rdi,rax
  401131:	e8 68 ff ff ff       	call   40109e <_ZNSt11char_traitsIcE7compareEPKcS2_m>
  401136:	85 c0                	test   eax,eax
  401138:	75 07                	jne    401141 <_ZSteqIcEN9__gnu_cxx11__enable_ifIXsrSt9__is_charIT_E7__valueEbE6__typeERKSbIS3_St11char_traitsIS3_ESaIS3_EESC_+0x76>
  40113a:	b8 01 00 00 00       	mov    eax,0x1
  40113f:	eb 05                	jmp    401146 <_ZSteqIcEN9__gnu_cxx11__enable_ifIXsrSt9__is_charIT_E7__valueEbE6__typeERKSbIS3_St11char_traitsIS3_ESaIS3_EESC_+0x7b>
  401141:	b8 00 00 00 00       	mov    eax,0x0
  401146:	48 83 c4 10          	add    rsp,0x10
  40114a:	5b                   	pop    rbx
  40114b:	41 5c                	pop    r12
  40114d:	5d                   	pop    rbp
  40114e:	c3                   	ret    
  40114f:	90                   	nop

0000000000401150 <__libc_csu_init>:
  401150:	41 57                	push   r15
  401152:	41 89 ff             	mov    r15d,edi
  401155:	41 56                	push   r14
  401157:	49 89 f6             	mov    r14,rsi
  40115a:	41 55                	push   r13
  40115c:	49 89 d5             	mov    r13,rdx
  40115f:	41 54                	push   r12
  401161:	4c 8d 25 80 0c 20 00 	lea    r12,[rip+0x200c80]        # 601de8 <__frame_dummy_init_array_entry>
  401168:	55                   	push   rbp
  401169:	48 8d 2d 88 0c 20 00 	lea    rbp,[rip+0x200c88]        # 601df8 <__init_array_end>
  401170:	53                   	push   rbx
  401171:	4c 29 e5             	sub    rbp,r12
  401174:	31 db                	xor    ebx,ebx
  401176:	48 c1 fd 03          	sar    rbp,0x3
  40117a:	48 83 ec 08          	sub    rsp,0x8
  40117e:	e8 ad f9 ff ff       	call   400b30 <_init>
  401183:	48 85 ed             	test   rbp,rbp
  401186:	74 1e                	je     4011a6 <__libc_csu_init+0x56>
  401188:	0f 1f 84 00 00 00 00 	nop    DWORD PTR [rax+rax*1+0x0]
  40118f:	00 
  401190:	4c 89 ea             	mov    rdx,r13
  401193:	4c 89 f6             	mov    rsi,r14
  401196:	44 89 ff             	mov    edi,r15d
  401199:	41 ff 14 dc          	call   QWORD PTR [r12+rbx*8]
  40119d:	48 83 c3 01          	add    rbx,0x1
  4011a1:	48 39 eb             	cmp    rbx,rbp
  4011a4:	75 ea                	jne    401190 <__libc_csu_init+0x40>
  4011a6:	48 83 c4 08          	add    rsp,0x8
  4011aa:	5b                   	pop    rbx
  4011ab:	5d                   	pop    rbp
  4011ac:	41 5c                	pop    r12
  4011ae:	41 5d                	pop    r13
  4011b0:	41 5e                	pop    r14
  4011b2:	41 5f                	pop    r15
  4011b4:	c3                   	ret    
  4011b5:	66 66 2e 0f 1f 84 00 	data16 nop WORD PTR cs:[rax+rax*1+0x0]
  4011bc:	00 00 00 00 

00000000004011c0 <__libc_csu_fini>:
  4011c0:	f3 c3                	repz ret 

Disassembly of section .fini:

00000000004011c4 <_fini>:
  4011c4:	48 83 ec 08          	sub    rsp,0x8
  4011c8:	48 83 c4 08          	add    rsp,0x8
  4011cc:	c3                   	ret    
