
./flip:     file format elf64-x86-64


Disassembly of section .init:

0000000000400698 <_init>:
  400698:	48 83 ec 08          	sub    rsp,0x8
  40069c:	48 8b 05 55 09 20 00 	mov    rax,QWORD PTR [rip+0x200955]        # 600ff8 <_DYNAMIC+0x1d8>
  4006a3:	48 85 c0             	test   rax,rax
  4006a6:	74 02                	je     4006aa <_init+0x12>
  4006a8:	ff d0                	call   rax
  4006aa:	48 83 c4 08          	add    rsp,0x8
  4006ae:	c3                   	ret    

Disassembly of section .plt:

00000000004006b0 <localtime@plt-0x10>:
  4006b0:	ff 35 52 09 20 00    	push   QWORD PTR [rip+0x200952]        # 601008 <_GLOBAL_OFFSET_TABLE_+0x8>
  4006b6:	ff 25 54 09 20 00    	jmp    QWORD PTR [rip+0x200954]        # 601010 <_GLOBAL_OFFSET_TABLE_+0x10>
  4006bc:	0f 1f 40 00          	nop    DWORD PTR [rax+0x0]

00000000004006c0 <localtime@plt>:
  4006c0:	ff 25 52 09 20 00    	jmp    QWORD PTR [rip+0x200952]        # 601018 <_GLOBAL_OFFSET_TABLE_+0x18>
  4006c6:	68 00 00 00 00       	push   0x0
  4006cb:	e9 e0 ff ff ff       	jmp    4006b0 <_init+0x18>

00000000004006d0 <__isoc99_fscanf@plt>:
  4006d0:	ff 25 4a 09 20 00    	jmp    QWORD PTR [rip+0x20094a]        # 601020 <_GLOBAL_OFFSET_TABLE_+0x20>
  4006d6:	68 01 00 00 00       	push   0x1
  4006db:	e9 d0 ff ff ff       	jmp    4006b0 <_init+0x18>

00000000004006e0 <puts@plt>:
  4006e0:	ff 25 42 09 20 00    	jmp    QWORD PTR [rip+0x200942]        # 601028 <_GLOBAL_OFFSET_TABLE_+0x28>
  4006e6:	68 02 00 00 00       	push   0x2
  4006eb:	e9 c0 ff ff ff       	jmp    4006b0 <_init+0x18>

00000000004006f0 <__stack_chk_fail@plt>:
  4006f0:	ff 25 3a 09 20 00    	jmp    QWORD PTR [rip+0x20093a]        # 601030 <_GLOBAL_OFFSET_TABLE_+0x30>
  4006f6:	68 03 00 00 00       	push   0x3
  4006fb:	e9 b0 ff ff ff       	jmp    4006b0 <_init+0x18>

0000000000400700 <asctime@plt>:
  400700:	ff 25 32 09 20 00    	jmp    QWORD PTR [rip+0x200932]        # 601038 <_GLOBAL_OFFSET_TABLE_+0x38>
  400706:	68 04 00 00 00       	push   0x4
  40070b:	e9 a0 ff ff ff       	jmp    4006b0 <_init+0x18>

0000000000400710 <printf@plt>:
  400710:	ff 25 2a 09 20 00    	jmp    QWORD PTR [rip+0x20092a]        # 601040 <_GLOBAL_OFFSET_TABLE_+0x40>
  400716:	68 05 00 00 00       	push   0x5
  40071b:	e9 90 ff ff ff       	jmp    4006b0 <_init+0x18>

0000000000400720 <snprintf@plt>:
  400720:	ff 25 22 09 20 00    	jmp    QWORD PTR [rip+0x200922]        # 601048 <_GLOBAL_OFFSET_TABLE_+0x48>
  400726:	68 06 00 00 00       	push   0x6
  40072b:	e9 80 ff ff ff       	jmp    4006b0 <_init+0x18>

0000000000400730 <alarm@plt>:
  400730:	ff 25 1a 09 20 00    	jmp    QWORD PTR [rip+0x20091a]        # 601050 <_GLOBAL_OFFSET_TABLE_+0x50>
  400736:	68 07 00 00 00       	push   0x7
  40073b:	e9 70 ff ff ff       	jmp    4006b0 <_init+0x18>

0000000000400740 <time@plt>:
  400740:	ff 25 12 09 20 00    	jmp    QWORD PTR [rip+0x200912]        # 601058 <_GLOBAL_OFFSET_TABLE_+0x58>
  400746:	68 08 00 00 00       	push   0x8
  40074b:	e9 60 ff ff ff       	jmp    4006b0 <_init+0x18>

0000000000400750 <setvbuf@plt>:
  400750:	ff 25 0a 09 20 00    	jmp    QWORD PTR [rip+0x20090a]        # 601060 <_GLOBAL_OFFSET_TABLE_+0x60>
  400756:	68 09 00 00 00       	push   0x9
  40075b:	e9 50 ff ff ff       	jmp    4006b0 <_init+0x18>

0000000000400760 <exit@plt>:
  400760:	ff 25 02 09 20 00    	jmp    QWORD PTR [rip+0x200902]        # 601068 <_GLOBAL_OFFSET_TABLE_+0x68>
  400766:	68 0a 00 00 00       	push   0xa
  40076b:	e9 40 ff ff ff       	jmp    4006b0 <_init+0x18>

Disassembly of section .text:

0000000000400770 <_start>:
  400770:	31 ed                	xor    ebp,ebp
  400772:	49 89 d1             	mov    r9,rdx
  400775:	5e                   	pop    rsi
  400776:	48 89 e2             	mov    rdx,rsp
  400779:	48 83 e4 f0          	and    rsp,0xfffffffffffffff0
  40077d:	50                   	push   rax
  40077e:	54                   	push   rsp
  40077f:	49 c7 c0 e0 0a 40 00 	mov    r8,0x400ae0
  400786:	48 c7 c1 70 0a 40 00 	mov    rcx,0x400a70
  40078d:	48 c7 c7 40 09 40 00 	mov    rdi,0x400940
  400794:	ff 15 56 08 20 00    	call   QWORD PTR [rip+0x200856]        # 600ff0 <_DYNAMIC+0x1d0>
  40079a:	f4                   	hlt    
  40079b:	0f 1f 44 00 00       	nop    DWORD PTR [rax+rax*1+0x0]

00000000004007a0 <_dl_relocate_static_pie>:
  4007a0:	f3 c3                	repz ret 
  4007a2:	66 2e 0f 1f 84 00 00 	nop    WORD PTR cs:[rax+rax*1+0x0]
  4007a9:	00 00 00 
  4007ac:	0f 1f 40 00          	nop    DWORD PTR [rax+0x0]

00000000004007b0 <deregister_tm_clones>:
  4007b0:	55                   	push   rbp
  4007b1:	b8 88 10 60 00       	mov    eax,0x601088
  4007b6:	48 3d 88 10 60 00    	cmp    rax,0x601088
  4007bc:	48 89 e5             	mov    rbp,rsp
  4007bf:	74 17                	je     4007d8 <deregister_tm_clones+0x28>
  4007c1:	b8 00 00 00 00       	mov    eax,0x0
  4007c6:	48 85 c0             	test   rax,rax
  4007c9:	74 0d                	je     4007d8 <deregister_tm_clones+0x28>
  4007cb:	5d                   	pop    rbp
  4007cc:	bf 88 10 60 00       	mov    edi,0x601088
  4007d1:	ff e0                	jmp    rax
  4007d3:	0f 1f 44 00 00       	nop    DWORD PTR [rax+rax*1+0x0]
  4007d8:	5d                   	pop    rbp
  4007d9:	c3                   	ret    
  4007da:	66 0f 1f 44 00 00    	nop    WORD PTR [rax+rax*1+0x0]

00000000004007e0 <register_tm_clones>:
  4007e0:	be 88 10 60 00       	mov    esi,0x601088
  4007e5:	55                   	push   rbp
  4007e6:	48 81 ee 88 10 60 00 	sub    rsi,0x601088
  4007ed:	48 89 e5             	mov    rbp,rsp
  4007f0:	48 c1 fe 03          	sar    rsi,0x3
  4007f4:	48 89 f0             	mov    rax,rsi
  4007f7:	48 c1 e8 3f          	shr    rax,0x3f
  4007fb:	48 01 c6             	add    rsi,rax
  4007fe:	48 d1 fe             	sar    rsi,1
  400801:	74 15                	je     400818 <register_tm_clones+0x38>
  400803:	b8 00 00 00 00       	mov    eax,0x0
  400808:	48 85 c0             	test   rax,rax
  40080b:	74 0b                	je     400818 <register_tm_clones+0x38>
  40080d:	5d                   	pop    rbp
  40080e:	bf 88 10 60 00       	mov    edi,0x601088
  400813:	ff e0                	jmp    rax
  400815:	0f 1f 00             	nop    DWORD PTR [rax]
  400818:	5d                   	pop    rbp
  400819:	c3                   	ret    
  40081a:	66 0f 1f 44 00 00    	nop    WORD PTR [rax+rax*1+0x0]

0000000000400820 <__do_global_dtors_aux>:
  400820:	80 3d 81 08 20 00 00 	cmp    BYTE PTR [rip+0x200881],0x0        # 6010a8 <completed.7696>
  400827:	75 17                	jne    400840 <__do_global_dtors_aux+0x20>
  400829:	55                   	push   rbp
  40082a:	48 89 e5             	mov    rbp,rsp
  40082d:	e8 7e ff ff ff       	call   4007b0 <deregister_tm_clones>
  400832:	c6 05 6f 08 20 00 01 	mov    BYTE PTR [rip+0x20086f],0x1        # 6010a8 <completed.7696>
  400839:	5d                   	pop    rbp
  40083a:	c3                   	ret    
  40083b:	0f 1f 44 00 00       	nop    DWORD PTR [rax+rax*1+0x0]
  400840:	f3 c3                	repz ret 
  400842:	0f 1f 40 00          	nop    DWORD PTR [rax+0x0]
  400846:	66 2e 0f 1f 84 00 00 	nop    WORD PTR cs:[rax+rax*1+0x0]
  40084d:	00 00 00 

0000000000400850 <frame_dummy>:
  400850:	55                   	push   rbp
  400851:	48 89 e5             	mov    rbp,rsp
  400854:	5d                   	pop    rbp
  400855:	eb 89                	jmp    4007e0 <register_tm_clones>
  400857:	66 0f 1f 84 00 00 00 	nop    WORD PTR [rax+rax*1+0x0]
  40085e:	00 00 

0000000000400860 <initialize>:
  400860:	55                   	push   rbp
  400861:	48 89 e5             	mov    rbp,rsp
  400864:	48 83 ec 50          	sub    rsp,0x50
  400868:	64 48 8b 04 25 28 00 	mov    rax,QWORD PTR fs:0x28
  40086f:	00 00 
  400871:	48 89 45 f8          	mov    QWORD PTR [rbp-0x8],rax
  400875:	48 8b 3d 14 08 20 00 	mov    rdi,QWORD PTR [rip+0x200814]        # 601090 <stdout@@GLIBC_2.2.5>
  40087c:	31 c9                	xor    ecx,ecx
  40087e:	89 c8                	mov    eax,ecx
  400880:	ba 02 00 00 00       	mov    edx,0x2
  400885:	48 89 c6             	mov    rsi,rax
  400888:	89 55 e4             	mov    DWORD PTR [rbp-0x1c],edx
  40088b:	89 4d e0             	mov    DWORD PTR [rbp-0x20],ecx
  40088e:	48 89 c1             	mov    rcx,rax
  400891:	48 89 45 d8          	mov    QWORD PTR [rbp-0x28],rax
  400895:	e8 b6 fe ff ff       	call   400750 <setvbuf@plt>
  40089a:	48 8b 3d ff 07 20 00 	mov    rdi,QWORD PTR [rip+0x2007ff]        # 6010a0 <stdin@@GLIBC_2.2.5>
  4008a1:	48 8b 75 d8          	mov    rsi,QWORD PTR [rbp-0x28]
  4008a5:	8b 55 e4             	mov    edx,DWORD PTR [rbp-0x1c]
  4008a8:	48 8b 4d d8          	mov    rcx,QWORD PTR [rbp-0x28]
  4008ac:	89 45 d4             	mov    DWORD PTR [rbp-0x2c],eax
  4008af:	e8 9c fe ff ff       	call   400750 <setvbuf@plt>
  4008b4:	bf 28 00 00 00       	mov    edi,0x28
  4008b9:	89 45 d0             	mov    DWORD PTR [rbp-0x30],eax
  4008bc:	e8 6f fe ff ff       	call   400730 <alarm@plt>
  4008c1:	48 8b 7d d8          	mov    rdi,QWORD PTR [rbp-0x28]
  4008c5:	89 45 cc             	mov    DWORD PTR [rbp-0x34],eax
  4008c8:	e8 73 fe ff ff       	call   400740 <time@plt>
  4008cd:	48 89 45 f0          	mov    QWORD PTR [rbp-0x10],rax
  4008d1:	48 8d 7d f0          	lea    rdi,[rbp-0x10]
  4008d5:	e8 e6 fd ff ff       	call   4006c0 <localtime@plt>
  4008da:	48 89 45 e8          	mov    QWORD PTR [rbp-0x18],rax
  4008de:	48 8b 15 9b 07 20 00 	mov    rdx,QWORD PTR [rip+0x20079b]        # 601080 <welcome_str>
  4008e5:	48 8b 7d e8          	mov    rdi,QWORD PTR [rbp-0x18]
  4008e9:	48 89 55 c0          	mov    QWORD PTR [rbp-0x40],rdx
  4008ed:	e8 0e fe ff ff       	call   400700 <asctime@plt>
  4008f2:	41 b8 b0 10 60 00    	mov    r8d,0x6010b0
  4008f8:	44 89 c7             	mov    edi,r8d
  4008fb:	41 b8 7f 00 00 00    	mov    r8d,0x7f
  400901:	44 89 c6             	mov    esi,r8d
  400904:	44 8b 45 e0          	mov    r8d,DWORD PTR [rbp-0x20]
  400908:	45 88 c1             	mov    r9b,r8b
  40090b:	48 8b 55 c0          	mov    rdx,QWORD PTR [rbp-0x40]
  40090f:	48 89 c1             	mov    rcx,rax
  400912:	44 88 c8             	mov    al,r9b
  400915:	e8 06 fe ff ff       	call   400720 <snprintf@plt>
  40091a:	64 48 8b 0c 25 28 00 	mov    rcx,QWORD PTR fs:0x28
  400921:	00 00 
  400923:	48 8b 55 f8          	mov    rdx,QWORD PTR [rbp-0x8]
  400927:	48 39 d1             	cmp    rcx,rdx
  40092a:	89 45 bc             	mov    DWORD PTR [rbp-0x44],eax
  40092d:	0f 85 06 00 00 00    	jne    400939 <initialize+0xd9>
  400933:	48 83 c4 50          	add    rsp,0x50
  400937:	5d                   	pop    rbp
  400938:	c3                   	ret    
  400939:	e8 b2 fd ff ff       	call   4006f0 <__stack_chk_fail@plt>
  40093e:	66 90                	xchg   ax,ax

0000000000400940 <main>:
  400940:	55                   	push   rbp
  400941:	48 89 e5             	mov    rbp,rsp
  400944:	48 83 ec 20          	sub    rsp,0x20
  400948:	48 bf b0 10 60 00 00 	movabs rdi,0x6010b0
  40094f:	00 00 00 
  400952:	c7 45 fc 00 00 00 00 	mov    DWORD PTR [rbp-0x4],0x0
  400959:	e8 82 fd ff ff       	call   4006e0 <puts@plt>
  40095e:	48 bf f4 0a 40 00 00 	movabs rdi,0x400af4
  400965:	00 00 00 
  400968:	89 45 f4             	mov    DWORD PTR [rbp-0xc],eax
  40096b:	b0 00                	mov    al,0x0
  40096d:	e8 9e fd ff ff       	call   400710 <printf@plt>
  400972:	c7 45 f8 00 00 00 00 	mov    DWORD PTR [rbp-0x8],0x0
  400979:	89 45 f0             	mov    DWORD PTR [rbp-0x10],eax
  40097c:	83 7d f8 05          	cmp    DWORD PTR [rbp-0x8],0x5
  400980:	0f 8d 13 00 00 00    	jge    400999 <main+0x59>
  400986:	e8 35 00 00 00       	call   4009c0 <do_flip>
  40098b:	8b 45 f8             	mov    eax,DWORD PTR [rbp-0x8]
  40098e:	83 c0 01             	add    eax,0x1
  400991:	89 45 f8             	mov    DWORD PTR [rbp-0x8],eax
  400994:	e9 e3 ff ff ff       	jmp    40097c <main+0x3c>
  400999:	48 bf 1e 0b 40 00 00 	movabs rdi,0x400b1e
  4009a0:	00 00 00 
  4009a3:	b0 00                	mov    al,0x0
  4009a5:	e8 66 fd ff ff       	call   400710 <printf@plt>
  4009aa:	31 ff                	xor    edi,edi
  4009ac:	89 45 ec             	mov    DWORD PTR [rbp-0x14],eax
  4009af:	e8 ac fd ff ff       	call   400760 <exit@plt>
  4009b4:	66 66 66 2e 0f 1f 84 	data16 data16 nop WORD PTR cs:[rax+rax*1+0x0]
  4009bb:	00 00 00 00 00 

00000000004009c0 <do_flip>:
  4009c0:	55                   	push   rbp
  4009c1:	48 89 e5             	mov    rbp,rsp
  4009c4:	48 83 ec 20          	sub    rsp,0x20
  4009c8:	48 bf 71 0b 40 00 00 	movabs rdi,0x400b71
  4009cf:	00 00 00 
  4009d2:	64 48 8b 04 25 28 00 	mov    rax,QWORD PTR fs:0x28
  4009d9:	00 00 
  4009db:	48 89 45 f8          	mov    QWORD PTR [rbp-0x8],rax
  4009df:	b0 00                	mov    al,0x0
  4009e1:	e8 2a fd ff ff       	call   400710 <printf@plt>
  4009e6:	48 be 8a 0b 40 00 00 	movabs rsi,0x400b8a
  4009ed:	00 00 00 
  4009f0:	48 8d 55 f0          	lea    rdx,[rbp-0x10]
  4009f4:	48 8d 4d ec          	lea    rcx,[rbp-0x14]
  4009f8:	48 8b 3c 25 a0 10 60 	mov    rdi,QWORD PTR ds:0x6010a0
  4009ff:	00 
  400a00:	89 45 e4             	mov    DWORD PTR [rbp-0x1c],eax
  400a03:	b0 00                	mov    al,0x0
  400a05:	e8 c6 fc ff ff       	call   4006d0 <__isoc99_fscanf@plt>
  400a0a:	83 7d ec 07          	cmp    DWORD PTR [rbp-0x14],0x7
  400a0e:	89 45 e0             	mov    DWORD PTR [rbp-0x20],eax
  400a11:	0f 86 0a 00 00 00    	jbe    400a21 <do_flip+0x61>
  400a17:	bf 01 00 00 00       	mov    edi,0x1
  400a1c:	e8 3f fd ff ff       	call   400760 <exit@plt>
  400a21:	48 8b 45 f0          	mov    rax,QWORD PTR [rbp-0x10]
  400a25:	8a 08                	mov    cl,BYTE PTR [rax]
  400a27:	88 4d eb             	mov    BYTE PTR [rbp-0x15],cl
  400a2a:	8a 4d ec             	mov    cl,BYTE PTR [rbp-0x14]
  400a2d:	ba 01 00 00 00       	mov    edx,0x1
  400a32:	d3 e2                	shl    edx,cl
  400a34:	0f b6 75 eb          	movzx  esi,BYTE PTR [rbp-0x15]
  400a38:	31 d6                	xor    esi,edx
  400a3a:	40 88 f1             	mov    cl,sil
  400a3d:	88 4d eb             	mov    BYTE PTR [rbp-0x15],cl
  400a40:	8a 4d eb             	mov    cl,BYTE PTR [rbp-0x15]
  400a43:	48 8b 45 f0          	mov    rax,QWORD PTR [rbp-0x10]
  400a47:	88 08                	mov    BYTE PTR [rax],cl
  400a49:	64 48 8b 04 25 28 00 	mov    rax,QWORD PTR fs:0x28
  400a50:	00 00 
  400a52:	48 8b 7d f8          	mov    rdi,QWORD PTR [rbp-0x8]
  400a56:	48 39 f8             	cmp    rax,rdi
  400a59:	0f 85 06 00 00 00    	jne    400a65 <do_flip+0xa5>
  400a5f:	48 83 c4 20          	add    rsp,0x20
  400a63:	5d                   	pop    rbp
  400a64:	c3                   	ret    
  400a65:	e8 86 fc ff ff       	call   4006f0 <__stack_chk_fail@plt>
  400a6a:	66 0f 1f 44 00 00    	nop    WORD PTR [rax+rax*1+0x0]

0000000000400a70 <__libc_csu_init>:
  400a70:	41 57                	push   r15
  400a72:	41 56                	push   r14
  400a74:	49 89 d7             	mov    r15,rdx
  400a77:	41 55                	push   r13
  400a79:	41 54                	push   r12
  400a7b:	4c 8d 25 86 03 20 00 	lea    r12,[rip+0x200386]        # 600e08 <__frame_dummy_init_array_entry>
  400a82:	55                   	push   rbp
  400a83:	48 8d 2d 8e 03 20 00 	lea    rbp,[rip+0x20038e]        # 600e18 <__init_array_end>
  400a8a:	53                   	push   rbx
  400a8b:	41 89 fd             	mov    r13d,edi
  400a8e:	49 89 f6             	mov    r14,rsi
  400a91:	4c 29 e5             	sub    rbp,r12
  400a94:	48 83 ec 08          	sub    rsp,0x8
  400a98:	48 c1 fd 03          	sar    rbp,0x3
  400a9c:	e8 f7 fb ff ff       	call   400698 <_init>
  400aa1:	48 85 ed             	test   rbp,rbp
  400aa4:	74 20                	je     400ac6 <__libc_csu_init+0x56>
  400aa6:	31 db                	xor    ebx,ebx
  400aa8:	0f 1f 84 00 00 00 00 	nop    DWORD PTR [rax+rax*1+0x0]
  400aaf:	00 
  400ab0:	4c 89 fa             	mov    rdx,r15
  400ab3:	4c 89 f6             	mov    rsi,r14
  400ab6:	44 89 ef             	mov    edi,r13d
  400ab9:	41 ff 14 dc          	call   QWORD PTR [r12+rbx*8]
  400abd:	48 83 c3 01          	add    rbx,0x1
  400ac1:	48 39 dd             	cmp    rbp,rbx
  400ac4:	75 ea                	jne    400ab0 <__libc_csu_init+0x40>
  400ac6:	48 83 c4 08          	add    rsp,0x8
  400aca:	5b                   	pop    rbx
  400acb:	5d                   	pop    rbp
  400acc:	41 5c                	pop    r12
  400ace:	41 5d                	pop    r13
  400ad0:	41 5e                	pop    r14
  400ad2:	41 5f                	pop    r15
  400ad4:	c3                   	ret    
  400ad5:	90                   	nop
  400ad6:	66 2e 0f 1f 84 00 00 	nop    WORD PTR cs:[rax+rax*1+0x0]
  400add:	00 00 00 

0000000000400ae0 <__libc_csu_fini>:
  400ae0:	f3 c3                	repz ret 

Disassembly of section .fini:

0000000000400ae4 <_fini>:
  400ae4:	48 83 ec 08          	sub    rsp,0x8
  400ae8:	48 83 c4 08          	add    rsp,0x8
  400aec:	c3                   	ret    
