	.file	"arm-elf.c"
@ GNU C (GCC) version 4.7.2 (arm-elf)
@	compiled by GNU C version 4.2.1 20070719  [FreeBSD], GMP version 5.1.1, MPFR version 3.1.2, MPC version 1.0.1
@ GGC heuristics: --param ggc-min-expand=100 --param ggc-min-heapsize=131072
@ options passed:  -D__USES_INITFINI__ -D ___FreeBSD___ -D ARCH="arm-elf"
@ -D USE_UNDERLINE_WRAPPER arm-elf.c -auxbase-strip arm-elf.s -g -O -Wall
@ -fno-builtin -fverbose-asm -fomit-frame-pointer
@ options enabled:  -fauto-inc-dec -fbranch-count-reg
@ -fcombine-stack-adjustments -fcommon -fcompare-elim -fcprop-registers
@ -fdebug-types-section -fdefer-pop -fdelete-null-pointer-checks
@ -fdwarf2-cfi-asm -fearly-inlining -feliminate-unused-debug-types
@ -fforward-propagate -ffunction-cse -fgcse-lm -fgnu-runtime
@ -fguess-branch-probability -fident -fif-conversion -fif-conversion2
@ -finline -finline-atomics -finline-functions-called-once -fipa-profile
@ -fipa-pure-const -fipa-reference -fira-share-save-slots
@ -fira-share-spill-slots -fivopts -fkeep-static-consts
@ -fleading-underscore -fmath-errno -fmerge-constants -fmerge-debug-strings
@ -fmove-loop-invariants -fomit-frame-pointer -fpeephole
@ -fprefetch-loop-arrays -freg-struct-return
@ -fsched-critical-path-heuristic -fsched-dep-count-heuristic
@ -fsched-group-heuristic -fsched-interblock -fsched-last-insn-heuristic
@ -fsched-rank-heuristic -fsched-spec -fsched-spec-insn-heuristic
@ -fsched-stalled-insns-dep -fsection-anchors -fshow-column -fshrink-wrap
@ -fsigned-zeros -fsplit-ivs-in-unroller -fsplit-wide-types
@ -fstrict-volatile-bitfields -ftoplevel-reorder -ftrapping-math
@ -ftree-bit-ccp -ftree-ccp -ftree-ch -ftree-copy-prop -ftree-copyrename
@ -ftree-cselim -ftree-dce -ftree-dominator-opts -ftree-dse -ftree-forwprop
@ -ftree-fre -ftree-loop-if-convert -ftree-loop-im -ftree-loop-ivcanon
@ -ftree-loop-optimize -ftree-parallelize-loops= -ftree-phiprop -ftree-pta
@ -ftree-reassoc -ftree-scev-cprop -ftree-sink -ftree-slp-vectorize
@ -ftree-sra -ftree-ter -ftree-vect-loop-version -funit-at-a-time
@ -fvar-tracking -fvar-tracking-assignments -fverbose-asm
@ -fzero-initialized-in-bss -marm -mlittle-endian -msched-prolog
@ -mvectorize-with-neon-quad

	.text
.Ltext0:
	.cfi_sections	.debug_frame
	.align	2
	.global	_exit
	.type	_exit, %function
_exit:
.LFB0:
	.file 1 "arm-elf.c"
	.loc 1 39 0
	.cfi_startproc
	@ Volatile: function does not return.
	@ args = 0, pretend = 0, frame = 0
	@ frame_needed = 0, uses_anonymous_args = 0
.LVL0:
	str	lr, [sp, #-4]!	@,
.LCFI0:
	.cfi_def_cfa_offset 4
	.cfi_offset 14, -4
	.loc 1 40 0
	bl	__exit	@
.LVL1:
	.cfi_endproc
.LFE0:
	.size	_exit, .-_exit
	.align	2
	.global	read
	.type	read, %function
read:
.LFB1:
	.loc 1 44 0
	.cfi_startproc
	@ args = 0, pretend = 0, frame = 0
	@ frame_needed = 0, uses_anonymous_args = 0
.LVL2:
	str	lr, [sp, #-4]!	@,
.LCFI1:
	.cfi_def_cfa_offset 4
	.cfi_offset 14, -4
	.loc 1 45 0
	bl	__read	@
.LVL3:
	.loc 1 46 0
	ldr	pc, [sp], #4	@
	.cfi_endproc
.LFE1:
	.size	read, .-read
	.align	2
	.global	write
	.type	write, %function
write:
.LFB2:
	.loc 1 48 0
	.cfi_startproc
	@ args = 0, pretend = 0, frame = 0
	@ frame_needed = 0, uses_anonymous_args = 0
.LVL4:
	str	lr, [sp, #-4]!	@,
.LCFI2:
	.cfi_def_cfa_offset 4
	.cfi_offset 14, -4
	.loc 1 49 0
	bl	__write	@
.LVL5:
	.loc 1 50 0
	ldr	pc, [sp], #4	@
	.cfi_endproc
.LFE2:
	.size	write, .-write
	.align	2
	.global	open
	.type	open, %function
open:
.LFB3:
	.loc 1 52 0
	.cfi_startproc
	@ args = 0, pretend = 0, frame = 0
	@ frame_needed = 0, uses_anonymous_args = 0
.LVL6:
	str	lr, [sp, #-4]!	@,
.LCFI3:
	.cfi_def_cfa_offset 4
	.cfi_offset 14, -4
	.loc 1 53 0
	bl	__open	@
.LVL7:
	.loc 1 54 0
	ldr	pc, [sp], #4	@
	.cfi_endproc
.LFE3:
	.size	open, .-open
	.align	2
	.global	close
	.type	close, %function
close:
.LFB4:
	.loc 1 56 0
	.cfi_startproc
	@ args = 0, pretend = 0, frame = 0
	@ frame_needed = 0, uses_anonymous_args = 0
.LVL8:
	str	lr, [sp, #-4]!	@,
.LCFI4:
	.cfi_def_cfa_offset 4
	.cfi_offset 14, -4
	.loc 1 57 0
	bl	__close	@
.LVL9:
	.loc 1 58 0
	ldr	pc, [sp], #4	@
	.cfi_endproc
.LFE4:
	.size	close, .-close
	.align	2
	.global	fstat
	.type	fstat, %function
fstat:
.LFB5:
	.loc 1 63 0
	.cfi_startproc
	@ args = 0, pretend = 0, frame = 0
	@ frame_needed = 0, uses_anonymous_args = 0
.LVL10:
	str	lr, [sp, #-4]!	@,
.LCFI5:
	.cfi_def_cfa_offset 4
	.cfi_offset 14, -4
	.loc 1 64 0
	mov	r0, r1	@, sb
.LVL11:
	mov	r1, #0	@,
.LVL12:
	mov	r2, #60	@,
	bl	memset	@
.LVL13:
	.loc 1 66 0
	mov	r0, #0	@,
	ldr	pc, [sp], #4	@
	.cfi_endproc
.LFE5:
	.size	fstat, .-fstat
	.align	2
	.global	lseek
	.type	lseek, %function
lseek:
.LFB6:
	.loc 1 69 0
	.cfi_startproc
	@ args = 0, pretend = 0, frame = 0
	@ frame_needed = 0, uses_anonymous_args = 0
	@ link register save eliminated.
.LVL14:
	.loc 1 71 0
	mov	r0, r1	@, offset
.LVL15:
	bx	lr	@
	.cfi_endproc
.LFE6:
	.size	lseek, .-lseek
	.align	2
	.global	sbrk
	.type	sbrk, %function
sbrk:
.LFB7:
	.loc 1 77 0
	.cfi_startproc
	@ args = 0, pretend = 0, frame = 0
	@ frame_needed = 0, uses_anonymous_args = 0
	@ link register save eliminated.
.LVL16:
	.loc 1 79 0
	ldr	r2, .L9	@ tmp139,
	ldr	r3, [r2, #0]	@ old_top, sbrk_top
.LVL17:
	.loc 1 80 0
	add	r0, r3, r0	@ tmp141, old_top, incr
.LVL18:
	str	r0, [r2, #0]	@ tmp141, sbrk_top
	.loc 1 82 0
	mov	r0, r3	@, old_top
	bx	lr	@
.L10:
	.align	2
.L9:
	.word	.LANCHOR0
	.cfi_endproc
.LFE7:
	.size	sbrk, .-sbrk
	.align	2
	.global	isatty
	.type	isatty, %function
isatty:
.LFB8:
	.loc 1 85 0
	.cfi_startproc
	@ args = 0, pretend = 0, frame = 0
	@ frame_needed = 0, uses_anonymous_args = 0
	@ link register save eliminated.
.LVL19:
	.loc 1 87 0
	mov	r0, #1	@,
.LVL20:
	bx	lr	@
	.cfi_endproc
.LFE8:
	.size	isatty, .-isatty
	.align	2
	.global	_read
	.type	_read, %function
_read:
.LFB9:
	.loc 1 91 0
	.cfi_startproc
	@ args = 0, pretend = 0, frame = 0
	@ frame_needed = 0, uses_anonymous_args = 0
.LVL21:
	str	lr, [sp, #-4]!	@,
.LCFI6:
	.cfi_def_cfa_offset 4
	.cfi_offset 14, -4
	.loc 1 92 0
	bl	read	@
.LVL22:
	.loc 1 93 0
	ldr	pc, [sp], #4	@
	.cfi_endproc
.LFE9:
	.size	_read, .-_read
	.align	2
	.global	_write
	.type	_write, %function
_write:
.LFB10:
	.loc 1 95 0
	.cfi_startproc
	@ args = 0, pretend = 0, frame = 0
	@ frame_needed = 0, uses_anonymous_args = 0
.LVL23:
	str	lr, [sp, #-4]!	@,
.LCFI7:
	.cfi_def_cfa_offset 4
	.cfi_offset 14, -4
	.loc 1 96 0
	bl	write	@
.LVL24:
	.loc 1 97 0
	ldr	pc, [sp], #4	@
	.cfi_endproc
.LFE10:
	.size	_write, .-_write
	.align	2
	.global	_open
	.type	_open, %function
_open:
.LFB11:
	.loc 1 99 0
	.cfi_startproc
	@ args = 0, pretend = 0, frame = 0
	@ frame_needed = 0, uses_anonymous_args = 0
.LVL25:
	str	lr, [sp, #-4]!	@,
.LCFI8:
	.cfi_def_cfa_offset 4
	.cfi_offset 14, -4
	.loc 1 100 0
	bl	open	@
.LVL26:
	.loc 1 101 0
	ldr	pc, [sp], #4	@
	.cfi_endproc
.LFE11:
	.size	_open, .-_open
	.align	2
	.global	_close
	.type	_close, %function
_close:
.LFB12:
	.loc 1 103 0
	.cfi_startproc
	@ args = 0, pretend = 0, frame = 0
	@ frame_needed = 0, uses_anonymous_args = 0
.LVL27:
	str	lr, [sp, #-4]!	@,
.LCFI9:
	.cfi_def_cfa_offset 4
	.cfi_offset 14, -4
	.loc 1 104 0
	bl	close	@
.LVL28:
	.loc 1 105 0
	ldr	pc, [sp], #4	@
	.cfi_endproc
.LFE12:
	.size	_close, .-_close
	.align	2
	.global	_fstat
	.type	_fstat, %function
_fstat:
.LFB13:
	.loc 1 107 0
	.cfi_startproc
	@ args = 0, pretend = 0, frame = 0
	@ frame_needed = 0, uses_anonymous_args = 0
.LVL29:
	str	lr, [sp, #-4]!	@,
.LCFI10:
	.cfi_def_cfa_offset 4
	.cfi_offset 14, -4
	.loc 1 108 0
	bl	fstat	@
.LVL30:
	.loc 1 109 0
	ldr	pc, [sp], #4	@
	.cfi_endproc
.LFE13:
	.size	_fstat, .-_fstat
	.align	2
	.global	_lseek
	.type	_lseek, %function
_lseek:
.LFB14:
	.loc 1 111 0
	.cfi_startproc
	@ args = 0, pretend = 0, frame = 0
	@ frame_needed = 0, uses_anonymous_args = 0
.LVL31:
	str	lr, [sp, #-4]!	@,
.LCFI11:
	.cfi_def_cfa_offset 4
	.cfi_offset 14, -4
	.loc 1 112 0
	bl	lseek	@
.LVL32:
	.loc 1 113 0
	ldr	pc, [sp], #4	@
	.cfi_endproc
.LFE14:
	.size	_lseek, .-_lseek
	.align	2
	.global	_sbrk
	.type	_sbrk, %function
_sbrk:
.LFB15:
	.loc 1 115 0
	.cfi_startproc
	@ args = 0, pretend = 0, frame = 0
	@ frame_needed = 0, uses_anonymous_args = 0
.LVL33:
	str	lr, [sp, #-4]!	@,
.LCFI12:
	.cfi_def_cfa_offset 4
	.cfi_offset 14, -4
	.loc 1 116 0
	bl	sbrk	@
.LVL34:
	.loc 1 117 0
	ldr	pc, [sp], #4	@
	.cfi_endproc
.LFE15:
	.size	_sbrk, .-_sbrk
	.align	2
	.global	_isatty
	.type	_isatty, %function
_isatty:
.LFB16:
	.loc 1 119 0
	.cfi_startproc
	@ args = 0, pretend = 0, frame = 0
	@ frame_needed = 0, uses_anonymous_args = 0
.LVL35:
	str	lr, [sp, #-4]!	@,
.LCFI13:
	.cfi_def_cfa_offset 4
	.cfi_offset 14, -4
	.loc 1 120 0
	bl	isatty	@
.LVL36:
	.loc 1 121 0
	ldr	pc, [sp], #4	@
	.cfi_endproc
.LFE16:
	.size	_isatty, .-_isatty
	.align	2
	.global	main
	.type	main, %function
main:
.LFB19:
	.loc 1 173 0
	.cfi_startproc
	@ args = 0, pretend = 0, frame = 0
	@ frame_needed = 0, uses_anonymous_args = 0
	str	lr, [sp, #-4]!	@,
.LCFI14:
	.cfi_def_cfa_offset 4
	.cfi_offset 14, -4
	.loc 1 174 0
	ldr	r0, .L21	@,
	ldr	r3, .L21+4	@ tmp137,
	ldr	r1, [r3, #4]	@, data_value
	ldr	r2, .L21+8	@,
	bl	printf	@
.LVL37:
	.loc 1 175 0
	mov	r0, #0	@,
	bl	exit	@
.LVL38:
.L22:
	.align	2
.L21:
	.word	.LC0
	.word	.LANCHOR0
	.word	.LC1
	.cfi_endproc
.LFE19:
	.size	main, .-main
	.align	2
	.global	_startmain
	.type	_startmain, %function
_startmain:
.LFB18:
	.loc 1 166 0
	.cfi_startproc
	@ Volatile: function does not return.
	@ args = 0, pretend = 0, frame = 0
	@ frame_needed = 0, uses_anonymous_args = 0
	str	lr, [sp, #-4]!	@,
.LCFI15:
	.cfi_def_cfa_offset 4
	.cfi_offset 14, -4
.LBB4:
.LBB5:
	.loc 1 159 0
	ldr	r3, .L24	@ tmp139,
	mov	r0, r3	@, tmp139
	mov	r1, #0	@,
	ldr	r2, .L24+4	@ tmp141,
	rsb	r2, r3, r2	@, tmp139, tmp141
	bl	memset	@
.LVL39:
.LBE5:
.LBE4:
	.loc 1 168 0
	bl	main	@
.LVL40:
.L25:
	.align	2
.L24:
	.word	_bss_start
	.word	_ebss
	.cfi_endproc
.LFE18:
	.size	_startmain, .-_startmain
	.global	sbrk_top
	.comm	bss_value,4,4
	.global	data_value
	.data
	.align	2
	.set	.LANCHOR0,. + 0
	.type	sbrk_top, %object
	.size	sbrk_top, 4
sbrk_top:
	.word	_heap
	.type	data_value, %object
	.size	data_value, 4
data_value:
	.word	-1414661426
	.section	.rodata.str1.4,"aMS",%progbits,1
	.align	2
.LC0:
	.ascii	"Hello World! %08lx This architecture is %s\012\000"
.LC1:
	.ascii	"arm-elf\000"
	.text
.Letext0:
	.file 2 "/usr/local/cross2-gcc4/lib/gcc/arm-elf/4.7.2/include/stddef.h"
	.file 3 "/usr/local/cross2-gcc4/lib/gcc/arm-elf/4.7.2/../../../../arm-elf/include/sys/_types.h"
	.file 4 "/usr/local/cross2-gcc4/lib/gcc/arm-elf/4.7.2/../../../../arm-elf/include/sys/types.h"
	.file 5 "/usr/local/cross2-gcc4/lib/gcc/arm-elf/4.7.2/../../../../arm-elf/include/sys/stat.h"
	.file 6 "syscall.h"
	.file 7 "/usr/local/cross2-gcc4/lib/gcc/arm-elf/4.7.2/../../../../arm-elf/include/string.h"
	.file 8 "/usr/local/cross2-gcc4/lib/gcc/arm-elf/4.7.2/../../../../arm-elf/include/stdio.h"
	.file 9 "/usr/local/cross2-gcc4/lib/gcc/arm-elf/4.7.2/../../../../arm-elf/include/stdlib.h"