
bfin-elf.x:     file format elf32-bfin


Disassembly of section .text:

00001400 <_start>:
    1400:	4e e1 00 00 	SP.H = 0x0;		/* (  0)	SP=0x0 */
    1404:	0e e1 10 dd 	SP.L = 0xdd10;		/* (-8944)	SP=0xdd10 <__end> */
    1408:	00 e3 ac 00 	CALL 0x1560 <__startmain>;

0000140c <___exit>:
    140c:	08 68       	P0 = 0x1 (X);		/*		P0=0x1(  1) */
    140e:	a0 00       	EXCPT 0x0;
    1410:	10 00       	RTS;

00001412 <___read>:
    1412:	18 68       	P0 = 0x3 (X);		/*		P0=0x3(  3) */
    1414:	a0 00       	EXCPT 0x0;
    1416:	10 00       	RTS;

00001418 <___write>:
    1418:	20 68       	P0 = 0x4 (X);		/*		P0=0x4(  4) */
    141a:	a0 00       	EXCPT 0x0;
    141c:	10 00       	RTS;

0000141e <___open>:
    141e:	28 68       	P0 = 0x5 (X);		/*		P0=0x5(  5) */
    1420:	a0 00       	EXCPT 0x0;
    1422:	10 00       	RTS;

00001424 <___close>:
    1424:	30 68       	P0 = 0x6 (X);		/*		P0=0x6(  6) */
    1426:	a0 00       	EXCPT 0x0;
    1428:	10 00       	RTS;
	...

0000142c <__exit>:
    142c:	67 01       	[--SP] = RETS;
    142e:	a6 6f       	SP += -0xc;		/* (-12) */
    1430:	ff e3 ee ff 	CALL 0x140c <___exit>;

00001434 <_read>:
    1434:	67 01       	[--SP] = RETS;
    1436:	a6 6f       	SP += -0xc;		/* (-12) */
    1438:	ff e3 ed ff 	CALL 0x1412 <___read>;
    143c:	66 6c       	SP += 0xc;		/* ( 12) */
    143e:	27 01       	RETS = [SP++];
    1440:	10 00       	RTS;
	...

00001444 <_write>:
    1444:	67 01       	[--SP] = RETS;
    1446:	a6 6f       	SP += -0xc;		/* (-12) */
    1448:	ff e3 e8 ff 	CALL 0x1418 <___write>;
    144c:	66 6c       	SP += 0xc;		/* ( 12) */
    144e:	27 01       	RETS = [SP++];
    1450:	10 00       	RTS;
	...

00001454 <_open>:
    1454:	67 01       	[--SP] = RETS;
    1456:	a6 6f       	SP += -0xc;		/* (-12) */
    1458:	ff e3 e3 ff 	CALL 0x141e <___open>;
    145c:	66 6c       	SP += 0xc;		/* ( 12) */
    145e:	27 01       	RETS = [SP++];
    1460:	10 00       	RTS;
	...

00001464 <_close>:
    1464:	67 01       	[--SP] = RETS;
    1466:	a6 6f       	SP += -0xc;		/* (-12) */
    1468:	ff e3 de ff 	CALL 0x1424 <___close>;
    146c:	66 6c       	SP += 0xc;		/* ( 12) */
    146e:	27 01       	RETS = [SP++];
    1470:	10 00       	RTS;
	...

00001474 <_fstat>:
    1474:	67 01       	[--SP] = RETS;
    1476:	a6 6f       	SP += -0xc;		/* (-12) */
    1478:	01 30       	R0 = R1;
    147a:	01 60       	R1 = 0x0 (X);		/*		R1=0x0(  0) */
    147c:	e2 61       	R2 = 0x3c (X);		/*		R2=0x3c( 60) */
    147e:	00 e3 97 00 	CALL 0x15ac <_memset>;
    1482:	00 60       	R0 = 0x0 (X);		/*		R0=0x0(  0) */
    1484:	66 6c       	SP += 0xc;		/* ( 12) */
    1486:	27 01       	RETS = [SP++];
    1488:	10 00       	RTS;
	...

0000148c <_lseek>:
    148c:	00 00       	NOP;
    148e:	00 00       	NOP;
    1490:	00 00       	NOP;
    1492:	01 30       	R0 = R1;
    1494:	10 00       	RTS;
	...

00001498 <_sbrk>:
    1498:	4a e1 00 00 	P2.H = 0x0;		/* (  0)	P2=0x0 */
    149c:	0a e1 00 90 	P2.L = 0x9000;		/* (-28672)	P2=0x9000 <__gp> */
    14a0:	11 91       	R1 = [P2];
    14a2:	01 50       	R0 = R1 + R0;
    14a4:	10 93       	[P2] = R0;
    14a6:	01 30       	R0 = R1;
    14a8:	10 00       	RTS;
	...

000014ac <_isatty>:
    14ac:	00 00       	NOP;
    14ae:	00 00       	NOP;
    14b0:	00 00       	NOP;
    14b2:	08 60       	R0 = 0x1 (X);		/*		R0=0x1(  1) */
    14b4:	10 00       	RTS;
	...

000014b8 <__read>:
    14b8:	67 01       	[--SP] = RETS;
    14ba:	a6 6f       	SP += -0xc;		/* (-12) */
    14bc:	ff e3 bc ff 	CALL 0x1434 <_read>;
    14c0:	66 6c       	SP += 0xc;		/* ( 12) */
    14c2:	27 01       	RETS = [SP++];
    14c4:	10 00       	RTS;
	...

000014c8 <__write>:
    14c8:	67 01       	[--SP] = RETS;
    14ca:	a6 6f       	SP += -0xc;		/* (-12) */
    14cc:	ff e3 bc ff 	CALL 0x1444 <_write>;
    14d0:	66 6c       	SP += 0xc;		/* ( 12) */
    14d2:	27 01       	RETS = [SP++];
    14d4:	10 00       	RTS;
	...

000014d8 <__open>:
    14d8:	67 01       	[--SP] = RETS;
    14da:	a6 6f       	SP += -0xc;		/* (-12) */
    14dc:	ff e3 bc ff 	CALL 0x1454 <_open>;
    14e0:	66 6c       	SP += 0xc;		/* ( 12) */
    14e2:	27 01       	RETS = [SP++];
    14e4:	10 00       	RTS;
	...

000014e8 <__close>:
    14e8:	67 01       	[--SP] = RETS;
    14ea:	a6 6f       	SP += -0xc;		/* (-12) */
    14ec:	ff e3 bc ff 	CALL 0x1464 <_close>;
    14f0:	66 6c       	SP += 0xc;		/* ( 12) */
    14f2:	27 01       	RETS = [SP++];
    14f4:	10 00       	RTS;
	...

000014f8 <__fstat>:
    14f8:	67 01       	[--SP] = RETS;
    14fa:	a6 6f       	SP += -0xc;		/* (-12) */
    14fc:	ff e3 bc ff 	CALL 0x1474 <_fstat>;
    1500:	66 6c       	SP += 0xc;		/* ( 12) */
    1502:	27 01       	RETS = [SP++];
    1504:	10 00       	RTS;
	...

00001508 <__lseek>:
    1508:	67 01       	[--SP] = RETS;
    150a:	a6 6f       	SP += -0xc;		/* (-12) */
    150c:	ff e3 c0 ff 	CALL 0x148c <_lseek>;
    1510:	66 6c       	SP += 0xc;		/* ( 12) */
    1512:	27 01       	RETS = [SP++];
    1514:	10 00       	RTS;
	...

00001518 <__sbrk>:
    1518:	67 01       	[--SP] = RETS;
    151a:	a6 6f       	SP += -0xc;		/* (-12) */
    151c:	ff e3 be ff 	CALL 0x1498 <_sbrk>;
    1520:	66 6c       	SP += 0xc;		/* ( 12) */
    1522:	27 01       	RETS = [SP++];
    1524:	10 00       	RTS;
	...

00001528 <__isatty>:
    1528:	67 01       	[--SP] = RETS;
    152a:	a6 6f       	SP += -0xc;		/* (-12) */
    152c:	ff e3 c0 ff 	CALL 0x14ac <_isatty>;
    1530:	66 6c       	SP += 0xc;		/* ( 12) */
    1532:	27 01       	RETS = [SP++];
    1534:	10 00       	RTS;
	...

00001538 <_main>:
    1538:	67 01       	[--SP] = RETS;
    153a:	a6 6f       	SP += -0xc;		/* (-12) */
    153c:	40 e1 00 00 	R0.H = 0x0;		/* (  0)	R0=0x1(  1) */
    1540:	00 e1 64 87 	R0.L = 0x8764;		/* (-30876)	R0=0x8764 <__etext>(34660) */
    1544:	4a e1 00 00 	P2.H = 0x0;		/* (  0)	P2=0x9000 <__gp> */
    1548:	0a e1 04 90 	P2.L = 0x9004;		/* (-28668)	P2=0x9004 <_data_value> */
    154c:	11 91       	R1 = [P2];
    154e:	42 e1 00 00 	R2.H = 0x0;		/* (  0)	R2=0x3c( 60) */
    1552:	02 e1 90 87 	R2.L = 0x8790;		/* (-30832)	R2=0x8790(34704) */
    1556:	00 e3 9b 00 	CALL 0x168c <_printf>;
    155a:	00 60       	R0 = 0x0 (X);		/*		R0=0x0(  0) */
    155c:	00 e3 12 00 	CALL 0x1580 <_exit>;

00001560 <__startmain>:
    1560:	67 01       	[--SP] = RETS;
    1562:	a6 6f       	SP += -0xc;		/* (-12) */
    1564:	40 e1 00 00 	R0.H = 0x0;		/* (  0)	R0=0x0(  0) */
    1568:	00 e1 c0 98 	R0.L = 0x98c0;		/* (-26432)	R0=0x98c0 <__edata>(39104) */
    156c:	42 e1 00 00 	R2.H = 0x0;		/* (  0)	R2=0x8790(34704) */
    1570:	02 e1 08 d9 	R2.L = 0xd908;		/* (-9976)	R2=0xd908 <__ebss>(55560) */
    1574:	82 52       	R2 = R2 - R0;
    1576:	01 60       	R1 = 0x0 (X);		/*		R1=0x0(  0) */
    1578:	00 e3 1a 00 	CALL 0x15ac <_memset>;
    157c:	ff e3 de ff 	CALL 0x1538 <_main>;

00001580 <_exit>:
    1580:	78 05       	[--SP] = (R7:7);
    1582:	00 e8 03 00 	LINK 0xc;		/* (12) */
    1586:	01 60       	R1 = 0x0 (X);		/*		R1=0x0(  0) */
    1588:	38 30       	R7 = R0;
    158a:	00 e3 bd 0c 	CALL 0x2f04 <___call_exitprocs>;
    158e:	4a e1 00 00 	P2.H = 0x0;		/* (  0)	P2=0x9004 <_data_value> */
    1592:	0a e1 9c 87 	P2.L = 0x879c;		/* (-30820)	P2=0x879c <__global_impure_ptr> */
    1596:	10 91       	R0 = [P2];
    1598:	08 32       	P1 = R0;
    159a:	ca af       	P2 = [P1 + 0x3c];
    159c:	42 0c       	CC = P2 == 0x0;
    159e:	04 18       	IF CC JUMP 0x15a6 <_exit+0x26>;
    15a0:	00 00       	NOP;
    15a2:	00 00       	NOP;
    15a4:	62 00       	CALL (P2);
    15a6:	07 30       	R0 = R7;
    15a8:	ff e3 42 ff 	CALL 0x142c <__exit>;

000015ac <_memset>:
    15ac:	1b 60       	R3 = 0x3 (X);		/*		R3=0x3(  3) */
    15ae:	d8 54       	R3 = R0 & R3;
    15b0:	68 05       	[--SP] = (R7:5);
    15b2:	03 0c       	CC = R3 == 0x0;
    15b4:	00 e8 00 00 	LINK 0x0;		/* (0) */
    15b8:	10 32       	P2 = R0;
    15ba:	15 18       	IF CC JUMP 0x15e4 <_memset+0x38>;
    15bc:	1a 30       	R3 = R2;
    15be:	02 0c       	CC = R2 == 0x0;
    15c0:	fb 67       	R3 += -0x1;		/* ( -1) */
    15c2:	39 30       	R7 = R1;
    15c4:	0c 18       	IF CC JUMP 0x15dc <_memset+0x30>;
    15c6:	0a 32       	P1 = R2;
    15c8:	1e 60       	R6 = 0x3 (X);		/*		R6=0x3(  3) */
    15ca:	b2 e0 08 10 	LSETUP(0x15ce <_memset+0x22>, 0x15da <_memset+0x2e>) LC1 = P1;
    15ce:	17 9a       	B[P2++] = R7;
    15d0:	6a 30       	R5 = P2;
    15d2:	b5 54       	R2 = R5 & R6;
    15d4:	02 0c       	CC = R2 == 0x0;
    15d6:	42 32       	P0 = P2;
    15d8:	08 18       	IF CC JUMP 0x15e8 <_memset+0x3c>;
    15da:	fb 67       	R3 += -0x1;		/* ( -1) */
    15dc:	01 e8 00 00 	UNLINK;
    15e0:	28 05       	(R7:5) = [SP++];
    15e2:	10 00       	RTS;
    15e4:	00 32       	P0 = R0;
    15e6:	1a 30       	R3 = R2;
    15e8:	1b 0e       	CC = R3 <= 0x3 (IU);
    15ea:	33 1c       	IF CC JUMP 0x1650 <_memset+0xa4> (BP);
    15ec:	4a 43       	R2 = R1.B (Z);
    15ee:	82 c6 42 8e 	R7 = R2 << 0x8;
    15f2:	97 56       	R2 = R7 | R2;
    15f4:	82 c6 82 8e 	R7 = R2 << 0x10;
    15f8:	97 56       	R2 = R7 | R2;
    15fa:	7f 60       	R7 = 0xf (X);		/*		R7=0xf( 15) */
    15fc:	3b 0a       	CC = R3 <= R7 (IU);
    15fe:	35 18       	IF CC JUMP 0x1668 <_memset+0xbc>;
    1600:	3b 30       	R7 = R3;
    1602:	87 67       	R7 += -0x10;		/* (-16) */
    1604:	27 4e       	R7 >>= 0x4;
    1606:	0f 32       	P1 = R7;
    1608:	50 32       	P2 = P0;
    160a:	09 6c       	P1 += 0x1;		/* (  1) */
    160c:	b2 e0 06 10 	LSETUP(0x1610 <_memset+0x64>, 0x1618 <_memset+0x6c>) LC1 = P1;
    1610:	12 93       	[P2] = R2;
    1612:	52 b0       	[P2 + 0x4] = R2;
    1614:	92 b0       	[P2 + 0x8] = R2;
    1616:	d2 b0       	[P2 + 0xc] = R2;
    1618:	82 6c       	P2 += 0x10;		/* ( 16) */
    161a:	3b 30       	R7 = R3;
    161c:	87 67       	R7 += -0x10;		/* (-16) */
    161e:	27 4e       	R7 >>= 0x4;
    1620:	0f 64       	R7 += 0x1;		/* (  1) */
    1622:	27 4f       	R7 <<= 0x4;
    1624:	17 32       	P2 = R7;
    1626:	7f 60       	R7 = 0xf (X);		/*		R7=0xf( 15) */
    1628:	fb 54       	R3 = R3 & R7;
    162a:	1b 0e       	CC = R3 <= 0x3 (IU);
    162c:	50 5a       	P1 = P0 + P2;
    162e:	41 32       	P0 = P1;
    1630:	10 18       	IF CC JUMP 0x1650 <_memset+0xa4>;
    1632:	03 32       	P0 = R3;
    1634:	e0 6f       	P0 += -0x4;		/* ( -4) */
    1636:	c0 44       	P0 = P0 >> 0x2;
    1638:	08 6c       	P0 += 0x1;		/* (  1) */
    163a:	01 5e       	P0 = P1 + (P0 << 0x2);
    163c:	50 32       	P2 = P0;
    163e:	0a 44       	P2 -= P1;
    1640:	e2 6f       	P2 += -0x4;		/* ( -4) */
    1642:	d2 44       	P2 = P2 >> 0x2;
    1644:	0a 6c       	P2 += 0x1;		/* (  1) */
    1646:	b2 e0 02 20 	LSETUP(0x164a <_memset+0x9e>, 0x164a <_memset+0x9e>) LC1 = P2;
    164a:	0a 92       	[P1++] = R2;
    164c:	1a 60       	R2 = 0x3 (X);		/*		R2=0x3(  3) */
    164e:	d3 54       	R3 = R3 & R2;
    1650:	03 0c       	CC = R3 == 0x0;
    1652:	c5 1b       	IF CC JUMP 0x15dc <_memset+0x30>;
    1654:	50 30       	R2 = P0;
    1656:	da 50       	R3 = R2 + R3;
    1658:	01 9a       	B[P0++] = R1;
    165a:	68 30       	R5 = P0;
    165c:	1d 08       	CC = R5 == R3;
    165e:	fd 17       	IF !CC JUMP 0x1658 <_memset+0xac> (BP);
    1660:	01 e8 00 00 	UNLINK;
    1664:	28 05       	(R7:5) = [SP++];
    1666:	10 00       	RTS;
    1668:	48 32       	P1 = P0;
    166a:	e4 2f       	JUMP.S 0x1632 <_memset+0x86>;

0000166c <__printf_r>:
    166c:	10 32       	P2 = R0;
    166e:	00 e8 04 00 	LINK 0x10;		/* (16) */
    1672:	5f 30       	R3 = FP;
    1674:	3a b1       	[FP + 0x10] = R2;
    1676:	83 64       	R3 += 0x10;		/* ( 16) */
    1678:	82 ce 01 c4 	R2 = ROT R1 BY 0x0 || R1 = [P2 + 0x8] || NOP;
    167c:	91 a0 00 00 
    1680:	f3 b0       	[SP + 0xc] = R3;
    1682:	00 e3 19 00 	CALL 0x16b4 <__vfprintf_r>;
    1686:	01 e8 00 00 	UNLINK;
    168a:	10 00       	RTS;

0000168c <_printf>:
    168c:	00 e8 04 00 	LINK 0x10;		/* (16) */
    1690:	4a e1 00 00 	P2.H = 0x0;		/* (  0)	P2=0x879c <__global_impure_ptr> */
    1694:	3a b1       	[FP + 0x10] = R2;
    1696:	f9 b0       	[FP + 0xc] = R1;
    1698:	0a e1 08 90 	P2.L = 0x9008;		/* (-28664)	P2=0x9008 <__impure_ptr> */
    169c:	52 91       	P2 = [P2];
    169e:	10 30       	R2 = R0;
    16a0:	47 30       	R0 = FP;
    16a2:	60 64       	R0 += 0xc;		/* ( 12) */
    16a4:	91 a0       	R1 = [P2 + 0x8];
    16a6:	f0 b0       	[SP + 0xc] = R0;
    16a8:	42 30       	R0 = P2;
    16aa:	00 e3 05 00 	CALL 0x16b4 <__vfprintf_r>;
    16ae:	01 e8 00 00 	UNLINK;
    16b2:	10 00       	RTS;

000016b4 <__vfprintf_r>:
    16b4:	e3 05       	[--SP] = (R7:4, P5:3);
    16b6:	00 e8 50 01 	LINK 0x540;		/* (1344) */
    16ba:	21 30       	R4 = R1;
    16bc:	20 32       	P4 = R0;
    16be:	3a 30       	R7 = R2;
    16c0:	00 e3 82 19 	CALL 0x49c4 <__localeconv_r>;
    16c4:	00 32       	P0 = R0;
    16c6:	00 91       	R0 = [P0];
    16c8:	38 e6 c3 fe 	[FP + -0x4f4] = R0;
    16cc:	00 e3 ae 23 	CALL 0x5e28 <_strlen>;
    16d0:	38 e6 c1 fe 	[FP + -0x4fc] = R0;
    16d4:	01 60       	R1 = 0x0 (X);		/*		R1=0x0(  0) */
    16d6:	00 60       	R0 = 0x0 (X);		/*		R0=0x0(  0) */
    16d8:	44 0c       	CC = P4 == 0x0;
    16da:	38 e6 bf fe 	[FP + -0x504] = R0;
    16de:	39 e6 c0 fe 	[FP + -0x500] = R1;
    16e2:	06 18       	IF CC JUMP 0x16ee <__vfprintf_r+0x3a>;
    16e4:	a1 a3       	R1 = [P4 + 0x38];
    16e6:	01 0c       	CC = R1 == 0x0;
    16e8:	a4 19       	IF CC JUMP 0x1a30 <__vfprintf_r+0x37c>;
    16ea:	00 00       	NOP;
    16ec:	00 00       	NOP;
    16ee:	04 32       	P0 = R4;
    16f0:	80 a9       	R0 = W[P0 + 0xc] (X);
    16f2:	68 48       	CC = !BITTST (R0, 0xd);		/* bit 13 */
    16f4:	08 14       	IF !CC JUMP 0x1704 <__vfprintf_r+0x50> (BP);
    16f6:	01 e4 19 00 	R1 = [P0 + 0x64];
    16fa:	68 4a       	BITSET (R0, 0xd);		/* bit 13 */
    16fc:	69 4c       	BITCLR (R1, 0xd);		/* bit 13 */
    16fe:	80 b5       	W[P0 + 0xc] = R0;
    1700:	01 e6 19 00 	[P0 + 0x64] = R1;
    1704:	41 60       	R1 = 0x8 (X);		/*		R1=0x8(  8) */
    1706:	48 54       	R1 = R0 & R1;
    1708:	89 42       	R1 = R1.L (X);
    170a:	01 0c       	CC = R1 == 0x0;
    170c:	10 19       	IF CC JUMP 0x192c <__vfprintf_r+0x278>;
    170e:	00 00       	NOP;
    1710:	00 00       	NOP;
    1712:	04 32       	P0 = R4;
    1714:	01 a1       	R1 = [P0 + 0x10];
    1716:	01 0c       	CC = R1 == 0x0;
    1718:	0a 19       	IF CC JUMP 0x192c <__vfprintf_r+0x278>;
    171a:	d1 60       	R1 = 0x1a (X);		/*		R1=0x1a( 26) */
    171c:	48 54       	R1 = R0 & R1;
    171e:	89 42       	R1 = R1.L (X);
    1720:	52 60       	R2 = 0xa (X);		/*		R2=0xa( 10) */
    1722:	11 08       	CC = R1 == R2;
    1724:	12 19       	IF CC JUMP 0x1948 <__vfprintf_r+0x294>;
    1726:	28 e1 70 fb 	P0 = -0x490 (X);		/*		P0=0xfffffb70(-1168) */
    172a:	03 60       	R3 = 0x0 (X);		/*		R3=0x0(  0) */
    172c:	38 5a       	P0 = P0 + FP;
    172e:	3b e6 c6 fe 	[FP + -0x4e8] = R3;
    1732:	3b e6 be fe 	[FP + -0x508] = R3;
    1736:	58 30       	R3 = P0;
    1738:	3b 65       	R3 += 0x27;		/* ( 39) */
    173a:	3b e6 c5 fe 	[FP + -0x4ec] = R3;
    173e:	2a e1 00 fc 	P2 = -0x400 (X);		/*		P2=0xfffffc00(-1024) */
    1742:	0b 64       	R3 += 0x1;		/* (  1) */
    1744:	3d e4 c5 fe 	R5 = [FP + -0x4ec];
    1748:	00 60       	R0 = 0x0 (X);		/*		R0=0x0(  0) */
    174a:	97 5a       	P2 = FP + P2;
    174c:	3b e6 c4 fe 	[FP + -0x4f0] = R3;
    1750:	eb 52       	R3 = R3 - R5;
    1752:	3a e7 d9 fe 	[FP + -0x49c] = P2;
    1756:	38 e6 db fe 	[FP + -0x494] = R0;
    175a:	38 e6 da fe 	[FP + -0x498] = R0;
    175e:	3f e6 cf fe 	[FP + -0x4c4] = R7;
    1762:	38 e6 bd fe 	[FP + -0x50c] = R0;
    1766:	38 e6 cd fe 	[FP + -0x4cc] = R0;
    176a:	3b e6 bc fe 	[FP + -0x510] = R3;
    176e:	38 e5 cf fe 	P0 = [FP + -0x4c4];
    1772:	40 99       	R0 = B[P0] (X);
    1774:	00 0c       	CC = R0 == 0x0;
    1776:	61 19       	IF CC JUMP 0x1a38 <__vfprintf_r+0x384>;
    1778:	29 61       	R1 = 0x25 (X);		/*		R1=0x25( 37) */
    177a:	08 08       	CC = R0 == R1;
    177c:	5e 19       	IF CC JUMP 0x1a38 <__vfprintf_r+0x384>;
    177e:	48 30       	R1 = P0;
    1780:	09 64       	R1 += 0x1;		/* (  1) */
    1782:	05 20       	JUMP.S 0x178c <__vfprintf_r+0xd8>;
    1784:	2d 61       	R5 = 0x25 (X);		/*		R5=0x25( 37) */
    1786:	28 08       	CC = R0 == R5;
    1788:	bd 18       	IF CC JUMP 0x1902 <__vfprintf_r+0x24e>;
    178a:	00 00       	NOP;
    178c:	29 32       	P5 = R1;
    178e:	09 64       	R1 += 0x1;		/* (  1) */
    1790:	68 99       	R0 = B[P5] (X);
    1792:	00 0c       	CC = R0 == 0x0;
    1794:	f8 17       	IF !CC JUMP 0x1784 <__vfprintf_r+0xd0> (BP);
    1796:	55 30       	R2 = P5;
    1798:	3b e4 cf fe 	R3 = [FP + -0x4c4];
    179c:	da 53       	R7 = R2 - R3;
    179e:	07 0c       	CC = R7 == 0x0;
    17a0:	18 18       	IF CC JUMP 0x17d0 <__vfprintf_r+0x11c>;
    17a2:	39 60       	R1 = 0x7 (X);		/*		R1=0x7(  7) */
    17a4:	57 b0       	[P2 + 0x4] = R7;
    17a6:	38 e5 cf fe 	P0 = [FP + -0x4c4];
    17aa:	38 e4 da fe 	R0 = [FP + -0x498];
    17ae:	3b e4 db fe 	R3 = [FP + -0x494];
    17b2:	08 64       	R0 += 0x1;		/* (  1) */
    17b4:	fb 50       	R3 = R3 + R7;
    17b6:	08 09       	CC = R0 <= R1;
    17b8:	50 93       	[P2] = P0;
    17ba:	3b e6 db fe 	[FP + -0x494] = R3;
    17be:	38 e6 da fe 	[FP + -0x498] = R0;
    17c2:	29 11       	IF !CC JUMP 0x1a14 <__vfprintf_r+0x360>;
    17c4:	42 6c       	P2 += 0x8;		/* (  8) */
    17c6:	38 e4 cd fe 	R0 = [FP + -0x4cc];
    17ca:	38 50       	R0 = R0 + R7;
    17cc:	38 e6 cd fe 	[FP + -0x4cc] = R0;
    17d0:	68 99       	R0 = B[P5] (X);
    17d2:	00 0c       	CC = R0 == 0x0;
    17d4:	07 19       	IF CC JUMP 0x19e2 <__vfprintf_r+0x32e>;
    17d6:	0d 6c       	P5 += 0x1;		/* (  1) */
    17d8:	00 60       	R0 = 0x0 (X);		/*		R0=0x0(  0) */
    17da:	03 60       	R3 = 0x0 (X);		/*		R3=0x0(  0) */
    17dc:	b8 e6 43 fb 	B[FP + -0x4bd] = R0;
    17e0:	ff 63       	R7 = -0x1 (X);		/*		R7=0xffffffff( -1) */
    17e2:	3b e6 cb fe 	[FP + -0x4d4] = R3;
    17e6:	06 60       	R6 = 0x0 (X);		/*		R6=0x0(  0) */
    17e8:	f9 63       	R1 = -0x1 (X);		/*		R1=0xffffffff( -1) */
    17ea:	58 61       	R0 = 0x2b (X);		/*		R0=0x2b( 43) */
    17ec:	02 61       	R2 = 0x20 (X);		/*		R2=0x20( 32) */
    17ee:	4d 32       	P1 = P5;
    17f0:	00 00       	NOP;
    17f2:	4d 98       	R5 = B[P1++] (X);
    17f4:	05 32       	P0 = R5;
    17f6:	2b e1 58 00 	P3 = 0x58 (X);		/*		P3=0x58( 88) */
    17fa:	00 6f       	P0 += -0x20;		/* (-32) */
    17fc:	58 0a       	CC = P0 <= P3 (IU);
    17fe:	7b 1c       	IF CC JUMP 0x18f4 <__vfprintf_r+0x240> (BP);
    1800:	05 0c       	CC = R5 == 0x0;
    1802:	39 e7 cf fe 	[FP + -0x4c4] = P1;
    1806:	ee 18       	IF CC JUMP 0x19e2 <__vfprintf_r+0x32e>;
    1808:	00 60       	R0 = 0x0 (X);		/*		R0=0x0(  0) */
    180a:	bd e6 70 fb 	B[FP + -0x490] = R5;
    180e:	b8 e6 43 fb 	B[FP + -0x4bd] = R0;
    1812:	28 e1 70 fb 	P0 = -0x490 (X);		/*		P0=0xfffffb70(-1168) */
    1816:	0b 60       	R3 = 0x1 (X);		/*		R3=0x1(  1) */
    1818:	08 60       	R0 = 0x1 (X);		/*		R0=0x1(  1) */
    181a:	38 5a       	P0 = P0 + FP;
    181c:	3b e6 ce fe 	[FP + -0x4c8] = R3;
    1820:	38 e6 cc fe 	[FP + -0x4d0] = R0;
    1824:	38 e7 c8 fe 	[FP + -0x4e0] = P0;
    1828:	01 68       	P1 = 0x0 (X);		/*		P1=0x0(  0) */
    182a:	03 60       	R3 = 0x0 (X);		/*		R3=0x0(  0) */
    182c:	39 e7 c7 fe 	[FP + -0x4e4] = P1;
    1830:	3b e6 c2 fe 	[FP + -0x4f8] = R3;
    1834:	10 60       	R0 = 0x2 (X);		/*		R0=0x2(  2) */
    1836:	06 54       	R0 = R6 & R0;
    1838:	3b e4 ce fe 	R3 = [FP + -0x4c8];
    183c:	c3 50       	R3 = R3 + R0;
    183e:	38 e6 ca fe 	[FP + -0x4d8] = R0;
    1842:	20 e1 84 00 	R0 = 0x84 (X);		/*		R0=0x84(132) */
    1846:	06 54       	R0 = R6 & R0;
    1848:	00 0c       	CC = R0 == 0x0;
    184a:	3b e6 ce fe 	[FP + -0x4c8] = R3;
    184e:	38 e6 c9 fe 	[FP + -0x4dc] = R0;
    1852:	02 18       	IF CC JUMP 0x1856 <__vfprintf_r+0x1a2>;
    1854:	bf 22       	JUMP.S 0x1dd2 <__vfprintf_r+0x71e>;
    1856:	3d e5 cb fe 	P5 = [FP + -0x4d4];
    185a:	38 e5 ce fe 	P0 = [FP + -0x4c8];
    185e:	05 44       	P5 -= P0;
    1860:	45 0d       	CC = P5 <= 0x0;
    1862:	02 14       	IF !CC JUMP 0x1866 <__vfprintf_r+0x1b2> (BP);
    1864:	b7 22       	JUMP.S 0x1dd2 <__vfprintf_r+0x71e>;
    1866:	81 68       	P1 = 0x10 (X);		/*		P1=0x10( 16) */
    1868:	4b e1 00 00 	P3.H = 0x0;		/* (  0)	P3=0x58 */
    186c:	4d 09       	CC = P5 <= P1;
    186e:	3b e4 db fe 	R3 = [FP + -0x494];
    1872:	3f e4 da fe 	R7 = [FP + -0x498];
    1876:	0b e1 4c 89 	P3.L = 0x894c;		/* (-30388)	P3=0x894c <_blanks.4059> */
    187a:	2e 18       	IF CC JUMP 0x18d6 <__vfprintf_r+0x222>;
    187c:	45 30       	R0 = P5;
    187e:	2e 32       	P5 = R6;
    1880:	30 30       	R6 = R0;
    1882:	06 20       	JUMP.S 0x188e <__vfprintf_r+0x1da>;
    1884:	86 67       	R6 += -0x10;		/* (-16) */
    1886:	80 60       	R0 = 0x10 (X);		/*		R0=0x10( 16) */
    1888:	06 09       	CC = R6 <= R0;
    188a:	42 6c       	P2 += 0x8;		/* (  8) */
    188c:	22 18       	IF CC JUMP 0x18d0 <__vfprintf_r+0x21c>;
    188e:	80 60       	R0 = 0x10 (X);		/*		R0=0x10( 16) */
    1890:	50 b0       	[P2 + 0x4] = R0;
    1892:	0f 64       	R7 += 0x1;		/* (  1) */
    1894:	38 60       	R0 = 0x7 (X);		/*		R0=0x7(  7) */
    1896:	83 64       	R3 += 0x10;		/* ( 16) */
    1898:	07 09       	CC = R7 <= R0;
    189a:	53 93       	[P2] = P3;
    189c:	3b e6 db fe 	[FP + -0x494] = R3;
    18a0:	3f e6 da fe 	[FP + -0x498] = R7;
    18a4:	f0 1f       	IF CC JUMP 0x1884 <__vfprintf_r+0x1d0> (BP);
    18a6:	28 e1 64 fb 	P0 = -0x49c (X);		/*		P0=0xfffffb64(-1180) */
    18aa:	38 5a       	P0 = P0 + FP;
    18ac:	44 30       	R0 = P4;
    18ae:	0c 30       	R1 = R4;
    18b0:	50 30       	R2 = P0;
    18b2:	00 e3 03 23 	CALL 0x5eb8 <___sprint_r>;
    18b6:	00 0c       	CC = R0 == 0x0;
    18b8:	a1 10       	IF !CC JUMP 0x19fa <__vfprintf_r+0x346>;
    18ba:	86 67       	R6 += -0x10;		/* (-16) */
    18bc:	80 60       	R0 = 0x10 (X);		/*		R0=0x10( 16) */
    18be:	29 e1 00 fc 	P1 = -0x400 (X);		/*		P1=0xfffffc00(-1024) */
    18c2:	06 09       	CC = R6 <= R0;
    18c4:	8f 5a       	P2 = FP + P1;
    18c6:	3b e4 db fe 	R3 = [FP + -0x494];
    18ca:	3f e4 da fe 	R7 = [FP + -0x498];
    18ce:	e0 17       	IF !CC JUMP 0x188e <__vfprintf_r+0x1da> (BP);
    18d0:	06 30       	R0 = R6;
    18d2:	75 30       	R6 = P5;
    18d4:	28 32       	P5 = R0;
    18d6:	0f 64       	R7 += 0x1;		/* (  1) */
    18d8:	4d 30       	R1 = P5;
    18da:	3a 60       	R2 = 0x7 (X);		/*		R2=0x7(  7) */
    18dc:	cb 50       	R3 = R3 + R1;
    18de:	17 09       	CC = R7 <= R2;
    18e0:	53 93       	[P2] = P3;
    18e2:	55 bc       	[P2 + 0x4] = P5;
    18e4:	3b e6 db fe 	[FP + -0x494] = R3;
    18e8:	3f e6 da fe 	[FP + -0x498] = R7;
    18ec:	02 1c       	IF CC JUMP 0x18f0 <__vfprintf_r+0x23c> (BP);
    18ee:	65 22       	JUMP.S 0x1db8 <__vfprintf_r+0x704>;
    18f0:	42 6c       	P2 += 0x8;		/* (  8) */
    18f2:	72 22       	JUMP.S 0x1dd6 <__vfprintf_r+0x722>;
    18f4:	4d e1 00 00 	P5.H = 0x0;		/* (  0)	P5=0x0 */
    18f8:	0d e1 e8 87 	P5.L = 0x87e8;		/* (-30744)	P5=0x87e8 */
    18fc:	05 5e       	P0 = P5 + (P0 << 0x2);
    18fe:	40 91       	P0 = [P0];
    1900:	50 00       	JUMP (P0);
    1902:	45 30       	R0 = P5;
    1904:	3b e4 cf fe 	R3 = [FP + -0x4c4];
    1908:	d8 53       	R7 = R0 - R3;
    190a:	4a 2f       	JUMP.S 0x179e <__vfprintf_r+0xea>;
    190c:	26 4a       	BITSET (R6, 0x4);		/* bit  4 */
    190e:	71 2f       	JUMP.S 0x17f0 <__vfprintf_r+0x13c>;
    1910:	38 af       	P0 = [FP + 0x30];
    1912:	3b a3       	R3 = [FP + 0x30];
    1914:	23 64       	R3 += 0x4;		/* (  4) */
    1916:	05 91       	R5 = [P0];
    1918:	85 0c       	CC = R5 < 0x0;
    191a:	3d e6 cb fe 	[FP + -0x4d4] = R5;
    191e:	cc 14       	IF !CC JUMP 0x1ab6 <__vfprintf_r+0x402> (BP);
    1920:	ad 43       	R5 = -R5;
    1922:	3d e6 cb fe 	[FP + -0x4d4] = R5;
    1926:	3b b3       	[FP + 0x30] = R3;
    1928:	16 4a       	BITSET (R6, 0x2);		/* bit  2 */
    192a:	63 2f       	JUMP.S 0x17f0 <__vfprintf_r+0x13c>;
    192c:	44 30       	R0 = P4;
    192e:	0c 30       	R1 = R4;
    1930:	00 e3 6e 0a 	CALL 0x2e0c <___swsetup_r>;
    1934:	00 0c       	CC = R0 == 0x0;
    1936:	66 10       	IF !CC JUMP 0x1a02 <__vfprintf_r+0x34e>;
    1938:	04 32       	P0 = R4;
    193a:	d1 60       	R1 = 0x1a (X);		/*		R1=0x1a( 26) */
    193c:	52 60       	R2 = 0xa (X);		/*		R2=0xa( 10) */
    193e:	80 a9       	R0 = W[P0 + 0xc] (X);
    1940:	48 54       	R1 = R0 & R1;
    1942:	89 42       	R1 = R1.L (X);
    1944:	11 08       	CC = R1 == R2;
    1946:	f0 16       	IF !CC JUMP 0x1726 <__vfprintf_r+0x72> (BP);
    1948:	04 32       	P0 = R4;
    194a:	c1 a9       	R1 = W[P0 + 0xe] (X);
    194c:	8a 42       	R2 = R1.L (X);
    194e:	82 0c       	CC = R2 < 0x0;
    1950:	eb 1e       	IF CC JUMP 0x1726 <__vfprintf_r+0x72> (BP);
    1952:	08 4c       	BITCLR (R0, 0x1);		/* bit  1 */
    1954:	78 e6 d2 fd 	W[FP + -0x45c] = R0;
    1958:	00 e4 19 00 	R0 = [P0 + 0x64];
    195c:	38 e6 ff fe 	[FP + -0x404] = R0;
    1960:	39 af       	P1 = [FP + 0x30];
    1962:	c0 a1       	R0 = [P0 + 0x1c];
    1964:	2a e1 00 fc 	P2 = -0x400 (X);		/*		P2=0xfffffc00(-1024) */
    1968:	97 5a       	P2 = FP + P2;
    196a:	38 e6 ed fe 	[FP + -0x44c] = R0;
    196e:	40 a2       	R0 = [P0 + 0x24];
    1970:	38 e6 ef fe 	[FP + -0x444] = R0;
    1974:	3a e7 e6 fe 	[FP + -0x468] = P2;
    1978:	20 e1 00 04 	R0 = 0x400 (X);		/*		R0=0x400(1024) */
    197c:	3a e7 ea fe 	[FP + -0x458] = P2;
    1980:	2a e1 98 fb 	P2 = -0x468 (X);		/*		P2=0xfffffb98(-1128) */
    1984:	38 e6 e8 fe 	[FP + -0x460] = R0;
    1988:	38 e6 eb fe 	[FP + -0x454] = R0;
    198c:	ba 5a       	P2 = P2 + FP;
    198e:	00 cc 00 c0 	R0 = R0 -|- R0 || [SP + 0xc] = P1 || NOP;
    1992:	f1 bc 00 00 
    1996:	79 e6 d3 fd 	W[FP + -0x45a] = R1;
    199a:	38 e6 ec fe 	[FP + -0x450] = R0;
    199e:	4a 30       	R1 = P2;
    19a0:	44 30       	R0 = P4;
    19a2:	17 30       	R2 = R7;
    19a4:	ff e3 88 fe 	CALL 0x16b4 <__vfprintf_r>;
    19a8:	80 0c       	CC = R0 < 0x0;
    19aa:	38 e6 cd fe 	[FP + -0x4cc] = R0;
    19ae:	0f 18       	IF CC JUMP 0x19cc <__vfprintf_r+0x318>;
    19b0:	2b e1 98 fb 	P3 = -0x468 (X);		/*		P3=0xfffffb98(-1128) */
    19b4:	fb 5a       	P3 = P3 + FP;
    19b6:	44 30       	R0 = P4;
    19b8:	4b 30       	R1 = P3;
    19ba:	00 e3 65 14 	CALL 0x4284 <__fflush_r>;
    19be:	3d e5 cd fe 	P5 = [FP + -0x4cc];
    19c2:	00 0c       	CC = R0 == 0x0;
    19c4:	f8 63       	R0 = -0x1 (X);		/*		R0=0xffffffff( -1) */
    19c6:	a8 06       	IF !CC P5 = R0;
    19c8:	3d e7 cd fe 	[FP + -0x4cc] = P5;
    19cc:	78 e5 d2 fd 	R0 = W[FP + -0x45c] (X);
    19d0:	30 48       	CC = !BITTST (R0, 0x6);		/* bit  6 */
    19d2:	1b 18       	IF CC JUMP 0x1a08 <__vfprintf_r+0x354>;
    19d4:	00 00       	NOP;
    19d6:	00 00       	NOP;
    19d8:	04 32       	P0 = R4;
    19da:	80 a9       	R0 = W[P0 + 0xc] (X);
    19dc:	30 4a       	BITSET (R0, 0x6);		/* bit  6 */
    19de:	80 b5       	W[P0 + 0xc] = R0;
    19e0:	14 20       	JUMP.S 0x1a08 <__vfprintf_r+0x354>;
    19e2:	3d e4 db fe 	R5 = [FP + -0x494];
    19e6:	05 0c       	CC = R5 == 0x0;
    19e8:	09 1c       	IF CC JUMP 0x19fa <__vfprintf_r+0x346> (BP);
    19ea:	22 e1 64 fb 	R2 = -0x49c (X);		/*		R2=0xfffffb64(-1180) */
    19ee:	5f 30       	R3 = FP;
    19f0:	44 30       	R0 = P4;
    19f2:	0c 30       	R1 = R4;
    19f4:	93 50       	R2 = R3 + R2;
    19f6:	00 e3 61 22 	CALL 0x5eb8 <___sprint_r>;
    19fa:	04 32       	P0 = R4;
    19fc:	80 a9       	R0 = W[P0 + 0xc] (X);
    19fe:	30 48       	CC = !BITTST (R0, 0x6);		/* bit  6 */
    1a00:	04 1c       	IF CC JUMP 0x1a08 <__vfprintf_r+0x354> (BP);
    1a02:	f8 63       	R0 = -0x1 (X);		/*		R0=0xffffffff( -1) */
    1a04:	38 e6 cd fe 	[FP + -0x4cc] = R0;
    1a08:	38 e4 cd fe 	R0 = [FP + -0x4cc];
    1a0c:	01 e8 00 00 	UNLINK;
    1a10:	a3 05       	(R7:4, P5:3) = [SP++];
    1a12:	10 00       	RTS;
    1a14:	5f 30       	R3 = FP;
    1a16:	22 e1 64 fb 	R2 = -0x49c (X);		/*		R2=0xfffffb64(-1180) */
    1a1a:	44 30       	R0 = P4;
    1a1c:	0c 30       	R1 = R4;
    1a1e:	93 50       	R2 = R3 + R2;
    1a20:	00 e3 4c 22 	CALL 0x5eb8 <___sprint_r>;
    1a24:	00 0c       	CC = R0 == 0x0;
    1a26:	ea 13       	IF !CC JUMP 0x19fa <__vfprintf_r+0x346>;
    1a28:	2a e1 00 fc 	P2 = -0x400 (X);		/*		P2=0xfffffc00(-1024) */
    1a2c:	97 5a       	P2 = FP + P2;
    1a2e:	cc 2e       	JUMP.S 0x17c6 <__vfprintf_r+0x112>;
    1a30:	44 30       	R0 = P4;
    1a32:	00 e3 d9 14 	CALL 0x43e4 <___sinit>;
    1a36:	5c 2e       	JUMP.S 0x16ee <__vfprintf_r+0x3a>;
    1a38:	3d e5 cf fe 	P5 = [FP + -0x4c4];
    1a3c:	ca 2e       	JUMP.S 0x17d0 <__vfprintf_r+0x11c>;
    1a3e:	38 af       	P0 = [FP + 0x30];
    1a40:	00 60       	R0 = 0x0 (X);		/*		R0=0x0(  0) */
    1a42:	b8 e6 43 fb 	B[FP + -0x4bd] = R0;
    1a46:	3b af       	P3 = [FP + 0x30];
    1a48:	40 91       	P0 = [P0];
    1a4a:	39 e7 cf fe 	[FP + -0x4c4] = P1;
    1a4e:	23 6c       	P3 += 0x4;		/* (  4) */
    1a50:	40 0c       	CC = P0 == 0x0;
    1a52:	38 e7 c8 fe 	[FP + -0x4e0] = P0;
    1a56:	03 14       	IF !CC JUMP 0x1a5c <__vfprintf_r+0x3a8> (BP);
    1a58:	00 e2 35 08 	JUMP.L 0x2ac2 <__vfprintf_r+0x140e>;
    1a5c:	87 0c       	CC = R7 < 0x0;
    1a5e:	38 e4 c8 fe 	R0 = [FP + -0x4e0];
    1a62:	02 14       	IF !CC JUMP 0x1a66 <__vfprintf_r+0x3b2> (BP);
    1a64:	cb 27       	JUMP.S 0x29fa <__vfprintf_r+0x1346>;
    1a66:	17 30       	R2 = R7;
    1a68:	01 60       	R1 = 0x0 (X);		/*		R1=0x0(  0) */
    1a6a:	3a e7 ba fe 	[FP + -0x518] = P2;
    1a6e:	00 e3 f7 1a 	CALL 0x505c <_memchr>;
    1a72:	00 0c       	CC = R0 == 0x0;
    1a74:	3a e5 ba fe 	P2 = [FP + -0x518];
    1a78:	03 14       	IF !CC JUMP 0x1a7e <__vfprintf_r+0x3ca> (BP);
    1a7a:	00 e2 c3 08 	JUMP.L 0x2c00 <__vfprintf_r+0x154c>;
    1a7e:	3b e4 c8 fe 	R3 = [FP + -0x4e0];
    1a82:	18 52       	R0 = R0 - R3;
    1a84:	38 09       	CC = R0 <= R7;
    1a86:	38 e6 cc fe 	[FP + -0x4d0] = R0;
    1a8a:	00 60       	R0 = 0x0 (X);		/*		R0=0x0(  0) */
    1a8c:	02 10       	IF !CC JUMP 0x1a90 <__vfprintf_r+0x3dc>;
    1a8e:	42 27       	JUMP.S 0x2912 <__vfprintf_r+0x125e>;
    1a90:	07 cc 38 00 	R0 = MAX (R7, R0) || [FP + 0x30] = P3 || NOP;
    1a94:	3b bf 00 00 
    1a98:	00 68       	P0 = 0x0 (X);		/*		P0=0x0(  0) */
    1a9a:	03 60       	R3 = 0x0 (X);		/*		R3=0x0(  0) */
    1a9c:	38 e6 ce fe 	[FP + -0x4c8] = R0;
    1aa0:	3f e6 cc fe 	[FP + -0x4d0] = R7;
    1aa4:	b8 e5 43 fb 	R0 = B[FP + -0x4bd] (X);
    1aa8:	38 e7 c7 fe 	[FP + -0x4e4] = P0;
    1aac:	3b e6 c2 fe 	[FP + -0x4f8] = R3;
    1ab0:	47 20       	JUMP.S 0x1b3e <__vfprintf_r+0x48a>;
    1ab2:	06 4a       	BITSET (R6, 0x0);		/* bit  0 */
    1ab4:	9e 2e       	JUMP.S 0x17f0 <__vfprintf_r+0x13c>;
    1ab6:	3b b3       	[FP + 0x30] = R3;
    1ab8:	9c 2e       	JUMP.S 0x17f0 <__vfprintf_r+0x13c>;
    1aba:	3d af       	P5 = [FP + 0x30];
    1abc:	81 61       	R1 = 0x30 (X);		/*		R1=0x30( 48) */
    1abe:	54 e1 00 00 	M0.H = 0x0;		/* (  0)	M0=0x0(  0) */
    1ac2:	14 e1 c8 87 	M0.L = 0x87c8;		/* (-30776)	M0=0x87c8(34760) */
    1ac6:	28 91       	R0 = [P5];
    1ac8:	b9 e6 44 fb 	B[FP + -0x4bc] = R1;
    1acc:	21 e1 78 00 	R1 = 0x78 (X);		/*		R1=0x78(120) */
    1ad0:	b9 e6 45 fb 	B[FP + -0x4bb] = R1;
    1ad4:	25 6c       	P5 += 0x4;		/* (  4) */
    1ad6:	8c 30       	R1 = M0;
    1ad8:	39 e6 bd fe 	[FP + -0x50c] = R1;
    1adc:	39 e7 cf fe 	[FP + -0x4c4] = P1;
    1ae0:	0e 4a       	BITSET (R6, 0x1);		/* bit  1 */
    1ae2:	3d bf       	[FP + 0x30] = P5;
    1ae4:	11 60       	R1 = 0x2 (X);		/*		R1=0x2(  2) */
    1ae6:	25 e1 78 00 	R5 = 0x78 (X);		/*		R5=0x78(120) */
    1aea:	02 60       	R2 = 0x0 (X);		/*		R2=0x0(  0) */
    1aec:	ba e6 43 fb 	B[FP + -0x4bd] = R2;
    1af0:	16 30       	R2 = R6;
    1af2:	87 0c       	CC = R7 < 0x0;
    1af4:	3a 4c       	BITCLR (R2, 0x7);		/* bit  7 */
    1af6:	32 06       	IF !CC R6 = R2;
    1af8:	00 0c       	CC = R0 == 0x0;
    1afa:	49 43       	R1 = R1.B (Z);
    1afc:	ce 14       	IF !CC JUMP 0x1c98 <__vfprintf_r+0x5e4> (BP);
    1afe:	07 0c       	CC = R7 == 0x0;
    1b00:	cc 14       	IF !CC JUMP 0x1c98 <__vfprintf_r+0x5e4> (BP);
    1b02:	01 0c       	CC = R1 == 0x0;
    1b04:	02 18       	IF CC JUMP 0x1b08 <__vfprintf_r+0x454>;
    1b06:	08 24       	JUMP.S 0x2316 <__vfprintf_r+0xc62>;
    1b08:	06 48       	CC = !BITTST (R6, 0x0);		/* bit  0 */
    1b0a:	02 10       	IF !CC JUMP 0x1b0e <__vfprintf_r+0x45a>;
    1b0c:	05 24       	JUMP.S 0x2316 <__vfprintf_r+0xc62>;
    1b0e:	80 61       	R0 = 0x30 (X);		/*		R0=0x30( 48) */
    1b10:	38 e5 c5 fe 	P0 = [FP + -0x4ec];
    1b14:	3b e4 bc fe 	R3 = [FP + -0x510];
    1b18:	b8 e6 97 fb 	B[FP + -0x469] = R0;
    1b1c:	3b e6 cc fe 	[FP + -0x4d0] = R3;
    1b20:	38 e7 c8 fe 	[FP + -0x4e0] = P0;
    1b24:	3b e4 cc fe 	R3 = [FP + -0x4d0];
    1b28:	07 c4 1f 06 	R3 = MAX (R3, R7);
    1b2c:	3b e6 ce fe 	[FP + -0x4c8] = R3;
    1b30:	03 60       	R3 = 0x0 (X);		/*		R3=0x0(  0) */
    1b32:	b8 e5 43 fb 	R0 = B[FP + -0x4bd] (X);
    1b36:	3f e6 c7 fe 	[FP + -0x4e4] = R7;
    1b3a:	3b e6 c2 fe 	[FP + -0x4f8] = R3;
    1b3e:	00 43       	R0 = R0.B (X);
    1b40:	00 0c       	CC = R0 == 0x0;
    1b42:	79 1a       	IF CC JUMP 0x1834 <__vfprintf_r+0x180>;
    1b44:	3b e4 ce fe 	R3 = [FP + -0x4c8];
    1b48:	0b 64       	R3 += 0x1;		/* (  1) */
    1b4a:	3b e6 ce fe 	[FP + -0x4c8] = R3;
    1b4e:	73 2e       	JUMP.S 0x1834 <__vfprintf_r+0x180>;
    1b50:	4d 98       	R5 = B[P1++] (X);
    1b52:	53 61       	R3 = 0x2a (X);		/*		R3=0x2a( 42) */
    1b54:	1d 08       	CC = R5 == R3;
    1b56:	03 14       	IF !CC JUMP 0x1b5c <__vfprintf_r+0x4a8> (BP);
    1b58:	00 e2 1c 09 	JUMP.L 0x2d90 <__vfprintf_r+0x16dc>;
    1b5c:	05 32       	P0 = R5;
    1b5e:	4b 68       	P3 = 0x9 (X);		/*		P3=0x9(  9) */
    1b60:	07 60       	R7 = 0x0 (X);		/*		R7=0x0(  0) */
    1b62:	80 6e       	P0 += -0x30;		/* (-48) */
    1b64:	58 0a       	CC = P0 <= P3 (IU);
    1b66:	47 12       	IF !CC JUMP 0x17f4 <__vfprintf_r+0x140>;
    1b68:	59 30       	R3 = P1;
    1b6a:	05 68       	P5 = 0x0 (X);		/*		P5=0x0(  0) */
    1b6c:	6d 5f       	P5 = P5 + (P5 << 0x2);
    1b6e:	68 5d       	P5 = P0 + (P5 << 0x1);
    1b70:	03 32       	P0 = R3;
    1b72:	4b 68       	P3 = 0x9 (X);		/*		P3=0x9(  9) */
    1b74:	0b 64       	R3 += 0x1;		/* (  1) */
    1b76:	0b 32       	P1 = R3;
    1b78:	45 98       	R5 = B[P0++] (X);
    1b7a:	05 32       	P0 = R5;
    1b7c:	80 6e       	P0 += -0x30;		/* (-48) */
    1b7e:	58 0a       	CC = P0 <= P3 (IU);
    1b80:	f6 1f       	IF CC JUMP 0x1b6c <__vfprintf_r+0x4b8> (BP);
    1b82:	5d 30       	R3 = P5;
    1b84:	07 c4 19 0e 	R7 = MAX (R3, R1);
    1b88:	36 2e       	JUMP.S 0x17f4 <__vfprintf_r+0x140>;
    1b8a:	1e 4a       	BITSET (R6, 0x3);		/* bit  3 */
    1b8c:	32 2e       	JUMP.S 0x17f0 <__vfprintf_r+0x13c>;
    1b8e:	39 e7 cf fe 	[FP + -0x4c4] = P1;
    1b92:	26 4a       	BITSET (R6, 0x4);		/* bit  4 */
    1b94:	26 48       	CC = !BITTST (R6, 0x4);		/* bit  4 */
    1b96:	02 10       	IF !CC JUMP 0x1b9a <__vfprintf_r+0x4e6>;
    1b98:	64 24       	JUMP.S 0x2460 <__vfprintf_r+0xdac>;
    1b9a:	38 af       	P0 = [FP + 0x30];
    1b9c:	01 60       	R1 = 0x0 (X);		/*		R1=0x0(  0) */
    1b9e:	00 91       	R0 = [P0];
    1ba0:	20 6c       	P0 += 0x4;		/* (  4) */
    1ba2:	38 bf       	[FP + 0x30] = P0;
    1ba4:	a3 2f       	JUMP.S 0x1aea <__vfprintf_r+0x436>;
    1ba6:	39 e7 cf fe 	[FP + -0x4c4] = P1;
    1baa:	26 4a       	BITSET (R6, 0x4);		/* bit  4 */
    1bac:	26 48       	CC = !BITTST (R6, 0x4);		/* bit  4 */
    1bae:	02 10       	IF !CC JUMP 0x1bb2 <__vfprintf_r+0x4fe>;
    1bb0:	50 24       	JUMP.S 0x2450 <__vfprintf_r+0xd9c>;
    1bb2:	38 af       	P0 = [FP + 0x30];
    1bb4:	09 60       	R1 = 0x1 (X);		/*		R1=0x1(  1) */
    1bb6:	00 91       	R0 = [P0];
    1bb8:	20 6c       	P0 += 0x4;		/* (  4) */
    1bba:	38 bf       	[FP + 0x30] = P0;
    1bbc:	97 2f       	JUMP.S 0x1aea <__vfprintf_r+0x436>;
    1bbe:	bb e5 43 fb 	R3 = B[FP + -0x4bd] (X);
    1bc2:	03 0c       	CC = R3 == 0x0;
    1bc4:	16 16       	IF !CC JUMP 0x17f0 <__vfprintf_r+0x13c> (BP);
    1bc6:	ba e6 43 fb 	B[FP + -0x4bd] = R2;
    1bca:	13 2e       	JUMP.S 0x17f0 <__vfprintf_r+0x13c>;
    1bcc:	38 af       	P0 = [FP + 0x30];
    1bce:	39 e7 cf fe 	[FP + -0x4c4] = P1;
    1bd2:	40 99       	R0 = B[P0] (X);
    1bd4:	b8 e6 70 fb 	B[FP + -0x490] = R0;
    1bd8:	20 6c       	P0 += 0x4;		/* (  4) */
    1bda:	00 60       	R0 = 0x0 (X);		/*		R0=0x0(  0) */
    1bdc:	b8 e6 43 fb 	B[FP + -0x4bd] = R0;
    1be0:	38 bf       	[FP + 0x30] = P0;
    1be2:	18 2e       	JUMP.S 0x1812 <__vfprintf_r+0x15e>;
    1be4:	36 4a       	BITSET (R6, 0x6);		/* bit  6 */
    1be6:	05 2e       	JUMP.S 0x17f0 <__vfprintf_r+0x13c>;
    1be8:	54 e1 00 00 	M0.H = 0x0;		/* (  0)	M0=0x87c8(34760) */
    1bec:	14 e1 c8 87 	M0.L = 0x87c8;		/* (-30776)	M0=0x87c8(34760) */
    1bf0:	84 30       	R0 = M0;
    1bf2:	26 48       	CC = !BITTST (R6, 0x4);		/* bit  4 */
    1bf4:	39 e7 cf fe 	[FP + -0x4c4] = P1;
    1bf8:	38 e6 bd fe 	[FP + -0x50c] = R0;
    1bfc:	2c 1c       	IF CC JUMP 0x1c54 <__vfprintf_r+0x5a0> (BP);
    1bfe:	38 af       	P0 = [FP + 0x30];
    1c00:	00 91       	R0 = [P0];
    1c02:	20 6c       	P0 += 0x4;		/* (  4) */
    1c04:	38 bf       	[FP + 0x30] = P0;
    1c06:	06 48       	CC = !BITTST (R6, 0x0);		/* bit  0 */
    1c08:	02 10       	IF !CC JUMP 0x1c0c <__vfprintf_r+0x558>;
    1c0a:	8e 23       	JUMP.S 0x2326 <__vfprintf_r+0xc72>;
    1c0c:	00 0c       	CC = R0 == 0x0;
    1c0e:	02 10       	IF !CC JUMP 0x1c12 <__vfprintf_r+0x55e>;
    1c10:	8b 23       	JUMP.S 0x2326 <__vfprintf_r+0xc72>;
    1c12:	81 61       	R1 = 0x30 (X);		/*		R1=0x30( 48) */
    1c14:	b9 e6 44 fb 	B[FP + -0x4bc] = R1;
    1c18:	bd e6 45 fb 	B[FP + -0x4bb] = R5;
    1c1c:	0e 4a       	BITSET (R6, 0x1);		/* bit  1 */
    1c1e:	11 60       	R1 = 0x2 (X);		/*		R1=0x2(  2) */
    1c20:	65 2f       	JUMP.S 0x1aea <__vfprintf_r+0x436>;
    1c22:	26 48       	CC = !BITTST (R6, 0x4);		/* bit  4 */
    1c24:	39 e7 cf fe 	[FP + -0x4c4] = P1;
    1c28:	c0 14       	IF !CC JUMP 0x1da8 <__vfprintf_r+0x6f4> (BP);
    1c2a:	36 48       	CC = !BITTST (R6, 0x6);		/* bit  6 */
    1c2c:	be 1c       	IF CC JUMP 0x1da8 <__vfprintf_r+0x6f4> (BP);
    1c2e:	38 af       	P0 = [FP + 0x30];
    1c30:	78 e5 9a fd 	R0 = W[FP + -0x4cc] (X);
    1c34:	41 91       	P1 = [P0];
    1c36:	20 6c       	P0 += 0x4;		/* (  4) */
    1c38:	38 bf       	[FP + 0x30] = P0;
    1c3a:	08 97       	W[P1] = R0;
    1c3c:	99 2d       	JUMP.S 0x176e <__vfprintf_r+0xba>;
    1c3e:	54 e1 00 00 	M0.H = 0x0;		/* (  0)	M0=0x87c8(34760) */
    1c42:	14 e1 b4 87 	M0.L = 0x87b4;		/* (-30796)	M0=0x87b4(34740) */
    1c46:	84 30       	R0 = M0;
    1c48:	26 48       	CC = !BITTST (R6, 0x4);		/* bit  4 */
    1c4a:	39 e7 cf fe 	[FP + -0x4c4] = P1;
    1c4e:	38 e6 bd fe 	[FP + -0x50c] = R0;
    1c52:	d6 17       	IF !CC JUMP 0x1bfe <__vfprintf_r+0x54a> (BP);
    1c54:	36 48       	CC = !BITTST (R6, 0x6);		/* bit  6 */
    1c56:	02 10       	IF !CC JUMP 0x1c5a <__vfprintf_r+0x5a6>;
    1c58:	d1 25       	JUMP.S 0x27fa <__vfprintf_r+0x1146>;
    1c5a:	39 af       	P1 = [FP + 0x30];
    1c5c:	08 95       	R0 = W[P1] (Z);
    1c5e:	21 6c       	P1 += 0x4;		/* (  4) */
    1c60:	39 bf       	[FP + 0x30] = P1;
    1c62:	d2 2f       	JUMP.S 0x1c06 <__vfprintf_r+0x552>;
    1c64:	3e 4a       	BITSET (R6, 0x7);		/* bit  7 */
    1c66:	c5 2d       	JUMP.S 0x17f0 <__vfprintf_r+0x13c>;
    1c68:	b8 e6 43 fb 	B[FP + -0x4bd] = R0;
    1c6c:	c2 2d       	JUMP.S 0x17f0 <__vfprintf_r+0x13c>;
    1c6e:	39 e7 cf fe 	[FP + -0x4c4] = P1;
    1c72:	26 4a       	BITSET (R6, 0x4);		/* bit  4 */
    1c74:	26 48       	CC = !BITTST (R6, 0x4);		/* bit  4 */
    1c76:	02 10       	IF !CC JUMP 0x1c7a <__vfprintf_r+0x5c6>;
    1c78:	e5 23       	JUMP.S 0x2442 <__vfprintf_r+0xd8e>;
    1c7a:	39 af       	P1 = [FP + 0x30];
    1c7c:	08 91       	R0 = [P1];
    1c7e:	21 6c       	P1 += 0x4;		/* (  4) */
    1c80:	39 bf       	[FP + 0x30] = P1;
    1c82:	80 0c       	CC = R0 < 0x0;
    1c84:	02 14       	IF !CC JUMP 0x1c88 <__vfprintf_r+0x5d4> (BP);
    1c86:	e4 24       	JUMP.S 0x264e <__vfprintf_r+0xf9a>;
    1c88:	16 30       	R2 = R6;
    1c8a:	87 0c       	CC = R7 < 0x0;
    1c8c:	3a 4c       	BITCLR (R2, 0x7);		/* bit  7 */
    1c8e:	09 60       	R1 = 0x1 (X);		/*		R1=0x1(  1) */
    1c90:	32 06       	IF !CC R6 = R2;
    1c92:	00 0c       	CC = R0 == 0x0;
    1c94:	49 43       	R1 = R1.B (Z);
    1c96:	34 1f       	IF CC JUMP 0x1afe <__vfprintf_r+0x44a> (BP);
    1c98:	09 0c       	CC = R1 == 0x1;
    1c9a:	02 14       	IF !CC JUMP 0x1c9e <__vfprintf_r+0x5ea> (BP);
    1c9c:	38 23       	JUMP.S 0x230c <__vfprintf_r+0xc58>;
    1c9e:	11 0c       	CC = R1 == 0x2;
    1ca0:	39 e4 c5 fe 	R1 = [FP + -0x4ec];
    1ca4:	02 14       	IF !CC JUMP 0x1ca8 <__vfprintf_r+0x5f4> (BP);
    1ca6:	6d 22       	JUMP.S 0x2180 <__vfprintf_r+0xacc>;
    1ca8:	3b 60       	R3 = 0x7 (X);		/*		R3=0x7(  7) */
    1caa:	09 32       	P1 = R1;
    1cac:	98 54       	R2 = R0 & R3;
    1cae:	18 4e       	R0 >>= 0x3;
    1cb0:	82 65       	R2 += 0x30;		/* ( 48) */
    1cb2:	00 0c       	CC = R0 == 0x0;
    1cb4:	0a 9b       	B[P1] = R2;
    1cb6:	f9 67       	R1 += -0x1;		/* ( -1) */
    1cb8:	f9 17       	IF !CC JUMP 0x1caa <__vfprintf_r+0x5f6> (BP);
    1cba:	06 48       	CC = !BITTST (R6, 0x0);		/* bit  0 */
    1cbc:	39 e7 c8 fe 	[FP + -0x4e0] = P1;
    1cc0:	02 10       	IF !CC JUMP 0x1cc4 <__vfprintf_r+0x610>;
    1cc2:	6f 22       	JUMP.S 0x21a0 <__vfprintf_r+0xaec>;
    1cc4:	12 43       	R2 = R2.B (X);
    1cc6:	80 61       	R0 = 0x30 (X);		/*		R0=0x30( 48) */
    1cc8:	02 08       	CC = R2 == R0;
    1cca:	02 14       	IF !CC JUMP 0x1cce <__vfprintf_r+0x61a> (BP);
    1ccc:	6c 26       	JUMP.S 0x29a4 <__vfprintf_r+0x12f0>;
    1cce:	80 61       	R0 = 0x30 (X);		/*		R0=0x30( 48) */
    1cd0:	88 e6 ff ff 	B[P1 + -0x1] = R0;
    1cd4:	39 e6 c8 fe 	[FP + -0x4e0] = R1;
    1cd8:	38 e4 c4 fe 	R0 = [FP + -0x4f0];
    1cdc:	08 52       	R0 = R0 - R1;
    1cde:	38 e6 cc fe 	[FP + -0x4d0] = R0;
    1ce2:	21 2f       	JUMP.S 0x1b24 <__vfprintf_r+0x470>;
    1ce4:	1e 48       	CC = !BITTST (R6, 0x3);		/* bit  3 */
    1ce6:	39 e7 cf fe 	[FP + -0x4c4] = P1;
    1cea:	02 10       	IF !CC JUMP 0x1cee <__vfprintf_r+0x63a>;
    1cec:	78 25       	JUMP.S 0x27dc <__vfprintf_r+0x1128>;
    1cee:	38 af       	P0 = [FP + 0x30];
    1cf0:	43 ac       	P3 = [P0 + 0x4];
    1cf2:	03 91       	R3 = [P0];
    1cf4:	40 6c       	P0 += 0x8;		/* (  8) */
    1cf6:	3b e6 bf fe 	[FP + -0x504] = R3;
    1cfa:	3b e7 c0 fe 	[FP + -0x500] = P3;
    1cfe:	38 bf       	[FP + 0x30] = P0;
    1d00:	03 30       	R0 = R3;
    1d02:	4b 30       	R1 = P3;
    1d04:	3b e6 bb fe 	[FP + -0x514] = R3;
    1d08:	3a e7 ba fe 	[FP + -0x518] = P2;
    1d0c:	00 e3 74 1f 	CALL 0x5bf4 <___fpclassifyd>;
    1d10:	08 0c       	CC = R0 == 0x1;
    1d12:	3b e4 bb fe 	R3 = [FP + -0x514];
    1d16:	3a e5 ba fe 	P2 = [FP + -0x518];
    1d1a:	02 18       	IF CC JUMP 0x1d1e <__vfprintf_r+0x66a>;
    1d1c:	9f 24       	JUMP.S 0x265a <__vfprintf_r+0xfa6>;
    1d1e:	00 60       	R0 = 0x0 (X);		/*		R0=0x0(  0) */
    1d20:	f0 b0       	[SP + 0xc] = R0;
    1d22:	02 60       	R2 = 0x0 (X);		/*		R2=0x0(  0) */
    1d24:	03 30       	R0 = R3;
    1d26:	4b 30       	R1 = P3;
    1d28:	00 e3 02 32 	CALL 0x812c <___ltdf2>;
    1d2c:	80 0c       	CC = R0 < 0x0;
    1d2e:	3a e5 ba fe 	P2 = [FP + -0x518];
    1d32:	02 14       	IF !CC JUMP 0x1d36 <__vfprintf_r+0x682> (BP);
    1d34:	e6 26       	JUMP.S 0x2b00 <__vfprintf_r+0x144c>;
    1d36:	b8 e5 43 fb 	R0 = B[FP + -0x4bd] (X);
    1d3a:	21 e1 47 00 	R1 = 0x47 (X);		/*		R1=0x47( 71) */
    1d3e:	0d 09       	CC = R5 <= R1;
    1d40:	4d e1 00 00 	P5.H = 0x0;		/* (  0)	P5=0x0 */
    1d44:	41 e1 00 00 	R1.H = 0x0;		/* (  0)	R1=0x47( 71) */
    1d48:	01 e1 a4 87 	R1.L = 0x87a4;		/* (-30812)	R1=0x87a4(34724) */
    1d4c:	0d e1 a8 87 	P5.L = 0x87a8;		/* (-30808)	P5=0x87a8 */
    1d50:	a9 07       	IF CC P5 = R1;
    1d52:	3d e7 c8 fe 	[FP + -0x4e0] = P5;
    1d56:	3e 4c       	BITCLR (R6, 0x7);		/* bit  7 */
    1d58:	1b 60       	R3 = 0x3 (X);		/*		R3=0x3(  3) */
    1d5a:	3b e6 ce fe 	[FP + -0x4c8] = R3;
    1d5e:	18 68       	P0 = 0x3 (X);		/*		P0=0x3(  3) */
    1d60:	01 68       	P1 = 0x0 (X);		/*		P1=0x0(  0) */
    1d62:	03 60       	R3 = 0x0 (X);		/*		R3=0x0(  0) */
    1d64:	38 e7 cc fe 	[FP + -0x4d0] = P0;
    1d68:	39 e7 c7 fe 	[FP + -0x4e4] = P1;
    1d6c:	3b e6 c2 fe 	[FP + -0x4f8] = R3;
    1d70:	e7 2e       	JUMP.S 0x1b3e <__vfprintf_r+0x48a>;
    1d72:	05 32       	P0 = R5;
    1d74:	59 30       	R3 = P1;
    1d76:	03 68       	P3 = 0x0 (X);		/*		P3=0x0(  0) */
    1d78:	80 6e       	P0 += -0x30;		/* (-48) */
    1d7a:	db 5e       	P3 = P3 + (P3 << 0x2);
    1d7c:	d8 5c       	P3 = P0 + (P3 << 0x1);
    1d7e:	03 32       	P0 = R3;
    1d80:	4d 68       	P5 = 0x9 (X);		/*		P5=0x9(  9) */
    1d82:	0b 64       	R3 += 0x1;		/* (  1) */
    1d84:	0b 32       	P1 = R3;
    1d86:	45 98       	R5 = B[P0++] (X);
    1d88:	05 32       	P0 = R5;
    1d8a:	80 6e       	P0 += -0x30;		/* (-48) */
    1d8c:	68 0a       	CC = P0 <= P5 (IU);
    1d8e:	f6 1f       	IF CC JUMP 0x1d7a <__vfprintf_r+0x6c6> (BP);
    1d90:	3b e7 cb fe 	[FP + -0x4d4] = P3;
    1d94:	30 2d       	JUMP.S 0x17f4 <__vfprintf_r+0x140>;
    1d96:	39 e7 cf fe 	[FP + -0x4c4] = P1;
    1d9a:	09 2f       	JUMP.S 0x1bac <__vfprintf_r+0x4f8>;
    1d9c:	39 e7 cf fe 	[FP + -0x4c4] = P1;
    1da0:	fa 2e       	JUMP.S 0x1b94 <__vfprintf_r+0x4e0>;
    1da2:	39 e7 cf fe 	[FP + -0x4c4] = P1;
    1da6:	67 2f       	JUMP.S 0x1c74 <__vfprintf_r+0x5c0>;
    1da8:	3b af       	P3 = [FP + 0x30];
    1daa:	38 e4 cd fe 	R0 = [FP + -0x4cc];
    1dae:	59 91       	P1 = [P3];
    1db0:	23 6c       	P3 += 0x4;		/* (  4) */
    1db2:	08 93       	[P1] = R0;
    1db4:	3b bf       	[FP + 0x30] = P3;
    1db6:	dc 2c       	JUMP.S 0x176e <__vfprintf_r+0xba>;
    1db8:	5f 30       	R3 = FP;
    1dba:	22 e1 64 fb 	R2 = -0x49c (X);		/*		R2=0xfffffb64(-1180) */
    1dbe:	44 30       	R0 = P4;
    1dc0:	0c 30       	R1 = R4;
    1dc2:	93 50       	R2 = R3 + R2;
    1dc4:	00 e3 7a 20 	CALL 0x5eb8 <___sprint_r>;
    1dc8:	00 0c       	CC = R0 == 0x0;
    1dca:	18 12       	IF !CC JUMP 0x19fa <__vfprintf_r+0x346>;
    1dcc:	2a e1 00 fc 	P2 = -0x400 (X);		/*		P2=0xfffffc00(-1024) */
    1dd0:	97 5a       	P2 = FP + P2;
    1dd2:	3b e4 db fe 	R3 = [FP + -0x494];
    1dd6:	b8 e5 43 fb 	R0 = B[FP + -0x4bd] (X);
    1dda:	00 0c       	CC = R0 == 0x0;
    1ddc:	14 1c       	IF CC JUMP 0x1e04 <__vfprintf_r+0x750> (BP);
    1dde:	08 60       	R0 = 0x1 (X);		/*		R0=0x1(  1) */
    1de0:	50 b0       	[P2 + 0x4] = R0;
    1de2:	38 e4 da fe 	R0 = [FP + -0x498];
    1de6:	08 64       	R0 += 0x1;		/* (  1) */
    1de8:	29 e1 43 fb 	P1 = -0x4bd (X);		/*		P1=0xfffffb43(-1213) */
    1dec:	39 60       	R1 = 0x7 (X);		/*		R1=0x7(  7) */
    1dee:	4f 5a       	P1 = FP + P1;
    1df0:	0b 64       	R3 += 0x1;		/* (  1) */
    1df2:	08 09       	CC = R0 <= R1;
    1df4:	51 93       	[P2] = P1;
    1df6:	3b e6 db fe 	[FP + -0x494] = R3;
    1dfa:	38 e6 da fe 	[FP + -0x498] = R0;
    1dfe:	02 1c       	IF CC JUMP 0x1e02 <__vfprintf_r+0x74e> (BP);
    1e00:	64 22       	JUMP.S 0x22c8 <__vfprintf_r+0xc14>;
    1e02:	42 6c       	P2 += 0x8;		/* (  8) */
    1e04:	38 e4 ca fe 	R0 = [FP + -0x4d8];
    1e08:	00 0c       	CC = R0 == 0x0;
    1e0a:	14 1c       	IF CC JUMP 0x1e32 <__vfprintf_r+0x77e> (BP);
    1e0c:	10 60       	R0 = 0x2 (X);		/*		R0=0x2(  2) */
    1e0e:	50 b0       	[P2 + 0x4] = R0;
    1e10:	38 e4 da fe 	R0 = [FP + -0x498];
    1e14:	08 64       	R0 += 0x1;		/* (  1) */
    1e16:	29 e1 44 fb 	P1 = -0x4bc (X);		/*		P1=0xfffffb44(-1212) */
    1e1a:	39 60       	R1 = 0x7 (X);		/*		R1=0x7(  7) */
    1e1c:	4f 5a       	P1 = FP + P1;
    1e1e:	13 64       	R3 += 0x2;		/* (  2) */
    1e20:	08 09       	CC = R0 <= R1;
    1e22:	51 93       	[P2] = P1;
    1e24:	3b e6 db fe 	[FP + -0x494] = R3;
    1e28:	38 e6 da fe 	[FP + -0x498] = R0;
    1e2c:	02 1c       	IF CC JUMP 0x1e30 <__vfprintf_r+0x77c> (BP);
    1e2e:	5e 22       	JUMP.S 0x22ea <__vfprintf_r+0xc36>;
    1e30:	42 6c       	P2 += 0x8;		/* (  8) */
    1e32:	21 e1 80 00 	R1 = 0x80 (X);		/*		R1=0x80(128) */
    1e36:	38 e4 c9 fe 	R0 = [FP + -0x4dc];
    1e3a:	08 08       	CC = R0 == R1;
    1e3c:	55 19       	IF CC JUMP 0x20e6 <__vfprintf_r+0xa32>;
    1e3e:	3b e5 c7 fe 	P3 = [FP + -0x4e4];
    1e42:	38 e5 cc fe 	P0 = [FP + -0x4d0];
    1e46:	03 44       	P3 -= P0;
    1e48:	43 0d       	CC = P3 <= 0x0;
    1e4a:	3f 18       	IF CC JUMP 0x1ec8 <__vfprintf_r+0x814>;
    1e4c:	81 68       	P1 = 0x10 (X);		/*		P1=0x10( 16) */
    1e4e:	4d e1 00 00 	P5.H = 0x0;		/* (  0)	P5=0x9 */
    1e52:	4b 09       	CC = P3 <= P1;
    1e54:	3f e4 da fe 	R7 = [FP + -0x498];
    1e58:	0d e1 5c 89 	P5.L = 0x895c;		/* (-30372)	P5=0x895c <_zeroes.4060> */
    1e5c:	07 14       	IF !CC JUMP 0x1e6a <__vfprintf_r+0x7b6> (BP);
    1e5e:	28 20       	JUMP.S 0x1eae <__vfprintf_r+0x7fa>;
    1e60:	83 6f       	P3 += -0x10;		/* (-16) */
    1e62:	80 68       	P0 = 0x10 (X);		/*		P0=0x10( 16) */
    1e64:	43 09       	CC = P3 <= P0;
    1e66:	42 6c       	P2 += 0x8;		/* (  8) */
    1e68:	23 18       	IF CC JUMP 0x1eae <__vfprintf_r+0x7fa>;
    1e6a:	80 60       	R0 = 0x10 (X);		/*		R0=0x10( 16) */
    1e6c:	50 b0       	[P2 + 0x4] = R0;
    1e6e:	0f 64       	R7 += 0x1;		/* (  1) */
    1e70:	38 60       	R0 = 0x7 (X);		/*		R0=0x7(  7) */
    1e72:	83 64       	R3 += 0x10;		/* ( 16) */
    1e74:	07 09       	CC = R7 <= R0;
    1e76:	55 93       	[P2] = P5;
    1e78:	3b e6 db fe 	[FP + -0x494] = R3;
    1e7c:	3f e6 da fe 	[FP + -0x498] = R7;
    1e80:	f0 1f       	IF CC JUMP 0x1e60 <__vfprintf_r+0x7ac> (BP);
    1e82:	28 e1 64 fb 	P0 = -0x49c (X);		/*		P0=0xfffffb64(-1180) */
    1e86:	38 5a       	P0 = P0 + FP;
    1e88:	44 30       	R0 = P4;
    1e8a:	0c 30       	R1 = R4;
    1e8c:	50 30       	R2 = P0;
    1e8e:	00 e3 15 20 	CALL 0x5eb8 <___sprint_r>;
    1e92:	00 0c       	CC = R0 == 0x0;
    1e94:	02 1c       	IF CC JUMP 0x1e98 <__vfprintf_r+0x7e4> (BP);
    1e96:	b2 2d       	JUMP.S 0x19fa <__vfprintf_r+0x346>;
    1e98:	83 6f       	P3 += -0x10;		/* (-16) */
    1e9a:	80 68       	P0 = 0x10 (X);		/*		P0=0x10( 16) */
    1e9c:	29 e1 00 fc 	P1 = -0x400 (X);		/*		P1=0xfffffc00(-1024) */
    1ea0:	43 09       	CC = P3 <= P0;
    1ea2:	8f 5a       	P2 = FP + P1;
    1ea4:	3b e4 db fe 	R3 = [FP + -0x494];
    1ea8:	3f e4 da fe 	R7 = [FP + -0x498];
    1eac:	df 17       	IF !CC JUMP 0x1e6a <__vfprintf_r+0x7b6> (BP);
    1eae:	0f 64       	R7 += 0x1;		/* (  1) */
    1eb0:	43 30       	R0 = P3;
    1eb2:	39 60       	R1 = 0x7 (X);		/*		R1=0x7(  7) */
    1eb4:	c3 50       	R3 = R3 + R0;
    1eb6:	0f 09       	CC = R7 <= R1;
    1eb8:	55 93       	[P2] = P5;
    1eba:	53 bc       	[P2 + 0x4] = P3;
    1ebc:	3b e6 db fe 	[FP + -0x494] = R3;
    1ec0:	3f e6 da fe 	[FP + -0x498] = R7;
    1ec4:	f1 11       	IF !CC JUMP 0x22a6 <__vfprintf_r+0xbf2>;
    1ec6:	42 6c       	P2 += 0x8;		/* (  8) */
    1ec8:	46 48       	CC = !BITTST (R6, 0x8);		/* bit  8 */
    1eca:	95 14       	IF !CC JUMP 0x1ff4 <__vfprintf_r+0x940> (BP);
    1ecc:	38 e4 cc fe 	R0 = [FP + -0x4d0];
    1ed0:	38 e5 c8 fe 	P0 = [FP + -0x4e0];
    1ed4:	50 b0       	[P2 + 0x4] = R0;
    1ed6:	c3 50       	R3 = R3 + R0;
    1ed8:	38 e4 da fe 	R0 = [FP + -0x498];
    1edc:	08 64       	R0 += 0x1;		/* (  1) */
    1ede:	39 60       	R1 = 0x7 (X);		/*		R1=0x7(  7) */
    1ee0:	08 09       	CC = R0 <= R1;
    1ee2:	50 93       	[P2] = P0;
    1ee4:	3b e6 db fe 	[FP + -0x494] = R3;
    1ee8:	38 e6 da fe 	[FP + -0x498] = R0;
    1eec:	73 10       	IF !CC JUMP 0x1fd2 <__vfprintf_r+0x91e>;
    1eee:	42 6c       	P2 += 0x8;		/* (  8) */
    1ef0:	16 48       	CC = !BITTST (R6, 0x2);		/* bit  2 */
    1ef2:	51 1c       	IF CC JUMP 0x1f94 <__vfprintf_r+0x8e0> (BP);
    1ef4:	3d e4 cb fe 	R5 = [FP + -0x4d4];
    1ef8:	38 e4 ce fe 	R0 = [FP + -0x4c8];
    1efc:	85 53       	R6 = R5 - R0;
    1efe:	06 0d       	CC = R6 <= 0x0;
    1f00:	4a 18       	IF CC JUMP 0x1f94 <__vfprintf_r+0x8e0>;
    1f02:	81 60       	R1 = 0x10 (X);		/*		R1=0x10( 16) */
    1f04:	4b e1 00 00 	P3.H = 0x0;		/* (  0)	P3=0x0 */
    1f08:	0e 09       	CC = R6 <= R1;
    1f0a:	3f e4 da fe 	R7 = [FP + -0x498];
    1f0e:	0b e1 4c 89 	P3.L = 0x894c;		/* (-30388)	P3=0x894c <_blanks.4059> */
    1f12:	2d e1 00 fc 	P5 = -0x400 (X);		/*		P5=0xfffffc00(-1024) */
    1f16:	07 14       	IF !CC JUMP 0x1f24 <__vfprintf_r+0x870> (BP);
    1f18:	26 20       	JUMP.S 0x1f64 <__vfprintf_r+0x8b0>;
    1f1a:	86 67       	R6 += -0x10;		/* (-16) */
    1f1c:	80 60       	R0 = 0x10 (X);		/*		R0=0x10( 16) */
    1f1e:	06 09       	CC = R6 <= R0;
    1f20:	42 6c       	P2 += 0x8;		/* (  8) */
    1f22:	21 18       	IF CC JUMP 0x1f64 <__vfprintf_r+0x8b0>;
    1f24:	0f 64       	R7 += 0x1;		/* (  1) */
    1f26:	3a 60       	R2 = 0x7 (X);		/*		R2=0x7(  7) */
    1f28:	80 60       	R0 = 0x10 (X);		/*		R0=0x10( 16) */
    1f2a:	83 64       	R3 += 0x10;		/* ( 16) */
    1f2c:	17 09       	CC = R7 <= R2;
    1f2e:	53 93       	[P2] = P3;
    1f30:	50 b0       	[P2 + 0x4] = R0;
    1f32:	3b e6 db fe 	[FP + -0x494] = R3;
    1f36:	3f e6 da fe 	[FP + -0x498] = R7;
    1f3a:	f0 1f       	IF CC JUMP 0x1f1a <__vfprintf_r+0x866> (BP);
    1f3c:	28 e1 64 fb 	P0 = -0x49c (X);		/*		P0=0xfffffb64(-1180) */
    1f40:	38 5a       	P0 = P0 + FP;
    1f42:	44 30       	R0 = P4;
    1f44:	0c 30       	R1 = R4;
    1f46:	50 30       	R2 = P0;
    1f48:	00 e3 b8 1f 	CALL 0x5eb8 <___sprint_r>;
    1f4c:	00 0c       	CC = R0 == 0x0;
    1f4e:	02 1c       	IF CC JUMP 0x1f52 <__vfprintf_r+0x89e> (BP);
    1f50:	55 2d       	JUMP.S 0x19fa <__vfprintf_r+0x346>;
    1f52:	86 67       	R6 += -0x10;		/* (-16) */
    1f54:	80 60       	R0 = 0x10 (X);		/*		R0=0x10( 16) */
    1f56:	06 09       	CC = R6 <= R0;
    1f58:	af 5a       	P2 = FP + P5;
    1f5a:	3b e4 db fe 	R3 = [FP + -0x494];
    1f5e:	3f e4 da fe 	R7 = [FP + -0x498];
    1f62:	e1 17       	IF !CC JUMP 0x1f24 <__vfprintf_r+0x870> (BP);
    1f64:	0f 64       	R7 += 0x1;		/* (  1) */
    1f66:	39 60       	R1 = 0x7 (X);		/*		R1=0x7(  7) */
    1f68:	de 50       	R3 = R6 + R3;
    1f6a:	0f 09       	CC = R7 <= R1;
    1f6c:	53 93       	[P2] = P3;
    1f6e:	56 b0       	[P2 + 0x4] = R6;
    1f70:	3b e6 db fe 	[FP + -0x494] = R3;
    1f74:	3f e6 da fe 	[FP + -0x498] = R7;
    1f78:	0e 1c       	IF CC JUMP 0x1f94 <__vfprintf_r+0x8e0> (BP);
    1f7a:	5f 30       	R3 = FP;
    1f7c:	22 e1 64 fb 	R2 = -0x49c (X);		/*		R2=0xfffffb64(-1180) */
    1f80:	44 30       	R0 = P4;
    1f82:	0c 30       	R1 = R4;
    1f84:	93 50       	R2 = R3 + R2;
    1f86:	00 e3 99 1f 	CALL 0x5eb8 <___sprint_r>;
    1f8a:	00 0c       	CC = R0 == 0x0;
    1f8c:	02 1c       	IF CC JUMP 0x1f90 <__vfprintf_r+0x8dc> (BP);
    1f8e:	36 2d       	JUMP.S 0x19fa <__vfprintf_r+0x346>;
    1f90:	3b e4 db fe 	R3 = [FP + -0x494];
    1f94:	03 0c       	CC = R3 == 0x0;
    1f96:	3d e4 ce fe 	R5 = [FP + -0x4c8];
    1f9a:	39 e4 cb fe 	R1 = [FP + -0x4d4];
    1f9e:	3a e4 cd fe 	R2 = [FP + -0x4cc];
    1fa2:	07 c4 29 00 	R0 = MAX (R5, R1);
    1fa6:	82 50       	R2 = R2 + R0;
    1fa8:	3a e6 cd fe 	[FP + -0x4cc] = R2;
    1fac:	72 11       	IF !CC JUMP 0x2290 <__vfprintf_r+0xbdc>;
    1fae:	00 60       	R0 = 0x0 (X);		/*		R0=0x0(  0) */
    1fb0:	2a e1 00 fc 	P2 = -0x400 (X);		/*		P2=0xfffffc00(-1024) */
    1fb4:	38 e6 da fe 	[FP + -0x498] = R0;
    1fb8:	97 5a       	P2 = FP + P2;
    1fba:	da 2b       	JUMP.S 0x176e <__vfprintf_r+0xba>;
    1fbc:	0f 64       	R7 += 0x1;		/* (  1) */
    1fbe:	39 60       	R1 = 0x7 (X);		/*		R1=0x7(  7) */
    1fc0:	eb 50       	R3 = R3 + R5;
    1fc2:	0f 09       	CC = R7 <= R1;
    1fc4:	55 93       	[P2] = P5;
    1fc6:	55 b0       	[P2 + 0x4] = R5;
    1fc8:	3b e6 db fe 	[FP + -0x494] = R3;
    1fcc:	3f e6 da fe 	[FP + -0x498] = R7;
    1fd0:	8f 1f       	IF CC JUMP 0x1eee <__vfprintf_r+0x83a> (BP);
    1fd2:	5f 30       	R3 = FP;
    1fd4:	22 e1 64 fb 	R2 = -0x49c (X);		/*		R2=0xfffffb64(-1180) */
    1fd8:	44 30       	R0 = P4;
    1fda:	0c 30       	R1 = R4;
    1fdc:	93 50       	R2 = R3 + R2;
    1fde:	00 e3 6d 1f 	CALL 0x5eb8 <___sprint_r>;
    1fe2:	00 0c       	CC = R0 == 0x0;
    1fe4:	02 1c       	IF CC JUMP 0x1fe8 <__vfprintf_r+0x934> (BP);
    1fe6:	0a 2d       	JUMP.S 0x19fa <__vfprintf_r+0x346>;
    1fe8:	2a e1 00 fc 	P2 = -0x400 (X);		/*		P2=0xfffffc00(-1024) */
    1fec:	97 5a       	P2 = FP + P2;
    1fee:	3b e4 db fe 	R3 = [FP + -0x494];
    1ff2:	7f 2f       	JUMP.S 0x1ef0 <__vfprintf_r+0x83c>;
    1ff4:	20 e1 65 00 	R0 = 0x65 (X);		/*		R0=0x65(101) */
    1ff8:	05 09       	CC = R5 <= R0;
    1ffa:	da 1c       	IF CC JUMP 0x21ae <__vfprintf_r+0xafa> (BP);
    1ffc:	00 60       	R0 = 0x0 (X);		/*		R0=0x0(  0) */
    1ffe:	f0 b0       	[SP + 0xc] = R0;
    2000:	02 60       	R2 = 0x0 (X);		/*		R2=0x0(  0) */
    2002:	38 e4 bf fe 	R0 = [FP + -0x504];
    2006:	39 e4 c0 fe 	R1 = [FP + -0x500];
    200a:	3b e6 bb fe 	[FP + -0x514] = R3;
    200e:	3a e7 ba fe 	[FP + -0x518] = P2;
    2012:	00 e3 f5 2f 	CALL 0x7ffc <___eqdf2>;
    2016:	00 0c       	CC = R0 == 0x0;
    2018:	3b e4 bb fe 	R3 = [FP + -0x514];
    201c:	3a e5 ba fe 	P2 = [FP + -0x518];
    2020:	85 15       	IF !CC JUMP 0x232a <__vfprintf_r+0xc76> (BP);
    2022:	40 e1 00 00 	R0.H = 0x0;		/* (  0)	R0=0x0(  0) */
    2026:	00 e1 e4 87 	R0.L = 0x87e4;		/* (-30748)	R0=0x87e4(34788) */
    202a:	10 93       	[P2] = R0;
    202c:	08 60       	R0 = 0x1 (X);		/*		R0=0x1(  1) */
    202e:	50 b0       	[P2 + 0x4] = R0;
    2030:	38 e4 da fe 	R0 = [FP + -0x498];
    2034:	08 64       	R0 += 0x1;		/* (  1) */
    2036:	39 60       	R1 = 0x7 (X);		/*		R1=0x7(  7) */
    2038:	0b 64       	R3 += 0x1;		/* (  1) */
    203a:	08 09       	CC = R0 <= R1;
    203c:	3b e6 db fe 	[FP + -0x494] = R3;
    2040:	38 e6 da fe 	[FP + -0x498] = R0;
    2044:	02 1c       	IF CC JUMP 0x2048 <__vfprintf_r+0x994> (BP);
    2046:	f8 23       	JUMP.S 0x2836 <__vfprintf_r+0x1182>;
    2048:	42 6c       	P2 += 0x8;		/* (  8) */
    204a:	3d e4 d2 fe 	R5 = [FP + -0x4b8];
    204e:	38 e4 c6 fe 	R0 = [FP + -0x4e8];
    2052:	85 08       	CC = R5 < R0;
    2054:	03 1c       	IF CC JUMP 0x205a <__vfprintf_r+0x9a6> (BP);
    2056:	06 48       	CC = !BITTST (R6, 0x0);		/* bit  0 */
    2058:	4c 1f       	IF CC JUMP 0x1ef0 <__vfprintf_r+0x83c> (BP);
    205a:	39 60       	R1 = 0x7 (X);		/*		R1=0x7(  7) */
    205c:	38 e4 c1 fe 	R0 = [FP + -0x4fc];
    2060:	50 b0       	[P2 + 0x4] = R0;
    2062:	c3 50       	R3 = R3 + R0;
    2064:	38 e4 da fe 	R0 = [FP + -0x498];
    2068:	08 64       	R0 += 0x1;		/* (  1) */
    206a:	3d e4 c3 fe 	R5 = [FP + -0x4f4];
    206e:	08 09       	CC = R0 <= R1;
    2070:	15 93       	[P2] = R5;
    2072:	3b e6 db fe 	[FP + -0x494] = R3;
    2076:	38 e6 da fe 	[FP + -0x498] = R0;
    207a:	02 1c       	IF CC JUMP 0x207e <__vfprintf_r+0x9ca> (BP);
    207c:	83 24       	JUMP.S 0x2982 <__vfprintf_r+0x12ce>;
    207e:	42 6c       	P2 += 0x8;		/* (  8) */
    2080:	3d e4 c6 fe 	R5 = [FP + -0x4e8];
    2084:	fd 67       	R5 += -0x1;		/* ( -1) */
    2086:	05 0d       	CC = R5 <= 0x0;
    2088:	34 1b       	IF CC JUMP 0x1ef0 <__vfprintf_r+0x83c>;
    208a:	80 60       	R0 = 0x10 (X);		/*		R0=0x10( 16) */
    208c:	4d e1 00 00 	P5.H = 0x0;		/* (  0)	P5=0xfc00 */
    2090:	05 09       	CC = R5 <= R0;
    2092:	3f e4 da fe 	R7 = [FP + -0x498];
    2096:	0d e1 5c 89 	P5.L = 0x895c;		/* (-30372)	P5=0x895c <_zeroes.4060> */
    209a:	2b e1 00 fc 	P3 = -0x400 (X);		/*		P3=0xfffffc00(-1024) */
    209e:	07 14       	IF !CC JUMP 0x20ac <__vfprintf_r+0x9f8> (BP);
    20a0:	8e 2f       	JUMP.S 0x1fbc <__vfprintf_r+0x908>;
    20a2:	42 6c       	P2 += 0x8;		/* (  8) */
    20a4:	85 67       	R5 += -0x10;		/* (-16) */
    20a6:	80 60       	R0 = 0x10 (X);		/*		R0=0x10( 16) */
    20a8:	05 09       	CC = R5 <= R0;
    20aa:	89 1b       	IF CC JUMP 0x1fbc <__vfprintf_r+0x908>;
    20ac:	0f 64       	R7 += 0x1;		/* (  1) */
    20ae:	39 60       	R1 = 0x7 (X);		/*		R1=0x7(  7) */
    20b0:	80 60       	R0 = 0x10 (X);		/*		R0=0x10( 16) */
    20b2:	83 64       	R3 += 0x10;		/* ( 16) */
    20b4:	0f 09       	CC = R7 <= R1;
    20b6:	55 93       	[P2] = P5;
    20b8:	50 b0       	[P2 + 0x4] = R0;
    20ba:	3b e6 db fe 	[FP + -0x494] = R3;
    20be:	3f e6 da fe 	[FP + -0x498] = R7;
    20c2:	f0 1f       	IF CC JUMP 0x20a2 <__vfprintf_r+0x9ee> (BP);
    20c4:	28 e1 64 fb 	P0 = -0x49c (X);		/*		P0=0xfffffb64(-1180) */
    20c8:	38 5a       	P0 = P0 + FP;
    20ca:	44 30       	R0 = P4;
    20cc:	0c 30       	R1 = R4;
    20ce:	50 30       	R2 = P0;
    20d0:	00 e3 f4 1e 	CALL 0x5eb8 <___sprint_r>;
    20d4:	00 0c       	CC = R0 == 0x0;
    20d6:	02 1c       	IF CC JUMP 0x20da <__vfprintf_r+0xa26> (BP);
    20d8:	91 2c       	JUMP.S 0x19fa <__vfprintf_r+0x346>;
    20da:	9f 5a       	P2 = FP + P3;
    20dc:	3b e4 db fe 	R3 = [FP + -0x494];
    20e0:	3f e4 da fe 	R7 = [FP + -0x498];
    20e4:	e0 2f       	JUMP.S 0x20a4 <__vfprintf_r+0x9f0>;
    20e6:	3b e5 cb fe 	P3 = [FP + -0x4d4];
    20ea:	38 e5 ce fe 	P0 = [FP + -0x4c8];
    20ee:	03 44       	P3 -= P0;
    20f0:	43 0d       	CC = P3 <= 0x0;
    20f2:	a6 1a       	IF CC JUMP 0x1e3e <__vfprintf_r+0x78a>;
    20f4:	81 68       	P1 = 0x10 (X);		/*		P1=0x10( 16) */
    20f6:	4d e1 00 00 	P5.H = 0x0;		/* (  0)	P5=0x895c <_zeroes.4060> */
    20fa:	4b 09       	CC = P3 <= P1;
    20fc:	3f e4 da fe 	R7 = [FP + -0x498];
    2100:	0d e1 5c 89 	P5.L = 0x895c;		/* (-30372)	P5=0x895c <_zeroes.4060> */
    2104:	2f 18       	IF CC JUMP 0x2162 <__vfprintf_r+0xaae>;
    2106:	43 30       	R0 = P3;
    2108:	1e 32       	P3 = R6;
    210a:	30 30       	R6 = R0;
    210c:	06 20       	JUMP.S 0x2118 <__vfprintf_r+0xa64>;
    210e:	86 67       	R6 += -0x10;		/* (-16) */
    2110:	80 60       	R0 = 0x10 (X);		/*		R0=0x10( 16) */
    2112:	06 09       	CC = R6 <= R0;
    2114:	42 6c       	P2 += 0x8;		/* (  8) */
    2116:	23 18       	IF CC JUMP 0x215c <__vfprintf_r+0xaa8>;
    2118:	80 60       	R0 = 0x10 (X);		/*		R0=0x10( 16) */
    211a:	50 b0       	[P2 + 0x4] = R0;
    211c:	0f 64       	R7 += 0x1;		/* (  1) */
    211e:	38 60       	R0 = 0x7 (X);		/*		R0=0x7(  7) */
    2120:	83 64       	R3 += 0x10;		/* ( 16) */
    2122:	07 09       	CC = R7 <= R0;
    2124:	55 93       	[P2] = P5;
    2126:	3b e6 db fe 	[FP + -0x494] = R3;
    212a:	3f e6 da fe 	[FP + -0x498] = R7;
    212e:	f0 1f       	IF CC JUMP 0x210e <__vfprintf_r+0xa5a> (BP);
    2130:	28 e1 64 fb 	P0 = -0x49c (X);		/*		P0=0xfffffb64(-1180) */
    2134:	38 5a       	P0 = P0 + FP;
    2136:	44 30       	R0 = P4;
    2138:	0c 30       	R1 = R4;
    213a:	50 30       	R2 = P0;
    213c:	00 e3 be 1e 	CALL 0x5eb8 <___sprint_r>;
    2140:	00 0c       	CC = R0 == 0x0;
    2142:	02 1c       	IF CC JUMP 0x2146 <__vfprintf_r+0xa92> (BP);
    2144:	5b 2c       	JUMP.S 0x19fa <__vfprintf_r+0x346>;
    2146:	86 67       	R6 += -0x10;		/* (-16) */
    2148:	80 60       	R0 = 0x10 (X);		/*		R0=0x10( 16) */
    214a:	29 e1 00 fc 	P1 = -0x400 (X);		/*		P1=0xfffffc00(-1024) */
    214e:	06 09       	CC = R6 <= R0;
    2150:	8f 5a       	P2 = FP + P1;
    2152:	3b e4 db fe 	R3 = [FP + -0x494];
    2156:	3f e4 da fe 	R7 = [FP + -0x498];
    215a:	df 17       	IF !CC JUMP 0x2118 <__vfprintf_r+0xa64> (BP);
    215c:	06 30       	R0 = R6;
    215e:	73 30       	R6 = P3;
    2160:	18 32       	P3 = R0;
    2162:	0f 64       	R7 += 0x1;		/* (  1) */
    2164:	4b 30       	R1 = P3;
    2166:	3a 60       	R2 = 0x7 (X);		/*		R2=0x7(  7) */
    2168:	cb 50       	R3 = R3 + R1;
    216a:	17 09       	CC = R7 <= R2;
    216c:	55 93       	[P2] = P5;
    216e:	53 bc       	[P2 + 0x4] = P3;
    2170:	3b e6 db fe 	[FP + -0x494] = R3;
    2174:	3f e6 da fe 	[FP + -0x498] = R7;
    2178:	02 1c       	IF CC JUMP 0x217c <__vfprintf_r+0xac8> (BP);
    217a:	59 22       	JUMP.S 0x262c <__vfprintf_r+0xf78>;
    217c:	42 6c       	P2 += 0x8;		/* (  8) */
    217e:	60 2e       	JUMP.S 0x1e3e <__vfprintf_r+0x78a>;
    2180:	7a 60       	R2 = 0xf (X);		/*		R2=0xf( 15) */
    2182:	3b e4 bd fe 	R3 = [FP + -0x50c];
    2186:	09 32       	P1 = R1;
    2188:	50 54       	R1 = R0 & R2;
    218a:	4b 50       	R1 = R3 + R1;
    218c:	01 32       	P0 = R1;
    218e:	20 4e       	R0 >>= 0x4;
    2190:	00 0c       	CC = R0 == 0x0;
    2192:	41 99       	R1 = B[P0] (X);
    2194:	09 9b       	B[P1] = R1;
    2196:	49 30       	R1 = P1;
    2198:	f9 67       	R1 += -0x1;		/* ( -1) */
    219a:	f6 17       	IF !CC JUMP 0x2186 <__vfprintf_r+0xad2> (BP);
    219c:	39 e7 c8 fe 	[FP + -0x4e0] = P1;
    21a0:	59 30       	R3 = P1;
    21a2:	38 e4 c4 fe 	R0 = [FP + -0x4f0];
    21a6:	18 52       	R0 = R0 - R3;
    21a8:	38 e6 cc fe 	[FP + -0x4d0] = R0;
    21ac:	bc 2c       	JUMP.S 0x1b24 <__vfprintf_r+0x470>;
    21ae:	0b 64       	R3 += 0x1;		/* (  1) */
    21b0:	38 e5 c8 fe 	P0 = [FP + -0x4e0];
    21b4:	3f e4 da fe 	R7 = [FP + -0x498];
    21b8:	3d e4 c6 fe 	R5 = [FP + -0x4e8];
    21bc:	08 60       	R0 = 0x1 (X);		/*		R0=0x1(  1) */
    21be:	0f 64       	R7 += 0x1;		/* (  1) */
    21c0:	0d 0d       	CC = R5 <= 0x1;
    21c2:	50 b0       	[P2 + 0x4] = R0;
    21c4:	50 93       	[P2] = P0;
    21c6:	38 60       	R0 = 0x7 (X);		/*		R0=0x7(  7) */
    21c8:	3b e6 db fe 	[FP + -0x494] = R3;
    21cc:	3f e6 da fe 	[FP + -0x498] = R7;
    21d0:	48 18       	IF CC JUMP 0x2260 <__vfprintf_r+0xbac>;
    21d2:	07 09       	CC = R7 <= R0;
    21d4:	fa 11       	IF !CC JUMP 0x25c8 <__vfprintf_r+0xf14>;
    21d6:	42 6c       	P2 += 0x8;		/* (  8) */
    21d8:	38 e4 c1 fe 	R0 = [FP + -0x4fc];
    21dc:	0f 64       	R7 += 0x1;		/* (  1) */
    21de:	39 60       	R1 = 0x7 (X);		/*		R1=0x7(  7) */
    21e0:	3d e4 c3 fe 	R5 = [FP + -0x4f4];
    21e4:	c3 50       	R3 = R3 + R0;
    21e6:	0f 09       	CC = R7 <= R1;
    21e8:	15 93       	[P2] = R5;
    21ea:	50 b0       	[P2 + 0x4] = R0;
    21ec:	3b e6 db fe 	[FP + -0x494] = R3;
    21f0:	3f e6 da fe 	[FP + -0x498] = R7;
    21f4:	fd 11       	IF !CC JUMP 0x25ee <__vfprintf_r+0xf3a>;
    21f6:	5a 32       	P3 = P2;
    21f8:	43 6c       	P3 += 0x8;		/* (  8) */
    21fa:	00 60       	R0 = 0x0 (X);		/*		R0=0x0(  0) */
    21fc:	f0 b0       	[SP + 0xc] = R0;
    21fe:	02 60       	R2 = 0x0 (X);		/*		R2=0x0(  0) */
    2200:	38 e4 bf fe 	R0 = [FP + -0x504];
    2204:	39 e4 c0 fe 	R1 = [FP + -0x500];
    2208:	3b e6 bb fe 	[FP + -0x514] = R3;
    220c:	00 e3 1e 2f 	CALL 0x8048 <___nedf2>;
    2210:	00 0c       	CC = R0 == 0x0;
    2212:	3b e4 bb fe 	R3 = [FP + -0x514];
    2216:	e5 1c       	IF CC JUMP 0x23e0 <__vfprintf_r+0xd2c> (BP);
    2218:	3d e5 c8 fe 	P5 = [FP + -0x4e0];
    221c:	38 e4 c6 fe 	R0 = [FP + -0x4e8];
    2220:	f8 67       	R0 += -0x1;		/* ( -1) */
    2222:	0f 64       	R7 += 0x1;		/* (  1) */
    2224:	3d 60       	R5 = 0x7 (X);		/*		R5=0x7(  7) */
    2226:	0d 6c       	P5 += 0x1;		/* (  1) */
    2228:	c3 50       	R3 = R3 + R0;
    222a:	2f 09       	CC = R7 <= R5;
    222c:	5d 93       	[P3] = P5;
    222e:	58 b0       	[P3 + 0x4] = R0;
    2230:	3b e6 db fe 	[FP + -0x494] = R3;
    2234:	3f e6 da fe 	[FP + -0x498] = R7;
    2238:	19 10       	IF !CC JUMP 0x226a <__vfprintf_r+0xbb6>;
    223a:	43 6c       	P3 += 0x8;		/* (  8) */
    223c:	3d e4 be fe 	R5 = [FP + -0x508];
    2240:	0f 64       	R7 += 0x1;		/* (  1) */
    2242:	2a e1 54 fb 	P2 = -0x4ac (X);		/*		P2=0xfffffb54(-1196) */
    2246:	38 60       	R0 = 0x7 (X);		/*		R0=0x7(  7) */
    2248:	97 5a       	P2 = FP + P2;
    224a:	eb 50       	R3 = R3 + R5;
    224c:	07 09       	CC = R7 <= R0;
    224e:	5a 93       	[P3] = P2;
    2250:	5d b0       	[P3 + 0x4] = R5;
    2252:	3b e6 db fe 	[FP + -0x494] = R3;
    2256:	3f e6 da fe 	[FP + -0x498] = R7;
    225a:	bc 12       	IF !CC JUMP 0x1fd2 <__vfprintf_r+0x91e>;
    225c:	53 32       	P2 = P3;
    225e:	48 2e       	JUMP.S 0x1eee <__vfprintf_r+0x83a>;
    2260:	06 48       	CC = !BITTST (R6, 0x0);		/* bit  0 */
    2262:	b8 17       	IF !CC JUMP 0x21d2 <__vfprintf_r+0xb1e> (BP);
    2264:	07 09       	CC = R7 <= R0;
    2266:	02 10       	IF !CC JUMP 0x226a <__vfprintf_r+0xbb6>;
    2268:	78 23       	JUMP.S 0x2958 <__vfprintf_r+0x12a4>;
    226a:	5f 30       	R3 = FP;
    226c:	22 e1 64 fb 	R2 = -0x49c (X);		/*		R2=0xfffffb64(-1180) */
    2270:	44 30       	R0 = P4;
    2272:	0c 30       	R1 = R4;
    2274:	93 50       	R2 = R3 + R2;
    2276:	00 e3 21 1e 	CALL 0x5eb8 <___sprint_r>;
    227a:	00 0c       	CC = R0 == 0x0;
    227c:	02 1c       	IF CC JUMP 0x2280 <__vfprintf_r+0xbcc> (BP);
    227e:	be 2b       	JUMP.S 0x19fa <__vfprintf_r+0x346>;
    2280:	2b e1 00 fc 	P3 = -0x400 (X);		/*		P3=0xfffffc00(-1024) */
    2284:	df 5a       	P3 = FP + P3;
    2286:	3b e4 db fe 	R3 = [FP + -0x494];
    228a:	3f e4 da fe 	R7 = [FP + -0x498];
    228e:	d7 2f       	JUMP.S 0x223c <__vfprintf_r+0xb88>;
    2290:	5f 30       	R3 = FP;
    2292:	22 e1 64 fb 	R2 = -0x49c (X);		/*		R2=0xfffffb64(-1180) */
    2296:	44 30       	R0 = P4;
    2298:	0c 30       	R1 = R4;
    229a:	93 50       	R2 = R3 + R2;
    229c:	00 e3 0e 1e 	CALL 0x5eb8 <___sprint_r>;
    22a0:	00 0c       	CC = R0 == 0x0;
    22a2:	86 1e       	IF CC JUMP 0x1fae <__vfprintf_r+0x8fa> (BP);
    22a4:	ab 2b       	JUMP.S 0x19fa <__vfprintf_r+0x346>;
    22a6:	5f 30       	R3 = FP;
    22a8:	22 e1 64 fb 	R2 = -0x49c (X);		/*		R2=0xfffffb64(-1180) */
    22ac:	44 30       	R0 = P4;
    22ae:	0c 30       	R1 = R4;
    22b0:	93 50       	R2 = R3 + R2;
    22b2:	00 e3 03 1e 	CALL 0x5eb8 <___sprint_r>;
    22b6:	00 0c       	CC = R0 == 0x0;
    22b8:	02 1c       	IF CC JUMP 0x22bc <__vfprintf_r+0xc08> (BP);
    22ba:	a0 2b       	JUMP.S 0x19fa <__vfprintf_r+0x346>;
    22bc:	2a e1 00 fc 	P2 = -0x400 (X);		/*		P2=0xfffffc00(-1024) */
    22c0:	97 5a       	P2 = FP + P2;
    22c2:	3b e4 db fe 	R3 = [FP + -0x494];
    22c6:	01 2e       	JUMP.S 0x1ec8 <__vfprintf_r+0x814>;
    22c8:	5f 30       	R3 = FP;
    22ca:	22 e1 64 fb 	R2 = -0x49c (X);		/*		R2=0xfffffb64(-1180) */
    22ce:	44 30       	R0 = P4;
    22d0:	0c 30       	R1 = R4;
    22d2:	93 50       	R2 = R3 + R2;
    22d4:	00 e3 f2 1d 	CALL 0x5eb8 <___sprint_r>;
    22d8:	00 0c       	CC = R0 == 0x0;
    22da:	02 1c       	IF CC JUMP 0x22de <__vfprintf_r+0xc2a> (BP);
    22dc:	8f 2b       	JUMP.S 0x19fa <__vfprintf_r+0x346>;
    22de:	2a e1 00 fc 	P2 = -0x400 (X);		/*		P2=0xfffffc00(-1024) */
    22e2:	97 5a       	P2 = FP + P2;
    22e4:	3b e4 db fe 	R3 = [FP + -0x494];
    22e8:	8e 2d       	JUMP.S 0x1e04 <__vfprintf_r+0x750>;
    22ea:	5f 30       	R3 = FP;
    22ec:	22 e1 64 fb 	R2 = -0x49c (X);		/*		R2=0xfffffb64(-1180) */
    22f0:	44 30       	R0 = P4;
    22f2:	0c 30       	R1 = R4;
    22f4:	93 50       	R2 = R3 + R2;
    22f6:	00 e3 e1 1d 	CALL 0x5eb8 <___sprint_r>;
    22fa:	00 0c       	CC = R0 == 0x0;
    22fc:	02 1c       	IF CC JUMP 0x2300 <__vfprintf_r+0xc4c> (BP);
    22fe:	7e 2b       	JUMP.S 0x19fa <__vfprintf_r+0x346>;
    2300:	2a e1 00 fc 	P2 = -0x400 (X);		/*		P2=0xfffffc00(-1024) */
    2304:	97 5a       	P2 = FP + P2;
    2306:	3b e4 db fe 	R3 = [FP + -0x494];
    230a:	94 2d       	JUMP.S 0x1e32 <__vfprintf_r+0x77e>;
    230c:	49 60       	R1 = 0x9 (X);		/*		R1=0x9(  9) */
    230e:	08 0a       	CC = R0 <= R1 (IU);
    2310:	b0 14       	IF !CC JUMP 0x2470 <__vfprintf_r+0xdbc> (BP);
    2312:	80 65       	R0 += 0x30;		/* ( 48) */
    2314:	fe 2b       	JUMP.S 0x1b10 <__vfprintf_r+0x45c>;
    2316:	00 60       	R0 = 0x0 (X);		/*		R0=0x0(  0) */
    2318:	3b e4 c4 fe 	R3 = [FP + -0x4f0];
    231c:	38 e6 cc fe 	[FP + -0x4d0] = R0;
    2320:	3b e6 c8 fe 	[FP + -0x4e0] = R3;
    2324:	00 2c       	JUMP.S 0x1b24 <__vfprintf_r+0x470>;
    2326:	11 60       	R1 = 0x2 (X);		/*		R1=0x2(  2) */
    2328:	e1 2b       	JUMP.S 0x1aea <__vfprintf_r+0x436>;
    232a:	3d e4 d2 fe 	R5 = [FP + -0x4b8];
    232e:	05 0d       	CC = R5 <= 0x0;
    2330:	02 14       	IF !CC JUMP 0x2334 <__vfprintf_r+0xc80> (BP);
    2332:	93 22       	JUMP.S 0x2858 <__vfprintf_r+0x11a4>;
    2334:	39 e5 c6 fe 	P1 = [FP + -0x4e8];
    2338:	38 e5 c8 fe 	P0 = [FP + -0x4e0];
    233c:	38 e4 c2 fe 	R0 = [FP + -0x4f8];
    2340:	69 30       	R5 = P1;
    2342:	07 c4 28 4e 	R7 = MIN (R5, R0);
    2346:	08 5a       	P0 = P0 + P1;
    2348:	07 0d       	CC = R7 <= 0x0;
    234a:	38 e7 cc fe 	[FP + -0x4d0] = P0;
    234e:	12 18       	IF CC JUMP 0x2372 <__vfprintf_r+0xcbe>;
    2350:	39 60       	R1 = 0x7 (X);		/*		R1=0x7(  7) */
    2352:	fb 50       	R3 = R3 + R7;
    2354:	57 b0       	[P2 + 0x4] = R7;
    2356:	38 e5 c8 fe 	P0 = [FP + -0x4e0];
    235a:	38 e4 da fe 	R0 = [FP + -0x498];
    235e:	08 64       	R0 += 0x1;		/* (  1) */
    2360:	08 09       	CC = R0 <= R1;
    2362:	50 93       	[P2] = P0;
    2364:	3b e6 db fe 	[FP + -0x494] = R3;
    2368:	38 e6 da fe 	[FP + -0x498] = R0;
    236c:	02 1c       	IF CC JUMP 0x2370 <__vfprintf_r+0xcbc> (BP);
    236e:	60 23       	JUMP.S 0x2a2e <__vfprintf_r+0x137a>;
    2370:	42 6c       	P2 += 0x8;		/* (  8) */
    2372:	00 60       	R0 = 0x0 (X);		/*		R0=0x0(  0) */
    2374:	07 c4 38 0e 	R7 = MAX (R7, R0);
    2378:	38 e4 c2 fe 	R0 = [FP + -0x4f8];
    237c:	78 53       	R5 = R0 - R7;
    237e:	05 0d       	CC = R5 <= 0x0;
    2380:	b3 18       	IF CC JUMP 0x24e6 <__vfprintf_r+0xe32>;
    2382:	81 60       	R1 = 0x10 (X);		/*		R1=0x10( 16) */
    2384:	4d e1 00 00 	P5.H = 0x0;		/* (  0)	P5=0x895c <_zeroes.4060> */
    2388:	0d 09       	CC = R5 <= R1;
    238a:	3f e4 da fe 	R7 = [FP + -0x498];
    238e:	0d e1 5c 89 	P5.L = 0x895c;		/* (-30372)	P5=0x895c <_zeroes.4060> */
    2392:	2b e1 00 fc 	P3 = -0x400 (X);		/*		P3=0xfffffc00(-1024) */
    2396:	08 14       	IF !CC JUMP 0x23a6 <__vfprintf_r+0xcf2> (BP);
    2398:	42 22       	JUMP.S 0x281c <__vfprintf_r+0x1168>;
    239a:	42 6c       	P2 += 0x8;		/* (  8) */
    239c:	85 67       	R5 += -0x10;		/* (-16) */
    239e:	80 60       	R0 = 0x10 (X);		/*		R0=0x10( 16) */
    23a0:	05 09       	CC = R5 <= R0;
    23a2:	02 14       	IF !CC JUMP 0x23a6 <__vfprintf_r+0xcf2> (BP);
    23a4:	3c 22       	JUMP.S 0x281c <__vfprintf_r+0x1168>;
    23a6:	0f 64       	R7 += 0x1;		/* (  1) */
    23a8:	3a 60       	R2 = 0x7 (X);		/*		R2=0x7(  7) */
    23aa:	80 60       	R0 = 0x10 (X);		/*		R0=0x10( 16) */
    23ac:	83 64       	R3 += 0x10;		/* ( 16) */
    23ae:	17 09       	CC = R7 <= R2;
    23b0:	55 93       	[P2] = P5;
    23b2:	50 b0       	[P2 + 0x4] = R0;
    23b4:	3b e6 db fe 	[FP + -0x494] = R3;
    23b8:	3f e6 da fe 	[FP + -0x498] = R7;
    23bc:	ef 1f       	IF CC JUMP 0x239a <__vfprintf_r+0xce6> (BP);
    23be:	28 e1 64 fb 	P0 = -0x49c (X);		/*		P0=0xfffffb64(-1180) */
    23c2:	38 5a       	P0 = P0 + FP;
    23c4:	44 30       	R0 = P4;
    23c6:	0c 30       	R1 = R4;
    23c8:	50 30       	R2 = P0;
    23ca:	00 e3 77 1d 	CALL 0x5eb8 <___sprint_r>;
    23ce:	00 0c       	CC = R0 == 0x0;
    23d0:	02 1c       	IF CC JUMP 0x23d4 <__vfprintf_r+0xd20> (BP);
    23d2:	14 2b       	JUMP.S 0x19fa <__vfprintf_r+0x346>;
    23d4:	9f 5a       	P2 = FP + P3;
    23d6:	3b e4 db fe 	R3 = [FP + -0x494];
    23da:	3f e4 da fe 	R7 = [FP + -0x498];
    23de:	df 2f       	JUMP.S 0x239c <__vfprintf_r+0xce8>;
    23e0:	3d e4 c6 fe 	R5 = [FP + -0x4e8];
    23e4:	fd 67       	R5 += -0x1;		/* ( -1) */
    23e6:	05 0d       	CC = R5 <= 0x0;
    23e8:	2a 1b       	IF CC JUMP 0x223c <__vfprintf_r+0xb88>;
    23ea:	80 60       	R0 = 0x10 (X);		/*		R0=0x10( 16) */
    23ec:	4d e1 00 00 	P5.H = 0x0;		/* (  0)	P5=0x895c <_zeroes.4060> */
    23f0:	05 09       	CC = R5 <= R0;
    23f2:	0d e1 5c 89 	P5.L = 0x895c;		/* (-30372)	P5=0x895c <_zeroes.4060> */
    23f6:	07 14       	IF !CC JUMP 0x2404 <__vfprintf_r+0xd50> (BP);
    23f8:	0e 21       	JUMP.S 0x2614 <__vfprintf_r+0xf60>;
    23fa:	43 6c       	P3 += 0x8;		/* (  8) */
    23fc:	85 67       	R5 += -0x10;		/* (-16) */
    23fe:	80 60       	R0 = 0x10 (X);		/*		R0=0x10( 16) */
    2400:	05 09       	CC = R5 <= R0;
    2402:	09 19       	IF CC JUMP 0x2614 <__vfprintf_r+0xf60>;
    2404:	0f 64       	R7 += 0x1;		/* (  1) */
    2406:	39 60       	R1 = 0x7 (X);		/*		R1=0x7(  7) */
    2408:	80 60       	R0 = 0x10 (X);		/*		R0=0x10( 16) */
    240a:	83 64       	R3 += 0x10;		/* ( 16) */
    240c:	0f 09       	CC = R7 <= R1;
    240e:	5d 93       	[P3] = P5;
    2410:	58 b0       	[P3 + 0x4] = R0;
    2412:	3b e6 db fe 	[FP + -0x494] = R3;
    2416:	3f e6 da fe 	[FP + -0x498] = R7;
    241a:	f0 1f       	IF CC JUMP 0x23fa <__vfprintf_r+0xd46> (BP);
    241c:	28 e1 64 fb 	P0 = -0x49c (X);		/*		P0=0xfffffb64(-1180) */
    2420:	38 5a       	P0 = P0 + FP;
    2422:	44 30       	R0 = P4;
    2424:	0c 30       	R1 = R4;
    2426:	50 30       	R2 = P0;
    2428:	00 e3 48 1d 	CALL 0x5eb8 <___sprint_r>;
    242c:	00 0c       	CC = R0 == 0x0;
    242e:	02 1c       	IF CC JUMP 0x2432 <__vfprintf_r+0xd7e> (BP);
    2430:	e5 2a       	JUMP.S 0x19fa <__vfprintf_r+0x346>;
    2432:	29 e1 00 fc 	P1 = -0x400 (X);		/*		P1=0xfffffc00(-1024) */
    2436:	cf 5a       	P3 = FP + P1;
    2438:	3b e4 db fe 	R3 = [FP + -0x494];
    243c:	3f e4 da fe 	R7 = [FP + -0x498];
    2440:	de 2f       	JUMP.S 0x23fc <__vfprintf_r+0xd48>;
    2442:	36 48       	CC = !BITTST (R6, 0x6);		/* bit  6 */
    2444:	d6 1d       	IF CC JUMP 0x27f0 <__vfprintf_r+0x113c> (BP);
    2446:	3b af       	P3 = [FP + 0x30];
    2448:	58 95       	R0 = W[P3] (X);
    244a:	23 6c       	P3 += 0x4;		/* (  4) */
    244c:	3b bf       	[FP + 0x30] = P3;
    244e:	1a 2c       	JUMP.S 0x1c82 <__vfprintf_r+0x5ce>;
    2450:	36 48       	CC = !BITTST (R6, 0x6);		/* bit  6 */
    2452:	d9 1d       	IF CC JUMP 0x2804 <__vfprintf_r+0x1150> (BP);
    2454:	39 af       	P1 = [FP + 0x30];
    2456:	09 60       	R1 = 0x1 (X);		/*		R1=0x1(  1) */
    2458:	08 95       	R0 = W[P1] (Z);
    245a:	21 6c       	P1 += 0x4;		/* (  4) */
    245c:	39 bf       	[FP + 0x30] = P1;
    245e:	46 2b       	JUMP.S 0x1aea <__vfprintf_r+0x436>;
    2460:	36 48       	CC = !BITTST (R6, 0x6);		/* bit  6 */
    2462:	d7 1d       	IF CC JUMP 0x2810 <__vfprintf_r+0x115c> (BP);
    2464:	39 af       	P1 = [FP + 0x30];
    2466:	01 60       	R1 = 0x0 (X);		/*		R1=0x0(  0) */
    2468:	08 95       	R0 = W[P1] (Z);
    246a:	21 6c       	P1 += 0x4;		/* (  4) */
    246c:	39 bf       	[FP + 0x30] = P1;
    246e:	3e 2b       	JUMP.S 0x1aea <__vfprintf_r+0x436>;
    2470:	41 e1 cc cc 	R1.H = 0xcccc;		/* (-13108)	R1=0xcccc0000(-859045888) */
    2474:	3a e4 c5 fe 	R2 = [FP + -0x4ec];
    2478:	01 e1 cd cc 	R1.L = 0xcccd;		/* (-13107)	R1=0xcccccccd(-858993459) */
    247c:	80 c0 01 18 	A1 = R0.L * R1.L (FU);
    2480:	83 c6 80 51 	A1 = A1 >> 0x10;
    2484:	81 c0 01 86 	A1 += R0.H * R1.L, A0 = R0.H * R1.H (FU);
    2488:	81 c0 08 98 	A1 += R1.H * R0.L (FU);
    248c:	83 c6 80 51 	A1 = A1 >> 0x10;
    2490:	0b c4 3f 80 	A0 += A1;
    2494:	02 32       	P0 = R2;
    2496:	8b c0 80 38 	R2 = A0 (FU);
    249a:	1a 4e       	R2 >>= 0x3;
    249c:	0a 32       	P1 = R2;
    249e:	49 5f       	P5 = P1 + (P1 << 0x2);
    24a0:	55 30       	R2 = P5;
    24a2:	0a 4f       	R2 <<= 0x1;
    24a4:	10 52       	R0 = R0 - R2;
    24a6:	80 65       	R0 += 0x30;		/* ( 48) */
    24a8:	00 9b       	B[P0] = R0;
    24aa:	41 30       	R0 = P1;
    24ac:	50 30       	R2 = P0;
    24ae:	00 0c       	CC = R0 == 0x0;
    24b0:	fa 67       	R2 += -0x1;		/* ( -1) */
    24b2:	e5 17       	IF !CC JUMP 0x247c <__vfprintf_r+0xdc8> (BP);
    24b4:	38 e4 c4 fe 	R0 = [FP + -0x4f0];
    24b8:	58 30       	R3 = P0;
    24ba:	18 52       	R0 = R0 - R3;
    24bc:	38 e7 c8 fe 	[FP + -0x4e0] = P0;
    24c0:	38 e6 cc fe 	[FP + -0x4d0] = R0;
    24c4:	30 2b       	JUMP.S 0x1b24 <__vfprintf_r+0x470>;
    24c6:	5f 30       	R3 = FP;
    24c8:	22 e1 64 fb 	R2 = -0x49c (X);		/*		R2=0xfffffb64(-1180) */
    24cc:	44 30       	R0 = P4;
    24ce:	0c 30       	R1 = R4;
    24d0:	93 50       	R2 = R3 + R2;
    24d2:	00 e3 f3 1c 	CALL 0x5eb8 <___sprint_r>;
    24d6:	00 0c       	CC = R0 == 0x0;
    24d8:	02 1c       	IF CC JUMP 0x24dc <__vfprintf_r+0xe28> (BP);
    24da:	90 2a       	JUMP.S 0x19fa <__vfprintf_r+0x346>;
    24dc:	2a e1 00 fc 	P2 = -0x400 (X);		/*		P2=0xfffffc00(-1024) */
    24e0:	97 5a       	P2 = FP + P2;
    24e2:	3b e4 db fe 	R3 = [FP + -0x494];
    24e6:	38 e5 c8 fe 	P0 = [FP + -0x4e0];
    24ea:	39 e5 c2 fe 	P1 = [FP + -0x4f8];
    24ee:	39 e4 d2 fe 	R1 = [FP + -0x4b8];
    24f2:	3d e4 c6 fe 	R5 = [FP + -0x4e8];
    24f6:	a9 08       	CC = R1 < R5;
    24f8:	48 5b       	P5 = P0 + P1;
    24fa:	53 1c       	IF CC JUMP 0x25a0 <__vfprintf_r+0xeec> (BP);
    24fc:	06 48       	CC = !BITTST (R6, 0x0);		/* bit  0 */
    24fe:	51 14       	IF !CC JUMP 0x25a0 <__vfprintf_r+0xeec> (BP);
    2500:	3d e4 cc fe 	R5 = [FP + -0x4d0];
    2504:	45 30       	R0 = P5;
    2506:	c5 53       	R7 = R5 - R0;
    2508:	3d e4 c6 fe 	R5 = [FP + -0x4e8];
    250c:	4d 52       	R1 = R5 - R1;
    250e:	07 c4 0f 4e 	R7 = MIN (R1, R7);
    2512:	07 0d       	CC = R7 <= 0x0;
    2514:	10 18       	IF CC JUMP 0x2534 <__vfprintf_r+0xe80>;
    2516:	3a 60       	R2 = 0x7 (X);		/*		R2=0x7(  7) */
    2518:	fb 50       	R3 = R3 + R7;
    251a:	55 93       	[P2] = P5;
    251c:	38 e4 da fe 	R0 = [FP + -0x498];
    2520:	08 64       	R0 += 0x1;		/* (  1) */
    2522:	10 09       	CC = R0 <= R2;
    2524:	57 b0       	[P2 + 0x4] = R7;
    2526:	3b e6 db fe 	[FP + -0x494] = R3;
    252a:	38 e6 da fe 	[FP + -0x498] = R0;
    252e:	02 1c       	IF CC JUMP 0x2532 <__vfprintf_r+0xe7e> (BP);
    2530:	b2 22       	JUMP.S 0x2a94 <__vfprintf_r+0x13e0>;
    2532:	42 6c       	P2 += 0x8;		/* (  8) */
    2534:	00 60       	R0 = 0x0 (X);		/*		R0=0x0(  0) */
    2536:	07 c4 38 0e 	R7 = MAX (R7, R0);
    253a:	79 53       	R5 = R1 - R7;
    253c:	05 0d       	CC = R5 <= 0x0;
    253e:	02 14       	IF !CC JUMP 0x2542 <__vfprintf_r+0xe8e> (BP);
    2540:	d8 2c       	JUMP.S 0x1ef0 <__vfprintf_r+0x83c>;
    2542:	80 60       	R0 = 0x10 (X);		/*		R0=0x10( 16) */
    2544:	4d e1 00 00 	P5.H = 0x0;		/* (  0)	P5=0x895c <_zeroes.4060> */
    2548:	05 09       	CC = R5 <= R0;
    254a:	3f e4 da fe 	R7 = [FP + -0x498];
    254e:	0d e1 5c 89 	P5.L = 0x895c;		/* (-30372)	P5=0x895c <_zeroes.4060> */
    2552:	2b e1 00 fc 	P3 = -0x400 (X);		/*		P3=0xfffffc00(-1024) */
    2556:	08 14       	IF !CC JUMP 0x2566 <__vfprintf_r+0xeb2> (BP);
    2558:	32 2d       	JUMP.S 0x1fbc <__vfprintf_r+0x908>;
    255a:	42 6c       	P2 += 0x8;		/* (  8) */
    255c:	85 67       	R5 += -0x10;		/* (-16) */
    255e:	80 60       	R0 = 0x10 (X);		/*		R0=0x10( 16) */
    2560:	05 09       	CC = R5 <= R0;
    2562:	02 14       	IF !CC JUMP 0x2566 <__vfprintf_r+0xeb2> (BP);
    2564:	2c 2d       	JUMP.S 0x1fbc <__vfprintf_r+0x908>;
    2566:	0f 64       	R7 += 0x1;		/* (  1) */
    2568:	39 60       	R1 = 0x7 (X);		/*		R1=0x7(  7) */
    256a:	80 60       	R0 = 0x10 (X);		/*		R0=0x10( 16) */
    256c:	83 64       	R3 += 0x10;		/* ( 16) */
    256e:	0f 09       	CC = R7 <= R1;
    2570:	55 93       	[P2] = P5;
    2572:	50 b0       	[P2 + 0x4] = R0;
    2574:	3b e6 db fe 	[FP + -0x494] = R3;
    2578:	3f e6 da fe 	[FP + -0x498] = R7;
    257c:	ef 1f       	IF CC JUMP 0x255a <__vfprintf_r+0xea6> (BP);
    257e:	28 e1 64 fb 	P0 = -0x49c (X);		/*		P0=0xfffffb64(-1180) */
    2582:	38 5a       	P0 = P0 + FP;
    2584:	44 30       	R0 = P4;
    2586:	0c 30       	R1 = R4;
    2588:	50 30       	R2 = P0;
    258a:	00 e3 97 1c 	CALL 0x5eb8 <___sprint_r>;
    258e:	00 0c       	CC = R0 == 0x0;
    2590:	02 1c       	IF CC JUMP 0x2594 <__vfprintf_r+0xee0> (BP);
    2592:	34 2a       	JUMP.S 0x19fa <__vfprintf_r+0x346>;
    2594:	9f 5a       	P2 = FP + P3;
    2596:	3b e4 db fe 	R3 = [FP + -0x494];
    259a:	3f e4 da fe 	R7 = [FP + -0x498];
    259e:	df 2f       	JUMP.S 0x255c <__vfprintf_r+0xea8>;
    25a0:	3a 60       	R2 = 0x7 (X);		/*		R2=0x7(  7) */
    25a2:	38 e4 c1 fe 	R0 = [FP + -0x4fc];
    25a6:	38 e5 c3 fe 	P0 = [FP + -0x4f4];
    25aa:	50 b0       	[P2 + 0x4] = R0;
    25ac:	c3 50       	R3 = R3 + R0;
    25ae:	38 e4 da fe 	R0 = [FP + -0x498];
    25b2:	08 64       	R0 += 0x1;		/* (  1) */
    25b4:	10 09       	CC = R0 <= R2;
    25b6:	50 93       	[P2] = P0;
    25b8:	3b e6 db fe 	[FP + -0x494] = R3;
    25bc:	38 e6 da fe 	[FP + -0x498] = R0;
    25c0:	02 1c       	IF CC JUMP 0x25c4 <__vfprintf_r+0xf10> (BP);
    25c2:	48 22       	JUMP.S 0x2a52 <__vfprintf_r+0x139e>;
    25c4:	42 6c       	P2 += 0x8;		/* (  8) */
    25c6:	9d 2f       	JUMP.S 0x2500 <__vfprintf_r+0xe4c>;
    25c8:	5f 30       	R3 = FP;
    25ca:	22 e1 64 fb 	R2 = -0x49c (X);		/*		R2=0xfffffb64(-1180) */
    25ce:	44 30       	R0 = P4;
    25d0:	0c 30       	R1 = R4;
    25d2:	93 50       	R2 = R3 + R2;
    25d4:	00 e3 72 1c 	CALL 0x5eb8 <___sprint_r>;
    25d8:	00 0c       	CC = R0 == 0x0;
    25da:	02 1c       	IF CC JUMP 0x25de <__vfprintf_r+0xf2a> (BP);
    25dc:	0f 2a       	JUMP.S 0x19fa <__vfprintf_r+0x346>;
    25de:	2a e1 00 fc 	P2 = -0x400 (X);		/*		P2=0xfffffc00(-1024) */
    25e2:	97 5a       	P2 = FP + P2;
    25e4:	3b e4 db fe 	R3 = [FP + -0x494];
    25e8:	3f e4 da fe 	R7 = [FP + -0x498];
    25ec:	f6 2d       	JUMP.S 0x21d8 <__vfprintf_r+0xb24>;
    25ee:	5f 30       	R3 = FP;
    25f0:	22 e1 64 fb 	R2 = -0x49c (X);		/*		R2=0xfffffb64(-1180) */
    25f4:	44 30       	R0 = P4;
    25f6:	0c 30       	R1 = R4;
    25f8:	93 50       	R2 = R3 + R2;
    25fa:	00 e3 5f 1c 	CALL 0x5eb8 <___sprint_r>;
    25fe:	00 0c       	CC = R0 == 0x0;
    2600:	02 1c       	IF CC JUMP 0x2604 <__vfprintf_r+0xf50> (BP);
    2602:	fc 29       	JUMP.S 0x19fa <__vfprintf_r+0x346>;
    2604:	2b e1 00 fc 	P3 = -0x400 (X);		/*		P3=0xfffffc00(-1024) */
    2608:	df 5a       	P3 = FP + P3;
    260a:	3b e4 db fe 	R3 = [FP + -0x494];
    260e:	3f e4 da fe 	R7 = [FP + -0x498];
    2612:	f4 2d       	JUMP.S 0x21fa <__vfprintf_r+0xb46>;
    2614:	0f 64       	R7 += 0x1;		/* (  1) */
    2616:	39 60       	R1 = 0x7 (X);		/*		R1=0x7(  7) */
    2618:	eb 50       	R3 = R3 + R5;
    261a:	0f 09       	CC = R7 <= R1;
    261c:	5d 93       	[P3] = P5;
    261e:	5d b0       	[P3 + 0x4] = R5;
    2620:	3b e6 db fe 	[FP + -0x494] = R3;
    2624:	3f e6 da fe 	[FP + -0x498] = R7;
    2628:	09 1e       	IF CC JUMP 0x223a <__vfprintf_r+0xb86> (BP);
    262a:	20 2e       	JUMP.S 0x226a <__vfprintf_r+0xbb6>;
    262c:	5f 30       	R3 = FP;
    262e:	22 e1 64 fb 	R2 = -0x49c (X);		/*		R2=0xfffffb64(-1180) */
    2632:	44 30       	R0 = P4;
    2634:	0c 30       	R1 = R4;
    2636:	93 50       	R2 = R3 + R2;
    2638:	00 e3 40 1c 	CALL 0x5eb8 <___sprint_r>;
    263c:	00 0c       	CC = R0 == 0x0;
    263e:	02 1c       	IF CC JUMP 0x2642 <__vfprintf_r+0xf8e> (BP);
    2640:	dd 29       	JUMP.S 0x19fa <__vfprintf_r+0x346>;
    2642:	2a e1 00 fc 	P2 = -0x400 (X);		/*		P2=0xfffffc00(-1024) */
    2646:	97 5a       	P2 = FP + P2;
    2648:	3b e4 db fe 	R3 = [FP + -0x494];
    264c:	f9 2b       	JUMP.S 0x1e3e <__vfprintf_r+0x78a>;
    264e:	69 61       	R1 = 0x2d (X);		/*		R1=0x2d( 45) */
    2650:	b9 e6 43 fb 	B[FP + -0x4bd] = R1;
    2654:	80 43       	R0 = -R0;
    2656:	09 60       	R1 = 0x1 (X);		/*		R1=0x1(  1) */
    2658:	4c 2a       	JUMP.S 0x1af0 <__vfprintf_r+0x43c>;
    265a:	03 30       	R0 = R3;
    265c:	4b 30       	R1 = P3;
    265e:	3b e6 bb fe 	[FP + -0x514] = R3;
    2662:	3a e7 ba fe 	[FP + -0x518] = P2;
    2666:	00 e3 c7 1a 	CALL 0x5bf4 <___fpclassifyd>;
    266a:	00 0c       	CC = R0 == 0x0;
    266c:	3b e4 bb fe 	R3 = [FP + -0x514];
    2670:	3a e5 ba fe 	P2 = [FP + -0x518];
    2674:	60 1d       	IF CC JUMP 0x2934 <__vfprintf_r+0x1280> (BP);
    2676:	3f 0c       	CC = R7 == -0x1;
    2678:	02 14       	IF !CC JUMP 0x267c <__vfprintf_r+0xfc8> (BP);
    267a:	ef 22       	JUMP.S 0x2c58 <__vfprintf_r+0x15a4>;
    267c:	20 e1 67 00 	R0 = 0x67 (X);		/*		R0=0x67(103) */
    2680:	05 08       	CC = R5 == R0;
    2682:	02 14       	IF !CC JUMP 0x2686 <__vfprintf_r+0xfd2> (BP);
    2684:	e6 22       	JUMP.S 0x2c50 <__vfprintf_r+0x159c>;
    2686:	21 e1 47 00 	R1 = 0x47 (X);		/*		R1=0x47( 71) */
    268a:	0d 08       	CC = R5 == R1;
    268c:	02 14       	IF !CC JUMP 0x2690 <__vfprintf_r+0xfdc> (BP);
    268e:	e1 22       	JUMP.S 0x2c50 <__vfprintf_r+0x159c>;
    2690:	16 30       	R2 = R6;
    2692:	43 30       	R0 = P3;
    2694:	42 4a       	BITSET (R2, 0x8);		/* bit  8 */
    2696:	80 0c       	CC = R0 < 0x0;
    2698:	3a e6 ca fe 	[FP + -0x4d8] = R2;
    269c:	02 14       	IF !CC JUMP 0x26a0 <__vfprintf_r+0xfec> (BP);
    269e:	f3 22       	JUMP.S 0x2c84 <__vfprintf_r+0x15d0>;
    26a0:	02 60       	R2 = 0x0 (X);		/*		R2=0x0(  0) */
    26a2:	ba e6 24 fb 	B[FP + -0x4dc] = R2;
    26a6:	20 e1 66 00 	R0 = 0x66 (X);		/*		R0=0x66(102) */
    26aa:	05 08       	CC = R5 == R0;
    26ac:	02 14       	IF !CC JUMP 0x26b0 <__vfprintf_r+0xffc> (BP);
    26ae:	7c 22       	JUMP.S 0x2ba6 <__vfprintf_r+0x14f2>;
    26b0:	21 e1 46 00 	R1 = 0x46 (X);		/*		R1=0x46( 70) */
    26b4:	0d 08       	CC = R5 == R1;
    26b6:	02 14       	IF !CC JUMP 0x26ba <__vfprintf_r+0x1006> (BP);
    26b8:	77 22       	JUMP.S 0x2ba6 <__vfprintf_r+0x14f2>;
    26ba:	22 e1 65 00 	R2 = 0x65 (X);		/*		R2=0x65(101) */
    26be:	15 08       	CC = R5 == R2;
    26c0:	07 32       	P0 = R7;
    26c2:	02 14       	IF !CC JUMP 0x26c6 <__vfprintf_r+0x1012> (BP);
    26c4:	cc 22       	JUMP.S 0x2c5c <__vfprintf_r+0x15a8>;
    26c6:	20 e1 45 00 	R0 = 0x45 (X);		/*		R0=0x45( 69) */
    26ca:	05 08       	CC = R5 == R0;
    26cc:	02 14       	IF !CC JUMP 0x26d0 <__vfprintf_r+0x101c> (BP);
    26ce:	c7 22       	JUMP.S 0x2c5c <__vfprintf_r+0x15a8>;
    26d0:	29 e1 48 fb 	P1 = -0x4b8 (X);		/*		P1=0xfffffb48(-1208) */
    26d4:	4f 5a       	P1 = FP + P1;
    26d6:	71 bd       	[SP + 0x14] = P1;
    26d8:	29 e1 4c fb 	P1 = -0x4b4 (X);		/*		P1=0xfffffb4c(-1204) */
    26dc:	4f 5a       	P1 = FP + P1;
    26de:	b1 bd       	[SP + 0x18] = P1;
    26e0:	29 e1 50 fb 	P1 = -0x4b0 (X);		/*		P1=0xfffffb50(-1200) */
    26e4:	10 60       	R0 = 0x2 (X);		/*		R0=0x2(  2) */
    26e6:	4f 5a       	P1 = FP + P1;
    26e8:	82 ce 03 c2 	R1 = ROT R3 BY 0x0 || [SP + 0xc] = R0 || NOP;
    26ec:	f0 b0 00 00 
    26f0:	30 bd       	[SP + 0x10] = P0;
    26f2:	f1 bd       	[SP + 0x1c] = P1;
    26f4:	44 30       	R0 = P4;
    26f6:	53 30       	R2 = P3;
    26f8:	3b e6 bb fe 	[FP + -0x514] = R3;
    26fc:	38 e7 b9 fe 	[FP + -0x51c] = P0;
    2700:	3a e7 ba fe 	[FP + -0x518] = P2;
    2704:	00 e3 2e 05 	CALL 0x3160 <__dtoa_r>;
    2708:	21 e1 67 00 	R1 = 0x67 (X);		/*		R1=0x67(103) */
    270c:	0d 08       	CC = R5 == R1;
    270e:	38 e6 c8 fe 	[FP + -0x4e0] = R0;
    2712:	3b e4 bb fe 	R3 = [FP + -0x514];
    2716:	38 e5 b9 fe 	P0 = [FP + -0x51c];
    271a:	3a e5 ba fe 	P2 = [FP + -0x518];
    271e:	05 18       	IF CC JUMP 0x2728 <__vfprintf_r+0x1074>;
    2720:	22 e1 47 00 	R2 = 0x47 (X);		/*		R2=0x47( 71) */
    2724:	15 08       	CC = R5 == R2;
    2726:	04 10       	IF !CC JUMP 0x272e <__vfprintf_r+0x107a>;
    2728:	06 48       	CC = !BITTST (R6, 0x0);		/* bit  0 */
    272a:	02 14       	IF !CC JUMP 0x272e <__vfprintf_r+0x107a> (BP);
    272c:	b2 22       	JUMP.S 0x2c90 <__vfprintf_r+0x15dc>;
    272e:	20 e1 46 00 	R0 = 0x46 (X);		/*		R0=0x46( 70) */
    2732:	05 08       	CC = R5 == R0;
    2734:	3d e5 c8 fe 	P5 = [FP + -0x4e0];
    2738:	45 5a       	P1 = P5 + P0;
    273a:	02 14       	IF !CC JUMP 0x273e <__vfprintf_r+0x108a> (BP);
    273c:	58 22       	JUMP.S 0x2bec <__vfprintf_r+0x1538>;
    273e:	00 60       	R0 = 0x0 (X);		/*		R0=0x0(  0) */
    2740:	f0 b0       	[SP + 0xc] = R0;
    2742:	02 60       	R2 = 0x0 (X);		/*		R2=0x0(  0) */
    2744:	03 30       	R0 = R3;
    2746:	4b 30       	R1 = P3;
    2748:	39 e7 b8 fe 	[FP + -0x520] = P1;
    274c:	3a e7 ba fe 	[FP + -0x518] = P2;
    2750:	00 e3 56 2c 	CALL 0x7ffc <___eqdf2>;
    2754:	00 0c       	CC = R0 == 0x0;
    2756:	39 e5 b8 fe 	P1 = [FP + -0x520];
    275a:	3a e5 ba fe 	P2 = [FP + -0x518];
    275e:	0c 1c       	IF CC JUMP 0x2776 <__vfprintf_r+0x10c2> (BP);
    2760:	38 e5 d4 fe 	P0 = [FP + -0x4b0];
    2764:	41 0a       	CC = P1 <= P0 (IU);
    2766:	02 14       	IF !CC JUMP 0x276a <__vfprintf_r+0x10b6> (BP);
    2768:	3b 23       	JUMP.S 0x2dde <__vfprintf_r+0x172a>;
    276a:	80 61       	R0 = 0x30 (X);		/*		R0=0x30( 48) */
    276c:	00 9a       	B[P0++] = R0;
    276e:	41 08       	CC = P1 == P0;
    2770:	38 e7 d4 fe 	[FP + -0x4b0] = P0;
    2774:	fc 17       	IF !CC JUMP 0x276c <__vfprintf_r+0x10b8> (BP);
    2776:	20 e1 67 00 	R0 = 0x67 (X);		/*		R0=0x67(103) */
    277a:	38 e5 c8 fe 	P0 = [FP + -0x4e0];
    277e:	05 08       	CC = R5 == R0;
    2780:	01 44       	P1 -= P0;
    2782:	39 e7 c6 fe 	[FP + -0x4e8] = P1;
    2786:	c1 19       	IF CC JUMP 0x2b08 <__vfprintf_r+0x1454>;
    2788:	21 e1 47 00 	R1 = 0x47 (X);		/*		R1=0x47( 71) */
    278c:	0d 08       	CC = R5 == R1;
    278e:	bd 19       	IF CC JUMP 0x2b08 <__vfprintf_r+0x1454>;
    2790:	22 e1 66 00 	R2 = 0x66 (X);		/*		R2=0x66(102) */
    2794:	15 08       	CC = R5 == R2;
    2796:	02 1c       	IF CC JUMP 0x279a <__vfprintf_r+0x10e6> (BP);
    2798:	20 23       	JUMP.S 0x2dd8 <__vfprintf_r+0x1724>;
    279a:	38 e4 d2 fe 	R0 = [FP + -0x4b8];
    279e:	00 0d       	CC = R0 <= 0x0;
    27a0:	02 14       	IF !CC JUMP 0x27a4 <__vfprintf_r+0x10f0> (BP);
    27a2:	ec 22       	JUMP.S 0x2d7a <__vfprintf_r+0x16c6>;
    27a4:	07 0c       	CC = R7 == 0x0;
    27a6:	02 18       	IF CC JUMP 0x27aa <__vfprintf_r+0x10f6>;
    27a8:	df 22       	JUMP.S 0x2d66 <__vfprintf_r+0x16b2>;
    27aa:	06 48       	CC = !BITTST (R6, 0x0);		/* bit  0 */
    27ac:	02 18       	IF CC JUMP 0x27b0 <__vfprintf_r+0x10fc>;
    27ae:	dc 22       	JUMP.S 0x2d66 <__vfprintf_r+0x16b2>;
    27b0:	01 60       	R1 = 0x0 (X);		/*		R1=0x0(  0) */
    27b2:	07 c4 01 02 	R1 = MAX (R0, R1);
    27b6:	39 e6 ce fe 	[FP + -0x4c8] = R1;
    27ba:	38 e6 cc fe 	[FP + -0x4d0] = R0;
    27be:	38 e6 c2 fe 	[FP + -0x4f8] = R0;
    27c2:	b8 e5 24 fb 	R0 = B[FP + -0x4dc] (X);
    27c6:	00 0c       	CC = R0 == 0x0;
    27c8:	94 1d       	IF CC JUMP 0x2af0 <__vfprintf_r+0x143c> (BP);
    27ca:	68 61       	R0 = 0x2d (X);		/*		R0=0x2d( 45) */
    27cc:	01 68       	P1 = 0x0 (X);		/*		P1=0x0(  0) */
    27ce:	b8 e6 43 fb 	B[FP + -0x4bd] = R0;
    27d2:	3e e4 ca fe 	R6 = [FP + -0x4d8];
    27d6:	39 e7 c7 fe 	[FP + -0x4e4] = P1;
    27da:	b5 29       	JUMP.S 0x1b44 <__vfprintf_r+0x490>;
    27dc:	39 af       	P1 = [FP + 0x30];
    27de:	4b ac       	P3 = [P1 + 0x4];
    27e0:	0b 91       	R3 = [P1];
    27e2:	41 6c       	P1 += 0x8;		/* (  8) */
    27e4:	3b e6 bf fe 	[FP + -0x504] = R3;
    27e8:	3b e7 c0 fe 	[FP + -0x500] = P3;
    27ec:	39 bf       	[FP + 0x30] = P1;
    27ee:	89 2a       	JUMP.S 0x1d00 <__vfprintf_r+0x64c>;
    27f0:	3d af       	P5 = [FP + 0x30];
    27f2:	28 91       	R0 = [P5];
    27f4:	25 6c       	P5 += 0x4;		/* (  4) */
    27f6:	3d bf       	[FP + 0x30] = P5;
    27f8:	45 2a       	JUMP.S 0x1c82 <__vfprintf_r+0x5ce>;
    27fa:	3b af       	P3 = [FP + 0x30];
    27fc:	18 91       	R0 = [P3];
    27fe:	23 6c       	P3 += 0x4;		/* (  4) */
    2800:	3b bf       	[FP + 0x30] = P3;
    2802:	02 2a       	JUMP.S 0x1c06 <__vfprintf_r+0x552>;
    2804:	3b af       	P3 = [FP + 0x30];
    2806:	09 60       	R1 = 0x1 (X);		/*		R1=0x1(  1) */
    2808:	18 91       	R0 = [P3];
    280a:	23 6c       	P3 += 0x4;		/* (  4) */
    280c:	3b bf       	[FP + 0x30] = P3;
    280e:	6e 29       	JUMP.S 0x1aea <__vfprintf_r+0x436>;
    2810:	3b af       	P3 = [FP + 0x30];
    2812:	01 60       	R1 = 0x0 (X);		/*		R1=0x0(  0) */
    2814:	18 91       	R0 = [P3];
    2816:	23 6c       	P3 += 0x4;		/* (  4) */
    2818:	3b bf       	[FP + 0x30] = P3;
    281a:	68 29       	JUMP.S 0x1aea <__vfprintf_r+0x436>;
    281c:	0f 64       	R7 += 0x1;		/* (  1) */
    281e:	39 60       	R1 = 0x7 (X);		/*		R1=0x7(  7) */
    2820:	eb 50       	R3 = R3 + R5;
    2822:	0f 09       	CC = R7 <= R1;
    2824:	55 93       	[P2] = P5;
    2826:	55 b0       	[P2 + 0x4] = R5;
    2828:	3b e6 db fe 	[FP + -0x494] = R3;
    282c:	3f e6 da fe 	[FP + -0x498] = R7;
    2830:	4b 12       	IF !CC JUMP 0x24c6 <__vfprintf_r+0xe12>;
    2832:	42 6c       	P2 += 0x8;		/* (  8) */
    2834:	59 2e       	JUMP.S 0x24e6 <__vfprintf_r+0xe32>;
    2836:	5f 30       	R3 = FP;
    2838:	22 e1 64 fb 	R2 = -0x49c (X);		/*		R2=0xfffffb64(-1180) */
    283c:	44 30       	R0 = P4;
    283e:	0c 30       	R1 = R4;
    2840:	93 50       	R2 = R3 + R2;
    2842:	00 e3 3b 1b 	CALL 0x5eb8 <___sprint_r>;
    2846:	00 0c       	CC = R0 == 0x0;
    2848:	02 1c       	IF CC JUMP 0x284c <__vfprintf_r+0x1198> (BP);
    284a:	d8 28       	JUMP.S 0x19fa <__vfprintf_r+0x346>;
    284c:	2a e1 00 fc 	P2 = -0x400 (X);		/*		P2=0xfffffc00(-1024) */
    2850:	97 5a       	P2 = FP + P2;
    2852:	3b e4 db fe 	R3 = [FP + -0x494];
    2856:	fa 2b       	JUMP.S 0x204a <__vfprintf_r+0x996>;
    2858:	40 e1 00 00 	R0.H = 0x0;		/* (  0)	R0=0x2d( 45) */
    285c:	00 e1 e4 87 	R0.L = 0x87e4;		/* (-30748)	R0=0x87e4(34788) */
    2860:	10 93       	[P2] = R0;
    2862:	08 60       	R0 = 0x1 (X);		/*		R0=0x1(  1) */
    2864:	50 b0       	[P2 + 0x4] = R0;
    2866:	38 e4 da fe 	R0 = [FP + -0x498];
    286a:	08 64       	R0 += 0x1;		/* (  1) */
    286c:	39 60       	R1 = 0x7 (X);		/*		R1=0x7(  7) */
    286e:	0b 64       	R3 += 0x1;		/* (  1) */
    2870:	08 09       	CC = R0 <= R1;
    2872:	3b e6 db fe 	[FP + -0x494] = R3;
    2876:	38 e6 da fe 	[FP + -0x498] = R0;
    287a:	71 10       	IF !CC JUMP 0x295c <__vfprintf_r+0x12a8>;
    287c:	42 6c       	P2 += 0x8;		/* (  8) */
    287e:	05 0c       	CC = R5 == 0x0;
    2880:	08 14       	IF !CC JUMP 0x2890 <__vfprintf_r+0x11dc> (BP);
    2882:	38 e4 c6 fe 	R0 = [FP + -0x4e8];
    2886:	00 0c       	CC = R0 == 0x0;
    2888:	04 14       	IF !CC JUMP 0x2890 <__vfprintf_r+0x11dc> (BP);
    288a:	06 48       	CC = !BITTST (R6, 0x0);		/* bit  0 */
    288c:	02 10       	IF !CC JUMP 0x2890 <__vfprintf_r+0x11dc>;
    288e:	31 2b       	JUMP.S 0x1ef0 <__vfprintf_r+0x83c>;
    2890:	39 60       	R1 = 0x7 (X);		/*		R1=0x7(  7) */
    2892:	38 e5 c3 fe 	P0 = [FP + -0x4f4];
    2896:	3f e4 da fe 	R7 = [FP + -0x498];
    289a:	38 e4 c1 fe 	R0 = [FP + -0x4fc];
    289e:	0f 64       	R7 += 0x1;		/* (  1) */
    28a0:	c3 50       	R3 = R3 + R0;
    28a2:	0f 09       	CC = R7 <= R1;
    28a4:	50 93       	[P2] = P0;
    28a6:	50 b0       	[P2 + 0x4] = R0;
    28a8:	3b e6 db fe 	[FP + -0x494] = R3;
    28ac:	3f e6 da fe 	[FP + -0x498] = R7;
    28b0:	ba 11       	IF !CC JUMP 0x2c24 <__vfprintf_r+0x1570>;
    28b2:	42 6c       	P2 += 0x8;		/* (  8) */
    28b4:	ad 43       	R5 = -R5;
    28b6:	05 0d       	CC = R5 <= 0x0;
    28b8:	90 18       	IF CC JUMP 0x29d8 <__vfprintf_r+0x1324>;
    28ba:	80 60       	R0 = 0x10 (X);		/*		R0=0x10( 16) */
    28bc:	4d e1 00 00 	P5.H = 0x0;		/* (  0)	P5=0x895c <_zeroes.4060> */
    28c0:	05 09       	CC = R5 <= R0;
    28c2:	0d e1 5c 89 	P5.L = 0x895c;		/* (-30372)	P5=0x895c <_zeroes.4060> */
    28c6:	2b e1 00 fc 	P3 = -0x400 (X);		/*		P3=0xfffffc00(-1024) */
    28ca:	07 14       	IF !CC JUMP 0x28d8 <__vfprintf_r+0x1224> (BP);
    28cc:	d7 20       	JUMP.S 0x2a7a <__vfprintf_r+0x13c6>;
    28ce:	42 6c       	P2 += 0x8;		/* (  8) */
    28d0:	85 67       	R5 += -0x10;		/* (-16) */
    28d2:	80 60       	R0 = 0x10 (X);		/*		R0=0x10( 16) */
    28d4:	05 09       	CC = R5 <= R0;
    28d6:	d2 18       	IF CC JUMP 0x2a7a <__vfprintf_r+0x13c6>;
    28d8:	0f 64       	R7 += 0x1;		/* (  1) */
    28da:	39 60       	R1 = 0x7 (X);		/*		R1=0x7(  7) */
    28dc:	80 60       	R0 = 0x10 (X);		/*		R0=0x10( 16) */
    28de:	83 64       	R3 += 0x10;		/* ( 16) */
    28e0:	0f 09       	CC = R7 <= R1;
    28e2:	55 93       	[P2] = P5;
    28e4:	50 b0       	[P2 + 0x4] = R0;
    28e6:	3b e6 db fe 	[FP + -0x494] = R3;
    28ea:	3f e6 da fe 	[FP + -0x498] = R7;
    28ee:	f0 1f       	IF CC JUMP 0x28ce <__vfprintf_r+0x121a> (BP);
    28f0:	28 e1 64 fb 	P0 = -0x49c (X);		/*		P0=0xfffffb64(-1180) */
    28f4:	38 5a       	P0 = P0 + FP;
    28f6:	44 30       	R0 = P4;
    28f8:	0c 30       	R1 = R4;
    28fa:	50 30       	R2 = P0;
    28fc:	00 e3 de 1a 	CALL 0x5eb8 <___sprint_r>;
    2900:	00 0c       	CC = R0 == 0x0;
    2902:	02 1c       	IF CC JUMP 0x2906 <__vfprintf_r+0x1252> (BP);
    2904:	7b 28       	JUMP.S 0x19fa <__vfprintf_r+0x346>;
    2906:	9f 5a       	P2 = FP + P3;
    2908:	3b e4 db fe 	R3 = [FP + -0x494];
    290c:	3f e4 da fe 	R7 = [FP + -0x498];
    2910:	e0 2f       	JUMP.S 0x28d0 <__vfprintf_r+0x121c>;
    2912:	00 cc 1b c6 	R3 = R3 -|- R3 || [FP + 0x30] = P3 || NOP;
    2916:	3b bf 00 00 
    291a:	39 e4 cc fe 	R1 = [FP + -0x4d0];
    291e:	07 c4 08 00 	R0 = MAX (R1, R0);
    2922:	38 e6 ce fe 	[FP + -0x4c8] = R0;
    2926:	3b e6 c7 fe 	[FP + -0x4e4] = R3;
    292a:	b8 e5 43 fb 	R0 = B[FP + -0x4bd] (X);
    292e:	3b e6 c2 fe 	[FP + -0x4f8] = R3;
    2932:	06 29       	JUMP.S 0x1b3e <__vfprintf_r+0x48a>;
    2934:	20 e1 47 00 	R0 = 0x47 (X);		/*		R0=0x47( 71) */
    2938:	05 09       	CC = R5 <= R0;
    293a:	4d e1 00 00 	P5.H = 0x0;		/* (  0)	P5=0x895c <_zeroes.4060> */
    293e:	40 e1 00 00 	R0.H = 0x0;		/* (  0)	R0=0x47( 71) */
    2942:	00 e1 ac 87 	R0.L = 0x87ac;		/* (-30804)	R0=0x87ac(34732) */
    2946:	0d e1 b0 87 	P5.L = 0x87b0;		/* (-30800)	P5=0x87b0 */
    294a:	a8 07       	IF CC P5 = R0;
    294c:	3d e7 c8 fe 	[FP + -0x4e0] = P5;
    2950:	3e 4c       	BITCLR (R6, 0x7);		/* bit  7 */
    2952:	b8 e5 43 fb 	R0 = B[FP + -0x4bd] (X);
    2956:	01 2a       	JUMP.S 0x1d58 <__vfprintf_r+0x6a4>;
    2958:	5a 32       	P3 = P2;
    295a:	70 2c       	JUMP.S 0x223a <__vfprintf_r+0xb86>;
    295c:	5f 30       	R3 = FP;
    295e:	22 e1 64 fb 	R2 = -0x49c (X);		/*		R2=0xfffffb64(-1180) */
    2962:	44 30       	R0 = P4;
    2964:	0c 30       	R1 = R4;
    2966:	93 50       	R2 = R3 + R2;
    2968:	00 e3 a8 1a 	CALL 0x5eb8 <___sprint_r>;
    296c:	00 0c       	CC = R0 == 0x0;
    296e:	02 1c       	IF CC JUMP 0x2972 <__vfprintf_r+0x12be> (BP);
    2970:	45 28       	JUMP.S 0x19fa <__vfprintf_r+0x346>;
    2972:	2a e1 00 fc 	P2 = -0x400 (X);		/*		P2=0xfffffc00(-1024) */
    2976:	97 5a       	P2 = FP + P2;
    2978:	3d e4 d2 fe 	R5 = [FP + -0x4b8];
    297c:	3b e4 db fe 	R3 = [FP + -0x494];
    2980:	7f 2f       	JUMP.S 0x287e <__vfprintf_r+0x11ca>;
    2982:	5f 30       	R3 = FP;
    2984:	22 e1 64 fb 	R2 = -0x49c (X);		/*		R2=0xfffffb64(-1180) */
    2988:	44 30       	R0 = P4;
    298a:	0c 30       	R1 = R4;
    298c:	93 50       	R2 = R3 + R2;
    298e:	00 e3 95 1a 	CALL 0x5eb8 <___sprint_r>;
    2992:	00 0c       	CC = R0 == 0x0;
    2994:	02 1c       	IF CC JUMP 0x2998 <__vfprintf_r+0x12e4> (BP);
    2996:	32 28       	JUMP.S 0x19fa <__vfprintf_r+0x346>;
    2998:	2a e1 00 fc 	P2 = -0x400 (X);		/*		P2=0xfffffc00(-1024) */
    299c:	97 5a       	P2 = FP + P2;
    299e:	3b e4 db fe 	R3 = [FP + -0x494];
    29a2:	6f 2b       	JUMP.S 0x2080 <__vfprintf_r+0x9cc>;
    29a4:	38 e4 c4 fe 	R0 = [FP + -0x4f0];
    29a8:	3b e4 c8 fe 	R3 = [FP + -0x4e0];
    29ac:	18 52       	R0 = R0 - R3;
    29ae:	38 e6 cc fe 	[FP + -0x4d0] = R0;
    29b2:	b9 28       	JUMP.S 0x1b24 <__vfprintf_r+0x470>;
    29b4:	5f 30       	R3 = FP;
    29b6:	22 e1 64 fb 	R2 = -0x49c (X);		/*		R2=0xfffffb64(-1180) */
    29ba:	44 30       	R0 = P4;
    29bc:	0c 30       	R1 = R4;
    29be:	93 50       	R2 = R3 + R2;
    29c0:	00 e3 7c 1a 	CALL 0x5eb8 <___sprint_r>;
    29c4:	00 0c       	CC = R0 == 0x0;
    29c6:	02 1c       	IF CC JUMP 0x29ca <__vfprintf_r+0x1316> (BP);
    29c8:	19 28       	JUMP.S 0x19fa <__vfprintf_r+0x346>;
    29ca:	2a e1 00 fc 	P2 = -0x400 (X);		/*		P2=0xfffffc00(-1024) */
    29ce:	97 5a       	P2 = FP + P2;
    29d0:	3b e4 db fe 	R3 = [FP + -0x494];
    29d4:	3f e4 da fe 	R7 = [FP + -0x498];
    29d8:	38 e5 c8 fe 	P0 = [FP + -0x4e0];
    29dc:	3d e4 c6 fe 	R5 = [FP + -0x4e8];
    29e0:	0f 64       	R7 += 0x1;		/* (  1) */
    29e2:	38 60       	R0 = 0x7 (X);		/*		R0=0x7(  7) */
    29e4:	eb 50       	R3 = R3 + R5;
    29e6:	07 09       	CC = R7 <= R0;
    29e8:	50 93       	[P2] = P0;
    29ea:	55 b0       	[P2 + 0x4] = R5;
    29ec:	3b e6 db fe 	[FP + -0x494] = R3;
    29f0:	3f e6 da fe 	[FP + -0x498] = R7;
    29f4:	02 10       	IF !CC JUMP 0x29f8 <__vfprintf_r+0x1344>;
    29f6:	7c 2a       	JUMP.S 0x1eee <__vfprintf_r+0x83a>;
    29f8:	ed 2a       	JUMP.S 0x1fd2 <__vfprintf_r+0x91e>;
    29fa:	3a e7 ba fe 	[FP + -0x518] = P2;
    29fe:	00 e3 15 1a 	CALL 0x5e28 <_strlen>;
    2a02:	38 e6 cc fe 	[FP + -0x4d0] = R0;
    2a06:	39 e4 cc fe 	R1 = [FP + -0x4d0];
    2a0a:	00 cc 00 c0 	R0 = R0 -|- R0 || [FP + 0x30] = P3 || NOP;
    2a0e:	3b bf 00 00 
    2a12:	07 c4 08 00 	R0 = MAX (R1, R0);
    2a16:	03 60       	R3 = 0x0 (X);		/*		R3=0x0(  0) */
    2a18:	38 e6 ce fe 	[FP + -0x4c8] = R0;
    2a1c:	3b e6 c7 fe 	[FP + -0x4e4] = R3;
    2a20:	b8 e5 43 fb 	R0 = B[FP + -0x4bd] (X);
    2a24:	3b e6 c2 fe 	[FP + -0x4f8] = R3;
    2a28:	3a e5 ba fe 	P2 = [FP + -0x518];
    2a2c:	89 28       	JUMP.S 0x1b3e <__vfprintf_r+0x48a>;
    2a2e:	5f 30       	R3 = FP;
    2a30:	22 e1 64 fb 	R2 = -0x49c (X);		/*		R2=0xfffffb64(-1180) */
    2a34:	44 30       	R0 = P4;
    2a36:	0c 30       	R1 = R4;
    2a38:	93 50       	R2 = R3 + R2;
    2a3a:	00 e3 3f 1a 	CALL 0x5eb8 <___sprint_r>;
    2a3e:	00 0c       	CC = R0 == 0x0;
    2a40:	03 1c       	IF CC JUMP 0x2a46 <__vfprintf_r+0x1392> (BP);
    2a42:	ff e2 dc f7 	JUMP.L 0x19fa <__vfprintf_r+0x346>;
    2a46:	2a e1 00 fc 	P2 = -0x400 (X);		/*		P2=0xfffffc00(-1024) */
    2a4a:	97 5a       	P2 = FP + P2;
    2a4c:	3b e4 db fe 	R3 = [FP + -0x494];
    2a50:	91 2c       	JUMP.S 0x2372 <__vfprintf_r+0xcbe>;
    2a52:	5f 30       	R3 = FP;
    2a54:	22 e1 64 fb 	R2 = -0x49c (X);		/*		R2=0xfffffb64(-1180) */
    2a58:	44 30       	R0 = P4;
    2a5a:	0c 30       	R1 = R4;
    2a5c:	93 50       	R2 = R3 + R2;
    2a5e:	00 e3 2d 1a 	CALL 0x5eb8 <___sprint_r>;
    2a62:	00 0c       	CC = R0 == 0x0;
    2a64:	03 1c       	IF CC JUMP 0x2a6a <__vfprintf_r+0x13b6> (BP);
    2a66:	ff e2 ca f7 	JUMP.L 0x19fa <__vfprintf_r+0x346>;
    2a6a:	2a e1 00 fc 	P2 = -0x400 (X);		/*		P2=0xfffffc00(-1024) */
    2a6e:	97 5a       	P2 = FP + P2;
    2a70:	39 e4 d2 fe 	R1 = [FP + -0x4b8];
    2a74:	3b e4 db fe 	R3 = [FP + -0x494];
    2a78:	44 2d       	JUMP.S 0x2500 <__vfprintf_r+0xe4c>;
    2a7a:	0f 64       	R7 += 0x1;		/* (  1) */
    2a7c:	39 60       	R1 = 0x7 (X);		/*		R1=0x7(  7) */
    2a7e:	eb 50       	R3 = R3 + R5;
    2a80:	0f 09       	CC = R7 <= R1;
    2a82:	55 93       	[P2] = P5;
    2a84:	55 b0       	[P2 + 0x4] = R5;
    2a86:	3b e6 db fe 	[FP + -0x494] = R3;
    2a8a:	3f e6 da fe 	[FP + -0x498] = R7;
    2a8e:	93 13       	IF !CC JUMP 0x29b4 <__vfprintf_r+0x1300>;
    2a90:	42 6c       	P2 += 0x8;		/* (  8) */
    2a92:	a3 2f       	JUMP.S 0x29d8 <__vfprintf_r+0x1324>;
    2a94:	5f 30       	R3 = FP;
    2a96:	22 e1 64 fb 	R2 = -0x49c (X);		/*		R2=0xfffffb64(-1180) */
    2a9a:	44 30       	R0 = P4;
    2a9c:	0c 30       	R1 = R4;
    2a9e:	93 50       	R2 = R3 + R2;
    2aa0:	00 e3 0c 1a 	CALL 0x5eb8 <___sprint_r>;
    2aa4:	00 0c       	CC = R0 == 0x0;
    2aa6:	03 1c       	IF CC JUMP 0x2aac <__vfprintf_r+0x13f8> (BP);
    2aa8:	ff e2 a9 f7 	JUMP.L 0x19fa <__vfprintf_r+0x346>;
    2aac:	2a e1 00 fc 	P2 = -0x400 (X);		/*		P2=0xfffffc00(-1024) */
    2ab0:	97 5a       	P2 = FP + P2;
    2ab2:	39 e4 d2 fe 	R1 = [FP + -0x4b8];
    2ab6:	3d e4 c6 fe 	R5 = [FP + -0x4e8];
    2aba:	4d 52       	R1 = R5 - R1;
    2abc:	3b e4 db fe 	R3 = [FP + -0x494];
    2ac0:	3a 2d       	JUMP.S 0x2534 <__vfprintf_r+0xe80>;
    2ac2:	37 0e       	CC = R7 <= 0x6 (IU);
    2ac4:	30 60       	R0 = 0x6 (X);		/*		R0=0x6(  6) */
    2ac6:	07 07       	IF CC R0 = R7;
    2ac8:	38 e6 cc fe 	[FP + -0x4d0] = R0;
    2acc:	39 e4 cc fe 	R1 = [FP + -0x4d0];
    2ad0:	00 cc 00 c0 	R0 = R0 -|- R0 || [FP + 0x30] = P3 || NOP;
    2ad4:	3b bf 00 00 
    2ad8:	48 e1 00 00 	P0.H = 0x0;		/* (  0)	P0=0xfb64 */
    2adc:	07 c4 08 00 	R0 = MAX (R1, R0);
    2ae0:	08 e1 dc 87 	P0.L = 0x87dc;		/* (-30756)	P0=0x87dc */
    2ae4:	38 e6 ce fe 	[FP + -0x4c8] = R0;
    2ae8:	38 e7 c8 fe 	[FP + -0x4e0] = P0;
    2aec:	ff e2 9e f6 	JUMP.L 0x1828 <__vfprintf_r+0x174>;
    2af0:	01 68       	P1 = 0x0 (X);		/*		P1=0x0(  0) */
    2af2:	b8 e5 43 fb 	R0 = B[FP + -0x4bd] (X);
    2af6:	3e e4 ca fe 	R6 = [FP + -0x4d8];
    2afa:	39 e7 c7 fe 	[FP + -0x4e4] = P1;
    2afe:	20 28       	JUMP.S 0x1b3e <__vfprintf_r+0x48a>;
    2b00:	68 61       	R0 = 0x2d (X);		/*		R0=0x2d( 45) */
    2b02:	b8 e6 43 fb 	B[FP + -0x4bd] = R0;
    2b06:	1a 29       	JUMP.S 0x1d3a <__vfprintf_r+0x686>;
    2b08:	38 e4 d2 fe 	R0 = [FP + -0x4b8];
    2b0c:	a8 0c       	CC = R0 < -0x3;
    2b0e:	08 30       	R1 = R0;
    2b10:	03 1c       	IF CC JUMP 0x2b16 <__vfprintf_r+0x1462> (BP);
    2b12:	87 08       	CC = R7 < R0;
    2b14:	39 14       	IF !CC JUMP 0x2b86 <__vfprintf_r+0x14d2> (BP);
    2b16:	f5 67       	R5 += -0x2;		/* ( -2) */
    2b18:	39 30       	R7 = R1;
    2b1a:	ff 67       	R7 += -0x1;		/* ( -1) */
    2b1c:	87 0c       	CC = R7 < 0x0;
    2b1e:	3f e6 d2 fe 	[FP + -0x4b8] = R7;
    2b22:	bd e6 54 fb 	B[FP + -0x4ac] = R5;
    2b26:	4a 19       	IF CC JUMP 0x2dba <__vfprintf_r+0x1706>;
    2b28:	58 61       	R0 = 0x2b (X);		/*		R0=0x2b( 43) */
    2b2a:	b8 e6 55 fb 	B[FP + -0x4ab] = R0;
    2b2e:	4b 60       	R3 = 0x9 (X);		/*		R3=0x9(  9) */
    2b30:	1f 09       	CC = R7 <= R3;
    2b32:	b2 14       	IF !CC JUMP 0x2c96 <__vfprintf_r+0x15e2> (BP);
    2b34:	80 61       	R0 = 0x30 (X);		/*		R0=0x30( 48) */
    2b36:	87 65       	R7 += 0x30;		/* ( 48) */
    2b38:	29 e1 58 fb 	P1 = -0x4a8 (X);		/*		P1=0xfffffb58(-1192) */
    2b3c:	b8 e6 56 fb 	B[FP + -0x4aa] = R0;
    2b40:	bf e6 57 fb 	B[FP + -0x4a9] = R7;
    2b44:	4f 5a       	P1 = FP + P1;
    2b46:	28 e1 54 fb 	P0 = -0x4ac (X);		/*		P0=0xfffffb54(-1196) */
    2b4a:	07 5a       	P0 = FP + P0;
    2b4c:	01 44       	P1 -= P0;
    2b4e:	59 30       	R3 = P1;
    2b50:	38 e4 c6 fe 	R0 = [FP + -0x4e8];
    2b54:	18 50       	R0 = R0 + R3;
    2b56:	3b e4 c6 fe 	R3 = [FP + -0x4e8];
    2b5a:	0b 0d       	CC = R3 <= 0x1;
    2b5c:	39 e7 be fe 	[FP + -0x508] = P1;
    2b60:	38 e6 cc fe 	[FP + -0x4d0] = R0;
    2b64:	30 19       	IF CC JUMP 0x2dc4 <__vfprintf_r+0x1710>;
    2b66:	38 e4 cc fe 	R0 = [FP + -0x4d0];
    2b6a:	08 64       	R0 += 0x1;		/* (  1) */
    2b6c:	38 e6 cc fe 	[FP + -0x4d0] = R0;
    2b70:	00 60       	R0 = 0x0 (X);		/*		R0=0x0(  0) */
    2b72:	39 e4 cc fe 	R1 = [FP + -0x4d0];
    2b76:	07 c4 08 00 	R0 = MAX (R1, R0);
    2b7a:	03 60       	R3 = 0x0 (X);		/*		R3=0x0(  0) */
    2b7c:	38 e6 ce fe 	[FP + -0x4c8] = R0;
    2b80:	3b e6 c2 fe 	[FP + -0x4f8] = R3;
    2b84:	1f 2e       	JUMP.S 0x27c2 <__vfprintf_r+0x110e>;
    2b86:	3d e4 c6 fe 	R5 = [FP + -0x4e8];
    2b8a:	a8 08       	CC = R0 < R5;
    2b8c:	6a 1c       	IF CC JUMP 0x2c60 <__vfprintf_r+0x15ac> (BP);
    2b8e:	06 48       	CC = !BITTST (R6, 0x0);		/* bit  0 */
    2b90:	de 14       	IF !CC JUMP 0x2d4c <__vfprintf_r+0x1698> (BP);
    2b92:	01 60       	R1 = 0x0 (X);		/*		R1=0x0(  0) */
    2b94:	07 c4 01 02 	R1 = MAX (R0, R1);
    2b98:	39 e6 ce fe 	[FP + -0x4c8] = R1;
    2b9c:	38 e6 cc fe 	[FP + -0x4d0] = R0;
    2ba0:	25 e1 67 00 	R5 = 0x67 (X);		/*		R5=0x67(103) */
    2ba4:	0d 2e       	JUMP.S 0x27be <__vfprintf_r+0x110a>;
    2ba6:	29 e1 48 fb 	P1 = -0x4b8 (X);		/*		P1=0xfffffb48(-1208) */
    2baa:	4f 5a       	P1 = FP + P1;
    2bac:	71 bd       	[SP + 0x14] = P1;
    2bae:	29 e1 4c fb 	P1 = -0x4b4 (X);		/*		P1=0xfffffb4c(-1204) */
    2bb2:	4f 5a       	P1 = FP + P1;
    2bb4:	b1 bd       	[SP + 0x18] = P1;
    2bb6:	29 e1 50 fb 	P1 = -0x4b0 (X);		/*		P1=0xfffffb50(-1200) */
    2bba:	4f 5a       	P1 = FP + P1;
    2bbc:	18 60       	R0 = 0x3 (X);		/*		R0=0x3(  3) */
    2bbe:	f0 b0       	[SP + 0xc] = R0;
    2bc0:	f1 bd       	[SP + 0x1c] = P1;
    2bc2:	82 ce 03 c2 	R1 = ROT R3 BY 0x0 || [SP + 0x10] = R7 || NOP;
    2bc6:	37 b1 00 00 
    2bca:	44 30       	R0 = P4;
    2bcc:	53 30       	R2 = P3;
    2bce:	3b e6 bb fe 	[FP + -0x514] = R3;
    2bd2:	3a e7 ba fe 	[FP + -0x518] = P2;
    2bd6:	00 e3 c5 02 	CALL 0x3160 <__dtoa_r>;
    2bda:	28 32       	P5 = R0;
    2bdc:	07 32       	P0 = R7;
    2bde:	38 e6 c8 fe 	[FP + -0x4e0] = R0;
    2be2:	3b e4 bb fe 	R3 = [FP + -0x514];
    2be6:	3a e5 ba fe 	P2 = [FP + -0x518];
    2bea:	45 5a       	P1 = P5 + P0;
    2bec:	3d e5 c8 fe 	P5 = [FP + -0x4e0];
    2bf0:	81 61       	R1 = 0x30 (X);		/*		R1=0x30( 48) */
    2bf2:	68 99       	R0 = B[P5] (X);
    2bf4:	08 08       	CC = R0 == R1;
    2bf6:	8a 18       	IF CC JUMP 0x2d0a <__vfprintf_r+0x1656>;
    2bf8:	38 e5 d2 fe 	P0 = [FP + -0x4b8];
    2bfc:	41 5a       	P1 = P1 + P0;
    2bfe:	a0 2d       	JUMP.S 0x273e <__vfprintf_r+0x108a>;
    2c00:	07 cc 38 00 	R0 = MAX (R7, R0) || [FP + 0x30] = P3 || NOP;
    2c04:	3b bf 00 00 
    2c08:	01 68       	P1 = 0x0 (X);		/*		P1=0x0(  0) */
    2c0a:	03 60       	R3 = 0x0 (X);		/*		R3=0x0(  0) */
    2c0c:	38 e6 ce fe 	[FP + -0x4c8] = R0;
    2c10:	3f e6 cc fe 	[FP + -0x4d0] = R7;
    2c14:	b8 e5 43 fb 	R0 = B[FP + -0x4bd] (X);
    2c18:	39 e7 c7 fe 	[FP + -0x4e4] = P1;
    2c1c:	3b e6 c2 fe 	[FP + -0x4f8] = R3;
    2c20:	ff e2 8f f7 	JUMP.L 0x1b3e <__vfprintf_r+0x48a>;
    2c24:	5f 30       	R3 = FP;
    2c26:	22 e1 64 fb 	R2 = -0x49c (X);		/*		R2=0xfffffb64(-1180) */
    2c2a:	44 30       	R0 = P4;
    2c2c:	0c 30       	R1 = R4;
    2c2e:	93 50       	R2 = R3 + R2;
    2c30:	00 e3 44 19 	CALL 0x5eb8 <___sprint_r>;
    2c34:	00 0c       	CC = R0 == 0x0;
    2c36:	03 1c       	IF CC JUMP 0x2c3c <__vfprintf_r+0x1588> (BP);
    2c38:	ff e2 e1 f6 	JUMP.L 0x19fa <__vfprintf_r+0x346>;
    2c3c:	2a e1 00 fc 	P2 = -0x400 (X);		/*		P2=0xfffffc00(-1024) */
    2c40:	97 5a       	P2 = FP + P2;
    2c42:	3d e4 d2 fe 	R5 = [FP + -0x4b8];
    2c46:	3b e4 db fe 	R3 = [FP + -0x494];
    2c4a:	3f e4 da fe 	R7 = [FP + -0x498];
    2c4e:	33 2e       	JUMP.S 0x28b4 <__vfprintf_r+0x1200>;
    2c50:	07 0c       	CC = R7 == 0x0;
    2c52:	08 60       	R0 = 0x1 (X);		/*		R0=0x1(  1) */
    2c54:	38 07       	IF CC R7 = R0;
    2c56:	1d 2d       	JUMP.S 0x2690 <__vfprintf_r+0xfdc>;
    2c58:	37 60       	R7 = 0x6 (X);		/*		R7=0x6(  6) */
    2c5a:	1b 2d       	JUMP.S 0x2690 <__vfprintf_r+0xfdc>;
    2c5c:	08 6c       	P0 += 0x1;		/* (  1) */
    2c5e:	39 2d       	JUMP.S 0x26d0 <__vfprintf_r+0x101c>;
    2c60:	00 0d       	CC = R0 <= 0x0;
    2c62:	b4 18       	IF CC JUMP 0x2dca <__vfprintf_r+0x1716>;
    2c64:	09 60       	R1 = 0x1 (X);		/*		R1=0x1(  1) */
    2c66:	3b e4 c6 fe 	R3 = [FP + -0x4e8];
    2c6a:	59 50       	R1 = R1 + R3;
    2c6c:	39 e6 cc fe 	[FP + -0x4d0] = R1;
    2c70:	3d e4 cc fe 	R5 = [FP + -0x4d0];
    2c74:	01 60       	R1 = 0x0 (X);		/*		R1=0x0(  0) */
    2c76:	07 c4 29 02 	R1 = MAX (R5, R1);
    2c7a:	39 e6 ce fe 	[FP + -0x4c8] = R1;
    2c7e:	25 e1 67 00 	R5 = 0x67 (X);		/*		R5=0x67(103) */
    2c82:	9e 2d       	JUMP.S 0x27be <__vfprintf_r+0x110a>;
    2c84:	f8 4b       	BITTGL (R0, 0x1f);		/* bit 31 */
    2c86:	69 61       	R1 = 0x2d (X);		/*		R1=0x2d( 45) */
    2c88:	18 32       	P3 = R0;
    2c8a:	b9 e6 24 fb 	B[FP + -0x4dc] = R1;
    2c8e:	0c 2d       	JUMP.S 0x26a6 <__vfprintf_r+0xff2>;
    2c90:	39 e5 d4 fe 	P1 = [FP + -0x4b0];
    2c94:	71 2d       	JUMP.S 0x2776 <__vfprintf_r+0x10c2>;
    2c96:	29 e1 62 fb 	P1 = -0x49e (X);		/*		P1=0xfffffb62(-1182) */
    2c9a:	4f 5a       	P1 = FP + P1;
    2c9c:	14 30       	R2 = R4;
    2c9e:	69 32       	P5 = P1;
    2ca0:	26 30       	R4 = R6;
    2ca2:	72 30       	R6 = P2;
    2ca4:	07 30       	R0 = R7;
    2ca6:	51 60       	R1 = 0xa (X);		/*		R1=0xa( 10) */
    2ca8:	3a e6 bb fe 	[FP + -0x514] = R2;
    2cac:	00 e3 3e 26 	CALL 0x7928 <___modsi3>;
    2cb0:	80 65       	R0 += 0x30;		/* ( 48) */
    2cb2:	28 9b       	B[P5] = R0;
    2cb4:	51 60       	R1 = 0xa (X);		/*		R1=0xa( 10) */
    2cb6:	07 30       	R0 = R7;
    2cb8:	00 e3 14 26 	CALL 0x78e0 <___divsi3>;
    2cbc:	38 30       	R7 = R0;
    2cbe:	48 60       	R0 = 0x9 (X);		/*		R0=0x9(  9) */
    2cc0:	07 09       	CC = R7 <= R0;
    2cc2:	5d 32       	P3 = P5;
    2cc4:	3a e4 bb fe 	R2 = [FP + -0x514];
    2cc8:	fd 6f       	P5 += -0x1;		/* ( -1) */
    2cca:	ed 17       	IF !CC JUMP 0x2ca4 <__vfprintf_r+0x15f0> (BP);
    2ccc:	28 e1 63 fb 	P0 = -0x49d (X);		/*		P0=0xfffffb63(-1181) */
    2cd0:	4d 32       	P1 = P5;
    2cd2:	47 5b       	P5 = FP + P0;
    2cd4:	87 65       	R7 += 0x30;		/* ( 48) */
    2cd6:	4d 0a       	CC = P5 <= P1 (IU);
    2cd8:	16 32       	P2 = R6;
    2cda:	9f e6 ff ff 	B[P3 + -0x1] = R7;
    2cde:	34 30       	R6 = R4;
    2ce0:	22 30       	R4 = R2;
    2ce2:	77 18       	IF CC JUMP 0x2dd0 <__vfprintf_r+0x171c>;
    2ce4:	28 e1 56 fb 	P0 = -0x4aa (X);		/*		P0=0xfffffb56(-1194) */
    2ce8:	4b 32       	P1 = P3;
    2cea:	07 5a       	P0 = FP + P0;
    2cec:	03 20       	JUMP.S 0x2cf2 <__vfprintf_r+0x163e>;
    2cee:	00 00       	NOP;
    2cf0:	4f 98       	R7 = B[P1++] (X);
    2cf2:	69 08       	CC = P1 == P5;
    2cf4:	07 9a       	B[P0++] = R7;
    2cf6:	fc 17       	IF !CC JUMP 0x2cee <__vfprintf_r+0x163a> (BP);
    2cf8:	28 e1 64 fb 	P0 = -0x49c (X);		/*		P0=0xfffffb64(-1180) */
    2cfc:	29 e1 56 fb 	P1 = -0x4aa (X);		/*		P1=0xfffffb56(-1194) */
    2d00:	07 5a       	P0 = FP + P0;
    2d02:	4f 5a       	P1 = FP + P1;
    2d04:	18 44       	P0 -= P3;
    2d06:	41 5a       	P1 = P1 + P0;
    2d08:	1f 2f       	JUMP.S 0x2b46 <__vfprintf_r+0x1492>;
    2d0a:	00 60       	R0 = 0x0 (X);		/*		R0=0x0(  0) */
    2d0c:	f0 b0       	[SP + 0xc] = R0;
    2d0e:	02 60       	R2 = 0x0 (X);		/*		R2=0x0(  0) */
    2d10:	03 30       	R0 = R3;
    2d12:	4b 30       	R1 = P3;
    2d14:	3b e6 bb fe 	[FP + -0x514] = R3;
    2d18:	38 e7 b9 fe 	[FP + -0x51c] = P0;
    2d1c:	39 e7 b8 fe 	[FP + -0x520] = P1;
    2d20:	3a e7 ba fe 	[FP + -0x518] = P2;
    2d24:	00 e3 92 29 	CALL 0x8048 <___nedf2>;
    2d28:	00 0c       	CC = R0 == 0x0;
    2d2a:	3b e4 bb fe 	R3 = [FP + -0x514];
    2d2e:	38 e5 b9 fe 	P0 = [FP + -0x51c];
    2d32:	39 e5 b8 fe 	P1 = [FP + -0x520];
    2d36:	3a e5 ba fe 	P2 = [FP + -0x518];
    2d3a:	5f 1f       	IF CC JUMP 0x2bf8 <__vfprintf_r+0x1544> (BP);
    2d3c:	08 60       	R0 = 0x1 (X);		/*		R0=0x1(  1) */
    2d3e:	28 32       	P5 = R0;
    2d40:	05 44       	P5 -= P0;
    2d42:	45 32       	P0 = P5;
    2d44:	3d e7 d2 fe 	[FP + -0x4b8] = P5;
    2d48:	41 5a       	P1 = P1 + P0;
    2d4a:	fa 2c       	JUMP.S 0x273e <__vfprintf_r+0x108a>;
    2d4c:	00 32       	P0 = R0;
    2d4e:	01 60       	R1 = 0x0 (X);		/*		R1=0x0(  0) */
    2d50:	25 e1 67 00 	R5 = 0x67 (X);		/*		R5=0x67(103) */
    2d54:	08 6c       	P0 += 0x1;		/* (  1) */
    2d56:	50 30       	R2 = P0;
    2d58:	07 c4 11 02 	R1 = MAX (R2, R1);
    2d5c:	38 e7 cc fe 	[FP + -0x4d0] = P0;
    2d60:	39 e6 ce fe 	[FP + -0x4c8] = R1;
    2d64:	2d 2d       	JUMP.S 0x27be <__vfprintf_r+0x110a>;
    2d66:	0f 64       	R7 += 0x1;		/* (  1) */
    2d68:	f8 51       	R7 = R0 + R7;
    2d6a:	01 60       	R1 = 0x0 (X);		/*		R1=0x0(  0) */
    2d6c:	07 c4 39 02 	R1 = MAX (R7, R1);
    2d70:	3f e6 cc fe 	[FP + -0x4d0] = R7;
    2d74:	39 e6 ce fe 	[FP + -0x4c8] = R1;
    2d78:	23 2d       	JUMP.S 0x27be <__vfprintf_r+0x110a>;
    2d7a:	07 0c       	CC = R7 == 0x0;
    2d7c:	16 14       	IF !CC JUMP 0x2da8 <__vfprintf_r+0x16f4> (BP);
    2d7e:	06 48       	CC = !BITTST (R6, 0x0);		/* bit  0 */
    2d80:	14 14       	IF !CC JUMP 0x2da8 <__vfprintf_r+0x16f4> (BP);
    2d82:	0b 60       	R3 = 0x1 (X);		/*		R3=0x1(  1) */
    2d84:	08 68       	P0 = 0x1 (X);		/*		P0=0x1(  1) */
    2d86:	3b e6 ce fe 	[FP + -0x4c8] = R3;
    2d8a:	38 e7 cc fe 	[FP + -0x4d0] = P0;
    2d8e:	18 2d       	JUMP.S 0x27be <__vfprintf_r+0x110a>;
    2d90:	3d af       	P5 = [FP + 0x30];
    2d92:	3b a3       	R3 = [FP + 0x30];
    2d94:	23 64       	R3 += 0x4;		/* (  4) */
    2d96:	2f 91       	R7 = [P5];
    2d98:	87 0c       	CC = R7 < 0x0;
    2d9a:	03 18       	IF CC JUMP 0x2da0 <__vfprintf_r+0x16ec>;
    2d9c:	ff e2 8d f6 	JUMP.L 0x1ab6 <__vfprintf_r+0x402>;
    2da0:	3b b3       	[FP + 0x30] = R3;
    2da2:	ff 63       	R7 = -0x1 (X);		/*		R7=0xffffffff( -1) */
    2da4:	ff e2 26 f5 	JUMP.L 0x17f0 <__vfprintf_r+0x13c>;
    2da8:	17 64       	R7 += 0x2;		/* (  2) */
    2daa:	01 60       	R1 = 0x0 (X);		/*		R1=0x0(  0) */
    2dac:	07 c4 39 02 	R1 = MAX (R7, R1);
    2db0:	3f e6 cc fe 	[FP + -0x4d0] = R7;
    2db4:	39 e6 ce fe 	[FP + -0x4c8] = R1;
    2db8:	03 2d       	JUMP.S 0x27be <__vfprintf_r+0x110a>;
    2dba:	68 61       	R0 = 0x2d (X);		/*		R0=0x2d( 45) */
    2dbc:	bf 43       	R7 = -R7;
    2dbe:	b8 e6 55 fb 	B[FP + -0x4ab] = R0;
    2dc2:	b6 2e       	JUMP.S 0x2b2e <__vfprintf_r+0x147a>;
    2dc4:	06 48       	CC = !BITTST (R6, 0x0);		/* bit  0 */
    2dc6:	d0 16       	IF !CC JUMP 0x2b66 <__vfprintf_r+0x14b2> (BP);
    2dc8:	d4 2e       	JUMP.S 0x2b70 <__vfprintf_r+0x14bc>;
    2dca:	11 60       	R1 = 0x2 (X);		/*		R1=0x2(  2) */
    2dcc:	41 52       	R1 = R1 - R0;
    2dce:	4c 2f       	JUMP.S 0x2c66 <__vfprintf_r+0x15b2>;
    2dd0:	29 e1 56 fb 	P1 = -0x4aa (X);		/*		P1=0xfffffb56(-1194) */
    2dd4:	4f 5a       	P1 = FP + P1;
    2dd6:	b8 2e       	JUMP.S 0x2b46 <__vfprintf_r+0x1492>;
    2dd8:	39 e4 d2 fe 	R1 = [FP + -0x4b8];
    2ddc:	9e 2e       	JUMP.S 0x2b18 <__vfprintf_r+0x1464>;
    2dde:	48 32       	P1 = P0;
    2de0:	cb 2c       	JUMP.S 0x2776 <__vfprintf_r+0x10c2>;
	...

00002de4 <_vfprintf>:
    2de4:	10 32       	P2 = R0;
    2de6:	49 e1 00 00 	P1.H = 0x0;		/* (  0)	P1=0xfb56 */
    2dea:	00 e8 04 00 	LINK 0x10;		/* (16) */
    2dee:	82 ce 01 c6 	R3 = ROT R1 BY 0x0 || [SP + 0xc] = R2 || NOP;
    2df2:	f2 b0 00 00 
    2df6:	09 e1 08 90 	P1.L = 0x9008;		/* (-28664)	P1=0x9008 <__impure_ptr> */
    2dfa:	08 91       	R0 = [P1];
    2dfc:	4a 30       	R1 = P2;
    2dfe:	13 30       	R2 = R3;
    2e00:	ff e3 5a f4 	CALL 0x16b4 <__vfprintf_r>;
    2e04:	01 e8 00 00 	UNLINK;
    2e08:	10 00       	RTS;
	...

00002e0c <___swsetup_r>:
    2e0c:	c4 04       	[--SP] = (P5:4);
    2e0e:	4a e1 00 00 	P2.H = 0x0;		/* (  0)	P2=0xfc00 */
    2e12:	00 e8 03 00 	LINK 0xc;		/* (12) */
    2e16:	0a e1 08 90 	P2.L = 0x9008;		/* (-28664)	P2=0x9008 <__impure_ptr> */
    2e1a:	52 91       	P2 = [P2];
    2e1c:	20 32       	P4 = R0;
    2e1e:	29 32       	P5 = R1;
    2e20:	42 0c       	CC = P2 == 0x0;
    2e22:	06 18       	IF CC JUMP 0x2e2e <___swsetup_r+0x22>;
    2e24:	90 a3       	R0 = [P2 + 0x38];
    2e26:	00 0c       	CC = R0 == 0x0;
    2e28:	48 18       	IF CC JUMP 0x2eb8 <___swsetup_r+0xac>;
    2e2a:	00 00       	NOP;
    2e2c:	00 00       	NOP;
    2e2e:	41 60       	R1 = 0x8 (X);		/*		R1=0x8(  8) */
    2e30:	aa a9       	R2 = W[P5 + 0xc] (X);
    2e32:	4a 54       	R1 = R2 & R1;
    2e34:	89 42       	R1 = R1.L (X);
    2e36:	01 0c       	CC = R1 == 0x0;
    2e38:	12 1c       	IF CC JUMP 0x2e5c <___swsetup_r+0x50> (BP);
    2e3a:	29 a1       	R1 = [P5 + 0x10];
    2e3c:	01 0c       	CC = R1 == 0x0;
    2e3e:	1e 18       	IF CC JUMP 0x2e7a <___swsetup_r+0x6e>;
    2e40:	02 48       	CC = !BITTST (R2, 0x0);		/* bit  0 */
    2e42:	2a 1c       	IF CC JUMP 0x2e96 <___swsetup_r+0x8a> (BP);
    2e44:	00 60       	R0 = 0x0 (X);		/*		R0=0x0(  0) */
    2e46:	a8 b0       	[P5 + 0x8] = R0;
    2e48:	68 a1       	R0 = [P5 + 0x14];
    2e4a:	80 43       	R0 = -R0;
    2e4c:	01 0c       	CC = R1 == 0x0;
    2e4e:	a8 b1       	[P5 + 0x18] = R0;
    2e50:	2c 18       	IF CC JUMP 0x2ea8 <___swsetup_r+0x9c>;
    2e52:	00 60       	R0 = 0x0 (X);		/*		R0=0x0(  0) */
    2e54:	01 e8 00 00 	UNLINK;
    2e58:	84 04       	(P5:4) = [SP++];
    2e5a:	10 00       	RTS;
    2e5c:	80 60       	R0 = 0x10 (X);		/*		R0=0x10( 16) */
    2e5e:	02 54       	R0 = R2 & R0;
    2e60:	80 42       	R0 = R0.L (X);
    2e62:	00 0c       	CC = R0 == 0x0;
    2e64:	4a 18       	IF CC JUMP 0x2ef8 <___swsetup_r+0xec>;
    2e66:	20 60       	R0 = 0x4 (X);		/*		R0=0x4(  4) */
    2e68:	02 54       	R0 = R2 & R0;
    2e6a:	80 42       	R0 = R0.L (X);
    2e6c:	00 0c       	CC = R0 == 0x0;
    2e6e:	2c 14       	IF !CC JUMP 0x2ec6 <___swsetup_r+0xba> (BP);
    2e70:	29 a1       	R1 = [P5 + 0x10];
    2e72:	1a 4a       	BITSET (R2, 0x3);		/* bit  3 */
    2e74:	01 0c       	CC = R1 == 0x0;
    2e76:	aa b5       	W[P5 + 0xc] = R2;
    2e78:	e4 17       	IF !CC JUMP 0x2e40 <___swsetup_r+0x34> (BP);
    2e7a:	20 e1 80 02 	R0 = 0x280 (X);		/*		R0=0x280(640) */
    2e7e:	02 54       	R0 = R2 & R0;
    2e80:	23 e1 00 02 	R3 = 0x200 (X);		/*		R3=0x200(512) */
    2e84:	18 08       	CC = R0 == R3;
    2e86:	dd 1b       	IF CC JUMP 0x2e40 <___swsetup_r+0x34>;
    2e88:	4d 30       	R1 = P5;
    2e8a:	44 30       	R0 = P4;
    2e8c:	00 e3 c0 0d 	CALL 0x4a0c <___smakebuf_r>;
    2e90:	aa a9       	R2 = W[P5 + 0xc] (X);
    2e92:	29 a1       	R1 = [P5 + 0x10];
    2e94:	d6 2f       	JUMP.S 0x2e40 <___swsetup_r+0x34>;
    2e96:	10 60       	R0 = 0x2 (X);		/*		R0=0x2(  2) */
    2e98:	82 54       	R2 = R2 & R0;
    2e9a:	92 42       	R2 = R2.L (X);
    2e9c:	02 0c       	CC = R2 == 0x0;
    2e9e:	11 14       	IF !CC JUMP 0x2ec0 <___swsetup_r+0xb4> (BP);
    2ea0:	68 a1       	R0 = [P5 + 0x14];
    2ea2:	a8 b0       	[P5 + 0x8] = R0;
    2ea4:	01 0c       	CC = R1 == 0x0;
    2ea6:	d6 17       	IF !CC JUMP 0x2e52 <___swsetup_r+0x46> (BP);
    2ea8:	a9 a9       	R1 = W[P5 + 0xc] (X);
    2eaa:	39 48       	CC = !BITTST (R1, 0x7);		/* bit  7 */
    2eac:	00 60       	R0 = 0x0 (X);		/*		R0=0x0(  0) */
    2eae:	d3 1f       	IF CC JUMP 0x2e54 <___swsetup_r+0x48> (BP);
    2eb0:	31 4a       	BITSET (R1, 0x6);		/* bit  6 */
    2eb2:	a9 b5       	W[P5 + 0xc] = R1;
    2eb4:	f8 63       	R0 = -0x1 (X);		/*		R0=0xffffffff( -1) */
    2eb6:	cf 2f       	JUMP.S 0x2e54 <___swsetup_r+0x48>;
    2eb8:	42 30       	R0 = P2;
    2eba:	00 e3 95 0a 	CALL 0x43e4 <___sinit>;
    2ebe:	b8 2f       	JUMP.S 0x2e2e <___swsetup_r+0x22>;
    2ec0:	00 60       	R0 = 0x0 (X);		/*		R0=0x0(  0) */
    2ec2:	a8 b0       	[P5 + 0x8] = R0;
    2ec4:	f0 2f       	JUMP.S 0x2ea4 <___swsetup_r+0x98>;
    2ec6:	00 00       	NOP;
    2ec8:	29 a3       	R1 = [P5 + 0x30];
    2eca:	01 0c       	CC = R1 == 0x0;
    2ecc:	0d 18       	IF CC JUMP 0x2ee6 <___swsetup_r+0xda>;
    2ece:	5d 30       	R3 = P5;
    2ed0:	20 e1 40 00 	R0 = 0x40 (X);		/*		R0=0x40 <_.tmp>( 64) */
    2ed4:	03 50       	R0 = R3 + R0;
    2ed6:	01 08       	CC = R1 == R0;
    2ed8:	05 18       	IF CC JUMP 0x2ee2 <___swsetup_r+0xd6>;
    2eda:	44 30       	R0 = P4;
    2edc:	00 e3 a8 0b 	CALL 0x462c <__free_r>;
    2ee0:	aa a9       	R2 = W[P5 + 0xc] (X);
    2ee2:	00 60       	R0 = 0x0 (X);		/*		R0=0x0(  0) */
    2ee4:	28 b3       	[P5 + 0x30] = R0;
    2ee6:	d8 62       	R0 = -0x25 (X);		/*		R0=0xffffffdb(-37) */
    2ee8:	82 54       	R2 = R2 & R0;
    2eea:	29 a1       	R1 = [P5 + 0x10];
    2eec:	00 cc 00 c0 	R0 = R0 -|- R0 || [P5] = R1 || NOP;
    2ef0:	29 93 00 00 
    2ef4:	68 b0       	[P5 + 0x4] = R0;
    2ef6:	be 2f       	JUMP.S 0x2e72 <___swsetup_r+0x66>;
    2ef8:	48 60       	R0 = 0x9 (X);		/*		R0=0x9(  9) */
    2efa:	32 4a       	BITSET (R2, 0x6);		/* bit  6 */
    2efc:	20 93       	[P4] = R0;
    2efe:	aa b5       	W[P5 + 0xc] = R2;
    2f00:	f8 63       	R0 = -0x1 (X);		/*		R0=0xffffffff( -1) */
    2f02:	a9 2f       	JUMP.S 0x2e54 <___swsetup_r+0x48>;

00002f04 <___call_exitprocs>:
    2f04:	4a e1 00 00 	P2.H = 0x0;		/* (  0)	P2=0x9008 <__impure_ptr> */
    2f08:	0a e1 9c 87 	P2.L = 0x879c;		/* (-30820)	P2=0x879c <__global_impure_ptr> */
    2f0c:	52 91       	P2 = [P2];
    2f0e:	e3 05       	[--SP] = (R7:4, P5:3);
    2f10:	00 e8 07 00 	LINK 0x1c;		/* (28) */
    2f14:	78 b2       	[FP + 0x24] = R0;
    2f16:	21 30       	R4 = R1;
    2f18:	20 e1 48 01 	R0 = 0x148 (X);		/*		R0=0x148(328) */
    2f1c:	4a 30       	R1 = P2;
    2f1e:	01 50       	R0 = R1 + R0;
    2f20:	e0 bb       	[FP -0x8] = R0;
    2f22:	40 e1 00 00 	R0.H = 0x0;		/* (  0)	R0=0x148(328) */
    2f26:	00 e1 00 00 	R0.L = 0x0;		/* (  0)	R0=0x0(  0) */
    2f2a:	00 0c       	CC = R0 == 0x0;
    2f2c:	00 02       	R0 = CC;
    2f2e:	fa bb       	[FP -0x4] = P2;
    2f30:	b8 e6 f7 ff 	B[FP + -0x9] = R0;
    2f34:	f9 b9       	P1 = [FP -0x4];
    2f36:	ec b9       	P4 = [FP -0x8];
    2f38:	0b e5 52 00 	P3 = [P1 + 0x148];
    2f3c:	43 0c       	CC = P3 == 0x0;
    2f3e:	47 18       	IF CC JUMP 0x2fcc <___call_exitprocs+0xc8>;
    2f40:	5a ac       	P2 = [P3 + 0x4];
    2f42:	7a 30       	R7 = P2;
    2f44:	ff 67       	R7 += -0x1;		/* ( -1) */
    2f46:	87 0c       	CC = R7 < 0x0;
    2f48:	3e 18       	IF CC JUMP 0x2fc4 <___call_exitprocs+0xc0>;
    2f4a:	29 e1 88 00 	P1 = 0x88 (X);		/*		P1=0x88(136) */
    2f4e:	4b 5b       	P5 = P3 + P1;
    2f50:	4a 32       	P1 = P2;
    2f52:	f9 6c       	P1 += 0x1f;		/* ( 31) */
    2f54:	0a 6c       	P2 += 0x1;		/* (  1) */
    2f56:	04 0c       	CC = R4 == 0x0;
    2f58:	4d 5f       	P5 = P5 + (P1 << 0x2);
    2f5a:	93 5e       	P2 = P3 + (P2 << 0x2);
    2f5c:	05 02       	R5 = CC;
    2f5e:	09 20       	JUMP.S 0x2f70 <___call_exitprocs+0x6c>;
    2f60:	29 91       	R1 = [P5];
    2f62:	21 08       	CC = R1 == R4;
    2f64:	08 18       	IF CC JUMP 0x2f74 <___call_exitprocs+0x70>;
    2f66:	ff 67       	R7 += -0x1;		/* ( -1) */
    2f68:	3f 0c       	CC = R7 == -0x1;
    2f6a:	e5 6f       	P5 += -0x4;		/* ( -4) */
    2f6c:	e2 6f       	P2 += -0x4;		/* ( -4) */
    2f6e:	2b 18       	IF CC JUMP 0x2fc4 <___call_exitprocs+0xc0>;
    2f70:	0d 02       	CC = R5;
    2f72:	f7 17       	IF !CC JUMP 0x2f60 <___call_exitprocs+0x5c> (BP);
    2f74:	58 a0       	R0 = [P3 + 0x4];
    2f76:	f8 67       	R0 += -0x1;		/* ( -1) */
    2f78:	38 08       	CC = R0 == R7;
    2f7a:	51 91       	P1 = [P2];
    2f7c:	30 18       	IF CC JUMP 0x2fdc <___call_exitprocs+0xd8>;
    2f7e:	00 60       	R0 = 0x0 (X);		/*		R0=0x0(  0) */
    2f80:	10 93       	[P2] = R0;
    2f82:	41 0c       	CC = P1 == 0x0;
    2f84:	f1 1b       	IF CC JUMP 0x2f66 <___call_exitprocs+0x62>;
    2f86:	00 00       	NOP;
    2f88:	08 60       	R0 = 0x1 (X);		/*		R0=0x1(  1) */
    2f8a:	b8 40       	R0 <<= R7;
    2f8c:	19 e4 62 00 	R1 = [P3 + 0x188];
    2f90:	48 54       	R1 = R0 & R1;
    2f92:	01 0c       	CC = R1 == 0x0;
    2f94:	5e a0       	R6 = [P3 + 0x4];
    2f96:	1f 1c       	IF CC JUMP 0x2fd4 <___call_exitprocs+0xd0> (BP);
    2f98:	19 e4 63 00 	R1 = [P3 + 0x18c];
    2f9c:	08 54       	R0 = R0 & R1;
    2f9e:	00 0c       	CC = R0 == 0x0;
    2fa0:	20 14       	IF !CC JUMP 0x2fe0 <___call_exitprocs+0xdc> (BP);
    2fa2:	29 e4 e0 ff 	R1 = [P5 + -0x80];
    2fa6:	78 a2       	R0 = [FP + 0x24];
    2fa8:	ca bb       	[FP -0x10] = P2;
    2faa:	61 00       	CALL (P1);
    2fac:	ca b9       	P2 = [FP -0x10];
    2fae:	59 a0       	R1 = [P3 + 0x4];
    2fb0:	31 08       	CC = R1 == R6;
    2fb2:	c1 13       	IF !CC JUMP 0x2f34 <___call_exitprocs+0x30>;
    2fb4:	61 91       	P1 = [P4];
    2fb6:	59 08       	CC = P1 == P3;
    2fb8:	be 13       	IF !CC JUMP 0x2f34 <___call_exitprocs+0x30>;
    2fba:	ff 67       	R7 += -0x1;		/* ( -1) */
    2fbc:	3f 0c       	CC = R7 == -0x1;
    2fbe:	e5 6f       	P5 += -0x4;		/* ( -4) */
    2fc0:	e2 6f       	P2 += -0x4;		/* ( -4) */
    2fc2:	d7 17       	IF !CC JUMP 0x2f70 <___call_exitprocs+0x6c> (BP);
    2fc4:	b8 e4 f7 ff 	R0 = B[FP + -0x9] (Z);
    2fc8:	08 02       	CC = R0;
    2fca:	12 10       	IF !CC JUMP 0x2fee <___call_exitprocs+0xea>;
    2fcc:	01 e8 00 00 	UNLINK;
    2fd0:	a3 05       	(R7:4, P5:3) = [SP++];
    2fd2:	10 00       	RTS;
    2fd4:	ca bb       	[FP -0x10] = P2;
    2fd6:	61 00       	CALL (P1);
    2fd8:	ca b9       	P2 = [FP -0x10];
    2fda:	ea 2f       	JUMP.S 0x2fae <___call_exitprocs+0xaa>;
    2fdc:	58 b0       	[P3 + 0x4] = R0;
    2fde:	d2 2f       	JUMP.S 0x2f82 <___call_exitprocs+0x7e>;
    2fe0:	00 00       	NOP;
    2fe2:	28 e4 e0 ff 	R0 = [P5 + -0x80];
    2fe6:	ca bb       	[FP -0x10] = P2;
    2fe8:	61 00       	CALL (P1);
    2fea:	ca b9       	P2 = [FP -0x10];
    2fec:	e1 2f       	JUMP.S 0x2fae <___call_exitprocs+0xaa>;
    2fee:	59 a0       	R1 = [P3 + 0x4];
    2ff0:	01 0c       	CC = R1 == 0x0;
    2ff2:	18 91       	R0 = [P3];
    2ff4:	0d 14       	IF !CC JUMP 0x300e <___call_exitprocs+0x10a> (BP);
    2ff6:	00 0c       	CC = R0 == 0x0;
    2ff8:	0a 18       	IF CC JUMP 0x300c <___call_exitprocs+0x108>;
    2ffa:	49 e1 00 00 	P1.H = 0x0;		/* (  0)	P1=0x88 */
    2ffe:	20 93       	[P4] = R0;
    3000:	09 e1 00 00 	P1.L = 0x0;		/* (  0)	P1=0x0 */
    3004:	43 30       	R0 = P3;
    3006:	61 00       	CALL (P1);
    3008:	63 91       	P3 = [P4];
    300a:	99 2f       	JUMP.S 0x2f3c <___call_exitprocs+0x38>;
    300c:	00 60       	R0 = 0x0 (X);		/*		R0=0x0(  0) */
    300e:	63 32       	P4 = P3;
    3010:	18 32       	P3 = R0;
    3012:	95 2f       	JUMP.S 0x2f3c <___call_exitprocs+0x38>;

00003014 <_quorem>:
    3014:	e3 05       	[--SP] = (R7:4, P5:3);
    3016:	09 32       	P1 = R1;
    3018:	20 32       	P4 = R0;
    301a:	00 e8 03 00 	LINK 0xc;		/* (12) */
    301e:	21 30       	R4 = R1;
    3020:	08 a1       	R0 = [P1 + 0x10];
    3022:	21 a1       	R1 = [P4 + 0x10];
    3024:	08 09       	CC = R0 <= R1;
    3026:	97 10       	IF !CC JUMP 0x3154 <_quorem+0x140>;
    3028:	38 30       	R7 = R0;
    302a:	20 64       	R0 += 0x4;		/* (  4) */
    302c:	10 4f       	R0 <<= 0x2;
    302e:	84 50       	R2 = R4 + R0;
    3030:	08 32       	P1 = R0;
    3032:	1a 32       	P3 = R2;
    3034:	2c 32       	P5 = R4;
    3036:	6c 30       	R5 = P4;
    3038:	ff 67       	R7 += -0x1;		/* ( -1) */
    303a:	8c 5a       	P2 = P4 + P1;
    303c:	19 91       	R1 = [P3];
    303e:	09 64       	R1 += 0x1;		/* (  1) */
    3040:	10 91       	R0 = [P2];
    3042:	00 e3 63 24 	CALL 0x7908 <___udivsi3>;
    3046:	00 0c       	CC = R0 == 0x0;
    3048:	a5 6c       	P5 += 0x14;		/* ( 20) */
    304a:	a5 64       	R5 += 0x14;		/* ( 20) */
    304c:	30 30       	R6 = R0;
    304e:	46 1c       	IF CC JUMP 0x30da <_quorem+0xc6> (BP);
    3050:	4d 32       	P1 = P5;
    3052:	15 32       	P2 = R5;
    3054:	30 e1 00 00 	I0 = 0x0 (X);		/*		I0=0x0(  0) */
    3058:	00 68       	P0 = 0x0 (X);		/*		P0=0x0(  0) */
    305a:	90 30       	R2 = I0;
    305c:	09 90       	R1 = [P1++];
    305e:	c8 42       	R0 = R1.L (Z);
    3060:	f0 40       	R0 *= R6;
    3062:	c2 50       	R3 = R2 + R0;
    3064:	82 ce 81 85 	R2 = R1 >> 0x10 || R1 = [P2] || NOP;
    3068:	11 91 00 00 
    306c:	f2 40       	R2 *= R6;
    306e:	09 34       	I1 = R1;
    3070:	82 c6 83 81 	R0 = R3 >> 0x10;
    3074:	90 50       	R2 = R0 + R2;
    3076:	82 c6 82 81 	R0 = R2 >> 0x10;
    307a:	00 34       	I0 = R0;
    307c:	c8 42       	R0 = R1.L (Z);
    307e:	48 30       	R1 = P0;
    3080:	08 50       	R0 = R0 + R1;
    3082:	db 42       	R3 = R3.L (Z);
    3084:	89 30       	R1 = I1;
    3086:	18 52       	R0 = R0 - R3;
    3088:	81 4e       	R1 >>= 0x10;
    308a:	d2 42       	R2 = R2.L (Z);
    308c:	91 52       	R2 = R1 - R2;
    308e:	82 c6 80 07 	R3 = R0 >>> 0x10;
    3092:	9a 50       	R2 = R2 + R3;
    3094:	82 c6 82 03 	R1 = R2 >>> 0x10;
    3098:	c0 42       	R0 = R0.L (Z);
    309a:	82 4f       	R2 <<= 0x10;
    309c:	02 56       	R0 = R2 | R0;
    309e:	cb 09       	CC = P3 < P1 (IU);
    30a0:	01 32       	P0 = R1;
    30a2:	10 92       	[P2++] = R0;
    30a4:	db 17       	IF !CC JUMP 0x305a <_quorem+0x46> (BP);
    30a6:	17 32       	P2 = R7;
    30a8:	2a 6c       	P2 += 0x5;		/* (  5) */
    30aa:	94 5e       	P2 = P4 + (P2 << 0x2);
    30ac:	12 91       	R2 = [P2];
    30ae:	02 0c       	CC = R2 == 0x0;
    30b0:	15 14       	IF !CC JUMP 0x30da <_quorem+0xc6> (BP);
    30b2:	42 30       	R0 = P2;
    30b4:	e0 67       	R0 += -0x4;		/* ( -4) */
    30b6:	85 09       	CC = R5 < R0 (IU);
    30b8:	10 10       	IF !CC JUMP 0x30d8 <_quorem+0xc4>;
    30ba:	10 e4 ff ff 	R0 = [P2 + -0x4];
    30be:	00 0c       	CC = R0 == 0x0;
    30c0:	0c 10       	IF !CC JUMP 0x30d8 <_quorem+0xc4>;
    30c2:	42 30       	R0 = P2;
    30c4:	c0 67       	R0 += -0x8;		/* ( -8) */
    30c6:	05 20       	JUMP.S 0x30d0 <_quorem+0xbc>;
    30c8:	e0 67       	R0 += -0x4;		/* ( -4) */
    30ca:	11 91       	R1 = [P2];
    30cc:	01 0c       	CC = R1 == 0x0;
    30ce:	05 10       	IF !CC JUMP 0x30d8 <_quorem+0xc4>;
    30d0:	85 09       	CC = R5 < R0 (IU);
    30d2:	ff 67       	R7 += -0x1;		/* ( -1) */
    30d4:	10 32       	P2 = R0;
    30d6:	f9 1f       	IF CC JUMP 0x30c8 <_quorem+0xb4> (BP);
    30d8:	27 b1       	[P4 + 0x10] = R7;
    30da:	44 30       	R0 = P4;
    30dc:	0c 30       	R1 = R4;
    30de:	00 e3 3f 13 	CALL 0x575c <___mcmp>;
    30e2:	80 0c       	CC = R0 < 0x0;
    30e4:	33 18       	IF CC JUMP 0x314a <_quorem+0x136>;
    30e6:	0e 64       	R6 += 0x1;		/* (  1) */
    30e8:	15 32       	P2 = R5;
    30ea:	00 60       	R0 = 0x0 (X);		/*		R0=0x0(  0) */
    30ec:	00 00       	NOP;
    30ee:	12 91       	R2 = [P2];
    30f0:	2b 90       	R3 = [P5++];
    30f2:	d1 42       	R1 = R2.L (Z);
    30f4:	41 50       	R1 = R1 + R0;
    30f6:	dc 42       	R4 = R3.L (Z);
    30f8:	61 52       	R1 = R1 - R4;
    30fa:	82 4e       	R2 >>= 0x10;
    30fc:	83 4e       	R3 >>= 0x10;
    30fe:	82 c6 81 01 	R0 = R1 >>> 0x10;
    3102:	9a 52       	R2 = R2 - R3;
    3104:	82 50       	R2 = R2 + R0;
    3106:	82 c6 82 01 	R0 = R2 >>> 0x10;
    310a:	c9 42       	R1 = R1.L (Z);
    310c:	82 4f       	R2 <<= 0x10;
    310e:	4a 56       	R1 = R2 | R1;
    3110:	eb 09       	CC = P3 < P5 (IU);
    3112:	11 92       	[P2++] = R1;
    3114:	ec 17       	IF !CC JUMP 0x30ec <_quorem+0xd8> (BP);
    3116:	17 32       	P2 = R7;
    3118:	2a 6c       	P2 += 0x5;		/* (  5) */
    311a:	94 5e       	P2 = P4 + (P2 << 0x2);
    311c:	11 91       	R1 = [P2];
    311e:	01 0c       	CC = R1 == 0x0;
    3120:	15 14       	IF !CC JUMP 0x314a <_quorem+0x136> (BP);
    3122:	42 30       	R0 = P2;
    3124:	e0 67       	R0 += -0x4;		/* ( -4) */
    3126:	85 09       	CC = R5 < R0 (IU);
    3128:	10 10       	IF !CC JUMP 0x3148 <_quorem+0x134>;
    312a:	12 e4 ff ff 	R2 = [P2 + -0x4];
    312e:	02 0c       	CC = R2 == 0x0;
    3130:	0c 10       	IF !CC JUMP 0x3148 <_quorem+0x134>;
    3132:	4a 30       	R1 = P2;
    3134:	c1 67       	R1 += -0x8;		/* ( -8) */
    3136:	05 20       	JUMP.S 0x3140 <_quorem+0x12c>;
    3138:	e1 67       	R1 += -0x4;		/* ( -4) */
    313a:	10 91       	R0 = [P2];
    313c:	00 0c       	CC = R0 == 0x0;
    313e:	05 10       	IF !CC JUMP 0x3148 <_quorem+0x134>;
    3140:	8d 09       	CC = R5 < R1 (IU);
    3142:	ff 67       	R7 += -0x1;		/* ( -1) */
    3144:	11 32       	P2 = R1;
    3146:	f9 1f       	IF CC JUMP 0x3138 <_quorem+0x124> (BP);
    3148:	27 b1       	[P4 + 0x10] = R7;
    314a:	01 e8 00 00 	UNLINK;
    314e:	06 30       	R0 = R6;
    3150:	a3 05       	(R7:4, P5:3) = [SP++];
    3152:	10 00       	RTS;
    3154:	01 e8 00 00 	UNLINK;
    3158:	00 60       	R0 = 0x0 (X);		/*		R0=0x0(  0) */
    315a:	a3 05       	(R7:4, P5:3) = [SP++];
    315c:	10 00       	RTS;
	...

00003160 <__dtoa_r>:
    3160:	e3 05       	[--SP] = (R7:4, P5:3);
    3162:	20 32       	P4 = R0;
    3164:	00 e8 1d 00 	LINK 0x74;		/* (116) */
    3168:	fd af       	P5 = [FP + 0x3c];
    316a:	31 30       	R6 = R1;
    316c:	3a 30       	R7 = R2;
    316e:	22 e5 10 00 	P2 = [P4 + 0x40];
    3172:	42 0c       	CC = P2 == 0x0;
    3174:	10 18       	IF CC JUMP 0x3194 <__dtoa_r+0x34>;
    3176:	00 00       	NOP;
    3178:	00 00       	NOP;
    317a:	08 60       	R0 = 0x1 (X);		/*		R0=0x1(  1) */
    317c:	21 e4 11 00 	R1 = [P4 + 0x44];
    3180:	88 40       	R0 <<= R1;
    3182:	51 b0       	[P2 + 0x4] = R1;
    3184:	90 b0       	[P2 + 0x8] = R0;
    3186:	4a 30       	R1 = P2;
    3188:	44 30       	R0 = P4;
    318a:	00 e3 6d 10 	CALL 0x5264 <__Bfree>;
    318e:	00 60       	R0 = 0x0 (X);		/*		R0=0x0(  0) */
    3190:	20 e6 10 00 	[P4 + 0x40] = R0;
    3194:	1f 32       	P3 = R7;
    3196:	c3 0c       	CC = P3 < 0x0;
    3198:	4c 18       	IF CC JUMP 0x3230 <__dtoa_r+0xd0>;
    319a:	00 60       	R0 = 0x0 (X);		/*		R0=0x0(  0) */
    319c:	28 93       	[P5] = R0;
    319e:	20 e1 ff 07 	R0 = 0x7ff (X);		/*		R0=0x7ff(2047) */
    31a2:	a0 4f       	R0 <<= 0x14;
    31a4:	4b 30       	R1 = P3;
    31a6:	22 e1 ff 07 	R2 = 0x7ff (X);		/*		R2=0x7ff(2047) */
    31aa:	01 54       	R0 = R1 & R0;
    31ac:	a2 4f       	R2 <<= 0x14;
    31ae:	10 08       	CC = R0 == R2;
    31b0:	1e 18       	IF CC JUMP 0x31ec <__dtoa_r+0x8c>;
    31b2:	00 60       	R0 = 0x0 (X);		/*		R0=0x0(  0) */
    31b4:	f0 b0       	[SP + 0xc] = R0;
    31b6:	02 60       	R2 = 0x0 (X);		/*		R2=0x0(  0) */
    31b8:	06 30       	R0 = R6;
    31ba:	0f 30       	R1 = R7;
    31bc:	00 e3 20 27 	CALL 0x7ffc <___eqdf2>;
    31c0:	00 0c       	CC = R0 == 0x0;
    31c2:	3e 10       	IF !CC JUMP 0x323e <__dtoa_r+0xde>;
    31c4:	ba af       	P2 = [FP + 0x38];
    31c6:	08 60       	R0 = 0x1 (X);		/*		R0=0x1(  1) */
    31c8:	39 e5 10 00 	P1 = [FP + 0x40];
    31cc:	10 93       	[P2] = R0;
    31ce:	41 0c       	CC = P1 == 0x0;
    31d0:	02 14       	IF !CC JUMP 0x31d4 <__dtoa_r+0x74> (BP);
    31d2:	7d 22       	JUMP.S 0x36cc <__dtoa_r+0x56c>;
    31d4:	40 e1 00 00 	R0.H = 0x0;		/* (  0)	R0=0x1(  1) */
    31d8:	00 e1 e5 87 	R0.L = 0x87e5;		/* (-30747)	R0=0x87e5(34789) */
    31dc:	08 93       	[P1] = R0;
    31de:	f8 67       	R0 += -0x1;		/* ( -1) */
    31e0:	d0 bb       	[FP -0xc] = R0;
    31e2:	d0 b9       	R0 = [FP -0xc];
    31e4:	01 e8 00 00 	UNLINK;
    31e8:	a3 05       	(R7:4, P5:3) = [SP++];
    31ea:	10 00       	RTS;
    31ec:	b9 af       	P1 = [FP + 0x38];
    31ee:	20 e1 0f 27 	R0 = 0x270f (X);		/*		R0=0x270f(9999) */
    31f2:	06 0c       	CC = R6 == 0x0;
    31f4:	08 93       	[P1] = R0;
    31f6:	02 10       	IF !CC JUMP 0x31fa <__dtoa_r+0x9a>;
    31f8:	44 22       	JUMP.S 0x3680 <__dtoa_r+0x520>;
    31fa:	40 e1 00 00 	R0.H = 0x0;		/* (  0)	R0=0x270f(9999) */
    31fe:	00 e1 78 89 	R0.L = 0x8978;		/* (-30344)	R0=0x8978(35192) */
    3202:	d0 bb       	[FP -0xc] = R0;
    3204:	39 e5 10 00 	P1 = [FP + 0x40];
    3208:	41 0c       	CC = P1 == 0x0;
    320a:	ec 1b       	IF CC JUMP 0x31e2 <__dtoa_r+0x82>;
    320c:	00 00       	NOP;
    320e:	00 00       	NOP;
    3210:	da b9       	P2 = [FP -0xc];
    3212:	90 e5 03 00 	R0 = B[P2 + 0x3] (X);
    3216:	00 0c       	CC = R0 == 0x0;
    3218:	02 10       	IF !CC JUMP 0x321c <__dtoa_r+0xbc>;
    321a:	5f 22       	JUMP.S 0x36d8 <__dtoa_r+0x578>;
    321c:	42 30       	R0 = P2;
    321e:	40 64       	R0 += 0x8;		/* (  8) */
    3220:	39 e5 10 00 	P1 = [FP + 0x40];
    3224:	08 93       	[P1] = R0;
    3226:	d0 b9       	R0 = [FP -0xc];
    3228:	01 e8 00 00 	UNLINK;
    322c:	a3 05       	(R7:4, P5:3) = [SP++];
    322e:	10 00       	RTS;
    3230:	08 60       	R0 = 0x1 (X);		/*		R0=0x1(  1) */
    3232:	28 93       	[P5] = R0;
    3234:	07 30       	R0 = R7;
    3236:	f8 4c       	BITCLR (R0, 0x1f);		/* bit 31 */
    3238:	18 32       	P3 = R0;
    323a:	38 30       	R7 = R0;
    323c:	b1 2f       	JUMP.S 0x319e <__dtoa_r+0x3e>;
    323e:	47 30       	R0 = FP;
    3240:	e0 67       	R0 += -0x4;		/* ( -4) */
    3242:	f0 b0       	[SP + 0xc] = R0;
    3244:	e0 67       	R0 += -0x4;		/* ( -4) */
    3246:	30 b1       	[SP + 0x10] = R0;
    3248:	17 30       	R2 = R7;
    324a:	44 30       	R0 = P4;
    324c:	0e 30       	R1 = R6;
    324e:	00 e3 b7 13 	CALL 0x59bc <___d2b>;
    3252:	53 30       	R2 = P3;
    3254:	0a 4f       	R2 <<= 0x1;
    3256:	aa 4e       	R2 >>= 0x15;
    3258:	02 0c       	CC = R2 == 0x0;
    325a:	50 bb       	[FP -0x2c] = R0;
    325c:	02 18       	IF CC JUMP 0x3260 <__dtoa_r+0x100>;
    325e:	21 22       	JUMP.S 0x36a0 <__dtoa_r+0x540>;
    3260:	e9 b9       	P1 = [FP -0x8];
    3262:	fa b9       	P2 = [FP -0x4];
    3264:	d9 bb       	[FP -0xc] = P1;
    3266:	51 5b       	P5 = P1 + P2;
    3268:	29 e1 ef fb 	P1 = -0x411 (X);		/*		P1=0xfffffbef(-1041) */
    326c:	cd 08       	CC = P5 < P1;
    326e:	02 10       	IF !CC JUMP 0x3272 <__dtoa_r+0x112>;
    3270:	46 24       	JUMP.S 0x3afc <__dtoa_r+0x99c>;
    3272:	45 30       	R0 = P5;
    3274:	21 e1 0e fc 	R1 = -0x3f2 (X);		/*		R1=0xfffffc0e(-1010) */
    3278:	41 52       	R1 = R1 - R0;
    327a:	53 30       	R2 = P3;
    327c:	8a 40       	R2 <<= R1;
    327e:	20 e1 12 04 	R0 = 0x412 (X);		/*		R0=0x412(1042) */
    3282:	5d 30       	R3 = P5;
    3284:	0a 30       	R1 = R2;
    3286:	03 50       	R0 = R3 + R0;
    3288:	16 30       	R2 = R6;
    328a:	42 40       	R2 >>= R0;
    328c:	11 56       	R0 = R1 | R2;
    328e:	00 e3 05 28 	CALL 0x8298 <___floatunsidf>;
    3292:	0a 63       	R2 = -0x1f (X);		/*		R2=0xffffffe1(-31) */
    3294:	a2 4f       	R2 <<= 0x14;
    3296:	0b 60       	R3 = 0x1 (X);		/*		R3=0x1(  1) */
    3298:	4a 50       	R1 = R2 + R1;
    329a:	fd 6f       	P5 += -0x1;		/* ( -1) */
    329c:	03 bb       	[FP -0x40] = R3;
    329e:	22 e1 ff 07 	R2 = 0x7ff (X);		/*		R2=0x7ff(2047) */
    32a2:	9a 4f       	R2 <<= 0x13;
    32a4:	f2 b0       	[SP + 0xc] = R2;
    32a6:	02 60       	R2 = 0x0 (X);		/*		R2=0x0(  0) */
    32a8:	00 e3 d0 24 	CALL 0x7c48 <___subdf3>;
    32ac:	42 e1 d2 3f 	R2.H = 0x3fd2;		/* (16338)	R2=0x3fd20000(1070727168) */
    32b0:	02 e1 a7 87 	R2.L = 0x87a7;		/* (-30809)	R2=0x3fd287a7(1070761895) */
    32b4:	f2 b0       	[SP + 0xc] = R2;
    32b6:	42 e1 6f 63 	R2.H = 0x636f;		/* (25455)	R2=0x636f87a7(1668253607) */
    32ba:	02 e1 61 43 	R2.L = 0x4361;		/* (17249)	R2=0x636f4361(1668236129) */
    32be:	00 e3 ed 24 	CALL 0x7c98 <___muldf3>;
    32c2:	42 e1 c6 3f 	R2.H = 0x3fc6;		/* (16326)	R2=0x3fc64361(1069957985) */
    32c6:	02 e1 28 8a 	R2.L = 0x8a28;		/* (-30168)	R2=0x3fc68a28(1069976104) */
    32ca:	f2 b0       	[SP + 0xc] = R2;
    32cc:	42 e1 60 8b 	R2.H = 0x8b60;		/* (-29856)	R2=0x8b608a28(-1956607448) */
    32d0:	02 e1 b3 c8 	R2.L = 0xc8b3;		/* (-14157)	R2=0x8b60c8b3(-1956591437) */
    32d4:	00 e3 96 24 	CALL 0x7c00 <___adddf3>;
    32d8:	20 30       	R4 = R0;
    32da:	45 30       	R0 = P5;
    32dc:	29 30       	R5 = R1;
    32de:	00 e3 4d 27 	CALL 0x8178 <___floatsidf>;
    32e2:	42 e1 d3 3f 	R2.H = 0x3fd3;		/* (16339)	R2=0x3fd3c8b3(1070844083) */
    32e6:	02 e1 13 44 	R2.L = 0x4413;		/* (17427)	R2=0x3fd34413(1070810131) */
    32ea:	f2 b0       	[SP + 0xc] = R2;
    32ec:	42 e1 9f 50 	R2.H = 0x509f;		/* (20639)	R2=0x509f4413(1352614931) */
    32f0:	02 e1 fb 79 	R2.L = 0x79fb;		/* (31227)	R2=0x509f79fb(1352628731) */
    32f4:	00 e3 d2 24 	CALL 0x7c98 <___muldf3>;
    32f8:	82 ce 00 c4 	R2 = ROT R0 BY 0x0 || [SP + 0xc] = R1 || NOP;
    32fc:	f1 b0 00 00 
    3300:	04 30       	R0 = R4;
    3302:	0d 30       	R1 = R5;
    3304:	00 e3 7e 24 	CALL 0x7c00 <___adddf3>;
    3308:	28 30       	R5 = R0;
    330a:	21 30       	R4 = R1;
    330c:	00 e3 80 27 	CALL 0x820c <___fixdfsi>;
    3310:	80 bb       	[FP -0x20] = R0;
    3312:	00 60       	R0 = 0x0 (X);		/*		R0=0x0(  0) */
    3314:	f0 b0       	[SP + 0xc] = R0;
    3316:	02 60       	R2 = 0x0 (X);		/*		R2=0x0(  0) */
    3318:	05 30       	R0 = R5;
    331a:	0c 30       	R1 = R4;
    331c:	00 e3 08 27 	CALL 0x812c <___ltdf2>;
    3320:	80 0c       	CC = R0 < 0x0;
    3322:	02 14       	IF !CC JUMP 0x3326 <__dtoa_r+0x1c6> (BP);
    3324:	ee 22       	JUMP.S 0x3900 <__dtoa_r+0x7a0>;
    3326:	80 b9       	R0 = [FP -0x20];
    3328:	b1 60       	R1 = 0x16 (X);		/*		R1=0x16( 22) */
    332a:	08 0a       	CC = R0 <= R1 (IU);
    332c:	02 18       	IF CC JUMP 0x3330 <__dtoa_r+0x1d0>;
    332e:	e6 22       	JUMP.S 0x38fa <__dtoa_r+0x79a>;
    3330:	18 4f       	R0 <<= 0x3;
    3332:	08 32       	P1 = R0;
    3334:	4a e1 00 00 	P2.H = 0x0;		/* (  0)	P2=0x879c <__global_impure_ptr> */
    3338:	0a e1 d8 89 	P2.L = 0x89d8;		/* (-30248)	P2=0x89d8 <___mprec_tens> */
    333c:	f7 b0       	[SP + 0xc] = R7;
    333e:	16 30       	R2 = R6;
    3340:	8a 5a       	P2 = P2 + P1;
    3342:	10 91       	R0 = [P2];
    3344:	51 a0       	R1 = [P2 + 0x4];
    3346:	00 e3 a7 26 	CALL 0x8094 <___gtdf2>;
    334a:	00 0d       	CC = R0 <= 0x0;
    334c:	02 10       	IF !CC JUMP 0x3350 <__dtoa_r+0x1f0>;
    334e:	df 23       	JUMP.S 0x3b0c <__dtoa_r+0x9ac>;
    3350:	80 b9       	R0 = [FP -0x20];
    3352:	f8 67       	R0 += -0x1;		/* ( -1) */
    3354:	00 cc 1b c6 	R3 = R3 -|- R3 || [FP -0x20] = R0 || NOP;
    3358:	80 bb 00 00 
    335c:	23 bb       	[FP -0x38] = R3;
    335e:	d3 b9       	R3 = [FP -0xc];
    3360:	4d 30       	R1 = P5;
    3362:	0b 52       	R0 = R3 - R1;
    3364:	f8 67       	R0 += -0x1;		/* ( -1) */
    3366:	80 0c       	CC = R0 < 0x0;
    3368:	02 14       	IF !CC JUMP 0x336c <__dtoa_r+0x20c> (BP);
    336a:	e2 22       	JUMP.S 0x392e <__dtoa_r+0x7ce>;
    336c:	00 cc 12 c4 	R2 = R2 -|- R2 || [FP -0x1c] = R0 || NOP;
    3370:	90 bb 00 00 
    3374:	72 bb       	[FP -0x24] = R2;
    3376:	80 b9       	R0 = [FP -0x20];
    3378:	80 0c       	CC = R0 < 0x0;
    337a:	02 14       	IF !CC JUMP 0x337e <__dtoa_r+0x21e> (BP);
    337c:	d0 22       	JUMP.S 0x391c <__dtoa_r+0x7bc>;
    337e:	10 32       	P2 = R0;
    3380:	99 b9       	P1 = [FP -0x1c];
    3382:	00 cc 12 c4 	R2 = R2 -|- R2 || [FP -0x30] = R0 || NOP;
    3386:	40 bb 00 00 
    338a:	a2 bb       	[FP -0x18] = R2;
    338c:	51 5a       	P1 = P1 + P2;
    338e:	99 bb       	[FP -0x1c] = P1;
    3390:	3b a3       	R3 = [FP + 0x30];
    3392:	48 60       	R0 = 0x9 (X);		/*		R0=0x9(  9) */
    3394:	03 0a       	CC = R3 <= R0 (IU);
    3396:	a4 15       	IF !CC JUMP 0x36de <__dtoa_r+0x57e> (BP);
    3398:	29 60       	R1 = 0x5 (X);		/*		R1=0x5(  5) */
    339a:	0b 09       	CC = R3 <= R1;
    339c:	02 14       	IF !CC JUMP 0x33a0 <__dtoa_r+0x240> (BP);
    339e:	b8 26       	JUMP.S 0x410e <__dtoa_r+0xfae>;
    33a0:	e3 67       	R3 += -0x4;		/* ( -4) */
    33a2:	3b b3       	[FP + 0x30] = R3;
    33a4:	05 60       	R5 = 0x0 (X);		/*		R5=0x0(  0) */
    33a6:	3b a3       	R3 = [FP + 0x30];
    33a8:	1b 0c       	CC = R3 == 0x3;
    33aa:	02 14       	IF !CC JUMP 0x33ae <__dtoa_r+0x24e> (BP);
    33ac:	20 25       	JUMP.S 0x3dec <__dtoa_r+0xc8c>;
    33ae:	1b 0d       	CC = R3 <= 0x3;
    33b0:	02 18       	IF CC JUMP 0x33b4 <__dtoa_r+0x254>;
    33b2:	15 24       	JUMP.S 0x3bdc <__dtoa_r+0xa7c>;
    33b4:	13 0c       	CC = R3 == 0x2;
    33b6:	96 15       	IF !CC JUMP 0x36e2 <__dtoa_r+0x582> (BP);
    33b8:	02 68       	P2 = 0x0 (X);		/*		P2=0x0(  0) */
    33ba:	3a bb       	[FP -0x34] = P2;
    33bc:	78 a3       	R0 = [FP + 0x34];
    33be:	00 0d       	CC = R0 <= 0x0;
    33c0:	02 14       	IF !CC JUMP 0x33c4 <__dtoa_r+0x264> (BP);
    33c2:	27 25       	JUMP.S 0x3e10 <__dtoa_r+0xcb0>;
    33c4:	82 ce 00 c8 	R4 = ROT R0 BY 0x0 || [FP -0x3c] = R0 || NOP;
    33c8:	10 bb 00 00 
    33cc:	60 bb       	[FP -0x28] = R0;
    33ce:	00 60       	R0 = 0x0 (X);		/*		R0=0x0(  0) */
    33d0:	20 e6 11 00 	[P4 + 0x44] = R0;
    33d4:	b8 60       	R0 = 0x17 (X);		/*		R0=0x17( 23) */
    33d6:	04 0a       	CC = R4 <= R0 (IU);
    33d8:	02 14       	IF !CC JUMP 0x33dc <__dtoa_r+0x27c> (BP);
    33da:	98 26       	JUMP.S 0x410a <__dtoa_r+0xfaa>;
    33dc:	0a 60       	R2 = 0x1 (X);		/*		R2=0x1(  1) */
    33de:	20 60       	R0 = 0x4 (X);		/*		R0=0x4(  4) */
    33e0:	08 4f       	R0 <<= 0x1;
    33e2:	18 30       	R3 = R0;
    33e4:	a3 64       	R3 += 0x14;		/* ( 20) */
    33e6:	23 0a       	CC = R3 <= R4 (IU);
    33e8:	0a 30       	R1 = R2;
    33ea:	0a 64       	R2 += 0x1;		/* (  1) */
    33ec:	fa 1f       	IF CC JUMP 0x33e0 <__dtoa_r+0x280> (BP);
    33ee:	21 e6 11 00 	[P4 + 0x44] = R1;
    33f2:	44 30       	R0 = P4;
    33f4:	00 e3 04 0f 	CALL 0x51fc <__Balloc>;
    33f8:	71 60       	R1 = 0xe (X);		/*		R1=0xe( 14) */
    33fa:	0c 0a       	CC = R4 <= R1 (IU);
    33fc:	d0 bb       	[FP -0xc] = R0;
    33fe:	20 e6 10 00 	[P4 + 0x40] = R0;
    3402:	84 11       	IF !CC JUMP 0x370a <__dtoa_r+0x5aa>;
    3404:	05 0c       	CC = R5 == 0x0;
    3406:	82 1d       	IF CC JUMP 0x370a <__dtoa_r+0x5aa> (BP);
    3408:	80 b9       	R0 = [FP -0x20];
    340a:	00 0d       	CC = R0 <= 0x0;
    340c:	e6 ba       	[FP -0x48] = R6;
    340e:	d7 ba       	[FP -0x4c] = R7;
    3410:	02 14       	IF !CC JUMP 0x3414 <__dtoa_r+0x2b4> (BP);
    3412:	34 25       	JUMP.S 0x3e7a <__dtoa_r+0xd1a>;
    3414:	82 b9       	R2 = [FP -0x20];
    3416:	78 60       	R0 = 0xf (X);		/*		R0=0xf( 15) */
    3418:	42 54       	R1 = R2 & R0;
    341a:	19 4f       	R1 <<= 0x3;
    341c:	09 32       	P1 = R1;
    341e:	4a e1 00 00 	P2.H = 0x0;		/* (  0)	P2=0x0 */
    3422:	22 30       	R4 = R2;
    3424:	0a e1 d8 89 	P2.L = 0x89d8;		/* (-30248)	P2=0x89d8 <___mprec_tens> */
    3428:	24 4d       	R4 >>>= 0x4;
    342a:	8a 5a       	P2 = P2 + P1;
    342c:	24 48       	CC = !BITTST (R4, 0x4);		/* bit  4 */
    342e:	13 91       	R3 = [P2];
    3430:	53 ac       	P3 = [P2 + 0x4];
    3432:	02 10       	IF !CC JUMP 0x3436 <__dtoa_r+0x2d6>;
    3434:	ea 24       	JUMP.S 0x3e08 <__dtoa_r+0xca8>;
    3436:	4a e1 00 00 	P2.H = 0x0;		/* (  0)	P2=0x89d8 <___mprec_tens> */
    343a:	0a e1 b0 89 	P2.L = 0x89b0;		/* (-30288)	P2=0x89b0 <___mprec_bigtens> */
    343e:	04 55       	R4 = R4 & R0;
    3440:	50 a2       	R0 = [P2 + 0x24];
    3442:	f0 b0       	[SP + 0xc] = R0;
    3444:	82 ce 07 c2 	R1 = ROT R7 BY 0x0 || R2 = [P2 + 0x20] || NOP;
    3448:	12 a2 00 00 
    344c:	82 ce 06 c0 	R0 = ROT R6 BY 0x0 || [FP -0x60] = R3 || NOP;
    3450:	83 ba 00 00 
    3454:	00 e3 32 25 	CALL 0x7eb8 <___divdf3>;
    3458:	82 ce 00 ca 	R5 = ROT R0 BY 0x0 || R3 = [FP -0x60] || NOP;
    345c:	83 b8 00 00 
    3460:	31 30       	R6 = R1;
    3462:	1f 60       	R7 = 0x3 (X);		/*		R7=0x3(  3) */
    3464:	04 0c       	CC = R4 == 0x0;
    3466:	17 18       	IF CC JUMP 0x3494 <__dtoa_r+0x334>;
    3468:	4d e1 00 00 	P5.H = 0x0;		/* (  0)	P5=0x87b0 */
    346c:	0d e1 b0 89 	P5.L = 0x89b0;		/* (-30288)	P5=0x89b0 <___mprec_bigtens> */
    3470:	04 48       	CC = !BITTST (R4, 0x0);		/* bit  0 */
    3472:	0d 1c       	IF CC JUMP 0x348c <__dtoa_r+0x32c> (BP);
    3474:	6a a0       	R2 = [P5 + 0x4];
    3476:	f2 b0       	[SP + 0xc] = R2;
    3478:	82 ce 03 c0 	R0 = ROT R3 BY 0x0 || R2 = [P5] || NOP;
    347c:	2a 91 00 00 
    3480:	4b 30       	R1 = P3;
    3482:	00 e3 0b 24 	CALL 0x7c98 <___muldf3>;
    3486:	0f 64       	R7 += 0x1;		/* (  1) */
    3488:	18 30       	R3 = R0;
    348a:	19 32       	P3 = R1;
    348c:	0c 4d       	R4 >>>= 0x1;
    348e:	04 0c       	CC = R4 == 0x0;
    3490:	45 6c       	P5 += 0x8;		/* (  8) */
    3492:	ef 17       	IF !CC JUMP 0x3470 <__dtoa_r+0x310> (BP);
    3494:	05 30       	R0 = R5;
    3496:	f3 bc       	[SP + 0xc] = P3;
    3498:	13 30       	R2 = R3;
    349a:	0e 30       	R1 = R6;
    349c:	00 e3 0e 25 	CALL 0x7eb8 <___divdf3>;
    34a0:	28 30       	R5 = R0;
    34a2:	21 30       	R4 = R1;
    34a4:	23 b9       	R3 = [FP -0x38];
    34a6:	03 0c       	CC = R3 == 0x0;
    34a8:	0d 1c       	IF CC JUMP 0x34c2 <__dtoa_r+0x362> (BP);
    34aa:	20 e1 ff 03 	R0 = 0x3ff (X);		/*		R0=0x3ff(1023) */
    34ae:	a0 4f       	R0 <<= 0x14;
    34b0:	f0 b0       	[SP + 0xc] = R0;
    34b2:	02 60       	R2 = 0x0 (X);		/*		R2=0x0(  0) */
    34b4:	05 30       	R0 = R5;
    34b6:	0c 30       	R1 = R4;
    34b8:	00 e3 3a 26 	CALL 0x812c <___ltdf2>;
    34bc:	80 0c       	CC = R0 < 0x0;
    34be:	02 14       	IF !CC JUMP 0x34c2 <__dtoa_r+0x362> (BP);
    34c0:	b5 25       	JUMP.S 0x402a <__dtoa_r+0xeca>;
    34c2:	07 30       	R0 = R7;
    34c4:	00 e3 5a 26 	CALL 0x8178 <___floatsidf>;
    34c8:	82 ce 05 c4 	R2 = ROT R5 BY 0x0 || [SP + 0xc] = R4 || NOP;
    34cc:	f4 b0 00 00 
    34d0:	00 e3 e4 23 	CALL 0x7c98 <___muldf3>;
    34d4:	22 e1 07 10 	R2 = 0x1007 (X);		/*		R2=0x1007(4103) */
    34d8:	92 4f       	R2 <<= 0x12;
    34da:	f2 b0       	[SP + 0xc] = R2;
    34dc:	02 60       	R2 = 0x0 (X);		/*		R2=0x0(  0) */
    34de:	00 e3 91 23 	CALL 0x7c00 <___adddf3>;
    34e2:	82 ce 00 cc 	R6 = ROT R0 BY 0x0 || R3 = [FP -0x28] || NOP;
    34e6:	63 b9 00 00 
    34ea:	98 63       	R0 = -0xd (X);		/*		R0=0xfffffff3(-13) */
    34ec:	b0 4f       	R0 <<= 0x16;
    34ee:	03 0c       	CC = R3 == 0x0;
    34f0:	c8 51       	R7 = R0 + R1;
    34f2:	02 10       	IF !CC JUMP 0x34f6 <__dtoa_r+0x396>;
    34f4:	56 24       	JUMP.S 0x3da0 <__dtoa_r+0xc40>;
    34f6:	80 b9       	R0 = [FP -0x20];
    34f8:	a0 ba       	[FP -0x58] = R0;
    34fa:	63 b9       	R3 = [FP -0x28];
    34fc:	31 b9       	R1 = [FP -0x34];
    34fe:	01 0c       	CC = R1 == 0x0;
    3500:	02 10       	IF !CC JUMP 0x3504 <__dtoa_r+0x3a4>;
    3502:	1a 25       	JUMP.S 0x3f36 <__dtoa_r+0xdd6>;
    3504:	82 ce 03 c0 	R0 = ROT R3 BY 0x0 || [FP -0x60] = R3 || NOP;
    3508:	83 ba 00 00 
    350c:	f8 67       	R0 += -0x1;		/* ( -1) */
    350e:	18 4f       	R0 <<= 0x3;
    3510:	08 32       	P1 = R0;
    3512:	4a e1 00 00 	P2.H = 0x0;		/* (  0)	P2=0x89b0 <___mprec_bigtens> */
    3516:	0a e1 d8 89 	P2.L = 0x89d8;		/* (-30248)	P2=0x89d8 <___mprec_tens> */
    351a:	21 e1 ff 01 	R1 = 0x1ff (X);		/*		R1=0x1ff(511) */
    351e:	a9 4f       	R1 <<= 0x15;
    3520:	8a 5a       	P2 = P2 + P1;
    3522:	50 a0       	R0 = [P2 + 0x4];
    3524:	12 91       	R2 = [P2];
    3526:	f0 b0       	[SP + 0xc] = R0;
    3528:	00 60       	R0 = 0x0 (X);		/*		R0=0x0(  0) */
    352a:	00 e3 c7 24 	CALL 0x7eb8 <___divdf3>;
    352e:	82 ce 06 c4 	R2 = ROT R6 BY 0x0 || [SP + 0xc] = R7 || NOP;
    3532:	f7 b0 00 00 
    3536:	00 e3 89 23 	CALL 0x7c48 <___subdf3>;
    353a:	c0 ba       	[FP -0x50] = R0;
    353c:	39 30       	R7 = R1;
    353e:	05 30       	R0 = R5;
    3540:	0c 30       	R1 = R4;
    3542:	00 e3 65 26 	CALL 0x820c <___fixdfsi>;
    3546:	28 32       	P5 = R0;
    3548:	00 e3 18 26 	CALL 0x8178 <___floatsidf>;
    354c:	82 ce 00 c4 	R2 = ROT R0 BY 0x0 || [SP + 0xc] = R1 || NOP;
    3550:	f1 b0 00 00 
    3554:	05 30       	R0 = R5;
    3556:	0c 30       	R1 = R4;
    3558:	00 e3 78 23 	CALL 0x7c48 <___subdf3>;
    355c:	db b9       	P3 = [FP -0xc];
    355e:	65 30       	R4 = P5;
    3560:	84 65       	R4 += 0x30;		/* ( 48) */
    3562:	10 30       	R2 = R0;
    3564:	1c 9a       	B[P3++] = R4;
    3566:	82 ce 00 ca 	R5 = ROT R0 BY 0x0 || [SP + 0xc] = R1 || NOP;
    356a:	f1 b0 00 00 
    356e:	82 ce 01 cc 	R6 = ROT R1 BY 0x0 || R0 = [FP -0x50] || NOP;
    3572:	c0 b8 00 00 
    3576:	0f 30       	R1 = R7;
    3578:	00 e3 8e 25 	CALL 0x8094 <___gtdf2>;
    357c:	00 0d       	CC = R0 <= 0x0;
    357e:	02 1c       	IF CC JUMP 0x3582 <__dtoa_r+0x422> (BP);
    3580:	a3 25       	JUMP.S 0x40c6 <__dtoa_r+0xf66>;
    3582:	21 e1 ff 03 	R1 = 0x3ff (X);		/*		R1=0x3ff(1023) */
    3586:	82 ce 05 c4 	R2 = ROT R5 BY 0x0 || [SP + 0xc] = R6 || NOP;
    358a:	f6 b0 00 00 
    358e:	00 60       	R0 = 0x0 (X);		/*		R0=0x0(  0) */
    3590:	a1 4f       	R1 <<= 0x14;
    3592:	00 e3 5b 23 	CALL 0x7c48 <___subdf3>;
    3596:	f1 b0       	[SP + 0xc] = R1;
    3598:	82 ce 00 c4 	R2 = ROT R0 BY 0x0 || R0 = [FP -0x50] || NOP;
    359c:	c0 b8 00 00 
    35a0:	0f 30       	R1 = R7;
    35a2:	00 e3 79 25 	CALL 0x8094 <___gtdf2>;
    35a6:	00 0d       	CC = R0 <= 0x0;
    35a8:	83 b8       	R3 = [FP -0x60];
    35aa:	02 1c       	IF CC JUMP 0x35ae <__dtoa_r+0x44e> (BP);
    35ac:	a5 25       	JUMP.S 0x40f6 <__dtoa_r+0xf96>;
    35ae:	0b 0d       	CC = R3 <= 0x1;
    35b0:	02 14       	IF !CC JUMP 0x35b4 <__dtoa_r+0x454> (BP);
    35b2:	61 24       	JUMP.S 0x3e74 <__dtoa_r+0xd14>;
    35b4:	d0 b9       	R0 = [FP -0xc];
    35b6:	d8 50       	R3 = R0 + R3;
    35b8:	bc ba       	[FP -0x54] = P4;
    35ba:	6b 32       	P5 = P3;
    35bc:	f3 ba       	[FP -0x44] = R3;
    35be:	cc b8       	P4 = [FP -0x50];
    35c0:	16 20       	JUMP.S 0x35ec <__dtoa_r+0x48c>;
    35c2:	21 e1 ff 03 	R1 = 0x3ff (X);		/*		R1=0x3ff(1023) */
    35c6:	82 ce 05 c4 	R2 = ROT R5 BY 0x0 || [SP + 0xc] = R6 || NOP;
    35ca:	f6 b0 00 00 
    35ce:	00 60       	R0 = 0x0 (X);		/*		R0=0x0(  0) */
    35d0:	a1 4f       	R1 <<= 0x14;
    35d2:	00 e3 3b 23 	CALL 0x7c48 <___subdf3>;
    35d6:	f7 b0       	[SP + 0xc] = R7;
    35d8:	54 30       	R2 = P4;
    35da:	00 e3 a9 25 	CALL 0x812c <___ltdf2>;
    35de:	80 0c       	CC = R0 < 0x0;
    35e0:	02 14       	IF !CC JUMP 0x35e4 <__dtoa_r+0x484> (BP);
    35e2:	75 25       	JUMP.S 0x40cc <__dtoa_r+0xf6c>;
    35e4:	f9 b8       	P1 = [FP -0x44];
    35e6:	4d 08       	CC = P5 == P1;
    35e8:	02 14       	IF !CC JUMP 0x35ec <__dtoa_r+0x48c> (BP);
    35ea:	44 24       	JUMP.S 0x3e72 <__dtoa_r+0xd12>;
    35ec:	4a e1 24 40 	P2.H = 0x4024;		/* (16420)	P2=0x402489d8 */
    35f0:	0a e1 00 00 	P2.L = 0x0;		/* (  0)	P2=0x40240000 */
    35f4:	f2 bc       	[SP + 0xc] = P2;
    35f6:	02 60       	R2 = 0x0 (X);		/*		R2=0x0(  0) */
    35f8:	44 30       	R0 = P4;
    35fa:	0f 30       	R1 = R7;
    35fc:	00 e3 4e 23 	CALL 0x7c98 <___muldf3>;
    3600:	20 32       	P4 = R0;
    3602:	20 e1 09 10 	R0 = 0x1009 (X);		/*		R0=0x1009(4105) */
    3606:	90 4f       	R0 <<= 0x12;
    3608:	00 cc 12 c4 	R2 = R2 -|- R2 || [SP + 0xc] = R0 || NOP;
    360c:	f0 b0 00 00 
    3610:	39 30       	R7 = R1;
    3612:	05 30       	R0 = R5;
    3614:	0e 30       	R1 = R6;
    3616:	00 e3 41 23 	CALL 0x7c98 <___muldf3>;
    361a:	29 30       	R5 = R1;
    361c:	20 30       	R4 = R0;
    361e:	00 e3 f7 25 	CALL 0x820c <___fixdfsi>;
    3622:	18 32       	P3 = R0;
    3624:	00 e3 aa 25 	CALL 0x8178 <___floatsidf>;
    3628:	82 ce 00 c4 	R2 = ROT R0 BY 0x0 || [SP + 0xc] = R1 || NOP;
    362c:	f1 b0 00 00 
    3630:	04 30       	R0 = R4;
    3632:	0d 30       	R1 = R5;
    3634:	63 30       	R4 = P3;
    3636:	84 65       	R4 += 0x30;		/* ( 48) */
    3638:	00 e3 08 23 	CALL 0x7c48 <___subdf3>;
    363c:	2c 9a       	B[P5++] = R4;
    363e:	54 30       	R2 = P4;
    3640:	f7 b0       	[SP + 0xc] = R7;
    3642:	28 30       	R5 = R0;
    3644:	31 30       	R6 = R1;
    3646:	00 e3 73 25 	CALL 0x812c <___ltdf2>;
    364a:	80 0c       	CC = R0 < 0x0;
    364c:	5d 32       	P3 = P5;
    364e:	ba 17       	IF !CC JUMP 0x35c2 <__dtoa_r+0x462> (BP);
    3650:	a9 b8       	P1 = [FP -0x58];
    3652:	bc b8       	P4 = [FP -0x54];
    3654:	89 bb       	[FP -0x20] = P1;
    3656:	44 30       	R0 = P4;
    3658:	51 b9       	R1 = [FP -0x2c];
    365a:	00 e3 05 0e 	CALL 0x5264 <__Bfree>;
    365e:	39 e5 10 00 	P1 = [FP + 0x40];
    3662:	ba af       	P2 = [FP + 0x38];
    3664:	00 60       	R0 = 0x0 (X);		/*		R0=0x0(  0) */
    3666:	18 9b       	B[P3] = R0;
    3668:	80 b9       	R0 = [FP -0x20];
    366a:	08 64       	R0 += 0x1;		/* (  1) */
    366c:	41 0c       	CC = P1 == 0x0;
    366e:	10 93       	[P2] = R0;
    3670:	02 14       	IF !CC JUMP 0x3674 <__dtoa_r+0x514> (BP);
    3672:	b8 2d       	JUMP.S 0x31e2 <__dtoa_r+0x82>;
    3674:	4b 93       	[P1] = P3;
    3676:	d0 b9       	R0 = [FP -0xc];
    3678:	01 e8 00 00 	UNLINK;
    367c:	a3 05       	(R7:4, P5:3) = [SP++];
    367e:	10 00       	RTS;
    3680:	f8 63       	R0 = -0x1 (X);		/*		R0=0xffffffff( -1) */
    3682:	40 e1 0f 00 	R0.H = 0xf;		/* ( 15)	R0=0xfffff(1048575) */
    3686:	01 54       	R0 = R1 & R0;
    3688:	00 0c       	CC = R0 == 0x0;
    368a:	41 e1 00 00 	R1.H = 0x0;		/* (  0)	R1=0x3ff(1023) */
    368e:	40 e1 00 00 	R0.H = 0x0;		/* (  0)	R0=0xffff(65535) */
    3692:	00 e1 78 89 	R0.L = 0x8978;		/* (-30344)	R0=0x8978(35192) */
    3696:	01 e1 6c 89 	R1.L = 0x896c;		/* (-30356)	R1=0x896c(35180) */
    369a:	01 07       	IF CC R0 = R1;
    369c:	d0 bb       	[FP -0xc] = R0;
    369e:	b3 2d       	JUMP.S 0x3204 <__dtoa_r+0xa4>;
    36a0:	fd 63       	R5 = -0x1 (X);		/*		R5=0xffffffff( -1) */
    36a2:	45 e1 0f 00 	R5.H = 0xf;		/* ( 15)	R5=0xfffff(1048575) */
    36a6:	23 e1 ff 03 	R3 = 0x3ff (X);		/*		R3=0x3ff(1023) */
    36aa:	a3 4f       	R3 <<= 0x14;
    36ac:	6f 55       	R5 = R7 & R5;
    36ae:	ea b9       	P2 = [FP -0x8];
    36b0:	5d 56       	R1 = R5 | R3;
    36b2:	23 e1 01 fc 	R3 = -0x3ff (X);		/*		R3=0xfffffc01(-1023) */
    36b6:	da 50       	R3 = R2 + R3;
    36b8:	2b 32       	P5 = R3;
    36ba:	00 cc 1b c6 	R3 = R3 -|- R3 || [FP -0xc] = P2 || NOP;
    36be:	da bb 00 00 
    36c2:	82 ce 06 c0 	R0 = ROT R6 BY 0x0 || [FP -0x40] = R3 || NOP;
    36c6:	03 bb 00 00 
    36ca:	ea 2d       	JUMP.S 0x329e <__dtoa_r+0x13e>;
    36cc:	40 e1 00 00 	R0.H = 0x0;		/* (  0)	R0=0x8978(35192) */
    36d0:	00 e1 e4 87 	R0.L = 0x87e4;		/* (-30748)	R0=0x87e4(34788) */
    36d4:	d0 bb       	[FP -0xc] = R0;
    36d6:	86 2d       	JUMP.S 0x31e2 <__dtoa_r+0x82>;
    36d8:	d0 b9       	R0 = [FP -0xc];
    36da:	18 64       	R0 += 0x3;		/* (  3) */
    36dc:	a2 2d       	JUMP.S 0x3220 <__dtoa_r+0xc0>;
    36de:	02 68       	P2 = 0x0 (X);		/*		P2=0x0(  0) */
    36e0:	3a bf       	[FP + 0x30] = P2;
    36e2:	00 60       	R0 = 0x0 (X);		/*		R0=0x0(  0) */
    36e4:	20 e6 11 00 	[P4 + 0x44] = R0;
    36e8:	01 60       	R1 = 0x0 (X);		/*		R1=0x0(  0) */
    36ea:	44 30       	R0 = P4;
    36ec:	00 e3 88 0d 	CALL 0x51fc <__Balloc>;
    36f0:	d0 bb       	[FP -0xc] = R0;
    36f2:	20 e6 10 00 	[P4 + 0x40] = R0;
    36f6:	fb 63       	R3 = -0x1 (X);		/*		R3=0xffffffff( -1) */
    36f8:	00 cc 00 c0 	R0 = R0 -|- R0 || [FP -0x28] = R3 || NOP;
    36fc:	63 bb 00 00 
    3700:	f9 6b       	P1 = -0x1 (X);		/*		P1=0xffffffff( -1) */
    3702:	0a 68       	P2 = 0x1 (X);		/*		P2=0x1(  1) */
    3704:	78 b3       	[FP + 0x34] = R0;
    3706:	19 bb       	[FP -0x3c] = P1;
    3708:	3a bb       	[FP -0x34] = P2;
    370a:	f0 b9       	R0 = [FP -0x4];
    370c:	80 0c       	CC = R0 < 0x0;
    370e:	d5 18       	IF CC JUMP 0x38b8 <__dtoa_r+0x758>;
    3710:	81 b9       	R1 = [FP -0x20];
    3712:	72 60       	R2 = 0xe (X);		/*		R2=0xe( 14) */
    3714:	11 09       	CC = R1 <= R2;
    3716:	d1 14       	IF !CC JUMP 0x38b8 <__dtoa_r+0x758> (BP);
    3718:	01 30       	R0 = R1;
    371a:	18 4f       	R0 <<= 0x3;
    371c:	08 32       	P1 = R0;
    371e:	4a e1 00 00 	P2.H = 0x0;		/* (  0)	P2=0x1 */
    3722:	0a e1 d8 89 	P2.L = 0x89d8;		/* (-30248)	P2=0x89d8 <___mprec_tens> */
    3726:	78 a3       	R0 = [FP + 0x34];
    3728:	80 0c       	CC = R0 < 0x0;
    372a:	8a 5a       	P2 = P2 + P1;
    372c:	13 91       	R3 = [P2];
    372e:	a3 bb       	[FP -0x18] = R3;
    3730:	54 a0       	R4 = [P2 + 0x4];
    3732:	02 14       	IF !CC JUMP 0x3736 <__dtoa_r+0x5d6> (BP);
    3734:	83 22       	JUMP.S 0x3c3a <__dtoa_r+0xada>;
    3736:	82 ce 06 ca 	R5 = ROT R6 BY 0x0 || R2 = [FP -0x18] || NOP;
    373a:	a2 b9 00 00 
    373e:	82 ce 07 c2 	R1 = ROT R7 BY 0x0 || [SP + 0xc] = R4 || NOP;
    3742:	f4 b0 00 00 
    3746:	05 30       	R0 = R5;
    3748:	00 e3 b8 23 	CALL 0x7eb8 <___divdf3>;
    374c:	00 e3 60 25 	CALL 0x820c <___fixdfsi>;
    3750:	37 30       	R6 = R7;
    3752:	38 30       	R7 = R0;
    3754:	00 e3 12 25 	CALL 0x8178 <___floatsidf>;
    3758:	a2 b9       	R2 = [FP -0x18];
    375a:	f4 b0       	[SP + 0xc] = R4;
    375c:	00 e3 9e 22 	CALL 0x7c98 <___muldf3>;
    3760:	f1 b0       	[SP + 0xc] = R1;
    3762:	10 30       	R2 = R0;
    3764:	0e 30       	R1 = R6;
    3766:	05 30       	R0 = R5;
    3768:	00 e3 70 22 	CALL 0x7c48 <___subdf3>;
    376c:	db b9       	P3 = [FP -0xc];
    376e:	18 30       	R3 = R0;
    3770:	11 32       	P2 = R1;
    3772:	82 ce 07 c0 	R0 = ROT R7 BY 0x0 || R1 = [FP -0x28] || NOP;
    3776:	61 b9 00 00 
    377a:	80 65       	R0 += 0x30;		/* ( 48) */
    377c:	09 0c       	CC = R1 == 0x1;
    377e:	18 9a       	B[P3++] = R0;
    3780:	61 18       	IF CC JUMP 0x3842 <__dtoa_r+0x6e2>;
    3782:	27 e1 09 10 	R7 = 0x1009 (X);		/*		R7=0x1009(4105) */
    3786:	97 4f       	R7 <<= 0x12;
    3788:	00 cc 12 c4 	R2 = R2 -|- R2 || [SP + 0xc] = R7 || NOP;
    378c:	f7 b0 00 00 
    3790:	03 30       	R0 = R3;
    3792:	4a 30       	R1 = P2;
    3794:	00 e3 82 22 	CALL 0x7c98 <___muldf3>;
    3798:	28 30       	R5 = R0;
    379a:	00 60       	R0 = 0x0 (X);		/*		R0=0x0(  0) */
    379c:	f0 b0       	[SP + 0xc] = R0;
    379e:	02 60       	R2 = 0x0 (X);		/*		R2=0x0(  0) */
    37a0:	05 30       	R0 = R5;
    37a2:	31 30       	R6 = R1;
    37a4:	00 e3 2c 24 	CALL 0x7ffc <___eqdf2>;
    37a8:	00 0c       	CC = R0 == 0x0;
    37aa:	56 1b       	IF CC JUMP 0x3656 <__dtoa_r+0x4f6>;
    37ac:	dd b9       	P5 = [FP -0xc];
    37ae:	d3 b9       	R3 = [FP -0xc];
    37b0:	60 b9       	R0 = [FP -0x28];
    37b2:	c3 50       	R3 = R3 + R0;
    37b4:	bc bb       	[FP -0x14] = P4;
    37b6:	15 6c       	P5 += 0x2;		/* (  2) */
    37b8:	26 32       	P4 = R6;
    37ba:	c3 bb       	[FP -0x10] = R3;
    37bc:	1d 32       	P3 = R5;
    37be:	a6 b9       	R6 = [FP -0x18];
    37c0:	17 20       	JUMP.S 0x37ee <__dtoa_r+0x68e>;
    37c2:	49 e1 24 40 	P1.H = 0x4024;		/* (16420)	P1=0x4024ffff */
    37c6:	09 e1 00 00 	P1.L = 0x0;		/* (  0)	P1=0x40240000 */
    37ca:	f1 bc       	[SP + 0xc] = P1;
    37cc:	02 60       	R2 = 0x0 (X);		/*		R2=0x0(  0) */
    37ce:	03 30       	R0 = R3;
    37d0:	4a 30       	R1 = P2;
    37d2:	00 e3 63 22 	CALL 0x7c98 <___muldf3>;
    37d6:	18 32       	P3 = R0;
    37d8:	00 60       	R0 = 0x0 (X);		/*		R0=0x0(  0) */
    37da:	f0 b0       	[SP + 0xc] = R0;
    37dc:	02 60       	R2 = 0x0 (X);		/*		R2=0x0(  0) */
    37de:	21 32       	P4 = R1;
    37e0:	43 30       	R0 = P3;
    37e2:	00 e3 0d 24 	CALL 0x7ffc <___eqdf2>;
    37e6:	00 0c       	CC = R0 == 0x0;
    37e8:	0d 6c       	P5 += 0x1;		/* (  1) */
    37ea:	02 14       	IF !CC JUMP 0x37ee <__dtoa_r+0x68e> (BP);
    37ec:	c3 22       	JUMP.S 0x3d72 <__dtoa_r+0xc12>;
    37ee:	82 ce 06 c4 	R2 = ROT R6 BY 0x0 || [SP + 0xc] = R4 || NOP;
    37f2:	f4 b0 00 00 
    37f6:	43 30       	R0 = P3;
    37f8:	4c 30       	R1 = P4;
    37fa:	00 e3 5f 23 	CALL 0x7eb8 <___divdf3>;
    37fe:	00 e3 07 25 	CALL 0x820c <___fixdfsi>;
    3802:	28 30       	R5 = R0;
    3804:	00 e3 ba 24 	CALL 0x8178 <___floatsidf>;
    3808:	82 ce 06 c4 	R2 = ROT R6 BY 0x0 || [SP + 0xc] = R4 || NOP;
    380c:	f4 b0 00 00 
    3810:	00 e3 44 22 	CALL 0x7c98 <___muldf3>;
    3814:	82 ce 00 c4 	R2 = ROT R0 BY 0x0 || [SP + 0xc] = R1 || NOP;
    3818:	f1 b0 00 00 
    381c:	43 30       	R0 = P3;
    381e:	4c 30       	R1 = P4;
    3820:	00 e3 14 22 	CALL 0x7c48 <___subdf3>;
    3824:	c9 b9       	P1 = [FP -0x10];
    3826:	15 30       	R2 = R5;
    3828:	82 65       	R2 += 0x30;		/* ( 48) */
    382a:	18 30       	R3 = R0;
    382c:	4d 08       	CC = P5 == P1;
    382e:	11 32       	P2 = R1;
    3830:	7d 30       	R7 = P5;
    3832:	aa e6 ff ff 	B[P5 + -0x1] = R2;
    3836:	c6 17       	IF !CC JUMP 0x37c2 <__dtoa_r+0x662> (BP);
    3838:	5d 32       	P3 = P5;
    383a:	82 ce 05 ce 	R7 = ROT R5 BY 0x0 || P4 = [FP -0x14] || NOP;
    383e:	bc b9 00 00 
    3842:	13 30       	R2 = R3;
    3844:	f2 bc       	[SP + 0xc] = P2;
    3846:	03 30       	R0 = R3;
    3848:	4a 30       	R1 = P2;
    384a:	00 e3 db 21 	CALL 0x7c00 <___adddf3>;
    384e:	f1 b0       	[SP + 0xc] = R1;
    3850:	10 30       	R2 = R0;
    3852:	82 ce 00 ca 	R5 = ROT R0 BY 0x0 || R0 = [FP -0x18] || NOP;
    3856:	a0 b9 00 00 
    385a:	31 30       	R6 = R1;
    385c:	0c 30       	R1 = R4;
    385e:	00 e3 67 24 	CALL 0x812c <___ltdf2>;
    3862:	80 0c       	CC = R0 < 0x0;
    3864:	0d 1c       	IF CC JUMP 0x387e <__dtoa_r+0x71e> (BP);
    3866:	f6 b0       	[SP + 0xc] = R6;
    3868:	82 ce 05 c4 	R2 = ROT R5 BY 0x0 || R0 = [FP -0x18] || NOP;
    386c:	a0 b9 00 00 
    3870:	0c 30       	R1 = R4;
    3872:	00 e3 c5 23 	CALL 0x7ffc <___eqdf2>;
    3876:	00 0c       	CC = R0 == 0x0;
    3878:	ef 16       	IF !CC JUMP 0x3656 <__dtoa_r+0x4f6> (BP);
    387a:	07 48       	CC = !BITTST (R7, 0x0);		/* bit  0 */
    387c:	ed 1e       	IF CC JUMP 0x3656 <__dtoa_r+0x4f6> (BP);
    387e:	00 00       	NOP;
    3880:	9c e5 ff ff 	R4 = B[P3 + -0x1] (X);
    3884:	4b 32       	P1 = P3;
    3886:	f1 6f       	P1 += -0x2;		/* ( -2) */
    3888:	d1 b9       	R1 = [FP -0xc];
    388a:	03 20       	JUMP.S 0x3890 <__dtoa_r+0x730>;
    388c:	5a 32       	P3 = P2;
    388e:	cc 98       	R4 = B[P1--] (X);
    3890:	20 43       	R0 = R4.B (X);
    3892:	ca 61       	R2 = 0x39 (X);		/*		R2=0x39( 57) */
    3894:	53 32       	P2 = P3;
    3896:	10 08       	CC = R0 == R2;
    3898:	fa 6f       	P2 += -0x1;		/* ( -1) */
    389a:	02 1c       	IF CC JUMP 0x389e <__dtoa_r+0x73e> (BP);
    389c:	ba 23       	JUMP.S 0x4010 <__dtoa_r+0xeb0>;
    389e:	52 30       	R2 = P2;
    38a0:	11 08       	CC = R1 == R2;
    38a2:	f5 17       	IF !CC JUMP 0x388c <__dtoa_r+0x72c> (BP);
    38a4:	d9 b9       	P1 = [FP -0xc];
    38a6:	80 b9       	R0 = [FP -0x20];
    38a8:	08 64       	R0 += 0x1;		/* (  1) */
    38aa:	80 bb       	[FP -0x20] = R0;
    38ac:	51 32       	P2 = P1;
    38ae:	80 61       	R0 = 0x30 (X);		/*		R0=0x30( 48) */
    38b0:	8c 61       	R4 = 0x31 (X);		/*		R4=0x31( 49) */
    38b2:	08 9b       	B[P1] = R0;
    38b4:	14 9b       	B[P2] = R4;
    38b6:	d0 2e       	JUMP.S 0x3656 <__dtoa_r+0x4f6>;
    38b8:	33 b9       	R3 = [FP -0x34];
    38ba:	03 0c       	CC = R3 == 0x0;
    38bc:	40 1c       	IF CC JUMP 0x393c <__dtoa_r+0x7dc> (BP);
    38be:	3b a3       	R3 = [FP + 0x30];
    38c0:	0b 0d       	CC = R3 <= 0x1;
    38c2:	e7 19       	IF CC JUMP 0x3c90 <__dtoa_r+0xb30>;
    38c4:	60 b9       	R0 = [FP -0x28];
    38c6:	f8 67       	R0 += -0x1;		/* ( -1) */
    38c8:	a2 b9       	R2 = [FP -0x18];
    38ca:	82 08       	CC = R2 < R0;
    38cc:	02 10       	IF !CC JUMP 0x38d0 <__dtoa_r+0x770>;
    38ce:	95 22       	JUMP.S 0x3df8 <__dtoa_r+0xc98>;
    38d0:	1a 32       	P3 = R2;
    38d2:	08 32       	P1 = R0;
    38d4:	0b 44       	P3 -= P1;
    38d6:	63 b9       	R3 = [FP -0x28];
    38d8:	83 0c       	CC = R3 < 0x0;
    38da:	02 14       	IF !CC JUMP 0x38de <__dtoa_r+0x77e> (BP);
    38dc:	96 23       	JUMP.S 0x4008 <__dtoa_r+0xea8>;
    38de:	75 b9       	R5 = [FP -0x24];
    38e0:	60 b9       	R0 = [FP -0x28];
    38e2:	72 b9       	R2 = [FP -0x24];
    38e4:	82 50       	R2 = R2 + R0;
    38e6:	72 bb       	[FP -0x24] = R2;
    38e8:	92 b9       	R2 = [FP -0x1c];
    38ea:	82 50       	R2 = R2 + R0;
    38ec:	09 60       	R1 = 0x1 (X);		/*		R1=0x1(  1) */
    38ee:	44 30       	R0 = P4;
    38f0:	92 bb       	[FP -0x1c] = R2;
    38f2:	00 e3 c9 0d 	CALL 0x5484 <___i2b>;
    38f6:	20 30       	R4 = R0;
    38f8:	25 20       	JUMP.S 0x3942 <__dtoa_r+0x7e2>;
    38fa:	09 68       	P1 = 0x1 (X);		/*		P1=0x1(  1) */
    38fc:	29 bb       	[FP -0x38] = P1;
    38fe:	30 2d       	JUMP.S 0x335e <__dtoa_r+0x1fe>;
    3900:	80 b9       	R0 = [FP -0x20];
    3902:	00 e3 3b 24 	CALL 0x8178 <___floatsidf>;
    3906:	f4 b0       	[SP + 0xc] = R4;
    3908:	15 30       	R2 = R5;
    390a:	00 e3 9f 23 	CALL 0x8048 <___nedf2>;
    390e:	81 b9       	R1 = [FP -0x20];
    3910:	00 0c       	CC = R0 == 0x0;
    3912:	f9 67       	R1 += -0x1;		/* ( -1) */
    3914:	80 b9       	R0 = [FP -0x20];
    3916:	01 06       	IF !CC R0 = R1;
    3918:	80 bb       	[FP -0x20] = R0;
    391a:	06 2d       	JUMP.S 0x3326 <__dtoa_r+0x1c6>;
    391c:	72 b9       	R2 = [FP -0x24];
    391e:	80 b9       	R0 = [FP -0x20];
    3920:	82 52       	R2 = R2 - R0;
    3922:	72 bb       	[FP -0x24] = R2;
    3924:	03 60       	R3 = 0x0 (X);		/*		R3=0x0(  0) */
    3926:	82 43       	R2 = -R0;
    3928:	a2 bb       	[FP -0x18] = R2;
    392a:	43 bb       	[FP -0x30] = R3;
    392c:	32 2d       	JUMP.S 0x3390 <__dtoa_r+0x230>;
    392e:	80 43       	R0 = -R0;
    3930:	00 cc 12 c4 	R2 = R2 -|- R2 || [FP -0x24] = R0 || NOP;
    3934:	70 bb 00 00 
    3938:	92 bb       	[FP -0x1c] = R2;
    393a:	1e 2d       	JUMP.S 0x3376 <__dtoa_r+0x216>;
    393c:	ab b9       	P3 = [FP -0x18];
    393e:	75 b9       	R5 = [FP -0x24];
    3940:	04 60       	R4 = 0x0 (X);		/*		R4=0x0(  0) */
    3942:	05 0c       	CC = R5 == 0x0;
    3944:	0d 18       	IF CC JUMP 0x395e <__dtoa_r+0x7fe>;
    3946:	92 b9       	R2 = [FP -0x1c];
    3948:	02 0d       	CC = R2 <= 0x0;
    394a:	0a 18       	IF CC JUMP 0x395e <__dtoa_r+0x7fe>;
    394c:	07 c4 15 40 	R0 = MIN (R2, R5);
    3950:	72 b9       	R2 = [FP -0x24];
    3952:	82 52       	R2 = R2 - R0;
    3954:	72 bb       	[FP -0x24] = R2;
    3956:	92 b9       	R2 = [FP -0x1c];
    3958:	82 52       	R2 = R2 - R0;
    395a:	45 53       	R5 = R5 - R0;
    395c:	92 bb       	[FP -0x1c] = R2;
    395e:	a2 b9       	R2 = [FP -0x18];
    3960:	02 0d       	CC = R2 <= 0x0;
    3962:	1d 18       	IF CC JUMP 0x399c <__dtoa_r+0x83c>;
    3964:	33 b9       	R3 = [FP -0x34];
    3966:	03 0c       	CC = R3 == 0x0;
    3968:	02 14       	IF !CC JUMP 0x396c <__dtoa_r+0x80c> (BP);
    396a:	3a 22       	JUMP.S 0x3dde <__dtoa_r+0xc7e>;
    396c:	43 0d       	CC = P3 <= 0x0;
    396e:	12 18       	IF CC JUMP 0x3992 <__dtoa_r+0x832>;
    3970:	0c 30       	R1 = R4;
    3972:	53 30       	R2 = P3;
    3974:	44 30       	R0 = P4;
    3976:	00 e3 39 0e 	CALL 0x55e8 <___pow5mult>;
    397a:	20 30       	R4 = R0;
    397c:	52 b9       	R2 = [FP -0x2c];
    397e:	0c 30       	R1 = R4;
    3980:	44 30       	R0 = P4;
    3982:	00 e3 91 0d 	CALL 0x54a4 <___multiply>;
    3986:	28 32       	P5 = R0;
    3988:	51 b9       	R1 = [FP -0x2c];
    398a:	44 30       	R0 = P4;
    398c:	00 e3 6c 0c 	CALL 0x5264 <__Bfree>;
    3990:	5d bb       	[FP -0x2c] = P5;
    3992:	a0 b9       	R0 = [FP -0x18];
    3994:	4b 30       	R1 = P3;
    3996:	88 52       	R2 = R0 - R1;
    3998:	02 0c       	CC = R2 == 0x0;
    399a:	75 11       	IF !CC JUMP 0x3c84 <__dtoa_r+0xb24>;
    399c:	44 30       	R0 = P4;
    399e:	09 60       	R1 = 0x1 (X);		/*		R1=0x1(  1) */
    39a0:	00 e3 72 0d 	CALL 0x5484 <___i2b>;
    39a4:	43 b9       	R3 = [FP -0x30];
    39a6:	03 0d       	CC = R3 <= 0x0;
    39a8:	a0 bb       	[FP -0x18] = R0;
    39aa:	07 18       	IF CC JUMP 0x39b8 <__dtoa_r+0x858>;
    39ac:	44 30       	R0 = P4;
    39ae:	a1 b9       	R1 = [FP -0x18];
    39b0:	13 30       	R2 = R3;
    39b2:	00 e3 1b 0e 	CALL 0x55e8 <___pow5mult>;
    39b6:	a0 bb       	[FP -0x18] = R0;
    39b8:	3b a3       	R3 = [FP + 0x30];
    39ba:	0b 0d       	CC = R3 <= 0x1;
    39bc:	29 19       	IF CC JUMP 0x3c0e <__dtoa_r+0xaae>;
    39be:	05 68       	P5 = 0x0 (X);		/*		P5=0x0(  0) */
    39c0:	43 b9       	R3 = [FP -0x30];
    39c2:	03 0c       	CC = R3 == 0x0;
    39c4:	9a 11       	IF !CC JUMP 0x3cf8 <__dtoa_r+0xb98>;
    39c6:	09 60       	R1 = 0x1 (X);		/*		R1=0x1(  1) */
    39c8:	92 b9       	R2 = [FP -0x1c];
    39ca:	51 50       	R1 = R1 + R2;
    39cc:	f8 60       	R0 = 0x1f (X);		/*		R0=0x1f( 31) */
    39ce:	01 54       	R0 = R1 & R0;
    39d0:	00 0c       	CC = R0 == 0x0;
    39d2:	93 1c       	IF CC JUMP 0x3af8 <__dtoa_r+0x998> (BP);
    39d4:	01 61       	R1 = 0x20 (X);		/*		R1=0x20( 32) */
    39d6:	41 52       	R1 = R1 - R0;
    39d8:	23 60       	R3 = 0x4 (X);		/*		R3=0x4(  4) */
    39da:	19 09       	CC = R1 <= R3;
    39dc:	02 14       	IF !CC JUMP 0x39e0 <__dtoa_r+0x880> (BP);
    39de:	8f 23       	JUMP.S 0x40fc <__dtoa_r+0xf9c>;
    39e0:	e1 60       	R1 = 0x1c (X);		/*		R1=0x1c( 28) */
    39e2:	01 52       	R0 = R1 - R0;
    39e4:	72 b9       	R2 = [FP -0x24];
    39e6:	82 50       	R2 = R2 + R0;
    39e8:	72 bb       	[FP -0x24] = R2;
    39ea:	92 b9       	R2 = [FP -0x1c];
    39ec:	82 50       	R2 = R2 + R0;
    39ee:	45 51       	R5 = R5 + R0;
    39f0:	92 bb       	[FP -0x1c] = R2;
    39f2:	72 b9       	R2 = [FP -0x24];
    39f4:	02 0d       	CC = R2 <= 0x0;
    39f6:	06 18       	IF CC JUMP 0x3a02 <__dtoa_r+0x8a2>;
    39f8:	44 30       	R0 = P4;
    39fa:	51 b9       	R1 = [FP -0x2c];
    39fc:	00 e3 56 0e 	CALL 0x56a8 <___lshift>;
    3a00:	50 bb       	[FP -0x2c] = R0;
    3a02:	92 b9       	R2 = [FP -0x1c];
    3a04:	02 0d       	CC = R2 <= 0x0;
    3a06:	06 18       	IF CC JUMP 0x3a12 <__dtoa_r+0x8b2>;
    3a08:	44 30       	R0 = P4;
    3a0a:	a1 b9       	R1 = [FP -0x18];
    3a0c:	00 e3 4e 0e 	CALL 0x56a8 <___lshift>;
    3a10:	a0 bb       	[FP -0x18] = R0;
    3a12:	23 b9       	R3 = [FP -0x38];
    3a14:	03 0c       	CC = R3 == 0x0;
    3a16:	7a 11       	IF !CC JUMP 0x3d0a <__dtoa_r+0xbaa>;
    3a18:	63 b9       	R3 = [FP -0x28];
    3a1a:	03 0d       	CC = R3 <= 0x0;
    3a1c:	8e 19       	IF CC JUMP 0x3d38 <__dtoa_r+0xbd8>;
    3a1e:	33 b9       	R3 = [FP -0x34];
    3a20:	03 0c       	CC = R3 == 0x0;
    3a22:	78 1c       	IF CC JUMP 0x3b12 <__dtoa_r+0x9b2> (BP);
    3a24:	05 0d       	CC = R5 <= 0x0;
    3a26:	07 18       	IF CC JUMP 0x3a34 <__dtoa_r+0x8d4>;
    3a28:	0c 30       	R1 = R4;
    3a2a:	44 30       	R0 = P4;
    3a2c:	15 30       	R2 = R5;
    3a2e:	00 e3 3d 0e 	CALL 0x56a8 <___lshift>;
    3a32:	20 30       	R4 = R0;
    3a34:	45 0c       	CC = P5 == 0x0;
    3a36:	02 1c       	IF CC JUMP 0x3a3a <__dtoa_r+0x8da> (BP);
    3a38:	55 22       	JUMP.S 0x3ee2 <__dtoa_r+0xd82>;
    3a3a:	2c 30       	R5 = R4;
    3a3c:	dd b9       	P5 = [FP -0xc];
    3a3e:	60 b9       	R0 = [FP -0x28];
    3a40:	06 48       	CC = !BITTST (R6, 0x0);		/* bit  0 */
    3a42:	d3 b9       	R3 = [FP -0xc];
    3a44:	c3 50       	R3 = R3 + R0;
    3a46:	00 02       	R0 = CC;
    3a48:	0d 6c       	P5 += 0x1;		/* (  1) */
    3a4a:	63 bb       	[FP -0x28] = R3;
    3a4c:	82 ce 04 ce 	R7 = ROT R4 BY 0x0 || R6 = [FP -0x2c] || NOP;
    3a50:	56 b9 00 00 
    3a54:	b8 e6 d0 ff 	B[FP + -0x30] = R0;
    3a58:	4d 32       	P1 = P5;
    3a5a:	f9 6f       	P1 += -0x1;		/* ( -1) */
    3a5c:	a1 b9       	R1 = [FP -0x18];
    3a5e:	06 30       	R0 = R6;
    3a60:	79 bb       	[FP -0x24] = P1;
    3a62:	ff e3 d9 fa 	CALL 0x3014 <_quorem>;
    3a66:	b0 bb       	[FP -0x14] = R0;
    3a68:	18 32       	P3 = R0;
    3a6a:	0f 30       	R1 = R7;
    3a6c:	06 30       	R0 = R6;
    3a6e:	00 e3 77 0e 	CALL 0x575c <___mcmp>;
    3a72:	82 ce 00 c8 	R4 = ROT R0 BY 0x0 || R1 = [FP -0x18] || NOP;
    3a76:	a1 b9 00 00 
    3a7a:	44 30       	R0 = P4;
    3a7c:	15 30       	R2 = R5;
    3a7e:	00 e3 93 0e 	CALL 0x57a4 <___mdiff>;
    3a82:	10 32       	P2 = R0;
    3a84:	83 6d       	P3 += 0x30;		/* ( 48) */
    3a86:	d0 a0       	R0 = [P2 + 0xc];
    3a88:	00 0c       	CC = R0 == 0x0;
    3a8a:	0c 19       	IF CC JUMP 0x3ca2 <__dtoa_r+0xb42>;
    3a8c:	44 30       	R0 = P4;
    3a8e:	4a 30       	R1 = P2;
    3a90:	00 e3 ea 0b 	CALL 0x5264 <__Bfree>;
    3a94:	0a 60       	R2 = 0x1 (X);		/*		R2=0x1(  1) */
    3a96:	84 0c       	CC = R4 < 0x0;
    3a98:	c3 19       	IF CC JUMP 0x3e1e <__dtoa_r+0xcbe>;
    3a9a:	04 0c       	CC = R4 == 0x0;
    3a9c:	08 14       	IF !CC JUMP 0x3aac <__dtoa_r+0x94c> (BP);
    3a9e:	3b a3       	R3 = [FP + 0x30];
    3aa0:	03 0c       	CC = R3 == 0x0;
    3aa2:	05 14       	IF !CC JUMP 0x3aac <__dtoa_r+0x94c> (BP);
    3aa4:	b8 e4 d0 ff 	R0 = B[FP + -0x30] (Z);
    3aa8:	08 02       	CC = R0;
    3aaa:	ba 19       	IF CC JUMP 0x3e1e <__dtoa_r+0xcbe>;
    3aac:	02 0d       	CC = R2 <= 0x0;
    3aae:	02 1c       	IF CC JUMP 0x3ab2 <__dtoa_r+0x952> (BP);
    3ab0:	2f 22       	JUMP.S 0x3f0e <__dtoa_r+0xdae>;
    3ab2:	69 b9       	P1 = [FP -0x28];
    3ab4:	43 30       	R0 = P3;
    3ab6:	a8 e6 ff ff 	B[P5 + -0x1] = R0;
    3aba:	4d 08       	CC = P5 == P1;
    3abc:	02 14       	IF !CC JUMP 0x3ac0 <__dtoa_r+0x960> (BP);
    3abe:	33 22       	JUMP.S 0x3f24 <__dtoa_r+0xdc4>;
    3ac0:	04 60       	R4 = 0x0 (X);		/*		R4=0x0(  0) */
    3ac2:	82 ce 06 c2 	R1 = ROT R6 BY 0x0 || [SP + 0xc] = R4 || NOP;
    3ac6:	f4 b0 00 00 
    3aca:	52 60       	R2 = 0xa (X);		/*		R2=0xa( 10) */
    3acc:	44 30       	R0 = P4;
    3ace:	00 e3 df 0b 	CALL 0x528c <___multadd>;
    3ad2:	2f 08       	CC = R7 == R5;
    3ad4:	30 30       	R6 = R0;
    3ad6:	f4 b0       	[SP + 0xc] = R4;
    3ad8:	44 30       	R0 = P4;
    3ada:	0f 30       	R1 = R7;
    3adc:	52 60       	R2 = 0xa (X);		/*		R2=0xa( 10) */
    3ade:	07 19       	IF CC JUMP 0x3cec <__dtoa_r+0xb8c>;
    3ae0:	00 e3 d6 0b 	CALL 0x528c <___multadd>;
    3ae4:	38 30       	R7 = R0;
    3ae6:	f4 b0       	[SP + 0xc] = R4;
    3ae8:	0d 30       	R1 = R5;
    3aea:	44 30       	R0 = P4;
    3aec:	52 60       	R2 = 0xa (X);		/*		R2=0xa( 10) */
    3aee:	00 e3 cf 0b 	CALL 0x528c <___multadd>;
    3af2:	28 30       	R5 = R0;
    3af4:	0d 6c       	P5 += 0x1;		/* (  1) */
    3af6:	b1 2f       	JUMP.S 0x3a58 <__dtoa_r+0x8f8>;
    3af8:	e0 60       	R0 = 0x1c (X);		/*		R0=0x1c( 28) */
    3afa:	75 2f       	JUMP.S 0x39e4 <__dtoa_r+0x884>;
    3afc:	5d 30       	R3 = P5;
    3afe:	20 e1 ee fb 	R0 = -0x412 (X);		/*		R0=0xfffffbee(-1042) */
    3b02:	18 52       	R0 = R0 - R3;
    3b04:	0e 30       	R1 = R6;
    3b06:	81 40       	R1 <<= R0;
    3b08:	01 30       	R0 = R1;
    3b0a:	c2 2b       	JUMP.S 0x328e <__dtoa_r+0x12e>;
    3b0c:	02 68       	P2 = 0x0 (X);		/*		P2=0x0(  0) */
    3b0e:	2a bb       	[FP -0x38] = P2;
    3b10:	27 2c       	JUMP.S 0x335e <__dtoa_r+0x1fe>;
    3b12:	dd b9       	P5 = [FP -0xc];
    3b14:	c4 bb       	[FP -0x10] = R4;
    3b16:	00 cc 3f ce 	R7 = R7 -|- R7 || R5 = [FP -0x28] || NOP;
    3b1a:	65 b9 00 00 
    3b1e:	54 b9       	R4 = [FP -0x2c];
    3b20:	ab b9       	P3 = [FP -0x18];
    3b22:	75 30       	R6 = P5;
    3b24:	0a 20       	JUMP.S 0x3b38 <__dtoa_r+0x9d8>;
    3b26:	82 ce 04 c2 	R1 = ROT R4 BY 0x0 || [SP + 0xc] = R7 || NOP;
    3b2a:	f7 b0 00 00 
    3b2e:	44 30       	R0 = P4;
    3b30:	52 60       	R2 = 0xa (X);		/*		R2=0xa( 10) */
    3b32:	00 e3 ad 0b 	CALL 0x528c <___multadd>;
    3b36:	20 30       	R4 = R0;
    3b38:	4b 30       	R1 = P3;
    3b3a:	04 30       	R0 = R4;
    3b3c:	ff e3 6c fa 	CALL 0x3014 <_quorem>;
    3b40:	10 30       	R2 = R0;
    3b42:	82 65       	R2 += 0x30;		/* ( 48) */
    3b44:	2a 9a       	B[P5++] = R2;
    3b46:	4d 30       	R1 = P5;
    3b48:	31 52       	R0 = R1 - R6;
    3b4a:	05 09       	CC = R5 <= R0;
    3b4c:	ed 17       	IF !CC JUMP 0x3b26 <__dtoa_r+0x9c6> (BP);
    3b4e:	0f 60       	R7 = 0x1 (X);		/*		R7=0x1(  1) */
    3b50:	63 b9       	R3 = [FP -0x28];
    3b52:	07 cc 1f 0e 	R7 = MAX (R3, R7) || P1 = [FP -0xc] || NOP;
    3b56:	d9 b9 00 00 
    3b5a:	17 32       	P2 = R7;
    3b5c:	54 bb       	[FP -0x2c] = R4;
    3b5e:	82 ce 02 cc 	R6 = ROT R2 BY 0x0 || R4 = [FP -0x10] || NOP;
    3b62:	c4 b9 00 00 
    3b66:	07 60       	R7 = 0x0 (X);		/*		R7=0x0(  0) */
    3b68:	d1 5a       	P3 = P1 + P2;
    3b6a:	51 b9       	R1 = [FP -0x2c];
    3b6c:	0a 60       	R2 = 0x1 (X);		/*		R2=0x1(  1) */
    3b6e:	44 30       	R0 = P4;
    3b70:	00 e3 9c 0d 	CALL 0x56a8 <___lshift>;
    3b74:	a1 b9       	R1 = [FP -0x18];
    3b76:	50 bb       	[FP -0x2c] = R0;
    3b78:	00 e3 f2 0d 	CALL 0x575c <___mcmp>;
    3b7c:	00 0d       	CC = R0 <= 0x0;
    3b7e:	6c 19       	IF CC JUMP 0x3e56 <__dtoa_r+0xcf6>;
    3b80:	00 00       	NOP;
    3b82:	00 00       	NOP;
    3b84:	00 00       	NOP;
    3b86:	98 e5 ff ff 	R0 = B[P3 + -0x1] (X);
    3b8a:	4b 32       	P1 = P3;
    3b8c:	f1 6f       	P1 += -0x2;		/* ( -2) */
    3b8e:	d2 b9       	R2 = [FP -0xc];
    3b90:	03 20       	JUMP.S 0x3b96 <__dtoa_r+0xa36>;
    3b92:	5a 32       	P3 = P2;
    3b94:	c8 98       	R0 = B[P1--] (X);
    3b96:	01 43       	R1 = R0.B (X);
    3b98:	cb 61       	R3 = 0x39 (X);		/*		R3=0x39( 57) */
    3b9a:	53 32       	P2 = P3;
    3b9c:	19 08       	CC = R1 == R3;
    3b9e:	fa 6f       	P2 += -0x1;		/* ( -1) */
    3ba0:	9e 11       	IF !CC JUMP 0x3edc <__dtoa_r+0xd7c>;
    3ba2:	42 30       	R0 = P2;
    3ba4:	02 08       	CC = R2 == R0;
    3ba6:	f6 17       	IF !CC JUMP 0x3b92 <__dtoa_r+0xa32> (BP);
    3ba8:	d9 b9       	P1 = [FP -0xc];
    3baa:	80 b9       	R0 = [FP -0x20];
    3bac:	08 64       	R0 += 0x1;		/* (  1) */
    3bae:	80 bb       	[FP -0x20] = R0;
    3bb0:	88 61       	R0 = 0x31 (X);		/*		R0=0x31( 49) */
    3bb2:	08 9b       	B[P1] = R0;
    3bb4:	44 30       	R0 = P4;
    3bb6:	a1 b9       	R1 = [FP -0x18];
    3bb8:	00 e3 56 0b 	CALL 0x5264 <__Bfree>;
    3bbc:	04 0c       	CC = R4 == 0x0;
    3bbe:	02 14       	IF !CC JUMP 0x3bc2 <__dtoa_r+0xa62> (BP);
    3bc0:	4b 2d       	JUMP.S 0x3656 <__dtoa_r+0x4f6>;
    3bc2:	07 0c       	CC = R7 == 0x0;
    3bc4:	07 18       	IF CC JUMP 0x3bd2 <__dtoa_r+0xa72>;
    3bc6:	27 08       	CC = R7 == R4;
    3bc8:	05 18       	IF CC JUMP 0x3bd2 <__dtoa_r+0xa72>;
    3bca:	44 30       	R0 = P4;
    3bcc:	0f 30       	R1 = R7;
    3bce:	00 e3 4b 0b 	CALL 0x5264 <__Bfree>;
    3bd2:	44 30       	R0 = P4;
    3bd4:	0c 30       	R1 = R4;
    3bd6:	00 e3 47 0b 	CALL 0x5264 <__Bfree>;
    3bda:	3e 2d       	JUMP.S 0x3656 <__dtoa_r+0x4f6>;
    3bdc:	3b a3       	R3 = [FP + 0x30];
    3bde:	20 60       	R0 = 0x4 (X);		/*		R0=0x4(  4) */
    3be0:	03 08       	CC = R3 == R0;
    3be2:	08 19       	IF CC JUMP 0x3df2 <__dtoa_r+0xc92>;
    3be4:	29 60       	R1 = 0x5 (X);		/*		R1=0x5(  5) */
    3be6:	0b 08       	CC = R3 == R1;
    3be8:	02 18       	IF CC JUMP 0x3bec <__dtoa_r+0xa8c>;
    3bea:	7c 2d       	JUMP.S 0x36e2 <__dtoa_r+0x582>;
    3bec:	09 68       	P1 = 0x1 (X);		/*		P1=0x1(  1) */
    3bee:	39 bb       	[FP -0x34] = P1;
    3bf0:	79 af       	P1 = [FP + 0x34];
    3bf2:	8a b9       	P2 = [FP -0x20];
    3bf4:	51 5a       	P1 = P1 + P2;
    3bf6:	61 30       	R4 = P1;
    3bf8:	0c 64       	R4 += 0x1;		/* (  1) */
    3bfa:	04 0d       	CC = R4 <= 0x0;
    3bfc:	19 bb       	[FP -0x3c] = P1;
    3bfe:	64 bb       	[FP -0x28] = R4;
    3c00:	02 18       	IF CC JUMP 0x3c04 <__dtoa_r+0xaa4>;
    3c02:	e6 2b       	JUMP.S 0x33ce <__dtoa_r+0x26e>;
    3c04:	00 60       	R0 = 0x0 (X);		/*		R0=0x0(  0) */
    3c06:	20 e6 11 00 	[P4 + 0x44] = R0;
    3c0a:	01 60       	R1 = 0x0 (X);		/*		R1=0x0(  0) */
    3c0c:	f3 2b       	JUMP.S 0x33f2 <__dtoa_r+0x292>;
    3c0e:	06 0c       	CC = R6 == 0x0;
    3c10:	d7 16       	IF !CC JUMP 0x39be <__dtoa_r+0x85e> (BP);
    3c12:	f9 63       	R1 = -0x1 (X);		/*		R1=0xffffffff( -1) */
    3c14:	41 e1 0f 00 	R1.H = 0xf;		/* ( 15)	R1=0xfffff(1048575) */
    3c18:	4f 54       	R1 = R7 & R1;
    3c1a:	01 0c       	CC = R1 == 0x0;
    3c1c:	d1 16       	IF !CC JUMP 0x39be <__dtoa_r+0x85e> (BP);
    3c1e:	21 e1 ff 07 	R1 = 0x7ff (X);		/*		R1=0x7ff(2047) */
    3c22:	a1 4f       	R1 <<= 0x14;
    3c24:	0f 54       	R0 = R7 & R1;
    3c26:	00 0c       	CC = R0 == 0x0;
    3c28:	cb 1e       	IF CC JUMP 0x39be <__dtoa_r+0x85e> (BP);
    3c2a:	72 b9       	R2 = [FP -0x24];
    3c2c:	0a 64       	R2 += 0x1;		/* (  1) */
    3c2e:	72 bb       	[FP -0x24] = R2;
    3c30:	92 b9       	R2 = [FP -0x1c];
    3c32:	0a 64       	R2 += 0x1;		/* (  1) */
    3c34:	92 bb       	[FP -0x1c] = R2;
    3c36:	0d 68       	P5 = 0x1 (X);		/*		P5=0x1(  1) */
    3c38:	c4 2e       	JUMP.S 0x39c0 <__dtoa_r+0x860>;
    3c3a:	63 b9       	R3 = [FP -0x28];
    3c3c:	03 0d       	CC = R3 <= 0x0;
    3c3e:	02 18       	IF CC JUMP 0x3c42 <__dtoa_r+0xae2>;
    3c40:	7b 2d       	JUMP.S 0x3736 <__dtoa_r+0x5d6>;
    3c42:	03 0c       	CC = R3 == 0x0;
    3c44:	c9 10       	IF !CC JUMP 0x3dd6 <__dtoa_r+0xc76>;
    3c46:	20 e1 05 10 	R0 = 0x1005 (X);		/*		R0=0x1005(4101) */
    3c4a:	90 4f       	R0 <<= 0x12;
    3c4c:	f0 b0       	[SP + 0xc] = R0;
    3c4e:	00 cc 12 c4 	R2 = R2 -|- R2 || R0 = [FP -0x18] || NOP;
    3c52:	a0 b9 00 00 
    3c56:	0c 30       	R1 = R4;
    3c58:	00 e3 20 20 	CALL 0x7c98 <___muldf3>;
    3c5c:	f7 b0       	[SP + 0xc] = R7;
    3c5e:	16 30       	R2 = R6;
    3c60:	00 e3 40 22 	CALL 0x80e0 <___gedf2>;
    3c64:	80 0c       	CC = R0 < 0x0;
    3c66:	01 60       	R1 = 0x0 (X);		/*		R1=0x0(  0) */
    3c68:	a1 bb       	[FP -0x18] = R1;
    3c6a:	04 60       	R4 = 0x0 (X);		/*		R4=0x0(  0) */
    3c6c:	7c 1c       	IF CC JUMP 0x3d64 <__dtoa_r+0xc04> (BP);
    3c6e:	78 a3       	R0 = [FP + 0x34];
    3c70:	c0 43       	R0 =~ R0;
    3c72:	80 bb       	[FP -0x20] = R0;
    3c74:	db b9       	P3 = [FP -0xc];
    3c76:	44 30       	R0 = P4;
    3c78:	a1 b9       	R1 = [FP -0x18];
    3c7a:	00 e3 f5 0a 	CALL 0x5264 <__Bfree>;
    3c7e:	04 0c       	CC = R4 == 0x0;
    3c80:	a9 17       	IF !CC JUMP 0x3bd2 <__dtoa_r+0xa72> (BP);
    3c82:	ea 2c       	JUMP.S 0x3656 <__dtoa_r+0x4f6>;
    3c84:	44 30       	R0 = P4;
    3c86:	51 b9       	R1 = [FP -0x2c];
    3c88:	00 e3 b0 0c 	CALL 0x55e8 <___pow5mult>;
    3c8c:	50 bb       	[FP -0x2c] = R0;
    3c8e:	87 2e       	JUMP.S 0x399c <__dtoa_r+0x83c>;
    3c90:	03 b9       	R3 = [FP -0x40];
    3c92:	03 0c       	CC = R3 == 0x0;
    3c94:	c1 1d       	IF CC JUMP 0x4016 <__dtoa_r+0xeb6> (BP);
    3c96:	21 e1 33 04 	R1 = 0x433 (X);		/*		R1=0x433(1075) */
    3c9a:	08 50       	R0 = R0 + R1;
    3c9c:	ab b9       	P3 = [FP -0x18];
    3c9e:	75 b9       	R5 = [FP -0x24];
    3ca0:	21 2e       	JUMP.S 0x38e2 <__dtoa_r+0x782>;
    3ca2:	4a 30       	R1 = P2;
    3ca4:	06 30       	R0 = R6;
    3ca6:	8a ba       	[FP -0x60] = P2;
    3ca8:	00 e3 5a 0d 	CALL 0x575c <___mcmp>;
    3cac:	8a b8       	P2 = [FP -0x60];
    3cae:	10 30       	R2 = R0;
    3cb0:	44 30       	R0 = P4;
    3cb2:	82 ba       	[FP -0x60] = R2;
    3cb4:	4a 30       	R1 = P2;
    3cb6:	00 e3 d7 0a 	CALL 0x5264 <__Bfree>;
    3cba:	82 b8       	R2 = [FP -0x60];
    3cbc:	02 0c       	CC = R2 == 0x0;
    3cbe:	ec 12       	IF !CC JUMP 0x3a96 <__dtoa_r+0x936>;
    3cc0:	3b a3       	R3 = [FP + 0x30];
    3cc2:	03 0c       	CC = R3 == 0x0;
    3cc4:	e9 16       	IF !CC JUMP 0x3a96 <__dtoa_r+0x936> (BP);
    3cc6:	b8 e4 d0 ff 	R0 = B[FP + -0x30] (Z);
    3cca:	08 02       	CC = R0;
    3ccc:	e5 16       	IF !CC JUMP 0x3a96 <__dtoa_r+0x936> (BP);
    3cce:	56 bb       	[FP -0x2c] = R6;
    3cd0:	c9 61       	R1 = 0x39 (X);		/*		R1=0x39( 57) */
    3cd2:	73 30       	R6 = P3;
    3cd4:	0e 08       	CC = R6 == R1;
    3cd6:	bb b9       	P3 = [FP -0x14];
    3cd8:	da 19       	IF CC JUMP 0x408c <__dtoa_r+0xf2c>;
    3cda:	79 b9       	P1 = [FP -0x24];
    3cdc:	8b 6d       	P3 += 0x31;		/* ( 49) */
    3cde:	04 0d       	CC = R4 <= 0x0;
    3ce0:	5b 06       	IF !CC R3 = P3;
    3ce2:	1e 07       	IF CC R3 = R6;
    3ce4:	0b 9b       	B[P1] = R3;
    3ce6:	5d 32       	P3 = P5;
    3ce8:	25 30       	R4 = R5;
    3cea:	65 2f       	JUMP.S 0x3bb4 <__dtoa_r+0xa54>;
    3cec:	00 e3 d0 0a 	CALL 0x528c <___multadd>;
    3cf0:	38 30       	R7 = R0;
    3cf2:	28 30       	R5 = R0;
    3cf4:	0d 6c       	P5 += 0x1;		/* (  1) */
    3cf6:	b1 2e       	JUMP.S 0x3a58 <__dtoa_r+0x8f8>;
    3cf8:	a9 b9       	P1 = [FP -0x18];
    3cfa:	0a ad       	P2 = [P1 + 0x10];
    3cfc:	91 5e       	P2 = P1 + (P2 << 0x2);
    3cfe:	10 a1       	R0 = [P2 + 0x10];
    3d00:	00 e3 54 0b 	CALL 0x53a8 <___hi0bits>;
    3d04:	01 61       	R1 = 0x20 (X);		/*		R1=0x20( 32) */
    3d06:	41 52       	R1 = R1 - R0;
    3d08:	60 2e       	JUMP.S 0x39c8 <__dtoa_r+0x868>;
    3d0a:	50 b9       	R0 = [FP -0x2c];
    3d0c:	a1 b9       	R1 = [FP -0x18];
    3d0e:	00 e3 27 0d 	CALL 0x575c <___mcmp>;
    3d12:	80 0c       	CC = R0 < 0x0;
    3d14:	82 16       	IF !CC JUMP 0x3a18 <__dtoa_r+0x8b8> (BP);
    3d16:	80 b9       	R0 = [FP -0x20];
    3d18:	f8 67       	R0 += -0x1;		/* ( -1) */
    3d1a:	03 68       	P3 = 0x0 (X);		/*		P3=0x0(  0) */
    3d1c:	80 bb       	[FP -0x20] = R0;
    3d1e:	f3 bc       	[SP + 0xc] = P3;
    3d20:	44 30       	R0 = P4;
    3d22:	51 b9       	R1 = [FP -0x2c];
    3d24:	52 60       	R2 = 0xa (X);		/*		R2=0xa( 10) */
    3d26:	00 e3 b3 0a 	CALL 0x528c <___multadd>;
    3d2a:	33 b9       	R3 = [FP -0x34];
    3d2c:	03 0c       	CC = R3 == 0x0;
    3d2e:	50 bb       	[FP -0x2c] = R0;
    3d30:	d7 11       	IF !CC JUMP 0x40de <__dtoa_r+0xf7e>;
    3d32:	1a b9       	P2 = [FP -0x3c];
    3d34:	6a bb       	[FP -0x28] = P2;
    3d36:	71 2e       	JUMP.S 0x3a18 <__dtoa_r+0x8b8>;
    3d38:	3b a3       	R3 = [FP + 0x30];
    3d3a:	13 0d       	CC = R3 <= 0x2;
    3d3c:	71 1e       	IF CC JUMP 0x3a1e <__dtoa_r+0x8be> (BP);
    3d3e:	63 b9       	R3 = [FP -0x28];
    3d40:	03 0c       	CC = R3 == 0x0;
    3d42:	96 13       	IF !CC JUMP 0x3c6e <__dtoa_r+0xb0e>;
    3d44:	00 cc 00 c0 	R0 = R0 -|- R0 || R1 = [FP -0x18] || NOP;
    3d48:	a1 b9 00 00 
    3d4c:	f0 b0       	[SP + 0xc] = R0;
    3d4e:	2a 60       	R2 = 0x5 (X);		/*		R2=0x5(  5) */
    3d50:	44 30       	R0 = P4;
    3d52:	00 e3 9d 0a 	CALL 0x528c <___multadd>;
    3d56:	a0 bb       	[FP -0x18] = R0;
    3d58:	a1 b9       	R1 = [FP -0x18];
    3d5a:	50 b9       	R0 = [FP -0x2c];
    3d5c:	00 e3 00 0d 	CALL 0x575c <___mcmp>;
    3d60:	00 0d       	CC = R0 <= 0x0;
    3d62:	86 1b       	IF CC JUMP 0x3c6e <__dtoa_r+0xb0e>;
    3d64:	db b9       	P3 = [FP -0xc];
    3d66:	88 61       	R0 = 0x31 (X);		/*		R0=0x31( 49) */
    3d68:	18 9a       	B[P3++] = R0;
    3d6a:	80 b9       	R0 = [FP -0x20];
    3d6c:	08 64       	R0 += 0x1;		/* (  1) */
    3d6e:	80 bb       	[FP -0x20] = R0;
    3d70:	83 2f       	JUMP.S 0x3c76 <__dtoa_r+0xb16>;
    3d72:	1f 32       	P3 = R7;
    3d74:	bc b9       	P4 = [FP -0x14];
    3d76:	70 2c       	JUMP.S 0x3656 <__dtoa_r+0x4f6>;
    3d78:	07 30       	R0 = R7;
    3d7a:	00 e3 ff 21 	CALL 0x8178 <___floatsidf>;
    3d7e:	82 ce 05 c4 	R2 = ROT R5 BY 0x0 || [SP + 0xc] = R4 || NOP;
    3d82:	f4 b0 00 00 
    3d86:	00 e3 89 1f 	CALL 0x7c98 <___muldf3>;
    3d8a:	22 e1 07 10 	R2 = 0x1007 (X);		/*		R2=0x1007(4103) */
    3d8e:	92 4f       	R2 <<= 0x12;
    3d90:	f2 b0       	[SP + 0xc] = R2;
    3d92:	02 60       	R2 = 0x0 (X);		/*		R2=0x0(  0) */
    3d94:	00 e3 36 1f 	CALL 0x7c00 <___adddf3>;
    3d98:	30 30       	R6 = R0;
    3d9a:	98 63       	R0 = -0xd (X);		/*		R0=0xfffffff3(-13) */
    3d9c:	b0 4f       	R0 <<= 0x16;
    3d9e:	c8 51       	R7 = R0 + R1;
    3da0:	20 e1 05 10 	R0 = 0x1005 (X);		/*		R0=0x1005(4101) */
    3da4:	90 4f       	R0 <<= 0x12;
    3da6:	f0 b0       	[SP + 0xc] = R0;
    3da8:	02 60       	R2 = 0x0 (X);		/*		R2=0x0(  0) */
    3daa:	05 30       	R0 = R5;
    3dac:	0c 30       	R1 = R4;
    3dae:	00 e3 4d 1f 	CALL 0x7c48 <___subdf3>;
    3db2:	f7 b0       	[SP + 0xc] = R7;
    3db4:	16 30       	R2 = R6;
    3db6:	20 30       	R4 = R0;
    3db8:	29 30       	R5 = R1;
    3dba:	00 e3 6d 21 	CALL 0x8094 <___gtdf2>;
    3dbe:	00 0d       	CC = R0 <= 0x0;
    3dc0:	b7 14       	IF !CC JUMP 0x3f2e <__dtoa_r+0xdce> (BP);
    3dc2:	07 30       	R0 = R7;
    3dc4:	f8 4b       	BITTGL (R0, 0x1f);		/* bit 31 */
    3dc6:	f0 b0       	[SP + 0xc] = R0;
    3dc8:	16 30       	R2 = R6;
    3dca:	04 30       	R0 = R4;
    3dcc:	0d 30       	R1 = R5;
    3dce:	00 e3 af 21 	CALL 0x812c <___ltdf2>;
    3dd2:	80 0c       	CC = R0 < 0x0;
    3dd4:	50 14       	IF !CC JUMP 0x3e74 <__dtoa_r+0xd14> (BP);
    3dd6:	01 60       	R1 = 0x0 (X);		/*		R1=0x0(  0) */
    3dd8:	a1 bb       	[FP -0x18] = R1;
    3dda:	04 60       	R4 = 0x0 (X);		/*		R4=0x0(  0) */
    3ddc:	49 2f       	JUMP.S 0x3c6e <__dtoa_r+0xb0e>;
    3dde:	44 30       	R0 = P4;
    3de0:	51 b9       	R1 = [FP -0x2c];
    3de2:	a2 b9       	R2 = [FP -0x18];
    3de4:	00 e3 02 0c 	CALL 0x55e8 <___pow5mult>;
    3de8:	50 bb       	[FP -0x2c] = R0;
    3dea:	d9 2d       	JUMP.S 0x399c <__dtoa_r+0x83c>;
    3dec:	03 60       	R3 = 0x0 (X);		/*		R3=0x0(  0) */
    3dee:	33 bb       	[FP -0x34] = R3;
    3df0:	00 2f       	JUMP.S 0x3bf0 <__dtoa_r+0xa90>;
    3df2:	0b 60       	R3 = 0x1 (X);		/*		R3=0x1(  1) */
    3df4:	33 bb       	[FP -0x34] = R3;
    3df6:	e3 2a       	JUMP.S 0x33bc <__dtoa_r+0x25c>;
    3df8:	a2 b9       	R2 = [FP -0x18];
    3dfa:	43 b9       	R3 = [FP -0x30];
    3dfc:	50 52       	R1 = R0 - R2;
    3dfe:	cb 50       	R3 = R3 + R1;
    3e00:	43 bb       	[FP -0x30] = R3;
    3e02:	a0 bb       	[FP -0x18] = R0;
    3e04:	03 68       	P3 = 0x0 (X);		/*		P3=0x0(  0) */
    3e06:	68 2d       	JUMP.S 0x38d6 <__dtoa_r+0x776>;
    3e08:	e5 b8       	R5 = [FP -0x48];
    3e0a:	d6 b8       	R6 = [FP -0x4c];
    3e0c:	17 60       	R7 = 0x2 (X);		/*		R7=0x2(  2) */
    3e0e:	2b 2b       	JUMP.S 0x3464 <__dtoa_r+0x304>;
    3e10:	0b 60       	R3 = 0x1 (X);		/*		R3=0x1(  1) */
    3e12:	09 68       	P1 = 0x1 (X);		/*		P1=0x1(  1) */
    3e14:	0c 60       	R4 = 0x1 (X);		/*		R4=0x1(  1) */
    3e16:	13 bb       	[FP -0x3c] = R3;
    3e18:	63 bb       	[FP -0x28] = R3;
    3e1a:	79 bf       	[FP + 0x34] = P1;
    3e1c:	f4 2e       	JUMP.S 0x3c04 <__dtoa_r+0xaa4>;
    3e1e:	56 bb       	[FP -0x2c] = R6;
    3e20:	02 0d       	CC = R2 <= 0x0;
    3e22:	73 30       	R6 = P3;
    3e24:	82 ce 06 c8 	R4 = ROT R6 BY 0x0 || P3 = [FP -0x14] || NOP;
    3e28:	bb b9 00 00 
    3e2c:	11 18       	IF CC JUMP 0x3e4e <__dtoa_r+0xcee>;
    3e2e:	51 b9       	R1 = [FP -0x2c];
    3e30:	0a 60       	R2 = 0x1 (X);		/*		R2=0x1(  1) */
    3e32:	44 30       	R0 = P4;
    3e34:	00 e3 3a 0c 	CALL 0x56a8 <___lshift>;
    3e38:	a1 b9       	R1 = [FP -0x18];
    3e3a:	50 bb       	[FP -0x2c] = R0;
    3e3c:	00 e3 90 0c 	CALL 0x575c <___mcmp>;
    3e40:	00 0d       	CC = R0 <= 0x0;
    3e42:	49 19       	IF CC JUMP 0x40d4 <__dtoa_r+0xf74>;
    3e44:	c9 61       	R1 = 0x39 (X);		/*		R1=0x39( 57) */
    3e46:	73 30       	R6 = P3;
    3e48:	0c 08       	CC = R4 == R1;
    3e4a:	8e 65       	R6 += 0x31;		/* ( 49) */
    3e4c:	20 19       	IF CC JUMP 0x408c <__dtoa_r+0xf2c>;
    3e4e:	7b b9       	P3 = [FP -0x24];
    3e50:	25 30       	R4 = R5;
    3e52:	1e 9a       	B[P3++] = R6;
    3e54:	b0 2e       	JUMP.S 0x3bb4 <__dtoa_r+0xa54>;
    3e56:	00 0c       	CC = R0 == 0x0;
    3e58:	05 14       	IF !CC JUMP 0x3e62 <__dtoa_r+0xd02> (BP);
    3e5a:	06 48       	CC = !BITTST (R6, 0x0);		/* bit  0 */
    3e5c:	03 1c       	IF CC JUMP 0x3e62 <__dtoa_r+0xd02> (BP);
    3e5e:	94 2e       	JUMP.S 0x3b86 <__dtoa_r+0xa26>;
    3e60:	19 32       	P3 = R1;
    3e62:	82 61       	R2 = 0x30 (X);		/*		R2=0x30( 48) */
    3e64:	98 e5 ff ff 	R0 = B[P3 + -0x1] (X);
    3e68:	4b 30       	R1 = P3;
    3e6a:	10 08       	CC = R0 == R2;
    3e6c:	f9 67       	R1 += -0x1;		/* ( -1) */
    3e6e:	f9 1f       	IF CC JUMP 0x3e60 <__dtoa_r+0xd00> (BP);
    3e70:	a2 2e       	JUMP.S 0x3bb4 <__dtoa_r+0xa54>;
    3e72:	bc b8       	P4 = [FP -0x54];
    3e74:	e6 b8       	R6 = [FP -0x48];
    3e76:	d7 b8       	R7 = [FP -0x4c];
    3e78:	49 2c       	JUMP.S 0x370a <__dtoa_r+0x5aa>;
    3e7a:	80 b9       	R0 = [FP -0x20];
    3e7c:	86 43       	R6 = -R0;
    3e7e:	06 0c       	CC = R6 == 0x0;
    3e80:	d1 1c       	IF CC JUMP 0x4022 <__dtoa_r+0xec2> (BP);
    3e82:	78 60       	R0 = 0xf (X);		/*		R0=0xf( 15) */
    3e84:	06 54       	R0 = R6 & R0;
    3e86:	18 4f       	R0 <<= 0x3;
    3e88:	08 32       	P1 = R0;
    3e8a:	4a e1 00 00 	P2.H = 0x0;		/* (  0)	P2=0x0 */
    3e8e:	0a e1 d8 89 	P2.L = 0x89d8;		/* (-30248)	P2=0x89d8 <___mprec_tens> */
    3e92:	d1 b8       	R1 = [FP -0x4c];
    3e94:	26 4d       	R6 >>>= 0x4;
    3e96:	8a 5a       	P2 = P2 + P1;
    3e98:	50 a0       	R0 = [P2 + 0x4];
    3e9a:	f0 b0       	[SP + 0xc] = R0;
    3e9c:	12 91       	R2 = [P2];
    3e9e:	e0 b8       	R0 = [FP -0x48];
    3ea0:	00 e3 fc 1e 	CALL 0x7c98 <___muldf3>;
    3ea4:	06 0c       	CC = R6 == 0x0;
    3ea6:	28 30       	R5 = R0;
    3ea8:	21 30       	R4 = R1;
    3eaa:	24 19       	IF CC JUMP 0x40f2 <__dtoa_r+0xf92>;
    3eac:	4d e1 00 00 	P5.H = 0x0;		/* (  0)	P5=0x1 */
    3eb0:	0d e1 b0 89 	P5.L = 0x89b0;		/* (-30288)	P5=0x89b0 <___mprec_bigtens> */
    3eb4:	17 60       	R7 = 0x2 (X);		/*		R7=0x2(  2) */
    3eb6:	06 48       	CC = !BITTST (R6, 0x0);		/* bit  0 */
    3eb8:	0d 1c       	IF CC JUMP 0x3ed2 <__dtoa_r+0xd72> (BP);
    3eba:	6a a0       	R2 = [P5 + 0x4];
    3ebc:	f2 b0       	[SP + 0xc] = R2;
    3ebe:	82 ce 05 c0 	R0 = ROT R5 BY 0x0 || R2 = [P5] || NOP;
    3ec2:	2a 91 00 00 
    3ec6:	0c 30       	R1 = R4;
    3ec8:	00 e3 e8 1e 	CALL 0x7c98 <___muldf3>;
    3ecc:	0f 64       	R7 += 0x1;		/* (  1) */
    3ece:	28 30       	R5 = R0;
    3ed0:	21 30       	R4 = R1;
    3ed2:	0e 4d       	R6 >>>= 0x1;
    3ed4:	06 0c       	CC = R6 == 0x0;
    3ed6:	45 6c       	P5 += 0x8;		/* (  8) */
    3ed8:	ef 17       	IF !CC JUMP 0x3eb6 <__dtoa_r+0xd56> (BP);
    3eda:	e5 2a       	JUMP.S 0x34a4 <__dtoa_r+0x344>;
    3edc:	08 64       	R0 += 0x1;		/* (  1) */
    3ede:	10 9b       	B[P2] = R0;
    3ee0:	6a 2e       	JUMP.S 0x3bb4 <__dtoa_r+0xa54>;
    3ee2:	0c 32       	P1 = R4;
    3ee4:	44 30       	R0 = P4;
    3ee6:	49 a0       	R1 = [P1 + 0x4];
    3ee8:	00 e3 8a 09 	CALL 0x51fc <__Balloc>;
    3eec:	14 32       	P2 = R4;
    3eee:	0c 30       	R1 = R4;
    3ef0:	28 30       	R5 = R0;
    3ef2:	61 64       	R1 += 0xc;		/* ( 12) */
    3ef4:	60 64       	R0 += 0xc;		/* ( 12) */
    3ef6:	12 a1       	R2 = [P2 + 0x10];
    3ef8:	12 64       	R2 += 0x2;		/* (  2) */
    3efa:	12 4f       	R2 <<= 0x2;
    3efc:	00 e3 1e 09 	CALL 0x5138 <_memcpy>;
    3f00:	0d 30       	R1 = R5;
    3f02:	44 30       	R0 = P4;
    3f04:	0a 60       	R2 = 0x1 (X);		/*		R2=0x1(  1) */
    3f06:	00 e3 d1 0b 	CALL 0x56a8 <___lshift>;
    3f0a:	28 30       	R5 = R0;
    3f0c:	98 2d       	JUMP.S 0x3a3c <__dtoa_r+0x8dc>;
    3f0e:	56 bb       	[FP -0x2c] = R6;
    3f10:	ca 61       	R2 = 0x39 (X);		/*		R2=0x39( 57) */
    3f12:	73 30       	R6 = P3;
    3f14:	16 08       	CC = R6 == R2;
    3f16:	bb 18       	IF CC JUMP 0x408c <__dtoa_r+0xf2c>;
    3f18:	5b 30       	R3 = P3;
    3f1a:	7b b9       	P3 = [FP -0x24];
    3f1c:	0b 64       	R3 += 0x1;		/* (  1) */
    3f1e:	25 30       	R4 = R5;
    3f20:	1b 9a       	B[P3++] = R3;
    3f22:	49 2e       	JUMP.S 0x3bb4 <__dtoa_r+0xa54>;
    3f24:	56 bb       	[FP -0x2c] = R6;
    3f26:	25 30       	R4 = R5;
    3f28:	73 30       	R6 = P3;
    3f2a:	5d 32       	P3 = P5;
    3f2c:	1f 2e       	JUMP.S 0x3b6a <__dtoa_r+0xa0a>;
    3f2e:	01 60       	R1 = 0x0 (X);		/*		R1=0x0(  0) */
    3f30:	a1 bb       	[FP -0x18] = R1;
    3f32:	04 60       	R4 = 0x0 (X);		/*		R4=0x0(  0) */
    3f34:	18 2f       	JUMP.S 0x3d64 <__dtoa_r+0xc04>;
    3f36:	0b 32       	P1 = R3;
    3f38:	4a e1 00 00 	P2.H = 0x0;		/* (  0)	P2=0x89d8 <___mprec_tens> */
    3f3c:	0a e1 d8 89 	P2.L = 0x89d8;		/* (-30248)	P2=0x89d8 <___mprec_tens> */
    3f40:	82 ce 06 c4 	R2 = ROT R6 BY 0x0 || [SP + 0xc] = R7 || NOP;
    3f44:	f7 b0 00 00 
    3f48:	83 ba       	[FP -0x60] = R3;
    3f4a:	f9 6f       	P1 += -0x1;		/* ( -1) */
    3f4c:	41 30       	R0 = P1;
    3f4e:	18 4f       	R0 <<= 0x3;
    3f50:	f9 ba       	[FP -0x44] = P1;
    3f52:	08 32       	P1 = R0;
    3f54:	8a 5a       	P2 = P2 + P1;
    3f56:	10 91       	R0 = [P2];
    3f58:	51 a0       	R1 = [P2 + 0x4];
    3f5a:	00 e3 9f 1e 	CALL 0x7c98 <___muldf3>;
    3f5e:	c0 ba       	[FP -0x50] = R0;
    3f60:	b1 ba       	[FP -0x54] = R1;
    3f62:	05 30       	R0 = R5;
    3f64:	0c 30       	R1 = R4;
    3f66:	00 e3 53 21 	CALL 0x820c <___fixdfsi>;
    3f6a:	28 32       	P5 = R0;
    3f6c:	00 e3 06 21 	CALL 0x8178 <___floatsidf>;
    3f70:	f1 b0       	[SP + 0xc] = R1;
    3f72:	10 30       	R2 = R0;
    3f74:	0c 30       	R1 = R4;
    3f76:	05 30       	R0 = R5;
    3f78:	00 e3 68 1e 	CALL 0x7c48 <___subdf3>;
    3f7c:	db b9       	P3 = [FP -0xc];
    3f7e:	38 30       	R7 = R0;
    3f80:	45 30       	R0 = P5;
    3f82:	80 65       	R0 += 0x30;		/* ( 48) */
    3f84:	18 9a       	B[P3++] = R0;
    3f86:	83 b8       	R3 = [FP -0x60];
    3f88:	0b 0c       	CC = R3 == 0x1;
    3f8a:	31 30       	R6 = R1;
    3f8c:	28 18       	IF CC JUMP 0x3fdc <__dtoa_r+0xe7c>;
    3f8e:	d0 b9       	R0 = [FP -0xc];
    3f90:	24 e1 09 10 	R4 = 0x1009 (X);		/*		R4=0x1009(4105) */
    3f94:	58 51       	R5 = R0 + R3;
    3f96:	6b 32       	P5 = P3;
    3f98:	94 4f       	R4 <<= 0x12;
    3f9a:	9c ba       	[FP -0x5c] = P4;
    3f9c:	82 ce 07 c0 	R0 = ROT R7 BY 0x0 || [SP + 0xc] = R4 || NOP;
    3fa0:	f4 b0 00 00 
    3fa4:	02 60       	R2 = 0x0 (X);		/*		R2=0x0(  0) */
    3fa6:	0e 30       	R1 = R6;
    3fa8:	00 e3 78 1e 	CALL 0x7c98 <___muldf3>;
    3fac:	39 30       	R7 = R1;
    3fae:	30 30       	R6 = R0;
    3fb0:	00 e3 2e 21 	CALL 0x820c <___fixdfsi>;
    3fb4:	20 32       	P4 = R0;
    3fb6:	00 e3 e1 20 	CALL 0x8178 <___floatsidf>;
    3fba:	f1 b0       	[SP + 0xc] = R1;
    3fbc:	10 30       	R2 = R0;
    3fbe:	0f 30       	R1 = R7;
    3fc0:	06 30       	R0 = R6;
    3fc2:	00 e3 43 1e 	CALL 0x7c48 <___subdf3>;
    3fc6:	5c 30       	R3 = P4;
    3fc8:	83 65       	R3 += 0x30;		/* ( 48) */
    3fca:	2b 9a       	B[P5++] = R3;
    3fcc:	31 30       	R6 = R1;
    3fce:	4d 30       	R1 = P5;
    3fd0:	29 08       	CC = R1 == R5;
    3fd2:	38 30       	R7 = R0;
    3fd4:	e4 17       	IF !CC JUMP 0x3f9c <__dtoa_r+0xe3c> (BP);
    3fd6:	f9 b8       	P1 = [FP -0x44];
    3fd8:	9c b8       	P4 = [FP -0x5c];
    3fda:	cb 5a       	P3 = P3 + P1;
    3fdc:	20 e1 ff 01 	R0 = 0x1ff (X);		/*		R0=0x1ff(511) */
    3fe0:	a8 4f       	R0 <<= 0x15;
    3fe2:	f0 b0       	[SP + 0xc] = R0;
    3fe4:	00 cc 12 c4 	R2 = R2 -|- R2 || R0 = [FP -0x50] || NOP;
    3fe8:	c0 b8 00 00 
    3fec:	b1 b8       	R1 = [FP -0x54];
    3fee:	00 e3 09 1e 	CALL 0x7c00 <___adddf3>;
    3ff2:	f6 b0       	[SP + 0xc] = R6;
    3ff4:	17 30       	R2 = R7;
    3ff6:	00 e3 9b 20 	CALL 0x812c <___ltdf2>;
    3ffa:	80 0c       	CC = R0 < 0x0;
    3ffc:	4d 14       	IF !CC JUMP 0x4096 <__dtoa_r+0xf36> (BP);
    3ffe:	aa b8       	P2 = [FP -0x58];
    4000:	9c e5 ff ff 	R4 = B[P3 + -0x1] (X);
    4004:	8a bb       	[FP -0x20] = P2;
    4006:	3f 2c       	JUMP.S 0x3884 <__dtoa_r+0x724>;
    4008:	72 b9       	R2 = [FP -0x24];
    400a:	5a 53       	R5 = R2 - R3;
    400c:	00 60       	R0 = 0x0 (X);		/*		R0=0x0(  0) */
    400e:	6a 2c       	JUMP.S 0x38e2 <__dtoa_r+0x782>;
    4010:	0c 64       	R4 += 0x1;		/* (  1) */
    4012:	14 9b       	B[P2] = R4;
    4014:	21 2b       	JUMP.S 0x3656 <__dtoa_r+0x4f6>;
    4016:	e1 b9       	R1 = [FP -0x8];
    4018:	b0 61       	R0 = 0x36 (X);		/*		R0=0x36( 54) */
    401a:	08 52       	R0 = R0 - R1;
    401c:	ab b9       	P3 = [FP -0x18];
    401e:	75 b9       	R5 = [FP -0x24];
    4020:	61 2c       	JUMP.S 0x38e2 <__dtoa_r+0x782>;
    4022:	e5 b8       	R5 = [FP -0x48];
    4024:	d4 b8       	R4 = [FP -0x4c];
    4026:	17 60       	R7 = 0x2 (X);		/*		R7=0x2(  2) */
    4028:	3e 2a       	JUMP.S 0x34a4 <__dtoa_r+0x344>;
    402a:	63 b9       	R3 = [FP -0x28];
    402c:	03 0c       	CC = R3 == 0x0;
    402e:	a5 1a       	IF CC JUMP 0x3d78 <__dtoa_r+0xc18>;
    4030:	13 b9       	R3 = [FP -0x3c];
    4032:	03 0d       	CC = R3 <= 0x0;
    4034:	20 1b       	IF CC JUMP 0x3e74 <__dtoa_r+0xd14>;
    4036:	89 b9       	P1 = [FP -0x20];
    4038:	20 e1 09 10 	R0 = 0x1009 (X);		/*		R0=0x1009(4105) */
    403c:	90 4f       	R0 <<= 0x12;
    403e:	00 cc 12 c4 	R2 = R2 -|- R2 || [SP + 0xc] = R0 || NOP;
    4042:	f0 b0 00 00 
    4046:	f9 6f       	P1 += -0x1;		/* ( -1) */
    4048:	05 30       	R0 = R5;
    404a:	0c 30       	R1 = R4;
    404c:	a9 ba       	[FP -0x58] = P1;
    404e:	00 e3 25 1e 	CALL 0x7c98 <___muldf3>;
    4052:	28 30       	R5 = R0;
    4054:	07 30       	R0 = R7;
    4056:	08 64       	R0 += 0x1;		/* (  1) */
    4058:	21 30       	R4 = R1;
    405a:	00 e3 8f 20 	CALL 0x8178 <___floatsidf>;
    405e:	82 ce 00 c4 	R2 = ROT R0 BY 0x0 || [SP + 0xc] = R1 || NOP;
    4062:	f1 b0 00 00 
    4066:	05 30       	R0 = R5;
    4068:	0c 30       	R1 = R4;
    406a:	00 e3 17 1e 	CALL 0x7c98 <___muldf3>;
    406e:	22 e1 07 10 	R2 = 0x1007 (X);		/*		R2=0x1007(4103) */
    4072:	92 4f       	R2 <<= 0x12;
    4074:	f2 b0       	[SP + 0xc] = R2;
    4076:	02 60       	R2 = 0x0 (X);		/*		R2=0x0(  0) */
    4078:	00 e3 c4 1d 	CALL 0x7c00 <___adddf3>;
    407c:	82 ce 00 cc 	R6 = ROT R0 BY 0x0 || R3 = [FP -0x3c] || NOP;
    4080:	13 b9 00 00 
    4084:	98 63       	R0 = -0xd (X);		/*		R0=0xfffffff3(-13) */
    4086:	b0 4f       	R0 <<= 0x16;
    4088:	c8 51       	R7 = R0 + R1;
    408a:	39 2a       	JUMP.S 0x34fc <__dtoa_r+0x39c>;
    408c:	7b b9       	P3 = [FP -0x24];
    408e:	c8 61       	R0 = 0x39 (X);		/*		R0=0x39( 57) */
    4090:	25 30       	R4 = R5;
    4092:	18 9a       	B[P3++] = R0;
    4094:	7b 2d       	JUMP.S 0x3b8a <__dtoa_r+0xa2a>;
    4096:	b3 b8       	R3 = [FP -0x54];
    4098:	21 e1 ff 01 	R1 = 0x1ff (X);		/*		R1=0x1ff(511) */
    409c:	f3 b0       	[SP + 0xc] = R3;
    409e:	c2 b8       	R2 = [FP -0x50];
    40a0:	00 60       	R0 = 0x0 (X);		/*		R0=0x0(  0) */
    40a2:	a9 4f       	R1 <<= 0x15;
    40a4:	00 e3 d2 1d 	CALL 0x7c48 <___subdf3>;
    40a8:	f6 b0       	[SP + 0xc] = R6;
    40aa:	17 30       	R2 = R7;
    40ac:	00 e3 f4 1f 	CALL 0x8094 <___gtdf2>;
    40b0:	00 0d       	CC = R0 <= 0x0;
    40b2:	03 14       	IF !CC JUMP 0x40b8 <__dtoa_r+0xf58> (BP);
    40b4:	e0 2e       	JUMP.S 0x3e74 <__dtoa_r+0xd14>;
    40b6:	19 32       	P3 = R1;
    40b8:	82 61       	R2 = 0x30 (X);		/*		R2=0x30( 48) */
    40ba:	98 e5 ff ff 	R0 = B[P3 + -0x1] (X);
    40be:	4b 30       	R1 = P3;
    40c0:	10 08       	CC = R0 == R2;
    40c2:	f9 67       	R1 += -0x1;		/* ( -1) */
    40c4:	f9 1f       	IF CC JUMP 0x40b6 <__dtoa_r+0xf56> (BP);
    40c6:	a3 b8       	R3 = [FP -0x58];
    40c8:	83 bb       	[FP -0x20] = R3;
    40ca:	c6 2a       	JUMP.S 0x3656 <__dtoa_r+0x4f6>;
    40cc:	a3 b8       	R3 = [FP -0x58];
    40ce:	bc b8       	P4 = [FP -0x54];
    40d0:	83 bb       	[FP -0x20] = R3;
    40d2:	d9 2b       	JUMP.S 0x3884 <__dtoa_r+0x724>;
    40d4:	00 0c       	CC = R0 == 0x0;
    40d6:	bc 16       	IF !CC JUMP 0x3e4e <__dtoa_r+0xcee> (BP);
    40d8:	06 48       	CC = !BITTST (R6, 0x0);		/* bit  0 */
    40da:	ba 1e       	IF CC JUMP 0x3e4e <__dtoa_r+0xcee> (BP);
    40dc:	b4 2e       	JUMP.S 0x3e44 <__dtoa_r+0xce4>;
    40de:	0c 30       	R1 = R4;
    40e0:	f3 bc       	[SP + 0xc] = P3;
    40e2:	44 30       	R0 = P4;
    40e4:	52 60       	R2 = 0xa (X);		/*		R2=0xa( 10) */
    40e6:	00 e3 d3 08 	CALL 0x528c <___multadd>;
    40ea:	19 b9       	P1 = [FP -0x3c];
    40ec:	20 30       	R4 = R0;
    40ee:	69 bb       	[FP -0x28] = P1;
    40f0:	94 2c       	JUMP.S 0x3a18 <__dtoa_r+0x8b8>;
    40f2:	17 60       	R7 = 0x2 (X);		/*		R7=0x2(  2) */
    40f4:	d8 29       	JUMP.S 0x34a4 <__dtoa_r+0x344>;
    40f6:	aa b8       	P2 = [FP -0x58];
    40f8:	8a bb       	[FP -0x20] = P2;
    40fa:	c5 2b       	JUMP.S 0x3884 <__dtoa_r+0x724>;
    40fc:	23 60       	R3 = 0x4 (X);		/*		R3=0x4(  4) */
    40fe:	19 08       	CC = R1 == R3;
    4100:	02 10       	IF !CC JUMP 0x4104 <__dtoa_r+0xfa4>;
    4102:	78 2c       	JUMP.S 0x39f2 <__dtoa_r+0x892>;
    4104:	e1 61       	R1 = 0x3c (X);		/*		R1=0x3c( 60) */
    4106:	01 52       	R0 = R1 - R0;
    4108:	6e 2c       	JUMP.S 0x39e4 <__dtoa_r+0x884>;
    410a:	01 60       	R1 = 0x0 (X);		/*		R1=0x0(  0) */
    410c:	73 29       	JUMP.S 0x33f2 <__dtoa_r+0x292>;
    410e:	0d 60       	R5 = 0x1 (X);		/*		R5=0x1(  1) */
    4110:	4b 29       	JUMP.S 0x33a6 <__dtoa_r+0x246>;
	...

00004114 <___sflush_r>:
    4114:	f4 05       	[--SP] = (R7:6, P5:4);
    4116:	29 32       	P5 = R1;
    4118:	20 32       	P4 = R0;
    411a:	40 60       	R0 = 0x8 (X);		/*		R0=0x8(  8) */
    411c:	00 e8 04 00 	LINK 0x10;		/* (16) */
    4120:	a9 a9       	R1 = W[P5 + 0xc] (X);
    4122:	01 54       	R0 = R1 & R0;
    4124:	80 42       	R0 = R0.L (X);
    4126:	00 0c       	CC = R0 == 0x0;
    4128:	4b 14       	IF !CC JUMP 0x41be <___sflush_r+0xaa> (BP);
    412a:	82 ce 01 c0 	R0 = ROT R1 BY 0x0 || R2 = [P5 + 0x4] || NOP;
    412e:	6a a0 00 00 
    4132:	58 4a       	BITSET (R0, 0xb);		/* bit 11 */
    4134:	02 0d       	CC = R2 <= 0x0;
    4136:	a8 b5       	W[P5 + 0xc] = R0;
    4138:	79 18       	IF CC JUMP 0x422a <___sflush_r+0x116>;
    413a:	00 00       	NOP;
    413c:	00 00       	NOP;
    413e:	00 00       	NOP;
    4140:	aa ae       	P2 = [P5 + 0x28];
    4142:	42 0c       	CC = P2 == 0x0;
    4144:	6c 18       	IF CC JUMP 0x421c <___sflush_r+0x108>;
    4146:	00 00       	NOP;
    4148:	61 48       	CC = !BITTST (R1, 0xc);		/* bit 12 */
    414a:	02 60       	R2 = 0x0 (X);		/*		R2=0x0(  0) */
    414c:	27 91       	R7 = [P4];
    414e:	22 93       	[P4] = R2;
    4150:	72 18       	IF CC JUMP 0x4234 <___sflush_r+0x120>;
    4152:	00 00       	NOP;
    4154:	00 00       	NOP;
    4156:	00 00       	NOP;
    4158:	2a e4 14 00 	R2 = [P5 + 0x50];
    415c:	21 60       	R1 = 0x4 (X);		/*		R1=0x4(  4) */
    415e:	08 54       	R0 = R0 & R1;
    4160:	80 42       	R0 = R0.L (X);
    4162:	00 0c       	CC = R0 == 0x0;
    4164:	08 1c       	IF CC JUMP 0x4174 <___sflush_r+0x60> (BP);
    4166:	29 a3       	R1 = [P5 + 0x30];
    4168:	68 a0       	R0 = [P5 + 0x4];
    416a:	01 0c       	CC = R1 == 0x0;
    416c:	82 52       	R2 = R2 - R0;
    416e:	03 18       	IF CC JUMP 0x4174 <___sflush_r+0x60>;
    4170:	e8 a3       	R0 = [P5 + 0x3c];
    4172:	82 52       	R2 = R2 - R0;
    4174:	06 60       	R6 = 0x0 (X);		/*		R6=0x0(  0) */
    4176:	e9 a1       	R1 = [P5 + 0x1c];
    4178:	f6 b0       	[SP + 0xc] = R6;
    417a:	44 30       	R0 = P4;
    417c:	62 00       	CALL (P2);
    417e:	38 0c       	CC = R0 == -0x1;
    4180:	6b 18       	IF CC JUMP 0x4256 <___sflush_r+0x142>;
    4182:	00 00       	NOP;
    4184:	00 00       	NOP;
    4186:	6e b0       	[P5 + 0x4] = R6;
    4188:	a9 a9       	R1 = W[P5 + 0xc] (X);
    418a:	11 30       	R2 = R1;
    418c:	5a 4c       	BITCLR (R2, 0xb);		/* bit 11 */
    418e:	aa b5       	W[P5 + 0xc] = R2;
    4190:	61 48       	CC = !BITTST (R1, 0xc);		/* bit 12 */
    4192:	2a a1       	R2 = [P5 + 0x10];
    4194:	2a 93       	[P5] = R2;
    4196:	74 14       	IF !CC JUMP 0x427e <___sflush_r+0x16a> (BP);
    4198:	29 a3       	R1 = [P5 + 0x30];
    419a:	01 0c       	CC = R1 == 0x0;
    419c:	27 93       	[P4] = R7;
    419e:	3f 18       	IF CC JUMP 0x421c <___sflush_r+0x108>;
    41a0:	55 30       	R2 = P5;
    41a2:	20 e1 40 00 	R0 = 0x40 (X);		/*		R0=0x40 <_.tmp>( 64) */
    41a6:	02 50       	R0 = R2 + R0;
    41a8:	01 08       	CC = R1 == R0;
    41aa:	04 18       	IF CC JUMP 0x41b2 <___sflush_r+0x9e>;
    41ac:	44 30       	R0 = P4;
    41ae:	00 e3 3f 02 	CALL 0x462c <__free_r>;
    41b2:	00 60       	R0 = 0x0 (X);		/*		R0=0x0(  0) */
    41b4:	01 e8 00 00 	UNLINK;
    41b8:	28 b3       	[P5 + 0x30] = R0;
    41ba:	b4 05       	(R7:6, P5:4) = [SP++];
    41bc:	10 00       	RTS;
    41be:	00 00       	NOP;
    41c0:	2e a1       	R6 = [P5 + 0x10];
    41c2:	06 0c       	CC = R6 == 0x0;
    41c4:	2c 18       	IF CC JUMP 0x421c <___sflush_r+0x108>;
    41c6:	28 91       	R0 = [P5];
    41c8:	f0 53       	R7 = R0 - R6;
    41ca:	18 60       	R0 = 0x3 (X);		/*		R0=0x3(  3) */
    41cc:	41 54       	R1 = R1 & R0;
    41ce:	89 42       	R1 = R1.L (X);
    41d0:	01 0c       	CC = R1 == 0x0;
    41d2:	2e 93       	[P5] = R6;
    41d4:	29 14       	IF !CC JUMP 0x4226 <___sflush_r+0x112> (BP);
    41d6:	68 a1       	R0 = [P5 + 0x14];
    41d8:	07 0d       	CC = R7 <= 0x0;
    41da:	a8 b0       	[P5 + 0x8] = R0;
    41dc:	06 14       	IF !CC JUMP 0x41e8 <___sflush_r+0xd4> (BP);
    41de:	1f 20       	JUMP.S 0x421c <___sflush_r+0x108>;
    41e0:	c7 53       	R7 = R7 - R0;
    41e2:	07 0d       	CC = R7 <= 0x0;
    41e4:	86 51       	R6 = R6 + R0;
    41e6:	1b 18       	IF CC JUMP 0x421c <___sflush_r+0x108>;
    41e8:	f7 b0       	[SP + 0xc] = R7;
    41ea:	44 30       	R0 = P4;
    41ec:	16 30       	R2 = R6;
    41ee:	6a ae       	P2 = [P5 + 0x24];
    41f0:	e9 a1       	R1 = [P5 + 0x1c];
    41f2:	62 00       	CALL (P2);
    41f4:	00 0d       	CC = R0 <= 0x0;
    41f6:	f5 17       	IF !CC JUMP 0x41e0 <___sflush_r+0xcc> (BP);
    41f8:	01 e8 00 00 	UNLINK;
    41fc:	a8 a9       	R0 = W[P5 + 0xc] (X);
    41fe:	30 4a       	BITSET (R0, 0x6);		/* bit  6 */
    4200:	a8 b5       	W[P5 + 0xc] = R0;
    4202:	f8 63       	R0 = -0x1 (X);		/*		R0=0xffffffff( -1) */
    4204:	b4 05       	(R7:6, P5:4) = [SP++];
    4206:	10 00       	RTS;
    4208:	20 91       	R0 = [P4];
    420a:	00 0c       	CC = R0 == 0x0;
    420c:	21 1c       	IF CC JUMP 0x424e <___sflush_r+0x13a> (BP);
    420e:	e9 60       	R1 = 0x1d (X);		/*		R1=0x1d( 29) */
    4210:	08 08       	CC = R0 == R1;
    4212:	04 18       	IF CC JUMP 0x421a <___sflush_r+0x106>;
    4214:	b2 60       	R2 = 0x16 (X);		/*		R2=0x16( 22) */
    4216:	10 08       	CC = R0 == R2;
    4218:	f0 17       	IF !CC JUMP 0x41f8 <___sflush_r+0xe4> (BP);
    421a:	27 93       	[P4] = R7;
    421c:	00 60       	R0 = 0x0 (X);		/*		R0=0x0(  0) */
    421e:	01 e8 00 00 	UNLINK;
    4222:	b4 05       	(R7:6, P5:4) = [SP++];
    4224:	10 00       	RTS;
    4226:	00 60       	R0 = 0x0 (X);		/*		R0=0x0(  0) */
    4228:	d8 2f       	JUMP.S 0x41d8 <___sflush_r+0xc4>;
    422a:	ea a3       	R2 = [P5 + 0x3c];
    422c:	02 0d       	CC = R2 <= 0x0;
    422e:	88 17       	IF !CC JUMP 0x413e <___sflush_r+0x2a> (BP);
    4230:	00 60       	R0 = 0x0 (X);		/*		R0=0x0(  0) */
    4232:	f6 2f       	JUMP.S 0x421e <___sflush_r+0x10a>;
    4234:	08 60       	R0 = 0x1 (X);		/*		R0=0x1(  1) */
    4236:	f0 b0       	[SP + 0xc] = R0;
    4238:	00 cc 12 c4 	R2 = R2 -|- R2 || R1 = [P5 + 0x1c] || NOP;
    423c:	e9 a1 00 00 
    4240:	44 30       	R0 = P4;
    4242:	62 00       	CALL (P2);
    4244:	38 0c       	CC = R0 == -0x1;
    4246:	10 30       	R2 = R0;
    4248:	e0 1b       	IF CC JUMP 0x4208 <___sflush_r+0xf4>;
    424a:	00 00       	NOP;
    424c:	00 00       	NOP;
    424e:	00 00       	NOP;
    4250:	a8 a9       	R0 = W[P5 + 0xc] (X);
    4252:	aa ae       	P2 = [P5 + 0x28];
    4254:	84 2f       	JUMP.S 0x415c <___sflush_r+0x48>;
    4256:	21 91       	R1 = [P4];
    4258:	01 0c       	CC = R1 == 0x0;
    425a:	96 1f       	IF CC JUMP 0x4186 <___sflush_r+0x72> (BP);
    425c:	ea 60       	R2 = 0x1d (X);		/*		R2=0x1d( 29) */
    425e:	11 08       	CC = R1 == R2;
    4260:	07 18       	IF CC JUMP 0x426e <___sflush_r+0x15a>;
    4262:	b0 60       	R0 = 0x16 (X);		/*		R0=0x16( 22) */
    4264:	01 08       	CC = R1 == R0;
    4266:	c9 13       	IF !CC JUMP 0x41f8 <___sflush_r+0xe4>;
    4268:	00 00       	NOP;
    426a:	00 00       	NOP;
    426c:	00 00       	NOP;
    426e:	a8 a9       	R0 = W[P5 + 0xc] (X);
    4270:	58 4c       	BITCLR (R0, 0xb);		/* bit 11 */
    4272:	a8 b5       	W[P5 + 0xc] = R0;
    4274:	00 60       	R0 = 0x0 (X);		/*		R0=0x0(  0) */
    4276:	68 b0       	[P5 + 0x4] = R0;
    4278:	28 a1       	R0 = [P5 + 0x10];
    427a:	28 93       	[P5] = R0;
    427c:	8e 2f       	JUMP.S 0x4198 <___sflush_r+0x84>;
    427e:	28 e6 14 00 	[P5 + 0x50] = R0;
    4282:	8b 2f       	JUMP.S 0x4198 <___sflush_r+0x84>;

00004284 <__fflush_r>:
    4284:	c4 04       	[--SP] = (P5:4);
    4286:	28 32       	P5 = R0;
    4288:	00 e8 03 00 	LINK 0xc;		/* (12) */
    428c:	21 32       	P4 = R1;
    428e:	45 0c       	CC = P5 == 0x0;
    4290:	07 18       	IF CC JUMP 0x429e <__fflush_r+0x1a>;
    4292:	a8 a3       	R0 = [P5 + 0x38];
    4294:	00 0c       	CC = R0 == 0x0;
    4296:	13 18       	IF CC JUMP 0x42bc <__fflush_r+0x38>;
    4298:	00 00       	NOP;
    429a:	00 00       	NOP;
    429c:	00 00       	NOP;
    429e:	a0 a9       	R0 = W[P4 + 0xc] (X);
    42a0:	00 0c       	CC = R0 == 0x0;
    42a2:	06 10       	IF !CC JUMP 0x42ae <__fflush_r+0x2a>;
    42a4:	01 e8 00 00 	UNLINK;
    42a8:	00 60       	R0 = 0x0 (X);		/*		R0=0x0(  0) */
    42aa:	84 04       	(P5:4) = [SP++];
    42ac:	10 00       	RTS;
    42ae:	01 e8 00 00 	UNLINK;
    42b2:	45 30       	R0 = P5;
    42b4:	4c 30       	R1 = P4;
    42b6:	84 04       	(P5:4) = [SP++];
    42b8:	ff e2 2e ff 	JUMP.L 0x4114 <___sflush_r>;
    42bc:	45 30       	R0 = P5;
    42be:	00 e3 93 00 	CALL 0x43e4 <___sinit>;
    42c2:	ee 2f       	JUMP.S 0x429e <__fflush_r+0x1a>;

000042c4 <_fflush>:
    42c4:	00 0c       	CC = R0 == 0x0;
    42c6:	00 e8 00 00 	LINK 0x0;		/* (0) */
    42ca:	08 30       	R1 = R0;
    42cc:	0a 18       	IF CC JUMP 0x42e0 <_fflush+0x1c>;
    42ce:	4a e1 00 00 	P2.H = 0x0;		/* (  0)	P2=0x89d8 <___mprec_tens> */
    42d2:	0a e1 08 90 	P2.L = 0x9008;		/* (-28664)	P2=0x9008 <__impure_ptr> */
    42d6:	01 e8 00 00 	UNLINK;
    42da:	10 91       	R0 = [P2];
    42dc:	ff e2 d4 ff 	JUMP.L 0x4284 <__fflush_r>;
    42e0:	4a e1 00 00 	P2.H = 0x0;		/* (  0)	P2=0x9008 <__impure_ptr> */
    42e4:	0a e1 9c 87 	P2.L = 0x879c;		/* (-30820)	P2=0x879c <__global_impure_ptr> */
    42e8:	41 e1 00 00 	R1.H = 0x0;		/* (  0)	R1=0x1d( 29) */
    42ec:	10 91       	R0 = [P2];
    42ee:	01 e1 84 42 	R1.L = 0x4284;		/* (17028)	R1=0x4284 <__fflush_r>(17028) */
    42f2:	01 e8 00 00 	UNLINK;
    42f6:	00 e2 d3 02 	JUMP.L 0x489c <__fwalk_reent>;
	...

000042fc <___fp_lock>:
    42fc:	00 00       	NOP;
    42fe:	00 e8 00 00 	LINK 0x0;		/* (0) */
    4302:	01 e8 00 00 	UNLINK;
    4306:	00 60       	R0 = 0x0 (X);		/*		R0=0x0(  0) */
    4308:	10 00       	RTS;
	...

0000430c <___fp_unlock>:
    430c:	00 00       	NOP;
    430e:	00 e8 00 00 	LINK 0x0;		/* (0) */
    4312:	01 e8 00 00 	UNLINK;
    4316:	00 60       	R0 = 0x0 (X);		/*		R0=0x0(  0) */
    4318:	10 00       	RTS;
	...

0000431c <__cleanup_r>:
    431c:	00 e8 00 00 	LINK 0x0;		/* (0) */
    4320:	41 e1 00 00 	R1.H = 0x0;		/* (  0)	R1=0x4284 <__fflush_r>(17028) */
    4324:	01 e1 64 6b 	R1.L = 0x6b64;		/* (27492)	R1=0x6b64 <_fclose>(27492) */
    4328:	01 e8 00 00 	UNLINK;
    432c:	00 e2 80 02 	JUMP.L 0x482c <__fwalk>;

00004330 <_std.isra.0>:
    4330:	c5 04       	[--SP] = (P5:5);
    4332:	28 32       	P5 = R0;
    4334:	00 60       	R0 = 0x0 (X);		/*		R0=0x0(  0) */
    4336:	00 e8 03 00 	LINK 0xc;		/* (12) */
    433a:	28 93       	[P5] = R0;
    433c:	68 b0       	[P5 + 0x4] = R0;
    433e:	a8 b0       	[P5 + 0x8] = R0;
    4340:	a9 b5       	W[P5 + 0xc] = R1;
    4342:	28 e6 19 00 	[P5 + 0x64] = R0;
    4346:	28 b1       	[P5 + 0x10] = R0;
    4348:	68 b1       	[P5 + 0x14] = R0;
    434a:	a8 b1       	[P5 + 0x18] = R0;
    434c:	4d 30       	R1 = P5;
    434e:	20 e1 5c 00 	R0 = 0x5c (X);		/*		R0=0x5c( 92) */
    4352:	ea b5       	W[P5 + 0xe] = R2;
    4354:	01 50       	R0 = R1 + R0;
    4356:	42 60       	R2 = 0x8 (X);		/*		R2=0x8(  8) */
    4358:	01 60       	R1 = 0x0 (X);		/*		R1=0x0(  0) */
    435a:	ff e3 29 e9 	CALL 0x15ac <_memset>;
    435e:	40 e1 00 00 	R0.H = 0x0;		/* (  0)	R0=0x5c( 92) */
    4362:	00 e1 ac 5c 	R0.L = 0x5cac;		/* (23724)	R0=0x5cac <___sread>(23724) */
    4366:	28 b2       	[P5 + 0x20] = R0;
    4368:	40 e1 00 00 	R0.H = 0x0;		/* (  0)	R0=0x5cac <___sread>(23724) */
    436c:	00 e1 f4 5c 	R0.L = 0x5cf4;		/* (23796)	R0=0x5cf4 <___swrite>(23796) */
    4370:	68 b2       	[P5 + 0x24] = R0;
    4372:	40 e1 00 00 	R0.H = 0x0;		/* (  0)	R0=0x5cf4 <___swrite>(23796) */
    4376:	00 e1 38 5d 	R0.L = 0x5d38;		/* (23864)	R0=0x5d38 <___sseek>(23864) */
    437a:	a8 b2       	[P5 + 0x28] = R0;
    437c:	40 e1 00 00 	R0.H = 0x0;		/* (  0)	R0=0x5d38 <___sseek>(23864) */
    4380:	00 e1 6c 5d 	R0.L = 0x5d6c;		/* (23916)	R0=0x5d6c <___sclose>(23916) */
    4384:	01 e8 00 00 	UNLINK;
    4388:	ed bd       	[P5 + 0x1c] = P5;
    438a:	e8 b2       	[P5 + 0x2c] = R0;
    438c:	85 04       	(P5:5) = [SP++];
    438e:	10 00       	RTS;

00004390 <___sfmoreglue>:
    4390:	fc 05       	[--SP] = (R7:7, P5:4);
    4392:	21 32       	P4 = R1;
    4394:	00 e8 03 00 	LINK 0xc;		/* (12) */
    4398:	a4 5c       	P2 = P4 + (P4 << 0x1);
    439a:	94 5e       	P2 = P4 + (P2 << 0x2);
    439c:	7a 30       	R7 = P2;
    439e:	1f 4f       	R7 <<= 0x3;
    43a0:	0f 30       	R1 = R7;
    43a2:	61 64       	R1 += 0xc;		/* ( 12) */
    43a4:	00 e3 ae 03 	CALL 0x4b00 <__malloc_r>;
    43a8:	28 32       	P5 = R0;
    43aa:	45 0c       	CC = P5 == 0x0;
    43ac:	0b 18       	IF CC JUMP 0x43c2 <___sfmoreglue+0x32>;
    43ae:	60 64       	R0 += 0xc;		/* ( 12) */
    43b0:	00 cc 09 c2 	R1 = R1 -|- R1 || [P5 + 0x4] = P4 || NOP;
    43b4:	6c bc 00 00 
    43b8:	29 93       	[P5] = R1;
    43ba:	a8 b0       	[P5 + 0x8] = R0;
    43bc:	17 30       	R2 = R7;
    43be:	ff e3 f7 e8 	CALL 0x15ac <_memset>;
    43c2:	01 e8 00 00 	UNLINK;
    43c6:	45 30       	R0 = P5;
    43c8:	bc 05       	(R7:7, P5:4) = [SP++];
    43ca:	10 00       	RTS;

000043cc <__cleanup>:
    43cc:	4a e1 00 00 	P2.H = 0x0;		/* (  0)	P2=0x879c <__global_impure_ptr> */
    43d0:	00 e8 00 00 	LINK 0x0;		/* (0) */
    43d4:	0a e1 9c 87 	P2.L = 0x879c;		/* (-30820)	P2=0x879c <__global_impure_ptr> */
    43d8:	10 91       	R0 = [P2];
    43da:	01 e8 00 00 	UNLINK;
    43de:	ff e2 9f ff 	JUMP.L 0x431c <__cleanup_r>;
	...

000043e4 <___sinit>:
    43e4:	c5 04       	[--SP] = (P5:5);
    43e6:	28 32       	P5 = R0;
    43e8:	00 e8 03 00 	LINK 0xc;		/* (12) */
    43ec:	a8 a3       	R0 = [P5 + 0x38];
    43ee:	00 0c       	CC = R0 == 0x0;
    43f0:	05 18       	IF CC JUMP 0x43fa <___sinit+0x16>;
    43f2:	01 e8 00 00 	UNLINK;
    43f6:	85 04       	(P5:5) = [SP++];
    43f8:	10 00       	RTS;
    43fa:	40 e1 00 00 	R0.H = 0x0;		/* (  0)	R0=0x5d6c <___sclose>(23916) */
    43fe:	00 e1 1c 43 	R0.L = 0x431c;		/* (17180)	R0=0x431c <__cleanup_r>(17180) */
    4402:	e8 b3       	[P5 + 0x3c] = R0;
    4404:	08 60       	R0 = 0x1 (X);		/*		R0=0x1(  1) */
    4406:	a8 b3       	[P5 + 0x38] = R0;
    4408:	00 60       	R0 = 0x0 (X);		/*		R0=0x0(  0) */
    440a:	28 e6 b8 00 	[P5 + 0x2e0] = R0;
    440e:	18 60       	R0 = 0x3 (X);		/*		R0=0x3(  3) */
    4410:	28 e6 b9 00 	[P5 + 0x2e4] = R0;
    4414:	4d 30       	R1 = P5;
    4416:	20 e1 ec 02 	R0 = 0x2ec (X);		/*		R0=0x2ec(748) */
    441a:	01 50       	R0 = R1 + R0;
    441c:	28 e6 ba 00 	[P5 + 0x2e8] = R0;
    4420:	21 60       	R1 = 0x4 (X);		/*		R1=0x4(  4) */
    4422:	68 a0       	R0 = [P5 + 0x4];
    4424:	02 60       	R2 = 0x0 (X);		/*		R2=0x0(  0) */
    4426:	ff e3 85 ff 	CALL 0x4330 <_std.isra.0>;
    442a:	a8 a0       	R0 = [P5 + 0x8];
    442c:	49 60       	R1 = 0x9 (X);		/*		R1=0x9(  9) */
    442e:	0a 60       	R2 = 0x1 (X);		/*		R2=0x1(  1) */
    4430:	ff e3 80 ff 	CALL 0x4330 <_std.isra.0>;
    4434:	01 e8 00 00 	UNLINK;
    4438:	e8 a0       	R0 = [P5 + 0xc];
    443a:	91 60       	R1 = 0x12 (X);		/*		R1=0x12( 18) */
    443c:	12 60       	R2 = 0x2 (X);		/*		R2=0x2(  2) */
    443e:	85 04       	(P5:5) = [SP++];
    4440:	ff e2 78 ff 	JUMP.L 0x4330 <_std.isra.0>;

00004444 <___sfp>:
    4444:	4a e1 00 00 	P2.H = 0x0;		/* (  0)	P2=0x879c <__global_impure_ptr> */
    4448:	0a e1 9c 87 	P2.L = 0x879c;		/* (-30820)	P2=0x879c <__global_impure_ptr> */
    444c:	fb 05       	[--SP] = (R7:7, P5:3);
    444e:	55 91       	P5 = [P2];
    4450:	00 e8 03 00 	LINK 0xc;		/* (12) */
    4454:	38 30       	R7 = R0;
    4456:	a8 a3       	R0 = [P5 + 0x38];
    4458:	00 0c       	CC = R0 == 0x0;
    445a:	3b 18       	IF CC JUMP 0x44d0 <___sfp+0x8c>;
    445c:	2b e1 e0 02 	P3 = 0x2e0 (X);		/*		P3=0x2e0(736) */
    4460:	dd 5a       	P3 = P5 + P3;
    4462:	2c e1 68 00 	P4 = 0x68 (X);		/*		P4=0x68(104) */
    4466:	5a ac       	P2 = [P3 + 0x4];
    4468:	9d ac       	P5 = [P3 + 0x8];
    446a:	4a 30       	R1 = P2;
    446c:	f9 67       	R1 += -0x1;		/* ( -1) */
    446e:	81 0c       	CC = R1 < 0x0;
    4470:	0b 18       	IF CC JUMP 0x4486 <___sfp+0x42>;
    4472:	00 00       	NOP;
    4474:	00 00       	NOP;
    4476:	b2 e0 07 20 	LSETUP(0x447a <___sfp+0x36>, 0x4484 <___sfp+0x40>) LC1 = P2;
    447a:	a9 a9       	R1 = W[P5 + 0xc] (X);
    447c:	01 0c       	CC = R1 == 0x0;
    447e:	09 18       	IF CC JUMP 0x4490 <___sfp+0x4c>;
    4480:	00 00       	NOP;
    4482:	00 00       	NOP;
    4484:	65 5b       	P5 = P5 + P4;
    4486:	18 91       	R0 = [P3];
    4488:	00 0c       	CC = R0 == 0x0;
    448a:	27 18       	IF CC JUMP 0x44d8 <___sfp+0x94>;
    448c:	18 32       	P3 = R0;
    448e:	ec 2f       	JUMP.S 0x4466 <___sfp+0x22>;
    4490:	f8 63       	R0 = -0x1 (X);		/*		R0=0xffffffff( -1) */
    4492:	e8 b5       	W[P5 + 0xe] = R0;
    4494:	08 60       	R0 = 0x1 (X);		/*		R0=0x1(  1) */
    4496:	04 68       	P4 = 0x0 (X);		/*		P4=0x0(  0) */
    4498:	a8 b5       	W[P5 + 0xc] = R0;
    449a:	4d 30       	R1 = P5;
    449c:	20 e1 5c 00 	R0 = 0x5c (X);		/*		R0=0x5c( 92) */
    44a0:	01 50       	R0 = R1 + R0;
    44a2:	2c e7 19 00 	[P5 + 0x64] = P4;
    44a6:	6c 93       	[P5] = P4;
    44a8:	ac bc       	[P5 + 0x8] = P4;
    44aa:	6c bc       	[P5 + 0x4] = P4;
    44ac:	2c bd       	[P5 + 0x10] = P4;
    44ae:	6c bd       	[P5 + 0x14] = P4;
    44b0:	ac bd       	[P5 + 0x18] = P4;
    44b2:	01 60       	R1 = 0x0 (X);		/*		R1=0x0(  0) */
    44b4:	42 60       	R2 = 0x8 (X);		/*		R2=0x8(  8) */
    44b6:	ff e3 7b e8 	CALL 0x15ac <_memset>;
    44ba:	2c bf       	[P5 + 0x30] = P4;
    44bc:	6c bf       	[P5 + 0x34] = P4;
    44be:	2c e7 11 00 	[P5 + 0x44] = P4;
    44c2:	2c e7 12 00 	[P5 + 0x48] = P4;
    44c6:	01 e8 00 00 	UNLINK;
    44ca:	45 30       	R0 = P5;
    44cc:	bb 05       	(R7:7, P5:3) = [SP++];
    44ce:	10 00       	RTS;
    44d0:	45 30       	R0 = P5;
    44d2:	ff e3 89 ff 	CALL 0x43e4 <___sinit>;
    44d6:	c3 2f       	JUMP.S 0x445c <___sfp+0x18>;
    44d8:	07 30       	R0 = R7;
    44da:	21 60       	R1 = 0x4 (X);		/*		R1=0x4(  4) */
    44dc:	ff e3 5a ff 	CALL 0x4390 <___sfmoreglue>;
    44e0:	00 0c       	CC = R0 == 0x0;
    44e2:	18 93       	[P3] = R0;
    44e4:	d4 17       	IF !CC JUMP 0x448c <___sfp+0x48> (BP);
    44e6:	17 32       	P2 = R7;
    44e8:	60 60       	R0 = 0xc (X);		/*		R0=0xc( 12) */
    44ea:	05 68       	P5 = 0x0 (X);		/*		P5=0x0(  0) */
    44ec:	10 93       	[P2] = R0;
    44ee:	ec 2f       	JUMP.S 0x44c6 <___sfp+0x82>;

000044f0 <___sfp_lock_acquire>:
    44f0:	00 00       	NOP;
    44f2:	00 00       	NOP;
    44f4:	00 e8 00 00 	LINK 0x0;		/* (0) */
    44f8:	01 e8 00 00 	UNLINK;
    44fc:	10 00       	RTS;
	...

00004500 <___sfp_lock_release>:
    4500:	00 00       	NOP;
    4502:	00 00       	NOP;
    4504:	00 e8 00 00 	LINK 0x0;		/* (0) */
    4508:	01 e8 00 00 	UNLINK;
    450c:	10 00       	RTS;
	...

00004510 <___sinit_lock_acquire>:
    4510:	00 00       	NOP;
    4512:	00 00       	NOP;
    4514:	00 e8 00 00 	LINK 0x0;		/* (0) */
    4518:	01 e8 00 00 	UNLINK;
    451c:	10 00       	RTS;
	...

00004520 <___sinit_lock_release>:
    4520:	00 00       	NOP;
    4522:	00 00       	NOP;
    4524:	00 e8 00 00 	LINK 0x0;		/* (0) */
    4528:	01 e8 00 00 	UNLINK;
    452c:	10 00       	RTS;
	...

00004530 <___fp_lock_all>:
    4530:	4a e1 00 00 	P2.H = 0x0;		/* (  0)	P2=0x879c <__global_impure_ptr> */
    4534:	00 e8 00 00 	LINK 0x0;		/* (0) */
    4538:	0a e1 08 90 	P2.L = 0x9008;		/* (-28664)	P2=0x9008 <__impure_ptr> */
    453c:	41 e1 00 00 	R1.H = 0x0;		/* (  0)	R1=0x4 <_.xy>(  4) */
    4540:	10 91       	R0 = [P2];
    4542:	01 e1 fc 42 	R1.L = 0x42fc;		/* (17148)	R1=0x42fc <___fp_lock>(17148) */
    4546:	01 e8 00 00 	UNLINK;
    454a:	00 e2 71 01 	JUMP.L 0x482c <__fwalk>;
	...

00004550 <___fp_unlock_all>:
    4550:	4a e1 00 00 	P2.H = 0x0;		/* (  0)	P2=0x9008 <__impure_ptr> */
    4554:	00 e8 00 00 	LINK 0x0;		/* (0) */
    4558:	0a e1 08 90 	P2.L = 0x9008;		/* (-28664)	P2=0x9008 <__impure_ptr> */
    455c:	41 e1 00 00 	R1.H = 0x0;		/* (  0)	R1=0x42fc <___fp_lock>(17148) */
    4560:	10 91       	R0 = [P2];
    4562:	01 e1 0c 43 	R1.L = 0x430c;		/* (17164)	R1=0x430c <___fp_unlock>(17164) */
    4566:	01 e8 00 00 	UNLINK;
    456a:	00 e2 61 01 	JUMP.L 0x482c <__fwalk>;
	...

00004570 <__malloc_trim_r>:
    4570:	ed 05       	[--SP] = (R7:5, P5:5);
    4572:	4d e1 00 00 	P5.H = 0x0;		/* (  0)	P5=0x0 */
    4576:	00 e8 03 00 	LINK 0xc;		/* (12) */
    457a:	0d e1 b4 94 	P5.L = 0x94b4;		/* (-27468)	P5=0x94b4 <___malloc_av_> */
    457e:	29 30       	R5 = R1;
    4580:	38 30       	R7 = R0;
    4582:	00 e3 2d 06 	CALL 0x51dc <___malloc_lock>;
    4586:	aa ac       	P2 = [P5 + 0x8];
    4588:	e6 63       	R6 = -0x4 (X);		/*		R6=0xfffffffc( -4) */
    458a:	21 e1 ef 0f 	R1 = 0xfef (X);		/*		R1=0xfef(4079) */
    458e:	50 a0       	R0 = [P2 + 0x4];
    4590:	86 55       	R6 = R6 & R0;
    4592:	4e 50       	R1 = R6 + R1;
    4594:	69 52       	R1 = R1 - R5;
    4596:	61 4e       	R1 >>= 0xc;
    4598:	f9 67       	R1 += -0x1;		/* ( -1) */
    459a:	82 c6 61 8a 	R5 = R1 << 0xc;
    459e:	20 e1 ff 0f 	R0 = 0xfff (X);		/*		R0=0xfff(4095) */
    45a2:	05 09       	CC = R5 <= R0;
    45a4:	09 18       	IF CC JUMP 0x45b6 <__malloc_trim_r+0x46>;
    45a6:	07 30       	R0 = R7;
    45a8:	01 60       	R1 = 0x0 (X);		/*		R1=0x0(  0) */
    45aa:	00 e3 63 0b 	CALL 0x5c70 <__sbrk_r>;
    45ae:	aa a0       	R2 = [P5 + 0x8];
    45b0:	72 50       	R1 = R2 + R6;
    45b2:	08 08       	CC = R0 == R1;
    45b4:	09 18       	IF CC JUMP 0x45c6 <__malloc_trim_r+0x56>;
    45b6:	07 30       	R0 = R7;
    45b8:	00 e3 1a 06 	CALL 0x51ec <___malloc_unlock>;
    45bc:	01 e8 00 00 	UNLINK;
    45c0:	00 60       	R0 = 0x0 (X);		/*		R0=0x0(  0) */
    45c2:	ad 05       	(R7:5, P5:5) = [SP++];
    45c4:	10 00       	RTS;
    45c6:	a9 43       	R1 = -R5;
    45c8:	07 30       	R0 = R7;
    45ca:	00 e3 53 0b 	CALL 0x5c70 <__sbrk_r>;
    45ce:	38 0c       	CC = R0 == -0x1;
    45d0:	16 18       	IF CC JUMP 0x45fc <__malloc_trim_r+0x8c>;
    45d2:	ae 53       	R6 = R6 - R5;
    45d4:	06 4a       	BITSET (R6, 0x0);		/* bit  0 */
    45d6:	aa ac       	P2 = [P5 + 0x8];
    45d8:	56 b0       	[P2 + 0x4] = R6;
    45da:	4a e1 00 00 	P2.H = 0x0;		/* (  0)	P2=0x9008 <__impure_ptr> */
    45de:	0a e1 cc 98 	P2.L = 0x98cc;		/* (-26420)	P2=0x98cc <___malloc_current_mallinfo> */
    45e2:	10 91       	R0 = [P2];
    45e4:	68 53       	R5 = R0 - R5;
    45e6:	82 ce 07 c0 	R0 = ROT R7 BY 0x0 || [P2] = R5 || NOP;
    45ea:	15 93 00 00 
    45ee:	00 e3 ff 05 	CALL 0x51ec <___malloc_unlock>;
    45f2:	01 e8 00 00 	UNLINK;
    45f6:	08 60       	R0 = 0x1 (X);		/*		R0=0x1(  1) */
    45f8:	ad 05       	(R7:5, P5:5) = [SP++];
    45fa:	10 00       	RTS;
    45fc:	01 60       	R1 = 0x0 (X);		/*		R1=0x0(  0) */
    45fe:	07 30       	R0 = R7;
    4600:	00 e3 38 0b 	CALL 0x5c70 <__sbrk_r>;
    4604:	a9 a0       	R1 = [P5 + 0x8];
    4606:	88 52       	R2 = R0 - R1;
    4608:	7b 60       	R3 = 0xf (X);		/*		R3=0xf( 15) */
    460a:	1a 09       	CC = R2 <= R3;
    460c:	d5 1b       	IF CC JUMP 0x45b6 <__malloc_trim_r+0x46>;
    460e:	4a e1 00 00 	P2.H = 0x0;		/* (  0)	P2=0x98cc <___malloc_current_mallinfo> */
    4612:	0a e1 ac 94 	P2.L = 0x94ac;		/* (-27476)	P2=0x94ac <___malloc_sbrk_base> */
    4616:	02 4a       	BITSET (R2, 0x0);		/* bit  0 */
    4618:	13 91       	R3 = [P2];
    461a:	4a e1 00 00 	P2.H = 0x0;		/* (  0)	P2=0x94ac <___malloc_sbrk_base> */
    461e:	0a e1 cc 98 	P2.L = 0x98cc;		/* (-26420)	P2=0x98cc <___malloc_current_mallinfo> */
    4622:	18 52       	R0 = R0 - R3;
    4624:	10 93       	[P2] = R0;
    4626:	11 32       	P2 = R1;
    4628:	52 b0       	[P2 + 0x4] = R2;
    462a:	c6 2f       	JUMP.S 0x45b6 <__malloc_trim_r+0x46>;

0000462c <__free_r>:
    462c:	fc 05       	[--SP] = (R7:7, P5:4);
    462e:	29 32       	P5 = R1;
    4630:	00 e8 03 00 	LINK 0xc;		/* (12) */
    4634:	38 30       	R7 = R0;
    4636:	45 0c       	CC = P5 == 0x0;
    4638:	6f 18       	IF CC JUMP 0x4716 <__free_r+0xea>;
    463a:	00 e3 d1 05 	CALL 0x51dc <___malloc_lock>;
    463e:	4d 32       	P1 = P5;
    4640:	c1 6f       	P1 += -0x8;		/* ( -8) */
    4642:	29 e4 ff ff 	R1 = [P5 + -0x4];
    4646:	11 30       	R2 = R1;
    4648:	02 4c       	BITCLR (R2, 0x0);		/* bit  0 */
    464a:	02 32       	P0 = R2;
    464c:	e3 63       	R3 = -0x4 (X);		/*		R3=0xfffffffc( -4) */
    464e:	81 5a       	P2 = P1 + P0;
    4650:	48 e1 00 00 	P0.H = 0x0;		/* (  0)	P0=0x0 */
    4654:	08 e1 b4 94 	P0.L = 0x94b4;		/* (-27468)	P0=0x94b4 <___malloc_av_> */
    4658:	84 ac       	P4 = [P0 + 0x8];
    465a:	50 a0       	R0 = [P2 + 0x4];
    465c:	03 54       	R0 = R3 & R0;
    465e:	54 08       	CC = P4 == P2;
    4660:	87 18       	IF CC JUMP 0x476e <__free_r+0x142>;
    4662:	01 48       	CC = !BITTST (R1, 0x0);		/* bit  0 */
    4664:	50 b0       	[P2 + 0x4] = R0;
    4666:	45 1c       	IF CC JUMP 0x46f0 <__free_r+0xc4> (BP);
    4668:	01 60       	R1 = 0x0 (X);		/*		R1=0x0(  0) */
    466a:	20 32       	P4 = R0;
    466c:	62 5b       	P5 = P2 + P4;
    466e:	6b a0       	R3 = [P5 + 0x4];
    4670:	03 48       	CC = !BITTST (R3, 0x0);		/* bit  0 */
    4672:	09 14       	IF !CC JUMP 0x4684 <__free_r+0x58> (BP);
    4674:	01 0c       	CC = R1 == 0x0;
    4676:	82 50       	R2 = R2 + R0;
    4678:	95 ac       	P5 = [P2 + 0x8];
    467a:	68 1c       	IF CC JUMP 0x474a <__free_r+0x11e> (BP);
    467c:	00 00       	NOP;
    467e:	d2 ac       	P2 = [P2 + 0xc];
    4680:	ea bc       	[P5 + 0xc] = P2;
    4682:	95 bc       	[P2 + 0x8] = P5;
    4684:	22 32       	P4 = R2;
    4686:	02 30       	R0 = R2;
    4688:	00 4a       	BITSET (R0, 0x0);		/* bit  0 */
    468a:	01 0c       	CC = R1 == 0x0;
    468c:	48 b0       	[P1 + 0x4] = R0;
    468e:	a1 5a       	P2 = P1 + P4;
    4690:	12 93       	[P2] = R2;
    4692:	29 10       	IF !CC JUMP 0x46e4 <__free_r+0xb8>;
    4694:	20 e1 ff 01 	R0 = 0x1ff (X);		/*		R0=0x1ff(511) */
    4698:	02 0a       	CC = R2 <= R0 (IU);
    469a:	42 1c       	IF CC JUMP 0x471e <__free_r+0xf2> (BP);
    469c:	82 c6 ba 81 	R0 = R2 >> 0x9;
    46a0:	20 0e       	CC = R0 <= 0x4 (IU);
    46a2:	8a 14       	IF !CC JUMP 0x47b6 <__free_r+0x18a> (BP);
    46a4:	82 c6 d2 81 	R0 = R2 >> 0x6;
    46a8:	c0 65       	R0 += 0x38;		/* ( 56) */
    46aa:	20 32       	P4 = R0;
    46ac:	a4 5a       	P2 = P4 << 0x1;
    46ae:	10 5e       	P0 = P0 + (P2 << 0x2);
    46b0:	82 ac       	P2 = [P0 + 0x8];
    46b2:	4d e1 00 00 	P5.H = 0x0;		/* (  0)	P5=0x94b4 <___malloc_av_> */
    46b6:	0d e1 b4 94 	P5.L = 0x94b4;		/* (-27468)	P5=0x94b4 <___malloc_av_> */
    46ba:	42 08       	CC = P2 == P0;
    46bc:	86 18       	IF CC JUMP 0x47c8 <__free_r+0x19c>;
    46be:	00 00       	NOP;
    46c0:	00 00       	NOP;
    46c2:	e0 63       	R0 = -0x4 (X);		/*		R0=0xfffffffc( -4) */
    46c4:	00 00       	NOP;
    46c6:	51 a0       	R1 = [P2 + 0x4];
    46c8:	48 54       	R1 = R0 & R1;
    46ca:	8a 09       	CC = R2 < R1 (IU);
    46cc:	07 10       	IF !CC JUMP 0x46da <__free_r+0xae>;
    46ce:	00 00       	NOP;
    46d0:	00 00       	NOP;
    46d2:	00 00       	NOP;
    46d4:	92 ac       	P2 = [P2 + 0x8];
    46d6:	50 08       	CC = P0 == P2;
    46d8:	f6 17       	IF !CC JUMP 0x46c4 <__free_r+0x98> (BP);
    46da:	d0 ac       	P0 = [P2 + 0xc];
    46dc:	c8 bc       	[P1 + 0xc] = P0;
    46de:	8a bc       	[P1 + 0x8] = P2;
    46e0:	81 bc       	[P0 + 0x8] = P1;
    46e2:	d1 bc       	[P2 + 0xc] = P1;
    46e4:	01 e8 00 00 	UNLINK;
    46e8:	07 30       	R0 = R7;
    46ea:	bc 05       	(R7:7, P5:4) = [SP++];
    46ec:	00 e2 80 05 	JUMP.L 0x51ec <___malloc_unlock>;
    46f0:	00 00       	NOP;
    46f2:	29 e4 fe ff 	R1 = [P5 + -0x8];
    46f6:	21 32       	P4 = R1;
    46f8:	8a 50       	R2 = R2 + R1;
    46fa:	48 30       	R1 = P0;
    46fc:	41 64       	R1 += 0x8;		/* (  8) */
    46fe:	21 44       	P1 -= P4;
    4700:	8d ac       	P5 = [P1 + 0x8];
    4702:	5d 30       	R3 = P5;
    4704:	0b 08       	CC = R3 == R1;
    4706:	56 18       	IF CC JUMP 0x47b2 <__free_r+0x186>;
    4708:	00 00       	NOP;
    470a:	00 00       	NOP;
    470c:	01 60       	R1 = 0x0 (X);		/*		R1=0x0(  0) */
    470e:	cc ac       	P4 = [P1 + 0xc];
    4710:	ec bc       	[P5 + 0xc] = P4;
    4712:	a5 bc       	[P4 + 0x8] = P5;
    4714:	ab 2f       	JUMP.S 0x466a <__free_r+0x3e>;
    4716:	01 e8 00 00 	UNLINK;
    471a:	bc 05       	(R7:7, P5:4) = [SP++];
    471c:	10 00       	RTS;
    471e:	1a 4e       	R2 >>= 0x3;
    4720:	82 c6 f2 03 	R1 = R2 >>> 0x2;
    4724:	1a 4f       	R2 <<= 0x3;
    4726:	12 32       	P2 = R2;
    4728:	08 60       	R0 = 0x1 (X);		/*		R0=0x1(  1) */
    472a:	88 40       	R0 <<= R1;
    472c:	41 a0       	R1 = [P0 + 0x4];
    472e:	08 56       	R0 = R0 | R1;
    4730:	40 b0       	[P0 + 0x4] = R0;
    4732:	10 5a       	P0 = P0 + P2;
    4734:	82 ac       	P2 = [P0 + 0x8];
    4736:	c8 bc       	[P1 + 0xc] = P0;
    4738:	07 30       	R0 = R7;
    473a:	8a bc       	[P1 + 0x8] = P2;
    473c:	81 bc       	[P0 + 0x8] = P1;
    473e:	d1 bc       	[P2 + 0xc] = P1;
    4740:	01 e8 00 00 	UNLINK;
    4744:	bc 05       	(R7:7, P5:4) = [SP++];
    4746:	00 e2 53 05 	JUMP.L 0x51ec <___malloc_unlock>;
    474a:	40 e1 00 00 	R0.H = 0x0;		/* (  0)	R0=0x1(  1) */
    474e:	00 e1 bc 94 	R0.L = 0x94bc;		/* (-27460)	R0=0x94bc(38076) */
    4752:	5d 30       	R3 = P5;
    4754:	03 08       	CC = R3 == R0;
    4756:	93 17       	IF !CC JUMP 0x467c <__free_r+0x50> (BP);
    4758:	41 bd       	[P0 + 0x14] = P1;
    475a:	01 bd       	[P0 + 0x10] = P1;
    475c:	02 32       	P0 = R2;
    475e:	c8 b0       	[P1 + 0xc] = R0;
    4760:	88 b0       	[P1 + 0x8] = R0;
    4762:	02 30       	R0 = R2;
    4764:	00 4a       	BITSET (R0, 0x0);		/* bit  0 */
    4766:	48 b0       	[P1 + 0x4] = R0;
    4768:	41 5a       	P1 = P1 + P0;
    476a:	0a 93       	[P1] = R2;
    476c:	bc 2f       	JUMP.S 0x46e4 <__free_r+0xb8>;
    476e:	01 48       	CC = !BITTST (R1, 0x0);		/* bit  0 */
    4770:	90 50       	R2 = R0 + R2;
    4772:	0a 14       	IF !CC JUMP 0x4786 <__free_r+0x15a> (BP);
    4774:	28 e4 fe ff 	R0 = [P5 + -0x8];
    4778:	28 32       	P5 = R0;
    477a:	82 50       	R2 = R2 + R0;
    477c:	29 44       	P1 -= P5;
    477e:	ca ac       	P2 = [P1 + 0xc];
    4780:	8d ac       	P5 = [P1 + 0x8];
    4782:	ea bc       	[P5 + 0xc] = P2;
    4784:	95 bc       	[P2 + 0x8] = P5;
    4786:	02 30       	R0 = R2;
    4788:	4a e1 00 00 	P2.H = 0x0;		/* (  0)	P2=0x98cc <___malloc_current_mallinfo> */
    478c:	00 4a       	BITSET (R0, 0x0);		/* bit  0 */
    478e:	0a e1 b0 94 	P2.L = 0x94b0;		/* (-27472)	P2=0x94b0 <___malloc_trim_threshold> */
    4792:	48 b0       	[P1 + 0x4] = R0;
    4794:	10 91       	R0 = [P2];
    4796:	82 09       	CC = R2 < R0 (IU);
    4798:	81 bc       	[P0 + 0x8] = P1;
    479a:	a5 1f       	IF CC JUMP 0x46e4 <__free_r+0xb8> (BP);
    479c:	4a e1 00 00 	P2.H = 0x0;		/* (  0)	P2=0x94b0 <___malloc_trim_threshold> */
    47a0:	0a e1 fc 98 	P2.L = 0x98fc;		/* (-26372)	P2=0x98fc <___malloc_top_pad> */
    47a4:	82 ce 07 c0 	R0 = ROT R7 BY 0x0 || R1 = [P2] || NOP;
    47a8:	11 91 00 00 
    47ac:	ff e3 e2 fe 	CALL 0x4570 <__malloc_trim_r>;
    47b0:	9a 2f       	JUMP.S 0x46e4 <__free_r+0xb8>;
    47b2:	09 60       	R1 = 0x1 (X);		/*		R1=0x1(  1) */
    47b4:	5b 2f       	JUMP.S 0x466a <__free_r+0x3e>;
    47b6:	a1 60       	R1 = 0x14 (X);		/*		R1=0x14( 20) */
    47b8:	08 0a       	CC = R0 <= R1 (IU);
    47ba:	0f 14       	IF !CC JUMP 0x47d8 <__free_r+0x1ac> (BP);
    47bc:	21 e1 5b 00 	R1 = 0x5b (X);		/*		R1=0x5b( 91) */
    47c0:	08 50       	R0 = R0 + R1;
    47c2:	20 32       	P4 = R0;
    47c4:	a4 5a       	P2 = P4 << 0x1;
    47c6:	74 2f       	JUMP.S 0x46ae <__free_r+0x82>;
    47c8:	10 4d       	R0 >>>= 0x2;
    47ca:	09 60       	R1 = 0x1 (X);		/*		R1=0x1(  1) */
    47cc:	81 40       	R1 <<= R0;
    47ce:	68 a0       	R0 = [P5 + 0x4];
    47d0:	01 56       	R0 = R1 | R0;
    47d2:	68 b0       	[P5 + 0x4] = R0;
    47d4:	42 32       	P0 = P2;
    47d6:	83 2f       	JUMP.S 0x46dc <__free_r+0xb0>;
    47d8:	21 e1 54 00 	R1 = 0x54 (X);		/*		R1=0x54( 84) */
    47dc:	08 0a       	CC = R0 <= R1 (IU);
    47de:	09 14       	IF !CC JUMP 0x47f0 <__free_r+0x1c4> (BP);
    47e0:	82 c6 a2 83 	R1 = R2 >> 0xc;
    47e4:	20 e1 6e 00 	R0 = 0x6e (X);		/*		R0=0x6e(110) */
    47e8:	01 50       	R0 = R1 + R0;
    47ea:	20 32       	P4 = R0;
    47ec:	a4 5a       	P2 = P4 << 0x1;
    47ee:	60 2f       	JUMP.S 0x46ae <__free_r+0x82>;
    47f0:	21 e1 54 01 	R1 = 0x154 (X);		/*		R1=0x154(340) */
    47f4:	08 0a       	CC = R0 <= R1 (IU);
    47f6:	09 14       	IF !CC JUMP 0x4808 <__free_r+0x1dc> (BP);
    47f8:	82 c6 8a 83 	R1 = R2 >> 0xf;
    47fc:	20 e1 77 00 	R0 = 0x77 (X);		/*		R0=0x77(119) */
    4800:	01 50       	R0 = R1 + R0;
    4802:	20 32       	P4 = R0;
    4804:	a4 5a       	P2 = P4 << 0x1;
    4806:	54 2f       	JUMP.S 0x46ae <__free_r+0x82>;
    4808:	21 e1 54 05 	R1 = 0x554 (X);		/*		R1=0x554(1364) */
    480c:	08 0a       	CC = R0 <= R1 (IU);
    480e:	09 14       	IF !CC JUMP 0x4820 <__free_r+0x1f4> (BP);
    4810:	82 c6 72 83 	R1 = R2 >> 0x12;
    4814:	20 e1 7c 00 	R0 = 0x7c (X);		/*		R0=0x7c(124) */
    4818:	01 50       	R0 = R1 + R0;
    481a:	20 32       	P4 = R0;
    481c:	a4 5a       	P2 = P4 << 0x1;
    481e:	48 2f       	JUMP.S 0x46ae <__free_r+0x82>;
    4820:	2a e1 fc 00 	P2 = 0xfc (X);		/*		P2=0xfc(252) */
    4824:	20 e1 7e 00 	R0 = 0x7e (X);		/*		R0=0x7e(126) */
    4828:	43 2f       	JUMP.S 0x46ae <__free_r+0x82>;
	...

0000482c <__fwalk>:
    482c:	e3 05       	[--SP] = (R7:4, P5:3);
    482e:	24 e1 e0 02 	R4 = 0x2e0 (X);		/*		R4=0x2e0(736) */
    4832:	20 51       	R4 = R0 + R4;
    4834:	04 0c       	CC = R4 == 0x0;
    4836:	00 e8 03 00 	LINK 0xc;		/* (12) */
    483a:	19 32       	P3 = R1;
    483c:	05 60       	R5 = 0x0 (X);		/*		R5=0x0(  0) */
    483e:	2a 18       	IF CC JUMP 0x4892 <__fwalk+0x66>;
    4840:	2c e1 68 00 	P4 = 0x68 (X);		/*		P4=0x68(104) */
    4844:	26 e1 98 ff 	R6 = -0x68 (X);		/*		R6=0xffffff98(-104) */
    4848:	0c 32       	P1 = R4;
    484a:	4f a0       	R7 = [P1 + 0x4];
    484c:	ff 67       	R7 += -0x1;		/* ( -1) */
    484e:	87 0c       	CC = R7 < 0x0;
    4850:	8d ac       	P5 = [P1 + 0x8];
    4852:	1c 18       	IF CC JUMP 0x488a <__fwalk+0x5e>;
    4854:	00 00       	NOP;
    4856:	65 5b       	P5 = P5 + P4;
    4858:	0e 32       	P1 = R6;
    485a:	6a e5 d2 ff 	R2 = W[P5 + -0x5c] (X);
    485e:	93 42       	R3 = R2.L (X);
    4860:	03 0c       	CC = R3 == 0x0;
    4862:	8d 5a       	P2 = P5 + P1;
    4864:	0f 1c       	IF CC JUMP 0x4882 <__fwalk+0x56> (BP);
    4866:	d2 42       	R2 = R2.L (Z);
    4868:	0a 0e       	CC = R2 <= 0x1 (IU);
    486a:	0c 18       	IF CC JUMP 0x4882 <__fwalk+0x56>;
    486c:	00 00       	NOP;
    486e:	00 00       	NOP;
    4870:	00 00       	NOP;
    4872:	68 e5 d3 ff 	R0 = W[P5 + -0x5a] (X);
    4876:	38 0c       	CC = R0 == -0x1;
    4878:	05 18       	IF CC JUMP 0x4882 <__fwalk+0x56>;
    487a:	00 00       	NOP;
    487c:	42 30       	R0 = P2;
    487e:	63 00       	CALL (P3);
    4880:	45 57       	R5 = R5 | R0;
    4882:	ff 67       	R7 += -0x1;		/* ( -1) */
    4884:	3f 0c       	CC = R7 == -0x1;
    4886:	65 5b       	P5 = P5 + P4;
    4888:	e8 17       	IF !CC JUMP 0x4858 <__fwalk+0x2c> (BP);
    488a:	14 32       	P2 = R4;
    488c:	14 91       	R4 = [P2];
    488e:	04 0c       	CC = R4 == 0x0;
    4890:	dc 17       	IF !CC JUMP 0x4848 <__fwalk+0x1c> (BP);
    4892:	01 e8 00 00 	UNLINK;
    4896:	05 30       	R0 = R5;
    4898:	a3 05       	(R7:4, P5:3) = [SP++];
    489a:	10 00       	RTS;

0000489c <__fwalk_reent>:
    489c:	08 32       	P1 = R0;
    489e:	2a e1 e0 02 	P2 = 0x2e0 (X);		/*		P2=0x2e0(736) */
    48a2:	e3 05       	[--SP] = (R7:4, P5:3);
    48a4:	00 e8 03 00 	LINK 0xc;		/* (12) */
    48a8:	78 b2       	[FP + 0x24] = R0;
    48aa:	51 5a       	P1 = P1 + P2;
    48ac:	71 30       	R6 = P1;
    48ae:	06 0c       	CC = R6 == 0x0;
    48b0:	19 32       	P3 = R1;
    48b2:	05 60       	R5 = 0x0 (X);		/*		R5=0x0(  0) */
    48b4:	2a 18       	IF CC JUMP 0x4908 <__fwalk_reent+0x6c>;
    48b6:	2c e1 68 00 	P4 = 0x68 (X);		/*		P4=0x68(104) */
