
cr16-elf.x:     file format elf32-cr16


Disassembly of section .text:

00001400 <_start>:
    1400:	bf 5a 90 f4 	movw	$0xf490:m,r15
    1404:	00 c0 dc 00 	bal	(ra),*+0x14e0 <__startmain>:m
    1408:	02 5b       	movw	r0,r2

0000140a <___exit>:
    140a:	10 5a       	movw	$0x1:s,r0
    140c:	c8 00       	excp	bpt
    140e:	ee 0a       	jump	(ra)

00001410 <___read>:
    1410:	40 5a       	movw	$0x4:s,r0
    1412:	c8 00       	excp	bpt
    1414:	ee 0a       	jump	(ra)

00001416 <___write>:
    1416:	50 5a       	movw	$0x5:s,r0
    1418:	c8 00       	excp	bpt
    141a:	ee 0a       	jump	(ra)

0000141c <___open>:
    141c:	20 5a       	movw	$0x2:s,r0
    141e:	c8 00       	excp	bpt
    1420:	ee 0a       	jump	(ra)

00001422 <___close>:
    1422:	30 5a       	movw	$0x3:s,r0
    1424:	c8 00       	excp	bpt
    1426:	ee 0a       	jump	(ra)

00001428 <__exit>:
    1428:	ff c0 e3 ff 	bal	(ra),*-0x140a <___exit>:m

0000142c <_read>:
    142c:	1e 01       	push	RA
    142e:	ff c0 e3 ff 	bal	(ra),*-0x1410 <___read>:m

00001432 <.LVL3>:
    1432:	1e 03       	popret	RA

00001434 <_write>:
    1434:	1e 01       	push	RA
    1436:	ff c0 e1 ff 	bal	(ra),*-0x1416 <___write>:m

0000143a <.LVL5>:
    143a:	1e 03       	popret	RA

0000143c <_open>:
    143c:	1e 01       	push	RA
    143e:	ff c0 df ff 	bal	(ra),*-0x141c <___open>:m

00001442 <.LVL7>:
    1442:	1e 03       	popret	RA

00001444 <_close>:
    1444:	1e 01       	push	RA
    1446:	ff c0 dd ff 	bal	(ra),*-0x1422 <___close>:m

0000144a <.LVL9>:
    144a:	1e 03       	popret	RA

0000144c <_fstat>:
    144c:	1e 01       	push	RA
    144e:	32 55       	movd	(r4,r3),(r3,r2)
    1450:	b5 54 3c 00 	movd	$0x3c:m,(r6,r5)
    1454:	04 5a       	movw	$0x0:s,r4
    1456:	00 c0 c2 00 	bal	(ra),*+0x1518 <_memset>:m

0000145a <.LVL12>:
    145a:	00 5a       	movw	$0x0:s,r0
    145c:	1e 03       	popret	RA

0000145e <.LFE5>:
	...

00001460 <_lseek>:
    1460:	30 5b       	movw	r3,r0
    1462:	ee 0a       	jump	(ra)

00001464 <_sbrk>:
    1464:	12 00 40 b0 	loadd	0xa800 <__gp>:l,(r5,r4)
    1468:	00 a8 
    146a:	22 5e       	movxw	r2,(r3,r2)
    146c:	42 61       	addd	(r5,r4),(r3,r2)
    146e:	13 00 20 b0 	stord	(r3,r2),0xa800 <__gp>:l
    1472:	00 a8 
    1474:	40 5b       	movw	r4,r0
    1476:	51 5b       	movw	r5,r1
    1478:	ee 0a       	jump	(ra)

0000147a <.LFE7>:
	...

0000147c <_isatty>:
    147c:	10 5a       	movw	$0x1:s,r0
    147e:	ee 0a       	jump	(ra)

00001480 <__read>:
    1480:	1e 01       	push	RA
    1482:	ff c0 ab ff 	bal	(ra),*-0x142c <_read>:m

00001486 <.LVL19>:
    1486:	1e 03       	popret	RA

00001488 <__write>:
    1488:	1e 01       	push	RA
    148a:	ff c0 ab ff 	bal	(ra),*-0x1434 <_write>:m

0000148e <.LVL21>:
    148e:	1e 03       	popret	RA

00001490 <__open>:
    1490:	1e 01       	push	RA
    1492:	ff c0 ab ff 	bal	(ra),*-0x143c <_open>:m

00001496 <.LVL23>:
    1496:	1e 03       	popret	RA

00001498 <__close>:
    1498:	1e 01       	push	RA
    149a:	ff c0 ab ff 	bal	(ra),*-0x1444 <_close>:m

0000149e <.LVL25>:
    149e:	1e 03       	popret	RA

000014a0 <__fstat>:
    14a0:	1e 01       	push	RA
    14a2:	ff c0 ab ff 	bal	(ra),*-0x144c <_fstat>:m

000014a6 <.LVL27>:
    14a6:	1e 03       	popret	RA

000014a8 <__lseek>:
    14a8:	1e 01       	push	RA
    14aa:	ff c0 b7 ff 	bal	(ra),*-0x1460 <_lseek>:m

000014ae <.LVL29>:
    14ae:	1e 03       	popret	RA

000014b0 <__sbrk>:
    14b0:	1e 01       	push	RA
    14b2:	ff c0 b3 ff 	bal	(ra),*-0x1464 <_sbrk>:m

000014b6 <.LVL31>:
    14b6:	1e 03       	popret	RA

000014b8 <__isatty>:
    14b8:	1e 01       	push	RA
    14ba:	ff c0 c3 ff 	bal	(ra),*-0x147c <_isatty>:m

000014be <.LVL33>:
    14be:	1e 03       	popret	RA

000014c0 <_main>:
    14c0:	00 05 80 9e 	movd	$0x9e80:m,(r1,r0)
    14c4:	10 01       	push	$0x2,r0
    14c6:	12 00 00 b0 	loadd	0xa804 <_data_value>:l,(r1,r0)
    14ca:	04 a8 
    14cc:	10 01       	push	$0x2,r0
    14ce:	00 05 8a 9e 	movd	$0x9e8a:m,(r1,r0)
    14d2:	10 01       	push	$0x2,r0
    14d4:	00 c0 40 01 	bal	(ra),*+0x1614 <_printf>:m

000014d8 <.LVL34>:
    14d8:	02 5a       	movw	$0x0:s,r2
    14da:	00 c0 1e 00 	bal	(ra),*+0x14f8 <_exit>:m

000014de <.LFE19>:
	...

000014e0 <__startmain>:
    14e0:	20 05 5c b0 	movd	$0xb05c:m,(r3,r2)
    14e4:	00 05 88 f0 	movd	$0xf088:m,(r1,r0)
    14e8:	05 55       	movd	(r1,r0),(r6,r5)
    14ea:	14 00 25 c0 	subd	(r3,r2),(r6,r5)
    14ee:	04 5a       	movw	$0x0:s,r4
    14f0:	00 c0 28 00 	bal	(ra),*+0x1518 <_memset>:m

000014f4 <.LBE4>:
    14f4:	ff c0 cd ff 	bal	(ra),*-0x14c0 <_main>:m

000014f8 <_exit>:
    14f8:	27 5b       	movw	r2,r7
    14fa:	03 54       	movd	$0x0:s,(r4,r3)
    14fc:	00 c0 20 1e 	bal	(ra),*+0x331c <___call_exitprocs>:m

00001500 <.LFE18>:
    1500:	12 00 20 b0 	loadd	0x9eb8 <__global_impure_ptr>:l,(r3,r2)
    1504:	b8 9e 
    1506:	02 af 38 00 	loadd	0x38:m(r3,r2),(r1,r0)
    150a:	00 56       	cmpd	$0x0:s,(r1,r0)
    150c:	02 10       	beq	*+0x1510 <.L2>:s
    150e:	d0 00       	jal	(r1,r0)

00001510 <.L2>:
    1510:	72 5b       	movw	r7,r2
    1512:	ff c0 17 ff 	bal	(ra),*-0x1428 <__exit>:m

00001516 <.LFE0>:
	...

00001518 <_memset>:
    1518:	1e 01       	push	RA
    151a:	37 01       	push	$0x4,r7
    151c:	28 55       	movd	(r3,r2),(r9,r8)
    151e:	4a 5b       	movw	r4,r10
    1520:	20 55       	movd	(r3,r2),(r1,r0)
    1522:	40 00 00 00 	andd	$0x3:l,(r1,r0)
    1526:	03 00 
    1528:	00 56       	cmpd	$0x0:s,(r1,r0)
    152a:	0e 15       	beq	*+0x15e6 <.L15>:s
    152c:	52 55       	movd	(r6,r5),(r3,r2)
    152e:	92 60       	addd	$-1:s,(r3,r2)
    1530:	47 59       	movb	r4,r7
    1532:	80 55       	movd	(r9,r8),(r1,r0)
    1534:	05 56       	cmpd	$0x0:s,(r6,r5)
    1536:	17 10       	bne	*+0x1544 <.L24>:s
    1538:	e3 15       	br	*+0x15de <.L17>:s

0000153a <.L6>:
    153a:	24 55       	movd	(r3,r2),(r5,r4)
    153c:	94 60       	addd	$-1:s,(r5,r4)
    153e:	02 56       	cmpd	$0x0:s,(r3,r2)
    1540:	0f 14       	beq	*+0x15de <.L17>:s
    1542:	42 55       	movd	(r5,r4),(r3,r2)

00001544 <.L24>:
    1544:	70 f0       	storb	r7,0x0:s(r1,r0)
    1546:	10 60       	addd	$0x1:s,(r1,r0)
    1548:	04 55       	movd	(r1,r0),(r5,r4)
    154a:	44 00 00 00 	andd	$0x3:l,(r5,r4)
    154e:	03 00 
    1550:	04 56       	cmpd	$0x0:s,(r5,r4)
    1552:	14 1f       	bne	*-0x153a <.L6>:s
    1554:	32 56       	cmpd	$0x3:s,(r3,r2)
    1556:	bc 13       	bhs	*+0x15ce <.L13>:s

00001558 <.L7>:
    1558:	a4 5b       	movw	r10,r4
    155a:	b4 22 ff 00 	andw	$0xff:m,r4
    155e:	45 5b       	movw	r4,r5
    1560:	85 42       	ashuw	$8:s,r5
    1562:	54 27       	orw	r5,r4
    1564:	44 5f       	movzw	r4,(r5,r4)
    1566:	4e 55       	movd	(r5,r4),(ra)
    1568:	0e 4d       	ashud	$16:s,(ra)
    156a:	14 00 4e 90 	ord	(r5,r4),(ra)
    156e:	04 55       	movd	(r1,r0),(r5,r4)
    1570:	26 55       	movd	(r3,r2),(r7,r6)
    1572:	f2 56       	cmpd	$0xf:s,(r3,r2)
    1574:	be 13       	bhs	*+0x15f0 <.L27>:s

00001576 <.L20>:
    1576:	e4 e0       	stord	(ra),0x0:s(r5,r4)
    1578:	e4 e2       	stord	(ra),0x4:s(r5,r4)
    157a:	e4 e4       	stord	(ra),0x8:s(r5,r4)
    157c:	e4 e6       	stord	(ra),0xc:s(r5,r4)
    157e:	b4 60 10 00 	addd	$0x10:m,(r5,r4)
    1582:	b6 60 f0 ff 	addd	$0xfff0:m,(r7,r6)
    1586:	f6 56       	cmpd	$0xf:s,(r7,r6)
    1588:	a7 1f       	blo	*-0x1576 <.L20>:s
    158a:	26 55       	movd	(r3,r2),(r7,r6)
    158c:	b6 60 f0 ff 	addd	$0xfff0:m,(r7,r6)
    1590:	46 00 ff ff 	andd	$0xfffffff0:l,(r7,r6)
    1594:	f0 ff 
    1596:	b6 60 10 00 	addd	$0x10:m,(r7,r6)
    159a:	06 61       	addd	(r1,r0),(r7,r6)
    159c:	42 00 00 00 	andd	$0xf:l,(r3,r2)
    15a0:	0f 00 
    15a2:	60 55       	movd	(r7,r6),(r1,r0)
    15a4:	32 56       	cmpd	$0x3:s,(r3,r2)
    15a6:	b4 11       	bhs	*+0x15ce <.L13>:s

000015a8 <.L12>:
    15a8:	64 55       	movd	(r7,r6),(r5,r4)
    15aa:	20 55       	movd	(r3,r2),(r1,r0)

000015ac <.L10>:
    15ac:	e4 e0       	stord	(ra),0x0:s(r5,r4)
    15ae:	44 60       	addd	$0x4:s,(r5,r4)
    15b0:	b0 60 fc ff 	addd	$0xfffc:m,(r1,r0)
    15b4:	30 56       	cmpd	$0x3:s,(r1,r0)
    15b6:	ab 1f       	blo	*-0x15ac <.L10>:s
    15b8:	20 55       	movd	(r3,r2),(r1,r0)
    15ba:	b0 60 fc ff 	addd	$0xfffc:m,(r1,r0)
    15be:	40 00 ff ff 	andd	$0xfffffffc:l,(r1,r0)
    15c2:	fc ff 
    15c4:	40 60       	addd	$0x4:s,(r1,r0)
    15c6:	42 00 00 00 	andd	$0x3:l,(r3,r2)
    15ca:	03 00 
    15cc:	60 61       	addd	(r7,r6),(r1,r0)

000015ce <.L13>:
    15ce:	04 55       	movd	(r1,r0),(r5,r4)
    15d0:	24 61       	addd	(r3,r2),(r5,r4)
    15d2:	02 56       	cmpd	$0x0:s,(r3,r2)
    15d4:	05 10       	beq	*+0x15de <.L17>:s

000015d6 <.L19>:
    15d6:	a0 f0       	storb	r10,0x0:s(r1,r0)
    15d8:	10 60       	addd	$0x1:s,(r1,r0)
    15da:	40 57       	cmpd	(r5,r4),(r1,r0)
    15dc:	1d 1f       	bne	*-0x15d6 <.L19>:s

000015de <.L17>:
    15de:	80 5b       	movw	r8,r0
    15e0:	91 5b       	movw	r9,r1
    15e2:	37 02       	pop	$0x4,r7
    15e4:	1e 03       	popret	RA

000015e6 <.L15>:
    15e6:	20 55       	movd	(r3,r2),(r1,r0)
    15e8:	52 55       	movd	(r6,r5),(r3,r2)
    15ea:	32 56       	cmpd	$0x3:s,(r3,r2)
    15ec:	a6 1b       	blo	*-0x1558 <.L7>:s
    15ee:	e0 1f       	br	*-0x15ce <.L13>:s

000015f0 <.L27>:
    15f0:	06 55       	movd	(r1,r0),(r7,r6)
    15f2:	eb 1d       	br	*-0x15a8 <.L12>:s

000015f4 <__printf_r>:
    15f4:	1e 01       	push	RA
    15f6:	1c 01       	push	$0x2,r12
    15f8:	fc 55       	movd	(sp),(r12)
    15fa:	2f a4       	loadd	0x8:s(sp),(r3,r2)

000015fc <.LFE0>:
    15fc:	0f a6       	loadd	0xc:s(sp),(r1,r0)
    15fe:	bc 60 10 00 	addd	$0x10:m,(r12)
    1602:	42 a4       	loadd	0x8:s(r3,r2),(r5,r4)
    1604:	1c 01       	push	$0x2,r12
    1606:	10 01       	push	$0x2,r0
    1608:	00 c0 2c 00 	bal	(ra),*+0x1634 <__vfprintf_r>:m

0000160c <.LVL2>:
    160c:	8f 60       	addd	$0x8:s,(sp)
    160e:	1c 02       	pop	$0x2,r12
    1610:	1e 03       	popret	RA

00001612 <.LFE0>:
	...

00001614 <_printf>:
    1614:	1e 01       	push	RA
    1616:	1c 01       	push	$0x2,r12
    1618:	fc 55       	movd	(sp),(r12)
    161a:	0f a4       	loadd	0x8:s(sp),(r1,r0)
    161c:	12 00 20 b0 	loadd	0xa808 <__impure_ptr>:l,(r3,r2)
    1620:	08 a8 
    1622:	cc 60       	addd	$0xc:s,(r12)
    1624:	42 a4       	loadd	0x8:s(r3,r2),(r5,r4)
    1626:	1c 01       	push	$0x2,r12
    1628:	10 01       	push	$0x2,r0
    162a:	00 c0 0a 00 	bal	(ra),*+0x1634 <__vfprintf_r>:m

0000162e <.LVL6>:
    162e:	8f 60       	addd	$0x8:s,(sp)
    1630:	1c 02       	pop	$0x2,r12
    1632:	1e 03       	popret	RA

00001634 <__vfprintf_r>:
    1634:	9d 01       	push	$0x2,r13,RA
    1636:	67 01       	push	$0x7,r7
    1638:	bf 60 04 fb 	addd	$0xfb04:m,(sp)
    163c:	fc 55       	movd	(sp),(r12)
    163e:	2f ef c0 04 	stord	(r3,r2),0x4c0:m(sp)
    1642:	4f ef b8 04 	stord	(r5,r4),0x4b8:m(sp)
    1646:	8f af 12 05 	loadd	0x512:m(sp),(r9,r8)
    164a:	bc 60 12 05 	addd	$0x512:m,(r12)
    164e:	cc a2       	loadd	0x4:s(r12),(r12)
    1650:	cf ef c8 04 	stord	(r12),0x4c8:m(sp)
    1654:	00 c0 a6 3b 	bal	(ra),*+0x51fa <__localeconv_r>:m

00001658 <.LVL1>:
    1658:	c0 a0       	loadd	0x0:s(r1,r0),(r12)
    165a:	cf ef dc 04 	stord	(r12),0x4dc:m(sp)
    165e:	c2 55       	movd	(r12),(r3,r2)
    1660:	00 c0 ac 53 	bal	(ra),*+0x6a0c <_strlen>:m

00001664 <.LVL3>:
    1664:	0f df e8 04 	storw	r0,0x4e8:m(sp)
    1668:	1f df ec 04 	storw	r1,0x4ec:m(sp)
    166c:	cf af c0 04 	loadd	0x4c0:m(sp),(r12)
    1670:	0c 56       	cmpd	$0x0:s,(r12)
    1672:	06 10       	beq	*+0x167e <.L2>:s
    1674:	0c 9f 34 00 	loadw	0x34:m(r12),r0
    1678:	00 52       	cmpw	$0x0:s,r0
    167a:	00 18 e8 05 	beq	*+0x1c62 <.L406>:m

0000167e <.L2>:
    167e:	cf af b8 04 	loadd	0x4b8:m(sp),(r12)
    1682:	2c 94       	loadw	0x8:s(r12),r2
    1684:	20 5b       	movw	r2,r0
    1686:	b0 22 00 20 	andw	$0x2000:m,r0
    168a:	00 52       	cmpw	$0x0:s,r0
    168c:	1a 10       	bne	*+0x16a0 <.L3>:s
    168e:	b2 26 00 20 	orw	$0x2000:m,r2
    1692:	2c d4       	storw	r2,0x8:s(r12)
    1694:	0c 9f 58 00 	loadw	0x58:m(r12),r0
    1698:	b0 22 ff df 	andw	$0xdfff:m,r0
    169c:	0c df 58 00 	storw	r0,0x58:m(r12)

000016a0 <.L3>:
    16a0:	20 5b       	movw	r2,r0
    16a2:	80 22       	andw	$0x8:s,r0
    16a4:	00 52       	cmpw	$0x0:s,r0
    16a6:	00 18 a8 04 	beq	*+0x1b4e <.L4>:m
    16aa:	cf af b8 04 	loadd	0x4b8:m(sp),(r12)
    16ae:	0c a6       	loadd	0xc:s(r12),(r1,r0)
    16b0:	00 56       	cmpd	$0x0:s,(r1,r0)
    16b2:	00 18 9c 04 	beq	*+0x1b4e <.L4>:m
    16b6:	20 5b       	movw	r2,r0
    16b8:	b0 22 1a 00 	andw	$0x1a:m,r0
    16bc:	a0 52       	cmpw	$0xa:s,r0
    16be:	00 18 b2 04 	beq	*+0x1b70 <.L407>:m

000016c2 <.L8>:
    16c2:	ff ef 84 04 	stord	(sp),0x484:m(sp)
    16c6:	0f c3 8a 04 	storw	$0x0:s,0x48a:m(sp)
    16ca:	0f c3 88 04 	storw	$0x0:s,0x488:m(sp)
    16ce:	8f ef b4 04 	stord	(r9,r8),0x4b4:m(sp)
    16d2:	0f c3 d6 04 	storw	$0x0:s,0x4d6:m(sp)
    16d6:	00 54       	movd	$0x0:s,(r1,r0)
    16d8:	02 54       	movd	$0x0:s,(r3,r2)
    16da:	0f ef e0 04 	stord	(r1,r0),0x4e0:m(sp)
    16de:	2f ef e4 04 	stord	(r3,r2),0x4e4:m(sp)
    16e2:	07 54       	movd	$0x0:s,(r8,r7)
    16e4:	7f ef f0 04 	stord	(r8,r7),0x4f0:m(sp)
    16e8:	8f 9f d6 04 	loadw	0x4d6:m(sp),r8
    16ec:	8f df ea 04 	storw	r8,0x4ea:m(sp)
    16f0:	8f df be 04 	storw	r8,0x4be:m(sp)
    16f4:	fd 55       	movd	(sp),(r13)
    16f6:	fc 55       	movd	(sp),(r12)
    16f8:	bc 60 84 04 	addd	$0x484:m,(r12)
    16fc:	cf ef a8 04 	stord	(r12),0x4a8:m(sp)
    1700:	f7 55       	movd	(sp),(r8,r7)
    1702:	b7 60 83 04 	addd	$0x483:m,(r8,r7)
    1706:	7f ef ac 04 	stord	(r8,r7),0x4ac:m(sp)
    170a:	8f 9f a8 04 	loadw	0x4a8:m(sp),r8
    170e:	78 3b       	subw	r7,r8
    1710:	8f df ee 04 	storw	r8,0x4ee:m(sp)

00001714 <.L374>:
    1714:	cf af b4 04 	loadd	0x4b4:m(sp),(r12)
    1718:	0c b0       	loadb	0x0:s(r12),r0
    171a:	00 50       	cmpb	$0x0:s,r0
    171c:	11 08       	sne	r1
    171e:	01 52       	cmpw	$0x0:s,r1
    1720:	00 18 ec 03 	beq	*+0x1b0c <.L260>:m

00001724 <.L417>:
    1724:	b0 50 25 00 	cmpb	$0x25:m,r0
    1728:	10 08       	sne	r0
    172a:	00 52       	cmpw	$0x0:s,r0
    172c:	00 18 e0 03 	beq	*+0x1b0c <.L260>:m
    1730:	c8 55       	movd	(r12),(r9,r8)
    1732:	e5 10       	br	*+0x173c <.L13>:s

00001734 <.L408>:
    1734:	00 50       	cmpb	$0x0:s,r0
    1736:	10 08       	sne	r0
    1738:	00 52       	cmpw	$0x0:s,r0
    173a:	08 10       	beq	*+0x174a <.L280>:s

0000173c <.L13>:
    173c:	18 60       	addd	$0x1:s,(r9,r8)
    173e:	08 b0       	loadb	0x0:s(r9,r8),r0
    1740:	b0 50 25 00 	cmpb	$0x25:m,r0
    1744:	11 08       	sne	r1
    1746:	01 52       	cmpw	$0x0:s,r1
    1748:	16 1f       	bne	*-0x1734 <.L408>:s

0000174a <.L280>:
    174a:	8a 5b       	movw	r8,r10
    174c:	0f 9f b4 04 	loadw	0x4b4:m(sp),r0
    1750:	0a 3b       	subw	r0,r10
    1752:	0a 52       	cmpw	$0x0:s,r10
    1754:	09 11       	beq	*+0x1786 <.L12>:s
    1756:	1f af b4 04 	loadd	0x4b4:m(sp),(r2,r1)
    175a:	1d e0       	stord	(r2,r1),0x0:s(r13)
    175c:	a0 5e       	movxw	r10,(r1,r0)
    175e:	0d e2       	stord	(r1,r0),0x4:s(r13)
    1760:	7f 9f 8a 04 	loadw	0x48a:m(sp),r7
    1764:	a7 33       	addw	r10,r7
    1766:	7f df 8a 04 	storw	r7,0x48a:m(sp)
    176a:	bf 9f 88 04 	loadw	0x488:m(sp),r11
    176e:	1b 32       	addw	$0x1:s,r11
    1770:	bf df 88 04 	storw	r11,0x488:m(sp)
    1774:	7b 52       	cmpw	$0x7:s,r11
    1776:	c0 18 cc 04 	blt	*+0x1c42 <.L15>:m
    177a:	8d 60       	addd	$0x8:s,(r13)

0000177c <.L16>:
    177c:	7f 9f be 04 	loadw	0x4be:m(sp),r7
    1780:	a7 33       	addw	r10,r7
    1782:	7f df be 04 	storw	r7,0x4be:m(sp)

00001786 <.L12>:
    1786:	08 b0       	loadb	0x0:s(r9,r8),r0
    1788:	00 50       	cmpb	$0x0:s,r0
    178a:	00 18 7a 04 	beq	*+0x1c04 <.L18>:m
    178e:	8c 55       	movd	(r9,r8),(r12)
    1790:	1c 60       	addd	$0x1:s,(r12)
    1792:	cf ef b4 04 	stord	(r12),0x4b4:m(sp)
    1796:	0f 83 a6 04 	storb	$0x0:s,0x4a6:m(sp)
    179a:	04 58       	movb	$0x0:s,r4
    179c:	9a 5a       	movw	$-1:s,r10
    179e:	0f c3 b2 04 	storw	$0x0:s,0x4b2:m(sp)
    17a2:	7f 9f b2 04 	loadw	0x4b2:m(sp),r7
    17a6:	7f df b0 04 	storw	r7,0x4b0:m(sp)
    17aa:	20 05 fc 9e 	movd	$0x9efc:m,(r3,r2)
    17ae:	75 5b       	movw	r7,r5
    17b0:	c0 55       	movd	(r12),(r1,r0)

000017b2 <.L371>:
    17b2:	80 b0       	loadb	0x0:s(r1,r0),r8
    17b4:	88 5c       	movxb	r8,r8
    17b6:	10 60       	addd	$0x1:s,(r1,r0)

000017b8 <.L372>:
    17b8:	86 5b       	movw	r8,r6
    17ba:	b6 32 e0 ff 	addw	$0xffe0:m,r6
    17be:	b6 52 58 00 	cmpw	$0x58:m,r6
    17c2:	b0 18 52 03 	bhs	*+0x1b14 <.L409>:m

000017c6 <.L22>:
    17c6:	0f ef b4 04 	stord	(r1,r0),0x4b4:m(sp)
    17ca:	8f df d8 04 	storw	r8,0x4d8:m(sp)
    17ce:	4f ff a6 04 	storb	r4,0x4a6:m(sp)
    17d2:	08 52       	cmpw	$0x0:s,r8
    17d4:	00 18 30 04 	beq	*+0x1c04 <.L18>:m
    17d8:	8f ff 5c 04 	storb	r8,0x45c:m(sp)
    17dc:	0f 83 a6 04 	storb	$0x0:s,0x4a6:m(sp)

000017e0 <.L398>:
    17e0:	0b 58       	movb	$0x0:s,r11
    17e2:	1f c3 bc 04 	storw	$0x1:s,0x4bc:m(sp)
    17e6:	7f 9f bc 04 	loadw	0x4bc:m(sp),r7
    17ea:	7f df c4 04 	storw	r7,0x4c4:m(sp)
    17ee:	0f c3 d4 04 	storw	$0x0:s,0x4d4:m(sp)
    17f2:	8f 9f d4 04 	loadw	0x4d4:m(sp),r8
    17f6:	8f df da 04 	storw	r8,0x4da:m(sp)
    17fa:	fc 55       	movd	(sp),(r12)
    17fc:	bc 60 5c 04 	addd	$0x45c:m,(r12)
    1800:	cf ef d0 04 	stord	(r12),0x4d0:m(sp)

00001804 <.L152>:
    1804:	8f 9f b0 04 	loadw	0x4b0:m(sp),r8
    1808:	28 22       	andw	$0x2:s,r8
    180a:	8f df cc 04 	storw	r8,0x4cc:m(sp)
    180e:	08 52       	cmpw	$0x0:s,r8
    1810:	06 10       	beq	*+0x181c <.L153>:s
    1812:	9f 9f bc 04 	loadw	0x4bc:m(sp),r9
    1816:	29 32       	addw	$0x2:s,r9
    1818:	9f df bc 04 	storw	r9,0x4bc:m(sp)

0000181c <.L153>:
    181c:	7f 9f b0 04 	loadw	0x4b0:m(sp),r7
    1820:	b7 22 84 00 	andw	$0x84:m,r7
    1824:	7f df ce 04 	storw	r7,0x4ce:m(sp)
    1828:	07 52       	cmpw	$0x0:s,r7
    182a:	10 18 84 09 	bne	*+0x21ae <.L399>:m
    182e:	af 9f b2 04 	loadw	0x4b2:m(sp),r10
    1832:	8f 9f bc 04 	loadw	0x4bc:m(sp),r8
    1836:	8a 3b       	subw	r8,r10
    1838:	0a 52       	cmpw	$0x0:s,r10
    183a:	d0 18 74 09 	bge	*+0x21ae <.L399>:m
    183e:	7f 9f 8a 04 	loadw	0x48a:m(sp),r7
    1842:	bf 9f 88 04 	loadw	0x488:m(sp),r11
    1846:	c0 05 60 a0 	movd	$0xa060:m,(r12)
    184a:	ba 52 10 00 	cmpw	$0x10:m,r10
    184e:	d7 13       	bge	*+0x18bc <.L155>:s
    1850:	b8 54 10 00 	movd	$0x10:m,(r9,r8)
    1854:	d0 55       	movd	(r13),(r1,r0)
    1856:	df af b8 04 	loadd	0x4b8:m(sp),(r13)
    185a:	b2 5b       	movw	r11,r2
    185c:	73 5b       	movw	r7,r3
    185e:	a7 5b       	movw	r10,r7
    1860:	af af c0 04 	loadd	0x4c0:m(sp),(r11,r10)
    1864:	e7 10       	br	*+0x1872 <.L158>:s

00001866 <.L411>:
    1866:	80 60       	addd	$0x8:s,(r1,r0)
    1868:	b7 32 f0 ff 	addw	$0xfff0:m,r7
    186c:	b7 52 10 00 	cmpw	$0x10:m,r7
    1870:	d2 12       	bge	*+0x18b4 <.L410>:s

00001872 <.L158>:
    1872:	c0 e0       	stord	(r12),0x0:s(r1,r0)
    1874:	80 e2       	stord	(r9,r8),0x4:s(r1,r0)
    1876:	b3 32 10 00 	addw	$0x10:m,r3
    187a:	3f df 8a 04 	storw	r3,0x48a:m(sp)
    187e:	12 32       	addw	$0x1:s,r2
    1880:	2f df 88 04 	storw	r2,0x488:m(sp)
    1884:	72 52       	cmpw	$0x7:s,r2
    1886:	d0 1f       	bge	*-0x1866 <.L411>:s
    1888:	b0 54 84 04 	movd	$0x484:m,(r1,r0)
    188c:	f0 61       	addd	(sp),(r1,r0)
    188e:	10 01       	push	$0x2,r0
    1890:	d4 55       	movd	(r13),(r5,r4)
    1892:	a2 55       	movd	(r11,r10),(r3,r2)
    1894:	00 c0 f0 51 	bal	(ra),*+0x6a84 <___sprint_r>:m

00001898 <.LVL40>:
    1898:	4f 60       	addd	$0x4:s,(sp)
    189a:	00 52       	cmpw	$0x0:s,r0
    189c:	10 18 86 03 	bne	*+0x1c22 <.L17>:m
    18a0:	f0 55       	movd	(sp),(r1,r0)
    18a2:	3f 9f 8a 04 	loadw	0x48a:m(sp),r3
    18a6:	2f 9f 88 04 	loadw	0x488:m(sp),r2
    18aa:	b7 32 f0 ff 	addw	$0xfff0:m,r7
    18ae:	b7 52 10 00 	cmpw	$0x10:m,r7
    18b2:	c0 1e       	blt	*-0x1872 <.L158>:s

000018b4 <.L410>:
    18b4:	0d 55       	movd	(r1,r0),(r13)
    18b6:	7a 5b       	movw	r7,r10
    18b8:	2b 5b       	movw	r2,r11
    18ba:	37 5b       	movw	r3,r7

000018bc <.L155>:
    18bc:	cd e0       	stord	(r12),0x0:s(r13)
    18be:	a0 5e       	movxw	r10,(r1,r0)
    18c0:	0d e2       	stord	(r1,r0),0x4:s(r13)
    18c2:	a7 33       	addw	r10,r7
    18c4:	7f df 8a 04 	storw	r7,0x48a:m(sp)
    18c8:	1b 32       	addw	$0x1:s,r11
    18ca:	bf df 88 04 	storw	r11,0x488:m(sp)
    18ce:	7b 52       	cmpw	$0x7:s,r11
    18d0:	c0 18 bc 08 	blt	*+0x218c <.L159>:m
    18d4:	8d 60       	addd	$0x8:s,(r13)
    18d6:	bf bf a6 04 	loadb	0x4a6:m(sp),r11

000018da <.L154>:
    18da:	0b 50       	cmpb	$0x0:s,r11
    18dc:	03 11       	beq	*+0x1902 <.L160>:s
    18de:	f0 55       	movd	(sp),(r1,r0)
    18e0:	b0 60 a6 04 	addd	$0x4a6:m,(r1,r0)
    18e4:	0d e0       	stord	(r1,r0),0x0:s(r13)
    18e6:	10 54       	movd	$0x1:s,(r1,r0)
    18e8:	0d e2       	stord	(r1,r0),0x4:s(r13)
    18ea:	17 32       	addw	$0x1:s,r7
    18ec:	7f df 8a 04 	storw	r7,0x48a:m(sp)
    18f0:	bf 9f 88 04 	loadw	0x488:m(sp),r11
    18f4:	1b 32       	addw	$0x1:s,r11
    18f6:	bf df 88 04 	storw	r11,0x488:m(sp)
    18fa:	7b 52       	cmpw	$0x7:s,r11
    18fc:	c0 18 d4 0b 	blt	*+0x24d0 <.L161>:m
    1900:	8d 60       	addd	$0x8:s,(r13)

00001902 <.L160>:
    1902:	8f 9f cc 04 	loadw	0x4cc:m(sp),r8
    1906:	08 52       	cmpw	$0x0:s,r8
    1908:	03 11       	beq	*+0x192e <.L162>:s
    190a:	f0 55       	movd	(sp),(r1,r0)
    190c:	b0 60 a0 04 	addd	$0x4a0:m,(r1,r0)
    1910:	0d e0       	stord	(r1,r0),0x0:s(r13)
    1912:	20 54       	movd	$0x2:s,(r1,r0)
    1914:	0d e2       	stord	(r1,r0),0x4:s(r13)
    1916:	27 32       	addw	$0x2:s,r7
    1918:	7f df 8a 04 	storw	r7,0x48a:m(sp)
    191c:	bf 9f 88 04 	loadw	0x488:m(sp),r11
    1920:	1b 32       	addw	$0x1:s,r11
    1922:	bf df 88 04 	storw	r11,0x488:m(sp)
    1926:	7b 52       	cmpw	$0x7:s,r11
    1928:	c0 18 ce 0b 	blt	*+0x24f6 <.L163>:m
    192c:	8d 60       	addd	$0x8:s,(r13)

0000192e <.L162>:
    192e:	8f 9f ce 04 	loadw	0x4ce:m(sp),r8
    1932:	b8 52 80 00 	cmpw	$0x80:m,r8
    1936:	00 18 90 0a 	beq	*+0x23c6 <.L412>:m

0000193a <.L164>:
    193a:	af 9f d4 04 	loadw	0x4d4:m(sp),r10
    193e:	8f 9f c4 04 	loadw	0x4c4:m(sp),r8
    1942:	8a 3b       	subw	r8,r10
    1944:	0a 52       	cmpw	$0x0:s,r10
    1946:	db 14       	bge	*+0x19dc <.L170>:s
    1948:	bf 9f 88 04 	loadw	0x488:m(sp),r11
    194c:	c0 05 70 a0 	movd	$0xa070:m,(r12)
    1950:	ba 52 10 00 	cmpw	$0x10:m,r10
    1954:	d7 13       	bge	*+0x19c2 <.L171>:s
    1956:	b8 54 10 00 	movd	$0x10:m,(r9,r8)
    195a:	d0 55       	movd	(r13),(r1,r0)
    195c:	df af b8 04 	loadd	0x4b8:m(sp),(r13)
    1960:	b2 5b       	movw	r11,r2
    1962:	73 5b       	movw	r7,r3
    1964:	a7 5b       	movw	r10,r7
    1966:	af af c0 04 	loadd	0x4c0:m(sp),(r11,r10)
    196a:	e7 10       	br	*+0x1978 <.L174>:s

0000196c <.L414>:
    196c:	80 60       	addd	$0x8:s,(r1,r0)
    196e:	b7 32 f0 ff 	addw	$0xfff0:m,r7
    1972:	b7 52 10 00 	cmpw	$0x10:m,r7
    1976:	d2 12       	bge	*+0x19ba <.L413>:s

00001978 <.L174>:
    1978:	c0 e0       	stord	(r12),0x0:s(r1,r0)
    197a:	80 e2       	stord	(r9,r8),0x4:s(r1,r0)
    197c:	b3 32 10 00 	addw	$0x10:m,r3
    1980:	3f df 8a 04 	storw	r3,0x48a:m(sp)
    1984:	12 32       	addw	$0x1:s,r2
    1986:	2f df 88 04 	storw	r2,0x488:m(sp)
    198a:	72 52       	cmpw	$0x7:s,r2
    198c:	d0 1f       	bge	*-0x196c <.L414>:s
    198e:	b0 54 84 04 	movd	$0x484:m,(r1,r0)
    1992:	f0 61       	addd	(sp),(r1,r0)
    1994:	10 01       	push	$0x2,r0
    1996:	d4 55       	movd	(r13),(r5,r4)
    1998:	a2 55       	movd	(r11,r10),(r3,r2)
    199a:	00 c0 ea 50 	bal	(ra),*+0x6a84 <___sprint_r>:m

0000199e <.LVL60>:
    199e:	4f 60       	addd	$0x4:s,(sp)
    19a0:	00 52       	cmpw	$0x0:s,r0
    19a2:	10 18 80 02 	bne	*+0x1c22 <.L17>:m
    19a6:	f0 55       	movd	(sp),(r1,r0)
    19a8:	3f 9f 8a 04 	loadw	0x48a:m(sp),r3
    19ac:	2f 9f 88 04 	loadw	0x488:m(sp),r2
    19b0:	b7 32 f0 ff 	addw	$0xfff0:m,r7
    19b4:	b7 52 10 00 	cmpw	$0x10:m,r7
    19b8:	c0 1e       	blt	*-0x1978 <.L174>:s

000019ba <.L413>:
    19ba:	0d 55       	movd	(r1,r0),(r13)
    19bc:	7a 5b       	movw	r7,r10
    19be:	2b 5b       	movw	r2,r11
    19c0:	37 5b       	movw	r3,r7

000019c2 <.L171>:
    19c2:	cd e0       	stord	(r12),0x0:s(r13)
    19c4:	a0 5e       	movxw	r10,(r1,r0)
    19c6:	0d e2       	stord	(r1,r0),0x4:s(r13)
    19c8:	a7 33       	addw	r10,r7
    19ca:	7f df 8a 04 	storw	r7,0x48a:m(sp)
    19ce:	1b 32       	addw	$0x1:s,r11
    19d0:	bf df 88 04 	storw	r11,0x488:m(sp)
    19d4:	7b 52       	cmpw	$0x7:s,r11
    19d6:	c0 18 d4 0a 	blt	*+0x24aa <.L175>:m
    19da:	8d 60       	addd	$0x8:s,(r13)

000019dc <.L170>:
    19dc:	0f 9f b0 04 	loadw	0x4b0:m(sp),r0
    19e0:	b0 22 00 01 	andw	$0x100:m,r0
    19e4:	00 52       	cmpw	$0x0:s,r0
    19e6:	10 18 d8 08 	bne	*+0x22be <.L176>:m
    19ea:	8f af d0 04 	loadd	0x4d0:m(sp),(r9,r8)
    19ee:	8d e0       	stord	(r9,r8),0x0:s(r13)
    19f0:	9f 9f c4 04 	loadw	0x4c4:m(sp),r9
    19f4:	90 5e       	movxw	r9,(r1,r0)
    19f6:	0d e2       	stord	(r1,r0),0x4:s(r13)
    19f8:	97 33       	addw	r9,r7
    19fa:	7f df 8a 04 	storw	r7,0x48a:m(sp)
    19fe:	bf 9f 88 04 	loadw	0x488:m(sp),r11
    1a02:	1b 32       	addw	$0x1:s,r11
    1a04:	bf df 88 04 	storw	r11,0x488:m(sp)
    1a08:	7b 52       	cmpw	$0x7:s,r11
    1a0a:	c0 18 68 08 	blt	*+0x2272 <.L177>:m

00001a0e <.L403>:
    1a0e:	8d 60       	addd	$0x8:s,(r13)

00001a10 <.L178>:
    1a10:	0f 9f b0 04 	loadw	0x4b0:m(sp),r0
    1a14:	40 22       	andw	$0x4:s,r0
    1a16:	00 52       	cmpw	$0x0:s,r0
    1a18:	00 16       	beq	*+0x1ad8 <.L247>:s
    1a1a:	8f 9f b2 04 	loadw	0x4b2:m(sp),r8
    1a1e:	9f 9f bc 04 	loadw	0x4bc:m(sp),r9
    1a22:	98 3b       	subw	r9,r8
    1a24:	08 52       	cmpw	$0x0:s,r8
    1a26:	d9 15       	bge	*+0x1ad8 <.L247>:s
    1a28:	bf 9f 88 04 	loadw	0x488:m(sp),r11
    1a2c:	c0 05 60 a0 	movd	$0xa060:m,(r12)
    1a30:	b8 52 10 00 	cmpw	$0x10:m,r8
    1a34:	d7 13       	bge	*+0x1aa2 <.L249>:s
    1a36:	b9 54 10 00 	movd	$0x10:m,(r10,r9)
    1a3a:	d0 55       	movd	(r13),(r1,r0)
    1a3c:	df af b8 04 	loadd	0x4b8:m(sp),(r13)
    1a40:	b2 5b       	movw	r11,r2
    1a42:	8b 5b       	movw	r8,r11
    1a44:	73 5b       	movw	r7,r3
    1a46:	7f af c0 04 	loadd	0x4c0:m(sp),(r8,r7)
    1a4a:	e7 10       	br	*+0x1a58 <.L252>:s

00001a4c <.L416>:
    1a4c:	80 60       	addd	$0x8:s,(r1,r0)
    1a4e:	bb 32 f0 ff 	addw	$0xfff0:m,r11
    1a52:	bb 52 10 00 	cmpw	$0x10:m,r11
    1a56:	d2 12       	bge	*+0x1a9a <.L415>:s

00001a58 <.L252>:
    1a58:	c0 e0       	stord	(r12),0x0:s(r1,r0)
    1a5a:	90 e2       	stord	(r10,r9),0x4:s(r1,r0)
    1a5c:	b3 32 10 00 	addw	$0x10:m,r3
    1a60:	3f df 8a 04 	storw	r3,0x48a:m(sp)
    1a64:	12 32       	addw	$0x1:s,r2
    1a66:	2f df 88 04 	storw	r2,0x488:m(sp)
    1a6a:	72 52       	cmpw	$0x7:s,r2
    1a6c:	d0 1f       	bge	*-0x1a4c <.L416>:s
    1a6e:	b0 54 84 04 	movd	$0x484:m,(r1,r0)
    1a72:	f0 61       	addd	(sp),(r1,r0)
    1a74:	10 01       	push	$0x2,r0
    1a76:	d4 55       	movd	(r13),(r5,r4)
    1a78:	72 55       	movd	(r8,r7),(r3,r2)
    1a7a:	00 c0 0a 50 	bal	(ra),*+0x6a84 <___sprint_r>:m

00001a7e <.LVL76>:
    1a7e:	4f 60       	addd	$0x4:s,(sp)
    1a80:	00 52       	cmpw	$0x0:s,r0
    1a82:	10 18 a0 01 	bne	*+0x1c22 <.L17>:m
    1a86:	f0 55       	movd	(sp),(r1,r0)
    1a88:	3f 9f 8a 04 	loadw	0x48a:m(sp),r3
    1a8c:	2f 9f 88 04 	loadw	0x488:m(sp),r2
    1a90:	bb 32 f0 ff 	addw	$0xfff0:m,r11
    1a94:	bb 52 10 00 	cmpw	$0x10:m,r11
    1a98:	c0 1e       	blt	*-0x1a58 <.L252>:s

00001a9a <.L415>:
    1a9a:	0d 55       	movd	(r1,r0),(r13)
    1a9c:	b8 5b       	movw	r11,r8
    1a9e:	2b 5b       	movw	r2,r11
    1aa0:	37 5b       	movw	r3,r7

00001aa2 <.L249>:
    1aa2:	cd e0       	stord	(r12),0x0:s(r13)
    1aa4:	80 5e       	movxw	r8,(r1,r0)
    1aa6:	0d e2       	stord	(r1,r0),0x4:s(r13)
    1aa8:	87 33       	addw	r8,r7
    1aaa:	7f df 8a 04 	storw	r7,0x48a:m(sp)
    1aae:	1b 32       	addw	$0x1:s,r11
    1ab0:	bf df 88 04 	storw	r11,0x488:m(sp)
    1ab4:	7b 52       	cmpw	$0x7:s,r11
    1ab6:	d1 11       	bge	*+0x1ad8 <.L247>:s
    1ab8:	b1 54 84 04 	movd	$0x484:m,(r2,r1)
    1abc:	f1 61       	addd	(sp),(r2,r1)
    1abe:	11 01       	push	$0x2,r1
    1ac0:	4f af bc 04 	loadd	0x4bc:m(sp),(r5,r4)
    1ac4:	2f af c4 04 	loadd	0x4c4:m(sp),(r3,r2)
    1ac8:	00 c0 bc 4f 	bal	(ra),*+0x6a84 <___sprint_r>:m

00001acc <.LVL82>:
    1acc:	4f 60       	addd	$0x4:s,(sp)
    1ace:	00 52       	cmpw	$0x0:s,r0
    1ad0:	10 18 52 01 	bne	*+0x1c22 <.L17>:m
    1ad4:	7f 9f 8a 04 	loadw	0x48a:m(sp),r7

00001ad8 <.L247>:
    1ad8:	0f 9f bc 04 	loadw	0x4bc:m(sp),r0
    1adc:	8f 9f b2 04 	loadw	0x4b2:m(sp),r8
    1ae0:	80 53       	cmpw	r8,r0
    1ae2:	72 10       	ble	*+0x1ae6 <.L253>:s
    1ae4:	80 5b       	movw	r8,r0

00001ae6 <.L253>:
    1ae6:	9f 9f be 04 	loadw	0x4be:m(sp),r9
    1aea:	09 33       	addw	r0,r9
    1aec:	9f df be 04 	storw	r9,0x4be:m(sp)
    1af0:	07 52       	cmpw	$0x0:s,r7
    1af2:	10 18 a6 07 	bne	*+0x2298 <.L254>:m
    1af6:	0f c3 88 04 	storw	$0x0:s,0x488:m(sp)
    1afa:	fd 55       	movd	(sp),(r13)

00001afc <.L425>:
    1afc:	cf af b4 04 	loadd	0x4b4:m(sp),(r12)
    1b00:	0c b0       	loadb	0x0:s(r12),r0
    1b02:	00 50       	cmpb	$0x0:s,r0
    1b04:	11 08       	sne	r1
    1b06:	01 52       	cmpw	$0x0:s,r1
    1b08:	10 18 1d fc 	bne	*-0x1724 <.L417>:m

00001b0c <.L260>:
    1b0c:	8f af b4 04 	loadd	0x4b4:m(sp),(r9,r8)
    1b10:	e0 18 77 fc 	br	*-0x1786 <.L12>:m

00001b14 <.L409>:
    1b14:	66 5f       	movzw	r6,(r7,r6)
    1b16:	26 4c       	ashud	$2:s,(r7,r6)
    1b18:	26 61       	addd	(r3,r2),(r7,r6)
    1b1a:	66 a0       	loadd	0x0:s(r7,r6),(r7,r6)
    1b1c:	e6 0a       	jump	(r7,r6)

00001b1e <.L25>:
    1b1e:	7f af c8 04 	loadd	0x4c8:m(sp),(r8,r7)
    1b22:	87 90       	loadw	0x0:s(r8,r7),r8
    1b24:	8f df b2 04 	storw	r8,0x4b2:m(sp)
    1b28:	cf af c8 04 	loadd	0x4c8:m(sp),(r12)
    1b2c:	2c 60       	addd	$0x2:s,(r12)
    1b2e:	cf ef c8 04 	stord	(r12),0x4c8:m(sp)
    1b32:	08 52       	cmpw	$0x0:s,r8
    1b34:	70 18 7f fc 	ble	*-0x17b2 <.L371>:m
    1b38:	57 5b       	movw	r5,r7
    1b3a:	87 3b       	subw	r8,r7
    1b3c:	7f df b2 04 	storw	r7,0x4b2:m(sp)

00001b40 <.L26>:
    1b40:	8f 9f b0 04 	loadw	0x4b0:m(sp),r8
    1b44:	48 26       	orw	$0x4:s,r8
    1b46:	8f df b0 04 	storw	r8,0x4b0:m(sp)
    1b4a:	e0 18 69 fc 	br	*-0x17b2 <.L371>:m

00001b4e <.L4>:
    1b4e:	4f af b8 04 	loadd	0x4b8:m(sp),(r5,r4)
    1b52:	2f af c0 04 	loadd	0x4c0:m(sp),(r3,r2)
    1b56:	00 c0 da 16 	bal	(ra),*+0x3230 <___swsetup_r>:m

00001b5a <.LVL96>:
    1b5a:	00 52       	cmpw	$0x0:s,r0
    1b5c:	1a 16       	bne	*+0x1c30 <.L258>:s
    1b5e:	cf af b8 04 	loadd	0x4b8:m(sp),(r12)
    1b62:	2c 94       	loadw	0x8:s(r12),r2
    1b64:	20 5b       	movw	r2,r0
    1b66:	b0 22 1a 00 	andw	$0x1a:m,r0
    1b6a:	a0 52       	cmpw	$0xa:s,r0
    1b6c:	10 18 57 fb 	bne	*-0x16c2 <.L8>:m

00001b70 <.L407>:
    1b70:	cf af b8 04 	loadd	0x4b8:m(sp),(r12)
    1b74:	0c 95       	loadw	0xa:s(r12),r0
    1b76:	00 52       	cmpw	$0x0:s,r0
    1b78:	60 18 4b fb 	bgt	*-0x16c2 <.L8>:m

00001b7c <.LBB12>:
    1b7c:	b2 22 fd ff 	andw	$0xfffd:m,r2
    1b80:	2f df 08 04 	storw	r2,0x408:m(sp)
    1b84:	1c 9f 58 00 	loadw	0x58:m(r12),r1
    1b88:	1f df 58 04 	storw	r1,0x458:m(sp)
    1b8c:	0f df 0a 04 	storw	r0,0x40a:m(sp)
    1b90:	0c ac       	loadd	0x18:s(r12),(r1,r0)
    1b92:	0f ef 18 04 	stord	(r1,r0),0x418:m(sp)
    1b96:	0c af 20 00 	loadd	0x20:m(r12),(r1,r0)
    1b9a:	0f ef 20 04 	stord	(r1,r0),0x420:m(sp)
    1b9e:	ff ef 00 04 	stord	(sp),0x400:m(sp)
    1ba2:	ff ef 0c 04 	stord	(sp),0x40c:m(sp)
    1ba6:	b0 5a 00 04 	movw	$0x400:m,r0
    1baa:	0f df 06 04 	storw	r0,0x406:m(sp)
    1bae:	0f df 10 04 	storw	r0,0x410:m(sp)
    1bb2:	0f c3 14 04 	storw	$0x0:s,0x414:m(sp)
    1bb6:	0f af c8 04 	loadd	0x4c8:m(sp),(r1,r0)
    1bba:	10 01       	push	$0x2,r0
    1bbc:	18 01       	push	$0x2,r8
    1bbe:	f4 55       	movd	(sp),(r5,r4)
    1bc0:	b4 60 08 04 	addd	$0x408:m,(r5,r4)
    1bc4:	2f af c8 04 	loadd	0x4c8:m(sp),(r3,r2)
    1bc8:	ff c0 6d fa 	bal	(ra),*-0x1634 <__vfprintf_r>:m

00001bcc <.LVL100>:
    1bcc:	0f df c6 04 	storw	r0,0x4c6:m(sp)
    1bd0:	8f 60       	addd	$0x8:s,(sp)
    1bd2:	00 52       	cmpw	$0x0:s,r0
    1bd4:	6b 10       	bgt	*+0x1bea <.L9>:s
    1bd6:	f4 55       	movd	(sp),(r5,r4)
    1bd8:	b4 60 00 04 	addd	$0x400:m,(r5,r4)
    1bdc:	2f af c0 04 	loadd	0x4c0:m(sp),(r3,r2)
    1be0:	00 c0 7c 2f 	bal	(ra),*+0x4b5c <__fflush_r>:m

00001be4 <.LVL103>:
    1be4:	00 52       	cmpw	$0x0:s,r0
    1be6:	10 18 70 15 	bne	*+0x3156 <.L418>:m

00001bea <.L9>:
    1bea:	0f 9f 08 04 	loadw	0x408:m(sp),r0
    1bee:	b0 22 40 00 	andw	$0x40:m,r0
    1bf2:	00 52       	cmpw	$0x0:s,r0
    1bf4:	01 12       	beq	*+0x1c36 <.L7>:s
    1bf6:	8f af b8 04 	loadd	0x4b8:m(sp),(r9,r8)
    1bfa:	08 94       	loadw	0x8:s(r9,r8),r0
    1bfc:	b0 26 40 00 	orw	$0x40:m,r0
    1c00:	08 d4       	storw	r0,0x8:s(r9,r8)
    1c02:	ea 11       	br	*+0x1c36 <.L7>:s

00001c04 <.L18>:
    1c04:	0f 9f 8a 04 	loadw	0x48a:m(sp),r0
    1c08:	00 52       	cmpw	$0x0:s,r0
    1c0a:	0c 10       	beq	*+0x1c22 <.L17>:s
    1c0c:	f0 55       	movd	(sp),(r1,r0)
    1c0e:	b0 60 84 04 	addd	$0x484:m,(r1,r0)
    1c12:	10 01       	push	$0x2,r0
    1c14:	4f af bc 04 	loadd	0x4bc:m(sp),(r5,r4)
    1c18:	2f af c4 04 	loadd	0x4c4:m(sp),(r3,r2)
    1c1c:	00 c0 68 4e 	bal	(ra),*+0x6a84 <___sprint_r>:m

00001c20 <.LVL108>:
    1c20:	4f 60       	addd	$0x4:s,(sp)

00001c22 <.L17>:
    1c22:	7f af b8 04 	loadd	0x4b8:m(sp),(r8,r7)
    1c26:	07 94       	loadw	0x8:s(r8,r7),r0
    1c28:	b0 22 40 00 	andw	$0x40:m,r0
    1c2c:	00 52       	cmpw	$0x0:s,r0
    1c2e:	04 10       	beq	*+0x1c36 <.L7>:s

00001c30 <.L258>:
    1c30:	97 5a       	movw	$-1:s,r7
    1c32:	7f df be 04 	storw	r7,0x4be:m(sp)

00001c36 <.L7>:
    1c36:	0f 9f be 04 	loadw	0x4be:m(sp),r0
    1c3a:	bf 60 fc 04 	addd	$0x4fc:m,(sp)
    1c3e:	67 02       	pop	$0x7,r7
    1c40:	9d 03       	popret	$0x2,r13,RA

00001c42 <.L15>:
    1c42:	b2 54 84 04 	movd	$0x484:m,(r3,r2)
    1c46:	f2 61       	addd	(sp),(r3,r2)
    1c48:	12 01       	push	$0x2,r2
    1c4a:	4f af bc 04 	loadd	0x4bc:m(sp),(r5,r4)
    1c4e:	2f af c4 04 	loadd	0x4c4:m(sp),(r3,r2)
    1c52:	00 c0 32 4e 	bal	(ra),*+0x6a84 <___sprint_r>:m

00001c56 <.LVL112>:
    1c56:	4f 60       	addd	$0x4:s,(sp)
    1c58:	00 52       	cmpw	$0x0:s,r0
    1c5a:	14 1e       	bne	*-0x1c22 <.L17>:s
    1c5c:	fd 55       	movd	(sp),(r13)
    1c5e:	e0 18 1f fb 	br	*-0x177c <.L16>:m

00001c62 <.L406>:
    1c62:	c2 55       	movd	(r12),(r3,r2)
    1c64:	00 c0 20 30 	bal	(ra),*+0x4c84 <___sinit>:m

00001c68 <.LVL115>:
    1c68:	e0 18 17 fa 	br	*-0x167e <.L2>:m

00001c6c <.L30>:
    1c6c:	0f ef b4 04 	stord	(r1,r0),0x4b4:m(sp)
    1c70:	8f df d8 04 	storw	r8,0x4d8:m(sp)
    1c74:	4f ff a6 04 	storb	r4,0x4a6:m(sp)
    1c78:	7f 9f b0 04 	loadw	0x4b0:m(sp),r7
    1c7c:	b7 26 10 00 	orw	$0x10:m,r7
    1c80:	7f df b0 04 	storw	r7,0x4b0:m(sp)
    1c84:	0f 9f b0 04 	loadw	0x4b0:m(sp),r0
    1c88:	b0 22 10 00 	andw	$0x10:m,r0
    1c8c:	00 52       	cmpw	$0x0:s,r0
    1c8e:	00 18 42 03 	beq	*+0x1fd0 <.L59>:m

00001c92 <.L420>:
    1c92:	cf af c8 04 	loadd	0x4c8:m(sp),(r12)
    1c96:	8c a0       	loadd	0x0:s(r12),(r9,r8)
    1c98:	4c 60       	addd	$0x4:s,(r12)
    1c9a:	cf ef c8 04 	stord	(r12),0x4c8:m(sp)

00001c9e <.L60>:
    1c9e:	08 56       	cmpd	$0x0:s,(r9,r8)
    1ca0:	60 18 da 0c 	bgt	*+0x297a <.L63>:m
    1ca4:	bf bf a6 04 	loadb	0x4a6:m(sp),r11

00001ca8 <.L393>:
    1ca8:	80 5b       	movw	r8,r0
    1caa:	90 27       	orw	r9,r0
    1cac:	00 52       	cmpw	$0x0:s,r0
    1cae:	12 08       	sne	r2
    1cb0:	10 58       	movb	$0x1:s,r0

00001cb2 <.L64>:
    1cb2:	0a 52       	cmpw	$0x0:s,r10
    1cb4:	67 10       	bgt	*+0x1cc2 <.L138>:s
    1cb6:	7f 9f b0 04 	loadw	0x4b0:m(sp),r7
    1cba:	b7 22 7f ff 	andw	$0xff7f:m,r7
    1cbe:	7f df b0 04 	storw	r7,0x4b0:m(sp)

00001cc2 <.L138>:
    1cc2:	0a 52       	cmpw	$0x0:s,r10
    1cc4:	11 08       	sne	r1
    1cc6:	01 52       	cmpw	$0x0:s,r1
    1cc8:	1f 12       	bne	*+0x1d26 <.L281>:s
    1cca:	02 50       	cmpb	$0x0:s,r2
    1ccc:	1d 12       	bne	*+0x1d26 <.L281>:s
    1cce:	00 50       	cmpb	$0x0:s,r0
    1cd0:	10 18 c8 07 	bne	*+0x2498 <.L278>:m
    1cd4:	0f 9f b0 04 	loadw	0x4b0:m(sp),r0
    1cd8:	10 22       	andw	$0x1:s,r0
    1cda:	00 52       	cmpw	$0x0:s,r0
    1cdc:	00 18 18 09 	beq	*+0x25f4 <.L279>:m
    1ce0:	b0 58 30 00 	movb	$0x30:m,r0
    1ce4:	0f ff 83 04 	storb	r0,0x483:m(sp)

00001ce8 <.L394>:
    1ce8:	9f 9f ee 04 	loadw	0x4ee:m(sp),r9
    1cec:	9f df c4 04 	storw	r9,0x4c4:m(sp)
    1cf0:	fc 55       	movd	(sp),(r12)
    1cf2:	bc 60 83 04 	addd	$0x483:m,(r12)
    1cf6:	cf ef d0 04 	stord	(r12),0x4d0:m(sp)

00001cfa <.L146>:
    1cfa:	9f 9f c4 04 	loadw	0x4c4:m(sp),r9
    1cfe:	9f df bc 04 	storw	r9,0x4bc:m(sp)
    1d02:	a9 53       	cmpw	r10,r9
    1d04:	73 10       	ble	*+0x1d0a <.L151>:s
    1d06:	af df bc 04 	storw	r10,0x4bc:m(sp)

00001d0a <.L151>:
    1d0a:	af df d4 04 	storw	r10,0x4d4:m(sp)
    1d0e:	0f c3 da 04 	storw	$0x0:s,0x4da:m(sp)

00001d12 <.L58>:
    1d12:	0b 50       	cmpb	$0x0:s,r11
    1d14:	00 18 f1 fa 	beq	*-0x1804 <.L152>:m

00001d18 <.L373>:
    1d18:	7f 9f bc 04 	loadw	0x4bc:m(sp),r7
    1d1c:	17 32       	addw	$0x1:s,r7
    1d1e:	7f df bc 04 	storw	r7,0x4bc:m(sp)
    1d22:	e0 18 e3 fa 	br	*-0x1804 <.L152>:m

00001d26 <.L281>:
    1d26:	10 50       	cmpb	$0x1:s,r0
    1d28:	00 18 18 09 	beq	*+0x2640 <.L142>:m
    1d2c:	20 50       	cmpb	$0x2:s,r0
    1d2e:	00 18 d8 08 	beq	*+0x2606 <.L143>:m
    1d32:	f0 55       	movd	(sp),(r1,r0)
    1d34:	b0 60 83 04 	addd	$0x483:m,(r1,r0)
    1d38:	b2 58 30 00 	movb	$0x30:m,r2

00001d3c <.L144>:
    1d3c:	06 55       	movd	(r1,r0),(r7,r6)
    1d3e:	84 55       	movd	(r9,r8),(r5,r4)
    1d40:	44 00 00 00 	andd	$0x7:l,(r5,r4)
    1d44:	07 00 
    1d46:	24 31       	addb	r2,r4
    1d48:	40 f0       	storb	r4,0x0:s(r1,r0)
    1d4a:	d8 4b       	lshd	$-3:s,(r9,r8)
    1d4c:	90 60       	addd	$-1:s,(r1,r0)
    1d4e:	08 56       	cmpd	$0x0:s,(r9,r8)
    1d50:	16 1f       	bne	*-0x1d3c <.L144>:s
    1d52:	6f ef d0 04 	stord	(r7,r6),0x4d0:m(sp)
    1d56:	62 55       	movd	(r7,r6),(r3,r2)
    1d58:	5f 9f b0 04 	loadw	0x4b0:m(sp),r5
    1d5c:	15 22       	andw	$0x1:s,r5
    1d5e:	05 52       	cmpw	$0x0:s,r5
    1d60:	10 18 f4 0b 	bne	*+0x2954 <.L145>:m
    1d64:	8f 9f a8 04 	loadw	0x4a8:m(sp),r8
    1d68:	68 3b       	subw	r6,r8
    1d6a:	8f df c4 04 	storw	r8,0x4c4:m(sp)
    1d6e:	e6 1c       	br	*-0x1cfa <.L146>:s

00001d70 <.L31>:
    1d70:	0f ef b4 04 	stord	(r1,r0),0x4b4:m(sp)
    1d74:	8f df d8 04 	storw	r8,0x4d8:m(sp)
    1d78:	4f ff a6 04 	storb	r4,0x4a6:m(sp)
    1d7c:	0f 9f b0 04 	loadw	0x4b0:m(sp),r0
    1d80:	80 22       	andw	$0x8:s,r0
    1d82:	cf af c8 04 	loadd	0x4c8:m(sp),(r12)
    1d86:	00 52       	cmpw	$0x0:s,r0
    1d88:	00 18 d8 0d 	beq	*+0x2b60 <.L65>:m
    1d8c:	4c a0       	loadd	0x0:s(r12),(r5,r4)
    1d8e:	6c a2       	loadd	0x4:s(r12),(r7,r6)
    1d90:	4f ef e0 04 	stord	(r5,r4),0x4e0:m(sp)
    1d94:	6f ef e4 04 	stord	(r7,r6),0x4e4:m(sp)
    1d98:	8c 60       	addd	$0x8:s,(r12)
    1d9a:	cf ef c8 04 	stord	(r12),0x4c8:m(sp)

00001d9e <.L66>:
    1d9e:	0f af e0 04 	loadd	0x4e0:m(sp),(r1,r0)
    1da2:	2f af e4 04 	loadd	0x4e4:m(sp),(r3,r2)
    1da6:	30 01       	push	$0x4,r0
    1da8:	00 c0 60 4a 	bal	(ra),*+0x6808 <___fpclassifyd>:m

00001dac <.LVL146>:
    1dac:	8f 60       	addd	$0x8:s,(sp)
    1dae:	10 52       	cmpw	$0x1:s,r0
    1db0:	10 18 0c 0c 	bne	*+0x29bc <.L67>:m
    1db4:	00 54       	movd	$0x0:s,(r1,r0)
    1db6:	02 54       	movd	$0x0:s,(r3,r2)
    1db8:	30 01       	push	$0x4,r0
    1dba:	2f af e8 04 	loadd	0x4e8:m(sp),(r3,r2)
    1dbe:	4f af ec 04 	loadd	0x4ec:m(sp),(r5,r4)
    1dc2:	32 01       	push	$0x4,r2
    1dc4:	00 c0 00 77 	bal	(ra),*+0x94c4 <___ltdf2>:m
    1dc8:	bf 60 10 00 	addd	$0x10:m,(sp)
    1dcc:	00 52       	cmpw	$0x0:s,r0
    1dce:	60 18 c8 10 	bgt	*+0x2e96 <.L68>:m
    1dd2:	bf bf a6 04 	loadb	0x4a6:m(sp),r11

00001dd6 <.L69>:
    1dd6:	70 05 c2 9e 	movd	$0x9ec2:m,(r8,r7)
    1dda:	7f ef d0 04 	stord	(r8,r7),0x4d0:m(sp)
    1dde:	8f 9f d8 04 	loadw	0x4d8:m(sp),r8
    1de2:	b8 52 47 00 	cmpw	$0x47:m,r8
    1de6:	d0 18 d0 0e 	bge	*+0x2cb6 <.L419>:m

00001dea <.L70>:
    1dea:	7f 9f b0 04 	loadw	0x4b0:m(sp),r7
    1dee:	b7 22 7f ff 	andw	$0xff7f:m,r7
    1df2:	7f df b0 04 	storw	r7,0x4b0:m(sp)

00001df6 <.L396>:
    1df6:	3f c3 bc 04 	storw	$0x3:s,0x4bc:m(sp)
    1dfa:	8f 9f bc 04 	loadw	0x4bc:m(sp),r8
    1dfe:	8f df c4 04 	storw	r8,0x4c4:m(sp)
    1e02:	0f c3 d4 04 	storw	$0x0:s,0x4d4:m(sp)
    1e06:	9f 9f d4 04 	loadw	0x4d4:m(sp),r9
    1e0a:	9f df da 04 	storw	r9,0x4da:m(sp)
    1e0e:	e2 18       	br	*-0x1d12 <.L58>:s

00001e10 <.L36>:
    1e10:	0f ef b4 04 	stord	(r1,r0),0x4b4:m(sp)
    1e14:	8f df d8 04 	storw	r8,0x4d8:m(sp)
    1e18:	cf af c8 04 	loadd	0x4c8:m(sp),(r12)
    1e1c:	0c 90       	loadw	0x0:s(r12),r0
    1e1e:	0f ff 5c 04 	storb	r0,0x45c:m(sp)
    1e22:	0f 83 a6 04 	storb	$0x0:s,0x4a6:m(sp)
    1e26:	2c 60       	addd	$0x2:s,(r12)
    1e28:	cf ef c8 04 	stord	(r12),0x4c8:m(sp)
    1e2c:	e0 18 b5 f9 	br	*-0x17e0 <.L398>:m

00001e30 <.L23>:
    1e30:	04 50       	cmpb	$0x0:s,r4
    1e32:	10 18 81 f9 	bne	*-0x17b2 <.L371>:m
    1e36:	b4 58 20 00 	movb	$0x20:m,r4
    1e3a:	e0 18 79 f9 	br	*-0x17b2 <.L371>:m

00001e3e <.L24>:
    1e3e:	9f 9f b0 04 	loadw	0x4b0:m(sp),r9
    1e42:	19 26       	orw	$0x1:s,r9
    1e44:	9f df b0 04 	storw	r9,0x4b0:m(sp)
    1e48:	e0 18 6b f9 	br	*-0x17b2 <.L371>:m

00001e4c <.L32>:
    1e4c:	8f 9f b0 04 	loadw	0x4b0:m(sp),r8
    1e50:	88 26       	orw	$0x8:s,r8
    1e52:	8f df b0 04 	storw	r8,0x4b0:m(sp)
    1e56:	e0 18 5d f9 	br	*-0x17b2 <.L371>:m

00001e5a <.L33>:
    1e5a:	0f ef b4 04 	stord	(r1,r0),0x4b4:m(sp)
    1e5e:	8f df d8 04 	storw	r8,0x4d8:m(sp)
    1e62:	7f 9f b0 04 	loadw	0x4b0:m(sp),r7
    1e66:	b7 26 10 00 	orw	$0x10:m,r7
    1e6a:	7f df b0 04 	storw	r7,0x4b0:m(sp)

00001e6e <.L49>:
    1e6e:	0f 9f b0 04 	loadw	0x4b0:m(sp),r0
    1e72:	b0 22 10 00 	andw	$0x10:m,r0
    1e76:	00 52       	cmpw	$0x0:s,r0
    1e78:	00 18 54 08 	beq	*+0x26cc <.L119>:m
    1e7c:	cf af c8 04 	loadd	0x4c8:m(sp),(r12)
    1e80:	8c a0       	loadd	0x0:s(r12),(r9,r8)
    1e82:	80 5b       	movw	r8,r0
    1e84:	90 27       	orw	r9,r0
    1e86:	00 52       	cmpw	$0x0:s,r0
    1e88:	12 08       	sne	r2
    1e8a:	4c 60       	addd	$0x4:s,(r12)
    1e8c:	cf ef c8 04 	stord	(r12),0x4c8:m(sp)
    1e90:	00 58       	movb	$0x0:s,r0

00001e92 <.L120>:
    1e92:	0f 83 a6 04 	storb	$0x0:s,0x4a6:m(sp)
    1e96:	0b 58       	movb	$0x0:s,r11
    1e98:	e0 18 1b fe 	br	*-0x1cb2 <.L64>:m

00001e9c <.L34>:
    1e9c:	0f ef b4 04 	stord	(r1,r0),0x4b4:m(sp)
    1ea0:	8f df d8 04 	storw	r8,0x4d8:m(sp)
    1ea4:	9f 9f b0 04 	loadw	0x4b0:m(sp),r9
    1ea8:	b9 26 10 00 	orw	$0x10:m,r9
    1eac:	9f df b0 04 	storw	r9,0x4b0:m(sp)

00001eb0 <.L48>:
    1eb0:	0f 9f b0 04 	loadw	0x4b0:m(sp),r0
    1eb4:	b0 22 10 00 	andw	$0x10:m,r0
    1eb8:	00 52       	cmpw	$0x0:s,r0
    1eba:	00 18 3a 08 	beq	*+0x26f4 <.L132>:m
    1ebe:	cf af c8 04 	loadd	0x4c8:m(sp),(r12)
    1ec2:	8c a0       	loadd	0x0:s(r12),(r9,r8)
    1ec4:	80 5b       	movw	r8,r0
    1ec6:	90 27       	orw	r9,r0
    1ec8:	00 52       	cmpw	$0x0:s,r0
    1eca:	12 08       	sne	r2
    1ecc:	4c 60       	addd	$0x4:s,(r12)
    1ece:	cf ef c8 04 	stord	(r12),0x4c8:m(sp)
    1ed2:	10 58       	movb	$0x1:s,r0
    1ed4:	ef 1d       	br	*-0x1e92 <.L120>:s

00001ed6 <.L35>:
    1ed6:	0f ef b4 04 	stord	(r1,r0),0x4b4:m(sp)
    1eda:	8f df d8 04 	storw	r8,0x4d8:m(sp)
    1ede:	4f ff a6 04 	storb	r4,0x4a6:m(sp)
    1ee2:	80 05 ce 9e 	movd	$0x9ece:m,(r9,r8)
    1ee6:	8f ef f0 04 	stord	(r9,r8),0x4f0:m(sp)

00001eea <.L51>:
    1eea:	0f 9f b0 04 	loadw	0x4b0:m(sp),r0
    1eee:	b0 22 10 00 	andw	$0x10:m,r0
    1ef2:	00 52       	cmpw	$0x0:s,r0
    1ef4:	00 18 dc 01 	beq	*+0x20d0 <.L134>:m

00001ef8 <.L422>:
    1ef8:	cf af c8 04 	loadd	0x4c8:m(sp),(r12)
    1efc:	8c a0       	loadd	0x0:s(r12),(r9,r8)
    1efe:	4c 60       	addd	$0x4:s,(r12)
    1f00:	cf ef c8 04 	stord	(r12),0x4c8:m(sp)
    1f04:	0f 9f b0 04 	loadw	0x4b0:m(sp),r0
    1f08:	10 22       	andw	$0x1:s,r0
    1f0a:	00 52       	cmpw	$0x0:s,r0
    1f0c:	10 18 de 01 	bne	*+0x20ea <.L137>:m

00001f10 <.L423>:
    1f10:	80 5b       	movw	r8,r0
    1f12:	90 27       	orw	r9,r0
    1f14:	00 52       	cmpw	$0x0:s,r0
    1f16:	12 08       	sne	r2
    1f18:	20 58       	movb	$0x2:s,r0
    1f1a:	ec 1b       	br	*-0x1e92 <.L120>:s

00001f1c <.L27>:
    1f1c:	80 b0       	loadb	0x0:s(r1,r0),r8
    1f1e:	88 5c       	movxb	r8,r8
    1f20:	10 60       	addd	$0x1:s,(r1,r0)
    1f22:	b8 52 2a 00 	cmpw	$0x2a:m,r8
    1f26:	00 18 aa 12 	beq	*+0x31d0 <.L53>:m
    1f2a:	86 5b       	movw	r8,r6
    1f2c:	b6 32 d0 ff 	addw	$0xffd0:m,r6
    1f30:	0a 5a       	movw	$0x0:s,r10
    1f32:	b6 52 09 00 	cmpw	$0x9:m,r6
    1f36:	a0 18 83 f8 	blo	*-0x17b8 <.L372>:m

00001f3a <.L333>:
    1f3a:	a7 5b       	movw	r10,r7
    1f3c:	a7 33       	addw	r10,r7
    1f3e:	3a 42       	ashuw	$3:s,r10
    1f40:	7a 33       	addw	r7,r10
    1f42:	6a 33       	addw	r6,r10
    1f44:	80 b0       	loadb	0x0:s(r1,r0),r8
    1f46:	88 5c       	movxb	r8,r8
    1f48:	10 60       	addd	$0x1:s,(r1,r0)
    1f4a:	86 5b       	movw	r8,r6
    1f4c:	b6 32 d0 ff 	addw	$0xffd0:m,r6
    1f50:	b6 52 09 00 	cmpw	$0x9:m,r6
    1f54:	b3 1f       	bhs	*-0x1f3a <.L333>:s
    1f56:	0a 52       	cmpw	$0x0:s,r10
    1f58:	70 18 61 f8 	ble	*-0x17b8 <.L372>:m
    1f5c:	9a 5a       	movw	$-1:s,r10
    1f5e:	e0 18 5b f8 	br	*-0x17b8 <.L372>:m

00001f62 <.L38>:
    1f62:	9f 9f b0 04 	loadw	0x4b0:m(sp),r9
    1f66:	b9 26 40 00 	orw	$0x40:m,r9
    1f6a:	9f df b0 04 	storw	r9,0x4b0:m(sp)
    1f6e:	e0 18 45 f8 	br	*-0x17b2 <.L371>:m

00001f72 <.L261>:
    1f72:	b4 58 2b 00 	movb	$0x2b:m,r4
    1f76:	e0 18 3d f8 	br	*-0x17b2 <.L371>:m

00001f7a <.L28>:
    1f7a:	7f 9f b0 04 	loadw	0x4b0:m(sp),r7
    1f7e:	b7 26 80 00 	orw	$0x80:m,r7
    1f82:	7f df b0 04 	storw	r7,0x4b0:m(sp)
    1f86:	e0 18 2d f8 	br	*-0x17b2 <.L371>:m

00001f8a <.L262>:
    1f8a:	07 5a       	movw	$0x0:s,r7
    1f8c:	86 5b       	movw	r8,r6
    1f8e:	b6 32 d0 ff 	addw	$0xffd0:m,r6

00001f92 <.L29>:
    1f92:	78 5b       	movw	r7,r8
    1f94:	78 33       	addw	r7,r8
    1f96:	37 42       	ashuw	$3:s,r7
    1f98:	87 33       	addw	r8,r7
    1f9a:	67 33       	addw	r6,r7
    1f9c:	80 b0       	loadb	0x0:s(r1,r0),r8
    1f9e:	88 5c       	movxb	r8,r8
    1fa0:	10 60       	addd	$0x1:s,(r1,r0)
    1fa2:	86 5b       	movw	r8,r6
    1fa4:	b6 32 d0 ff 	addw	$0xffd0:m,r6
    1fa8:	b6 52 09 00 	cmpw	$0x9:m,r6
    1fac:	b3 1f       	bhs	*-0x1f92 <.L29>:s
    1fae:	7f df b2 04 	storw	r7,0x4b2:m(sp)
    1fb2:	e0 18 07 f8 	br	*-0x17b8 <.L372>:m

00001fb6 <.L37>:
    1fb6:	0f ef b4 04 	stord	(r1,r0),0x4b4:m(sp)
    1fba:	8f df d8 04 	storw	r8,0x4d8:m(sp)
    1fbe:	4f ff a6 04 	storb	r4,0x4a6:m(sp)
    1fc2:	0f 9f b0 04 	loadw	0x4b0:m(sp),r0
    1fc6:	b0 22 10 00 	andw	$0x10:m,r0
    1fca:	00 52       	cmpw	$0x0:s,r0
    1fcc:	10 18 c7 fc 	bne	*-0x1c92 <.L420>:m

00001fd0 <.L59>:
    1fd0:	cf af c8 04 	loadd	0x4c8:m(sp),(r12)
    1fd4:	8c 90       	loadw	0x0:s(r12),r8
    1fd6:	2c 60       	addd	$0x2:s,(r12)
    1fd8:	cf ef c8 04 	stord	(r12),0x4c8:m(sp)
    1fdc:	88 5e       	movxw	r8,(r9,r8)
    1fde:	e0 18 c1 fc 	br	*-0x1c9e <.L60>:m

00001fe2 <.L42>:
    1fe2:	0f ef b4 04 	stord	(r1,r0),0x4b4:m(sp)
    1fe6:	cf af c8 04 	loadd	0x4c8:m(sp),(r12)
    1fea:	8c a0       	loadd	0x0:s(r12),(r9,r8)
    1fec:	7f 9f b0 04 	loadw	0x4b0:m(sp),r7
    1ff0:	27 26       	orw	$0x2:s,r7
    1ff2:	7f df b0 04 	storw	r7,0x4b0:m(sp)
    1ff6:	b0 58 30 00 	movb	$0x30:m,r0
    1ffa:	0f ff a0 04 	storb	r0,0x4a0:m(sp)
    1ffe:	b0 58 78 00 	movb	$0x78:m,r0
    2002:	0f ff a1 04 	storb	r0,0x4a1:m(sp)
    2006:	80 5b       	movw	r8,r0
    2008:	90 27       	orw	r9,r0
    200a:	00 52       	cmpw	$0x0:s,r0
    200c:	12 08       	sne	r2
    200e:	4c 60       	addd	$0x4:s,(r12)
    2010:	cf ef c8 04 	stord	(r12),0x4c8:m(sp)
    2014:	c0 05 e0 9e 	movd	$0x9ee0:m,(r12)
    2018:	cf ef f0 04 	stord	(r12),0x4f0:m(sp)
    201c:	20 58       	movb	$0x2:s,r0
    201e:	b7 5a 78 00 	movw	$0x78:m,r7
    2022:	7f df d8 04 	storw	r7,0x4d8:m(sp)
    2026:	e0 18 6d fe 	br	*-0x1e92 <.L120>:m

0000202a <.L43>:
    202a:	8f 9f b0 04 	loadw	0x4b0:m(sp),r8
    202e:	b8 26 10 00 	orw	$0x10:m,r8
    2032:	8f df b0 04 	storw	r8,0x4b0:m(sp)
    2036:	e0 18 7d f7 	br	*-0x17b2 <.L371>:m

0000203a <.L44>:
    203a:	0f ef b4 04 	stord	(r1,r0),0x4b4:m(sp)
    203e:	8f df d8 04 	storw	r8,0x4d8:m(sp)
    2042:	0f 83 a6 04 	storb	$0x0:s,0x4a6:m(sp)
    2046:	8f af c8 04 	loadd	0x4c8:m(sp),(r9,r8)
    204a:	48 60       	addd	$0x4:s,(r9,r8)
    204c:	0f af c8 04 	loadd	0x4c8:m(sp),(r1,r0)
    2050:	10 a0       	loadd	0x0:s(r1,r0),(r2,r1)
    2052:	1f ef d0 04 	stord	(r2,r1),0x4d0:m(sp)
    2056:	01 56       	cmpd	$0x0:s,(r2,r1)
    2058:	00 18 f8 0d 	beq	*+0x2e50 <.L421>:m
    205c:	0a 52       	cmpw	$0x0:s,r10
    205e:	60 18 30 0d 	bgt	*+0x2d8e <.L125>:m
    2062:	a5 5e       	movxw	r10,(r6,r5)
    2064:	04 5a       	movw	$0x0:s,r4
    2066:	2f af d0 04 	loadd	0x4d0:m(sp),(r3,r2)
    206a:	00 c0 0a 3a 	bal	(ra),*+0x5a74 <_memchr>:m

0000206e <.LVL229>:
    206e:	00 56       	cmpd	$0x0:s,(r1,r0)
    2070:	00 18 fc 00 	beq	*+0x216c <.L397>:m
    2074:	07 5b       	movw	r0,r7
    2076:	2f 9f d0 04 	loadw	0x4d0:m(sp),r2
    207a:	27 3b       	subw	r2,r7
    207c:	7f df c4 04 	storw	r7,0x4c4:m(sp)
    2080:	a7 53       	cmpw	r10,r7
    2082:	c5 17       	blt	*+0x216c <.L397>:s
    2084:	0f 9f c4 04 	loadw	0x4c4:m(sp),r0

00002088 <.L395>:
    2088:	90 2a       	xorw	$-1:s,r0
    208a:	10 43       	ashuw	$-15:s,r0
    208c:	7f 9f c4 04 	loadw	0x4c4:m(sp),r7
    2090:	07 23       	andw	r0,r7
    2092:	7f df bc 04 	storw	r7,0x4bc:m(sp)
    2096:	bf bf a6 04 	loadb	0x4a6:m(sp),r11
    209a:	8f ef c8 04 	stord	(r9,r8),0x4c8:m(sp)
    209e:	0f c3 d4 04 	storw	$0x0:s,0x4d4:m(sp)
    20a2:	8f 9f d4 04 	loadw	0x4d4:m(sp),r8
    20a6:	8f df da 04 	storw	r8,0x4da:m(sp)
    20aa:	e0 18 69 fc 	br	*-0x1d12 <.L58>:m

000020ae <.L46>:
    20ae:	0f ef b4 04 	stord	(r1,r0),0x4b4:m(sp)
    20b2:	8f df d8 04 	storw	r8,0x4d8:m(sp)
    20b6:	4f ff a6 04 	storb	r4,0x4a6:m(sp)
    20ba:	70 05 e0 9e 	movd	$0x9ee0:m,(r8,r7)
    20be:	7f ef f0 04 	stord	(r8,r7),0x4f0:m(sp)
    20c2:	0f 9f b0 04 	loadw	0x4b0:m(sp),r0
    20c6:	b0 22 10 00 	andw	$0x10:m,r0
    20ca:	00 52       	cmpw	$0x0:s,r0
    20cc:	10 18 2d fe 	bne	*-0x1ef8 <.L422>:m

000020d0 <.L134>:
    20d0:	cf af c8 04 	loadd	0x4c8:m(sp),(r12)
    20d4:	8c 90       	loadw	0x0:s(r12),r8
    20d6:	88 5f       	movzw	r8,(r9,r8)
    20d8:	2c 60       	addd	$0x2:s,(r12)
    20da:	cf ef c8 04 	stord	(r12),0x4c8:m(sp)
    20de:	0f 9f b0 04 	loadw	0x4b0:m(sp),r0
    20e2:	10 22       	andw	$0x1:s,r0
    20e4:	00 52       	cmpw	$0x0:s,r0
    20e6:	00 18 2b fe 	beq	*-0x1f10 <.L423>:m

000020ea <.L137>:
    20ea:	08 56       	cmpd	$0x0:s,(r9,r8)
    20ec:	00 18 30 0a 	beq	*+0x2b1c <.L277>:m
    20f0:	b0 58 30 00 	movb	$0x30:m,r0
    20f4:	0f ff a0 04 	storb	r0,0x4a0:m(sp)
    20f8:	0f bf d8 04 	loadb	0x4d8:m(sp),r0
    20fc:	0f ff a1 04 	storb	r0,0x4a1:m(sp)
    2100:	7f 9f b0 04 	loadw	0x4b0:m(sp),r7
    2104:	27 26       	orw	$0x2:s,r7
    2106:	7f df b0 04 	storw	r7,0x4b0:m(sp)
    210a:	12 58       	movb	$0x1:s,r2
    210c:	20 58       	movb	$0x2:s,r0
    210e:	e0 18 85 fd 	br	*-0x1e92 <.L120>:m

00002112 <.L39>:
    2112:	7f 9f b0 04 	loadw	0x4b0:m(sp),r7
    2116:	b7 26 10 00 	orw	$0x10:m,r7
    211a:	7f df b0 04 	storw	r7,0x4b0:m(sp)
    211e:	e0 18 95 f6 	br	*-0x17b2 <.L371>:m

00002122 <.L40>:
    2122:	0f ef b4 04 	stord	(r1,r0),0x4b4:m(sp)
    2126:	4f ff a6 04 	storb	r4,0x4a6:m(sp)
    212a:	0f 9f b0 04 	loadw	0x4b0:m(sp),r0
    212e:	b0 22 10 00 	andw	$0x10:m,r0
    2132:	7f af c8 04 	loadd	0x4c8:m(sp),(r8,r7)
    2136:	00 52       	cmpw	$0x0:s,r0
    2138:	00 18 ec 09 	beq	*+0x2b24 <.L116>:m
    213c:	07 a0       	loadd	0x0:s(r8,r7),(r1,r0)
    213e:	8f 9f be 04 	loadw	0x4be:m(sp),r8
    2142:	82 5e       	movxw	r8,(r3,r2)
    2144:	20 e0       	stord	(r3,r2),0x0:s(r1,r0)
    2146:	cf af c8 04 	loadd	0x4c8:m(sp),(r12)
    214a:	4c 60       	addd	$0x4:s,(r12)
    214c:	cf ef c8 04 	stord	(r12),0x4c8:m(sp)
    2150:	e0 18 c5 f5 	br	*-0x1714 <.L374>:m

00002154 <.L389>:
    2154:	0f ef b4 04 	stord	(r1,r0),0x4b4:m(sp)
    2158:	8f df d8 04 	storw	r8,0x4d8:m(sp)
    215c:	e0 18 13 fd 	br	*-0x1e6e <.L49>:m

00002160 <.L390>:
    2160:	0f ef b4 04 	stord	(r1,r0),0x4b4:m(sp)
    2164:	8f df d8 04 	storw	r8,0x4d8:m(sp)
    2168:	e0 18 49 fd 	br	*-0x1eb0 <.L48>:m

0000216c <.L397>:
    216c:	af df bc 04 	storw	r10,0x4bc:m(sp)
    2170:	bf bf a6 04 	loadb	0x4a6:m(sp),r11
    2174:	af df c4 04 	storw	r10,0x4c4:m(sp)
    2178:	8f ef c8 04 	stord	(r9,r8),0x4c8:m(sp)
    217c:	0f c3 d4 04 	storw	$0x0:s,0x4d4:m(sp)
    2180:	7f 9f d4 04 	loadw	0x4d4:m(sp),r7
    2184:	7f df da 04 	storw	r7,0x4da:m(sp)
    2188:	e0 18 8b fb 	br	*-0x1d12 <.L58>:m

0000218c <.L159>:
    218c:	b1 54 84 04 	movd	$0x484:m,(r2,r1)
    2190:	f1 61       	addd	(sp),(r2,r1)
    2192:	11 01       	push	$0x2,r1
    2194:	4f af bc 04 	loadd	0x4bc:m(sp),(r5,r4)
    2198:	2f af c4 04 	loadd	0x4c4:m(sp),(r3,r2)
    219c:	00 c0 e8 48 	bal	(ra),*+0x6a84 <___sprint_r>:m

000021a0 <.LVL250>:
    21a0:	4f 60       	addd	$0x4:s,(sp)
    21a2:	00 52       	cmpw	$0x0:s,r0
    21a4:	10 18 7f fa 	bne	*-0x1c22 <.L17>:m
    21a8:	bf bf a6 04 	loadb	0x4a6:m(sp),r11
    21ac:	fd 55       	movd	(sp),(r13)

000021ae <.L399>:
    21ae:	7f 9f 8a 04 	loadw	0x48a:m(sp),r7
    21b2:	e0 18 29 f7 	br	*-0x18da <.L154>:m

000021b6 <.L179>:
    21b6:	8f 9f d6 04 	loadw	0x4d6:m(sp),r8
    21ba:	18 52       	cmpw	$0x1:s,r8
    21bc:	d0 18 78 06 	bge	*+0x2834 <.L424>:m

000021c0 <.L228>:
    21c0:	8f af d0 04 	loadd	0x4d0:m(sp),(r9,r8)
    21c4:	8d e0       	stord	(r9,r8),0x0:s(r13)
    21c6:	10 54       	movd	$0x1:s,(r1,r0)
    21c8:	0d e2       	stord	(r1,r0),0x4:s(r13)
    21ca:	17 32       	addw	$0x1:s,r7
    21cc:	7f df 8a 04 	storw	r7,0x48a:m(sp)
    21d0:	bf 9f 88 04 	loadw	0x488:m(sp),r11
    21d4:	1b 32       	addw	$0x1:s,r11
    21d6:	bf df 88 04 	storw	r11,0x488:m(sp)
    21da:	7b 52       	cmpw	$0x7:s,r11
    21dc:	c0 18 90 06 	blt	*+0x286c <.L230>:m
    21e0:	d0 55       	movd	(r13),(r1,r0)
    21e2:	80 60       	addd	$0x8:s,(r1,r0)

000021e4 <.L231>:
    21e4:	8f af dc 04 	loadd	0x4dc:m(sp),(r9,r8)
    21e8:	80 e0       	stord	(r9,r8),0x0:s(r1,r0)
    21ea:	9f 9f e8 04 	loadw	0x4e8:m(sp),r9
    21ee:	90 d2       	storw	r9,0x4:s(r1,r0)
    21f0:	cf 9f ec 04 	loadw	0x4ec:m(sp),r12
    21f4:	c0 d3       	storw	r12,0x6:s(r1,r0)
    21f6:	97 33       	addw	r9,r7
    21f8:	7f df 8a 04 	storw	r7,0x48a:m(sp)
    21fc:	1b 32       	addw	$0x1:s,r11
    21fe:	bf df 88 04 	storw	r11,0x488:m(sp)
    2202:	7b 52       	cmpw	$0x7:s,r11
    2204:	c0 18 92 06 	blt	*+0x2896 <.L232>:m
    2208:	0d 55       	movd	(r1,r0),(r13)
    220a:	8d 60       	addd	$0x8:s,(r13)

0000220c <.L233>:
    220c:	00 54       	movd	$0x0:s,(r1,r0)
    220e:	02 54       	movd	$0x0:s,(r3,r2)
    2210:	30 01       	push	$0x4,r0
    2212:	2f af e8 04 	loadd	0x4e8:m(sp),(r3,r2)
    2216:	4f af ec 04 	loadd	0x4ec:m(sp),(r5,r4)
    221a:	32 01       	push	$0x4,r2
    221c:	00 c0 4c 71 	bal	(ra),*+0x9368 <___nedf2>:m
    2220:	bf 60 10 00 	addd	$0x10:m,(sp)
    2224:	00 52       	cmpw	$0x0:s,r0
    2226:	00 18 30 04 	beq	*+0x2656 <.L385>:m
    222a:	0f af d0 04 	loadd	0x4d0:m(sp),(r1,r0)
    222e:	10 60       	addd	$0x1:s,(r1,r0)
    2230:	0d e0       	stord	(r1,r0),0x0:s(r13)
    2232:	2f 9f d6 04 	loadw	0x4d6:m(sp),r2
    2236:	92 32       	addw	$-1:s,r2
    2238:	20 5e       	movxw	r2,(r1,r0)
    223a:	0d e2       	stord	(r1,r0),0x4:s(r13)
    223c:	27 33       	addw	r2,r7
    223e:	7f df 8a 04 	storw	r7,0x48a:m(sp)
    2242:	1b 32       	addw	$0x1:s,r11
    2244:	bf df 88 04 	storw	r11,0x488:m(sp)
    2248:	7b 52       	cmpw	$0x7:s,r11
    224a:	c0 18 24 02 	blt	*+0x246e <.L236>:m

0000224e <.L402>:
    224e:	8d 60       	addd	$0x8:s,(r13)

00002250 <.L237>:
    2250:	f0 55       	movd	(sp),(r1,r0)
    2252:	b0 60 93 04 	addd	$0x493:m,(r1,r0)
    2256:	0d e0       	stord	(r1,r0),0x0:s(r13)
    2258:	8f 9f ea 04 	loadw	0x4ea:m(sp),r8
    225c:	80 5e       	movxw	r8,(r1,r0)
    225e:	0d e2       	stord	(r1,r0),0x4:s(r13)
    2260:	87 33       	addw	r8,r7
    2262:	7f df 8a 04 	storw	r7,0x48a:m(sp)
    2266:	1b 32       	addw	$0x1:s,r11
    2268:	bf df 88 04 	storw	r11,0x488:m(sp)
    226c:	7b 52       	cmpw	$0x7:s,r11
    226e:	d0 18 a1 f7 	bge	*-0x1a0e <.L403>:m

00002272 <.L177>:
    2272:	b0 54 84 04 	movd	$0x484:m,(r1,r0)
    2276:	f0 61       	addd	(sp),(r1,r0)
    2278:	10 01       	push	$0x2,r0

0000227a <.L400>:
    227a:	4f af bc 04 	loadd	0x4bc:m(sp),(r5,r4)
    227e:	2f af c4 04 	loadd	0x4c4:m(sp),(r3,r2)
    2282:	00 c0 02 48 	bal	(ra),*+0x6a84 <___sprint_r>:m

00002286 <.LVL263>:
    2286:	4f 60       	addd	$0x4:s,(sp)
    2288:	00 52       	cmpw	$0x0:s,r0
    228a:	10 18 99 f9 	bne	*-0x1c22 <.L17>:m
    228e:	fd 55       	movd	(sp),(r13)
    2290:	7f 9f 8a 04 	loadw	0x48a:m(sp),r7
    2294:	e0 18 7d f7 	br	*-0x1a10 <.L178>:m

00002298 <.L254>:
    2298:	b0 54 84 04 	movd	$0x484:m,(r1,r0)
    229c:	f0 61       	addd	(sp),(r1,r0)
    229e:	10 01       	push	$0x2,r0
    22a0:	4f af bc 04 	loadd	0x4bc:m(sp),(r5,r4)
    22a4:	2f af c4 04 	loadd	0x4c4:m(sp),(r3,r2)
    22a8:	00 c0 dc 47 	bal	(ra),*+0x6a84 <___sprint_r>:m

000022ac <.LVL265>:
    22ac:	4f 60       	addd	$0x4:s,(sp)
    22ae:	00 52       	cmpw	$0x0:s,r0
    22b0:	10 18 73 f9 	bne	*-0x1c22 <.L17>:m
    22b4:	0f c3 88 04 	storw	$0x0:s,0x488:m(sp)
    22b8:	fd 55       	movd	(sp),(r13)
    22ba:	e0 18 43 f8 	br	*-0x1afc <.L425>:m

000022be <.L176>:
    22be:	8f 9f d8 04 	loadw	0x4d8:m(sp),r8
    22c2:	b8 52 65 00 	cmpw	$0x65:m,r8
    22c6:	d0 18 f1 fe 	bge	*-0x21b6 <.L179>:m
    22ca:	00 54       	movd	$0x0:s,(r1,r0)
    22cc:	02 54       	movd	$0x0:s,(r3,r2)
    22ce:	30 01       	push	$0x4,r0
    22d0:	0f af e8 04 	loadd	0x4e8:m(sp),(r1,r0)
    22d4:	2f af ec 04 	loadd	0x4ec:m(sp),(r3,r2)
    22d8:	30 01       	push	$0x4,r0
    22da:	00 c0 1a 70 	bal	(ra),*+0x92f4 <___eqdf2>:m
    22de:	bf 60 10 00 	addd	$0x10:m,(sp)
    22e2:	00 52       	cmpw	$0x0:s,r0
    22e4:	10 18 38 02 	bne	*+0x251c <.L380>:m
    22e8:	00 05 fa 9e 	movd	$0x9efa:m,(r1,r0)
    22ec:	0d e0       	stord	(r1,r0),0x0:s(r13)
    22ee:	10 54       	movd	$0x1:s,(r1,r0)
    22f0:	0d e2       	stord	(r1,r0),0x4:s(r13)
    22f2:	17 32       	addw	$0x1:s,r7
    22f4:	7f df 8a 04 	storw	r7,0x48a:m(sp)
    22f8:	bf 9f 88 04 	loadw	0x488:m(sp),r11
    22fc:	1b 32       	addw	$0x1:s,r11
    22fe:	bf df 88 04 	storw	r11,0x488:m(sp)
    2302:	7b 52       	cmpw	$0x7:s,r11
    2304:	c0 18 b6 08 	blt	*+0x2bba <.L182>:m
    2308:	8d 60       	addd	$0x8:s,(r13)

0000230a <.L183>:
    230a:	0f 9f a4 04 	loadw	0x4a4:m(sp),r0
    230e:	8f 9f d6 04 	loadw	0x4d6:m(sp),r8
    2312:	80 53       	cmpw	r8,r0
    2314:	67 10       	bgt	*+0x2322 <.L184>:s
    2316:	0f 9f b0 04 	loadw	0x4b0:m(sp),r0
    231a:	10 22       	andw	$0x1:s,r0
    231c:	00 52       	cmpw	$0x0:s,r0
    231e:	00 18 f3 f6 	beq	*-0x1a10 <.L178>:m

00002322 <.L184>:
    2322:	8f af dc 04 	loadd	0x4dc:m(sp),(r9,r8)
    2326:	8d e0       	stord	(r9,r8),0x0:s(r13)
    2328:	9f 9f e8 04 	loadw	0x4e8:m(sp),r9
    232c:	9d d2       	storw	r9,0x4:s(r13)
    232e:	cf 9f ec 04 	loadw	0x4ec:m(sp),r12
    2332:	cd d3       	storw	r12,0x6:s(r13)
    2334:	97 33       	addw	r9,r7
    2336:	7f df 8a 04 	storw	r7,0x48a:m(sp)
    233a:	bf 9f 88 04 	loadw	0x488:m(sp),r11
    233e:	1b 32       	addw	$0x1:s,r11
    2340:	bf df 88 04 	storw	r11,0x488:m(sp)
    2344:	7b 52       	cmpw	$0x7:s,r11
    2346:	c0 18 d4 09 	blt	*+0x2d1a <.L185>:m
    234a:	8d 60       	addd	$0x8:s,(r13)

0000234c <.L186>:
    234c:	8f 9f d6 04 	loadw	0x4d6:m(sp),r8
    2350:	98 32       	addw	$-1:s,r8
    2352:	08 52       	cmpw	$0x0:s,r8
    2354:	d0 18 bd f6 	bge	*-0x1a10 <.L178>:m
    2358:	bf 9f 88 04 	loadw	0x488:m(sp),r11
    235c:	c0 05 70 a0 	movd	$0xa070:m,(r12)
    2360:	b8 52 10 00 	cmpw	$0x10:m,r8
    2364:	d0 18 34 06 	bge	*+0x2998 <.L187>:m
    2368:	b9 54 10 00 	movd	$0x10:m,(r10,r9)
    236c:	d0 55       	movd	(r13),(r1,r0)
    236e:	df af c0 04 	loadd	0x4c0:m(sp),(r13)
    2372:	b2 5b       	movw	r11,r2
    2374:	8b 5b       	movw	r8,r11
    2376:	73 5b       	movw	r7,r3
    2378:	7f af b8 04 	loadd	0x4b8:m(sp),(r8,r7)
    237c:	e8 10       	br	*+0x238c <.L190>:s

0000237e <.L427>:
    237e:	80 60       	addd	$0x8:s,(r1,r0)

00002380 <.L189>:
    2380:	bb 32 f0 ff 	addw	$0xfff0:m,r11
    2384:	bb 52 10 00 	cmpw	$0x10:m,r11
    2388:	d0 18 08 06 	bge	*+0x2990 <.L426>:m

0000238c <.L190>:
    238c:	c0 e0       	stord	(r12),0x0:s(r1,r0)
    238e:	90 e2       	stord	(r10,r9),0x4:s(r1,r0)
    2390:	b3 32 10 00 	addw	$0x10:m,r3
    2394:	3f df 8a 04 	storw	r3,0x48a:m(sp)
    2398:	12 32       	addw	$0x1:s,r2
    239a:	2f df 88 04 	storw	r2,0x488:m(sp)
    239e:	72 52       	cmpw	$0x7:s,r2
    23a0:	df 1e       	bge	*-0x237e <.L427>:s
    23a2:	b1 54 84 04 	movd	$0x484:m,(r2,r1)
    23a6:	f1 61       	addd	(sp),(r2,r1)
    23a8:	11 01       	push	$0x2,r1
    23aa:	74 55       	movd	(r8,r7),(r5,r4)
    23ac:	d2 55       	movd	(r13),(r3,r2)
    23ae:	00 c0 d6 46 	bal	(ra),*+0x6a84 <___sprint_r>:m

000023b2 <.LVL279>:
    23b2:	4f 60       	addd	$0x4:s,(sp)
    23b4:	00 52       	cmpw	$0x0:s,r0
    23b6:	10 18 6d f8 	bne	*-0x1c22 <.L17>:m
    23ba:	f0 55       	movd	(sp),(r1,r0)
    23bc:	3f 9f 8a 04 	loadw	0x48a:m(sp),r3
    23c0:	2f 9f 88 04 	loadw	0x488:m(sp),r2
    23c4:	ee 1d       	br	*-0x2380 <.L189>:s

000023c6 <.L412>:
    23c6:	af 9f b2 04 	loadw	0x4b2:m(sp),r10
    23ca:	9f 9f bc 04 	loadw	0x4bc:m(sp),r9
    23ce:	9a 3b       	subw	r9,r10
    23d0:	0a 52       	cmpw	$0x0:s,r10
    23d2:	d0 18 69 f5 	bge	*-0x193a <.L164>:m
    23d6:	bf 9f 88 04 	loadw	0x488:m(sp),r11
    23da:	c0 05 70 a0 	movd	$0xa070:m,(r12)
    23de:	ba 52 10 00 	cmpw	$0x10:m,r10
    23e2:	d7 13       	bge	*+0x2450 <.L165>:s
    23e4:	b8 54 10 00 	movd	$0x10:m,(r9,r8)
    23e8:	d0 55       	movd	(r13),(r1,r0)
    23ea:	df af b8 04 	loadd	0x4b8:m(sp),(r13)
    23ee:	b2 5b       	movw	r11,r2
    23f0:	73 5b       	movw	r7,r3
    23f2:	a7 5b       	movw	r10,r7
    23f4:	af af c0 04 	loadd	0x4c0:m(sp),(r11,r10)
    23f8:	e7 10       	br	*+0x2406 <.L168>:s

000023fa <.L429>:
    23fa:	80 60       	addd	$0x8:s,(r1,r0)
    23fc:	b7 32 f0 ff 	addw	$0xfff0:m,r7
    2400:	b7 52 10 00 	cmpw	$0x10:m,r7
    2404:	d2 12       	bge	*+0x2448 <.L428>:s

00002406 <.L168>:
    2406:	c0 e0       	stord	(r12),0x0:s(r1,r0)
    2408:	80 e2       	stord	(r9,r8),0x4:s(r1,r0)
    240a:	b3 32 10 00 	addw	$0x10:m,r3
    240e:	3f df 8a 04 	storw	r3,0x48a:m(sp)
    2412:	12 32       	addw	$0x1:s,r2
    2414:	2f df 88 04 	storw	r2,0x488:m(sp)
    2418:	72 52       	cmpw	$0x7:s,r2
    241a:	d0 1f       	bge	*-0x23fa <.L429>:s
    241c:	b0 54 84 04 	movd	$0x484:m,(r1,r0)
    2420:	f0 61       	addd	(sp),(r1,r0)
    2422:	10 01       	push	$0x2,r0
    2424:	d4 55       	movd	(r13),(r5,r4)
    2426:	a2 55       	movd	(r11,r10),(r3,r2)
    2428:	00 c0 5c 46 	bal	(ra),*+0x6a84 <___sprint_r>:m

0000242c <.LVL289>:
    242c:	4f 60       	addd	$0x4:s,(sp)
    242e:	00 52       	cmpw	$0x0:s,r0
    2430:	10 18 f3 f7 	bne	*-0x1c22 <.L17>:m
    2434:	f0 55       	movd	(sp),(r1,r0)
    2436:	3f 9f 8a 04 	loadw	0x48a:m(sp),r3
    243a:	2f 9f 88 04 	loadw	0x488:m(sp),r2
    243e:	b7 32 f0 ff 	addw	$0xfff0:m,r7
    2442:	b7 52 10 00 	cmpw	$0x10:m,r7
    2446:	c0 1e       	blt	*-0x2406 <.L168>:s

00002448 <.L428>:
    2448:	0d 55       	movd	(r1,r0),(r13)
    244a:	7a 5b       	movw	r7,r10
    244c:	2b 5b       	movw	r2,r11
    244e:	37 5b       	movw	r3,r7

00002450 <.L165>:
    2450:	cd e0       	stord	(r12),0x0:s(r13)
    2452:	a0 5e       	movxw	r10,(r1,r0)
    2454:	0d e2       	stord	(r1,r0),0x4:s(r13)
    2456:	a7 33       	addw	r10,r7
    2458:	7f df 8a 04 	storw	r7,0x48a:m(sp)
    245c:	1b 32       	addw	$0x1:s,r11
    245e:	bf df 88 04 	storw	r11,0x488:m(sp)
    2462:	7b 52       	cmpw	$0x7:s,r11
    2464:	c0 18 ca 04 	blt	*+0x292e <.L169>:m
    2468:	8d 60       	addd	$0x8:s,(r13)
    246a:	e0 18 d1 f4 	br	*-0x193a <.L164>:m

0000246e <.L236>:
    246e:	b3 54 84 04 	movd	$0x484:m,(r4,r3)
    2472:	f3 61       	addd	(sp),(r4,r3)
    2474:	13 01       	push	$0x2,r3

00002476 <.L401>:
    2476:	4f af bc 04 	loadd	0x4bc:m(sp),(r5,r4)
    247a:	2f af c4 04 	loadd	0x4c4:m(sp),(r3,r2)
    247e:	00 c0 06 46 	bal	(ra),*+0x6a84 <___sprint_r>:m

00002482 <.LVL297>:
    2482:	4f 60       	addd	$0x4:s,(sp)
    2484:	00 52       	cmpw	$0x0:s,r0
    2486:	10 18 9d f7 	bne	*-0x1c22 <.L17>:m
    248a:	fd 55       	movd	(sp),(r13)
    248c:	7f 9f 8a 04 	loadw	0x48a:m(sp),r7
    2490:	bf 9f 88 04 	loadw	0x488:m(sp),r11
    2494:	e0 18 bd fd 	br	*-0x2250 <.L237>:m

00002498 <.L278>:
    2498:	0f c3 c4 04 	storw	$0x0:s,0x4c4:m(sp)
    249c:	f7 55       	movd	(sp),(r8,r7)
    249e:	b7 60 84 04 	addd	$0x484:m,(r8,r7)
    24a2:	7f ef d0 04 	stord	(r8,r7),0x4d0:m(sp)
    24a6:	e0 18 55 f8 	br	*-0x1cfa <.L146>:m

000024aa <.L175>:
    24aa:	b1 54 84 04 	movd	$0x484:m,(r2,r1)
    24ae:	f1 61       	addd	(sp),(r2,r1)
    24b0:	11 01       	push	$0x2,r1
    24b2:	4f af bc 04 	loadd	0x4bc:m(sp),(r5,r4)
    24b6:	2f af c4 04 	loadd	0x4c4:m(sp),(r3,r2)
    24ba:	00 c0 ca 45 	bal	(ra),*+0x6a84 <___sprint_r>:m

000024be <.LVL300>:
    24be:	4f 60       	addd	$0x4:s,(sp)
    24c0:	00 52       	cmpw	$0x0:s,r0
    24c2:	10 18 61 f7 	bne	*-0x1c22 <.L17>:m
    24c6:	fd 55       	movd	(sp),(r13)
    24c8:	7f 9f 8a 04 	loadw	0x48a:m(sp),r7
    24cc:	e0 18 11 f5 	br	*-0x19dc <.L170>:m

000024d0 <.L161>:
    24d0:	b2 54 84 04 	movd	$0x484:m,(r3,r2)
    24d4:	f2 61       	addd	(sp),(r3,r2)
    24d6:	12 01       	push	$0x2,r2
    24d8:	4f af bc 04 	loadd	0x4bc:m(sp),(r5,r4)
    24dc:	2f af c4 04 	loadd	0x4c4:m(sp),(r3,r2)
    24e0:	00 c0 a4 45 	bal	(ra),*+0x6a84 <___sprint_r>:m

000024e4 <.LVL303>:
    24e4:	4f 60       	addd	$0x4:s,(sp)
    24e6:	00 52       	cmpw	$0x0:s,r0
    24e8:	10 18 3b f7 	bne	*-0x1c22 <.L17>:m
    24ec:	fd 55       	movd	(sp),(r13)
    24ee:	7f 9f 8a 04 	loadw	0x48a:m(sp),r7
    24f2:	e0 18 11 f4 	br	*-0x1902 <.L160>:m

000024f6 <.L163>:
    24f6:	b0 54 84 04 	movd	$0x484:m,(r1,r0)
    24fa:	f0 61       	addd	(sp),(r1,r0)
    24fc:	10 01       	push	$0x2,r0
    24fe:	4f af bc 04 	loadd	0x4bc:m(sp),(r5,r4)
    2502:	2f af c4 04 	loadd	0x4c4:m(sp),(r3,r2)
    2506:	00 c0 7e 45 	bal	(ra),*+0x6a84 <___sprint_r>:m

0000250a <.LVL306>:
    250a:	4f 60       	addd	$0x4:s,(sp)
    250c:	00 52       	cmpw	$0x0:s,r0
    250e:	10 18 15 f7 	bne	*-0x1c22 <.L17>:m
    2512:	fd 55       	movd	(sp),(r13)
    2514:	7f 9f 8a 04 	loadw	0x48a:m(sp),r7
    2518:	e0 18 17 f4 	br	*-0x192e <.L162>:m

0000251c <.L380>:
    251c:	2f 9f a4 04 	loadw	0x4a4:m(sp),r2
    2520:	02 52       	cmpw	$0x0:s,r2
    2522:	d0 18 be 06 	bge	*+0x2be0 <.L430>:m
    2526:	9f 9f d6 04 	loadw	0x4d6:m(sp),r9
    252a:	98 5e       	movxw	r9,(r9,r8)
    252c:	0f af d0 04 	loadd	0x4d0:m(sp),(r1,r0)
    2530:	80 61       	addd	(r9,r8),(r1,r0)
    2532:	0f ef c4 04 	stord	(r1,r0),0x4c4:m(sp)
    2536:	8f 9f c4 04 	loadw	0x4c4:m(sp),r8
    253a:	1f 9f d0 04 	loadw	0x4d0:m(sp),r1
    253e:	18 3b       	subw	r1,r8
    2540:	9f 9f da 04 	loadw	0x4da:m(sp),r9
    2544:	98 53       	cmpw	r9,r8
    2546:	d2 10       	bge	*+0x254a <.L206>:s
    2548:	98 5b       	movw	r9,r8

0000254a <.L206>:
    254a:	08 52       	cmpw	$0x0:s,r8
    254c:	d2 11       	bge	*+0x2570 <.L207>:s
    254e:	0f af d0 04 	loadd	0x4d0:m(sp),(r1,r0)
    2552:	0d e0       	stord	(r1,r0),0x0:s(r13)
    2554:	80 5e       	movxw	r8,(r1,r0)
    2556:	0d e2       	stord	(r1,r0),0x4:s(r13)
    2558:	87 33       	addw	r8,r7
    255a:	7f df 8a 04 	storw	r7,0x48a:m(sp)
    255e:	bf 9f 88 04 	loadw	0x488:m(sp),r11
    2562:	1b 32       	addw	$0x1:s,r11
    2564:	bf df 88 04 	storw	r11,0x488:m(sp)
    2568:	7b 52       	cmpw	$0x7:s,r11
    256a:	c0 18 34 08 	blt	*+0x2d9e <.L208>:m
    256e:	8d 60       	addd	$0x8:s,(r13)

00002570 <.L207>:
    2570:	80 5b       	movw	r8,r0
    2572:	90 2a       	xorw	$-1:s,r0
    2574:	10 43       	ashuw	$-15:s,r0
    2576:	08 23       	andw	r0,r8
    2578:	9f 9f da 04 	loadw	0x4da:m(sp),r9
    257c:	89 3b       	subw	r8,r9
    257e:	98 5b       	movw	r9,r8
    2580:	09 52       	cmpw	$0x0:s,r9
    2582:	d0 18 b0 01 	bge	*+0x2732 <.L210>:m
    2586:	bf 9f 88 04 	loadw	0x488:m(sp),r11
    258a:	c0 05 70 a0 	movd	$0xa070:m,(r12)
    258e:	b9 52 10 00 	cmpw	$0x10:m,r9
    2592:	d0 18 b0 05 	bge	*+0x2b42 <.L211>:m
    2596:	b9 54 10 00 	movd	$0x10:m,(r10,r9)
    259a:	d0 55       	movd	(r13),(r1,r0)
    259c:	df af b8 04 	loadd	0x4b8:m(sp),(r13)
    25a0:	b2 5b       	movw	r11,r2
    25a2:	8b 5b       	movw	r8,r11
    25a4:	73 5b       	movw	r7,r3
    25a6:	7f af c0 04 	loadd	0x4c0:m(sp),(r8,r7)
    25aa:	e8 10       	br	*+0x25ba <.L214>:s

000025ac <.L432>:
    25ac:	80 60       	addd	$0x8:s,(r1,r0)

000025ae <.L213>:
    25ae:	bb 32 f0 ff 	addw	$0xfff0:m,r11
    25b2:	bb 52 10 00 	cmpw	$0x10:m,r11
    25b6:	d0 18 84 05 	bge	*+0x2b3a <.L431>:m

000025ba <.L214>:
    25ba:	c0 e0       	stord	(r12),0x0:s(r1,r0)
    25bc:	90 e2       	stord	(r10,r9),0x4:s(r1,r0)
    25be:	b3 32 10 00 	addw	$0x10:m,r3
    25c2:	3f df 8a 04 	storw	r3,0x48a:m(sp)
    25c6:	12 32       	addw	$0x1:s,r2
    25c8:	2f df 88 04 	storw	r2,0x488:m(sp)
    25cc:	72 52       	cmpw	$0x7:s,r2
    25ce:	df 1e       	bge	*-0x25ac <.L432>:s
    25d0:	b0 54 84 04 	movd	$0x484:m,(r1,r0)
    25d4:	f0 61       	addd	(sp),(r1,r0)
    25d6:	10 01       	push	$0x2,r0
    25d8:	d4 55       	movd	(r13),(r5,r4)
    25da:	72 55       	movd	(r8,r7),(r3,r2)
    25dc:	00 c0 a8 44 	bal	(ra),*+0x6a84 <___sprint_r>:m

000025e0 <.LVL322>:
    25e0:	4f 60       	addd	$0x4:s,(sp)
    25e2:	00 52       	cmpw	$0x0:s,r0
    25e4:	10 18 3f f6 	bne	*-0x1c22 <.L17>:m
    25e8:	f0 55       	movd	(sp),(r1,r0)
    25ea:	3f 9f 8a 04 	loadw	0x48a:m(sp),r3
    25ee:	2f 9f 88 04 	loadw	0x488:m(sp),r2
    25f2:	ee 1d       	br	*-0x25ae <.L213>:s

000025f4 <.L279>:
    25f4:	0f df c4 04 	storw	r0,0x4c4:m(sp)
    25f8:	f8 55       	movd	(sp),(r9,r8)
    25fa:	b8 60 84 04 	addd	$0x484:m,(r9,r8)
    25fe:	8f ef d0 04 	stord	(r9,r8),0x4d0:m(sp)
    2602:	e0 18 f9 f6 	br	*-0x1cfa <.L146>:m

00002606 <.L143>:
    2606:	f0 55       	movd	(sp),(r1,r0)
    2608:	b0 60 83 04 	addd	$0x483:m,(r1,r0)
    260c:	4f af f0 04 	loadd	0x4f0:m(sp),(r5,r4)

00002610 <.L150>:
    2610:	02 55       	movd	(r1,r0),(r3,r2)
    2612:	80 55       	movd	(r9,r8),(r1,r0)
    2614:	40 00 00 00 	andd	$0xf:l,(r1,r0)
    2618:	0f 00 
    261a:	40 61       	addd	(r5,r4),(r1,r0)
    261c:	00 b0       	loadb	0x0:s(r1,r0),r0
    261e:	02 f0       	storb	r0,0x0:s(r3,r2)
    2620:	c8 4b       	lshd	$-4:s,(r9,r8)
    2622:	20 55       	movd	(r3,r2),(r1,r0)
    2624:	90 60       	addd	$-1:s,(r1,r0)
    2626:	08 56       	cmpd	$0x0:s,(r9,r8)
    2628:	14 1f       	bne	*-0x2610 <.L150>:s
    262a:	2f ef d0 04 	stord	(r3,r2),0x4d0:m(sp)
    262e:	0f 9f d0 04 	loadw	0x4d0:m(sp),r0
    2632:	8f 9f a8 04 	loadw	0x4a8:m(sp),r8
    2636:	08 3b       	subw	r0,r8
    2638:	8f df c4 04 	storw	r8,0x4c4:m(sp)
    263c:	e0 18 bf f6 	br	*-0x1cfa <.L146>:m

00002640 <.L142>:
    2640:	b8 56 09 00 	cmpd	$0x9:m,(r9,r8)
    2644:	a0 18 a8 02 	blo	*+0x28ec <.L148>:m
    2648:	b0 58 30 00 	movb	$0x30:m,r0
    264c:	08 31       	addb	r0,r8
    264e:	8f ff 83 04 	storb	r8,0x483:m(sp)
    2652:	e0 18 97 f6 	br	*-0x1ce8 <.L394>:m

00002656 <.L385>:
    2656:	8f 9f d6 04 	loadw	0x4d6:m(sp),r8
    265a:	98 32       	addw	$-1:s,r8
    265c:	08 52       	cmpw	$0x0:s,r8
    265e:	d0 18 f3 fb 	bge	*-0x2250 <.L237>:m
    2662:	c0 05 70 a0 	movd	$0xa070:m,(r12)
    2666:	b8 52 10 00 	cmpw	$0x10:m,r8
    266a:	d0 18 5e 02 	bge	*+0x28c8 <.L238>:m
    266e:	b9 54 10 00 	movd	$0x10:m,(r10,r9)
    2672:	d0 55       	movd	(r13),(r1,r0)
    2674:	df af b8 04 	loadd	0x4b8:m(sp),(r13)
    2678:	b2 5b       	movw	r11,r2
    267a:	8b 5b       	movw	r8,r11
    267c:	73 5b       	movw	r7,r3
    267e:	7f af c0 04 	loadd	0x4c0:m(sp),(r8,r7)
    2682:	e8 10       	br	*+0x2692 <.L241>:s

00002684 <.L434>:
    2684:	80 60       	addd	$0x8:s,(r1,r0)

00002686 <.L240>:
    2686:	bb 32 f0 ff 	addw	$0xfff0:m,r11
    268a:	bb 52 10 00 	cmpw	$0x10:m,r11
    268e:	d0 18 32 02 	bge	*+0x28c0 <.L433>:m

00002692 <.L241>:
    2692:	c0 e0       	stord	(r12),0x0:s(r1,r0)
    2694:	90 e2       	stord	(r10,r9),0x4:s(r1,r0)
    2696:	b3 32 10 00 	addw	$0x10:m,r3
    269a:	3f df 8a 04 	storw	r3,0x48a:m(sp)
    269e:	12 32       	addw	$0x1:s,r2
    26a0:	2f df 88 04 	storw	r2,0x488:m(sp)
    26a4:	72 52       	cmpw	$0x7:s,r2
    26a6:	df 1e       	bge	*-0x2684 <.L434>:s
    26a8:	b4 54 84 04 	movd	$0x484:m,(r5,r4)
    26ac:	f4 61       	addd	(sp),(r5,r4)
    26ae:	14 01       	push	$0x2,r4
    26b0:	d4 55       	movd	(r13),(r5,r4)
    26b2:	72 55       	movd	(r8,r7),(r3,r2)
    26b4:	00 c0 d0 43 	bal	(ra),*+0x6a84 <___sprint_r>:m

000026b8 <.LVL343>:
    26b8:	4f 60       	addd	$0x4:s,(sp)
    26ba:	00 52       	cmpw	$0x0:s,r0
    26bc:	10 18 67 f5 	bne	*-0x1c22 <.L17>:m
    26c0:	f0 55       	movd	(sp),(r1,r0)
    26c2:	3f 9f 8a 04 	loadw	0x48a:m(sp),r3
    26c6:	2f 9f 88 04 	loadw	0x488:m(sp),r2
    26ca:	ee 1d       	br	*-0x2686 <.L240>:s

000026cc <.L119>:
    26cc:	1f 9f b0 04 	loadw	0x4b0:m(sp),r1
    26d0:	b1 22 40 00 	andw	$0x40:m,r1
    26d4:	7f af c8 04 	loadd	0x4c8:m(sp),(r8,r7)
    26d8:	01 52       	cmpw	$0x0:s,r1
    26da:	00 18 9c 04 	beq	*+0x2b76 <.L121>:m
    26de:	17 90       	loadw	0x0:s(r8,r7),r1
    26e0:	18 5f       	movzw	r1,(r9,r8)
    26e2:	01 52       	cmpw	$0x0:s,r1
    26e4:	12 08       	sne	r2
    26e6:	cf af c8 04 	loadd	0x4c8:m(sp),(r12)
    26ea:	2c 60       	addd	$0x2:s,(r12)
    26ec:	cf ef c8 04 	stord	(r12),0x4c8:m(sp)
    26f0:	e0 18 a3 f7 	br	*-0x1e92 <.L120>:m

000026f4 <.L132>:
    26f4:	7f af c8 04 	loadd	0x4c8:m(sp),(r8,r7)
    26f8:	07 90       	loadw	0x0:s(r8,r7),r0
    26fa:	08 5f       	movzw	r0,(r9,r8)
    26fc:	00 52       	cmpw	$0x0:s,r0
    26fe:	12 08       	sne	r2
    2700:	cf af c8 04 	loadd	0x4c8:m(sp),(r12)
    2704:	2c 60       	addd	$0x2:s,(r12)
    2706:	cf ef c8 04 	stord	(r12),0x4c8:m(sp)
    270a:	10 58       	movb	$0x1:s,r0
    270c:	e0 18 87 f7 	br	*-0x1e92 <.L120>:m

00002710 <.L215>:
    2710:	b1 54 84 04 	movd	$0x484:m,(r2,r1)
    2714:	f1 61       	addd	(sp),(r2,r1)
    2716:	11 01       	push	$0x2,r1
    2718:	4f af bc 04 	loadd	0x4bc:m(sp),(r5,r4)
    271c:	2f af c4 04 	loadd	0x4c4:m(sp),(r3,r2)
    2720:	00 c0 64 43 	bal	(ra),*+0x6a84 <___sprint_r>:m

00002724 <.LVL353>:
    2724:	4f 60       	addd	$0x4:s,(sp)
    2726:	00 52       	cmpw	$0x0:s,r0
    2728:	10 18 fb f4 	bne	*-0x1c22 <.L17>:m
    272c:	fd 55       	movd	(sp),(r13)
    272e:	7f 9f 8a 04 	loadw	0x48a:m(sp),r7

00002732 <.L210>:
    2732:	8f 9f da 04 	loadw	0x4da:m(sp),r8
    2736:	8c 5e       	movxw	r8,(r12)
    2738:	8f af d0 04 	loadd	0x4d0:m(sp),(r9,r8)
    273c:	8c 61       	addd	(r9,r8),(r12)
    273e:	2f 9f a4 04 	loadw	0x4a4:m(sp),r2
    2742:	9f 9f d6 04 	loadw	0x4d6:m(sp),r9
    2746:	92 53       	cmpw	r9,r2
    2748:	66 10       	bgt	*+0x2754 <.L216>:s
    274a:	0f 9f b0 04 	loadw	0x4b0:m(sp),r0
    274e:	10 22       	andw	$0x1:s,r0
    2750:	00 52       	cmpw	$0x0:s,r0
    2752:	06 11       	beq	*+0x277e <.L217>:s

00002754 <.L216>:
    2754:	8f af dc 04 	loadd	0x4dc:m(sp),(r9,r8)
    2758:	8d e0       	stord	(r9,r8),0x0:s(r13)
    275a:	9f 9f e8 04 	loadw	0x4e8:m(sp),r9
    275e:	9d d2       	storw	r9,0x4:s(r13)
    2760:	8f 9f ec 04 	loadw	0x4ec:m(sp),r8
    2764:	8d d3       	storw	r8,0x6:s(r13)
    2766:	97 33       	addw	r9,r7
    2768:	7f df 8a 04 	storw	r7,0x48a:m(sp)
    276c:	bf 9f 88 04 	loadw	0x488:m(sp),r11
    2770:	1b 32       	addw	$0x1:s,r11
    2772:	bf df 88 04 	storw	r11,0x488:m(sp)
    2776:	7b 52       	cmpw	$0x7:s,r11
    2778:	c0 18 ae 06 	blt	*+0x2e26 <.L218>:m
    277c:	8d 60       	addd	$0x8:s,(r13)

0000277e <.L217>:
    277e:	0f af c4 04 	loadd	0x4c4:m(sp),(r1,r0)
    2782:	14 00 c0 c0 	subd	(r12),(r1,r0)
    2786:	8f 9f d6 04 	loadw	0x4d6:m(sp),r8
    278a:	28 3b       	subw	r2,r8
    278c:	89 5b       	movw	r8,r9
    278e:	08 53       	cmpw	r0,r8
    2790:	d2 10       	bge	*+0x2794 <.L219>:s
    2792:	09 5b       	movw	r0,r9

00002794 <.L219>:
    2794:	09 52       	cmpw	$0x0:s,r9
    2796:	d0 11       	bge	*+0x27b6 <.L220>:s
    2798:	cd e0       	stord	(r12),0x0:s(r13)
    279a:	90 5e       	movxw	r9,(r1,r0)
    279c:	0d e2       	stord	(r1,r0),0x4:s(r13)
    279e:	97 33       	addw	r9,r7
    27a0:	7f df 8a 04 	storw	r7,0x48a:m(sp)
    27a4:	bf 9f 88 04 	loadw	0x488:m(sp),r11
    27a8:	1b 32       	addw	$0x1:s,r11
    27aa:	bf df 88 04 	storw	r11,0x488:m(sp)
    27ae:	7b 52       	cmpw	$0x7:s,r11
    27b0:	c0 18 14 06 	blt	*+0x2dc4 <.L221>:m
    27b4:	8d 60       	addd	$0x8:s,(r13)

000027b6 <.L220>:
    27b6:	90 5b       	movw	r9,r0
    27b8:	90 2a       	xorw	$-1:s,r0
    27ba:	10 43       	ashuw	$-15:s,r0
    27bc:	09 23       	andw	r0,r9
    27be:	98 3b       	subw	r9,r8
    27c0:	08 52       	cmpw	$0x0:s,r8
    27c2:	d0 18 4f f2 	bge	*-0x1a10 <.L178>:m
    27c6:	bf 9f 88 04 	loadw	0x488:m(sp),r11
    27ca:	c0 05 70 a0 	movd	$0xa070:m,(r12)
    27ce:	b8 52 10 00 	cmpw	$0x10:m,r8
    27d2:	d0 18 c4 03 	bge	*+0x2b96 <.L223>:m
    27d6:	b9 54 10 00 	movd	$0x10:m,(r10,r9)
    27da:	d0 55       	movd	(r13),(r1,r0)
    27dc:	df af b8 04 	loadd	0x4b8:m(sp),(r13)
    27e0:	b2 5b       	movw	r11,r2
    27e2:	8b 5b       	movw	r8,r11
    27e4:	73 5b       	movw	r7,r3
    27e6:	7f af c0 04 	loadd	0x4c0:m(sp),(r8,r7)
    27ea:	e8 10       	br	*+0x27fa <.L226>:s

000027ec <.L436>:
    27ec:	80 60       	addd	$0x8:s,(r1,r0)

000027ee <.L225>:
    27ee:	bb 32 f0 ff 	addw	$0xfff0:m,r11
    27f2:	bb 52 10 00 	cmpw	$0x10:m,r11
    27f6:	d0 18 98 03 	bge	*+0x2b8e <.L435>:m

000027fa <.L226>:
    27fa:	c0 e0       	stord	(r12),0x0:s(r1,r0)
    27fc:	90 e2       	stord	(r10,r9),0x4:s(r1,r0)
    27fe:	b3 32 10 00 	addw	$0x10:m,r3
    2802:	3f df 8a 04 	storw	r3,0x48a:m(sp)
    2806:	12 32       	addw	$0x1:s,r2
    2808:	2f df 88 04 	storw	r2,0x488:m(sp)
    280c:	72 52       	cmpw	$0x7:s,r2
    280e:	df 1e       	bge	*-0x27ec <.L436>:s
    2810:	b2 54 84 04 	movd	$0x484:m,(r3,r2)
    2814:	f2 61       	addd	(sp),(r3,r2)
    2816:	12 01       	push	$0x2,r2
    2818:	d4 55       	movd	(r13),(r5,r4)
    281a:	72 55       	movd	(r8,r7),(r3,r2)
    281c:	00 c0 68 42 	bal	(ra),*+0x6a84 <___sprint_r>:m

00002820 <.LVL372>:
    2820:	4f 60       	addd	$0x4:s,(sp)
    2822:	00 52       	cmpw	$0x0:s,r0
    2824:	10 18 ff f3 	bne	*-0x1c22 <.L17>:m
    2828:	f0 55       	movd	(sp),(r1,r0)
    282a:	3f 9f 8a 04 	loadw	0x48a:m(sp),r3
    282e:	2f 9f 88 04 	loadw	0x488:m(sp),r2
    2832:	ee 1d       	br	*-0x27ee <.L225>:s

00002834 <.L424>:
    2834:	0f 9f b0 04 	loadw	0x4b0:m(sp),r0
    2838:	10 22       	andw	$0x1:s,r0
    283a:	00 52       	cmpw	$0x0:s,r0
    283c:	10 18 85 f9 	bne	*-0x21c0 <.L228>:m
    2840:	8f af d0 04 	loadd	0x4d0:m(sp),(r9,r8)
    2844:	8d e0       	stord	(r9,r8),0x0:s(r13)
    2846:	10 54       	movd	$0x1:s,(r1,r0)
    2848:	0d e2       	stord	(r1,r0),0x4:s(r13)
    284a:	17 32       	addw	$0x1:s,r7
    284c:	7f df 8a 04 	storw	r7,0x48a:m(sp)
    2850:	bf 9f 88 04 	loadw	0x488:m(sp),r11
    2854:	1b 32       	addw	$0x1:s,r11
    2856:	bf df 88 04 	storw	r11,0x488:m(sp)
    285a:	7b 52       	cmpw	$0x7:s,r11
    285c:	d0 18 f3 f9 	bge	*-0x224e <.L402>:m
    2860:	b0 54 84 04 	movd	$0x484:m,(r1,r0)
    2864:	f0 61       	addd	(sp),(r1,r0)
    2866:	10 01       	push	$0x2,r0
    2868:	e0 18 0f fc 	br	*-0x2476 <.L401>:m

0000286c <.L230>:
    286c:	b0 54 84 04 	movd	$0x484:m,(r1,r0)
    2870:	f0 61       	addd	(sp),(r1,r0)
    2872:	10 01       	push	$0x2,r0
    2874:	4f af bc 04 	loadd	0x4bc:m(sp),(r5,r4)
    2878:	2f af c4 04 	loadd	0x4c4:m(sp),(r3,r2)
    287c:	00 c0 08 42 	bal	(ra),*+0x6a84 <___sprint_r>:m

00002880 <.LVL375>:
    2880:	4f 60       	addd	$0x4:s,(sp)
    2882:	00 52       	cmpw	$0x0:s,r0
    2884:	10 18 9f f3 	bne	*-0x1c22 <.L17>:m
    2888:	f0 55       	movd	(sp),(r1,r0)
    288a:	7f 9f 8a 04 	loadw	0x48a:m(sp),r7
    288e:	bf 9f 88 04 	loadw	0x488:m(sp),r11
    2892:	e0 18 53 f9 	br	*-0x21e4 <.L231>:m

00002896 <.L232>:
    2896:	b0 54 84 04 	movd	$0x484:m,(r1,r0)
    289a:	f0 61       	addd	(sp),(r1,r0)
    289c:	10 01       	push	$0x2,r0
    289e:	4f af bc 04 	loadd	0x4bc:m(sp),(r5,r4)
    28a2:	2f af c4 04 	loadd	0x4c4:m(sp),(r3,r2)
    28a6:	00 c0 de 41 	bal	(ra),*+0x6a84 <___sprint_r>:m

000028aa <.LVL379>:
    28aa:	4f 60       	addd	$0x4:s,(sp)
    28ac:	00 52       	cmpw	$0x0:s,r0
    28ae:	10 18 75 f3 	bne	*-0x1c22 <.L17>:m
    28b2:	fd 55       	movd	(sp),(r13)
    28b4:	7f 9f 8a 04 	loadw	0x48a:m(sp),r7
    28b8:	bf 9f 88 04 	loadw	0x488:m(sp),r11
    28bc:	e0 18 51 f9 	br	*-0x220c <.L233>:m

000028c0 <.L433>:
    28c0:	0d 55       	movd	(r1,r0),(r13)
    28c2:	b8 5b       	movw	r11,r8
    28c4:	2b 5b       	movw	r2,r11
    28c6:	37 5b       	movw	r3,r7

000028c8 <.L238>:
    28c8:	cd e0       	stord	(r12),0x0:s(r13)
    28ca:	80 5e       	movxw	r8,(r1,r0)
    28cc:	0d e2       	stord	(r1,r0),0x4:s(r13)
    28ce:	87 33       	addw	r8,r7
    28d0:	7f df 8a 04 	storw	r7,0x48a:m(sp)
    28d4:	1b 32       	addw	$0x1:s,r11
    28d6:	bf df 88 04 	storw	r11,0x488:m(sp)
    28da:	7b 52       	cmpw	$0x7:s,r11
    28dc:	d0 18 73 f9 	bge	*-0x224e <.L402>:m
    28e0:	b5 54 84 04 	movd	$0x484:m,(r6,r5)
    28e4:	f5 61       	addd	(sp),(r6,r5)
    28e6:	15 01       	push	$0x2,r5
    28e8:	e0 18 8f fb 	br	*-0x2476 <.L401>:m

000028ec <.L148>:
    28ec:	f0 55       	movd	(sp),(r1,r0)
    28ee:	b0 60 83 04 	addd	$0x483:m,(r1,r0)
    28f2:	b7 58 30 00 	movb	$0x30:m,r7

000028f6 <.L149>:
    28f6:	0c 55       	movd	(r1,r0),(r12)
    28f8:	a4 54       	movd	$0xa:s,(r5,r4)
    28fa:	82 55       	movd	(r9,r8),(r3,r2)
    28fc:	00 c0 34 6f 	bal	(ra),*+0x9830 <___umodsi3>:m
    2900:	70 31       	addb	r7,r0
    2902:	0c f0       	storb	r0,0x0:s(r12)
    2904:	a4 54       	movd	$0xa:s,(r5,r4)
    2906:	82 55       	movd	(r9,r8),(r3,r2)
    2908:	00 c0 1c 6f 	bal	(ra),*+0x9824 <___udivsi3>:m
    290c:	08 5b       	movw	r0,r8
    290e:	19 5b       	movw	r1,r9
    2910:	c0 55       	movd	(r12),(r1,r0)
    2912:	90 60       	addd	$-1:s,(r1,r0)
    2914:	08 56       	cmpd	$0x0:s,(r9,r8)
    2916:	10 1f       	bne	*-0x28f6 <.L149>:s
    2918:	cf ef d0 04 	stord	(r12),0x4d0:m(sp)
    291c:	0f 9f d0 04 	loadw	0x4d0:m(sp),r0
    2920:	7f 9f a8 04 	loadw	0x4a8:m(sp),r7
    2924:	07 3b       	subw	r0,r7
    2926:	7f df c4 04 	storw	r7,0x4c4:m(sp)
    292a:	e0 18 d1 f3 	br	*-0x1cfa <.L146>:m

0000292e <.L169>:
    292e:	b1 54 84 04 	movd	$0x484:m,(r2,r1)
    2932:	f1 61       	addd	(sp),(r2,r1)
    2934:	11 01       	push	$0x2,r1
    2936:	4f af bc 04 	loadd	0x4bc:m(sp),(r5,r4)
    293a:	2f af c4 04 	loadd	0x4c4:m(sp),(r3,r2)
    293e:	00 c0 46 41 	bal	(ra),*+0x6a84 <___sprint_r>:m

00002942 <.LVL394>:
    2942:	4f 60       	addd	$0x4:s,(sp)
    2944:	00 52       	cmpw	$0x0:s,r0
    2946:	10 18 dd f2 	bne	*-0x1c22 <.L17>:m
    294a:	fd 55       	movd	(sp),(r13)
    294c:	7f 9f 8a 04 	loadw	0x48a:m(sp),r7
    2950:	e0 18 eb ef 	br	*-0x193a <.L164>:m

00002954 <.L145>:
    2954:	b4 50 30 00 	cmpb	$0x30:m,r4
    2958:	00 18 bc 04 	beq	*+0x2e14 <.L437>:m
    295c:	0f ef d0 04 	stord	(r1,r0),0x4d0:m(sp)
    2960:	92 60       	addd	$-1:s,(r3,r2)
    2962:	b0 58 30 00 	movb	$0x30:m,r0
    2966:	02 f0       	storb	r0,0x0:s(r3,r2)
    2968:	7f 9f a8 04 	loadw	0x4a8:m(sp),r7
    296c:	8f 9f d0 04 	loadw	0x4d0:m(sp),r8
    2970:	87 3b       	subw	r8,r7
    2972:	7f df c4 04 	storw	r7,0x4c4:m(sp)
    2976:	e0 18 85 f3 	br	*-0x1cfa <.L146>:m

0000297a <.L63>:
    297a:	00 54       	movd	$0x0:s,(r1,r0)
    297c:	02 55       	movd	(r1,r0),(r3,r2)
    297e:	14 00 82 c0 	subd	(r9,r8),(r3,r2)
    2982:	28 55       	movd	(r3,r2),(r9,r8)
    2984:	bb 58 2d 00 	movb	$0x2d:m,r11
    2988:	bf ff a6 04 	storb	r11,0x4a6:m(sp)
    298c:	e0 18 1d f3 	br	*-0x1ca8 <.L393>:m

00002990 <.L426>:
    2990:	0d 55       	movd	(r1,r0),(r13)
    2992:	b8 5b       	movw	r11,r8
    2994:	2b 5b       	movw	r2,r11
    2996:	37 5b       	movw	r3,r7

00002998 <.L187>:
    2998:	cd e0       	stord	(r12),0x0:s(r13)
    299a:	80 5e       	movxw	r8,(r1,r0)
    299c:	0d e2       	stord	(r1,r0),0x4:s(r13)
    299e:	87 33       	addw	r8,r7
    29a0:	7f df 8a 04 	storw	r7,0x48a:m(sp)
    29a4:	1b 32       	addw	$0x1:s,r11
    29a6:	bf df 88 04 	storw	r11,0x488:m(sp)
    29aa:	7b 52       	cmpw	$0x7:s,r11
    29ac:	d0 18 63 f0 	bge	*-0x1a0e <.L403>:m
    29b0:	b2 54 84 04 	movd	$0x484:m,(r3,r2)
    29b4:	f2 61       	addd	(sp),(r3,r2)
    29b6:	12 01       	push	$0x2,r2
    29b8:	e0 18 c3 f8 	br	*-0x227a <.L400>:m

000029bc <.L67>:
    29bc:	0f af e0 04 	loadd	0x4e0:m(sp),(r1,r0)
    29c0:	2f af e4 04 	loadd	0x4e4:m(sp),(r3,r2)
    29c4:	30 01       	push	$0x4,r0
    29c6:	00 c0 42 3e 	bal	(ra),*+0x6808 <___fpclassifyd>:m

000029ca <.LVL407>:
    29ca:	8f 60       	addd	$0x8:s,(sp)
    29cc:	00 52       	cmpw	$0x0:s,r0
    29ce:	00 18 f4 02 	beq	*+0x2cc2 <.L438>:m
    29d2:	7f 9f d8 04 	loadw	0x4d8:m(sp),r7
    29d6:	b7 22 df ff 	andw	$0xffdf:m,r7
    29da:	9a 52       	cmpw	$-1:s,r10
    29dc:	00 18 44 06 	beq	*+0x3020 <.L439>:m
    29e0:	b7 52 47 00 	cmpw	$0x47:m,r7
    29e4:	14 10       	bne	*+0x29ec <.L74>:s
    29e6:	0a 52       	cmpw	$0x0:s,r10
    29e8:	12 10       	bne	*+0x29ec <.L74>:s
    29ea:	1a 5a       	movw	$0x1:s,r10

000029ec <.L74>:
    29ec:	8f 9f b0 04 	loadw	0x4b0:m(sp),r8
    29f0:	b8 26 00 01 	orw	$0x100:m,r8
    29f4:	8f df cc 04 	storw	r8,0x4cc:m(sp)

000029f8 <.LBB27>:
    29f8:	0f af e0 04 	loadd	0x4e0:m(sp),(r1,r0)
    29fc:	2f af e4 04 	loadd	0x4e4:m(sp),(r3,r2)
    2a00:	02 56       	cmpd	$0x0:s,(r3,r2)
    2a02:	60 18 24 06 	bgt	*+0x3026 <.L440>:m
    2a06:	2f af e0 04 	loadd	0x4e0:m(sp),(r3,r2)
    2a0a:	4f af e4 04 	loadd	0x4e4:m(sp),(r5,r4)
    2a0e:	2f ef f4 04 	stord	(r3,r2),0x4f4:m(sp)
    2a12:	4f ef f8 04 	stord	(r5,r4),0x4f8:m(sp)
    2a16:	0c 58       	movb	$0x0:s,r12

00002a18 <.L75>:
    2a18:	b7 52 46 00 	cmpw	$0x46:m,r7
    2a1c:	0b 08       	seq	r11
    2a1e:	0b 50       	cmpb	$0x0:s,r11
    2a20:	10 18 3e 05 	bne	*+0x2f5e <.L271>:m
    2a24:	b7 52 45 00 	cmpw	$0x45:m,r7
    2a28:	10 18 58 06 	bne	*+0x3080 <.L272>:m
    2a2c:	a8 5b       	movw	r10,r8
    2a2e:	18 32       	addw	$0x1:s,r8
    2a30:	f0 55       	movd	(sp),(r1,r0)
    2a32:	b0 60 9c 04 	addd	$0x49c:m,(r1,r0)
    2a36:	10 01       	push	$0x2,r0
    2a38:	f0 55       	movd	(sp),(r1,r0)
    2a3a:	b0 60 a6 04 	addd	$0x4a6:m,(r1,r0)
    2a3e:	10 01       	push	$0x2,r0
    2a40:	f0 55       	movd	(sp),(r1,r0)
    2a42:	b0 60 ac 04 	addd	$0x4ac:m,(r1,r0)
    2a46:	10 01       	push	$0x2,r0
    2a48:	0f af 00 05 	loadd	0x500:m(sp),(r1,r0)
    2a4c:	2f af 04 05 	loadd	0x504:m(sp),(r3,r2)
    2a50:	30 01       	push	$0x4,r0
    2a52:	85 5b       	movw	r8,r5
    2a54:	24 5a       	movw	$0x2:s,r4
    2a56:	2f af d4 04 	loadd	0x4d4:m(sp),(r3,r2)
    2a5a:	00 c0 7a 0b 	bal	(ra),*+0x35d4 <__dtoa_r>:m

00002a5e <.LVL420>:
    2a5e:	0f ef e4 04 	stord	(r1,r0),0x4e4:m(sp)
    2a62:	88 5e       	movxw	r8,(r9,r8)
    2a64:	08 61       	addd	(r1,r0),(r9,r8)
    2a66:	bf 60 14 00 	addd	$0x14:m,(sp)

00002a6a <.L77>:
    2a6a:	00 54       	movd	$0x0:s,(r1,r0)
    2a6c:	02 54       	movd	$0x0:s,(r3,r2)
    2a6e:	30 01       	push	$0x4,r0
    2a70:	2f af fc 04 	loadd	0x4fc:m(sp),(r3,r2)
    2a74:	4f af 00 05 	loadd	0x500:m(sp),(r5,r4)
    2a78:	32 01       	push	$0x4,r2
    2a7a:	00 c0 7a 68 	bal	(ra),*+0x92f4 <___eqdf2>:m
    2a7e:	bf 60 10 00 	addd	$0x10:m,(sp)
    2a82:	00 52       	cmpw	$0x0:s,r0
    2a84:	0e 10       	beq	*+0x2aa0 <.L83>:s
    2a86:	0f af 9c 04 	loadd	0x49c:m(sp),(r1,r0)
    2a8a:	08 57       	cmpd	(r1,r0),(r9,r8)
    2a8c:	b0 18 68 07 	bhs	*+0x31f4 <.L273>:m
    2a90:	b2 58 30 00 	movb	$0x30:m,r2

00002a94 <.L84>:
    2a94:	20 f0       	storb	r2,0x0:s(r1,r0)
    2a96:	10 60       	addd	$0x1:s,(r1,r0)
    2a98:	0f ef 9c 04 	stord	(r1,r0),0x49c:m(sp)
    2a9c:	80 57       	cmpd	(r9,r8),(r1,r0)
    2a9e:	1b 1f       	bne	*-0x2a94 <.L84>:s

00002aa0 <.L83>:
    2aa0:	83 5b       	movw	r8,r3
    2aa2:	4f 9f d0 04 	loadw	0x4d0:m(sp),r4
    2aa6:	43 3b       	subw	r4,r3
    2aa8:	3f df d6 04 	storw	r3,0x4d6:m(sp)
    2aac:	b7 52 47 00 	cmpw	$0x47:m,r7
    2ab0:	00 18 18 04 	beq	*+0x2ec8 <.L79>:m
    2ab4:	9f 9f d8 04 	loadw	0x4d8:m(sp),r9
    2ab8:	b9 52 65 00 	cmpw	$0x65:m,r9
    2abc:	d0 18 48 07 	bge	*+0x3204 <.L441>:m
    2ac0:	8f 9f d8 04 	loadw	0x4d8:m(sp),r8
    2ac4:	0f 9f a4 04 	loadw	0x4a4:m(sp),r0
    2ac8:	b8 52 66 00 	cmpw	$0x66:m,r8
    2acc:	00 18 ba 05 	beq	*+0x3086 <.L101>:m

00002ad0 <.L87>:
    2ad0:	8f 9f d6 04 	loadw	0x4d6:m(sp),r8
    2ad4:	80 53       	cmpw	r8,r0
    2ad6:	60 18 7c 05 	bgt	*+0x3052 <.L109>:m
    2ada:	1f 9f b0 04 	loadw	0x4b0:m(sp),r1
    2ade:	11 22       	andw	$0x1:s,r1
    2ae0:	01 52       	cmpw	$0x0:s,r1
    2ae2:	10 18 50 06 	bne	*+0x3132 <.L110>:m
    2ae6:	01 5b       	movw	r0,r1
    2ae8:	91 2a       	xorw	$-1:s,r1
    2aea:	11 43       	ashuw	$-15:s,r1
    2aec:	01 23       	andw	r0,r1
    2aee:	1f df bc 04 	storw	r1,0x4bc:m(sp)
    2af2:	0f df c4 04 	storw	r0,0x4c4:m(sp)
    2af6:	b9 5a 67 00 	movw	$0x67:m,r9
    2afa:	9f df d8 04 	storw	r9,0x4d8:m(sp)
    2afe:	0f df da 04 	storw	r0,0x4da:m(sp)

00002b02 <.L99>:
    2b02:	0c 50       	cmpb	$0x0:s,r12
    2b04:	10 18 9e 03 	bne	*+0x2ea2 <.L115>:m
    2b08:	bf bf a6 04 	loadb	0x4a6:m(sp),r11
    2b0c:	9f 9f cc 04 	loadw	0x4cc:m(sp),r9
    2b10:	9f df b0 04 	storw	r9,0x4b0:m(sp)
    2b14:	0f c3 d4 04 	storw	$0x0:s,0x4d4:m(sp)
    2b18:	e0 18 fb f1 	br	*-0x1d12 <.L58>:m

00002b1c <.L277>:
    2b1c:	02 58       	movb	$0x0:s,r2
    2b1e:	20 58       	movb	$0x2:s,r0
    2b20:	e0 18 73 f3 	br	*-0x1e92 <.L120>:m

00002b24 <.L116>:
    2b24:	07 a0       	loadd	0x0:s(r8,r7),(r1,r0)
    2b26:	8f 9f be 04 	loadw	0x4be:m(sp),r8
    2b2a:	80 d0       	storw	r8,0x0:s(r1,r0)
    2b2c:	cf af c8 04 	loadd	0x4c8:m(sp),(r12)
    2b30:	4c 60       	addd	$0x4:s,(r12)
    2b32:	cf ef c8 04 	stord	(r12),0x4c8:m(sp)
    2b36:	e0 18 df eb 	br	*-0x1714 <.L374>:m

00002b3a <.L431>:
    2b3a:	0d 55       	movd	(r1,r0),(r13)
    2b3c:	b8 5b       	movw	r11,r8
    2b3e:	2b 5b       	movw	r2,r11
    2b40:	37 5b       	movw	r3,r7

00002b42 <.L211>:
    2b42:	cd e0       	stord	(r12),0x0:s(r13)
    2b44:	80 5e       	movxw	r8,(r1,r0)
    2b46:	0d e2       	stord	(r1,r0),0x4:s(r13)
    2b48:	87 33       	addw	r8,r7
    2b4a:	7f df 8a 04 	storw	r7,0x48a:m(sp)
    2b4e:	1b 32       	addw	$0x1:s,r11
    2b50:	bf df 88 04 	storw	r11,0x488:m(sp)
    2b54:	7b 52       	cmpw	$0x7:s,r11
    2b56:	c0 18 bb fb 	blt	*-0x2710 <.L215>:m
    2b5a:	8d 60       	addd	$0x8:s,(r13)
    2b5c:	e0 18 d7 fb 	br	*-0x2732 <.L210>:m

00002b60 <.L65>:
    2b60:	0c a0       	loadd	0x0:s(r12),(r1,r0)
    2b62:	2c a2       	loadd	0x4:s(r12),(r3,r2)
    2b64:	0f ef e0 04 	stord	(r1,r0),0x4e0:m(sp)
    2b68:	2f ef e4 04 	stord	(r3,r2),0x4e4:m(sp)
    2b6c:	8c 60       	addd	$0x8:s,(r12)
    2b6e:	cf ef c8 04 	stord	(r12),0x4c8:m(sp)
    2b72:	e0 18 2d f2 	br	*-0x1d9e <.L66>:m

00002b76 <.L121>:
    2b76:	07 90       	loadw	0x0:s(r8,r7),r0
    2b78:	08 5f       	movzw	r0,(r9,r8)
    2b7a:	00 52       	cmpw	$0x0:s,r0
    2b7c:	12 08       	sne	r2
    2b7e:	cf af c8 04 	loadd	0x4c8:m(sp),(r12)
    2b82:	2c 60       	addd	$0x2:s,(r12)
    2b84:	cf ef c8 04 	stord	(r12),0x4c8:m(sp)
    2b88:	10 59       	movb	r1,r0
    2b8a:	e0 18 09 f3 	br	*-0x1e92 <.L120>:m

00002b8e <.L435>:
    2b8e:	0d 55       	movd	(r1,r0),(r13)
    2b90:	b8 5b       	movw	r11,r8
    2b92:	2b 5b       	movw	r2,r11
    2b94:	37 5b       	movw	r3,r7

00002b96 <.L223>:
    2b96:	cd e0       	stord	(r12),0x0:s(r13)
    2b98:	80 5e       	movxw	r8,(r1,r0)
    2b9a:	0d e2       	stord	(r1,r0),0x4:s(r13)
    2b9c:	87 33       	addw	r8,r7
    2b9e:	7f df 8a 04 	storw	r7,0x48a:m(sp)
    2ba2:	1b 32       	addw	$0x1:s,r11
    2ba4:	bf df 88 04 	storw	r11,0x488:m(sp)
    2ba8:	7b 52       	cmpw	$0x7:s,r11
    2baa:	d0 18 65 ee 	bge	*-0x1a0e <.L403>:m
    2bae:	b3 54 84 04 	movd	$0x484:m,(r4,r3)
    2bb2:	f3 61       	addd	(sp),(r4,r3)
    2bb4:	13 01       	push	$0x2,r3
    2bb6:	e0 18 c5 f6 	br	*-0x227a <.L400>:m

00002bba <.L182>:
    2bba:	b1 54 84 04 	movd	$0x484:m,(r2,r1)
    2bbe:	f1 61       	addd	(sp),(r2,r1)
    2bc0:	11 01       	push	$0x2,r1
    2bc2:	4f af bc 04 	loadd	0x4bc:m(sp),(r5,r4)
    2bc6:	2f af c4 04 	loadd	0x4c4:m(sp),(r3,r2)
    2bca:	00 c0 ba 3e 	bal	(ra),*+0x6a84 <___sprint_r>:m

00002bce <.LVL450>:
    2bce:	4f 60       	addd	$0x4:s,(sp)
    2bd0:	00 52       	cmpw	$0x0:s,r0
    2bd2:	10 18 51 f0 	bne	*-0x1c22 <.L17>:m
    2bd6:	fd 55       	movd	(sp),(r13)
    2bd8:	7f 9f 8a 04 	loadw	0x48a:m(sp),r7
    2bdc:	e0 18 2f f7 	br	*-0x230a <.L183>:m

00002be0 <.L430>:
    2be0:	00 05 fa 9e 	movd	$0x9efa:m,(r1,r0)
    2be4:	0d e0       	stord	(r1,r0),0x0:s(r13)
    2be6:	10 54       	movd	$0x1:s,(r1,r0)
    2be8:	0d e2       	stord	(r1,r0),0x4:s(r13)
    2bea:	17 32       	addw	$0x1:s,r7
    2bec:	7f df 8a 04 	storw	r7,0x48a:m(sp)
    2bf0:	bf 9f 88 04 	loadw	0x488:m(sp),r11
    2bf4:	1b 32       	addw	$0x1:s,r11
    2bf6:	bf df 88 04 	storw	r11,0x488:m(sp)
    2bfa:	7b 52       	cmpw	$0x7:s,r11
    2bfc:	ca 17       	blt	*+0x2cf0 <.L194>:s
    2bfe:	8d 60       	addd	$0x8:s,(r13)

00002c00 <.L195>:
    2c00:	02 52       	cmpw	$0x0:s,r2
    2c02:	1b 10       	bne	*+0x2c18 <.L196>:s
    2c04:	8f 9f d6 04 	loadw	0x4d6:m(sp),r8
    2c08:	08 52       	cmpw	$0x0:s,r8
    2c0a:	17 10       	bne	*+0x2c18 <.L196>:s
    2c0c:	0f 9f b0 04 	loadw	0x4b0:m(sp),r0
    2c10:	10 22       	andw	$0x1:s,r0
    2c12:	00 52       	cmpw	$0x0:s,r0
    2c14:	00 18 fd ed 	beq	*-0x1a10 <.L178>:m

00002c18 <.L196>:
    2c18:	8f af dc 04 	loadd	0x4dc:m(sp),(r9,r8)
    2c1c:	8d e0       	stord	(r9,r8),0x0:s(r13)
    2c1e:	9f 9f e8 04 	loadw	0x4e8:m(sp),r9
    2c22:	9d d2       	storw	r9,0x4:s(r13)
    2c24:	cf 9f ec 04 	loadw	0x4ec:m(sp),r12
    2c28:	cd d3       	storw	r12,0x6:s(r13)
    2c2a:	97 33       	addw	r9,r7
    2c2c:	7f df 8a 04 	storw	r7,0x48a:m(sp)
    2c30:	bf 9f 88 04 	loadw	0x488:m(sp),r11
    2c34:	1b 32       	addw	$0x1:s,r11
    2c36:	bf df 88 04 	storw	r11,0x488:m(sp)
    2c3a:	7b 52       	cmpw	$0x7:s,r11
    2c3c:	c0 18 b6 03 	blt	*+0x2ff2 <.L197>:m
    2c40:	d0 55       	movd	(r13),(r1,r0)
    2c42:	80 60       	addd	$0x8:s,(r1,r0)

00002c44 <.L198>:
    2c44:	08 5a       	movw	$0x0:s,r8
    2c46:	28 3b       	subw	r2,r8
    2c48:	08 52       	cmpw	$0x0:s,r8
    2c4a:	d0 18 1c 01 	bge	*+0x2d66 <.L199>:m
    2c4e:	c0 05 70 a0 	movd	$0xa070:m,(r12)
    2c52:	b8 52 10 00 	cmpw	$0x10:m,r8
    2c56:	d0 18 a4 01 	bge	*+0x2dfa <.L200>:m
    2c5a:	b9 54 10 00 	movd	$0x10:m,(r10,r9)
    2c5e:	df af c0 04 	loadd	0x4c0:m(sp),(r13)
    2c62:	b2 5b       	movw	r11,r2
    2c64:	8b 5b       	movw	r8,r11
    2c66:	73 5b       	movw	r7,r3
    2c68:	7f af b8 04 	loadd	0x4b8:m(sp),(r8,r7)
    2c6c:	e8 10       	br	*+0x2c7c <.L203>:s

00002c6e <.L443>:
    2c6e:	80 60       	addd	$0x8:s,(r1,r0)

00002c70 <.L202>:
    2c70:	bb 32 f0 ff 	addw	$0xfff0:m,r11
    2c74:	bb 52 10 00 	cmpw	$0x10:m,r11
    2c78:	d0 18 7c 01 	bge	*+0x2df4 <.L442>:m

00002c7c <.L203>:
    2c7c:	c0 e0       	stord	(r12),0x0:s(r1,r0)
    2c7e:	90 e2       	stord	(r10,r9),0x4:s(r1,r0)
    2c80:	b3 32 10 00 	addw	$0x10:m,r3
    2c84:	3f df 8a 04 	storw	r3,0x48a:m(sp)
    2c88:	12 32       	addw	$0x1:s,r2
    2c8a:	2f df 88 04 	storw	r2,0x488:m(sp)
    2c8e:	72 52       	cmpw	$0x7:s,r2
    2c90:	df 1e       	bge	*-0x2c6e <.L443>:s
    2c92:	b1 54 84 04 	movd	$0x484:m,(r2,r1)
    2c96:	f1 61       	addd	(sp),(r2,r1)
    2c98:	11 01       	push	$0x2,r1
    2c9a:	74 55       	movd	(r8,r7),(r5,r4)
    2c9c:	d2 55       	movd	(r13),(r3,r2)
    2c9e:	00 c0 e6 3d 	bal	(ra),*+0x6a84 <___sprint_r>:m

00002ca2 <.LVL462>:
    2ca2:	4f 60       	addd	$0x4:s,(sp)
    2ca4:	00 52       	cmpw	$0x0:s,r0
    2ca6:	10 18 7d ef 	bne	*-0x1c22 <.L17>:m
    2caa:	f0 55       	movd	(sp),(r1,r0)
    2cac:	3f 9f 8a 04 	loadw	0x48a:m(sp),r3
    2cb0:	2f 9f 88 04 	loadw	0x488:m(sp),r2
    2cb4:	ee 1d       	br	*-0x2c70 <.L202>:s

00002cb6 <.L419>:
    2cb6:	c0 05 be 9e 	movd	$0x9ebe:m,(r12)
    2cba:	cf ef d0 04 	stord	(r12),0x4d0:m(sp)
    2cbe:	e0 18 2d f1 	br	*-0x1dea <.L70>:m

00002cc2 <.L438>:
    2cc2:	70 05 ca 9e 	movd	$0x9eca:m,(r8,r7)
    2cc6:	7f ef d0 04 	stord	(r8,r7),0x4d0:m(sp)
    2cca:	8f 9f d8 04 	loadw	0x4d8:m(sp),r8
    2cce:	b8 52 47 00 	cmpw	$0x47:m,r8
    2cd2:	c5 10       	blt	*+0x2cdc <.L72>:s
    2cd4:	c0 05 c6 9e 	movd	$0x9ec6:m,(r12)
    2cd8:	cf ef d0 04 	stord	(r12),0x4d0:m(sp)

00002cdc <.L72>:
    2cdc:	7f 9f b0 04 	loadw	0x4b0:m(sp),r7
    2ce0:	b7 22 7f ff 	andw	$0xff7f:m,r7
    2ce4:	7f df b0 04 	storw	r7,0x4b0:m(sp)
    2ce8:	bf bf a6 04 	loadb	0x4a6:m(sp),r11
    2cec:	e0 18 0b f1 	br	*-0x1df6 <.L396>:m

00002cf0 <.L194>:
    2cf0:	b3 54 84 04 	movd	$0x484:m,(r4,r3)
    2cf4:	f3 61       	addd	(sp),(r4,r3)
    2cf6:	13 01       	push	$0x2,r3
    2cf8:	4f af bc 04 	loadd	0x4bc:m(sp),(r5,r4)
    2cfc:	2f af c4 04 	loadd	0x4c4:m(sp),(r3,r2)
    2d00:	00 c0 84 3d 	bal	(ra),*+0x6a84 <___sprint_r>:m

00002d04 <.LVL469>:
    2d04:	4f 60       	addd	$0x4:s,(sp)
    2d06:	00 52       	cmpw	$0x0:s,r0
    2d08:	10 18 1b ef 	bne	*-0x1c22 <.L17>:m
    2d0c:	2f 9f a4 04 	loadw	0x4a4:m(sp),r2
    2d10:	fd 55       	movd	(sp),(r13)
    2d12:	7f 9f 8a 04 	loadw	0x48a:m(sp),r7
    2d16:	e0 18 eb fe 	br	*-0x2c00 <.L195>:m

00002d1a <.L185>:
    2d1a:	b0 54 84 04 	movd	$0x484:m,(r1,r0)
    2d1e:	f0 61       	addd	(sp),(r1,r0)
    2d20:	10 01       	push	$0x2,r0
    2d22:	4f af bc 04 	loadd	0x4bc:m(sp),(r5,r4)
    2d26:	2f af c4 04 	loadd	0x4c4:m(sp),(r3,r2)
    2d2a:	00 c0 5a 3d 	bal	(ra),*+0x6a84 <___sprint_r>:m

00002d2e <.LVL472>:
    2d2e:	4f 60       	addd	$0x4:s,(sp)
    2d30:	00 52       	cmpw	$0x0:s,r0
    2d32:	10 18 f1 ee 	bne	*-0x1c22 <.L17>:m
    2d36:	fd 55       	movd	(sp),(r13)
    2d38:	7f 9f 8a 04 	loadw	0x48a:m(sp),r7
    2d3c:	e0 18 11 f6 	br	*-0x234c <.L186>:m

00002d40 <.L204>:
    2d40:	b2 54 84 04 	movd	$0x484:m,(r3,r2)
    2d44:	f2 61       	addd	(sp),(r3,r2)
    2d46:	12 01       	push	$0x2,r2
    2d48:	4f af bc 04 	loadd	0x4bc:m(sp),(r5,r4)
    2d4c:	2f af c4 04 	loadd	0x4c4:m(sp),(r3,r2)
    2d50:	00 c0 34 3d 	bal	(ra),*+0x6a84 <___sprint_r>:m

00002d54 <.LVL475>:
    2d54:	4f 60       	addd	$0x4:s,(sp)
    2d56:	00 52       	cmpw	$0x0:s,r0
    2d58:	10 18 cb ee 	bne	*-0x1c22 <.L17>:m
    2d5c:	f0 55       	movd	(sp),(r1,r0)
    2d5e:	7f 9f 8a 04 	loadw	0x48a:m(sp),r7
    2d62:	bf 9f 88 04 	loadw	0x488:m(sp),r11

00002d66 <.L199>:
    2d66:	8f af d0 04 	loadd	0x4d0:m(sp),(r9,r8)
    2d6a:	80 e0       	stord	(r9,r8),0x0:s(r1,r0)
    2d6c:	9f 9f d6 04 	loadw	0x4d6:m(sp),r9
    2d70:	92 5e       	movxw	r9,(r3,r2)
    2d72:	20 e2       	stord	(r3,r2),0x4:s(r1,r0)
    2d74:	97 33       	addw	r9,r7
    2d76:	7f df 8a 04 	storw	r7,0x48a:m(sp)
    2d7a:	1b 32       	addw	$0x1:s,r11
    2d7c:	bf df 88 04 	storw	r11,0x488:m(sp)
    2d80:	7b 52       	cmpw	$0x7:s,r11
    2d82:	c0 18 f1 f4 	blt	*-0x2272 <.L177>:m
    2d86:	0d 55       	movd	(r1,r0),(r13)
    2d88:	8d 60       	addd	$0x8:s,(r13)
    2d8a:	e0 18 87 ec 	br	*-0x1a10 <.L178>:m

00002d8e <.L125>:
    2d8e:	2f af d0 04 	loadd	0x4d0:m(sp),(r3,r2)
    2d92:	00 c0 7a 3c 	bal	(ra),*+0x6a0c <_strlen>:m

00002d96 <.LVL481>:
    2d96:	0f df c4 04 	storw	r0,0x4c4:m(sp)
    2d9a:	e0 18 ef f2 	br	*-0x2088 <.L395>:m

00002d9e <.L208>:
    2d9e:	b1 54 84 04 	movd	$0x484:m,(r2,r1)
    2da2:	f1 61       	addd	(sp),(r2,r1)
    2da4:	11 01       	push	$0x2,r1
    2da6:	4f af bc 04 	loadd	0x4bc:m(sp),(r5,r4)
    2daa:	2f af c4 04 	loadd	0x4c4:m(sp),(r3,r2)
    2dae:	00 c0 d6 3c 	bal	(ra),*+0x6a84 <___sprint_r>:m

00002db2 <.LVL484>:
    2db2:	4f 60       	addd	$0x4:s,(sp)
    2db4:	00 52       	cmpw	$0x0:s,r0
    2db6:	10 18 6d ee 	bne	*-0x1c22 <.L17>:m
    2dba:	fd 55       	movd	(sp),(r13)
    2dbc:	7f 9f 8a 04 	loadw	0x48a:m(sp),r7
    2dc0:	e0 18 b1 f7 	br	*-0x2570 <.L207>:m

00002dc4 <.L221>:
    2dc4:	b1 54 84 04 	movd	$0x484:m,(r2,r1)
    2dc8:	f1 61       	addd	(sp),(r2,r1)
    2dca:	11 01       	push	$0x2,r1
    2dcc:	4f af bc 04 	loadd	0x4bc:m(sp),(r5,r4)
    2dd0:	2f af c4 04 	loadd	0x4c4:m(sp),(r3,r2)
    2dd4:	00 c0 b0 3c 	bal	(ra),*+0x6a84 <___sprint_r>:m

00002dd8 <.LVL488>:
    2dd8:	4f 60       	addd	$0x4:s,(sp)
    2dda:	00 52       	cmpw	$0x0:s,r0
    2ddc:	10 18 47 ee 	bne	*-0x1c22 <.L17>:m
    2de0:	0f 9f a4 04 	loadw	0x4a4:m(sp),r0
    2de4:	8f 9f d6 04 	loadw	0x4d6:m(sp),r8
    2de8:	08 3b       	subw	r0,r8
    2dea:	fd 55       	movd	(sp),(r13)
    2dec:	7f 9f 8a 04 	loadw	0x48a:m(sp),r7
    2df0:	e0 18 c7 f9 	br	*-0x27b6 <.L220>:m

00002df4 <.L442>:
    2df4:	b8 5b       	movw	r11,r8
    2df6:	2b 5b       	movw	r2,r11
    2df8:	37 5b       	movw	r3,r7

00002dfa <.L200>:
    2dfa:	c0 e0       	stord	(r12),0x0:s(r1,r0)
    2dfc:	82 5e       	movxw	r8,(r3,r2)
    2dfe:	20 e2       	stord	(r3,r2),0x4:s(r1,r0)
    2e00:	87 33       	addw	r8,r7
    2e02:	7f df 8a 04 	storw	r7,0x48a:m(sp)
    2e06:	1b 32       	addw	$0x1:s,r11
    2e08:	bf df 88 04 	storw	r11,0x488:m(sp)
    2e0c:	7b 52       	cmpw	$0x7:s,r11
    2e0e:	c9 19       	blt	*-0x2d40 <.L204>:s
    2e10:	80 60       	addd	$0x8:s,(r1,r0)
    2e12:	ea 1a       	br	*-0x2d66 <.L199>:s

00002e14 <.L437>:
    2e14:	9f 9f a8 04 	loadw	0x4a8:m(sp),r9
    2e18:	0f 9f d0 04 	loadw	0x4d0:m(sp),r0
    2e1c:	09 3b       	subw	r0,r9
    2e1e:	9f df c4 04 	storw	r9,0x4c4:m(sp)
    2e22:	e0 18 d9 ee 	br	*-0x1cfa <.L146>:m

00002e26 <.L218>:
    2e26:	b0 54 84 04 	movd	$0x484:m,(r1,r0)
    2e2a:	f0 61       	addd	(sp),(r1,r0)
    2e2c:	10 01       	push	$0x2,r0
    2e2e:	4f af bc 04 	loadd	0x4bc:m(sp),(r5,r4)
    2e32:	2f af c4 04 	loadd	0x4c4:m(sp),(r3,r2)
    2e36:	00 c0 4e 3c 	bal	(ra),*+0x6a84 <___sprint_r>:m

00002e3a <.LVL496>:
    2e3a:	4f 60       	addd	$0x4:s,(sp)
    2e3c:	00 52       	cmpw	$0x0:s,r0
    2e3e:	10 18 e5 ed 	bne	*-0x1c22 <.L17>:m
    2e42:	2f 9f a4 04 	loadw	0x4a4:m(sp),r2
    2e46:	fd 55       	movd	(sp),(r13)
    2e48:	7f 9f 8a 04 	loadw	0x48a:m(sp),r7
    2e4c:	e0 18 33 f9 	br	*-0x277e <.L217>:m

00002e50 <.L421>:
    2e50:	af df c4 04 	storw	r10,0x4c4:m(sp)
    2e54:	6a 52       	cmpw	$0x6:s,r10
    2e56:	b6 11       	bhs	*+0x2e82 <.L123>:s
    2e58:	6f c3 c4 04 	storw	$0x6:s,0x4c4:m(sp)
    2e5c:	7f 9f c4 04 	loadw	0x4c4:m(sp),r7
    2e60:	7f df bc 04 	storw	r7,0x4bc:m(sp)

00002e64 <.L124>:
    2e64:	8f ef c8 04 	stord	(r9,r8),0x4c8:m(sp)
    2e68:	0b 58       	movb	$0x0:s,r11
    2e6a:	0f c3 d4 04 	storw	$0x0:s,0x4d4:m(sp)
    2e6e:	8f 9f d4 04 	loadw	0x4d4:m(sp),r8
    2e72:	8f df da 04 	storw	r8,0x4da:m(sp)
    2e76:	c0 05 f2 9e 	movd	$0x9ef2:m,(r12)
    2e7a:	cf ef d0 04 	stord	(r12),0x4d0:m(sp)
    2e7e:	e0 18 87 e9 	br	*-0x1804 <.L152>:m

00002e82 <.L123>:
    2e82:	0f 9f c4 04 	loadw	0x4c4:m(sp),r0
    2e86:	90 2a       	xorw	$-1:s,r0
    2e88:	10 43       	ashuw	$-15:s,r0
    2e8a:	7f 9f c4 04 	loadw	0x4c4:m(sp),r7
    2e8e:	07 23       	andw	r0,r7
    2e90:	7f df bc 04 	storw	r7,0x4bc:m(sp)
    2e94:	e8 1e       	br	*-0x2e64 <.L124>:s

00002e96 <.L68>:
    2e96:	bb 58 2d 00 	movb	$0x2d:m,r11
    2e9a:	bf ff a6 04 	storb	r11,0x4a6:m(sp)
    2e9e:	e0 18 39 ef 	br	*-0x1dd6 <.L69>:m

00002ea2 <.L115>:
    2ea2:	bb 58 2d 00 	movb	$0x2d:m,r11
    2ea6:	bf ff a6 04 	storb	r11,0x4a6:m(sp)
    2eaa:	cf 9f cc 04 	loadw	0x4cc:m(sp),r12
    2eae:	cf df b0 04 	storw	r12,0x4b0:m(sp)
    2eb2:	0f c3 d4 04 	storw	$0x0:s,0x4d4:m(sp)
    2eb6:	e0 18 63 ee 	br	*-0x1d18 <.L373>:m

00002eba <.L447>:
    2eba:	0f 9f 9c 04 	loadw	0x49c:m(sp),r0
    2ebe:	1f 9f d0 04 	loadw	0x4d0:m(sp),r1
    2ec2:	10 3b       	subw	r1,r0
    2ec4:	0f df d6 04 	storw	r0,0x4d6:m(sp)

00002ec8 <.L79>:
    2ec8:	7f 9f a4 04 	loadw	0x4a4:m(sp),r7
    2ecc:	70 5b       	movw	r7,r0
    2ece:	b7 52 fd ff 	cmpw	$0xfffd:m,r7
    2ed2:	64 10       	bgt	*+0x2eda <.L86>:s
    2ed4:	7a 53       	cmpw	r7,r10
    2ed6:	70 18 fb fb 	ble	*-0x2ad0 <.L87>:m

00002eda <.L86>:
    2eda:	8f 9f d8 04 	loadw	0x4d8:m(sp),r8
    2ede:	b8 32 fe ff 	addw	$0xfffe:m,r8
    2ee2:	8f df d8 04 	storw	r8,0x4d8:m(sp)

00002ee6 <.L88>:
    2ee6:	97 32       	addw	$-1:s,r7
    2ee8:	7f df a4 04 	storw	r7,0x4a4:m(sp)

00002eec <.LBB40>:
    2eec:	0f bf d8 04 	loadb	0x4d8:m(sp),r0
    2ef0:	0f ff 93 04 	storb	r0,0x493:m(sp)
    2ef4:	07 52       	cmpw	$0x0:s,r7
    2ef6:	60 18 8c 02 	bgt	*+0x3182 <.L444>:m
    2efa:	b0 58 2b 00 	movb	$0x2b:m,r0
    2efe:	0f ff 94 04 	storb	r0,0x494:m(sp)

00002f02 <.L91>:
    2f02:	b7 52 09 00 	cmpw	$0x9:m,r7
    2f06:	c0 18 a2 01 	blt	*+0x30a8 <.L445>:m
    2f0a:	b0 58 30 00 	movb	$0x30:m,r0
    2f0e:	0f ff 95 04 	storb	r0,0x495:m(sp)
    2f12:	70 31       	addb	r7,r0
    2f14:	0f ff 96 04 	storb	r0,0x496:m(sp)
    2f18:	f2 55       	movd	(sp),(r3,r2)
    2f1a:	b2 60 97 04 	addd	$0x497:m,(r3,r2)
    2f1e:	f0 55       	movd	(sp),(r1,r0)
    2f20:	b0 60 93 04 	addd	$0x493:m,(r1,r0)

00002f24 <.L94>:
    2f24:	27 5b       	movw	r2,r7
    2f26:	07 3b       	subw	r0,r7
    2f28:	7f df ea 04 	storw	r7,0x4ea:m(sp)
    2f2c:	8f 9f d6 04 	loadw	0x4d6:m(sp),r8
    2f30:	78 33       	addw	r7,r8
    2f32:	8f df c4 04 	storw	r8,0x4c4:m(sp)
    2f36:	9f 9f d6 04 	loadw	0x4d6:m(sp),r9
    2f3a:	19 52       	cmpw	$0x1:s,r9
    2f3c:	d0 18 74 02 	bge	*+0x31b0 <.L446>:m

00002f40 <.L97>:
    2f40:	7f 9f c4 04 	loadw	0x4c4:m(sp),r7
    2f44:	17 32       	addw	$0x1:s,r7
    2f46:	7f df c4 04 	storw	r7,0x4c4:m(sp)
    2f4a:	70 5b       	movw	r7,r0
    2f4c:	90 2a       	xorw	$-1:s,r0
    2f4e:	10 43       	ashuw	$-15:s,r0
    2f50:	07 23       	andw	r0,r7
    2f52:	7f df bc 04 	storw	r7,0x4bc:m(sp)
    2f56:	0f c3 da 04 	storw	$0x0:s,0x4da:m(sp)
    2f5a:	e0 18 a9 fb 	br	*-0x2b02 <.L99>:m

00002f5e <.L271>:
    2f5e:	34 5a       	movw	$0x3:s,r4

00002f60 <.L76>:
    2f60:	f0 55       	movd	(sp),(r1,r0)
    2f62:	b0 60 9c 04 	addd	$0x49c:m,(r1,r0)
    2f66:	10 01       	push	$0x2,r0
    2f68:	f0 55       	movd	(sp),(r1,r0)
    2f6a:	b0 60 a6 04 	addd	$0x4a6:m,(r1,r0)
    2f6e:	10 01       	push	$0x2,r0
    2f70:	f0 55       	movd	(sp),(r1,r0)
    2f72:	b0 60 ac 04 	addd	$0x4ac:m,(r1,r0)
    2f76:	10 01       	push	$0x2,r0
    2f78:	0f af 00 05 	loadd	0x500:m(sp),(r1,r0)
    2f7c:	2f af 04 05 	loadd	0x504:m(sp),(r3,r2)
    2f80:	30 01       	push	$0x4,r0
    2f82:	a5 5b       	movw	r10,r5
    2f84:	2f af d4 04 	loadd	0x4d4:m(sp),(r3,r2)
    2f88:	00 c0 4c 06 	bal	(ra),*+0x35d4 <__dtoa_r>:m

00002f8c <.LVL526>:
    2f8c:	0f ef e4 04 	stord	(r1,r0),0x4e4:m(sp)
    2f90:	bf 60 14 00 	addd	$0x14:m,(sp)
    2f94:	b7 52 47 00 	cmpw	$0x47:m,r7
    2f98:	16 10       	bne	*+0x2fa4 <.L78>:s
    2f9a:	0f 9f b0 04 	loadw	0x4b0:m(sp),r0
    2f9e:	10 22       	andw	$0x1:s,r0
    2fa0:	00 52       	cmpw	$0x0:s,r0
    2fa2:	0c 18       	beq	*-0x2eba <.L447>:s

00002fa4 <.L78>:
    2fa4:	a8 5e       	movxw	r10,(r9,r8)
    2fa6:	2f af d0 04 	loadd	0x4d0:m(sp),(r3,r2)
    2faa:	28 61       	addd	(r3,r2),(r9,r8)
    2fac:	0b 50       	cmpb	$0x0:s,r11
    2fae:	00 18 bd fa 	beq	*-0x2a6a <.L77>:m
    2fb2:	02 b0       	loadb	0x0:s(r3,r2),r0
    2fb4:	b0 50 30 00 	cmpb	$0x30:m,r0
    2fb8:	07 10       	beq	*+0x2fc6 <.L80>:s

00002fba <.L392>:
    2fba:	0f 9f a4 04 	loadw	0x4a4:m(sp),r0
    2fbe:	00 5e       	movxw	r0,(r1,r0)
    2fc0:	08 61       	addd	(r1,r0),(r9,r8)
    2fc2:	e0 18 a9 fa 	br	*-0x2a6a <.L77>:m

00002fc6 <.L80>:
    2fc6:	00 54       	movd	$0x0:s,(r1,r0)
    2fc8:	02 54       	movd	$0x0:s,(r3,r2)
    2fca:	30 01       	push	$0x4,r0
    2fcc:	0f af fc 04 	loadd	0x4fc:m(sp),(r1,r0)
    2fd0:	2f af 00 05 	loadd	0x500:m(sp),(r3,r2)
    2fd4:	30 01       	push	$0x4,r0
    2fd6:	00 c0 92 63 	bal	(ra),*+0x9368 <___nedf2>:m
    2fda:	bf 60 10 00 	addd	$0x10:m,(sp)
    2fde:	00 52       	cmpw	$0x0:s,r0
    2fe0:	0d 1e       	beq	*-0x2fba <.L392>:s
    2fe2:	10 5a       	movw	$0x1:s,r0
    2fe4:	a0 3b       	subw	r10,r0
    2fe6:	0f df a4 04 	storw	r0,0x4a4:m(sp)
    2fea:	00 5e       	movxw	r0,(r1,r0)
    2fec:	08 61       	addd	(r1,r0),(r9,r8)
    2fee:	e0 18 7d fa 	br	*-0x2a6a <.L77>:m

00002ff2 <.L197>:
    2ff2:	b0 54 84 04 	movd	$0x484:m,(r1,r0)
    2ff6:	f0 61       	addd	(sp),(r1,r0)
    2ff8:	10 01       	push	$0x2,r0
    2ffa:	4f af bc 04 	loadd	0x4bc:m(sp),(r5,r4)
    2ffe:	2f af c4 04 	loadd	0x4c4:m(sp),(r3,r2)
    3002:	00 c0 82 3a 	bal	(ra),*+0x6a84 <___sprint_r>:m

00003006 <.LVL540>:
    3006:	4f 60       	addd	$0x4:s,(sp)
    3008:	00 52       	cmpw	$0x0:s,r0
    300a:	10 18 19 ec 	bne	*-0x1c22 <.L17>:m
    300e:	2f 9f a4 04 	loadw	0x4a4:m(sp),r2
    3012:	f0 55       	movd	(sp),(r1,r0)
    3014:	7f 9f 8a 04 	loadw	0x48a:m(sp),r7
    3018:	bf 9f 88 04 	loadw	0x488:m(sp),r11
    301c:	e0 18 29 fc 	br	*-0x2c44 <.L198>:m

00003020 <.L439>:
    3020:	6a 5a       	movw	$0x6:s,r10
    3022:	e0 18 cb f9 	br	*-0x29ec <.L74>:m

00003026 <.L440>:
    3026:	9f 9f e0 04 	loadw	0x4e0:m(sp),r9
    302a:	9f df f4 04 	storw	r9,0x4f4:m(sp)
    302e:	cf 9f e2 04 	loadw	0x4e2:m(sp),r12
    3032:	cf df f6 04 	storw	r12,0x4f6:m(sp)
    3036:	0f 9f e4 04 	loadw	0x4e4:m(sp),r0
    303a:	0f df f8 04 	storw	r0,0x4f8:m(sp)
    303e:	1f 9f e6 04 	loadw	0x4e6:m(sp),r1
    3042:	b1 32 00 80 	addw	$0x8000:m,r1
    3046:	1f df fa 04 	storw	r1,0x4fa:m(sp)
    304a:	bc 58 2d 00 	movb	$0x2d:m,r12
    304e:	e0 18 cb f9 	br	*-0x2a18 <.L75>:m

00003052 <.L109>:
    3052:	11 5a       	movw	$0x1:s,r1
    3054:	00 52       	cmpw	$0x0:s,r0
    3056:	d0 18 96 01 	bge	*+0x31ec <.L448>:m

0000305a <.L113>:
    305a:	9f 9f d6 04 	loadw	0x4d6:m(sp),r9
    305e:	19 33       	addw	r1,r9
    3060:	9f df c4 04 	storw	r9,0x4c4:m(sp)
    3064:	91 5b       	movw	r9,r1
    3066:	91 2a       	xorw	$-1:s,r1
    3068:	11 43       	ashuw	$-15:s,r1
    306a:	19 23       	andw	r1,r9
    306c:	9f df bc 04 	storw	r9,0x4bc:m(sp)
    3070:	b7 5a 67 00 	movw	$0x67:m,r7
    3074:	7f df d8 04 	storw	r7,0x4d8:m(sp)
    3078:	0f df da 04 	storw	r0,0x4da:m(sp)
    307c:	e0 18 87 fa 	br	*-0x2b02 <.L99>:m

00003080 <.L272>:
    3080:	24 5a       	movw	$0x2:s,r4
    3082:	e0 18 df fe 	br	*-0x2f60 <.L76>:m

00003086 <.L101>:
    3086:	00 52       	cmpw	$0x0:s,r0
    3088:	dc 16       	bge	*+0x3160 <.L102>:s
    308a:	0a 52       	cmpw	$0x0:s,r10
    308c:	14 14       	bne	*+0x3114 <.L103>:s
    308e:	1f 9f b0 04 	loadw	0x4b0:m(sp),r1
    3092:	11 22       	andw	$0x1:s,r1
    3094:	01 52       	cmpw	$0x0:s,r1
    3096:	1f 13       	bne	*+0x3114 <.L103>:s
    3098:	0f df bc 04 	storw	r0,0x4bc:m(sp)
    309c:	0f df c4 04 	storw	r0,0x4c4:m(sp)
    30a0:	0f df da 04 	storw	r0,0x4da:m(sp)
    30a4:	e0 18 5f fa 	br	*-0x2b02 <.L99>:m

000030a8 <.L445>:
    30a8:	f2 55       	movd	(sp),(r3,r2)
    30aa:	b2 60 92 04 	addd	$0x492:m,(r3,r2)
    30ae:	ba 58 30 00 	movb	$0x30:m,r10

000030b2 <.L93>:
    30b2:	28 55       	movd	(r3,r2),(r9,r8)
    30b4:	a3 5a       	movw	$0xa:s,r3
    30b6:	72 5b       	movw	r7,r2
    30b8:	00 c0 24 67 	bal	(ra),*+0x97dc <___modhi3>:m
    30bc:	a0 31       	addb	r10,r0
    30be:	08 f0       	storb	r0,0x0:s(r9,r8)
    30c0:	a3 5a       	movw	$0xa:s,r3
    30c2:	72 5b       	movw	r7,r2
    30c4:	00 c0 e0 66 	bal	(ra),*+0x97a4 <___divhi3>:m
    30c8:	07 5b       	movw	r0,r7
    30ca:	82 55       	movd	(r9,r8),(r3,r2)
    30cc:	92 60       	addd	$-1:s,(r3,r2)
    30ce:	b0 52 09 00 	cmpw	$0x9:m,r0
    30d2:	c0 1f       	blt	*-0x30b2 <.L93>:s
    30d4:	b0 58 30 00 	movb	$0x30:m,r0
    30d8:	07 31       	addb	r0,r7
    30da:	72 f0       	storb	r7,0x0:s(r3,r2)
    30dc:	f0 55       	movd	(sp),(r1,r0)
    30de:	b0 60 93 04 	addd	$0x493:m,(r1,r0)
    30e2:	20 57       	cmpd	(r3,r2),(r1,r0)
    30e4:	b0 18 16 01 	bhs	*+0x31fa <.L274>:m
    30e8:	82 55       	movd	(r9,r8),(r3,r2)
    30ea:	f4 55       	movd	(sp),(r5,r4)
    30ec:	b4 60 95 04 	addd	$0x495:m,(r5,r4)
    30f0:	e3 10       	br	*+0x30f6 <.L96>:s

000030f2 <.L95>:
    30f2:	72 b0       	loadb	0x0:s(r3,r2),r7
    30f4:	12 60       	addd	$0x1:s,(r3,r2)

000030f6 <.L96>:
    30f6:	74 f0       	storb	r7,0x0:s(r5,r4)
    30f8:	14 60       	addd	$0x1:s,(r5,r4)
    30fa:	20 57       	cmpd	(r3,r2),(r1,r0)
    30fc:	1b 1f       	bne	*-0x30f2 <.L95>:s
    30fe:	f2 55       	movd	(sp),(r3,r2)
    3100:	b2 60 94 04 	addd	$0x494:m,(r3,r2)
    3104:	14 00 82 c0 	subd	(r9,r8),(r3,r2)
    3108:	b4 54 95 04 	movd	$0x495:m,(r5,r4)
    310c:	f4 61       	addd	(sp),(r5,r4)
    310e:	42 61       	addd	(r5,r4),(r3,r2)
    3110:	e0 18 15 fe 	br	*-0x2f24 <.L94>:m

00003114 <.L103>:
    3114:	1a 32       	addw	$0x1:s,r10
    3116:	0a 33       	addw	r0,r10
    3118:	af df c4 04 	storw	r10,0x4c4:m(sp)
    311c:	a1 5b       	movw	r10,r1
    311e:	91 2a       	xorw	$-1:s,r1
    3120:	11 43       	ashuw	$-15:s,r1
    3122:	a9 5b       	movw	r10,r9
    3124:	19 23       	andw	r1,r9
    3126:	9f df bc 04 	storw	r9,0x4bc:m(sp)
    312a:	0f df da 04 	storw	r0,0x4da:m(sp)
    312e:	e0 18 d5 f9 	br	*-0x2b02 <.L99>:m

00003132 <.L110>:
    3132:	07 5b       	movw	r0,r7
    3134:	17 32       	addw	$0x1:s,r7
    3136:	7f df c4 04 	storw	r7,0x4c4:m(sp)
    313a:	71 5b       	movw	r7,r1
    313c:	91 2a       	xorw	$-1:s,r1
    313e:	11 43       	ashuw	$-15:s,r1
    3140:	17 23       	andw	r1,r7
    3142:	7f df bc 04 	storw	r7,0x4bc:m(sp)
    3146:	b8 5a 67 00 	movw	$0x67:m,r8
    314a:	8f df d8 04 	storw	r8,0x4d8:m(sp)
    314e:	0f df da 04 	storw	r0,0x4da:m(sp)
    3152:	e0 18 b1 f9 	br	*-0x2b02 <.L99>:m

00003156 <.L418>:
    3156:	97 5a       	movw	$-1:s,r7
    3158:	7f df be 04 	storw	r7,0x4be:m(sp)
    315c:	e0 18 8f ea 	br	*-0x1bea <.L9>:m

00003160 <.L102>:
    3160:	0a 52       	cmpw	$0x0:s,r10
    3162:	19 11       	bne	*+0x3194 <.L107>:s
    3164:	1f 9f b0 04 	loadw	0x4b0:m(sp),r1
    3168:	11 22       	andw	$0x1:s,r1
    316a:	01 52       	cmpw	$0x0:s,r1
    316c:	14 11       	bne	*+0x3194 <.L107>:s
    316e:	1f c3 bc 04 	storw	$0x1:s,0x4bc:m(sp)
    3172:	8f 9f bc 04 	loadw	0x4bc:m(sp),r8
    3176:	8f df c4 04 	storw	r8,0x4c4:m(sp)
    317a:	0f df da 04 	storw	r0,0x4da:m(sp)
    317e:	e0 18 85 f9 	br	*-0x2b02 <.L99>:m

00003182 <.L444>:
    3182:	00 5a       	movw	$0x0:s,r0
    3184:	70 3b       	subw	r7,r0
    3186:	07 5b       	movw	r0,r7
    3188:	b0 58 2d 00 	movb	$0x2d:m,r0
    318c:	0f ff 94 04 	storb	r0,0x494:m(sp)
    3190:	e0 18 73 fd 	br	*-0x2f02 <.L91>:m

00003194 <.L107>:
    3194:	2a 32       	addw	$0x2:s,r10
    3196:	af df c4 04 	storw	r10,0x4c4:m(sp)
    319a:	a1 5b       	movw	r10,r1
    319c:	91 2a       	xorw	$-1:s,r1
    319e:	11 43       	ashuw	$-15:s,r1
    31a0:	a7 5b       	movw	r10,r7
    31a2:	17 23       	andw	r1,r7
    31a4:	7f df bc 04 	storw	r7,0x4bc:m(sp)
    31a8:	0f df da 04 	storw	r0,0x4da:m(sp)
    31ac:	e0 18 57 f9 	br	*-0x2b02 <.L99>:m

000031b0 <.L446>:
    31b0:	0f 9f b0 04 	loadw	0x4b0:m(sp),r0
    31b4:	10 22       	andw	$0x1:s,r0
    31b6:	00 52       	cmpw	$0x0:s,r0
    31b8:	10 18 89 fd 	bne	*-0x2f40 <.L97>:m
    31bc:	81 5b       	movw	r8,r1
    31be:	91 2a       	xorw	$-1:s,r1
    31c0:	11 43       	ashuw	$-15:s,r1
    31c2:	18 23       	andw	r1,r8
    31c4:	8f df bc 04 	storw	r8,0x4bc:m(sp)
    31c8:	0f df da 04 	storw	r0,0x4da:m(sp)
    31cc:	e0 18 37 f9 	br	*-0x2b02 <.L99>:m

000031d0 <.L53>:
    31d0:	6f af c8 04 	loadd	0x4c8:m(sp),(r7,r6)
    31d4:	26 60       	addd	$0x2:s,(r7,r6)
    31d6:	cf af c8 04 	loadd	0x4c8:m(sp),(r12)
    31da:	ac 90       	loadw	0x0:s(r12),r10
    31dc:	6f ef c8 04 	stord	(r7,r6),0x4c8:m(sp)
    31e0:	0a 52       	cmpw	$0x0:s,r10
    31e2:	70 18 d1 e5 	ble	*-0x17b2 <.L371>:m
    31e6:	9a 5a       	movw	$-1:s,r10
    31e8:	e0 18 cb e5 	br	*-0x17b2 <.L371>:m

000031ec <.L448>:
    31ec:	21 5a       	movw	$0x2:s,r1
    31ee:	01 3b       	subw	r0,r1
    31f0:	e0 18 6b fe 	br	*-0x305a <.L113>:m

000031f4 <.L273>:
    31f4:	08 55       	movd	(r1,r0),(r9,r8)
    31f6:	e0 18 ab f8 	br	*-0x2aa0 <.L83>:m

000031fa <.L274>:
    31fa:	f2 55       	movd	(sp),(r3,r2)
    31fc:	b2 60 95 04 	addd	$0x495:m,(r3,r2)
    3200:	e0 18 25 fd 	br	*-0x2f24 <.L94>:m

00003204 <.L441>:
    3204:	7f 9f a4 04 	loadw	0x4a4:m(sp),r7
    3208:	e0 18 df fc 	br	*-0x2ee6 <.L88>:m

0000320c <.LFE2>:
	...

0000320e <_vfprintf>:
    320e:	1e 01       	push	RA
    3210:	1c 01       	push	$0x2,r12
    3212:	fc 55       	movd	(sp),(r12)
    3214:	0f a4       	loadd	0x8:s(sp),(r1,r0)
    3216:	8c 60       	addd	$0x8:s,(r12)
    3218:	10 01       	push	$0x2,r0
    321a:	14 01       	push	$0x2,r4
    321c:	24 55       	movd	(r3,r2),(r5,r4)
    321e:	12 00 20 b0 	loadd	0xa808 <__impure_ptr>:l,(r3,r2)
    3222:	08 a8 
    3224:	ff c0 11 e4 	bal	(ra),*-0x1634 <__vfprintf_r>:m

00003228 <.LVL604>:
    3228:	8f 60       	addd	$0x8:s,(sp)
    322a:	1c 02       	pop	$0x2,r12
    322c:	1e 03       	popret	RA
	...

00003230 <___swsetup_r>:
    3230:	1e 01       	push	RA
    3232:	38 01       	push	$0x4,r8
    3234:	2a 55       	movd	(r3,r2),(r11,r10)
    3236:	48 55       	movd	(r5,r4),(r9,r8)
    3238:	12 00 20 b0 	loadd	0xa808 <__impure_ptr>:l,(r3,r2)
    323c:	08 a8 
    323e:	02 56       	cmpd	$0x0:s,(r3,r2)
    3240:	05 10       	beq	*+0x324a <.L2>:s
    3242:	02 9f 34 00 	loadw	0x34:m(r3,r2),r0
    3246:	00 52       	cmpw	$0x0:s,r0
    3248:	07 14       	beq	*+0x32d6 <.L29>:s

0000324a <.L2>:
    324a:	68 94       	loadw	0x8:s(r9,r8),r6
    324c:	60 5b       	movw	r6,r0
    324e:	80 22       	andw	$0x8:s,r0
    3250:	00 52       	cmpw	$0x0:s,r0
    3252:	04 11       	beq	*+0x327a <.L3>:s
    3254:	28 a6       	loadd	0xc:s(r9,r8),(r3,r2)
    3256:	02 56       	cmpd	$0x0:s,(r3,r2)
    3258:	0f 11       	beq	*+0x3296 <.L30>:s

0000325a <.L11>:
    325a:	18 94       	loadw	0x8:s(r9,r8),r1
    325c:	10 5b       	movw	r1,r0
    325e:	10 22       	andw	$0x1:s,r0
    3260:	00 52       	cmpw	$0x0:s,r0
    3262:	06 12       	beq	*+0x32ae <.L12>:s
    3264:	08 c3 06 00 	storw	$0x0:s,0x6:m(r9,r8)
    3268:	08 98       	loadw	0x10:s(r9,r8),r0
    326a:	04 5a       	movw	$0x0:s,r4
    326c:	04 3b       	subw	r0,r4
    326e:	48 da       	storw	r4,0x14:s(r9,r8)

00003270 <.LFE1>:
    3270:	00 5a       	movw	$0x0:s,r0
    3272:	02 56       	cmpd	$0x0:s,(r3,r2)
    3274:	06 12       	beq	*+0x32c0 <.L31>:s

00003276 <.L6>:
    3276:	38 02       	pop	$0x4,r8
    3278:	1e 03       	popret	RA

0000327a <.L3>:
    327a:	60 5b       	movw	r6,r0
    327c:	b0 22 10 00 	andw	$0x10:m,r0
    3280:	00 52       	cmpw	$0x0:s,r0
    3282:	06 14       	beq	*+0x330e <.L32>:s
    3284:	60 5b       	movw	r6,r0
    3286:	40 22       	andw	$0x4:s,r0
    3288:	00 52       	cmpw	$0x0:s,r0
    328a:	19 12       	bne	*+0x32dc <.L7>:s
    328c:	28 a6       	loadd	0xc:s(r9,r8),(r3,r2)
    328e:	86 26       	orw	$0x8:s,r6
    3290:	68 d4       	storw	r6,0x8:s(r9,r8)

00003292 <.L33>:
    3292:	02 56       	cmpd	$0x0:s,(r3,r2)
    3294:	13 1e       	bne	*-0x325a <.L11>:s

00003296 <.L30>:
    3296:	08 94       	loadw	0x8:s(r9,r8),r0
    3298:	b0 22 80 02 	andw	$0x280:m,r0
    329c:	b0 52 00 02 	cmpw	$0x200:m,r0
    32a0:	0d 1d       	beq	*-0x325a <.L11>:s
    32a2:	84 55       	movd	(r9,r8),(r5,r4)
    32a4:	a2 55       	movd	(r11,r10),(r3,r2)
    32a6:	00 c0 76 1f 	bal	(ra),*+0x521c <___smakebuf_r>:m

000032aa <.LVL3>:
    32aa:	28 a6       	loadd	0xc:s(r9,r8),(r3,r2)
    32ac:	e7 1d       	br	*-0x325a <.L11>:s

000032ae <.L12>:
    32ae:	14 5b       	movw	r1,r4
    32b0:	24 22       	andw	$0x2:s,r4
    32b2:	04 52       	cmpw	$0x0:s,r4
    32b4:	12 10       	bne	*+0x32b8 <.L14>:s
    32b6:	08 98       	loadw	0x10:s(r9,r8),r0

000032b8 <.L14>:
    32b8:	08 d3       	storw	r0,0x6:s(r9,r8)
    32ba:	00 5a       	movw	$0x0:s,r0
    32bc:	02 56       	cmpd	$0x0:s,(r3,r2)
    32be:	1c 1d       	bne	*-0x3276 <.L6>:s

000032c0 <.L31>:
    32c0:	12 5b       	movw	r1,r2
    32c2:	b2 22 80 00 	andw	$0x80:m,r2
    32c6:	02 53       	cmpw	r0,r2
    32c8:	07 1d       	beq	*-0x3276 <.L6>:s
    32ca:	b1 26 40 00 	orw	$0x40:m,r1
    32ce:	18 d4       	storw	r1,0x8:s(r9,r8)
    32d0:	90 5a       	movw	$-1:s,r0
    32d2:	38 02       	pop	$0x4,r8
    32d4:	1e 03       	popret	RA

000032d6 <.L29>:
    32d6:	00 c0 ae 19 	bal	(ra),*+0x4c84 <___sinit>:m

000032da <.LVL5>:
    32da:	e8 1b       	br	*-0x324a <.L2>:s

000032dc <.L7>:
    32dc:	48 af 2c 00 	loadd	0x2c:m(r9,r8),(r5,r4)
    32e0:	04 56       	cmpd	$0x0:s,(r5,r4)
    32e2:	0d 10       	beq	*+0x32fc <.L9>:s
    32e4:	80 55       	movd	(r9,r8),(r1,r0)
    32e6:	b0 60 3a 00 	addd	$0x3a:m,(r1,r0)
    32ea:	04 57       	cmpd	(r1,r0),(r5,r4)
    32ec:	05 10       	beq	*+0x32f6 <.L10>:s
    32ee:	a2 55       	movd	(r11,r10),(r3,r2)
    32f0:	00 c0 90 1b 	bal	(ra),*+0x4e80 <__free_r>:m

000032f4 <.LVL6>:
    32f4:	68 94       	loadw	0x8:s(r9,r8),r6

000032f6 <.L10>:
    32f6:	00 54       	movd	$0x0:s,(r1,r0)
    32f8:	08 ef 2c 00 	stord	(r1,r0),0x2c:m(r9,r8)

000032fc <.L9>:
    32fc:	b6 22 db ff 	andw	$0xffdb:m,r6
    3300:	08 c3 04 00 	storw	$0x0:s,0x4:m(r9,r8)
    3304:	28 a6       	loadd	0xc:s(r9,r8),(r3,r2)
    3306:	28 e0       	stord	(r3,r2),0x0:s(r9,r8)
    3308:	86 26       	orw	$0x8:s,r6
    330a:	68 d4       	storw	r6,0x8:s(r9,r8)
    330c:	e3 1c       	br	*-0x3292 <.L33>:s

0000330e <.L32>:
    330e:	9a c2       	storw	$0x9:s,0x0:s(r11,r10)
    3310:	b6 26 40 00 	orw	$0x40:m,r6
    3314:	68 d4       	storw	r6,0x8:s(r9,r8)
    3316:	90 5a       	movw	$-1:s,r0
    3318:	38 02       	pop	$0x4,r8
    331a:	1e 03       	popret	RA

0000331c <___call_exitprocs>:
    331c:	9d 01       	push	$0x2,r13,RA
    331e:	67 01       	push	$0x7,r7
    3320:	bf 60 f4 ff 	addd	$0xfff4:m,(sp)

00003322 <.LFE0>:
    3322:	f4 ff 2f d2 	storb	r15,0xd22f:m(r5,r4)
    3326:	12 00 00 b0 	loadd	0x9eb8 <__global_impure_ptr>:l,(r1,r0)
    332a:	b8 9e 
    332c:	b0 60 08 01 	addd	$0x108:m,(r1,r0)
    3330:	0f e4       	stord	(r1,r0),0x8:s(sp)
    3332:	19 5a       	movw	$0x1:s,r9
    3334:	3c 55       	movd	(r4,r3),(r12)

00003336 <.L35>:
    3336:	12 00 10 b0 	loadd	0x9eb8 <__global_impure_ptr>:l,(r2,r1)
    333a:	b8 9e 
    333c:	a1 af 08 01 	loadd	0x108:m(r2,r1),(r11,r10)
    3340:	df a4       	loadd	0x8:s(sp),(r13)
    3342:	0a 56       	cmpd	$0x0:s,(r11,r10)
    3344:	08 14       	beq	*+0x33d4 <.L1>:s
    3346:	df e0       	stord	(r13),0x0:s(sp)

00003348 <.L27>:
    3348:	8a 92       	loadw	0x4:s(r11,r10),r8
    334a:	98 32       	addw	$-1:s,r8
    334c:	08 52       	cmpw	$0x0:s,r8
    334e:	7e 10       	ble	*+0x336a <.L28>:s
    3350:	ed 13       	br	*+0x33ca <.L3>:s

00003352 <.L36>:
    3352:	02 55       	movd	(r1,r0),(r3,r2)
    3354:	b2 60 20 00 	addd	$0x20:m,(r3,r2)
    3358:	22 4c       	ashud	$2:s,(r3,r2)
    335a:	a2 61       	addd	(r11,r10),(r3,r2)
    335c:	22 af 88 00 	loadd	0x88:m(r3,r2),(r3,r2)
    3360:	c2 57       	cmpd	(r12),(r3,r2)
    3362:	07 10       	beq	*+0x3370 <.L4>:s

00003364 <.L5>:
    3364:	98 32       	addw	$-1:s,r8
    3366:	98 52       	cmpw	$-1:s,r8
    3368:	01 13       	beq	*+0x33ca <.L3>:s

0000336a <.L28>:
    336a:	80 5e       	movxw	r8,(r1,r0)
    336c:	0c 56       	cmpd	$0x0:s,(r12)
    336e:	12 1f       	bne	*-0x3352 <.L36>:s

00003370 <.L4>:
    3370:	02 55       	movd	(r1,r0),(r3,r2)
    3372:	22 60       	addd	$0x2:s,(r3,r2)
    3374:	22 4c       	ashud	$2:s,(r3,r2)
    3376:	a2 61       	addd	(r11,r10),(r3,r2)
    3378:	d2 a0       	loadd	0x0:s(r3,r2),(r13)
    337a:	4a 92       	loadw	0x4:s(r11,r10),r4
    337c:	94 32       	addw	$-1:s,r4
    337e:	84 53       	cmpw	r8,r4
    3380:	0f 12       	beq	*+0x33de <.L40>:s
    3382:	04 54       	movd	$0x0:s,(r5,r4)
    3384:	42 e0       	stord	(r5,r4),0x0:s(r3,r2)

00003386 <.L7>:
    3386:	0d 56       	cmpd	$0x0:s,(r13)
    3388:	0e 1e       	beq	*-0x3364 <.L5>:s
    338a:	7a 92       	loadw	0x4:s(r11,r10),r7
    338c:	94 5b       	movw	r9,r4
    338e:	84 45       	ashuw	r8,r4
    3390:	44 5e       	movxw	r4,(r5,r4)
    3392:	2a af 88 01 	loadd	0x188:m(r11,r10),(r3,r2)
    3396:	14 00 42 b0 	andd	(r5,r4),(r3,r2)
    339a:	02 56       	cmpd	$0x0:s,(r3,r2)
    339c:	0f 11       	beq	*+0x33da <.L41>:s
    339e:	2a af 8c 01 	loadd	0x18c:m(r11,r10),(r3,r2)
    33a2:	14 00 42 b0 	andd	(r5,r4),(r3,r2)
    33a6:	20 4c       	ashud	$2:s,(r1,r0)
    33a8:	a0 61       	addd	(r11,r10),(r1,r0)
    33aa:	02 56       	cmpd	$0x0:s,(r3,r2)
    33ac:	1b 11       	bne	*+0x33e2 <.L10>:s
    33ae:	30 af 88 00 	loadd	0x88:m(r1,r0),(r4,r3)
    33b2:	2f 92       	loadw	0x4:s(sp),r2
    33b4:	dd 00       	jal	(r13)

000033b6 <.L9>:
    33b6:	0a 92       	loadw	0x4:s(r11,r10),r0
    33b8:	70 53       	cmpw	r7,r0
    33ba:	1e 1b       	bne	*-0x3336 <.L35>:s
    33bc:	2f a0       	loadd	0x0:s(sp),(r3,r2)
    33be:	02 a0       	loadd	0x0:s(r3,r2),(r1,r0)
    33c0:	a0 57       	cmpd	(r11,r10),(r1,r0)
    33c2:	1a 1b       	bne	*-0x3336 <.L35>:s
    33c4:	98 32       	addw	$-1:s,r8
    33c6:	98 52       	cmpw	$-1:s,r8
    33c8:	11 1d       	bne	*-0x336a <.L28>:s

000033ca <.L3>:
    33ca:	73 00 00 00 	movd	$0x0:l,(r4,r3)
    33ce:	00 00 
    33d0:	03 56       	cmpd	$0x0:s,(r4,r3)
    33d2:	1c 10       	bne	*+0x33ea <.L42>:s

000033d4 <.L1>:
    33d4:	cf 60       	addd	$0xc:s,(sp)
    33d6:	67 02       	pop	$0x7,r7
    33d8:	9d 03       	popret	$0x2,r13,RA

000033da <.L41>:
    33da:	dd 00       	jal	(r13)
    33dc:	ed 1e       	br	*-0x33b6 <.L9>:s

000033de <.L40>:
    33de:	8a d2       	storw	r8,0x4:s(r11,r10)
    33e0:	e3 1d       	br	*-0x3386 <.L7>:s

000033e2 <.L10>:
    33e2:	20 af 88 00 	loadd	0x88:m(r1,r0),(r3,r2)
    33e6:	dd 00       	jal	(r13)
    33e8:	e7 1e       	br	*-0x33b6 <.L9>:s

000033ea <.L42>:
    33ea:	0a 92       	loadw	0x4:s(r11,r10),r0
    33ec:	00 52       	cmpw	$0x0:s,r0
    33ee:	10 11       	bne	*+0x340e <.L13>:s
    33f0:	0a a0       	loadd	0x0:s(r11,r10),(r1,r0)
    33f2:	00 56       	cmpd	$0x0:s,(r1,r0)
    33f4:	03 11       	beq	*+0x341a <.L17>:s
    33f6:	4f a0       	loadd	0x0:s(sp),(r5,r4)
    33f8:	04 e0       	stord	(r1,r0),0x0:s(r5,r4)
    33fa:	a2 55       	movd	(r11,r10),(r3,r2)
    33fc:	ff c0 05 cc 	bal	(ra),*-0x0 <.Lframe0>:m

00003400 <.LVL22>:
    3400:	0f a0       	loadd	0x0:s(sp),(r1,r0)
    3402:	a0 a0       	loadd	0x0:s(r1,r0),(r11,r10)

00003404 <.L15>:
    3404:	0a 56       	cmpd	$0x0:s,(r11,r10)
    3406:	11 1a       	bne	*-0x3348 <.L27>:s
    3408:	cf 60       	addd	$0xc:s,(sp)
    340a:	67 02       	pop	$0x7,r7
    340c:	9d 03       	popret	$0x2,r13,RA

0000340e <.L13>:
    340e:	2a 90       	loadw	0x0:s(r11,r10),r2
    3410:	0a 91       	loadw	0x2:s(r11,r10),r0

00003412 <.L14>:
    3412:	af e0       	stord	(r11,r10),0x0:s(sp)
    3414:	2a 5b       	movw	r2,r10
    3416:	0b 5b       	movw	r0,r11
    3418:	e6 1f       	br	*-0x3404 <.L15>:s

0000341a <.L17>:
    341a:	02 5b       	movw	r0,r2
    341c:	10 5b       	movw	r1,r0
    341e:	ea 1f       	br	*-0x3412 <.L14>:s

00003420 <_quorem>:
    3420:	9d 01       	push	$0x2,r13,RA
    3422:	67 01       	push	$0x7,r7
    3424:	bf 60 dc ff 	addd	$0xffdc:m,(sp)

00003428 <.LFE0>:
    3428:	2f e4       	stord	(r3,r2),0x8:s(sp)
    342a:	4f ea       	stord	(r5,r4),0x14:s(sp)
    342c:	74 95       	loadw	0xa:s(r5,r4),r7
    342e:	12 95       	loadw	0xa:s(r3,r2),r1
    3430:	00 5a       	movw	$0x0:s,r0
    3432:	17 53       	cmpw	r1,r7
    3434:	c0 18 96 01 	blt	*+0x35ca <.L2>:m
    3438:	4c 55       	movd	(r5,r4),(r12)
    343a:	cc 60       	addd	$0xc:s,(r12)
    343c:	97 32       	addw	$-1:s,r7
    343e:	70 5e       	movxw	r7,(r1,r0)
    3440:	30 60       	addd	$0x3:s,(r1,r0)
    3442:	0f ec       	stord	(r1,r0),0x18:s(sp)
    3444:	20 4c       	ashud	$2:s,(r1,r0)
    3446:	42 55       	movd	(r5,r4),(r3,r2)
    3448:	02 61       	addd	(r1,r0),(r3,r2)
    344a:	2f e8       	stord	(r3,r2),0x10:s(sp)
    344c:	ef a4       	loadd	0x8:s(sp),(ra)
    344e:	ce 60       	addd	$0xc:s,(ra)
    3450:	ef ef 1c 00 	stord	(ra),0x1c:m(sp)
    3454:	2f a4       	loadd	0x8:s(sp),(r3,r2)
    3456:	20 61       	addd	(r3,r2),(r1,r0)
    3458:	ef a8       	loadd	0x10:s(sp),(ra)
    345a:	4e a0       	loadd	0x0:s(ra),(r5,r4)
    345c:	14 60       	addd	$0x1:s,(r5,r4)
    345e:	20 a0       	loadd	0x0:s(r1,r0),(r3,r2)
    3460:	00 c0 c4 63 	bal	(ra),*+0x9824 <___udivsi3>:m
    3464:	0f d0       	storw	r0,0x0:s(sp)
    3466:	1f d1       	storw	r1,0x2:s(sp)
    3468:	0f a0       	loadd	0x0:s(sp),(r1,r0)
    346a:	00 56       	cmpd	$0x0:s,(r1,r0)
    346c:	00 16       	beq	*+0x352c <.L3>:s
    346e:	ca 55       	movd	(r12),(r11,r10)
    3470:	df af 1c 00 	loadd	0x1c:m(sp),(r13)
    3474:	08 54       	movd	$0x0:s,(r9,r8)
    3476:	8f e6       	stord	(r9,r8),0xc:s(sp)
    3478:	cf ef 20 00 	stord	(r12),0x20:m(sp)
    347c:	8c 55       	movd	(r9,r8),(r12)

0000347e <.L4>:
    347e:	1a a0       	loadd	0x0:s(r11,r10),(r2,r1)
    3480:	1f e2       	stord	(r2,r1),0x4:s(sp)
    3482:	4a 60       	addd	$0x4:s,(r11,r10)
    3484:	12 55       	movd	(r2,r1),(r3,r2)
    3486:	42 00 00 00 	andd	$0xffff:l,(r3,r2)
    348a:	ff ff 
    348c:	4f a0       	loadd	0x0:s(sp),(r5,r4)
    348e:	00 c0 26 54 	bal	(ra),*+0x88b4 <___mulsi3>:m
    3492:	08 55       	movd	(r1,r0),(r9,r8)
    3494:	c8 61       	addd	(r12),(r9,r8)
    3496:	8c 55       	movd	(r9,r8),(r12)
    3498:	0c 4b       	lshd	$-16:s,(r12)
    349a:	4f a0       	loadd	0x0:s(sp),(r5,r4)
    349c:	2f 93       	loadw	0x6:s(sp),r2
    349e:	03 5a       	movw	$0x0:s,r3
    34a0:	00 c0 14 54 	bal	(ra),*+0x88b4 <___mulsi3>:m
    34a4:	c0 61       	addd	(r12),(r1,r0)
    34a6:	0c 55       	movd	(r1,r0),(r12)
    34a8:	0c 4b       	lshd	$-16:s,(r12)
    34aa:	4d a0       	loadd	0x0:s(r13),(r5,r4)
    34ac:	42 55       	movd	(r5,r4),(r3,r2)
    34ae:	42 00 00 00 	andd	$0xffff:l,(r3,r2)
    34b2:	ff ff 
    34b4:	ef a6       	loadd	0xc:s(sp),(ra)
    34b6:	e2 61       	addd	(ra),(r3,r2)
    34b8:	48 00 00 00 	andd	$0xffff:l,(r9,r8)
    34bc:	ff ff 
    34be:	14 00 82 c0 	subd	(r9,r8),(r3,r2)
    34c2:	04 4b       	lshd	$-16:s,(r5,r4)
    34c4:	40 00 00 00 	andd	$0xffff:l,(r1,r0)
    34c8:	ff ff 
    34ca:	14 00 04 c0 	subd	(r1,r0),(r5,r4)
    34ce:	20 55       	movd	(r3,r2),(r1,r0)
    34d0:	00 4f       	ashud	$-16:s,(r1,r0)
    34d2:	04 61       	addd	(r1,r0),(r5,r4)
    34d4:	40 55       	movd	(r5,r4),(r1,r0)
    34d6:	00 4f       	ashud	$-16:s,(r1,r0)
    34d8:	0f e6       	stord	(r1,r0),0xc:s(sp)
    34da:	04 4d       	ashud	$16:s,(r5,r4)
    34dc:	42 00 00 00 	andd	$0xffff:l,(r3,r2)
    34e0:	ff ff 
    34e2:	14 00 24 90 	ord	(r3,r2),(r5,r4)
    34e6:	4d e0       	stord	(r5,r4),0x0:s(r13)
    34e8:	4d 60       	addd	$0x4:s,(r13)
    34ea:	1f a8       	loadd	0x10:s(sp),(r2,r1)
    34ec:	a1 57       	cmpd	(r11,r10),(r2,r1)
    34ee:	58 1c       	bls	*-0x347e <.L4>:s
    34f0:	cf af 20 00 	loadd	0x20:m(sp),(r12)
    34f4:	0f ac       	loadd	0x18:s(sp),(r1,r0)
    34f6:	20 4c       	ashud	$2:s,(r1,r0)
    34f8:	2f a4       	loadd	0x8:s(sp),(r3,r2)
    34fa:	20 61       	addd	(r3,r2),(r1,r0)
    34fc:	20 a0       	loadd	0x0:s(r1,r0),(r3,r2)
    34fe:	02 56       	cmpd	$0x0:s,(r3,r2)
    3500:	16 11       	bne	*+0x352c <.L3>:s
    3502:	b0 60 fc ff 	addd	$0xfffc:m,(r1,r0)
    3506:	ef af 1c 00 	loadd	0x1c:m(sp),(ra)
    350a:	0e 57       	cmpd	(r1,r0),(ra)
    350c:	5e 10       	bls	*+0x3528 <.L5>:s
    350e:	20 a0       	loadd	0x0:s(r1,r0),(r3,r2)
    3510:	02 56       	cmpd	$0x0:s,(r3,r2)
    3512:	1b 10       	bne	*+0x3528 <.L5>:s
    3514:	e4 55       	movd	(ra),(r5,r4)
    3516:	e4 10       	br	*+0x351e <.L19>:s

00003518 <.L30>:
    3518:	20 a0       	loadd	0x0:s(r1,r0),(r3,r2)
    351a:	02 56       	cmpd	$0x0:s,(r3,r2)
    351c:	16 10       	bne	*+0x3528 <.L5>:s

0000351e <.L19>:
    351e:	97 32       	addw	$-1:s,r7
    3520:	b0 60 fc ff 	addd	$0xfffc:m,(r1,r0)
    3524:	04 57       	cmpd	(r1,r0),(r5,r4)
    3526:	49 1f       	bhi	*-0x3518 <.L30>:s

00003528 <.L5>:
    3528:	0f a4       	loadd	0x8:s(sp),(r1,r0)
    352a:	70 d5       	storw	r7,0xa:s(r1,r0)

0000352c <.L3>:
    352c:	4f aa       	loadd	0x14:s(sp),(r5,r4)
    352e:	2f a4       	loadd	0x8:s(sp),(r3,r2)
    3530:	00 c0 80 2d 	bal	(ra),*+0x62b0 <___mcmp>:m

00003534 <.LVL39>:
    3534:	00 52       	cmpw	$0x0:s,r0
    3536:	69 14       	bgt	*+0x35c8 <.L7>:s
    3538:	1f a0       	loadd	0x0:s(sp),(r2,r1)
    353a:	11 60       	addd	$0x1:s,(r2,r1)
    353c:	1f e0       	stord	(r2,r1),0x0:s(sp)
    353e:	4f af 1c 00 	loadd	0x1c:m(sp),(r5,r4)
    3542:	0e 54       	movd	$0x0:s,(ra)
    3544:	df a8       	loadd	0x10:s(sp),(r13)
    3546:	7a 5b       	movw	r7,r10

00003548 <.L8>:
    3548:	6c a0       	loadd	0x0:s(r12),(r7,r6)
    354a:	4c 60       	addd	$0x4:s,(r12)
    354c:	84 a0       	loadd	0x0:s(r5,r4),(r9,r8)
    354e:	80 55       	movd	(r9,r8),(r1,r0)
    3550:	40 00 00 00 	andd	$0xffff:l,(r1,r0)
    3554:	ff ff 
    3556:	e0 61       	addd	(ra),(r1,r0)
    3558:	62 55       	movd	(r7,r6),(r3,r2)
    355a:	42 00 00 00 	andd	$0xffff:l,(r3,r2)
    355e:	ff ff 
    3560:	14 00 20 c0 	subd	(r3,r2),(r1,r0)
    3564:	82 55       	movd	(r9,r8),(r3,r2)
    3566:	02 4b       	lshd	$-16:s,(r3,r2)
    3568:	06 4b       	lshd	$-16:s,(r7,r6)
    356a:	14 00 62 c0 	subd	(r7,r6),(r3,r2)
    356e:	06 55       	movd	(r1,r0),(r7,r6)
    3570:	06 4f       	ashud	$-16:s,(r7,r6)
    3572:	62 61       	addd	(r7,r6),(r3,r2)
    3574:	2e 55       	movd	(r3,r2),(ra)
    3576:	0e 4f       	ashud	$-16:s,(ra)
    3578:	02 4d       	ashud	$16:s,(r3,r2)
    357a:	40 00 00 00 	andd	$0xffff:l,(r1,r0)
    357e:	ff ff 
    3580:	14 00 02 90 	ord	(r1,r0),(r3,r2)
    3584:	24 e0       	stord	(r3,r2),0x0:s(r5,r4)
    3586:	44 60       	addd	$0x4:s,(r5,r4)
    3588:	cd 57       	cmpd	(r12),(r13)
    358a:	5f 1d       	bls	*-0x3548 <.L8>:s
    358c:	a7 5b       	movw	r10,r7
    358e:	a0 5e       	movxw	r10,(r1,r0)
    3590:	30 60       	addd	$0x3:s,(r1,r0)
    3592:	20 4c       	ashud	$2:s,(r1,r0)
    3594:	2f a4       	loadd	0x8:s(sp),(r3,r2)
    3596:	20 61       	addd	(r3,r2),(r1,r0)
    3598:	20 a0       	loadd	0x0:s(r1,r0),(r3,r2)
    359a:	02 56       	cmpd	$0x0:s,(r3,r2)
    359c:	16 11       	bne	*+0x35c8 <.L7>:s
    359e:	b0 60 fc ff 	addd	$0xfffc:m,(r1,r0)
    35a2:	ef af 1c 00 	loadd	0x1c:m(sp),(ra)
    35a6:	0e 57       	cmpd	(r1,r0),(ra)
    35a8:	5e 10       	bls	*+0x35c4 <.L9>:s
    35aa:	20 a0       	loadd	0x0:s(r1,r0),(r3,r2)
    35ac:	02 56       	cmpd	$0x0:s,(r3,r2)
    35ae:	1b 10       	bne	*+0x35c4 <.L9>:s
    35b0:	e4 55       	movd	(ra),(r5,r4)
    35b2:	e4 10       	br	*+0x35ba <.L18>:s

000035b4 <.L31>:
    35b4:	20 a0       	loadd	0x0:s(r1,r0),(r3,r2)
    35b6:	02 56       	cmpd	$0x0:s,(r3,r2)
    35b8:	16 10       	bne	*+0x35c4 <.L9>:s

000035ba <.L18>:
    35ba:	97 32       	addw	$-1:s,r7
    35bc:	b0 60 fc ff 	addd	$0xfffc:m,(r1,r0)
    35c0:	04 57       	cmpd	(r1,r0),(r5,r4)
    35c2:	49 1f       	bhi	*-0x35b4 <.L31>:s

000035c4 <.L9>:
    35c4:	0f a4       	loadd	0x8:s(sp),(r1,r0)
    35c6:	70 d5       	storw	r7,0xa:s(r1,r0)

000035c8 <.L7>:
    35c8:	0f 90       	loadw	0x0:s(sp),r0

000035ca <.L2>:
    35ca:	bf 60 24 00 	addd	$0x24:m,(sp)
    35ce:	67 02       	pop	$0x7,r7
    35d0:	9d 03       	popret	$0x2,r13,RA

000035d2 <.LFE0>:
	...

000035d4 <__dtoa_r>:
    35d4:	9d 01       	push	$0x2,r13,RA
    35d6:	67 01       	push	$0x7,r7
    35d8:	bf 60 98 ff 	addd	$0xff98:m,(sp)
    35dc:	fc 55       	movd	(sp),(r12)
    35de:	2d 55       	movd	(r3,r2),(r13)
    35e0:	4f df 1c 00 	storw	r4,0x1c:m(sp)
    35e4:	5f df 2e 00 	storw	r5,0x2e:m(sp)
    35e8:	7f af 86 00 	loadd	0x86:m(sp),(r8,r7)
    35ec:	7f ef 34 00 	stord	(r8,r7),0x34:m(sp)
    35f0:	af af 8a 00 	loadd	0x8a:m(sp),(r11,r10)
    35f4:	8f af 8e 00 	loadd	0x8e:m(sp),(r9,r8)
    35f8:	8f ef 24 00 	stord	(r9,r8),0x24:m(sp)
    35fc:	0f af 7e 00 	loadd	0x7e:m(sp),(r1,r0)
    3600:	2f af 82 00 	loadd	0x82:m(sp),(r3,r2)
    3604:	bc 60 7e 00 	addd	$0x7e:m,(r12)
    3608:	0f ea       	stord	(r1,r0),0x14:s(sp)
    360a:	2f ec       	stord	(r3,r2),0x18:s(sp)
    360c:	4d af 3c 00 	loadd	0x3c:m(r13),(r5,r4)
    3610:	04 56       	cmpd	$0x0:s,(r5,r4)
    3612:	0d 10       	beq	*+0x362c <.L33>:s
    3614:	0d 9f 40 00 	loadw	0x40:m(r13),r0
    3618:	04 d2       	storw	r0,0x4:s(r5,r4)
    361a:	11 5a       	movw	$0x1:s,r1
    361c:	01 45       	ashuw	r0,r1
    361e:	14 d3       	storw	r1,0x6:s(r5,r4)
    3620:	d2 55       	movd	(r13),(r3,r2)
    3622:	00 c0 52 26 	bal	(ra),*+0x5c74 <__Bfree>:m

00003626 <.LVL73>:
    3626:	00 54       	movd	$0x0:s,(r1,r0)
    3628:	0d ef 3c 00 	stord	(r1,r0),0x3c:m(r13)

0000362c <.L33>:
    362c:	8f ac       	loadd	0x18:s(sp),(r9,r8)
    362e:	08 56       	cmpd	$0x0:s,(r9,r8)
    3630:	68 15       	bgt	*+0x36e0 <.L331>:s
    3632:	0a c2       	storw	$0x0:s,0x0:s(r11,r10)

00003634 <.L35>:
    3634:	80 55       	movd	(r9,r8),(r1,r0)
    3636:	40 00 f0 7f 	andd	$0x7ff00000:l,(r1,r0)
    363a:	00 00 
    363c:	90 00 f0 7f 	cmpd	$0x7ff00000:l,(r1,r0)
    3640:	00 00 
    3642:	05 12       	beq	*+0x368c <.L332>:s
    3644:	0f aa       	loadd	0x14:s(sp),(r1,r0)
    3646:	2f ac       	loadd	0x18:s(sp),(r3,r2)
    3648:	0f e2       	stord	(r1,r0),0x4:s(sp)
    364a:	2f e4       	stord	(r3,r2),0x8:s(sp)
    364c:	00 54       	movd	$0x0:s,(r1,r0)
    364e:	02 54       	movd	$0x0:s,(r3,r2)
    3650:	30 01       	push	$0x4,r0
    3652:	2f a6       	loadd	0xc:s(sp),(r3,r2)
    3654:	4f a8       	loadd	0x10:s(sp),(r5,r4)
    3656:	32 01       	push	$0x4,r2
    3658:	00 c0 9c 5c 	bal	(ra),*+0x92f4 <___eqdf2>:m
    365c:	bf 60 10 00 	addd	$0x10:m,(sp)
    3660:	00 52       	cmpw	$0x0:s,r0
    3662:	15 14       	bne	*+0x36ec <.L314>:s
    3664:	7f af 34 00 	loadd	0x34:m(sp),(r8,r7)
    3668:	17 c2       	storw	$0x1:s,0x0:s(r8,r7)
    366a:	8f af 24 00 	loadd	0x24:m(sp),(r9,r8)
    366e:	08 56       	cmpd	$0x0:s,(r9,r8)
    3670:	00 18 8a 02 	beq	*+0x38fa <.L166>:m
    3674:	00 05 fb 9e 	movd	$0x9efb:m,(r1,r0)
    3678:	08 e0       	stord	(r1,r0),0x0:s(r9,r8)
    367a:	90 05 fa 9e 	movd	$0x9efa:m,(r10,r9)
    367e:	9f e2       	stord	(r10,r9),0x4:s(sp)

00003680 <.L243>:
    3680:	0f 92       	loadw	0x4:s(sp),r0
    3682:	1f 93       	loadw	0x6:s(sp),r1
    3684:	bf 60 68 00 	addd	$0x68:m,(sp)
    3688:	67 02       	pop	$0x7,r7
    368a:	9d 03       	popret	$0x2,r13,RA

0000368c <.L332>:
    368c:	b0 5a 0f 27 	movw	$0x270f:m,r0
    3690:	af af 34 00 	loadd	0x34:m(sp),(r11,r10)
    3694:	0a d0       	storw	r0,0x0:s(r11,r10)
    3696:	a0 05 8a a0 	movd	$0xa08a:m,(r11,r10)
    369a:	af e2       	stord	(r11,r10),0x4:s(sp)
    369c:	0f aa       	loadd	0x14:s(sp),(r1,r0)
    369e:	00 56       	cmpd	$0x0:s,(r1,r0)
    36a0:	1c 10       	bne	*+0x36b8 <.L37>:s
    36a2:	48 00 0f 00 	andd	$0xfffff:l,(r9,r8)
    36a6:	ff ff 
    36a8:	a0 05 80 a0 	movd	$0xa080:m,(r11,r10)
    36ac:	af e2       	stord	(r11,r10),0x4:s(sp)
    36ae:	08 56       	cmpd	$0x0:s,(r9,r8)
    36b0:	04 10       	beq	*+0x36b8 <.L37>:s
    36b2:	70 05 8a a0 	movd	$0xa08a:m,(r8,r7)
    36b6:	7f e2       	stord	(r8,r7),0x4:s(sp)

000036b8 <.L37>:
    36b8:	8f af 24 00 	loadd	0x24:m(sp),(r9,r8)
    36bc:	08 56       	cmpd	$0x0:s,(r9,r8)
    36be:	01 1e       	beq	*-0x3680 <.L243>:s
    36c0:	9f a2       	loadd	0x4:s(sp),(r10,r9)
    36c2:	09 b3       	loadb	0x3:s(r10,r9),r0
    36c4:	00 50       	cmpb	$0x0:s,r0
    36c6:	10 18 06 02 	bne	*+0x38cc <.L333>:m
    36ca:	0f a2       	loadd	0x4:s(sp),(r1,r0)
    36cc:	30 60       	addd	$0x3:s,(r1,r0)

000036ce <.L40>:
    36ce:	af af 24 00 	loadd	0x24:m(sp),(r11,r10)
    36d2:	0a e0       	stord	(r1,r0),0x0:s(r11,r10)
    36d4:	0f 92       	loadw	0x4:s(sp),r0
    36d6:	1f 93       	loadw	0x6:s(sp),r1
    36d8:	bf 60 68 00 	addd	$0x68:m,(sp)
    36dc:	67 02       	pop	$0x7,r7
    36de:	9d 03       	popret	$0x2,r13,RA

000036e0 <.L331>:
    36e0:	1a c2       	storw	$0x1:s,0x0:s(r11,r10)
    36e2:	48 00 ff 7f 	andd	$0x7fffffff:l,(r9,r8)
    36e6:	ff ff 
    36e8:	8f ec       	stord	(r9,r8),0x18:s(sp)
    36ea:	e5 1a       	br	*-0x3634 <.L35>:s

000036ec <.L314>:
    36ec:	f0 55       	movd	(sp),(r1,r0)
    36ee:	20 60       	addd	$0x2:s,(r1,r0)
    36f0:	10 01       	push	$0x2,r0
    36f2:	0f a4       	loadd	0x8:s(sp),(r1,r0)
    36f4:	2f a6       	loadd	0xc:s(sp),(r3,r2)
    36f6:	30 01       	push	$0x4,r0
    36f8:	f4 55       	movd	(sp),(r5,r4)
    36fa:	c4 60       	addd	$0xc:s,(r5,r4)
    36fc:	d2 55       	movd	(r13),(r3,r2)
    36fe:	00 c0 8e 2e 	bal	(ra),*+0x658c <___d2b>:m

00003702 <.LVL86>:
    3702:	0f ef 3c 00 	stord	(r1,r0),0x3c:m(sp)
    3706:	97 5b       	movw	r9,r7
    3708:	c7 49       	lshw	$-4:s,r7
    370a:	b7 22 ff 07 	andw	$0x7ff:m,r7
    370e:	cf 60       	addd	$0xc:s,(sp)
    3710:	07 52       	cmpw	$0x0:s,r7
    3712:	10 18 c2 01 	bne	*+0x38d4 <.L334>:m
    3716:	af 91       	loadw	0x2:s(sp),r10
    3718:	af d6       	storw	r10,0xc:s(sp)
    371a:	af 90       	loadw	0x0:s(sp),r10
    371c:	bf 96       	loadw	0xc:s(sp),r11
    371e:	ab 33       	addw	r10,r11
    3720:	bf d2       	storw	r11,0x4:s(sp)
    3722:	bb 52 ef fb 	cmpw	$0xfbef:m,r11
    3726:	60 18 50 09 	bgt	*+0x4076 <.L45>:m
    372a:	b0 5a 0e fc 	movw	$0xfc0e:m,r0
    372e:	b0 3b       	subw	r11,r0
    3730:	82 55       	movd	(r9,r8),(r3,r2)
    3732:	02 48       	ashud	r0,(r3,r2)
    3734:	b0 5b       	movw	r11,r0
    3736:	b0 32 12 04 	addw	$0x412:m,r0
    373a:	07 39       	subb	r0,r7
    373c:	0f aa       	loadd	0x14:s(sp),(r1,r0)
    373e:	70 47       	lshd	r7,(r1,r0)
    3740:	14 00 02 90 	ord	(r1,r0),(r3,r2)

00003744 <.L46>:
    3744:	00 c0 3c 5f 	bal	(ra),*+0x9680 <___floatunsidf>:m
    3748:	08 55       	movd	(r1,r0),(r9,r8)
    374a:	2a 55       	movd	(r3,r2),(r11,r10)
    374c:	2a 00 10 fe 	addd	$0xfe100000:l,(r11,r10)
    3750:	00 00 
    3752:	7f 92       	loadw	0x4:s(sp),r7
    3754:	97 32       	addw	$-1:s,r7
    3756:	7f d2       	storw	r7,0x4:s(sp)
    3758:	1f c3 54 00 	storw	$0x1:s,0x54:m(sp)

0000375c <.L44>:
    375c:	00 54       	movd	$0x0:s,(r1,r0)
    375e:	72 00 f8 3f 	movd	$0x3ff80000:l,(r3,r2)
    3762:	00 00 
    3764:	30 01       	push	$0x4,r0
    3766:	38 01       	push	$0x4,r8
    3768:	00 c0 b4 54 	bal	(ra),*+0x8c1c <___subdf3>:m
    376c:	bf 60 10 00 	addd	$0x10:m,(sp)
    3770:	78 00 6f 63 	movd	$0x636f4361:l,(r9,r8)
    3774:	61 43 
    3776:	7a 00 d2 3f 	movd	$0x3fd287a7:l,(r11,r10)
    377a:	a7 87 
    377c:	38 01       	push	$0x4,r8
    377e:	30 01       	push	$0x4,r0
    3780:	00 c0 10 55 	bal	(ra),*+0x8c90 <___muldf3>:m
    3784:	bf 60 10 00 	addd	$0x10:m,(sp)
    3788:	78 00 60 8b 	movd	$0x8b60c8b3:l,(r9,r8)
    378c:	b3 c8 
    378e:	7a 00 c6 3f 	movd	$0x3fc68a28:l,(r11,r10)
    3792:	28 8a 
    3794:	38 01       	push	$0x4,r8
    3796:	30 01       	push	$0x4,r0
    3798:	00 c0 14 54 	bal	(ra),*+0x8bac <___adddf3>:m
    379c:	bf 60 10 00 	addd	$0x10:m,(sp)
    37a0:	08 55       	movd	(r1,r0),(r9,r8)
    37a2:	2a 55       	movd	(r3,r2),(r11,r10)
    37a4:	7f 92       	loadw	0x4:s(sp),r7
    37a6:	72 5e       	movxw	r7,(r3,r2)
    37a8:	00 c0 90 5d 	bal	(ra),*+0x9538 <___floatsidf>:m
    37ac:	74 00 9f 50 	movd	$0x509f79fb:l,(r5,r4)
    37b0:	fb 79 
    37b2:	76 00 d3 3f 	movd	$0x3fd34413:l,(r7,r6)
    37b6:	13 44 
    37b8:	34 01       	push	$0x4,r4
    37ba:	30 01       	push	$0x4,r0
    37bc:	00 c0 d4 54 	bal	(ra),*+0x8c90 <___muldf3>:m
    37c0:	bf 60 10 00 	addd	$0x10:m,(sp)
    37c4:	30 01       	push	$0x4,r0
    37c6:	38 01       	push	$0x4,r8
    37c8:	00 c0 e4 53 	bal	(ra),*+0x8bac <___adddf3>:m
    37cc:	bf 60 10 00 	addd	$0x10:m,(sp)
    37d0:	08 55       	movd	(r1,r0),(r9,r8)
    37d2:	2a 55       	movd	(r3,r2),(r11,r10)
    37d4:	30 01       	push	$0x4,r0
    37d6:	00 c0 f6 5d 	bal	(ra),*+0x95cc <___fixdfsi>:m
    37da:	0f df 34 00 	storw	r0,0x34:m(sp)
    37de:	00 54       	movd	$0x0:s,(r1,r0)
    37e0:	02 54       	movd	$0x0:s,(r3,r2)
    37e2:	0f e0       	stord	(r1,r0),0x0:s(sp)
    37e4:	2f e2       	stord	(r3,r2),0x4:s(sp)
    37e6:	38 01       	push	$0x4,r8
    37e8:	00 c0 dc 5c 	bal	(ra),*+0x94c4 <___ltdf2>:m
    37ec:	bf 60 10 00 	addd	$0x10:m,(sp)
    37f0:	00 52       	cmpw	$0x0:s,r0
    37f2:	60 18 60 08 	bgt	*+0x4052 <.L335>:m

000037f6 <.L47>:
    37f6:	1f c3 3e 00 	storw	$0x1:s,0x3e:m(sp)
    37fa:	8f 9f 2c 00 	loadw	0x2c:m(sp),r8
    37fe:	b8 52 16 00 	cmpw	$0x16:m,r8
    3802:	aa 11       	blo	*+0x3836 <.L50>:s
    3804:	82 5e       	movxw	r8,(r3,r2)
    3806:	00 05 e8 a0 	movd	$0xa0e8:m,(r1,r0)
    380a:	32 4c       	ashud	$3:s,(r3,r2)
    380c:	20 61       	addd	(r3,r2),(r1,r0)
    380e:	20 a2       	loadd	0x4:s(r1,r0),(r3,r2)
    3810:	00 a0       	loadd	0x0:s(r1,r0),(r1,r0)
    3812:	4f aa       	loadd	0x14:s(sp),(r5,r4)
    3814:	6f ac       	loadd	0x18:s(sp),(r7,r6)
    3816:	34 01       	push	$0x4,r4
    3818:	30 01       	push	$0x4,r0
    381a:	00 c0 c2 5b 	bal	(ra),*+0x93dc <___gtdf2>:m
    381e:	bf 60 10 00 	addd	$0x10:m,(sp)
    3822:	00 52       	cmpw	$0x0:s,r0
    3824:	d0 18 62 08 	bge	*+0x4086 <.L315>:m
    3828:	7f 9f 2c 00 	loadw	0x2c:m(sp),r7
    382c:	97 32       	addw	$-1:s,r7
    382e:	7f df 2c 00 	storw	r7,0x2c:m(sp)
    3832:	0f c3 3e 00 	storw	$0x0:s,0x3e:m(sp)

00003836 <.L50>:
    3836:	0f 96       	loadw	0xc:s(sp),r0
    3838:	8f 92       	loadw	0x4:s(sp),r8
    383a:	80 3b       	subw	r8,r0
    383c:	90 32       	addw	$-1:s,r0
    383e:	00 52       	cmpw	$0x0:s,r0
    3840:	60 18 00 08 	bgt	*+0x4040 <.L336>:m
    3844:	0f df 38 00 	storw	r0,0x38:m(sp)
    3848:	0f c3 3c 00 	storw	$0x0:s,0x3c:m(sp)

0000384c <.L52>:
    384c:	af 9f 2c 00 	loadw	0x2c:m(sp),r10
    3850:	0a 52       	cmpw	$0x0:s,r10
    3852:	60 18 ce 07 	bgt	*+0x4020 <.L53>:m
    3856:	bf 9f 38 00 	loadw	0x38:m(sp),r11
    385a:	ab 33       	addw	r10,r11
    385c:	bf df 38 00 	storw	r11,0x38:m(sp)
    3860:	af df 48 00 	storw	r10,0x48:m(sp)
    3864:	0f c3 46 00 	storw	$0x0:s,0x46:m(sp)

00003868 <.L54>:
    3868:	af 9f 1c 00 	loadw	0x1c:m(sp),r10
    386c:	ba 52 09 00 	cmpw	$0x9:m,r10
    3870:	aa 14       	blo	*+0x3904 <.L170>:s
    3872:	10 58       	movb	$0x1:s,r0
    3874:	5a 52       	cmpw	$0x5:s,r10
    3876:	d6 10       	bge	*+0x3882 <.L56>:s
    3878:	ba 32 fc ff 	addw	$0xfffc:m,r10
    387c:	af df 1c 00 	storw	r10,0x1c:m(sp)
    3880:	00 58       	movb	$0x0:s,r0

00003882 <.L56>:
    3882:	bf 9f 1c 00 	loadw	0x1c:m(sp),r11
    3886:	3b 52       	cmpw	$0x3:s,r11
    3888:	00 18 94 0e 	beq	*+0x471c <.L173>:m
    388c:	3b 52       	cmpw	$0x3:s,r11
    388e:	d0 18 66 08 	bge	*+0x40f4 <.L337>:m
    3892:	7f 9f 1c 00 	loadw	0x1c:m(sp),r7
    3896:	47 52       	cmpw	$0x4:s,r7
    3898:	00 18 7c 0e 	beq	*+0x4714 <.L59>:m
    389c:	57 52       	cmpw	$0x5:s,r7
    389e:	15 13       	bne	*+0x3908 <.L55>:s
    38a0:	1f c3 4a 00 	storw	$0x1:s,0x4a:m(sp)

000038a4 <.L58>:
    38a4:	9f 9f 2e 00 	loadw	0x2e:m(sp),r9
    38a8:	af 9f 2c 00 	loadw	0x2c:m(sp),r10
    38ac:	a9 33       	addw	r10,r9
    38ae:	9f df 44 00 	storw	r9,0x44:m(sp)
    38b2:	91 5b       	movw	r9,r1
    38b4:	11 32       	addw	$0x1:s,r1
    38b6:	01 52       	cmpw	$0x0:s,r1
    38b8:	d0 18 8a 0e 	bge	*+0x4742 <.L338>:m
    38bc:	12 5e       	movxw	r1,(r3,r2)
    38be:	e1 52       	cmpw	$0xe:s,r1
    38c0:	b7 08       	shs	r7
    38c2:	07 21       	andb	r0,r7
    38c4:	1f df 40 00 	storw	r1,0x40:m(sp)
    38c8:	e0 18 50 08 	br	*+0x4118 <.L63>:m

000038cc <.L333>:
    38cc:	90 55       	movd	(r10,r9),(r1,r0)
    38ce:	80 60       	addd	$0x8:s,(r1,r0)
    38d0:	e0 18 ff fd 	br	*-0x36ce <.L40>:m

000038d4 <.L334>:
    38d4:	8f a2       	loadd	0x4:s(sp),(r9,r8)
    38d6:	af a4       	loadd	0x8:s(sp),(r11,r10)
    38d8:	a2 55       	movd	(r11,r10),(r3,r2)
    38da:	42 00 0f 00 	andd	$0xfffff:l,(r3,r2)
    38de:	ff ff 
    38e0:	2a 55       	movd	(r3,r2),(r11,r10)
    38e2:	5a 00 f0 3f 	ord	$0x3ff00000:l,(r11,r10)
    38e6:	00 00 
    38e8:	b7 32 01 fc 	addw	$0xfc01:m,r7
    38ec:	7f d2       	storw	r7,0x4:s(sp)
    38ee:	7f 91       	loadw	0x2:s(sp),r7
    38f0:	7f d6       	storw	r7,0xc:s(sp)
    38f2:	0f c3 54 00 	storw	$0x0:s,0x54:m(sp)
    38f6:	e0 18 67 fe 	br	*-0x375c <.L44>:m

000038fa <.L166>:
    38fa:	a0 05 fa 9e 	movd	$0x9efa:m,(r11,r10)
    38fe:	af e2       	stord	(r11,r10),0x4:s(sp)
    3900:	e0 18 81 fd 	br	*-0x3680 <.L243>:m

00003904 <.L170>:
    3904:	0f c3 1c 00 	storw	$0x0:s,0x1c:m(sp)

00003908 <.L55>:
    3908:	07 58       	movb	$0x0:s,r7
    390a:	b2 54 12 00 	movd	$0x12:m,(r3,r2)
    390e:	1f c3 4a 00 	storw	$0x1:s,0x4a:m(sp)
    3912:	99 5a       	movw	$-1:s,r9
    3914:	9f df 44 00 	storw	r9,0x44:m(sp)
    3918:	9f df 40 00 	storw	r9,0x40:m(sp)
    391c:	0f c3 2e 00 	storw	$0x0:s,0x2e:m(sp)

00003920 <.L163>:
    3920:	16 5a       	movw	$0x1:s,r6
    3922:	45 5a       	movw	$0x4:s,r5

00003924 <.L66>:
    3924:	64 5b       	movw	r6,r4
    3926:	55 33       	addw	r5,r5
    3928:	16 32       	addw	$0x1:s,r6
    392a:	50 5e       	movxw	r5,(r1,r0)
    392c:	c0 60       	addd	$0xc:s,(r1,r0)
    392e:	20 57       	cmpd	(r3,r2),(r1,r0)
    3930:	ba 1f       	bhs	*-0x3924 <.L66>:s
    3932:	4d df 40 00 	storw	r4,0x40:m(r13)

00003936 <.L65>:
    3936:	d2 55       	movd	(r13),(r3,r2)
    3938:	00 c0 cc 22 	bal	(ra),*+0x5c04 <__Balloc>:m

0000393c <.LVL156>:
    393c:	0f e2       	stord	(r1,r0),0x4:s(sp)
    393e:	0d ef 3c 00 	stord	(r1,r0),0x3c:m(r13)
    3942:	07 50       	cmpb	$0x0:s,r7
    3944:	00 18 c4 02 	beq	*+0x3c08 <.L67>:m
    3948:	7f 9f 2c 00 	loadw	0x2c:m(sp),r7
    394c:	07 52       	cmpw	$0x0:s,r7
    394e:	d0 18 50 09 	bge	*+0x429e <.L68>:m
    3952:	72 5b       	movw	r7,r2
    3954:	f2 22       	andw	$0xf:s,r2
    3956:	22 5e       	movxw	r2,(r3,r2)
    3958:	00 05 e8 a0 	movd	$0xa0e8:m,(r1,r0)
    395c:	32 4c       	ashud	$3:s,(r3,r2)
    395e:	20 61       	addd	(r3,r2),(r1,r0)
    3960:	80 a0       	loadd	0x0:s(r1,r0),(r9,r8)
    3962:	a0 a2       	loadd	0x4:s(r1,r0),(r11,r10)
    3964:	c7 43       	ashuw	$-4:s,r7
    3966:	70 5b       	movw	r7,r0
    3968:	b0 22 10 00 	andw	$0x10:m,r0
    396c:	00 52       	cmpw	$0x0:s,r0
    396e:	00 18 72 07 	beq	*+0x40e0 <.L176>:m
    3972:	f7 22       	andw	$0xf:s,r7
    3974:	12 00 00 b0 	loadd	0xa0e0 <___mprec_bigtens+0x20>:l,(r1,r0)
    3978:	e0 a0 
    397a:	12 00 20 b0 	loadd	0xa0e4 <___mprec_bigtens+0x24>:l,(r3,r2)
    397e:	e4 a0 
    3980:	30 01       	push	$0x4,r0
    3982:	0f af 1c 00 	loadd	0x1c:m(sp),(r1,r0)
    3986:	2f af 20 00 	loadd	0x20:m(sp),(r3,r2)
    398a:	30 01       	push	$0x4,r0
    398c:	00 c0 48 57 	bal	(ra),*+0x90d4 <___divdf3>:m
    3990:	bf 60 10 00 	addd	$0x10:m,(sp)
    3994:	0f ef 4c 00 	stord	(r1,r0),0x4c:m(sp)
    3998:	2f ef 50 00 	stord	(r3,r2),0x50:m(sp)
    399c:	3f c3 28 00 	storw	$0x3:s,0x28:m(sp)

000039a0 <.L69>:
    39a0:	07 52       	cmpw	$0x0:s,r7
    39a2:	04 12       	beq	*+0x39ea <.L70>:s
    39a4:	0f c3 0c 00 	storw	$0x0:s,0xc:m(sp)
    39a8:	c0 05 c0 a0 	movd	$0xa0c0:m,(r12)
    39ac:	80 55       	movd	(r9,r8),(r1,r0)
    39ae:	a2 55       	movd	(r11,r10),(r3,r2)

000039b0 <.L72>:
    39b0:	74 5b       	movw	r7,r4
    39b2:	14 22       	andw	$0x1:s,r4
    39b4:	04 52       	cmpw	$0x0:s,r4
    39b6:	02 11       	beq	*+0x39da <.L71>:s
    39b8:	8f 9f 28 00 	loadw	0x28:m(sp),r8
    39bc:	18 32       	addw	$0x1:s,r8
    39be:	8f df 28 00 	storw	r8,0x28:m(sp)
    39c2:	9f 96       	loadw	0xc:s(sp),r9
    39c4:	94 5e       	movxw	r9,(r5,r4)
    39c6:	34 4c       	ashud	$3:s,(r5,r4)
    39c8:	c4 61       	addd	(r12),(r5,r4)
    39ca:	84 a0       	loadd	0x0:s(r5,r4),(r9,r8)
    39cc:	a4 a2       	loadd	0x4:s(r5,r4),(r11,r10)
    39ce:	38 01       	push	$0x4,r8
    39d0:	30 01       	push	$0x4,r0
    39d2:	00 c0 be 52 	bal	(ra),*+0x8c90 <___muldf3>:m
    39d6:	bf 60 10 00 	addd	$0x10:m,(sp)

000039da <.L71>:
    39da:	f7 43       	ashuw	$-1:s,r7
    39dc:	af 96       	loadw	0xc:s(sp),r10
    39de:	1a 32       	addw	$0x1:s,r10
    39e0:	af d6       	storw	r10,0xc:s(sp)
    39e2:	07 52       	cmpw	$0x0:s,r7
    39e4:	16 1e       	bne	*-0x39b0 <.L72>:s
    39e6:	08 55       	movd	(r1,r0),(r9,r8)
    39e8:	2a 55       	movd	(r3,r2),(r11,r10)

000039ea <.L70>:
    39ea:	38 01       	push	$0x4,r8
    39ec:	0f af 54 00 	loadd	0x54:m(sp),(r1,r0)
    39f0:	2f af 58 00 	loadd	0x58:m(sp),(r3,r2)
    39f4:	30 01       	push	$0x4,r0
    39f6:	00 c0 de 56 	bal	(ra),*+0x90d4 <___divdf3>:m
    39fa:	bf 60 10 00 	addd	$0x10:m,(sp)
    39fe:	08 55       	movd	(r1,r0),(r9,r8)
    3a00:	2a 55       	movd	(r3,r2),(r11,r10)

00003a02 <.L73>:
    3a02:	7f 9f 3e 00 	loadw	0x3e:m(sp),r7
    3a06:	07 52       	cmpw	$0x0:s,r7
    3a08:	0e 10       	beq	*+0x3a24 <.L76>:s
    3a0a:	00 54       	movd	$0x0:s,(r1,r0)
    3a0c:	72 00 f0 3f 	movd	$0x3ff00000:l,(r3,r2)
    3a10:	00 00 
    3a12:	30 01       	push	$0x4,r0
    3a14:	38 01       	push	$0x4,r8
    3a16:	00 c0 ae 5a 	bal	(ra),*+0x94c4 <___ltdf2>:m
    3a1a:	bf 60 10 00 	addd	$0x10:m,(sp)
    3a1e:	00 52       	cmpw	$0x0:s,r0
    3a20:	60 18 5e 0d 	bgt	*+0x477e <.L339>:m

00003a24 <.L76>:
    3a24:	7f 9f 28 00 	loadw	0x28:m(sp),r7
    3a28:	72 5e       	movxw	r7,(r3,r2)
    3a2a:	00 c0 0e 5b 	bal	(ra),*+0x9538 <___floatsidf>:m
    3a2e:	38 01       	push	$0x4,r8
    3a30:	30 01       	push	$0x4,r0
    3a32:	00 c0 5e 52 	bal	(ra),*+0x8c90 <___muldf3>:m
    3a36:	bf 60 10 00 	addd	$0x10:m,(sp)
    3a3a:	04 54       	movd	$0x0:s,(r5,r4)
    3a3c:	76 00 1c 40 	movd	$0x401c0000:l,(r7,r6)
    3a40:	00 00 
    3a42:	34 01       	push	$0x4,r4
    3a44:	30 01       	push	$0x4,r0
    3a46:	00 c0 66 51 	bal	(ra),*+0x8bac <___adddf3>:m
    3a4a:	bf 60 10 00 	addd	$0x10:m,(sp)
    3a4e:	0f e6       	stord	(r1,r0),0xc:s(sp)
    3a50:	2f e8       	stord	(r3,r2),0x10:s(sp)
    3a52:	0f a8       	loadd	0x10:s(sp),(r1,r0)
    3a54:	20 00 c0 fc 	addd	$0xfcc00000:l,(r1,r0)
    3a58:	00 00 
    3a5a:	0f e8       	stord	(r1,r0),0x10:s(sp)
    3a5c:	7f 9f 40 00 	loadw	0x40:m(sp),r7
    3a60:	07 52       	cmpw	$0x0:s,r7
    3a62:	00 18 fe 06 	beq	*+0x4160 <.L160>:m
    3a66:	7f 9f 2c 00 	loadw	0x2c:m(sp),r7
    3a6a:	7f df 4c 00 	storw	r7,0x4c:m(sp)
    3a6e:	7f 9f 40 00 	loadw	0x40:m(sp),r7
    3a72:	7f df 28 00 	storw	r7,0x28:m(sp)

00003a76 <.L80>:
    3a76:	7f 9f 4a 00 	loadw	0x4a:m(sp),r7
    3a7a:	2f 9f 28 00 	loadw	0x28:m(sp),r2
    3a7e:	92 32       	addw	$-1:s,r2
    3a80:	22 5e       	movxw	r2,(r3,r2)
    3a82:	00 05 e8 a0 	movd	$0xa0e8:m,(r1,r0)
    3a86:	32 4c       	ashud	$3:s,(r3,r2)
    3a88:	20 61       	addd	(r3,r2),(r1,r0)
    3a8a:	20 a2       	loadd	0x4:s(r1,r0),(r3,r2)
    3a8c:	00 a0       	loadd	0x0:s(r1,r0),(r1,r0)
    3a8e:	07 52       	cmpw	$0x0:s,r7
    3a90:	00 18 a2 08 	beq	*+0x4332 <.L83>:m
    3a94:	30 01       	push	$0x4,r0
    3a96:	00 54       	movd	$0x0:s,(r1,r0)
    3a98:	72 00 e0 3f 	movd	$0x3fe00000:l,(r3,r2)
    3a9c:	00 00 
    3a9e:	30 01       	push	$0x4,r0
    3aa0:	00 c0 34 56 	bal	(ra),*+0x90d4 <___divdf3>:m
    3aa4:	bf 60 10 00 	addd	$0x10:m,(sp)
    3aa8:	4f a6       	loadd	0xc:s(sp),(r5,r4)
    3aaa:	6f a8       	loadd	0x10:s(sp),(r7,r6)
    3aac:	34 01       	push	$0x4,r4
    3aae:	30 01       	push	$0x4,r0
    3ab0:	00 c0 6c 51 	bal	(ra),*+0x8c1c <___subdf3>:m
    3ab4:	bf 60 10 00 	addd	$0x10:m,(sp)
    3ab8:	0f e6       	stord	(r1,r0),0xc:s(sp)
    3aba:	2f e8       	stord	(r3,r2),0x10:s(sp)
    3abc:	38 01       	push	$0x4,r8
    3abe:	00 c0 0e 5b 	bal	(ra),*+0x95cc <___fixdfsi>:m
    3ac2:	8f 60       	addd	$0x8:s,(sp)
    3ac4:	07 5b       	movw	r0,r7
    3ac6:	02 5b       	movw	r0,r2
    3ac8:	13 5b       	movw	r1,r3
    3aca:	00 c0 6e 5a 	bal	(ra),*+0x9538 <___floatsidf>:m
    3ace:	30 01       	push	$0x4,r0
    3ad0:	38 01       	push	$0x4,r8
    3ad2:	00 c0 4a 51 	bal	(ra),*+0x8c1c <___subdf3>:m
    3ad6:	bf 60 10 00 	addd	$0x10:m,(sp)
    3ada:	08 55       	movd	(r1,r0),(r9,r8)
    3adc:	2a 55       	movd	(r3,r2),(r11,r10)
    3ade:	b5 58 30 00 	movb	$0x30:m,r5
    3ae2:	57 31       	addb	r5,r7
    3ae4:	0f a2       	loadd	0x4:s(sp),(r1,r0)
    3ae6:	70 f0       	storb	r7,0x0:s(r1,r0)
    3ae8:	0c 55       	movd	(r1,r0),(r12)
    3aea:	1c 60       	addd	$0x1:s,(r12)
    3aec:	38 01       	push	$0x4,r8
    3aee:	2f aa       	loadd	0x14:s(sp),(r3,r2)
    3af0:	4f ac       	loadd	0x18:s(sp),(r5,r4)
    3af2:	32 01       	push	$0x4,r2
    3af4:	00 c0 e8 58 	bal	(ra),*+0x93dc <___gtdf2>:m
    3af8:	bf 60 10 00 	addd	$0x10:m,(sp)
    3afc:	00 52       	cmpw	$0x0:s,r0
    3afe:	c0 18 a6 0e 	blt	*+0x49a4 <.L182>:m
    3b02:	38 01       	push	$0x4,r8
    3b04:	00 54       	movd	$0x0:s,(r1,r0)
    3b06:	72 00 f0 3f 	movd	$0x3ff00000:l,(r3,r2)
    3b0a:	00 00 
    3b0c:	30 01       	push	$0x4,r0
    3b0e:	00 c0 0e 51 	bal	(ra),*+0x8c1c <___subdf3>:m
    3b12:	bf 60 10 00 	addd	$0x10:m,(sp)
    3b16:	30 01       	push	$0x4,r0
    3b18:	2f aa       	loadd	0x14:s(sp),(r3,r2)
    3b1a:	4f ac       	loadd	0x18:s(sp),(r5,r4)
    3b1c:	32 01       	push	$0x4,r2
    3b1e:	00 c0 be 58 	bal	(ra),*+0x93dc <___gtdf2>:m
    3b22:	bf 60 10 00 	addd	$0x10:m,(sp)
    3b26:	00 52       	cmpw	$0x0:s,r0
    3b28:	c0 18 76 0e 	blt	*+0x499e <.L340>:m
    3b2c:	7f 9f 28 00 	loadw	0x28:m(sp),r7
    3b30:	17 52       	cmpw	$0x1:s,r7
    3b32:	db 16       	bge	*+0x3c08 <.L67>:s
    3b34:	70 5b       	movw	r7,r0
    3b36:	b0 32 fe ff 	addw	$0xfffe:m,r0
    3b3a:	01 5f       	movzw	r0,(r2,r1)
    3b3c:	21 60       	addd	$0x2:s,(r2,r1)
    3b3e:	3f a2       	loadd	0x4:s(sp),(r4,r3)
    3b40:	13 61       	addd	(r2,r1),(r4,r3)
    3b42:	3f ef 28 00 	stord	(r4,r3),0x28:m(sp)
    3b46:	df ef 58 00 	stord	(r13),0x58:m(sp)
    3b4a:	3d 55       	movd	(r4,r3),(r13)
    3b4c:	e8 11       	br	*+0x3b7c <.L86>:s

00003b4e <.L318>:
    3b4e:	38 01       	push	$0x4,r8
    3b50:	04 54       	movd	$0x0:s,(r5,r4)
    3b52:	76 00 f0 3f 	movd	$0x3ff00000:l,(r7,r6)
    3b56:	00 00 
    3b58:	34 01       	push	$0x4,r4
    3b5a:	00 c0 c2 50 	bal	(ra),*+0x8c1c <___subdf3>:m
    3b5e:	bf 60 10 00 	addd	$0x10:m,(sp)
    3b62:	4f a6       	loadd	0xc:s(sp),(r5,r4)
    3b64:	6f a8       	loadd	0x10:s(sp),(r7,r6)
    3b66:	34 01       	push	$0x4,r4
    3b68:	30 01       	push	$0x4,r0
    3b6a:	00 c0 5a 59 	bal	(ra),*+0x94c4 <___ltdf2>:m
    3b6e:	bf 60 10 00 	addd	$0x10:m,(sp)
    3b72:	00 52       	cmpw	$0x0:s,r0
    3b74:	60 18 02 0d 	bgt	*+0x4876 <.L341>:m
    3b78:	dc 57       	cmpd	(r13),(r12)
    3b7a:	05 14       	beq	*+0x3c04 <.L324>:s

00003b7c <.L86>:
    3b7c:	00 54       	movd	$0x0:s,(r1,r0)
    3b7e:	72 00 24 40 	movd	$0x40240000:l,(r3,r2)
    3b82:	00 00 
    3b84:	30 01       	push	$0x4,r0
    3b86:	2f aa       	loadd	0x14:s(sp),(r3,r2)
    3b88:	4f ac       	loadd	0x18:s(sp),(r5,r4)
    3b8a:	32 01       	push	$0x4,r2
    3b8c:	00 c0 04 51 	bal	(ra),*+0x8c90 <___muldf3>:m
    3b90:	bf 60 10 00 	addd	$0x10:m,(sp)
    3b94:	0f e6       	stord	(r1,r0),0xc:s(sp)
    3b96:	2f e8       	stord	(r3,r2),0x10:s(sp)
    3b98:	04 54       	movd	$0x0:s,(r5,r4)
    3b9a:	76 00 24 40 	movd	$0x40240000:l,(r7,r6)
    3b9e:	00 00 
    3ba0:	34 01       	push	$0x4,r4
    3ba2:	38 01       	push	$0x4,r8
    3ba4:	00 c0 ec 50 	bal	(ra),*+0x8c90 <___muldf3>:m
    3ba8:	bf 60 10 00 	addd	$0x10:m,(sp)
    3bac:	08 55       	movd	(r1,r0),(r9,r8)
    3bae:	2a 55       	movd	(r3,r2),(r11,r10)
    3bb0:	30 01       	push	$0x4,r0
    3bb2:	00 c0 1a 5a 	bal	(ra),*+0x95cc <___fixdfsi>:m
    3bb6:	8f 60       	addd	$0x8:s,(sp)
    3bb8:	07 5b       	movw	r0,r7
    3bba:	02 5b       	movw	r0,r2
    3bbc:	13 5b       	movw	r1,r3
    3bbe:	00 c0 7a 59 	bal	(ra),*+0x9538 <___floatsidf>:m
    3bc2:	30 01       	push	$0x4,r0
    3bc4:	38 01       	push	$0x4,r8
    3bc6:	00 c0 56 50 	bal	(ra),*+0x8c1c <___subdf3>:m
    3bca:	bf 60 10 00 	addd	$0x10:m,(sp)
    3bce:	08 55       	movd	(r1,r0),(r9,r8)
    3bd0:	2a 55       	movd	(r3,r2),(r11,r10)
    3bd2:	b5 58 30 00 	movb	$0x30:m,r5
    3bd6:	75 31       	addb	r7,r5
    3bd8:	5f ff 28 00 	storb	r5,0x28:m(sp)
    3bdc:	5c f0       	storb	r5,0x0:s(r12)
    3bde:	1c 60       	addd	$0x1:s,(r12)
    3be0:	0f a6       	loadd	0xc:s(sp),(r1,r0)
    3be2:	2f a8       	loadd	0x10:s(sp),(r3,r2)
    3be4:	30 01       	push	$0x4,r0
    3be6:	38 01       	push	$0x4,r8
    3be8:	00 c0 dc 58 	bal	(ra),*+0x94c4 <___ltdf2>:m
    3bec:	bf 60 10 00 	addd	$0x10:m,(sp)
    3bf0:	00 52       	cmpw	$0x0:s,r0
    3bf2:	7e 1a       	ble	*-0x3b4e <.L318>:s
    3bf4:	df af 58 00 	loadd	0x58:m(sp),(r13)
    3bf8:	7f 9f 4c 00 	loadw	0x4c:m(sp),r7
    3bfc:	7f df 2c 00 	storw	r7,0x2c:m(sp)
    3c00:	e0 18 f0 03 	br	*+0x3ff0 <.L84>:m

00003c04 <.L324>:
    3c04:	df af 58 00 	loadd	0x58:m(sp),(r13)

00003c08 <.L67>:
    3c08:	0f 90       	loadw	0x0:s(sp),r0
    3c0a:	00 52       	cmpw	$0x0:s,r0
    3c0c:	60 18 14 02 	bgt	*+0x3e20 <.L95>:m
    3c10:	9f 9f 2c 00 	loadw	0x2c:m(sp),r9
    3c14:	e9 52       	cmpw	$0xe:s,r9
    3c16:	c0 18 0a 02 	blt	*+0x3e20 <.L95>:m
    3c1a:	92 5e       	movxw	r9,(r3,r2)
    3c1c:	00 05 e8 a0 	movd	$0xa0e8:m,(r1,r0)
    3c20:	32 4c       	ashud	$3:s,(r3,r2)
    3c22:	20 61       	addd	(r3,r2),(r1,r0)
    3c24:	80 a0       	loadd	0x0:s(r1,r0),(r9,r8)
    3c26:	a0 a2       	loadd	0x4:s(r1,r0),(r11,r10)
    3c28:	8f ef 1c 00 	stord	(r9,r8),0x1c:m(sp)
    3c2c:	af ef 20 00 	stord	(r11,r10),0x20:m(sp)
    3c30:	9f 9f 40 00 	loadw	0x40:m(sp),r9
    3c34:	09 52       	cmpw	$0x0:s,r9
    3c36:	d0 08       	sge	r0
    3c38:	00 52       	cmpw	$0x0:s,r0
    3c3a:	06 10       	beq	*+0x3c46 <.L209>:s
    3c3c:	af 9f 2e 00 	loadw	0x2e:m(sp),r10
    3c40:	0a 52       	cmpw	$0x0:s,r10
    3c42:	60 18 74 08 	bgt	*+0x44b6 <.L96>:m

00003c46 <.L209>:
    3c46:	8f aa       	loadd	0x14:s(sp),(r9,r8)
    3c48:	af ac       	loadd	0x18:s(sp),(r11,r10)
    3c4a:	0f af 1c 00 	loadd	0x1c:m(sp),(r1,r0)
    3c4e:	2f af 20 00 	loadd	0x20:m(sp),(r3,r2)
    3c52:	30 01       	push	$0x4,r0
    3c54:	38 01       	push	$0x4,r8
    3c56:	00 c0 7e 54 	bal	(ra),*+0x90d4 <___divdf3>:m
    3c5a:	bf 60 10 00 	addd	$0x10:m,(sp)
    3c5e:	30 01       	push	$0x4,r0
    3c60:	00 c0 6c 59 	bal	(ra),*+0x95cc <___fixdfsi>:m
    3c64:	8f 60       	addd	$0x8:s,(sp)
    3c66:	0f da       	storw	r0,0x14:s(sp)
    3c68:	1f db       	storw	r1,0x16:s(sp)
    3c6a:	2f aa       	loadd	0x14:s(sp),(r3,r2)
    3c6c:	00 c0 cc 58 	bal	(ra),*+0x9538 <___floatsidf>:m
    3c70:	4f af 1c 00 	loadd	0x1c:m(sp),(r5,r4)
    3c74:	6f af 20 00 	loadd	0x20:m(sp),(r7,r6)
    3c78:	34 01       	push	$0x4,r4
    3c7a:	30 01       	push	$0x4,r0
    3c7c:	00 c0 14 50 	bal	(ra),*+0x8c90 <___muldf3>:m
    3c80:	bf 60 10 00 	addd	$0x10:m,(sp)
    3c84:	30 01       	push	$0x4,r0
    3c86:	38 01       	push	$0x4,r8
    3c88:	00 c0 94 4f 	bal	(ra),*+0x8c1c <___subdf3>:m
    3c8c:	bf 60 10 00 	addd	$0x10:m,(sp)
    3c90:	08 55       	movd	(r1,r0),(r9,r8)
    3c92:	2a 55       	movd	(r3,r2),(r11,r10)
    3c94:	b7 58 30 00 	movb	$0x30:m,r7
    3c98:	4f bf 14 00 	loadb	0x14:m(sp),r4
    3c9c:	74 31       	addb	r7,r4
    3c9e:	5f a2       	loadd	0x4:s(sp),(r6,r5)
    3ca0:	45 f0       	storb	r4,0x0:s(r6,r5)
    3ca2:	5c 55       	movd	(r6,r5),(r12)
    3ca4:	1c 60       	addd	$0x1:s,(r12)
    3ca6:	6f 9f 40 00 	loadw	0x40:m(sp),r6
    3caa:	16 52       	cmpw	$0x1:s,r6
    3cac:	0b 16       	beq	*+0x3d82 <.L98>:s
    3cae:	08 54       	movd	$0x0:s,(r9,r8)
    3cb0:	7a 00 24 40 	movd	$0x40240000:l,(r11,r10)
    3cb4:	00 00 
    3cb6:	38 01       	push	$0x4,r8
    3cb8:	30 01       	push	$0x4,r0
    3cba:	00 c0 d6 4f 	bal	(ra),*+0x8c90 <___muldf3>:m
    3cbe:	bf 60 10 00 	addd	$0x10:m,(sp)
    3cc2:	08 55       	movd	(r1,r0),(r9,r8)
    3cc4:	2a 55       	movd	(r3,r2),(r11,r10)
    3cc6:	00 54       	movd	$0x0:s,(r1,r0)
    3cc8:	02 54       	movd	$0x0:s,(r3,r2)
    3cca:	30 01       	push	$0x4,r0
    3ccc:	38 01       	push	$0x4,r8
    3cce:	00 c0 26 56 	bal	(ra),*+0x92f4 <___eqdf2>:m
    3cd2:	bf 60 10 00 	addd	$0x10:m,(sp)
    3cd6:	00 52       	cmpw	$0x0:s,r0
    3cd8:	00 18 18 03 	beq	*+0x3ff0 <.L84>:m
    3cdc:	0f 9f 40 00 	loadw	0x40:m(sp),r0
    3ce0:	b0 32 fe ff 	addw	$0xfffe:m,r0
    3ce4:	01 5f       	movzw	r0,(r2,r1)
    3ce6:	21 60       	addd	$0x2:s,(r2,r1)
    3ce8:	3f a2       	loadd	0x4:s(sp),(r4,r3)
    3cea:	13 61       	addd	(r2,r1),(r4,r3)
    3cec:	3f ea       	stord	(r4,r3),0x14:s(sp)
    3cee:	df e6       	stord	(r13),0xc:s(sp)
    3cf0:	e8 11       	br	*+0x3d20 <.L100>:s

00003cf2 <.L322>:
    3cf2:	04 54       	movd	$0x0:s,(r5,r4)
    3cf4:	76 00 24 40 	movd	$0x40240000:l,(r7,r6)
    3cf8:	00 00 
    3cfa:	34 01       	push	$0x4,r4
    3cfc:	30 01       	push	$0x4,r0
    3cfe:	00 c0 92 4f 	bal	(ra),*+0x8c90 <___muldf3>:m
    3d02:	bf 60 10 00 	addd	$0x10:m,(sp)
    3d06:	08 55       	movd	(r1,r0),(r9,r8)
    3d08:	2a 55       	movd	(r3,r2),(r11,r10)
    3d0a:	00 54       	movd	$0x0:s,(r1,r0)
    3d0c:	02 54       	movd	$0x0:s,(r3,r2)
    3d0e:	30 01       	push	$0x4,r0
    3d10:	38 01       	push	$0x4,r8
    3d12:	00 c0 e2 55 	bal	(ra),*+0x92f4 <___eqdf2>:m
    3d16:	bf 60 10 00 	addd	$0x10:m,(sp)
    3d1a:	00 52       	cmpw	$0x0:s,r0
    3d1c:	00 18 4c 0b 	beq	*+0x4868 <.L326>:m

00003d20 <.L100>:
    3d20:	2f af 1c 00 	loadd	0x1c:m(sp),(r3,r2)
    3d24:	4f af 20 00 	loadd	0x20:m(sp),(r5,r4)
    3d28:	32 01       	push	$0x4,r2
    3d2a:	38 01       	push	$0x4,r8
    3d2c:	00 c0 a8 53 	bal	(ra),*+0x90d4 <___divdf3>:m
    3d30:	bf 60 10 00 	addd	$0x10:m,(sp)
    3d34:	30 01       	push	$0x4,r0
    3d36:	00 c0 96 58 	bal	(ra),*+0x95cc <___fixdfsi>:m
    3d3a:	8f 60       	addd	$0x8:s,(sp)
    3d3c:	03 5b       	movw	r0,r3
    3d3e:	14 5b       	movw	r1,r4
    3d40:	3d 55       	movd	(r4,r3),(r13)
    3d42:	d2 55       	movd	(r13),(r3,r2)
    3d44:	00 c0 f4 57 	bal	(ra),*+0x9538 <___floatsidf>:m
    3d48:	4f af 1c 00 	loadd	0x1c:m(sp),(r5,r4)
    3d4c:	6f af 20 00 	loadd	0x20:m(sp),(r7,r6)
    3d50:	34 01       	push	$0x4,r4
    3d52:	30 01       	push	$0x4,r0
    3d54:	00 c0 3c 4f 	bal	(ra),*+0x8c90 <___muldf3>:m
    3d58:	bf 60 10 00 	addd	$0x10:m,(sp)
    3d5c:	30 01       	push	$0x4,r0
    3d5e:	38 01       	push	$0x4,r8
    3d60:	00 c0 bc 4e 	bal	(ra),*+0x8c1c <___subdf3>:m
    3d64:	bf 60 10 00 	addd	$0x10:m,(sp)
    3d68:	08 55       	movd	(r1,r0),(r9,r8)
    3d6a:	2a 55       	movd	(r3,r2),(r11,r10)
    3d6c:	d5 55       	movd	(r13),(r6,r5)
    3d6e:	b7 58 30 00 	movb	$0x30:m,r7
    3d72:	75 31       	addb	r7,r5
    3d74:	5c f0       	storb	r5,0x0:s(r12)
    3d76:	1c 60       	addd	$0x1:s,(r12)
    3d78:	4f aa       	loadd	0x14:s(sp),(r5,r4)
    3d7a:	4c 57       	cmpd	(r5,r4),(r12)
    3d7c:	1b 1b       	bne	*-0x3cf2 <.L322>:s
    3d7e:	df ea       	stord	(r13),0x14:s(sp)
    3d80:	df a6       	loadd	0xc:s(sp),(r13)

00003d82 <.L98>:
    3d82:	38 01       	push	$0x4,r8
    3d84:	38 01       	push	$0x4,r8
    3d86:	00 c0 26 4e 	bal	(ra),*+0x8bac <___adddf3>:m
    3d8a:	bf 60 10 00 	addd	$0x10:m,(sp)
    3d8e:	08 55       	movd	(r1,r0),(r9,r8)
    3d90:	2a 55       	movd	(r3,r2),(r11,r10)
    3d92:	30 01       	push	$0x4,r0
    3d94:	4f af 24 00 	loadd	0x24:m(sp),(r5,r4)
    3d98:	6f af 28 00 	loadd	0x28:m(sp),(r7,r6)
    3d9c:	34 01       	push	$0x4,r4
    3d9e:	00 c0 26 57 	bal	(ra),*+0x94c4 <___ltdf2>:m
    3da2:	bf 60 10 00 	addd	$0x10:m,(sp)
    3da6:	00 52       	cmpw	$0x0:s,r0
    3da8:	65 11       	bgt	*+0x3dd2 <.L329>:s
    3daa:	38 01       	push	$0x4,r8
    3dac:	0f af 24 00 	loadd	0x24:m(sp),(r1,r0)
    3db0:	2f af 28 00 	loadd	0x28:m(sp),(r3,r2)
    3db4:	30 01       	push	$0x4,r0
    3db6:	00 c0 3e 55 	bal	(ra),*+0x92f4 <___eqdf2>:m
    3dba:	bf 60 10 00 	addd	$0x10:m,(sp)
    3dbe:	00 52       	cmpw	$0x0:s,r0
    3dc0:	10 18 30 02 	bne	*+0x3ff0 <.L84>:m
    3dc4:	0f aa       	loadd	0x14:s(sp),(r1,r0)
    3dc6:	40 00 00 00 	andd	$0x1:l,(r1,r0)
    3dca:	01 00 
    3dcc:	00 56       	cmpd	$0x0:s,(r1,r0)
    3dce:	00 18 22 02 	beq	*+0x3ff0 <.L84>:m

00003dd2 <.L329>:
    3dd2:	c0 55       	movd	(r12),(r1,r0)
    3dd4:	90 60       	addd	$-1:s,(r1,r0)
    3dd6:	70 b0       	loadb	0x0:s(r1,r0),r7
    3dd8:	8f 9f 2c 00 	loadw	0x2c:m(sp),r8
    3ddc:	8f df 4c 00 	storw	r8,0x4c:m(sp)

00003de0 <.L85>:
    3de0:	c2 55       	movd	(r12),(r3,r2)
    3de2:	b2 60 fe ff 	addd	$0xfffe:m,(r3,r2)
    3de6:	78 59       	movb	r7,r8
    3de8:	6f a2       	loadd	0x4:s(sp),(r7,r6)
    3dea:	e4 10       	br	*+0x3df2 <.L105>:s

00003dec <.L343>:
    3dec:	82 b1       	loadb	0x1:s(r3,r2),r8
    3dee:	0c 55       	movd	(r1,r0),(r12)
    3df0:	90 60       	addd	$-1:s,(r1,r0)

00003df2 <.L105>:
    3df2:	04 55       	movd	(r1,r0),(r5,r4)
    3df4:	b8 50 39 00 	cmpb	$0x39:m,r8
    3df8:	10 18 8e 0a 	bne	*+0x4886 <.L342>:m
    3dfc:	92 60       	addd	$-1:s,(r3,r2)
    3dfe:	06 57       	cmpd	(r1,r0),(r7,r6)
    3e00:	16 1f       	bne	*-0x3dec <.L343>:s
    3e02:	9f 9f 4c 00 	loadw	0x4c:m(sp),r9
    3e06:	19 32       	addw	$0x1:s,r9
    3e08:	9f df 2c 00 	storw	r9,0x2c:m(sp)
    3e0c:	b0 58 30 00 	movb	$0x30:m,r0
    3e10:	af a2       	loadd	0x4:s(sp),(r11,r10)
    3e12:	0a f0       	storb	r0,0x0:s(r11,r10)
    3e14:	a4 55       	movd	(r11,r10),(r5,r4)
    3e16:	b7 58 31 00 	movb	$0x31:m,r7
    3e1a:	74 f0       	storb	r7,0x0:s(r5,r4)
    3e1c:	e0 18 d4 01 	br	*+0x3ff0 <.L84>:m

00003e20 <.L95>:
    3e20:	7f 9f 4a 00 	loadw	0x4a:m(sp),r7
    3e24:	07 52       	cmpw	$0x0:s,r7
    3e26:	10 18 68 02 	bne	*+0x408e <.L344>:m
    3e2a:	af 9f 46 00 	loadw	0x46:m(sp),r10
    3e2e:	9f 9f 3c 00 	loadw	0x3c:m(sp),r9
    3e32:	07 54       	movd	$0x0:s,(r8,r7)
    3e34:	7f ef 28 00 	stord	(r8,r7),0x28:m(sp)

00003e38 <.L109>:
    3e38:	8f 9f 38 00 	loadw	0x38:m(sp),r8
    3e3c:	08 52       	cmpw	$0x0:s,r8
    3e3e:	c0 08       	slt	r0
    3e40:	00 52       	cmpw	$0x0:s,r0
    3e42:	04 11       	beq	*+0x3e6a <.L115>:s
    3e44:	09 52       	cmpw	$0x0:s,r9
    3e46:	c0 08       	slt	r0
    3e48:	00 52       	cmpw	$0x0:s,r0
    3e4a:	00 11       	beq	*+0x3e6a <.L115>:s
    3e4c:	80 5b       	movw	r8,r0
    3e4e:	98 53       	cmpw	r9,r8
    3e50:	d2 10       	bge	*+0x3e54 <.L116>:s
    3e52:	90 5b       	movw	r9,r0

00003e54 <.L116>:
    3e54:	bf 9f 3c 00 	loadw	0x3c:m(sp),r11
    3e58:	0b 3b       	subw	r0,r11
    3e5a:	bf df 3c 00 	storw	r11,0x3c:m(sp)
    3e5e:	09 3b       	subw	r0,r9
    3e60:	7f 9f 38 00 	loadw	0x38:m(sp),r7
    3e64:	07 3b       	subw	r0,r7
    3e66:	7f df 38 00 	storw	r7,0x38:m(sp)

00003e6a <.L115>:
    3e6a:	8f 9f 46 00 	loadw	0x46:m(sp),r8
    3e6e:	08 52       	cmpw	$0x0:s,r8
    3e70:	da 12       	bge	*+0x3ec4 <.L117>:s
    3e72:	bf 9f 4a 00 	loadw	0x4a:m(sp),r11
    3e76:	0b 52       	cmpw	$0x0:s,r11
    3e78:	00 18 10 04 	beq	*+0x4288 <.L118>:m
    3e7c:	0a 52       	cmpw	$0x0:s,r10
    3e7e:	dd 11       	bge	*+0x3eb8 <.L119>:s
    3e80:	a6 5b       	movw	r10,r6
    3e82:	4f af 28 00 	loadd	0x28:m(sp),(r5,r4)
    3e86:	d2 55       	movd	(r13),(r3,r2)
    3e88:	00 c0 88 22 	bal	(ra),*+0x6110 <___pow5mult>:m

00003e8c <.LVL286>:
    3e8c:	0f ef 28 00 	stord	(r1,r0),0x28:m(sp)
    3e90:	7f af 30 00 	loadd	0x30:m(sp),(r8,r7)
    3e94:	17 01       	push	$0x2,r7
    3e96:	4f af 2c 00 	loadd	0x2c:m(sp),(r5,r4)
    3e9a:	d2 55       	movd	(r13),(r3,r2)
    3e9c:	00 c0 a0 20 	bal	(ra),*+0x5f3c <___multiply>:m

00003ea0 <.LVL289>:
    3ea0:	08 5b       	movw	r0,r8
    3ea2:	17 5b       	movw	r1,r7
    3ea4:	4f af 34 00 	loadd	0x34:m(sp),(r5,r4)
    3ea8:	d2 55       	movd	(r13),(r3,r2)
    3eaa:	00 c0 ca 1d 	bal	(ra),*+0x5c74 <__Bfree>:m

00003eae <.LVL291>:
    3eae:	4f 60       	addd	$0x4:s,(sp)
    3eb0:	8f df 30 00 	storw	r8,0x30:m(sp)
    3eb4:	7f df 32 00 	storw	r7,0x32:m(sp)

00003eb8 <.L119>:
    3eb8:	6f 9f 46 00 	loadw	0x46:m(sp),r6
    3ebc:	a6 3b       	subw	r10,r6
    3ebe:	06 52       	cmpw	$0x0:s,r6
    3ec0:	10 18 cc 03 	bne	*+0x428c <.L330>:m

00003ec4 <.L117>:
    3ec4:	14 5a       	movw	$0x1:s,r4
    3ec6:	d2 55       	movd	(r13),(r3,r2)
    3ec8:	00 c0 58 20 	bal	(ra),*+0x5f20 <___i2b>:m

00003ecc <.LVL296>:
    3ecc:	0a 55       	movd	(r1,r0),(r11,r10)
    3ece:	8f 9f 48 00 	loadw	0x48:m(sp),r8
    3ed2:	08 52       	cmpw	$0x0:s,r8
    3ed4:	d7 10       	bge	*+0x3ee2 <.L120>:s
    3ed6:	86 5b       	movw	r8,r6
    3ed8:	04 55       	movd	(r1,r0),(r5,r4)
    3eda:	d2 55       	movd	(r13),(r3,r2)
    3edc:	00 c0 34 22 	bal	(ra),*+0x6110 <___pow5mult>:m

00003ee0 <.LVL298>:
    3ee0:	0a 55       	movd	(r1,r0),(r11,r10)

00003ee2 <.L120>:
    3ee2:	07 5a       	movw	$0x0:s,r7
    3ee4:	8f 9f 1c 00 	loadw	0x1c:m(sp),r8
    3ee8:	18 52       	cmpw	$0x1:s,r8
    3eea:	d0 18 12 06 	bge	*+0x44fc <.L345>:m

00003eee <.L121>:
    3eee:	10 5a       	movw	$0x1:s,r0
    3ef0:	8f 9f 48 00 	loadw	0x48:m(sp),r8
    3ef4:	08 52       	cmpw	$0x0:s,r8
    3ef6:	10 18 40 05 	bne	*+0x4436 <.L346>:m

00003efa <.L122>:
    3efa:	8f 9f 38 00 	loadw	0x38:m(sp),r8
    3efe:	80 33       	addw	r8,r0
    3f00:	b0 22 1f 00 	andw	$0x1f:m,r0
    3f04:	00 52       	cmpw	$0x0:s,r0
    3f06:	00 18 60 03 	beq	*+0x4266 <.L194>:m
    3f0a:	b1 5a 20 00 	movw	$0x20:m,r1
    3f0e:	01 3b       	subw	r0,r1
    3f10:	41 52       	cmpw	$0x4:s,r1
    3f12:	d0 18 aa 0a 	bge	*+0x49bc <.L124>:m
    3f16:	b1 5a 1c 00 	movw	$0x1c:m,r1
    3f1a:	01 3b       	subw	r0,r1
    3f1c:	10 5b       	movw	r1,r0

00003f1e <.L123>:
    3f1e:	8f 9f 3c 00 	loadw	0x3c:m(sp),r8
    3f22:	08 33       	addw	r0,r8
    3f24:	8f df 3c 00 	storw	r8,0x3c:m(sp)
    3f28:	09 33       	addw	r0,r9
    3f2a:	8f 9f 38 00 	loadw	0x38:m(sp),r8
    3f2e:	08 33       	addw	r0,r8
    3f30:	8f df 38 00 	storw	r8,0x38:m(sp)

00003f34 <.L125>:
    3f34:	8f 9f 3c 00 	loadw	0x3c:m(sp),r8
    3f38:	08 52       	cmpw	$0x0:s,r8
    3f3a:	d9 10       	bge	*+0x3f4c <.L126>:s
    3f3c:	86 5b       	movw	r8,r6
    3f3e:	4f af 30 00 	loadd	0x30:m(sp),(r5,r4)
    3f42:	d2 55       	movd	(r13),(r3,r2)
    3f44:	00 c0 8c 22 	bal	(ra),*+0x61d0 <___lshift>:m

00003f48 <.LVL309>:
    3f48:	0f ef 30 00 	stord	(r1,r0),0x30:m(sp)

00003f4c <.L126>:
    3f4c:	8f 9f 38 00 	loadw	0x38:m(sp),r8
    3f50:	08 52       	cmpw	$0x0:s,r8
    3f52:	d7 10       	bge	*+0x3f60 <.L127>:s
    3f54:	86 5b       	movw	r8,r6
    3f56:	a4 55       	movd	(r11,r10),(r5,r4)
    3f58:	d2 55       	movd	(r13),(r3,r2)
    3f5a:	00 c0 76 22 	bal	(ra),*+0x61d0 <___lshift>:m

00003f5e <.LVL312>:
    3f5e:	0a 55       	movd	(r1,r0),(r11,r10)

00003f60 <.L127>:
    3f60:	8f 9f 3e 00 	loadw	0x3e:m(sp),r8
    3f64:	08 52       	cmpw	$0x0:s,r8
    3f66:	10 18 ee 04 	bne	*+0x4454 <.L347>:m

00003f6a <.L128>:
    3f6a:	8f 9f 1c 00 	loadw	0x1c:m(sp),r8
    3f6e:	28 52       	cmpw	$0x2:s,r8
    3f70:	c0 08       	slt	r0
    3f72:	00 52       	cmpw	$0x0:s,r0
    3f74:	00 18 50 02 	beq	*+0x41c4 <.L133>:m
    3f78:	8f 9f 40 00 	loadw	0x40:m(sp),r8
    3f7c:	08 52       	cmpw	$0x0:s,r8
    3f7e:	d0 08       	sge	r0
    3f80:	00 52       	cmpw	$0x0:s,r0
    3f82:	00 18 42 02 	beq	*+0x41c4 <.L133>:m

00003f86 <.L130>:
    3f86:	8f 9f 40 00 	loadw	0x40:m(sp),r8
    3f8a:	08 52       	cmpw	$0x0:s,r8
    3f8c:	10 18 26 02 	bne	*+0x41b2 <.L82>:m
    3f90:	bf 60 fe ff 	addd	$0xfffe:m,(sp)
    3f94:	08 01       	push	$0x1,r8
    3f96:	56 5a       	movw	$0x5:s,r6
    3f98:	a4 55       	movd	(r11,r10),(r5,r4)
    3f9a:	d2 55       	movd	(r13),(r3,r2)
    3f9c:	00 c0 f4 1c 	bal	(ra),*+0x5c90 <___multadd>:m

00003fa0 <.LVL316>:
    3fa0:	0a 55       	movd	(r1,r0),(r11,r10)
    3fa2:	04 55       	movd	(r1,r0),(r5,r4)
    3fa4:	2f af 34 00 	loadd	0x34:m(sp),(r3,r2)
    3fa8:	00 c0 08 23 	bal	(ra),*+0x62b0 <___mcmp>:m

00003fac <.LVL318>:
    3fac:	4f 60       	addd	$0x4:s,(sp)
    3fae:	00 52       	cmpw	$0x0:s,r0
    3fb0:	d0 18 02 02 	bge	*+0x41b2 <.L82>:m

00003fb4 <.L81>:
    3fb4:	b0 58 31 00 	movb	$0x31:m,r0
    3fb8:	7f a2       	loadd	0x4:s(sp),(r8,r7)
    3fba:	07 f0       	storb	r0,0x0:s(r8,r7)
    3fbc:	7c 55       	movd	(r8,r7),(r12)
    3fbe:	1c 60       	addd	$0x1:s,(r12)
    3fc0:	8f 9f 2c 00 	loadw	0x2c:m(sp),r8
    3fc4:	18 32       	addw	$0x1:s,r8
    3fc6:	8f df 2c 00 	storw	r8,0x2c:m(sp)
    3fca:	08 54       	movd	$0x0:s,(r9,r8)

00003fcc <.L134>:
    3fcc:	a4 55       	movd	(r11,r10),(r5,r4)
    3fce:	d2 55       	movd	(r13),(r3,r2)
    3fd0:	00 c0 a4 1c 	bal	(ra),*+0x5c74 <__Bfree>:m

00003fd4 <.LVL323>:
    3fd4:	af af 28 00 	loadd	0x28:m(sp),(r11,r10)
    3fd8:	0a 56       	cmpd	$0x0:s,(r11,r10)
    3fda:	0b 10       	beq	*+0x3ff0 <.L84>:s
    3fdc:	a8 57       	cmpd	(r11,r10),(r9,r8)
    3fde:	10 08       	sne	r0
    3fe0:	00 52       	cmpw	$0x0:s,r0
    3fe2:	10 18 8c 02 	bne	*+0x426e <.L348>:m

00003fe6 <.L159>:
    3fe6:	4f af 28 00 	loadd	0x28:m(sp),(r5,r4)
    3fea:	d2 55       	movd	(r13),(r3,r2)
    3fec:	00 c0 88 1c 	bal	(ra),*+0x5c74 <__Bfree>:m

00003ff0 <.L84>:
    3ff0:	4f af 30 00 	loadd	0x30:m(sp),(r5,r4)
    3ff4:	d2 55       	movd	(r13),(r3,r2)
    3ff6:	00 c0 7e 1c 	bal	(ra),*+0x5c74 <__Bfree>:m

00003ffa <.LVL326>:
    3ffa:	0c 82       	storb	$0x0:s,0x0:s(r12)
    3ffc:	0f 9f 2c 00 	loadw	0x2c:m(sp),r0
    4000:	10 32       	addw	$0x1:s,r0
    4002:	8f af 34 00 	loadd	0x34:m(sp),(r9,r8)
    4006:	08 d0       	storw	r0,0x0:s(r9,r8)
    4008:	9f af 24 00 	loadd	0x24:m(sp),(r10,r9)
    400c:	09 56       	cmpd	$0x0:s,(r10,r9)
    400e:	00 18 73 f6 	beq	*-0x3680 <.L243>:m
    4012:	c9 e0       	stord	(r12),0x0:s(r10,r9)
    4014:	0f 92       	loadw	0x4:s(sp),r0
    4016:	1f 93       	loadw	0x6:s(sp),r1
    4018:	bf 60 68 00 	addd	$0x68:m,(sp)
    401c:	67 02       	pop	$0x7,r7
    401e:	9d 03       	popret	$0x2,r13,RA

00004020 <.L53>:
    4020:	7f 9f 3c 00 	loadw	0x3c:m(sp),r7
    4024:	8f 9f 2c 00 	loadw	0x2c:m(sp),r8
    4028:	87 3b       	subw	r8,r7
    402a:	7f df 3c 00 	storw	r7,0x3c:m(sp)
    402e:	00 5a       	movw	$0x0:s,r0
    4030:	09 5b       	movw	r0,r9
    4032:	89 3b       	subw	r8,r9
    4034:	9f df 46 00 	storw	r9,0x46:m(sp)
    4038:	0f df 48 00 	storw	r0,0x48:m(sp)
    403c:	e0 18 2d f8 	br	*-0x3868 <.L54>:m

00004040 <.L336>:
    4040:	01 5a       	movw	$0x0:s,r1
    4042:	19 5b       	movw	r1,r9
    4044:	09 3b       	subw	r0,r9
    4046:	9f df 3c 00 	storw	r9,0x3c:m(sp)
    404a:	1f df 38 00 	storw	r1,0x38:m(sp)
    404e:	e0 18 ff f7 	br	*-0x384c <.L52>:m

00004052 <.L335>:
    4052:	7f 9f 2c 00 	loadw	0x2c:m(sp),r7
    4056:	72 5e       	movxw	r7,(r3,r2)
    4058:	00 c0 e0 54 	bal	(ra),*+0x9538 <___floatsidf>:m
    405c:	38 01       	push	$0x4,r8
    405e:	30 01       	push	$0x4,r0
    4060:	00 c0 08 53 	bal	(ra),*+0x9368 <___nedf2>:m
    4064:	bf 60 10 00 	addd	$0x10:m,(sp)
    4068:	00 52       	cmpw	$0x0:s,r0
    406a:	10 08       	sne	r0
    406c:	07 3b       	subw	r0,r7
    406e:	7f df 2c 00 	storw	r7,0x2c:m(sp)
    4072:	e0 18 85 f7 	br	*-0x37f6 <.L47>:m

00004076 <.L45>:
    4076:	b0 5a ee fb 	movw	$0xfbee:m,r0
    407a:	7f 92       	loadw	0x4:s(sp),r7
    407c:	70 3b       	subw	r7,r0
    407e:	2f aa       	loadd	0x14:s(sp),(r3,r2)
    4080:	02 48       	ashud	r0,(r3,r2)
    4082:	e0 18 c3 f6 	br	*-0x3744 <.L46>:m

00004086 <.L315>:
    4086:	0f c3 3e 00 	storw	$0x0:s,0x3e:m(sp)
    408a:	e0 18 ad f7 	br	*-0x3836 <.L50>:m

0000408e <.L344>:
    408e:	8f 9f 1c 00 	loadw	0x1c:m(sp),r8
    4092:	18 52       	cmpw	$0x1:s,r8
    4094:	d0 18 bc 07 	bge	*+0x4850 <.L349>:m
    4098:	0f 9f 40 00 	loadw	0x40:m(sp),r0
    409c:	90 32       	addw	$-1:s,r0
    409e:	af 9f 46 00 	loadw	0x46:m(sp),r10
    40a2:	0a 53       	cmpw	r0,r10
    40a4:	60 18 be 06 	bgt	*+0x4762 <.L113>:m
    40a8:	0a 3b       	subw	r0,r10

000040aa <.L114>:
    40aa:	8f 9f 40 00 	loadw	0x40:m(sp),r8
    40ae:	9f 9f 3c 00 	loadw	0x3c:m(sp),r9
    40b2:	08 52       	cmpw	$0x0:s,r8
    40b4:	60 18 ba 07 	bgt	*+0x486e <.L350>:m
    40b8:	0f 9f 40 00 	loadw	0x40:m(sp),r0

000040bc <.L112>:
    40bc:	bf 9f 3c 00 	loadw	0x3c:m(sp),r11
    40c0:	0b 33       	addw	r0,r11
    40c2:	bf df 3c 00 	storw	r11,0x3c:m(sp)
    40c6:	7f 9f 38 00 	loadw	0x38:m(sp),r7
    40ca:	07 33       	addw	r0,r7
    40cc:	7f df 38 00 	storw	r7,0x38:m(sp)
    40d0:	14 5a       	movw	$0x1:s,r4
    40d2:	d2 55       	movd	(r13),(r3,r2)
    40d4:	00 c0 4c 1e 	bal	(ra),*+0x5f20 <___i2b>:m

000040d8 <.LVL345>:
    40d8:	0f ef 28 00 	stord	(r1,r0),0x28:m(sp)
    40dc:	e0 18 5d fd 	br	*-0x3e38 <.L109>:m

000040e0 <.L176>:
    40e0:	2f aa       	loadd	0x14:s(sp),(r3,r2)
    40e2:	4f ac       	loadd	0x18:s(sp),(r5,r4)
    40e4:	2f ef 4c 00 	stord	(r3,r2),0x4c:m(sp)
    40e8:	4f ef 50 00 	stord	(r5,r4),0x50:m(sp)
    40ec:	2f c3 28 00 	storw	$0x2:s,0x28:m(sp)
    40f0:	e0 18 b1 f8 	br	*-0x39a0 <.L69>:m

000040f4 <.L337>:
    40f4:	2b 52       	cmpw	$0x2:s,r11
    40f6:	10 18 13 f8 	bne	*-0x3908 <.L55>:m
    40fa:	0f c3 4a 00 	storw	$0x0:s,0x4a:m(sp)

000040fe <.L57>:
    40fe:	8f 9f 2e 00 	loadw	0x2e:m(sp),r8
    4102:	08 52       	cmpw	$0x0:s,r8
    4104:	d0 18 20 06 	bge	*+0x4724 <.L174>:m
    4108:	82 5e       	movxw	r8,(r3,r2)
    410a:	e8 52       	cmpw	$0xe:s,r8
    410c:	b7 08       	shs	r7
    410e:	07 21       	andb	r0,r7
    4110:	8f df 44 00 	storw	r8,0x44:m(sp)
    4114:	8f df 40 00 	storw	r8,0x40:m(sp)

00004118 <.L63>:
    4118:	0d c3 40 00 	storw	$0x0:s,0x40:m(r13)
    411c:	04 5a       	movw	$0x0:s,r4
    411e:	f2 56       	cmpd	$0xf:s,(r3,r2)
    4120:	a0 18 01 f8 	blo	*-0x3920 <.L163>:m
    4124:	e0 18 13 f8 	br	*-0x3936 <.L65>:m

00004128 <.L78>:
    4128:	7f 9f 28 00 	loadw	0x28:m(sp),r7
    412c:	72 5e       	movxw	r7,(r3,r2)
    412e:	00 c0 0a 54 	bal	(ra),*+0x9538 <___floatsidf>:m
    4132:	38 01       	push	$0x4,r8
    4134:	30 01       	push	$0x4,r0
    4136:	00 c0 5a 4b 	bal	(ra),*+0x8c90 <___muldf3>:m
    413a:	bf 60 10 00 	addd	$0x10:m,(sp)
    413e:	04 54       	movd	$0x0:s,(r5,r4)
    4140:	76 00 1c 40 	movd	$0x401c0000:l,(r7,r6)
    4144:	00 00 
    4146:	34 01       	push	$0x4,r4
    4148:	30 01       	push	$0x4,r0
    414a:	00 c0 62 4a 	bal	(ra),*+0x8bac <___adddf3>:m
    414e:	bf 60 10 00 	addd	$0x10:m,(sp)
    4152:	0f e6       	stord	(r1,r0),0xc:s(sp)
    4154:	2f e8       	stord	(r3,r2),0x10:s(sp)
    4156:	0f a8       	loadd	0x10:s(sp),(r1,r0)
    4158:	20 00 c0 fc 	addd	$0xfcc00000:l,(r1,r0)
    415c:	00 00 
    415e:	0f e8       	stord	(r1,r0),0x10:s(sp)

00004160 <.L160>:
    4160:	00 54       	movd	$0x0:s,(r1,r0)
    4162:	72 00 14 40 	movd	$0x40140000:l,(r3,r2)
    4166:	00 00 
    4168:	30 01       	push	$0x4,r0
    416a:	38 01       	push	$0x4,r8
    416c:	00 c0 b0 4a 	bal	(ra),*+0x8c1c <___subdf3>:m
    4170:	bf 60 10 00 	addd	$0x10:m,(sp)
    4174:	08 55       	movd	(r1,r0),(r9,r8)
    4176:	2a 55       	movd	(r3,r2),(r11,r10)
    4178:	0f a6       	loadd	0xc:s(sp),(r1,r0)
    417a:	2f a8       	loadd	0x10:s(sp),(r3,r2)
    417c:	30 01       	push	$0x4,r0
    417e:	38 01       	push	$0x4,r8
    4180:	00 c0 5c 52 	bal	(ra),*+0x93dc <___gtdf2>:m
    4184:	bf 60 10 00 	addd	$0x10:m,(sp)
    4188:	00 52       	cmpw	$0x0:s,r0
    418a:	c0 18 9e 01 	blt	*+0x4328 <.L180>:m
    418e:	0f 96       	loadw	0xc:s(sp),r0
    4190:	1f 97       	loadw	0xe:s(sp),r1
    4192:	2f 98       	loadw	0x10:s(sp),r2
    4194:	3f 99       	loadw	0x12:s(sp),r3
    4196:	b3 32 00 80 	addw	$0x8000:m,r3
    419a:	30 01       	push	$0x4,r0
    419c:	38 01       	push	$0x4,r8
    419e:	00 c0 26 53 	bal	(ra),*+0x94c4 <___ltdf2>:m
    41a2:	bf 60 10 00 	addd	$0x10:m,(sp)
    41a6:	00 52       	cmpw	$0x0:s,r0
    41a8:	70 18 61 fa 	ble	*-0x3c08 <.L67>:m

000041ac <.L185>:
    41ac:	0a 54       	movd	$0x0:s,(r11,r10)
    41ae:	af ef 28 00 	stord	(r11,r10),0x28:m(sp)

000041b2 <.L82>:
    41b2:	9f 9f 2e 00 	loadw	0x2e:m(sp),r9
    41b6:	99 2a       	xorw	$-1:s,r9
    41b8:	9f df 2c 00 	storw	r9,0x2c:m(sp)
    41bc:	cf a2       	loadd	0x4:s(sp),(r12)
    41be:	08 54       	movd	$0x0:s,(r9,r8)
    41c0:	e0 18 0d fe 	br	*-0x3fcc <.L134>:m

000041c4 <.L133>:
    41c4:	8f 9f 4a 00 	loadw	0x4a:m(sp),r8
    41c8:	08 52       	cmpw	$0x0:s,r8
    41ca:	10 18 aa 03 	bne	*+0x4574 <.L132>:m

000041ce <.L162>:
    41ce:	cf a2       	loadd	0x4:s(sp),(r12)
    41d0:	08 5a       	movw	$0x0:s,r8
    41d2:	9f 9f 40 00 	loadw	0x40:m(sp),r9
    41d6:	8f da       	storw	r8,0x14:s(sp)
    41d8:	d7 55       	movd	(r13),(r8,r7)
    41da:	ad 55       	movd	(r11,r10),(r13)
    41dc:	ca 55       	movd	(r12),(r11,r10)
    41de:	cf af 30 00 	loadd	0x30:m(sp),(r12)
    41e2:	ec 10       	br	*+0x41fa <.L135>:s

000041e4 <.L351>:
    41e4:	bf 60 fe ff 	addd	$0xfffe:m,(sp)
    41e8:	3f 9b       	loadw	0x16:s(sp),r3
    41ea:	03 01       	push	$0x1,r3
    41ec:	a6 5a       	movw	$0xa:s,r6
    41ee:	c4 55       	movd	(r12),(r5,r4)
    41f0:	72 55       	movd	(r8,r7),(r3,r2)
    41f2:	00 c0 9e 1a 	bal	(ra),*+0x5c90 <___multadd>:m

000041f6 <.LVL372>:
    41f6:	0c 55       	movd	(r1,r0),(r12)
    41f8:	4f 60       	addd	$0x4:s,(sp)

000041fa <.L135>:
    41fa:	d4 55       	movd	(r13),(r5,r4)
    41fc:	c2 55       	movd	(r12),(r3,r2)
    41fe:	ff c0 23 f2 	bal	(ra),*-0x3420 <_quorem>:m

00004202 <.LVL375>:
    4202:	b0 32 30 00 	addw	$0x30:m,r0
    4206:	0a f0       	storb	r0,0x0:s(r11,r10)
    4208:	1a 60       	addd	$0x1:s,(r11,r10)
    420a:	a1 5b       	movw	r10,r1
    420c:	2f 92       	loadw	0x4:s(sp),r2
    420e:	21 3b       	subw	r2,r1
    4210:	91 53       	cmpw	r9,r1
    4212:	69 1e       	bgt	*-0x41e4 <.L351>:s
    4214:	cf ef 30 00 	stord	(r12),0x30:m(sp)
    4218:	ac 55       	movd	(r11,r10),(r12)
    421a:	da 55       	movd	(r13),(r11,r10)
    421c:	7d 55       	movd	(r8,r7),(r13)
    421e:	07 5b       	movw	r0,r7
    4220:	08 54       	movd	$0x0:s,(r9,r8)

00004222 <.L149>:
    4222:	16 5a       	movw	$0x1:s,r6
    4224:	4f af 30 00 	loadd	0x30:m(sp),(r5,r4)
    4228:	d2 55       	movd	(r13),(r3,r2)
    422a:	00 c0 a6 1f 	bal	(ra),*+0x61d0 <___lshift>:m

0000422e <.LVL382>:
    422e:	0f ef 30 00 	stord	(r1,r0),0x30:m(sp)
    4232:	a4 55       	movd	(r11,r10),(r5,r4)
    4234:	02 55       	movd	(r1,r0),(r3,r2)
    4236:	00 c0 7a 20 	bal	(ra),*+0x62b0 <___mcmp>:m

0000423a <.LVL384>:
    423a:	00 52       	cmpw	$0x0:s,r0
    423c:	d0 18 5c 06 	bge	*+0x4898 <.L352>:m

00004240 <.L153>:
    4240:	c0 55       	movd	(r12),(r1,r0)
    4242:	90 60       	addd	$-1:s,(r1,r0)
    4244:	40 b0       	loadb	0x0:s(r1,r0),r4

00004246 <.L148>:
    4246:	c2 55       	movd	(r12),(r3,r2)
    4248:	b2 60 fe ff 	addd	$0xfffe:m,(r3,r2)
    424c:	6f a2       	loadd	0x4:s(sp),(r7,r6)

0000424e <.L156>:
    424e:	b4 50 39 00 	cmpb	$0x39:m,r4
    4252:	10 18 9e 06 	bne	*+0x48f0 <.L353>:m
    4256:	92 60       	addd	$-1:s,(r3,r2)
    4258:	06 57       	cmpd	(r1,r0),(r7,r6)
    425a:	00 18 f2 04 	beq	*+0x474c <.L155>:m
    425e:	42 b1       	loadb	0x1:s(r3,r2),r4
    4260:	0c 55       	movd	(r1,r0),(r12)
    4262:	90 60       	addd	$-1:s,(r1,r0)
    4264:	e5 1f       	br	*-0x424e <.L156>:s

00004266 <.L194>:
    4266:	b0 5a 1c 00 	movw	$0x1c:m,r0
    426a:	e0 18 b5 fc 	br	*-0x3f1e <.L123>:m

0000426e <.L348>:
    426e:	80 5b       	movw	r8,r0
    4270:	90 27       	orw	r9,r0
    4272:	00 52       	cmpw	$0x0:s,r0
    4274:	10 08       	sne	r0
    4276:	00 52       	cmpw	$0x0:s,r0
    4278:	00 18 6f fd 	beq	*-0x3fe6 <.L159>:m
    427c:	84 55       	movd	(r9,r8),(r5,r4)
    427e:	d2 55       	movd	(r13),(r3,r2)
    4280:	00 c0 f4 19 	bal	(ra),*+0x5c74 <__Bfree>:m

00004284 <.LVL393>:
    4284:	e0 18 63 fd 	br	*-0x3fe6 <.L159>:m

00004288 <.L118>:
    4288:	6f 9f 46 00 	loadw	0x46:m(sp),r6

0000428c <.L330>:
    428c:	4f af 30 00 	loadd	0x30:m(sp),(r5,r4)
    4290:	d2 55       	movd	(r13),(r3,r2)
    4292:	00 c0 7e 1e 	bal	(ra),*+0x6110 <___pow5mult>:m

00004296 <.LVL396>:
    4296:	0f ef 30 00 	stord	(r1,r0),0x30:m(sp)
    429a:	e0 18 2b fc 	br	*-0x3ec4 <.L117>:m

0000429e <.L68>:
    429e:	0c 5a       	movw	$0x0:s,r12
    42a0:	c7 5b       	movw	r12,r7
    42a2:	8f 9f 2c 00 	loadw	0x2c:m(sp),r8
    42a6:	87 3b       	subw	r8,r7
    42a8:	c7 53       	cmpw	r12,r7
    42aa:	00 18 50 05 	beq	*+0x47fa <.L177>:m
    42ae:	72 5b       	movw	r7,r2
    42b0:	f2 22       	andw	$0xf:s,r2
    42b2:	22 5e       	movxw	r2,(r3,r2)
    42b4:	00 05 e8 a0 	movd	$0xa0e8:m,(r1,r0)
    42b8:	32 4c       	ashud	$3:s,(r3,r2)
    42ba:	20 61       	addd	(r3,r2),(r1,r0)
    42bc:	20 a2       	loadd	0x4:s(r1,r0),(r3,r2)
    42be:	00 a0       	loadd	0x0:s(r1,r0),(r1,r0)
    42c0:	30 01       	push	$0x4,r0
    42c2:	0f af 1c 00 	loadd	0x1c:m(sp),(r1,r0)
    42c6:	2f af 20 00 	loadd	0x20:m(sp),(r3,r2)
    42ca:	30 01       	push	$0x4,r0
    42cc:	00 c0 c4 49 	bal	(ra),*+0x8c90 <___muldf3>:m
    42d0:	bf 60 10 00 	addd	$0x10:m,(sp)
    42d4:	08 55       	movd	(r1,r0),(r9,r8)
    42d6:	2a 55       	movd	(r3,r2),(r11,r10)
    42d8:	c7 43       	ashuw	$-4:s,r7
    42da:	2f c3 28 00 	storw	$0x2:s,0x28:m(sp)
    42de:	c7 53       	cmpw	r12,r7
    42e0:	00 18 23 f7 	beq	*-0x3a02 <.L73>:m
    42e4:	cf d6       	storw	r12,0xc:s(sp)
    42e6:	c0 05 c0 a0 	movd	$0xa0c0:m,(r12)

000042ea <.L75>:
    42ea:	74 5b       	movw	r7,r4
    42ec:	14 22       	andw	$0x1:s,r4
    42ee:	04 52       	cmpw	$0x0:s,r4
    42f0:	02 11       	beq	*+0x4314 <.L74>:s
    42f2:	8f 9f 28 00 	loadw	0x28:m(sp),r8
    42f6:	18 32       	addw	$0x1:s,r8
    42f8:	8f df 28 00 	storw	r8,0x28:m(sp)
    42fc:	9f 96       	loadw	0xc:s(sp),r9
    42fe:	94 5e       	movxw	r9,(r5,r4)
    4300:	34 4c       	ashud	$3:s,(r5,r4)
    4302:	c4 61       	addd	(r12),(r5,r4)
    4304:	84 a0       	loadd	0x0:s(r5,r4),(r9,r8)
    4306:	a4 a2       	loadd	0x4:s(r5,r4),(r11,r10)
    4308:	38 01       	push	$0x4,r8
    430a:	30 01       	push	$0x4,r0
    430c:	00 c0 84 49 	bal	(ra),*+0x8c90 <___muldf3>:m
    4310:	bf 60 10 00 	addd	$0x10:m,(sp)

00004314 <.L74>:
    4314:	f7 43       	ashuw	$-1:s,r7
    4316:	af 96       	loadw	0xc:s(sp),r10
    4318:	1a 32       	addw	$0x1:s,r10
    431a:	af d6       	storw	r10,0xc:s(sp)
    431c:	07 52       	cmpw	$0x0:s,r7
    431e:	16 1e       	bne	*-0x42ea <.L75>:s
    4320:	08 55       	movd	(r1,r0),(r9,r8)
    4322:	2a 55       	movd	(r3,r2),(r11,r10)
    4324:	e0 18 df f6 	br	*-0x3a02 <.L73>:m

00004328 <.L180>:
    4328:	0a 54       	movd	$0x0:s,(r11,r10)
    432a:	af ef 28 00 	stord	(r11,r10),0x28:m(sp)
    432e:	e0 18 87 fc 	br	*-0x3fb4 <.L81>:m

00004332 <.L83>:
    4332:	4f a6       	loadd	0xc:s(sp),(r5,r4)
    4334:	6f a8       	loadd	0x10:s(sp),(r7,r6)
    4336:	34 01       	push	$0x4,r4
    4338:	30 01       	push	$0x4,r0
    433a:	00 c0 56 49 	bal	(ra),*+0x8c90 <___muldf3>:m
    433e:	bf 60 10 00 	addd	$0x10:m,(sp)
    4342:	0f ef 5c 00 	stord	(r1,r0),0x5c:m(sp)
    4346:	2f ef 60 00 	stord	(r3,r2),0x60:m(sp)
    434a:	38 01       	push	$0x4,r8
    434c:	00 c0 80 52 	bal	(ra),*+0x95cc <___fixdfsi>:m
    4350:	8f 60       	addd	$0x8:s,(sp)
    4352:	07 5b       	movw	r0,r7
    4354:	02 5b       	movw	r0,r2
    4356:	13 5b       	movw	r1,r3
    4358:	00 c0 e0 51 	bal	(ra),*+0x9538 <___floatsidf>:m
    435c:	30 01       	push	$0x4,r0
    435e:	38 01       	push	$0x4,r8
    4360:	00 c0 bc 48 	bal	(ra),*+0x8c1c <___subdf3>:m
    4364:	bf 60 10 00 	addd	$0x10:m,(sp)
    4368:	08 55       	movd	(r1,r0),(r9,r8)
    436a:	2a 55       	movd	(r3,r2),(r11,r10)
    436c:	b0 58 30 00 	movb	$0x30:m,r0
    4370:	07 31       	addb	r0,r7
    4372:	5f a2       	loadd	0x4:s(sp),(r6,r5)
    4374:	75 f0       	storb	r7,0x0:s(r6,r5)
    4376:	5c 55       	movd	(r6,r5),(r12)
    4378:	1c 60       	addd	$0x1:s,(r12)
    437a:	7f 9f 28 00 	loadw	0x28:m(sp),r7
    437e:	17 52       	cmpw	$0x1:s,r7
    4380:	0f 13       	beq	*+0x43fe <.L94>:s
    4382:	1f 9f 28 00 	loadw	0x28:m(sp),r1
    4386:	b1 32 fe ff 	addw	$0xfffe:m,r1
    438a:	12 5f       	movzw	r1,(r3,r2)
    438c:	2f ef 58 00 	stord	(r3,r2),0x58:m(sp)
    4390:	22 60       	addd	$0x2:s,(r3,r2)
    4392:	4f a2       	loadd	0x4:s(sp),(r5,r4)
    4394:	24 61       	addd	(r3,r2),(r5,r4)
    4396:	4f ef 28 00 	stord	(r5,r4),0x28:m(sp)
    439a:	cf e6       	stord	(r12),0xc:s(sp)
    439c:	cf ef 64 00 	stord	(r12),0x64:m(sp)
    43a0:	80 55       	movd	(r9,r8),(r1,r0)
    43a2:	a2 55       	movd	(r11,r10),(r3,r2)
    43a4:	4c 55       	movd	(r5,r4),(r12)

000043a6 <.L93>:
    43a6:	06 54       	movd	$0x0:s,(r7,r6)
    43a8:	78 00 24 40 	movd	$0x40240000:l,(r9,r8)
    43ac:	00 00 
    43ae:	36 01       	push	$0x4,r6
    43b0:	30 01       	push	$0x4,r0
    43b2:	00 c0 de 48 	bal	(ra),*+0x8c90 <___muldf3>:m
    43b6:	bf 60 10 00 	addd	$0x10:m,(sp)
    43ba:	08 55       	movd	(r1,r0),(r9,r8)
    43bc:	2a 55       	movd	(r3,r2),(r11,r10)
    43be:	30 01       	push	$0x4,r0
    43c0:	00 c0 0c 52 	bal	(ra),*+0x95cc <___fixdfsi>:m
    43c4:	8f 60       	addd	$0x8:s,(sp)
    43c6:	07 5b       	movw	r0,r7
    43c8:	02 5b       	movw	r0,r2
    43ca:	13 5b       	movw	r1,r3
    43cc:	00 c0 6c 51 	bal	(ra),*+0x9538 <___floatsidf>:m
    43d0:	30 01       	push	$0x4,r0
    43d2:	38 01       	push	$0x4,r8
    43d4:	00 c0 48 48 	bal	(ra),*+0x8c1c <___subdf3>:m
    43d8:	bf 60 10 00 	addd	$0x10:m,(sp)
    43dc:	b8 58 30 00 	movb	$0x30:m,r8
    43e0:	87 31       	addb	r8,r7
    43e2:	9f a6       	loadd	0xc:s(sp),(r10,r9)
    43e4:	79 f0       	storb	r7,0x0:s(r10,r9)
    43e6:	19 60       	addd	$0x1:s,(r10,r9)
    43e8:	9f e6       	stord	(r10,r9),0xc:s(sp)
    43ea:	c9 57       	cmpd	(r12),(r10,r9)
    43ec:	1d 1d       	bne	*-0x43a6 <.L93>:s
    43ee:	cf af 64 00 	loadd	0x64:m(sp),(r12)
    43f2:	08 55       	movd	(r1,r0),(r9,r8)
    43f4:	2a 55       	movd	(r3,r2),(r11,r10)
    43f6:	0f af 58 00 	loadd	0x58:m(sp),(r1,r0)
    43fa:	10 60       	addd	$0x1:s,(r1,r0)
    43fc:	0c 61       	addd	(r1,r0),(r12)

000043fe <.L94>:
    43fe:	00 54       	movd	$0x0:s,(r1,r0)
    4400:	72 00 e0 3f 	movd	$0x3fe00000:l,(r3,r2)
    4404:	00 00 
    4406:	30 01       	push	$0x4,r0
    4408:	2f af 64 00 	loadd	0x64:m(sp),(r3,r2)
    440c:	4f af 68 00 	loadd	0x68:m(sp),(r5,r4)
    4410:	32 01       	push	$0x4,r2
    4412:	00 c0 9a 47 	bal	(ra),*+0x8bac <___adddf3>:m
    4416:	bf 60 10 00 	addd	$0x10:m,(sp)
    441a:	38 01       	push	$0x4,r8
    441c:	30 01       	push	$0x4,r0
    441e:	00 c0 a6 50 	bal	(ra),*+0x94c4 <___ltdf2>:m
    4422:	bf 60 10 00 	addd	$0x10:m,(sp)
    4426:	00 52       	cmpw	$0x0:s,r0
    4428:	70 18 de 03 	ble	*+0x4806 <.L319>:m
    442c:	c0 55       	movd	(r12),(r1,r0)
    442e:	90 60       	addd	$-1:s,(r1,r0)
    4430:	70 b0       	loadb	0x0:s(r1,r0),r7
    4432:	e0 18 af f9 	br	*-0x3de0 <.L85>:m

00004436 <.L346>:
    4436:	0a 95       	loadw	0xa:s(r11,r10),r0
    4438:	90 32       	addw	$-1:s,r0
    443a:	00 5e       	movxw	r0,(r1,r0)
    443c:	30 60       	addd	$0x3:s,(r1,r0)
    443e:	20 4c       	ashud	$2:s,(r1,r0)
    4440:	a0 61       	addd	(r11,r10),(r1,r0)
    4442:	20 a0       	loadd	0x0:s(r1,r0),(r3,r2)
    4444:	00 c0 f4 19 	bal	(ra),*+0x5e38 <___hi0bits>:m

00004448 <.LVL448>:
    4448:	b1 5a 20 00 	movw	$0x20:m,r1
    444c:	01 3b       	subw	r0,r1
    444e:	10 5b       	movw	r1,r0
    4450:	e0 18 ab fa 	br	*-0x3efa <.L122>:m

00004454 <.L347>:
    4454:	a4 55       	movd	(r11,r10),(r5,r4)
    4456:	2f af 30 00 	loadd	0x30:m(sp),(r3,r2)
    445a:	00 c0 56 1e 	bal	(ra),*+0x62b0 <___mcmp>:m

0000445e <.LVL449>:
    445e:	00 52       	cmpw	$0x0:s,r0
    4460:	70 18 0b fb 	ble	*-0x3f6a <.L128>:m
    4464:	8f 9f 2c 00 	loadw	0x2c:m(sp),r8
    4468:	98 32       	addw	$-1:s,r8
    446a:	8f df 2c 00 	storw	r8,0x2c:m(sp)
    446e:	bf 60 fe ff 	addd	$0xfffe:m,(sp)
    4472:	08 5a       	movw	$0x0:s,r8
    4474:	08 01       	push	$0x1,r8
    4476:	a6 5a       	movw	$0xa:s,r6
    4478:	4f af 34 00 	loadd	0x34:m(sp),(r5,r4)
    447c:	d2 55       	movd	(r13),(r3,r2)
    447e:	00 c0 12 18 	bal	(ra),*+0x5c90 <___multadd>:m

00004482 <.LVL454>:
    4482:	0f ef 34 00 	stord	(r1,r0),0x34:m(sp)
    4486:	4f 60       	addd	$0x4:s,(sp)
    4488:	0f 9f 4a 00 	loadw	0x4a:m(sp),r0
    448c:	80 53       	cmpw	r8,r0
    448e:	16 15       	bne	*+0x453a <.L354>:s
    4490:	9f 9f 44 00 	loadw	0x44:m(sp),r9
    4494:	09 52       	cmpw	$0x0:s,r9
    4496:	d0 08       	sge	r0
    4498:	00 52       	cmpw	$0x0:s,r0
    449a:	08 10       	beq	*+0x44aa <.L213>:s
    449c:	7f 9f 1c 00 	loadw	0x1c:m(sp),r7
    44a0:	27 52       	cmpw	$0x2:s,r7
    44a2:	c0 08       	slt	r0
    44a4:	00 52       	cmpw	$0x0:s,r0
    44a6:	10 18 28 05 	bne	*+0x49ce <.L202>:m

000044aa <.L213>:
    44aa:	8f 9f 44 00 	loadw	0x44:m(sp),r8
    44ae:	8f df 40 00 	storw	r8,0x40:m(sp)
    44b2:	e0 18 1d fd 	br	*-0x41ce <.L162>:m

000044b6 <.L96>:
    44b6:	7f 9f 40 00 	loadw	0x40:m(sp),r7
    44ba:	07 52       	cmpw	$0x0:s,r7
    44bc:	10 18 f1 fc 	bne	*-0x41ac <.L185>:m
    44c0:	00 54       	movd	$0x0:s,(r1,r0)
    44c2:	72 00 14 40 	movd	$0x40140000:l,(r3,r2)
    44c6:	00 00 
    44c8:	30 01       	push	$0x4,r0
    44ca:	8f af 24 00 	loadd	0x24:m(sp),(r9,r8)
    44ce:	af af 28 00 	loadd	0x28:m(sp),(r11,r10)
    44d2:	38 01       	push	$0x4,r8
    44d4:	00 c0 bc 47 	bal	(ra),*+0x8c90 <___muldf3>:m
    44d8:	bf 60 10 00 	addd	$0x10:m,(sp)
    44dc:	4f aa       	loadd	0x14:s(sp),(r5,r4)
    44de:	6f ac       	loadd	0x18:s(sp),(r7,r6)
    44e0:	34 01       	push	$0x4,r4
    44e2:	30 01       	push	$0x4,r0
    44e4:	00 c0 6c 4f 	bal	(ra),*+0x9450 <___gedf2>:m
    44e8:	bf 60 10 00 	addd	$0x10:m,(sp)
    44ec:	0a 54       	movd	$0x0:s,(r11,r10)
    44ee:	af ef 28 00 	stord	(r11,r10),0x28:m(sp)
    44f2:	00 52       	cmpw	$0x0:s,r0
    44f4:	70 18 bf fc 	ble	*-0x41b2 <.L82>:m
    44f8:	e0 18 bd fa 	br	*-0x3fb4 <.L81>:m

000044fc <.L345>:
    44fc:	0f aa       	loadd	0x14:s(sp),(r1,r0)
    44fe:	00 56       	cmpd	$0x0:s,(r1,r0)
    4500:	10 18 ef f9 	bne	*-0x3eee <.L121>:m
    4504:	0f ac       	loadd	0x18:s(sp),(r1,r0)
    4506:	02 55       	movd	(r1,r0),(r3,r2)
    4508:	42 00 0f 00 	andd	$0xfffff:l,(r3,r2)
    450c:	ff ff 
    450e:	02 56       	cmpd	$0x0:s,(r3,r2)
    4510:	10 18 df f9 	bne	*-0x3eee <.L121>:m
    4514:	40 00 f0 7f 	andd	$0x7ff00000:l,(r1,r0)
    4518:	00 00 
    451a:	00 56       	cmpd	$0x0:s,(r1,r0)
    451c:	00 18 d3 f9 	beq	*-0x3eee <.L121>:m
    4520:	7f 9f 3c 00 	loadw	0x3c:m(sp),r7
    4524:	17 32       	addw	$0x1:s,r7
    4526:	7f df 3c 00 	storw	r7,0x3c:m(sp)
    452a:	8f 9f 38 00 	loadw	0x38:m(sp),r8
    452e:	18 32       	addw	$0x1:s,r8
    4530:	8f df 38 00 	storw	r8,0x38:m(sp)
    4534:	17 5a       	movw	$0x1:s,r7
    4536:	e0 18 b9 f9 	br	*-0x3eee <.L121>:m

0000453a <.L354>:
    453a:	bf 60 fe ff 	addd	$0xfffe:m,(sp)
    453e:	08 01       	push	$0x1,r8
    4540:	a6 5a       	movw	$0xa:s,r6
    4542:	4f af 2c 00 	loadd	0x2c:m(sp),(r5,r4)
    4546:	d2 55       	movd	(r13),(r3,r2)
    4548:	00 c0 48 17 	bal	(ra),*+0x5c90 <___multadd>:m

0000454c <.LVL478>:
    454c:	0f ef 2c 00 	stord	(r1,r0),0x2c:m(sp)
    4550:	4f 60       	addd	$0x4:s,(sp)
    4552:	8f 9f 44 00 	loadw	0x44:m(sp),r8
    4556:	08 52       	cmpw	$0x0:s,r8
    4558:	d0 08       	sge	r0
    455a:	00 52       	cmpw	$0x0:s,r0
    455c:	08 10       	beq	*+0x456c <.L212>:s
    455e:	8f 9f 1c 00 	loadw	0x1c:m(sp),r8
    4562:	28 52       	cmpw	$0x2:s,r8
    4564:	c0 08       	slt	r0
    4566:	00 52       	cmpw	$0x0:s,r0
    4568:	10 18 48 04 	bne	*+0x49b0 <.L195>:m

0000456c <.L212>:
    456c:	8f 9f 44 00 	loadw	0x44:m(sp),r8
    4570:	8f df 40 00 	storw	r8,0x40:m(sp)

00004574 <.L132>:
    4574:	09 52       	cmpw	$0x0:s,r9
    4576:	d9 10       	bge	*+0x4588 <.L136>:s
    4578:	96 5b       	movw	r9,r6
    457a:	4f af 28 00 	loadd	0x28:m(sp),(r5,r4)
    457e:	d2 55       	movd	(r13),(r3,r2)
    4580:	00 c0 50 1c 	bal	(ra),*+0x61d0 <___lshift>:m

00004584 <.LVL482>:
    4584:	0f ef 28 00 	stord	(r1,r0),0x28:m(sp)

00004588 <.L136>:
    4588:	8f af 28 00 	loadd	0x28:m(sp),(r9,r8)
    458c:	8f e6       	stord	(r9,r8),0xc:s(sp)
    458e:	07 52       	cmpw	$0x0:s,r7
    4590:	10 18 28 03 	bne	*+0x48b8 <.L355>:m

00004594 <.L137>:
    4594:	0f 9f 40 00 	loadw	0x40:m(sp),r0
    4598:	90 32       	addw	$-1:s,r0
    459a:	07 5f       	movzw	r0,(r8,r7)
    459c:	17 60       	addd	$0x1:s,(r8,r7)
    459e:	0f a2       	loadd	0x4:s(sp),(r1,r0)
    45a0:	70 61       	addd	(r8,r7),(r1,r0)
    45a2:	0f ef 40 00 	stord	(r1,r0),0x40:m(sp)
    45a6:	cf a2       	loadd	0x4:s(sp),(r12)
    45a8:	8f af 28 00 	loadd	0x28:m(sp),(r9,r8)
    45ac:	1f aa       	loadd	0x14:s(sp),(r2,r1)
    45ae:	41 00 00 00 	andd	$0x1:l,(r2,r1)
    45b2:	01 00 
    45b4:	1f ea       	stord	(r2,r1),0x14:s(sp)
    45b6:	af ef 38 00 	stord	(r11,r10),0x38:m(sp)
    45ba:	da 55       	movd	(r13),(r11,r10)
    45bc:	8d 55       	movd	(r9,r8),(r13)

000045be <.L323>:
    45be:	4f af 38 00 	loadd	0x38:m(sp),(r5,r4)
    45c2:	2f af 30 00 	loadd	0x30:m(sp),(r3,r2)
    45c6:	ff c0 5b ee 	bal	(ra),*-0x3420 <_quorem>:m

000045ca <.LVL488>:
    45ca:	0f df 28 00 	storw	r0,0x28:m(sp)
    45ce:	b0 32 30 00 	addw	$0x30:m,r0
    45d2:	0f df 3c 00 	storw	r0,0x3c:m(sp)
    45d6:	d4 55       	movd	(r13),(r5,r4)
    45d8:	2f af 30 00 	loadd	0x30:m(sp),(r3,r2)
    45dc:	00 c0 d4 1c 	bal	(ra),*+0x62b0 <___mcmp>:m

000045e0 <.LVL490>:
    45e0:	0f df 2e 00 	storw	r0,0x2e:m(sp)
    45e4:	7f a6       	loadd	0xc:s(sp),(r8,r7)
    45e6:	17 01       	push	$0x2,r7
    45e8:	4f af 3c 00 	loadd	0x3c:m(sp),(r5,r4)
    45ec:	a2 55       	movd	(r11,r10),(r3,r2)
    45ee:	00 c0 06 1d 	bal	(ra),*+0x62f4 <___mdiff>:m

000045f2 <.LVL493>:
    45f2:	08 55       	movd	(r1,r0),(r9,r8)
    45f4:	4f 60       	addd	$0x4:s,(sp)
    45f6:	00 94       	loadw	0x8:s(r1,r0),r0
    45f8:	17 5a       	movw	$0x1:s,r7
    45fa:	00 52       	cmpw	$0x0:s,r0
    45fc:	08 17       	beq	*+0x46ec <.L356>:s

000045fe <.L138>:
    45fe:	84 55       	movd	(r9,r8),(r5,r4)
    4600:	a2 55       	movd	(r11,r10),(r3,r2)
    4602:	00 c0 72 16 	bal	(ra),*+0x5c74 <__Bfree>:m

00004606 <.LVL498>:
    4606:	0f 9f 1c 00 	loadw	0x1c:m(sp),r0
    460a:	70 27       	orw	r7,r0
    460c:	00 52       	cmpw	$0x0:s,r0
    460e:	15 10       	bne	*+0x4618 <.L139>:s
    4610:	8f aa       	loadd	0x14:s(sp),(r9,r8)
    4612:	08 56       	cmpd	$0x0:s,(r9,r8)
    4614:	00 18 46 03 	beq	*+0x495a <.L357>:m

00004618 <.L139>:
    4618:	8f 9f 2e 00 	loadw	0x2e:m(sp),r8
    461c:	08 52       	cmpw	$0x0:s,r8
    461e:	69 13       	bgt	*+0x4690 <.L198>:s
    4620:	80 5b       	movw	r8,r0
    4622:	9f 9f 1c 00 	loadw	0x1c:m(sp),r9
    4626:	90 27       	orw	r9,r0
    4628:	00 52       	cmpw	$0x0:s,r0
    462a:	14 10       	bne	*+0x4632 <.L143>:s
    462c:	8f aa       	loadd	0x14:s(sp),(r9,r8)
    462e:	08 56       	cmpd	$0x0:s,(r9,r8)
    4630:	00 13       	beq	*+0x4690 <.L198>:s

00004632 <.L143>:
    4632:	07 52       	cmpw	$0x0:s,r7
    4634:	c0 18 d8 02 	blt	*+0x490c <.L358>:m
    4638:	7f bf 3c 00 	loadb	0x3c:m(sp),r7
    463c:	7c f0       	storb	r7,0x0:s(r12)
    463e:	1c 60       	addd	$0x1:s,(r12)
    4640:	8f af 40 00 	loadd	0x40:m(sp),(r9,r8)
    4644:	8c 57       	cmpd	(r9,r8),(r12)
    4646:	00 18 e8 02 	beq	*+0x492e <.L199>:m
    464a:	bf 60 fe ff 	addd	$0xfffe:m,(sp)
    464e:	09 5a       	movw	$0x0:s,r9
    4650:	09 01       	push	$0x1,r9
    4652:	a6 5a       	movw	$0xa:s,r6
    4654:	4f af 34 00 	loadd	0x34:m(sp),(r5,r4)
    4658:	a2 55       	movd	(r11,r10),(r3,r2)
    465a:	00 c0 36 16 	bal	(ra),*+0x5c90 <___multadd>:m

0000465e <.LVL504>:
    465e:	0f ef 34 00 	stord	(r1,r0),0x34:m(sp)
    4662:	4f 60       	addd	$0x4:s,(sp)
    4664:	7f a6       	loadd	0xc:s(sp),(r8,r7)
    4666:	7d 57       	cmpd	(r8,r7),(r13)
    4668:	09 14       	beq	*+0x46fa <.L359>:s
    466a:	bf 60 fe ff 	addd	$0xfffe:m,(sp)
    466e:	08 5a       	movw	$0x0:s,r8
    4670:	08 01       	push	$0x1,r8
    4672:	a6 5a       	movw	$0xa:s,r6
    4674:	d4 55       	movd	(r13),(r5,r4)
    4676:	a2 55       	movd	(r11,r10),(r3,r2)
    4678:	00 c0 18 16 	bal	(ra),*+0x5c90 <___multadd>:m

0000467c <.LVL509>:
    467c:	0d 55       	movd	(r1,r0),(r13)
    467e:	8f d0       	storw	r8,0x0:s(sp)
    4680:	a6 5a       	movw	$0xa:s,r6
    4682:	4f a8       	loadd	0x10:s(sp),(r5,r4)
    4684:	a2 55       	movd	(r11,r10),(r3,r2)
    4686:	00 c0 0a 16 	bal	(ra),*+0x5c90 <___multadd>:m

0000468a <.LVL511>:
    468a:	0f e8       	stord	(r1,r0),0x10:s(sp)
    468c:	4f 60       	addd	$0x4:s,(sp)
    468e:	e8 19       	br	*-0x45be <.L323>:s

00004690 <.L198>:
    4690:	d8 55       	movd	(r13),(r9,r8)
    4692:	7f da       	storw	r7,0x14:s(sp)
    4694:	7f 9f 3c 00 	loadw	0x3c:m(sp),r7
    4698:	ad 55       	movd	(r11,r10),(r13)
    469a:	af af 38 00 	loadd	0x38:m(sp),(r11,r10)
    469e:	7f df 1c 00 	storw	r7,0x1c:m(sp)
    46a2:	4f 9f 30 00 	loadw	0x30:m(sp),r4
    46a6:	5f 9f 32 00 	loadw	0x32:m(sp),r5
    46aa:	0f 9a       	loadw	0x14:s(sp),r0
    46ac:	00 52       	cmpw	$0x0:s,r0
    46ae:	d8 11       	bge	*+0x46de <.L144>:s
    46b0:	16 5a       	movw	$0x1:s,r6
    46b2:	d2 55       	movd	(r13),(r3,r2)
    46b4:	00 c0 1c 1b 	bal	(ra),*+0x61d0 <___lshift>:m

000046b8 <.LVL518>:
    46b8:	0f ef 30 00 	stord	(r1,r0),0x30:m(sp)
    46bc:	a4 55       	movd	(r11,r10),(r5,r4)
    46be:	02 55       	movd	(r1,r0),(r3,r2)
    46c0:	00 c0 f0 1b 	bal	(ra),*+0x62b0 <___mcmp>:m

000046c4 <.LVL520>:
    46c4:	00 52       	cmpw	$0x0:s,r0
    46c6:	d0 18 c4 02 	bge	*+0x498a <.L360>:m

000046ca <.L145>:
    46ca:	7f 9f 28 00 	loadw	0x28:m(sp),r7
    46ce:	b7 32 31 00 	addw	$0x31:m,r7
    46d2:	1f 9f 1c 00 	loadw	0x1c:m(sp),r1
    46d6:	b1 52 39 00 	cmpw	$0x39:m,r1
    46da:	00 18 6a 02 	beq	*+0x4944 <.L140>:m

000046de <.L144>:
    46de:	7c f0       	storb	r7,0x0:s(r12)
    46e0:	1c 60       	addd	$0x1:s,(r12)
    46e2:	2f a6       	loadd	0xc:s(sp),(r3,r2)
    46e4:	2f ef 28 00 	stord	(r3,r2),0x28:m(sp)
    46e8:	e0 18 e5 f8 	br	*-0x3fcc <.L134>:m

000046ec <.L356>:
    46ec:	84 55       	movd	(r9,r8),(r5,r4)
    46ee:	2f af 30 00 	loadd	0x30:m(sp),(r3,r2)
    46f2:	00 c0 be 1b 	bal	(ra),*+0x62b0 <___mcmp>:m

000046f6 <.LVL526>:
    46f6:	07 5b       	movw	r0,r7
    46f8:	e3 18       	br	*-0x45fe <.L138>:s

000046fa <.L359>:
    46fa:	bf 60 fe ff 	addd	$0xfffe:m,(sp)
    46fe:	09 01       	push	$0x1,r9
    4700:	a6 5a       	movw	$0xa:s,r6
    4702:	d4 55       	movd	(r13),(r5,r4)
    4704:	a2 55       	movd	(r11,r10),(r3,r2)
    4706:	00 c0 8a 15 	bal	(ra),*+0x5c90 <___multadd>:m

0000470a <.LVL530>:
    470a:	0f e8       	stord	(r1,r0),0x10:s(sp)
    470c:	4f 60       	addd	$0x4:s,(sp)
    470e:	df a6       	loadd	0xc:s(sp),(r13)
    4710:	e0 18 af fe 	br	*-0x45be <.L323>:m

00004714 <.L59>:
    4714:	1f c3 4a 00 	storw	$0x1:s,0x4a:m(sp)
    4718:	e0 18 e7 f9 	br	*-0x40fe <.L57>:m

0000471c <.L173>:
    471c:	0f c3 4a 00 	storw	$0x0:s,0x4a:m(sp)
    4720:	e0 18 85 f1 	br	*-0x38a4 <.L58>:m

00004724 <.L174>:
    4724:	17 58       	movb	$0x1:s,r7
    4726:	1f c3 44 00 	storw	$0x1:s,0x44:m(sp)
    472a:	8f 9f 44 00 	loadw	0x44:m(sp),r8
    472e:	8f df 40 00 	storw	r8,0x40:m(sp)
    4732:	8f df 2e 00 	storw	r8,0x2e:m(sp)

00004736 <.L62>:
    4736:	0d c3 40 00 	storw	$0x0:s,0x40:m(r13)
    473a:	07 21       	andb	r0,r7
    473c:	04 5a       	movw	$0x0:s,r4
    473e:	e0 18 f9 f1 	br	*-0x3936 <.L65>:m

00004742 <.L338>:
    4742:	e1 52       	cmpw	$0xe:s,r1
    4744:	b7 08       	shs	r7
    4746:	1f df 40 00 	storw	r1,0x40:m(sp)
    474a:	e6 1f       	br	*-0x4736 <.L62>:s

0000474c <.L155>:
    474c:	7f 9f 2c 00 	loadw	0x2c:m(sp),r7
    4750:	17 32       	addw	$0x1:s,r7
    4752:	7f df 2c 00 	storw	r7,0x2c:m(sp)
    4756:	b0 58 31 00 	movb	$0x31:m,r0
    475a:	1f a2       	loadd	0x4:s(sp),(r2,r1)
    475c:	01 f0       	storb	r0,0x0:s(r2,r1)
    475e:	e0 18 6f f8 	br	*-0x3fcc <.L134>:m

00004762 <.L113>:
    4762:	01 5b       	movw	r0,r1
    4764:	bf 9f 46 00 	loadw	0x46:m(sp),r11
    4768:	b1 3b       	subw	r11,r1
    476a:	7f 9f 48 00 	loadw	0x48:m(sp),r7
    476e:	17 33       	addw	r1,r7
    4770:	7f df 48 00 	storw	r7,0x48:m(sp)
    4774:	0f df 46 00 	storw	r0,0x46:m(sp)
    4778:	0a 5a       	movw	$0x0:s,r10
    477a:	e0 18 31 f9 	br	*-0x40aa <.L114>:m

0000477e <.L339>:
    477e:	7f 9f 40 00 	loadw	0x40:m(sp),r7
    4782:	07 52       	cmpw	$0x0:s,r7
    4784:	00 18 a5 f9 	beq	*-0x4128 <.L78>:m
    4788:	7f 9f 44 00 	loadw	0x44:m(sp),r7
    478c:	07 52       	cmpw	$0x0:s,r7
    478e:	d0 18 7b f4 	bge	*-0x3c08 <.L67>:m
    4792:	7f 9f 2c 00 	loadw	0x2c:m(sp),r7
    4796:	97 32       	addw	$-1:s,r7
    4798:	7f df 4c 00 	storw	r7,0x4c:m(sp)
    479c:	00 54       	movd	$0x0:s,(r1,r0)
    479e:	72 00 24 40 	movd	$0x40240000:l,(r3,r2)
    47a2:	00 00 
    47a4:	30 01       	push	$0x4,r0
    47a6:	38 01       	push	$0x4,r8
    47a8:	00 c0 e8 44 	bal	(ra),*+0x8c90 <___muldf3>:m
    47ac:	bf 60 10 00 	addd	$0x10:m,(sp)
    47b0:	08 55       	movd	(r1,r0),(r9,r8)
    47b2:	2a 55       	movd	(r3,r2),(r11,r10)
    47b4:	2f 9f 28 00 	loadw	0x28:m(sp),r2
    47b8:	12 32       	addw	$0x1:s,r2
    47ba:	22 5e       	movxw	r2,(r3,r2)
    47bc:	00 c0 7c 4d 	bal	(ra),*+0x9538 <___floatsidf>:m
    47c0:	30 01       	push	$0x4,r0
    47c2:	38 01       	push	$0x4,r8
    47c4:	00 c0 cc 44 	bal	(ra),*+0x8c90 <___muldf3>:m
    47c8:	bf 60 10 00 	addd	$0x10:m,(sp)
    47cc:	04 54       	movd	$0x0:s,(r5,r4)
    47ce:	76 00 1c 40 	movd	$0x401c0000:l,(r7,r6)
    47d2:	00 00 
    47d4:	34 01       	push	$0x4,r4
    47d6:	30 01       	push	$0x4,r0
    47d8:	00 c0 d4 43 	bal	(ra),*+0x8bac <___adddf3>:m
    47dc:	bf 60 10 00 	addd	$0x10:m,(sp)
    47e0:	0f e6       	stord	(r1,r0),0xc:s(sp)
    47e2:	2f e8       	stord	(r3,r2),0x10:s(sp)
    47e4:	0f a8       	loadd	0x10:s(sp),(r1,r0)
    47e6:	20 00 c0 fc 	addd	$0xfcc00000:l,(r1,r0)
    47ea:	00 00 
    47ec:	0f e8       	stord	(r1,r0),0x10:s(sp)
    47ee:	7f 9f 44 00 	loadw	0x44:m(sp),r7
    47f2:	7f df 28 00 	storw	r7,0x28:m(sp)
    47f6:	e0 18 81 f2 	br	*-0x3a76 <.L80>:m

000047fa <.L177>:
    47fa:	8f aa       	loadd	0x14:s(sp),(r9,r8)
    47fc:	af ac       	loadd	0x18:s(sp),(r11,r10)
    47fe:	2f c3 28 00 	storw	$0x2:s,0x28:m(sp)
    4802:	e0 18 01 f2 	br	*-0x3a02 <.L73>:m

00004806 <.L319>:
    4806:	4f af 5c 00 	loadd	0x5c:m(sp),(r5,r4)
    480a:	6f af 60 00 	loadd	0x60:m(sp),(r7,r6)
    480e:	34 01       	push	$0x4,r4
    4810:	00 54       	movd	$0x0:s,(r1,r0)
    4812:	72 00 e0 3f 	movd	$0x3fe00000:l,(r3,r2)
    4816:	00 00 
    4818:	30 01       	push	$0x4,r0
    481a:	00 c0 02 44 	bal	(ra),*+0x8c1c <___subdf3>:m
    481e:	bf 60 10 00 	addd	$0x10:m,(sp)
    4822:	38 01       	push	$0x4,r8
    4824:	30 01       	push	$0x4,r0
    4826:	00 c0 b6 4b 	bal	(ra),*+0x93dc <___gtdf2>:m
    482a:	bf 60 10 00 	addd	$0x10:m,(sp)
    482e:	00 52       	cmpw	$0x0:s,r0
    4830:	c4 10       	blt	*+0x4838 <.L279>:s
    4832:	e0 18 d7 f3 	br	*-0x3c08 <.L67>:m

00004836 <.L184>:
    4836:	0c 55       	movd	(r1,r0),(r12)

00004838 <.L279>:
    4838:	c0 55       	movd	(r12),(r1,r0)
    483a:	90 60       	addd	$-1:s,(r1,r0)
    483c:	20 b0       	loadb	0x0:s(r1,r0),r2
    483e:	b2 50 30 00 	cmpb	$0x30:m,r2
    4842:	0a 1f       	beq	*-0x4836 <.L184>:s
    4844:	7f 9f 4c 00 	loadw	0x4c:m(sp),r7
    4848:	7f df 2c 00 	storw	r7,0x2c:m(sp)
    484c:	e0 18 a5 f7 	br	*-0x3ff0 <.L84>:m

00004850 <.L349>:
    4850:	9f 9f 54 00 	loadw	0x54:m(sp),r9
    4854:	09 52       	cmpw	$0x0:s,r9
    4856:	01 15       	beq	*+0x48f8 <.L111>:s
    4858:	b0 32 33 04 	addw	$0x433:m,r0
    485c:	af 9f 46 00 	loadw	0x46:m(sp),r10
    4860:	9f 9f 3c 00 	loadw	0x3c:m(sp),r9
    4864:	e0 18 59 f8 	br	*-0x40bc <.L112>:m

00004868 <.L326>:
    4868:	df a6       	loadd	0xc:s(sp),(r13)
    486a:	e0 18 87 f7 	br	*-0x3ff0 <.L84>:m

0000486e <.L350>:
    486e:	89 3b       	subw	r8,r9
    4870:	00 5a       	movw	$0x0:s,r0
    4872:	e0 18 4b f8 	br	*-0x40bc <.L112>:m

00004876 <.L341>:
    4876:	7f bf 28 00 	loadb	0x28:m(sp),r7
    487a:	df af 58 00 	loadd	0x58:m(sp),(r13)
    487e:	c0 55       	movd	(r12),(r1,r0)
    4880:	90 60       	addd	$-1:s,(r1,r0)
    4882:	e0 18 5f f5 	br	*-0x3de0 <.L85>:m

00004886 <.L342>:
    4886:	87 59       	movb	r8,r7
    4888:	17 30       	addb	$0x1:s,r7
    488a:	bf 9f 4c 00 	loadw	0x4c:m(sp),r11
    488e:	bf df 2c 00 	storw	r11,0x2c:m(sp)
    4892:	74 f0       	storb	r7,0x0:s(r5,r4)
    4894:	e0 18 5d f7 	br	*-0x3ff0 <.L84>:m

00004898 <.L352>:
    4898:	00 52       	cmpw	$0x0:s,r0
    489a:	17 10       	bne	*+0x48a8 <.L280>:s
    489c:	17 22       	andw	$0x1:s,r7
    489e:	07 52       	cmpw	$0x0:s,r7
    48a0:	04 10       	beq	*+0x48a8 <.L280>:s
    48a2:	e0 18 9f f9 	br	*-0x4240 <.L153>:m

000048a6 <.L201>:
    48a6:	0c 55       	movd	(r1,r0),(r12)

000048a8 <.L280>:
    48a8:	c0 55       	movd	(r12),(r1,r0)
    48aa:	90 60       	addd	$-1:s,(r1,r0)
    48ac:	20 b0       	loadb	0x0:s(r1,r0),r2
    48ae:	b2 50 30 00 	cmpb	$0x30:m,r2
    48b2:	0a 1f       	beq	*-0x48a6 <.L201>:s
    48b4:	e0 18 19 f7 	br	*-0x3fcc <.L134>:m

000048b8 <.L355>:
    48b8:	48 92       	loadw	0x4:s(r9,r8),r4
    48ba:	d2 55       	movd	(r13),(r3,r2)
    48bc:	00 c0 48 13 	bal	(ra),*+0x5c04 <__Balloc>:m

000048c0 <.LVL586>:
    48c0:	08 55       	movd	(r1,r0),(r9,r8)
    48c2:	4f af 28 00 	loadd	0x28:m(sp),(r5,r4)
    48c6:	84 60       	addd	$0x8:s,(r5,r4)
    48c8:	02 55       	movd	(r1,r0),(r3,r2)
    48ca:	82 60       	addd	$0x8:s,(r3,r2)
    48cc:	6f af 28 00 	loadd	0x28:m(sp),(r7,r6)
    48d0:	06 95       	loadw	0xa:s(r7,r6),r0
    48d2:	00 5e       	movxw	r0,(r1,r0)
    48d4:	10 60       	addd	$0x1:s,(r1,r0)
    48d6:	20 4c       	ashud	$2:s,(r1,r0)
    48d8:	10 01       	push	$0x2,r0
    48da:	00 c0 56 12 	bal	(ra),*+0x5b30 <_memcpy>:m

000048de <.LVL590>:
    48de:	16 5a       	movw	$0x1:s,r6
    48e0:	84 55       	movd	(r9,r8),(r5,r4)
    48e2:	d2 55       	movd	(r13),(r3,r2)
    48e4:	00 c0 ec 18 	bal	(ra),*+0x61d0 <___lshift>:m

000048e8 <.LVL591>:
    48e8:	0f e8       	stord	(r1,r0),0x10:s(sp)
    48ea:	4f 60       	addd	$0x4:s,(sp)
    48ec:	e0 18 a9 fc 	br	*-0x4594 <.L137>:m

000048f0 <.L353>:
    48f0:	14 30       	addb	$0x1:s,r4
    48f2:	40 f0       	storb	r4,0x0:s(r1,r0)
    48f4:	e0 18 d9 f6 	br	*-0x3fcc <.L134>:m

000048f8 <.L111>:
    48f8:	1f 91       	loadw	0x2:s(sp),r1
    48fa:	b0 5a 36 00 	movw	$0x36:m,r0
    48fe:	10 3b       	subw	r1,r0
    4900:	af 9f 46 00 	loadw	0x46:m(sp),r10
    4904:	9f 9f 3c 00 	loadw	0x3c:m(sp),r9
    4908:	e0 18 b5 f7 	br	*-0x40bc <.L112>:m

0000490c <.L358>:
    490c:	7f 9f 3c 00 	loadw	0x3c:m(sp),r7
    4910:	d8 55       	movd	(r13),(r9,r8)
    4912:	ad 55       	movd	(r11,r10),(r13)
    4914:	af af 38 00 	loadd	0x38:m(sp),(r11,r10)
    4918:	b7 52 39 00 	cmpw	$0x39:m,r7
    491c:	04 11       	beq	*+0x4944 <.L140>:s
    491e:	17 30       	addb	$0x1:s,r7
    4920:	7c f0       	storb	r7,0x0:s(r12)
    4922:	1c 60       	addd	$0x1:s,(r12)
    4924:	6f a6       	loadd	0xc:s(sp),(r7,r6)
    4926:	6f ef 28 00 	stord	(r7,r6),0x28:m(sp)
    492a:	e0 18 a3 f6 	br	*-0x3fcc <.L134>:m

0000492e <.L199>:
    492e:	7f 9f 3c 00 	loadw	0x3c:m(sp),r7
    4932:	d8 55       	movd	(r13),(r9,r8)
    4934:	ad 55       	movd	(r11,r10),(r13)
    4936:	af af 38 00 	loadd	0x38:m(sp),(r11,r10)
    493a:	4f a6       	loadd	0xc:s(sp),(r5,r4)
    493c:	4f ef 28 00 	stord	(r5,r4),0x28:m(sp)
    4940:	e0 18 e3 f8 	br	*-0x4222 <.L149>:m

00004944 <.L140>:
    4944:	b4 58 39 00 	movb	$0x39:m,r4
    4948:	4c f0       	storb	r4,0x0:s(r12)
    494a:	1c 60       	addd	$0x1:s,(r12)
    494c:	5f a6       	loadd	0xc:s(sp),(r6,r5)
    494e:	5f ef 28 00 	stord	(r6,r5),0x28:m(sp)
    4952:	c0 55       	movd	(r12),(r1,r0)
    4954:	90 60       	addd	$-1:s,(r1,r0)
    4956:	e0 18 f1 f8 	br	*-0x4246 <.L148>:m

0000495a <.L357>:
    495a:	7f 9f 3c 00 	loadw	0x3c:m(sp),r7
    495e:	d8 55       	movd	(r13),(r9,r8)
    4960:	ad 55       	movd	(r11,r10),(r13)
    4962:	af af 38 00 	loadd	0x38:m(sp),(r11,r10)
    4966:	b7 52 39 00 	cmpw	$0x39:m,r7
    496a:	0d 1e       	beq	*-0x4944 <.L140>:s
    496c:	0f 9f 2e 00 	loadw	0x2e:m(sp),r0
    4970:	00 52       	cmpw	$0x0:s,r0
    4972:	d5 10       	bge	*+0x497c <.L141>:s
    4974:	7f 9f 28 00 	loadw	0x28:m(sp),r7
    4978:	b7 32 31 00 	addw	$0x31:m,r7

0000497c <.L141>:
    497c:	7c f0       	storb	r7,0x0:s(r12)
    497e:	1c 60       	addd	$0x1:s,(r12)
    4980:	1f a6       	loadd	0xc:s(sp),(r2,r1)
    4982:	1f ef 28 00 	stord	(r2,r1),0x28:m(sp)
    4986:	e0 18 47 f6 	br	*-0x3fcc <.L134>:m

0000498a <.L360>:
    498a:	00 52       	cmpw	$0x0:s,r0
    498c:	10 18 53 fd 	bne	*-0x46de <.L144>:m
    4990:	70 5b       	movw	r7,r0
    4992:	10 22       	andw	$0x1:s,r0
    4994:	00 52       	cmpw	$0x0:s,r0
    4996:	00 18 49 fd 	beq	*-0x46de <.L144>:m
    499a:	e0 18 31 fd 	br	*-0x46ca <.L145>:m

0000499e <.L340>:
    499e:	0f a2       	loadd	0x4:s(sp),(r1,r0)
    49a0:	e0 18 41 f4 	br	*-0x3de0 <.L85>:m

000049a4 <.L182>:
    49a4:	bf 9f 4c 00 	loadw	0x4c:m(sp),r11
    49a8:	bf df 2c 00 	storw	r11,0x2c:m(sp)
    49ac:	e0 18 45 f6 	br	*-0x3ff0 <.L84>:m

000049b0 <.L195>:
    49b0:	9f 9f 44 00 	loadw	0x44:m(sp),r9
    49b4:	9f df 40 00 	storw	r9,0x40:m(sp)
    49b8:	e0 18 cf f5 	br	*-0x3f86 <.L130>:m

000049bc <.L124>:
    49bc:	41 52       	cmpw	$0x4:s,r1
    49be:	00 18 77 f5 	beq	*-0x3f34 <.L125>:m
    49c2:	b1 5a 3c 00 	movw	$0x3c:m,r1
    49c6:	01 3b       	subw	r0,r1
    49c8:	10 5b       	movw	r1,r0
    49ca:	e0 18 55 f5 	br	*-0x3f1e <.L123>:m

000049ce <.L202>:
    49ce:	7f 9f 44 00 	loadw	0x44:m(sp),r7
    49d2:	7f df 40 00 	storw	r7,0x40:m(sp)
    49d6:	e0 18 b1 f5 	br	*-0x3f86 <.L130>:m
	...

000049dc <___sflush_r>:
    49dc:	1e 01       	push	RA
    49de:	67 01       	push	$0x7,r7
    49e0:	2a 55       	movd	(r3,r2),(r11,r10)
    49e2:	48 55       	movd	(r5,r4),(r9,r8)
    49e4:	04 94       	loadw	0x8:s(r5,r4),r0
    49e6:	01 5b       	movw	r0,r1
    49e8:	81 22       	andw	$0x8:s,r1
    49ea:	01 52       	cmpw	$0x0:s,r1
    49ec:	1d 14       	bne	*+0x4a86 <.L2>:s
    49ee:	02 5b       	movw	r0,r2
    49f0:	b2 26 00 08 	orw	$0x800:m,r2
    49f4:	24 d4       	storw	r2,0x8:s(r5,r4)
    49f6:	14 92       	loadw	0x4:s(r5,r4),r1
    49f8:	01 52       	cmpw	$0x0:s,r1
    49fa:	dc 16       	bge	*+0x4ad2 <.L54>:s

000049fc <.L3>:
    49fc:	c8 af 24 00 	loadd	0x24:m(r9,r8),(r12)
    4a00:	0c 56       	cmpd	$0x0:s,(r12)
    4a02:	0f 13       	beq	*+0x4a80 <.L52>:s
    4a04:	7a 90       	loadw	0x0:s(r11,r10),r7
    4a06:	0a c2       	storw	$0x0:s,0x0:s(r11,r10)
    4a08:	b0 22 00 10 	andw	$0x1000:m,r0
    4a0c:	00 52       	cmpw	$0x0:s,r0
    4a0e:	08 16       	beq	*+0x4ade <.L6>:s
    4a10:	08 9f 4a 00 	loadw	0x4a:m(r9,r8),r0
    4a14:	00 5e       	movxw	r0,(r1,r0)

00004a16 <.L7>:
    4a16:	42 22       	andw	$0x4:s,r2
    4a18:	02 52       	cmpw	$0x0:s,r2
    4a1a:	0e 10       	beq	*+0x4a36 <.L12>:s
    4a1c:	28 92       	loadw	0x4:s(r9,r8),r2
    4a1e:	22 5e       	movxw	r2,(r3,r2)
    4a20:	14 00 20 c0 	subd	(r3,r2),(r1,r0)
    4a24:	28 af 2c 00 	loadd	0x2c:m(r9,r8),(r3,r2)
    4a28:	02 56       	cmpd	$0x0:s,(r3,r2)
    4a2a:	06 10       	beq	*+0x4a36 <.L12>:s
    4a2c:	28 9f 38 00 	loadw	0x38:m(r9,r8),r2
    4a30:	22 5e       	movxw	r2,(r3,r2)
    4a32:	14 00 20 c0 	subd	(r3,r2),(r1,r0)

00004a36 <.L12>:
    4a36:	48 ac       	loadd	0x18:s(r9,r8),(r5,r4)
    4a38:	10 01       	push	$0x2,r0
    4a3a:	06 5a       	movw	$0x0:s,r6
    4a3c:	a2 55       	movd	(r11,r10),(r3,r2)
    4a3e:	dc 00       	jal	(r12)

00004a40 <.LVL8>:
    4a40:	4f 60       	addd	$0x4:s,(sp)
    4a42:	90 56       	cmpd	$-1:s,(r1,r0)
    4a44:	0a 15       	beq	*+0x4af8 <.L55>:s
    4a46:	48 94       	loadw	0x8:s(r9,r8),r4
    4a48:	42 5b       	movw	r4,r2
    4a4a:	b2 22 ff f7 	andw	$0xf7ff:m,r2
    4a4e:	28 d4       	storw	r2,0x8:s(r9,r8)
    4a50:	08 c3 04 00 	storw	$0x0:s,0x4:m(r9,r8)
    4a54:	28 a6       	loadd	0xc:s(r9,r8),(r3,r2)
    4a56:	28 e0       	stord	(r3,r2),0x0:s(r9,r8)
    4a58:	b4 22 00 10 	andw	$0x1000:m,r4
    4a5c:	04 52       	cmpw	$0x0:s,r4
    4a5e:	1c 15       	bne	*+0x4b16 <.L22>:s

00004a60 <.L17>:
    4a60:	7a d0       	storw	r7,0x0:s(r11,r10)
    4a62:	48 af 2c 00 	loadd	0x2c:m(r9,r8),(r5,r4)
    4a66:	04 56       	cmpd	$0x0:s,(r5,r4)
    4a68:	0c 10       	beq	*+0x4a80 <.L52>:s
    4a6a:	80 55       	movd	(r9,r8),(r1,r0)
    4a6c:	b0 60 3a 00 	addd	$0x3a:m,(r1,r0)
    4a70:	04 57       	cmpd	(r1,r0),(r5,r4)
    4a72:	04 10       	beq	*+0x4a7a <.L18>:s
    4a74:	a2 55       	movd	(r11,r10),(r3,r2)
    4a76:	00 c0 0a 04 	bal	(ra),*+0x4e80 <__free_r>:m

00004a7a <.L18>:
    4a7a:	00 54       	movd	$0x0:s,(r1,r0)
    4a7c:	08 ef 2c 00 	stord	(r1,r0),0x2c:m(r9,r8)

00004a80 <.L52>:
    4a80:	00 5a       	movw	$0x0:s,r0

00004a82 <.L49>:
    4a82:	67 02       	pop	$0x7,r7
    4a84:	1e 03       	popret	RA

00004a86 <.L2>:
    4a86:	c4 a6       	loadd	0xc:s(r5,r4),(r12)
    4a88:	0c 56       	cmpd	$0x0:s,(r12)
    4a8a:	0b 1f       	beq	*-0x4a80 <.L52>:s
    4a8c:	74 90       	loadw	0x0:s(r5,r4),r7
    4a8e:	c1 55       	movd	(r12),(r2,r1)
    4a90:	17 3b       	subw	r1,r7
    4a92:	c4 e0       	stord	(r12),0x0:s(r5,r4)
    4a94:	30 22       	andw	$0x3:s,r0
    4a96:	01 5a       	movw	$0x0:s,r1
    4a98:	10 53       	cmpw	r1,r0
    4a9a:	12 10       	bne	*+0x4a9e <.L19>:s
    4a9c:	14 98       	loadw	0x10:s(r5,r4),r1

00004a9e <.L19>:
    4a9e:	18 d3       	storw	r1,0x6:s(r9,r8)
    4aa0:	07 52       	cmpw	$0x0:s,r7
    4aa2:	c7 10       	blt	*+0x4ab0 <.L40>:s
    4aa4:	ee 1e       	br	*-0x4a80 <.L52>:s

00004aa6 <.L20>:
    4aa6:	02 5e       	movxw	r0,(r3,r2)
    4aa8:	2c 61       	addd	(r3,r2),(r12)
    4aaa:	07 3b       	subw	r0,r7
    4aac:	07 52       	cmpw	$0x0:s,r7
    4aae:	d9 1e       	bge	*-0x4a80 <.L52>:s

00004ab0 <.L40>:
    4ab0:	48 ac       	loadd	0x18:s(r9,r8),(r5,r4)
    4ab2:	1c 01       	push	$0x2,r12
    4ab4:	08 af 20 00 	loadd	0x20:m(r9,r8),(r1,r0)
    4ab8:	76 5b       	movw	r7,r6
    4aba:	a2 55       	movd	(r11,r10),(r3,r2)
    4abc:	d0 00       	jal	(r1,r0)

00004abe <.LVL20>:
    4abe:	4f 60       	addd	$0x4:s,(sp)
    4ac0:	00 52       	cmpw	$0x0:s,r0
    4ac2:	c2 1f       	blt	*-0x4aa6 <.L20>:s

00004ac4 <.L51>:
    4ac4:	08 94       	loadw	0x8:s(r9,r8),r0
    4ac6:	b0 26 40 00 	orw	$0x40:m,r0
    4aca:	08 d4       	storw	r0,0x8:s(r9,r8)
    4acc:	90 5a       	movw	$-1:s,r0
    4ace:	67 02       	pop	$0x7,r7
    4ad0:	1e 03       	popret	RA

00004ad2 <.L54>:
    4ad2:	14 9f 38 00 	loadw	0x38:m(r5,r4),r1
    4ad6:	01 52       	cmpw	$0x0:s,r1
    4ad8:	c2 19       	blt	*-0x49fc <.L3>:s
    4ada:	00 5a       	movw	$0x0:s,r0
    4adc:	e3 1d       	br	*-0x4a82 <.L49>:s

00004ade <.L6>:
    4ade:	48 ac       	loadd	0x18:s(r9,r8),(r5,r4)
    4ae0:	00 54       	movd	$0x0:s,(r1,r0)
    4ae2:	10 01       	push	$0x2,r0
    4ae4:	16 5a       	movw	$0x1:s,r6
    4ae6:	a2 55       	movd	(r11,r10),(r3,r2)
    4ae8:	dc 00       	jal	(r12)

00004aea <.LVL26>:
    4aea:	4f 60       	addd	$0x4:s,(sp)
    4aec:	90 56       	cmpd	$-1:s,(r1,r0)
    4aee:	06 12       	beq	*+0x4b3a <.L56>:s

00004af0 <.L8>:
    4af0:	28 94       	loadw	0x8:s(r9,r8),r2
    4af2:	c8 af 24 00 	loadd	0x24:m(r9,r8),(r12)
    4af6:	e0 19       	br	*-0x4a16 <.L7>:s

00004af8 <.L55>:
    4af8:	2a 90       	loadw	0x0:s(r11,r10),r2
    4afa:	02 52       	cmpw	$0x0:s,r2
    4afc:	10 11       	bne	*+0x4b1c <.L57>:s
    4afe:	48 94       	loadw	0x8:s(r9,r8),r4
    4b00:	43 5b       	movw	r4,r3
    4b02:	b3 22 ff f7 	andw	$0xf7ff:m,r3
    4b06:	38 d4       	storw	r3,0x8:s(r9,r8)
    4b08:	28 d2       	storw	r2,0x4:s(r9,r8)
    4b0a:	28 a6       	loadd	0xc:s(r9,r8),(r3,r2)
    4b0c:	28 e0       	stord	(r3,r2),0x0:s(r9,r8)
    4b0e:	b4 22 00 10 	andw	$0x1000:m,r4
    4b12:	04 52       	cmpw	$0x0:s,r4
    4b14:	06 1a       	beq	*-0x4a60 <.L17>:s

00004b16 <.L22>:
    4b16:	08 df 4a 00 	storw	r0,0x4a:m(r9,r8)
    4b1a:	e3 1a       	br	*-0x4a60 <.L17>:s

00004b1c <.L57>:
    4b1c:	b2 52 1d 00 	cmpw	$0x1d:m,r2
    4b20:	04 10       	beq	*+0x4b28 <.L15>:s
    4b22:	b2 52 16 00 	cmpw	$0x16:m,r2
    4b26:	1f 1c       	bne	*-0x4ac4 <.L51>:s

00004b28 <.L15>:
    4b28:	08 94       	loadw	0x8:s(r9,r8),r0
    4b2a:	b0 22 ff f7 	andw	$0xf7ff:m,r0
    4b2e:	08 d4       	storw	r0,0x8:s(r9,r8)
    4b30:	08 c3 04 00 	storw	$0x0:s,0x4:m(r9,r8)
    4b34:	08 a6       	loadd	0xc:s(r9,r8),(r1,r0)
    4b36:	08 e0       	stord	(r1,r0),0x0:s(r9,r8)
    4b38:	e4 19       	br	*-0x4a60 <.L17>:s

00004b3a <.L56>:
    4b3a:	2a 90       	loadw	0x0:s(r11,r10),r2
    4b3c:	02 52       	cmpw	$0x0:s,r2
    4b3e:	09 1d       	beq	*-0x4af0 <.L8>:s

00004b40 <.LBB3>:
    4b40:	b2 52 16 00 	cmpw	$0x16:m,r2
    4b44:	00 08       	seq	r0
    4b46:	00 52       	cmpw	$0x0:s,r0
    4b48:	16 10       	bne	*+0x4b54 <.L25>:s
    4b4a:	b2 52 1d 00 	cmpw	$0x1d:m,r2
    4b4e:	00 08       	seq	r0
    4b50:	00 52       	cmpw	$0x0:s,r0
    4b52:	09 1b       	beq	*-0x4ac4 <.L51>:s

00004b54 <.L25>:
    4b54:	7a d0       	storw	r7,0x0:s(r11,r10)
    4b56:	00 5a       	movw	$0x0:s,r0

00004b58 <.LBE3>:
    4b58:	67 02       	pop	$0x7,r7
    4b5a:	1e 03       	popret	RA

00004b5c <__fflush_r>:
    4b5c:	1e 01       	push	RA
    4b5e:	38 01       	push	$0x4,r8
    4b60:	28 55       	movd	(r3,r2),(r9,r8)
    4b62:	4a 55       	movd	(r5,r4),(r11,r10)
    4b64:	02 56       	cmpd	$0x0:s,(r3,r2)
    4b66:	05 10       	beq	*+0x4b70 <.L59>:s
    4b68:	02 9f 34 00 	loadw	0x34:m(r3,r2),r0
    4b6c:	00 52       	cmpw	$0x0:s,r0
    4b6e:	0d 10       	beq	*+0x4b88 <.L66>:s

00004b70 <.L59>:
    4b70:	1a 94       	loadw	0x8:s(r11,r10),r1
    4b72:	00 5a       	movw	$0x0:s,r0
    4b74:	01 53       	cmpw	r0,r1
    4b76:	13 10       	bne	*+0x4b7c <.L67>:s
    4b78:	38 02       	pop	$0x4,r8
    4b7a:	1e 03       	popret	RA

00004b7c <.L67>:
    4b7c:	a4 55       	movd	(r11,r10),(r5,r4)
    4b7e:	82 55       	movd	(r9,r8),(r3,r2)
    4b80:	ff c0 5d fe 	bal	(ra),*-0x49dc <___sflush_r>:m

00004b84 <.LVL34>:
    4b84:	38 02       	pop	$0x4,r8
    4b86:	1e 03       	popret	RA

00004b88 <.L66>:
    4b88:	00 c0 fc 00 	bal	(ra),*+0x4c84 <___sinit>:m

00004b8c <.LVL36>:
    4b8c:	e2 1f       	br	*-0x4b70 <.L59>:s

00004b8e <.LFE1>:
	...

00004b90 <_fflush>:
    4b90:	1e 01       	push	RA
    4b92:	02 56       	cmpd	$0x0:s,(r3,r2)
    4b94:	08 10       	beq	*+0x4ba4 <.L71>:s
    4b96:	24 55       	movd	(r3,r2),(r5,r4)
    4b98:	12 00 20 b0 	loadd	0xa808 <__impure_ptr>:l,(r3,r2)
    4b9c:	08 a8 
    4b9e:	ff c0 bf ff 	bal	(ra),*-0x4b5c <__fflush_r>:m

00004ba2 <.LVL39>:
    4ba2:	1e 03       	popret	RA

00004ba4 <.L71>:
    4ba4:	74 00 00 00 	movd	$0x25ae:l,(r5,r4)
    4ba8:	ae 25 
    4baa:	12 00 20 b0 	loadd	0x9eb8 <__global_impure_ptr>:l,(r3,r2)
    4bae:	b8 9e 
    4bb0:	00 c0 70 05 	bal	(ra),*+0x5120 <__fwalk_reent>:m

00004bb4 <.LVL42>:
    4bb4:	1e 03       	popret	RA
	...

00004bb8 <___fp_lock>:
    4bb8:	00 5a       	movw	$0x0:s,r0
    4bba:	ee 0a       	jump	(ra)

00004bbc <___fp_unlock>:
    4bbc:	00 5a       	movw	$0x0:s,r0
    4bbe:	ee 0a       	jump	(ra)

00004bc0 <__cleanup_r>:
    4bc0:	1e 01       	push	RA
    4bc2:	74 00 00 00 	movd	$0x3d5c:l,(r5,r4)
    4bc6:	5c 3d 
    4bc8:	00 c0 00 05 	bal	(ra),*+0x50c8 <__fwalk>:m

00004bcc <.LVL3>:
    4bcc:	1e 03       	popret	RA

00004bce <.LFE2>:
	...

00004bd0 <_std.isra.0>:
    4bd0:	1e 01       	push	RA
    4bd2:	18 01       	push	$0x2,r8
    4bd4:	28 55       	movd	(r3,r2),(r9,r8)
    4bd6:	00 54       	movd	$0x0:s,(r1,r0)
    4bd8:	02 e0       	stord	(r1,r0),0x0:s(r3,r2)
    4bda:	02 c3 04 00 	storw	$0x0:s,0x4:m(r3,r2)
    4bde:	02 c3 06 00 	storw	$0x0:s,0x6:m(r3,r2)
    4be2:	42 d4       	storw	r4,0x8:s(r3,r2)
    4be4:	02 c3 58 00 	storw	$0x0:s,0x58:m(r3,r2)
    4be8:	52 d5       	storw	r5,0xa:s(r3,r2)
    4bea:	02 e6       	stord	(r1,r0),0xc:s(r3,r2)
    4bec:	02 c3 10 00 	storw	$0x0:s,0x10:m(r3,r2)
    4bf0:	02 c3 14 00 	storw	$0x0:s,0x14:m(r3,r2)
    4bf4:	b2 60 52 00 	addd	$0x52:m,(r3,r2)
    4bf8:	65 54       	movd	$0x6:s,(r6,r5)
    4bfa:	04 5a       	movw	$0x0:s,r4
    4bfc:	ff c0 1d c9 	bal	(ra),*-0x1518 <_memset>:m

00004c00 <.LVL9>:
    4c00:	88 ec       	stord	(r9,r8),0x18:s(r9,r8)
    4c02:	70 00 00 00 	movd	$0x3452:l,(r1,r0)
    4c06:	52 34 
    4c08:	08 ef 1c 00 	stord	(r1,r0),0x1c:m(r9,r8)
    4c0c:	70 00 00 00 	movd	$0x3474:l,(r1,r0)
    4c10:	74 34 
    4c12:	08 ef 20 00 	stord	(r1,r0),0x20:m(r9,r8)
    4c16:	70 00 00 00 	movd	$0x349a:l,(r1,r0)
    4c1a:	9a 34 
    4c1c:	08 ef 24 00 	stord	(r1,r0),0x24:m(r9,r8)
    4c20:	70 00 00 00 	movd	$0x34c0:l,(r1,r0)
    4c24:	c0 34 
    4c26:	08 ef 28 00 	stord	(r1,r0),0x28:m(r9,r8)
    4c2a:	18 02       	pop	$0x2,r8
    4c2c:	1e 03       	popret	RA

00004c2e <.LFE14>:
	...

00004c30 <___sfmoreglue>:
    4c30:	1e 01       	push	RA
    4c32:	47 01       	push	$0x5,r7
    4c34:	28 55       	movd	(r3,r2),(r9,r8)
    4c36:	47 5b       	movw	r4,r7
    4c38:	42 5e       	movxw	r4,(r3,r2)
    4c3a:	b4 54 5c 00 	movd	$0x5c:m,(r5,r4)
    4c3e:	00 c0 76 3c 	bal	(ra),*+0x88b4 <___mulsi3>:m
    4c42:	0a 5b       	movw	r0,r10
    4c44:	1b 5b       	movw	r1,r11
    4c46:	a4 55       	movd	(r11,r10),(r5,r4)
    4c48:	c4 60       	addd	$0xc:s,(r5,r4)
    4c4a:	82 55       	movd	(r9,r8),(r3,r2)
    4c4c:	00 c0 cc 06 	bal	(ra),*+0x5318 <__malloc_r>:m

00004c50 <.LVL14>:
    4c50:	08 55       	movd	(r1,r0),(r9,r8)
    4c52:	00 56       	cmpd	$0x0:s,(r1,r0)
    4c54:	0b 10       	beq	*+0x4c6a <.L6>:s
    4c56:	02 55       	movd	(r1,r0),(r3,r2)
    4c58:	c2 60       	addd	$0xc:s,(r3,r2)
    4c5a:	00 54       	movd	$0x0:s,(r1,r0)
    4c5c:	08 e0       	stord	(r1,r0),0x0:s(r9,r8)
    4c5e:	78 d2       	storw	r7,0x4:s(r9,r8)
    4c60:	28 e4       	stord	(r3,r2),0x8:s(r9,r8)
    4c62:	a5 55       	movd	(r11,r10),(r6,r5)
    4c64:	04 5a       	movw	$0x0:s,r4
    4c66:	ff c0 b3 c8 	bal	(ra),*-0x1518 <_memset>:m

00004c6a <.L6>:
    4c6a:	80 5b       	movw	r8,r0
    4c6c:	91 5b       	movw	r9,r1
    4c6e:	47 02       	pop	$0x5,r7
    4c70:	1e 03       	popret	RA

00004c72 <.LFE1>:
	...

00004c74 <__cleanup>:
    4c74:	1e 01       	push	RA
    4c76:	12 00 20 b0 	loadd	0x9eb8 <__global_impure_ptr>:l,(r3,r2)
    4c7a:	b8 9e 
    4c7c:	ff c0 45 ff 	bal	(ra),*-0x4bc0 <__cleanup_r>:m

00004c80 <.LVL19>:
    4c80:	1e 03       	popret	RA

00004c82 <.LFE4>:
	...

00004c84 <___sinit>:
    4c84:	1e 01       	push	RA
    4c86:	18 01       	push	$0x2,r8
    4c88:	28 55       	movd	(r3,r2),(r9,r8)
    4c8a:	52 9f 34 00 	loadw	0x34:m(r3,r2),r5
    4c8e:	05 52       	cmpw	$0x0:s,r5
    4c90:	03 10       	beq	*+0x4c96 <.L14>:s
    4c92:	18 02       	pop	$0x2,r8
    4c94:	1e 03       	popret	RA

00004c96 <.L14>:
    4c96:	70 00 00 00 	movd	$0x25e0:l,(r1,r0)
    4c9a:	e0 25 
    4c9c:	02 ef 38 00 	stord	(r1,r0),0x38:m(r3,r2)
    4ca0:	12 c3 34 00 	storw	$0x1:s,0x34:m(r3,r2)
    4ca4:	00 54       	movd	$0x0:s,(r1,r0)
    4ca6:	02 ef a0 02 	stord	(r1,r0),0x2a0:m(r3,r2)
    4caa:	32 c3 a4 02 	storw	$0x3:s,0x2a4:m(r3,r2)
    4cae:	20 55       	movd	(r3,r2),(r1,r0)
    4cb0:	b0 60 ac 02 	addd	$0x2ac:m,(r1,r0)
    4cb4:	02 ef a8 02 	stord	(r1,r0),0x2a8:m(r3,r2)
    4cb8:	22 a2       	loadd	0x4:s(r3,r2),(r3,r2)
    4cba:	44 5a       	movw	$0x4:s,r4
    4cbc:	ff c0 15 ff 	bal	(ra),*-0x4bd0 <_std.isra.0>:m

00004cc0 <.LVL22>:
    4cc0:	28 a4       	loadd	0x8:s(r9,r8),(r3,r2)
    4cc2:	15 5a       	movw	$0x1:s,r5
    4cc4:	b4 5a 09 00 	movw	$0x9:m,r4
    4cc8:	ff c0 09 ff 	bal	(ra),*-0x4bd0 <_std.isra.0>:m

00004ccc <.LVL23>:
    4ccc:	28 a6       	loadd	0xc:s(r9,r8),(r3,r2)
    4cce:	25 5a       	movw	$0x2:s,r5
    4cd0:	b4 5a 12 00 	movw	$0x12:m,r4
    4cd4:	ff c0 fd fe 	bal	(ra),*-0x4bd0 <_std.isra.0>:m

00004cd8 <.LVL24>:
    4cd8:	18 02       	pop	$0x2,r8
    4cda:	1e 03       	popret	RA

00004cdc <___sfp>:
    4cdc:	1e 01       	push	RA
    4cde:	58 01       	push	$0x6,r8
    4ce0:	2c 55       	movd	(r3,r2),(r12)
    4ce2:	12 00 a0 b0 	loadd	0x9eb8 <__global_impure_ptr>:l,(r11,r10)
    4ce6:	b8 9e 
    4ce8:	0a 9f 34 00 	loadw	0x34:m(r11,r10),r0
    4cec:	00 52       	cmpw	$0x0:s,r0
    4cee:	0a 13       	beq	*+0x4d62 <.L33>:s

00004cf0 <.L16>:
    4cf0:	ba 60 a0 02 	addd	$0x2a0:m,(r11,r10)

00004cf4 <.L24>:
    4cf4:	8a a4       	loadd	0x8:s(r11,r10),(r9,r8)
    4cf6:	0a 92       	loadw	0x4:s(r11,r10),r0
    4cf8:	90 32       	addw	$-1:s,r0
    4cfa:	00 52       	cmpw	$0x0:s,r0
    4cfc:	77 10       	ble	*+0x4d0a <.L21>:s
    4cfe:	ed 12       	br	*+0x4d58 <.L17>:s

00004d00 <.L34>:
    4d00:	b8 60 5c 00 	addd	$0x5c:m,(r9,r8)
    4d04:	90 32       	addw	$-1:s,r0
    4d06:	90 52       	cmpw	$-1:s,r0
    4d08:	08 12       	beq	*+0x4d58 <.L17>:s

00004d0a <.L21>:
    4d0a:	18 94       	loadw	0x8:s(r9,r8),r1
    4d0c:	01 52       	cmpw	$0x0:s,r1
    4d0e:	19 1f       	bne	*-0x4d00 <.L34>:s

00004d10 <.L18>:
    4d10:	90 5a       	movw	$-1:s,r0
    4d12:	08 d5       	storw	r0,0xa:s(r9,r8)
    4d14:	18 c3 08 00 	storw	$0x1:s,0x8:m(r9,r8)
    4d18:	08 c3 58 00 	storw	$0x0:s,0x58:m(r9,r8)
    4d1c:	0a 54       	movd	$0x0:s,(r11,r10)
    4d1e:	a8 e0       	stord	(r11,r10),0x0:s(r9,r8)
    4d20:	08 c3 06 00 	storw	$0x0:s,0x6:m(r9,r8)
    4d24:	08 c3 04 00 	storw	$0x0:s,0x4:m(r9,r8)
    4d28:	a8 e6       	stord	(r11,r10),0xc:s(r9,r8)
    4d2a:	08 c3 10 00 	storw	$0x0:s,0x10:m(r9,r8)
    4d2e:	08 c3 14 00 	storw	$0x0:s,0x14:m(r9,r8)
    4d32:	82 55       	movd	(r9,r8),(r3,r2)
    4d34:	b2 60 52 00 	addd	$0x52:m,(r3,r2)
    4d38:	65 54       	movd	$0x6:s,(r6,r5)
    4d3a:	04 5a       	movw	$0x0:s,r4
    4d3c:	ff c0 dd c7 	bal	(ra),*-0x1518 <_memset>:m

00004d40 <.LVL35>:
    4d40:	a8 ef 2c 00 	stord	(r11,r10),0x2c:m(r9,r8)
    4d44:	08 c3 30 00 	storw	$0x0:s,0x30:m(r9,r8)
    4d48:	a8 ef 40 00 	stord	(r11,r10),0x40:m(r9,r8)
    4d4c:	08 c3 44 00 	storw	$0x0:s,0x44:m(r9,r8)

00004d50 <.L25>:
    4d50:	80 5b       	movw	r8,r0
    4d52:	91 5b       	movw	r9,r1
    4d54:	58 02       	pop	$0x6,r8
    4d56:	1e 03       	popret	RA

00004d58 <.L17>:
    4d58:	0a a0       	loadd	0x0:s(r11,r10),(r1,r0)
    4d5a:	00 56       	cmpd	$0x0:s,(r1,r0)
    4d5c:	07 10       	beq	*+0x4d6a <.L35>:s

00004d5e <.L22>:
    4d5e:	0a 55       	movd	(r1,r0),(r11,r10)
    4d60:	ea 1c       	br	*-0x4cf4 <.L24>:s

00004d62 <.L33>:
    4d62:	a2 55       	movd	(r11,r10),(r3,r2)
    4d64:	ff c0 21 ff 	bal	(ra),*-0x4c84 <___sinit>:m

00004d68 <.LVL42>:
    4d68:	e4 1c       	br	*-0x4cf0 <.L16>:s

00004d6a <.L35>:
    4d6a:	44 5a       	movw	$0x4:s,r4
    4d6c:	c2 55       	movd	(r12),(r3,r2)
    4d6e:	ff c0 c3 fe 	bal	(ra),*-0x4c30 <___sfmoreglue>:m

00004d72 <.LVL44>:
    4d72:	0a e0       	stord	(r1,r0),0x0:s(r11,r10)
    4d74:	00 56       	cmpd	$0x0:s,(r1,r0)
    4d76:	14 1f       	bne	*-0x4d5e <.L22>:s
    4d78:	cc c2       	storw	$0xc:s,0x0:s(r12)
    4d7a:	08 55       	movd	(r1,r0),(r9,r8)
    4d7c:	ea 1e       	br	*-0x4d50 <.L25>:s

00004d7e <.LFE2>:
	...

00004d80 <___sfp_lock_acquire>:
    4d80:	ee 0a       	jump	(ra)

00004d82 <.LFE6>:
	...

00004d84 <___sfp_lock_release>:
    4d84:	ee 0a       	jump	(ra)

00004d86 <.LFE7>:
	...

00004d88 <___sinit_lock_acquire>:
    4d88:	ee 0a       	jump	(ra)

00004d8a <.LFE8>:
	...

00004d8c <___sinit_lock_release>:
    4d8c:	ee 0a       	jump	(ra)

00004d8e <.LFE9>:
	...

00004d90 <___fp_lock_all>:
    4d90:	1e 01       	push	RA
    4d92:	74 00 00 00 	movd	$0x25dc:l,(r5,r4)
    4d96:	dc 25 
    4d98:	12 00 20 b0 	loadd	0xa808 <__impure_ptr>:l,(r3,r2)
    4d9c:	08 a8 
    4d9e:	00 c0 2a 03 	bal	(ra),*+0x50c8 <__fwalk>:m

00004da2 <.LVL46>:
    4da2:	1e 03       	popret	RA

00004da4 <___fp_unlock_all>:
    4da4:	1e 01       	push	RA
    4da6:	74 00 00 00 	movd	$0x25de:l,(r5,r4)
    4daa:	de 25 
    4dac:	12 00 20 b0 	loadd	0xa808 <__impure_ptr>:l,(r3,r2)
    4db0:	08 a8 
    4db2:	00 c0 16 03 	bal	(ra),*+0x50c8 <__fwalk>:m

00004db6 <.LVL47>:
    4db6:	1e 03       	popret	RA

00004db8 <__malloc_trim_r>:
    4db8:	9d 01       	push	$0x2,r13,RA
    4dba:	58 01       	push	$0x6,r8
    4dbc:	2a 55       	movd	(r3,r2),(r11,r10)
    4dbe:	4d 55       	movd	(r5,r4),(r13)
    4dc0:	00 c0 3c 0e 	bal	(ra),*+0x5bfc <___malloc_lock>:m

00004dc4 <.LVL2>:
    4dc4:	12 00 00 b0 	loadd	0xac58 <___malloc_av_+0x8>:l,(r1,r0)
    4dc8:	58 ac 
    4dca:	c0 a2       	loadd	0x4:s(r1,r0),(r12)
    4dcc:	4c 00 ff ff 	andd	$0xfffffffc:l,(r12)
    4dd0:	fc ff 
    4dd2:	c8 55       	movd	(r12),(r9,r8)
    4dd4:	b8 60 ef 0f 	addd	$0xfef:m,(r9,r8)
    4dd8:	14 00 d8 c0 	subd	(r13),(r9,r8)
    4ddc:	48 00 ff ff 	andd	$0xfffff000:l,(r9,r8)
    4de0:	00 f0 
    4de2:	b8 60 00 f0 	addd	$0xf000:m,(r9,r8)
    4de6:	b8 56 ff 0f 	cmpd	$0xfff:m,(r9,r8)
    4dea:	db 10       	bge	*+0x4e00 <.L4>:s
    4dec:	04 54       	movd	$0x0:s,(r5,r4)
    4dee:	a2 55       	movd	(r11,r10),(r3,r2)
    4df0:	00 c0 80 1a 	bal	(ra),*+0x6870 <__sbrk_r>:m

00004df4 <.LVL5>:
    4df4:	12 00 20 b0 	loadd	0xac58 <___malloc_av_+0x8>:l,(r3,r2)
    4df8:	58 ac 
    4dfa:	c2 61       	addd	(r12),(r3,r2)
    4dfc:	20 57       	cmpd	(r3,r2),(r1,r0)
    4dfe:	07 10       	beq	*+0x4e0c <.L7>:s

00004e00 <.L4>:
    4e00:	a2 55       	movd	(r11,r10),(r3,r2)
    4e02:	00 c0 fe 0d 	bal	(ra),*+0x5c00 <___malloc_unlock>:m

00004e06 <.LVL7>:
    4e06:	00 5a       	movw	$0x0:s,r0
    4e08:	58 02       	pop	$0x6,r8
    4e0a:	9d 03       	popret	$0x2,r13,RA

00004e0c <.L7>:
    4e0c:	0d 54       	movd	$0x0:s,(r13)
    4e0e:	d4 55       	movd	(r13),(r5,r4)
    4e10:	14 00 84 c0 	subd	(r9,r8),(r5,r4)
    4e14:	a2 55       	movd	(r11,r10),(r3,r2)
    4e16:	00 c0 5a 1a 	bal	(ra),*+0x6870 <__sbrk_r>:m

00004e1a <.LVL10>:
    4e1a:	90 56       	cmpd	$-1:s,(r1,r0)
    4e1c:	07 11       	beq	*+0x4e4a <.L8>:s
    4e1e:	14 00 8c c0 	subd	(r9,r8),(r12)
    4e22:	5c 00 00 00 	ord	$0x1:l,(r12)
    4e26:	01 00 
    4e28:	12 00 00 b0 	loadd	0xac58 <___malloc_av_+0x8>:l,(r1,r0)
    4e2c:	58 ac 
    4e2e:	c0 e2       	stord	(r12),0x4:s(r1,r0)
    4e30:	12 00 00 f0 	loadw	0xb064 <___malloc_current_mallinfo>:l,r0
    4e34:	64 b0 
    4e36:	80 3b       	subw	r8,r0
    4e38:	13 00 00 f0 	storw	r0,0xb064 <___malloc_current_mallinfo>:l
    4e3c:	64 b0 
    4e3e:	a2 55       	movd	(r11,r10),(r3,r2)
    4e40:	00 c0 c0 0d 	bal	(ra),*+0x5c00 <___malloc_unlock>:m

00004e44 <.LVL13>:
    4e44:	10 5a       	movw	$0x1:s,r0
    4e46:	58 02       	pop	$0x6,r8
    4e48:	9d 03       	popret	$0x2,r13,RA

00004e4a <.L8>:
    4e4a:	d4 55       	movd	(r13),(r5,r4)
    4e4c:	a2 55       	movd	(r11,r10),(r3,r2)
    4e4e:	00 c0 22 1a 	bal	(ra),*+0x6870 <__sbrk_r>:m

00004e52 <.LVL15>:
    4e52:	02 5b       	movw	r0,r2
    4e54:	13 5b       	movw	r1,r3
    4e56:	12 00 40 b0 	loadd	0xac58 <___malloc_av_+0x8>:l,(r5,r4)
    4e5a:	58 ac 
    4e5c:	28 55       	movd	(r3,r2),(r9,r8)
    4e5e:	14 00 48 c0 	subd	(r5,r4),(r9,r8)
    4e62:	f8 56       	cmpd	$0xf:s,(r9,r8)
    4e64:	de 1c       	bge	*-0x4e00 <.L4>:s
    4e66:	12 00 00 b0 	loadd	0xac48 <___malloc_sbrk_base>:l,(r1,r0)
    4e6a:	48 ac 
    4e6c:	14 00 02 c0 	subd	(r1,r0),(r3,r2)
    4e70:	13 00 20 f0 	storw	r2,0xb064 <___malloc_current_mallinfo>:l
    4e74:	64 b0 
    4e76:	58 00 00 00 	ord	$0x1:l,(r9,r8)
    4e7a:	01 00 
    4e7c:	84 e2       	stord	(r9,r8),0x4:s(r5,r4)
    4e7e:	e1 1c       	br	*-0x4e00 <.L4>:s

00004e80 <__free_r>:
    4e80:	9d 01       	push	$0x2,r13,RA
    4e82:	67 01       	push	$0x7,r7
    4e84:	28 55       	movd	(r3,r2),(r9,r8)
    4e86:	4a 55       	movd	(r5,r4),(r11,r10)
    4e88:	04 56       	cmpd	$0x0:s,(r5,r4)
    4e8a:	04 17       	beq	*+0x4f72 <.L9>:s
    4e8c:	00 c0 70 0d 	bal	(ra),*+0x5bfc <___malloc_lock>:m

00004e90 <.LVL22>:
    4e90:	a4 55       	movd	(r11,r10),(r5,r4)
    4e92:	b4 60 f8 ff 	addd	$0xfff8:m,(r5,r4)
    4e96:	e4 a2       	loadd	0x4:s(r5,r4),(ra)
    4e98:	e0 55       	movd	(ra),(r1,r0)
    4e9a:	40 00 ff ff 	andd	$0xfffffffe:l,(r1,r0)
    4e9e:	fe ff 
    4ea0:	46 55       	movd	(r5,r4),(r7,r6)
    4ea2:	06 61       	addd	(r1,r0),(r7,r6)
    4ea4:	a6 a2       	loadd	0x4:s(r7,r6),(r11,r10)
    4ea6:	4a 00 ff ff 	andd	$0xfffffffc:l,(r11,r10)
    4eaa:	fc ff 
    4eac:	12 00 20 b0 	loadd	0xac58 <___malloc_av_+0x8>:l,(r3,r2)
    4eb0:	58 ac 
    4eb2:	62 57       	cmpd	(r7,r6),(r3,r2)
    4eb4:	00 18 00 01 	beq	*+0x4fb4 <.L39>:m
    4eb8:	a6 e2       	stord	(r11,r10),0x4:s(r7,r6)
    4eba:	e2 55       	movd	(ra),(r3,r2)
    4ebc:	42 00 00 00 	andd	$0x1:l,(r3,r2)
    4ec0:	01 00 
    4ec2:	0c 5a       	movw	$0x0:s,r12
    4ec4:	02 56       	cmpd	$0x0:s,(r3,r2)
    4ec6:	1e 10       	bne	*+0x4ee2 <.L15>:s
    4ec8:	24 a0       	loadd	0x0:s(r5,r4),(r3,r2)
    4eca:	14 00 24 c0 	subd	(r3,r2),(r5,r4)
    4ece:	20 61       	addd	(r3,r2),(r1,r0)
    4ed0:	24 a4       	loadd	0x8:s(r5,r4),(r3,r2)
    4ed2:	d0 05 58 ac 	movd	$0xac58:m,(r13)
    4ed6:	d2 57       	cmpd	(r13),(r3,r2)
    4ed8:	00 18 20 01 	beq	*+0x4ff8 <.L32>:m
    4edc:	e4 a6       	loadd	0xc:s(r5,r4),(ra)
    4ede:	e2 e6       	stord	(ra),0xc:s(r3,r2)
    4ee0:	2e e4       	stord	(r3,r2),0x8:s(ra)

00004ee2 <.L15>:
    4ee2:	62 55       	movd	(r7,r6),(r3,r2)
    4ee4:	a2 61       	addd	(r11,r10),(r3,r2)
    4ee6:	22 a2       	loadd	0x4:s(r3,r2),(r3,r2)
    4ee8:	42 00 00 00 	andd	$0x1:l,(r3,r2)
    4eec:	01 00 
    4eee:	02 56       	cmpd	$0x0:s,(r3,r2)
    4ef0:	1d 10       	bne	*+0x4f0a <.L16>:s
    4ef2:	a0 61       	addd	(r11,r10),(r1,r0)
    4ef4:	26 a4       	loadd	0x8:s(r7,r6),(r3,r2)
    4ef6:	0c 52       	cmpw	$0x0:s,r12
    4ef8:	16 10       	bne	*+0x4f04 <.L18>:s
    4efa:	a0 05 58 ac 	movd	$0xac58:m,(r11,r10)
    4efe:	a2 57       	cmpd	(r11,r10),(r3,r2)
    4f00:	00 18 fe 00 	beq	*+0x4ffe <.L40>:m

00004f04 <.L18>:
    4f04:	66 a6       	loadd	0xc:s(r7,r6),(r7,r6)
    4f06:	62 e6       	stord	(r7,r6),0xc:s(r3,r2)
    4f08:	26 e4       	stord	(r3,r2),0x8:s(r7,r6)

00004f0a <.L16>:
    4f0a:	02 55       	movd	(r1,r0),(r3,r2)
    4f0c:	52 00 00 00 	ord	$0x1:l,(r3,r2)
    4f10:	01 00 
    4f12:	24 e2       	stord	(r3,r2),0x4:s(r5,r4)
    4f14:	42 55       	movd	(r5,r4),(r3,r2)
    4f16:	02 61       	addd	(r1,r0),(r3,r2)
    4f18:	02 e0       	stord	(r1,r0),0x0:s(r3,r2)
    4f1a:	0c 52       	cmpw	$0x0:s,r12
    4f1c:	18 12       	bne	*+0x4f6c <.L14>:s
    4f1e:	b0 56 ff 01 	cmpd	$0x1ff:m,(r1,r0)
    4f22:	ba 12       	bhs	*+0x4f76 <.L41>:s
    4f24:	0a 55       	movd	(r1,r0),(r11,r10)
    4f26:	7a 4b       	lshd	$-9:s,(r11,r10)
    4f28:	4a 56       	cmpd	$0x4:s,(r11,r10)
    4f2a:	aa 17       	blo	*+0x501e <.L21>:s
    4f2c:	0a 55       	movd	(r1,r0),(r11,r10)
    4f2e:	aa 4b       	lshd	$-6:s,(r11,r10)
    4f30:	a6 5b       	movw	r10,r6
    4f32:	b6 32 38 00 	addw	$0x38:m,r6
    4f36:	ba 32 39 00 	addw	$0x39:m,r10
    4f3a:	aa 33       	addw	r10,r10
    4f3c:	aa 5e       	movxw	r10,(r11,r10)
    4f3e:	ba 60 fe ff 	addd	$0xfffe:m,(r11,r10)

00004f42 <.L22>:
    4f42:	2a 4c       	ashud	$2:s,(r11,r10)
    4f44:	20 05 50 ac 	movd	$0xac50:m,(r3,r2)
    4f48:	2a 61       	addd	(r3,r2),(r11,r10)
    4f4a:	2a a4       	loadd	0x8:s(r11,r10),(r3,r2)
    4f4c:	a2 57       	cmpd	(r11,r10),(r3,r2)
    4f4e:	05 17       	beq	*+0x5038 <.L42>:s

00004f50 <.L36>:
    4f50:	62 a2       	loadd	0x4:s(r3,r2),(r7,r6)
    4f52:	46 00 ff ff 	andd	$0xfffffffc:l,(r7,r6)
    4f56:	fc ff 
    4f58:	60 57       	cmpd	(r7,r6),(r1,r0)
    4f5a:	54 10       	bls	*+0x4f62 <.L29>:s
    4f5c:	22 a4       	loadd	0x8:s(r3,r2),(r3,r2)
    4f5e:	2a 57       	cmpd	(r3,r2),(r11,r10)
    4f60:	18 1f       	bne	*-0x4f50 <.L36>:s

00004f62 <.L29>:
    4f62:	02 a6       	loadd	0xc:s(r3,r2),(r1,r0)

00004f64 <.L27>:
    4f64:	04 e6       	stord	(r1,r0),0xc:s(r5,r4)
    4f66:	24 e4       	stord	(r3,r2),0x8:s(r5,r4)
    4f68:	40 e4       	stord	(r5,r4),0x8:s(r1,r0)
    4f6a:	42 e6       	stord	(r5,r4),0xc:s(r3,r2)

00004f6c <.L14>:
    4f6c:	82 55       	movd	(r9,r8),(r3,r2)
    4f6e:	00 c0 92 0c 	bal	(ra),*+0x5c00 <___malloc_unlock>:m

00004f72 <.L9>:
    4f72:	67 02       	pop	$0x7,r7
    4f74:	9d 03       	popret	$0x2,r13,RA

00004f76 <.L41>:
    4f76:	d0 4b       	lshd	$-3:s,(r1,r0)
    4f78:	01 5b       	movw	r0,r1
    4f7a:	e1 43       	ashuw	$-2:s,r1
    4f7c:	16 54       	movd	$0x1:s,(r7,r6)
    4f7e:	16 48       	ashud	r1,(r7,r6)
    4f80:	12 00 20 b0 	loadd	0xac54 <___malloc_av_+0x4>:l,(r3,r2)
    4f84:	54 ac 
    4f86:	14 00 26 90 	ord	(r3,r2),(r7,r6)
    4f8a:	13 00 60 b0 	stord	(r7,r6),0xac54 <___malloc_av_+0x4>:l
    4f8e:	54 ac 
    4f90:	10 32       	addw	$0x1:s,r0
    4f92:	00 33       	addw	r0,r0
    4f94:	00 5e       	movxw	r0,(r1,r0)
    4f96:	b0 60 fe ff 	addd	$0xfffe:m,(r1,r0)
    4f9a:	20 4c       	ashud	$2:s,(r1,r0)
    4f9c:	20 05 50 ac 	movd	$0xac50:m,(r3,r2)
    4fa0:	20 61       	addd	(r3,r2),(r1,r0)
    4fa2:	20 a4       	loadd	0x8:s(r1,r0),(r3,r2)
    4fa4:	04 e6       	stord	(r1,r0),0xc:s(r5,r4)
    4fa6:	24 e4       	stord	(r3,r2),0x8:s(r5,r4)
    4fa8:	40 e4       	stord	(r5,r4),0x8:s(r1,r0)
    4faa:	42 e6       	stord	(r5,r4),0xc:s(r3,r2)
    4fac:	82 55       	movd	(r9,r8),(r3,r2)
    4fae:	00 c0 52 0c 	bal	(ra),*+0x5c00 <___malloc_unlock>:m

00004fb2 <.LVL56>:
    4fb2:	e0 1e       	br	*-0x4f72 <.L9>:s

00004fb4 <.L39>:
    4fb4:	a0 61       	addd	(r11,r10),(r1,r0)
    4fb6:	4e 00 00 00 	andd	$0x1:l,(ra)
    4fba:	01 00 
    4fbc:	0e 56       	cmpd	$0x0:s,(ra)
    4fbe:	19 10       	bne	*+0x4fd0 <.L12>:s
    4fc0:	24 a0       	loadd	0x0:s(r5,r4),(r3,r2)
    4fc2:	14 00 24 c0 	subd	(r3,r2),(r5,r4)
    4fc6:	20 61       	addd	(r3,r2),(r1,r0)
    4fc8:	24 a6       	loadd	0xc:s(r5,r4),(r3,r2)
    4fca:	64 a4       	loadd	0x8:s(r5,r4),(r7,r6)
    4fcc:	26 e6       	stord	(r3,r2),0xc:s(r7,r6)
    4fce:	62 e4       	stord	(r7,r6),0x8:s(r3,r2)

00004fd0 <.L12>:
    4fd0:	02 55       	movd	(r1,r0),(r3,r2)
    4fd2:	52 00 00 00 	ord	$0x1:l,(r3,r2)
    4fd6:	01 00 
    4fd8:	24 e2       	stord	(r3,r2),0x4:s(r5,r4)
    4fda:	13 00 40 b0 	stord	(r5,r4),0xac58 <___malloc_av_+0x8>:l
    4fde:	58 ac 
    4fe0:	12 00 20 b0 	loadd	0xac4c <___malloc_trim_threshold>:l,(r3,r2)
    4fe4:	4c ac 
    4fe6:	20 57       	cmpd	(r3,r2),(r1,r0)
    4fe8:	42 1c       	bhi	*-0x4f6c <.L14>:s
    4fea:	12 00 40 b0 	loadd	0xb080 <___malloc_top_pad>:l,(r5,r4)
    4fee:	80 b0 
    4ff0:	82 55       	movd	(r9,r8),(r3,r2)
    4ff2:	ff c0 c7 fd 	bal	(ra),*-0x4db8 <__malloc_trim_r>:m

00004ff6 <.LVL67>:
    4ff6:	eb 1b       	br	*-0x4f6c <.L14>:s

00004ff8 <.L32>:
    4ff8:	1c 5a       	movw	$0x1:s,r12
    4ffa:	e0 18 e9 fe 	br	*-0x4ee2 <.L15>:m

00004ffe <.L40>:
    4ffe:	13 00 40 b0 	stord	(r5,r4),0xac64 <.LLST16+0x2>:l
    5002:	64 ac 
    5004:	13 00 40 b0 	stord	(r5,r4),0xac60 <___malloc_av_+0x10>:l
    5008:	60 ac 
    500a:	24 e6       	stord	(r3,r2),0xc:s(r5,r4)
    500c:	24 e4       	stord	(r3,r2),0x8:s(r5,r4)
    500e:	02 55       	movd	(r1,r0),(r3,r2)
    5010:	52 00 00 00 	ord	$0x1:l,(r3,r2)
    5014:	01 00 
    5016:	24 e2       	stord	(r3,r2),0x4:s(r5,r4)
    5018:	04 61       	addd	(r1,r0),(r5,r4)
    501a:	04 e0       	stord	(r1,r0),0x0:s(r5,r4)
    501c:	e8 1a       	br	*-0x4f6c <.L14>:s

0000501e <.L21>:
    501e:	ba 56 14 00 	cmpd	$0x14:m,(r11,r10)
    5022:	ac 11       	blo	*+0x505a <.L23>:s
    5024:	a6 5b       	movw	r10,r6
    5026:	b6 32 5b 00 	addw	$0x5b:m,r6
    502a:	ba 32 5c 00 	addw	$0x5c:m,r10
    502e:	aa 33       	addw	r10,r10
    5030:	aa 5e       	movxw	r10,(r11,r10)
    5032:	ba 60 fe ff 	addd	$0xfffe:m,(r11,r10)
    5036:	e6 18       	br	*-0x4f42 <.L22>:s

00005038 <.L42>:
    5038:	60 5b       	movw	r6,r0
    503a:	10 43       	ashuw	$-15:s,r0
    503c:	30 22       	andw	$0x3:s,r0
    503e:	06 33       	addw	r0,r6
    5040:	e6 43       	ashuw	$-2:s,r6
    5042:	1a 54       	movd	$0x1:s,(r11,r10)
    5044:	6a 48       	ashud	r6,(r11,r10)
    5046:	12 00 00 b0 	loadd	0xac54 <___malloc_av_+0x4>:l,(r1,r0)
    504a:	54 ac 
    504c:	14 00 0a 90 	ord	(r1,r0),(r11,r10)
    5050:	13 00 a0 b0 	stord	(r11,r10),0xac54 <___malloc_av_+0x4>:l
    5054:	54 ac 
    5056:	20 55       	movd	(r3,r2),(r1,r0)
    5058:	e6 18       	br	*-0x4f64 <.L27>:s

0000505a <.L23>:
    505a:	ba 56 54 00 	cmpd	$0x54:m,(r11,r10)
    505e:	ae 10       	blo	*+0x507a <.L24>:s
    5060:	0a 55       	movd	(r1,r0),(r11,r10)
    5062:	4a 4b       	lshd	$-12:s,(r11,r10)
    5064:	a6 5b       	movw	r10,r6
    5066:	b6 32 6e 00 	addw	$0x6e:m,r6
    506a:	ba 32 6f 00 	addw	$0x6f:m,r10
    506e:	aa 33       	addw	r10,r10
    5070:	aa 5e       	movxw	r10,(r11,r10)
    5072:	ba 60 fe ff 	addd	$0xfffe:m,(r11,r10)
    5076:	e0 18 cd fe 	br	*-0x4f42 <.L22>:m

0000507a <.L24>:
    507a:	ba 56 54 01 	cmpd	$0x154:m,(r11,r10)
    507e:	ae 10       	blo	*+0x509a <.L25>:s
    5080:	0a 55       	movd	(r1,r0),(r11,r10)
    5082:	1a 4b       	lshd	$-15:s,(r11,r10)
    5084:	a6 5b       	movw	r10,r6
    5086:	b6 32 77 00 	addw	$0x77:m,r6
    508a:	ba 32 78 00 	addw	$0x78:m,r10
    508e:	aa 33       	addw	r10,r10
    5090:	aa 5e       	movxw	r10,(r11,r10)
    5092:	ba 60 fe ff 	addd	$0xfffe:m,(r11,r10)
    5096:	e0 18 ad fe 	br	*-0x4f42 <.L22>:m

0000509a <.L25>:
    509a:	ba 56 54 05 	cmpd	$0x554:m,(r11,r10)
    509e:	ae 10       	blo	*+0x50ba <.L33>:s
    50a0:	1a 5b       	movw	r1,r10
    50a2:	ea 49       	lshw	$-2:s,r10
    50a4:	a6 5b       	movw	r10,r6
    50a6:	b6 32 7c 00 	addw	$0x7c:m,r6
    50aa:	ba 32 7d 00 	addw	$0x7d:m,r10
    50ae:	aa 33       	addw	r10,r10
    50b0:	aa 5e       	movxw	r10,(r11,r10)
    50b2:	ba 60 fe ff 	addd	$0xfffe:m,(r11,r10)
    50b6:	e0 18 8d fe 	br	*-0x4f42 <.L22>:m

000050ba <.L33>:
    50ba:	ba 54 fc 00 	movd	$0xfc:m,(r11,r10)
    50be:	b6 5a 7e 00 	movw	$0x7e:m,r6
    50c2:	e0 18 81 fe 	br	*-0x4f42 <.L22>:m
	...

000050c8 <__fwalk>:
    50c8:	9d 01       	push	$0x2,r13,RA
    50ca:	67 01       	push	$0x7,r7
    50cc:	2c 55       	movd	(r3,r2),(r12)
    50ce:	4d 55       	movd	(r5,r4),(r13)
    50d0:	bc 60 a0 02 	addd	$0x2a0:m,(r12)
    50d4:	07 5a       	movw	$0x0:s,r7
    50d6:	0c 56       	cmpd	$0x0:s,(r12)
    50d8:	00 12       	beq	*+0x5118 <.L2>:s

000050da <.L6>:
    50da:	8c a4       	loadd	0x8:s(r12),(r9,r8)

000050dc <.LFE0>:
    50dc:	2c 92       	loadw	0x4:s(r12),r2
    50de:	02 52       	cmpw	$0x0:s,r2
    50e0:	d9 11       	bge	*+0x5112 <.L3>:s
    50e2:	92 32       	addw	$-1:s,r2
    50e4:	22 5f       	movzw	r2,(r3,r2)
    50e6:	12 60       	addd	$0x1:s,(r3,r2)
    50e8:	b4 54 5c 00 	movd	$0x5c:m,(r5,r4)
    50ec:	00 c0 c8 37 	bal	(ra),*+0x88b4 <___mulsi3>:m
    50f0:	0a 55       	movd	(r1,r0),(r11,r10)
    50f2:	8a 61       	addd	(r9,r8),(r11,r10)

000050f4 <.L5>:
    50f4:	08 94       	loadw	0x8:s(r9,r8),r0
    50f6:	00 52       	cmpw	$0x0:s,r0
    50f8:	09 10       	beq	*+0x510a <.L4>:s
    50fa:	10 52       	cmpw	$0x1:s,r0
    50fc:	b7 10       	bhs	*+0x510a <.L4>:s
    50fe:	08 95       	loadw	0xa:s(r9,r8),r0
    5100:	90 52       	cmpw	$-1:s,r0
    5102:	04 10       	beq	*+0x510a <.L4>:s
    5104:	82 55       	movd	(r9,r8),(r3,r2)
    5106:	dd 00       	jal	(r13)

00005108 <.LVL9>:
    5108:	07 27       	orw	r0,r7

0000510a <.L4>:
    510a:	b8 60 5c 00 	addd	$0x5c:m,(r9,r8)
    510e:	a8 57       	cmpd	(r11,r10),(r9,r8)
    5110:	12 1f       	bne	*-0x50f4 <.L5>:s

00005112 <.L3>:
    5112:	cc a0       	loadd	0x0:s(r12),(r12)
    5114:	0c 56       	cmpd	$0x0:s,(r12)
    5116:	12 1e       	bne	*-0x50da <.L6>:s

00005118 <.L2>:
    5118:	70 5b       	movw	r7,r0
    511a:	67 02       	pop	$0x7,r7
    511c:	9d 03       	popret	$0x2,r13,RA

0000511e <.LFE0>:
	...

00005120 <__fwalk_reent>:
    5120:	9d 01       	push	$0x2,r13,RA
