
cris-elf.x:     file format elf32-us-cris


Disassembly of section .text:

00001400 <_start>:
    1400:	6fee 10fd 0000      	move.d fd10 <__end>,sp
    1406:	3fbd 3015 0000      	jsr 1530 <__startmain>
    140c:	0f05                	nop 

0000140e <___exit>:
    140e:	4192                	moveq 1,r9
    1410:	3de9                	break 13
    1412:	7fb6                	ret 
    1414:	0f05                	nop 

00001416 <___read>:
    1416:	4392                	moveq 3,r9
    1418:	3de9                	break 13
    141a:	7fb6                	ret 
    141c:	0f05                	nop 

0000141e <___write>:
    141e:	4492                	moveq 4,r9
    1420:	3de9                	break 13
    1422:	7fb6                	ret 
    1424:	0f05                	nop 

00001426 <___open>:
    1426:	6fbe 4202 0000      	move.d 242 <_.tmp+0x202>,r11
    142c:	4592                	moveq 5,r9
    142e:	3de9                	break 13
    1430:	7fb6                	ret 
    1432:	0f05                	nop 

00001434 <___close>:
    1434:	4692                	moveq 6,r9
    1436:	3de9                	break 13
    1438:	7fb6                	ret 
    143a:	0f05                	nop 

0000143c <__exit>:
    143c:	84e2                	subq 4,sp
    143e:	7eba                	move srp,[sp]
    1440:	3fbd 0e14 0000      	jsr 140e <___exit>

00001446 <_read>:
    1446:	84e2                	subq 4,sp
    1448:	7eba                	move srp,[sp]
    144a:	3fbd 1614 0000      	jsr 1416 <___read>
    1450:	3e0d                	jump [sp+]

00001452 <_write>:
    1452:	84e2                	subq 4,sp
    1454:	7eba                	move srp,[sp]
    1456:	3fbd 1e14 0000      	jsr 141e <___write>
    145c:	3e0d                	jump [sp+]

0000145e <_open>:
    145e:	84e2                	subq 4,sp
    1460:	7eba                	move srp,[sp]
    1462:	3fbd 2614 0000      	jsr 1426 <___open>
    1468:	3e0d                	jump [sp+]

0000146a <_close>:
    146a:	84e2                	subq 4,sp
    146c:	7eba                	move srp,[sp]
    146e:	3fbd 3414 0000      	jsr 1434 <___close>
    1474:	3e0d                	jump [sp+]

00001476 <_fstat>:
    1476:	84e2                	subq 4,sp
    1478:	7eba                	move srp,[sp]
    147a:	6ba6                	move.d r11,r10
    147c:	7b86                	clear.d r11
    147e:	4fcc 3c00           	movu.b 0x3c,r12
    1482:	3fbd 7c15 0000      	jsr 157c <_memset>
    1488:	7a86                	clear.d r10
    148a:	3e0d                	jump [sp+]

0000148c <_lseek>:
    148c:	7fb6                	ret 
    148e:	6ba6                	move.d r11,r10

00001490 <_sbrk>:
    1490:	6f9e 00b0 0000      	move.d b000 <__gp>,r9
    1496:	699a                	move.d [r9],r9
    1498:	29a6                	add.d r9,r10
    149a:	7f0d 00b0 0000 eaab 	move.d r10,[b000 <__gp>]
    14a2:	7fb6                	ret 
    14a4:	69a6                	move.d r9,r10

000014a6 <_isatty>:
    14a6:	7fb6                	ret 
    14a8:	41a2                	moveq 1,r10

000014aa <__read>:
    14aa:	84e2                	subq 4,sp
    14ac:	7eba                	move srp,[sp]
    14ae:	3fbd 4614 0000      	jsr 1446 <_read>
    14b4:	3e0d                	jump [sp+]

000014b6 <__write>:
    14b6:	84e2                	subq 4,sp
    14b8:	7eba                	move srp,[sp]
    14ba:	3fbd 5214 0000      	jsr 1452 <_write>
    14c0:	3e0d                	jump [sp+]

000014c2 <__open>:
    14c2:	84e2                	subq 4,sp
    14c4:	7eba                	move srp,[sp]
    14c6:	3fbd 5e14 0000      	jsr 145e <_open>
    14cc:	3e0d                	jump [sp+]

000014ce <__close>:
    14ce:	84e2                	subq 4,sp
    14d0:	7eba                	move srp,[sp]
    14d2:	3fbd 6a14 0000      	jsr 146a <_close>
    14d8:	3e0d                	jump [sp+]

000014da <__fstat>:
    14da:	84e2                	subq 4,sp
    14dc:	7eba                	move srp,[sp]
    14de:	3fbd 7614 0000      	jsr 1476 <_fstat>
    14e4:	3e0d                	jump [sp+]

000014e6 <__lseek>:
    14e6:	84e2                	subq 4,sp
    14e8:	7eba                	move srp,[sp]
    14ea:	3fbd 8c14 0000      	jsr 148c <_lseek>
    14f0:	3e0d                	jump [sp+]

000014f2 <__sbrk>:
    14f2:	84e2                	subq 4,sp
    14f4:	7eba                	move srp,[sp]
    14f6:	3fbd 9014 0000      	jsr 1490 <_sbrk>
    14fc:	3e0d                	jump [sp+]

000014fe <__isatty>:
    14fe:	84e2                	subq 4,sp
    1500:	7eba                	move srp,[sp]
    1502:	3fbd a614 0000      	jsr 14a6 <_isatty>
    1508:	3e0d                	jump [sp+]

0000150a <_main>:
    150a:	84e2                	subq 4,sp
    150c:	7eba                	move srp,[sp]
    150e:	6fae b4ab 0000      	move.d abb4 <__etext>,r10
    1514:	6fbe 04b0 0000      	move.d b004 <_data_value>,r11
    151a:	6bba                	move.d [r11],r11
    151c:	6fce e0ab 0000      	move.d abe0 <__etext+0x2c>,r12
    1522:	3fbd 3217 0000      	jsr 1732 <_printf>
    1528:	7a86                	clear.d r10
    152a:	3fbd 5015 0000      	jsr 1550 <_exit>

00001530 <__startmain>:
    1530:	84e2                	subq 4,sp
    1532:	7eba                	move srp,[sp]
    1534:	6fae bcb8 0000      	move.d b8bc <__edata>,r10
    153a:	7b86                	clear.d r11
    153c:	6fce 04f9 0000      	move.d f904 <__ebss>,r12
    1542:	aac6                	sub.d r10,r12
    1544:	3fbd 7c15 0000      	jsr 157c <_memset>
    154a:	3fbd 0a15 0000      	jsr 150a <_main>

00001550 <_exit>:
    1550:	84e2                	subq 4,sp
    1552:	7eba                	move srp,[sp]
    1554:	84e2                	subq 4,sp
    1556:	ee0b                	move.d r0,[sp]
    1558:	6a06                	move.d r10,r0
    155a:	7b86                	clear.d r11
    155c:	3fbd 7035 0000      	jsr 3570 <___call_exitprocs>
    1562:	6fae eaab 0000      	move.d abea <__global_impure_ptr>,r10
    1568:	6aaa                	move.d [r10],r10
    156a:	39a1 699a           	move.d [r10+57],r9
    156e:	0430                	beq 1574 <_exit+0x24>
    1570:	0f05                	nop 
    1572:	b9b9                	jsr r9
    1574:	60a6                	move.d r0,r10
    1576:	3fbd 3c14 0000      	jsr 143c <__exit>

0000157c <_memset>:
    157c:	90e2                	subq 16,sp
    157e:	fe3b                	movem r3,[sp]
    1580:	6a96                	move.d r10,r9
    1582:	6c16                	move.d r12,r1
    1584:	4bd4                	movu.b r11,r13
    1586:	c8d3                	lslq 8,r13
    1588:	4bd6                	move.b r11,r13
    158a:	6db6                	move.d r13,r11
    158c:	d0d3                	lslq 16,r13
    158e:	6db7                	or.d r13,r11
    1590:	81a3                	btstq 1,r10
    1592:	9e30                	beq 1632 <_memset+0xb6>
    1594:	6ad6                	move.d r10,r13
    1596:	c2c2                	cmpq 2,r12
    1598:	7ec0                	bgt 1618 <_memset+0x9c>
    159a:	80a3                	btstq 0,r10
    159c:	cf12                	cmpq 15,r1
    159e:	38d0                	ble 15d8 <_memset+0x5c>
    15a0:	6d96                	move.d r13,r9
    15a2:	6b06                	move.d r11,r0
    15a4:	9012                	subq 16,r1
    15a6:	6126                	move.d r1,r2
    15a8:	e423                	lsrq 4,r2
    15aa:	6dc6                	move.d r13,r12
    15ac:	10c2                	addq 16,r12
    15ae:	6236                	move.d r2,r3
    15b0:	c433                	lslq 4,r3
    15b2:	23c6                	add.d r3,r12
    15b4:	e90b                	move.d r0,[r9]
    15b6:	0491 e00b           	move.d r0,[r9+4]
    15ba:	0891 e00b           	move.d r0,[r9+8]
    15be:	0c91 e00b           	move.d r0,[r9+12]
    15c2:	1092                	addq 16,r9
    15c4:	ec96                	cmp.d r12,r9
    15c6:	ed20                	bne 15b4 <_memset+0x38>
    15c8:	0f05                	nop 
    15ca:	6296                	move.d r2,r9
    15cc:	c493                	lslq 4,r9
    15ce:	a916                	sub.d r9,r1
    15d0:	6296                	move.d r2,r9
    15d2:	0192                	addq 1,r9
    15d4:	c493                	lslq 4,r9
    15d6:	29d6                	add.d r9,r13
    15d8:	8112                	subq 1,r1
    15da:	cf1d 0f00           	bound.b 0xf,r1
    15de:	5f15 3ff8           	adds.w [pc+r1.w],pc
    15e2:	8200                	case 1: -> 1664 <_memset+0xe8>
    15e4:	8800                	case 2: -> 166a <_memset+0xee>
    15e6:	8e00                	case 3: -> 1670 <_memset+0xf4>
    15e8:	9800                	case 4: -> 167a <_memset+0xfe>
    15ea:	9e00                	case 5: -> 1680 <_memset+0x104>
    15ec:	a800                	case 6: -> 168a <_memset+0x10e>
    15ee:	b200                	case 7: -> 1694 <_memset+0x118>
    15f0:	c000                	case 8: -> 16a2 <_memset+0x126>
    15f2:	ca00                	case 9: -> 16ac <_memset+0x130>
    15f4:	d800                	case 10: -> 16ba <_memset+0x13e>
    15f6:	e600                	case 11: -> 16c8 <_memset+0x14c>
    15f8:	f800                	case 12: -> 16da <_memset+0x15e>
    15fa:	0601                	case 13: -> 16e8 <_memset+0x16c>
    15fc:	1801                	case 14: -> 16fa <_memset+0x17e>
    15fe:	2000                	case 15: -> 1602 <_memset+0x86>
    1600:	3200                	case 16/default: -> 1614 <_memset+0x98>
    1602:	edbb                	move.d r11,[r13]
    1604:	04d1 ebbb           	move.d r11,[r13+4]
    1608:	08d1 ebbb           	move.d r11,[r13+8]
    160c:	0cd1 dbbb           	move.w r11,[r13+12]
    1610:	0ed1 cbbb           	move.b r11,[r13+14]
    1614:	7fb6                	ret 
    1616:	be3f                	movem [sp+],r3
    1618:	0aa0                	bge 1624 <_memset+0xa8>
    161a:	0f05                	nop 
    161c:	c9bf                	move.b r11,[r9+]
    161e:	8112                	subq 1,r1
    1620:	61c6                	move.d r1,r12
    1622:	69d6                	move.d r9,r13
    1624:	8193                	btstq 1,r9
    1626:	0aa0                	bge 1632 <_memset+0xb6>
    1628:	0f05                	nop 
    162a:	69d6                	move.d r9,r13
    162c:	ddbf                	move.w r11,[r13+]
    162e:	8212                	subq 2,r1
    1630:	61c6                	move.d r1,r12
    1632:	cf1c 2f00           	cmpu.b 0x2f,r1
    1636:	65d0                	ble 159c <_memset+0x20>
    1638:	0f05                	nop 
    163a:	ace2                	subq 44,sp
    163c:	feab                	movem r10,[sp]
    163e:	6b06                	move.d r11,r0
    1640:	6b16                	move.d r11,r1
    1642:	6b26                	move.d r11,r2
    1644:	6b36                	move.d r11,r3
    1646:	6b46                	move.d r11,r4
    1648:	6b56                	move.d r11,r5
    164a:	6b66                	move.d r11,r6
    164c:	6b76                	move.d r11,r7
    164e:	6b86                	move.d r11,r8
    1650:	6b96                	move.d r11,r9
    1652:	6ba6                	move.d r11,r10
    1654:	b0c2                	subq 48,r12
    1656:	b0c2                	subq 48,r12
    1658:	fda0                	bge 1656 <_memset+0xda>
    165a:	fdbf                	movem r11,[r13+]
    165c:	30c2                	addq 48,r12
    165e:	beaf                	movem [sp+],r10
    1660:	3be0                	ba 159c <_memset+0x20>
    1662:	6c16                	move.d r12,r1
    1664:	cdbb                	move.b r11,[r13]
    1666:	7fb6                	ret 
    1668:	be3f                	movem [sp+],r3
    166a:	ddbb                	move.w r11,[r13]
    166c:	7fb6                	ret 
    166e:	be3f                	movem [sp+],r3
    1670:	ddbb                	move.w r11,[r13]
    1672:	02d1 cbbb           	move.b r11,[r13+2]
    1676:	7fb6                	ret 
    1678:	be3f                	movem [sp+],r3
    167a:	edbb                	move.d r11,[r13]
    167c:	7fb6                	ret 
    167e:	be3f                	movem [sp+],r3
    1680:	edbb                	move.d r11,[r13]
    1682:	04d1 cbbb           	move.b r11,[r13+4]
    1686:	7fb6                	ret 
    1688:	be3f                	movem [sp+],r3
    168a:	edbb                	move.d r11,[r13]
    168c:	04d1 dbbb           	move.w r11,[r13+4]
    1690:	7fb6                	ret 
    1692:	be3f                	movem [sp+],r3
    1694:	edbb                	move.d r11,[r13]
    1696:	04d1 dbbb           	move.w r11,[r13+4]
    169a:	06d1 cbbb           	move.b r11,[r13+6]
    169e:	7fb6                	ret 
    16a0:	be3f                	movem [sp+],r3
    16a2:	edbb                	move.d r11,[r13]
    16a4:	04d1 ebbb           	move.d r11,[r13+4]
    16a8:	7fb6                	ret 
    16aa:	be3f                	movem [sp+],r3
    16ac:	edbb                	move.d r11,[r13]
    16ae:	04d1 ebbb           	move.d r11,[r13+4]
    16b2:	08d1 cbbb           	move.b r11,[r13+8]
    16b6:	7fb6                	ret 
    16b8:	be3f                	movem [sp+],r3
    16ba:	edbb                	move.d r11,[r13]
    16bc:	04d1 ebbb           	move.d r11,[r13+4]
    16c0:	08d1 dbbb           	move.w r11,[r13+8]
    16c4:	7fb6                	ret 
    16c6:	be3f                	movem [sp+],r3
    16c8:	edbb                	move.d r11,[r13]
    16ca:	04d1 ebbb           	move.d r11,[r13+4]
    16ce:	08d1 dbbb           	move.w r11,[r13+8]
    16d2:	0ad1 cbbb           	move.b r11,[r13+10]
    16d6:	7fb6                	ret 
    16d8:	be3f                	movem [sp+],r3
    16da:	edbb                	move.d r11,[r13]
    16dc:	04d1 ebbb           	move.d r11,[r13+4]
    16e0:	08d1 ebbb           	move.d r11,[r13+8]
    16e4:	7fb6                	ret 
    16e6:	be3f                	movem [sp+],r3
    16e8:	edbb                	move.d r11,[r13]
    16ea:	04d1 ebbb           	move.d r11,[r13+4]
    16ee:	08d1 ebbb           	move.d r11,[r13+8]
    16f2:	0cd1 cbbb           	move.b r11,[r13+12]
    16f6:	7fb6                	ret 
    16f8:	be3f                	movem [sp+],r3
    16fa:	edbb                	move.d r11,[r13]
    16fc:	04d1 ebbb           	move.d r11,[r13+4]
    1700:	08d1 ebbb           	move.d r11,[r13+8]
    1704:	0cd1 dbbb           	move.w r11,[r13+12]
    1708:	7fb6                	ret 
    170a:	be3f                	movem [sp+],r3

0000170c <__printf_r>:
    170c:	84e2                	subq 4,sp
    170e:	eedb                	move.d r13,[sp]
    1710:	84e2                	subq 4,sp
    1712:	eecb                	move.d r12,[sp]
    1714:	84e2                	subq 4,sp
    1716:	eebb                	move.d r11,[sp]
    1718:	84e2                	subq 4,sp
    171a:	7eba                	move srp,[sp]
    171c:	6ed6                	move.d sp,r13
    171e:	04d2                	addq 4,r13
    1720:	08a1 6bba           	move.d [r10+8],r11
    1724:	6dce                	move.d [r13+],r12
    1726:	3fbd 6417 0000      	jsr 1764 <__vfprintf_r>
    172c:	3ebe                	pop srp
    172e:	7fb6                	ret 
    1730:	0ce2                	addq 12,sp

00001732 <_printf>:
    1732:	84e2                	subq 4,sp
    1734:	eedb                	move.d r13,[sp]
    1736:	84e2                	subq 4,sp
    1738:	eecb                	move.d r12,[sp]
    173a:	84e2                	subq 4,sp
    173c:	eebb                	move.d r11,[sp]
    173e:	84e2                	subq 4,sp
    1740:	eeab                	move.d r10,[sp]
    1742:	84e2                	subq 4,sp
    1744:	7eba                	move srp,[sp]
    1746:	6ed6                	move.d sp,r13
    1748:	04d2                	addq 4,r13
    174a:	6fae 08b0 0000      	move.d b008 <__impure_ptr>,r10
    1750:	6aaa                	move.d [r10],r10
    1752:	08a1 6bba           	move.d [r10+8],r11
    1756:	6dce                	move.d [r13+],r12
    1758:	3fbd 6417 0000      	jsr 1764 <__vfprintf_r>
    175e:	3ebe                	pop srp
    1760:	7fb6                	ret 
    1762:	10e2                	addq 16,sp

00001764 <__vfprintf_r>:
    1764:	84e2                	subq 4,sp
    1766:	7eba                	move srp,[sp]
    1768:	9fec 4605           	subu.w 0x546,sp
    176c:	fe8b                	movem r8,[sp]
    176e:	90e2                	subq 16,sp
    1770:	6a36                	move.d r10,r3
    1772:	6b16                	move.d r11,r1
    1774:	6c26                	move.d r12,r2
    1776:	54e1 eddb           	move.d r13,[sp+84]
    177a:	3fbd 0e53 0000      	jsr 530e <__localeconv_r>
    1780:	3aba                	move [r10],srp
    1782:	68e1 70ba           	move srp,[sp+104]
    1786:	7ab6                	move srp,r10
    1788:	3fbd 1c6a 0000      	jsr 6a1c <_strlen>
    178e:	7ce1 eaab           	move.d r10,[sp+124]
    1792:	6336                	test.d r3
    1794:	0c30                	beq 17a2 <__vfprintf_r+0x3e>
    1796:	0f05                	nop 
    1798:	3531 a00b           	test.d [r3+53]
    179c:	ff3d f006           	beq 1e90 <__vfprintf_r+0x72c>
    17a0:	63a6                	move.d r3,r10
    17a2:	0c11 599a           	move.w [r1+12],r9
    17a6:	8d93                	btstq 13,r9
    17a8:	18b0                	blt 17c2 <__vfprintf_r+0x5e>
    17aa:	0f05                	nop 
    17ac:	5f9f 0020           	or.w 0x2000,r9
    17b0:	0c11 d99b           	move.w r9,[r1+12]
    17b4:	6411 6dda           	move.d [r1+100],r13
    17b8:	2fdf ffdf ffff      	and.d 0xffffdfff,r13
    17be:	6411 eddb           	move.d r13,[r1+100]
    17c2:	8393                	btstq 3,r9
    17c4:	ffad aa05           	bge 1d72 <__vfprintf_r+0x60e>
    17c8:	63a6                	move.d r3,r10
    17ca:	1011 a00b           	test.d [r1+16]
    17ce:	ff3d a005           	beq 1d72 <__vfprintf_r+0x60e>
    17d2:	59d6                	move.w r9,r13
    17d4:	1ad3                	andq 26,r13
    17d6:	dfde 0a00           	cmp.w 0xa,r13
    17da:	ff3d b405           	beq 1d92 <__vfprintf_r+0x62e>
    17de:	0f05                	nop 
    17e0:	5fac 5601           	movu.w 0x156,r10
    17e4:	2ea6                	add.d sp,r10
    17e6:	5fed ba00 eaab      	move.d r10,[sp+186]
    17ec:	5fed c200 708a      	clear.d [sp+194]
    17f2:	5fed be00 708a      	clear.d [sp+190]
    17f8:	6ce1 708a           	clear.d [sp+108]
    17fc:	74e1 708a           	clear.d [sp+116]
    1800:	78e1 708a           	clear.d [sp+120]
    1804:	64e1 708a           	clear.d [sp+100]
    1808:	5fed 8000 708a      	clear.d [sp+128]
    180e:	4ce1 708a           	clear.d [sp+76]
    1812:	6a96                	move.d r10,r9
    1814:	4fbc b300           	movu.b 0xb3,r11
    1818:	2eb6                	add.d sp,r11
    181a:	5fed 8800 ebbb      	move.d r11,[sp+136]
    1820:	6ec6                	move.d sp,r12
    1822:	0fcc ee00           	addu.b 0xee,r12
    1826:	3ce1 eccb           	move.d r12,[sp+60]
    182a:	6ed6                	move.d sp,r13
    182c:	0fdc ed00           	addu.b 0xed,r13
    1830:	38e1 eddb           	move.d r13,[sp+56]
    1834:	adc6                	sub.d r13,r12
    1836:	5fed 8400 eccb      	move.d r12,[sp+132]
    183c:	42da                	move.b [r2],r13
    183e:	4dd6                	test.b r13
    1840:	5830                	beq 189a <__vfprintf_r+0x136>
    1842:	6206                	move.d r2,r0
    1844:	cfde 2500           	cmp.b 0x25,r13
    1848:	5030                	beq 189a <__vfprintf_r+0x136>
    184a:	6206                	move.d r2,r0
    184c:	62c6                	move.d r2,r12
    184e:	0ae0                	ba 185a <__vfprintf_r+0xf6>
    1850:	01c2                	addq 1,r12
    1852:	cfde 2500           	cmp.b 0x25,r13
    1856:	0c30                	beq 1864 <__vfprintf_r+0x100>
    1858:	6046                	move.d r0,r4
    185a:	6c06                	move.d r12,r0
    185c:	4cda                	move.b [r12],r13
    185e:	f320                	bne 1852 <__vfprintf_r+0xee>
    1860:	01c2                	addq 1,r12
    1862:	6046                	move.d r0,r4
    1864:	a246                	sub.d r2,r4
    1866:	3230                	beq 189a <__vfprintf_r+0x136>
    1868:	0f05                	nop 
    186a:	e92b                	move.d r2,[r9]
    186c:	0491 e44b           	move.d r4,[r9+4]
    1870:	5fed c200 2d4a      	add.d [sp+194],r4,r13
    1876:	5fed c200 eddb      	move.d r13,[sp+194]
    187c:	5fed be00 6dda      	move.d [sp+190],r13
    1882:	01d2                	addq 1,r13
    1884:	5fed be00 eddb      	move.d r13,[sp+190]
    188a:	c7d2                	cmpq 7,r13
    188c:	ffcd e005           	bgt 1e70 <__vfprintf_r+0x70c>
    1890:	0892                	addq 8,r9
    1892:	4ce1 244a           	add.d [sp+76],r4
    1896:	4ce1 e44b           	move.d r4,[sp+76]
    189a:	800b                	test.b [r0]
    189c:	ff3d 9c05           	beq 1e3c <__vfprintf_r+0x6d8>
    18a0:	6026                	move.d r0,r2
    18a2:	0122                	addq 1,r2
    18a4:	5fed 9500 700a      	clear.b [sp+149]
    18aa:	0101 4dda           	move.b [r0+1],r13
    18ae:	7c06                	clear.b r12
    18b0:	7f82                	moveq -1,r8
    18b2:	58e1 708a           	clear.d [sp+88]
    18b6:	7586                	clear.d r5
    18b8:	6d64                	movs.b r13,r6
    18ba:	0122                	addq 1,r2
    18bc:	66d6                	move.d r6,r13
    18be:	a0d2                	subq 32,r13
    18c0:	cfdd 5900           	bound.b 0x59,r13
    18c4:	5fd5 3ff8           	adds.w [pc+r13.w],pc
    18c8:	c006                	case 32: -> 1f88 <__vfprintf_r+0x824>
    18ca:	8a06                	case 33: -> 1f52 <__vfprintf_r+0x7ee>
    18cc:	8a06                	case 34: -> 1f52 <__vfprintf_r+0x7ee>
    18ce:	8206                	case 35: -> 1f4a <__vfprintf_r+0x7e6>
    18d0:	8a06                	case 36: -> 1f52 <__vfprintf_r+0x7ee>
    18d2:	8a06                	case 37: -> 1f52 <__vfprintf_r+0x7ee>
    18d4:	8a06                	case 38: -> 1f52 <__vfprintf_r+0x7ee>
    18d6:	8a06                	case 39: -> 1f52 <__vfprintf_r+0x7ee>
    18d8:	8a06                	case 40: -> 1f52 <__vfprintf_r+0x7ee>
    18da:	8a06                	case 41: -> 1f52 <__vfprintf_r+0x7ee>
    18dc:	e606                	case 42: -> 1fae <__vfprintf_r+0x84a>
    18de:	d206                	case 43: -> 1f9a <__vfprintf_r+0x836>
    18e0:	8a06                	case 44: -> 1f52 <__vfprintf_r+0x7ee>
    18e2:	a204                	case 45: -> 1d6a <__vfprintf_r+0x606>
    18e4:	e408                	case 46: -> 21ac <__vfprintf_r+0xa48>
    18e6:	8a06                	case 47: -> 1f52 <__vfprintf_r+0x7ee>
    18e8:	dc06                	case 48: -> 1fa4 <__vfprintf_r+0x840>
    18ea:	0607                	case 49: -> 1fce <__vfprintf_r+0x86a>
    18ec:	0607                	case 50: -> 1fce <__vfprintf_r+0x86a>
    18ee:	0607                	case 51: -> 1fce <__vfprintf_r+0x86a>
    18f0:	0607                	case 52: -> 1fce <__vfprintf_r+0x86a>
    18f2:	0607                	case 53: -> 1fce <__vfprintf_r+0x86a>
    18f4:	0607                	case 54: -> 1fce <__vfprintf_r+0x86a>
    18f6:	0607                	case 55: -> 1fce <__vfprintf_r+0x86a>
    18f8:	0607                	case 56: -> 1fce <__vfprintf_r+0x86a>
    18fa:	0607                	case 57: -> 1fce <__vfprintf_r+0x86a>
    18fc:	8a06                	case 58: -> 1f52 <__vfprintf_r+0x7ee>
    18fe:	8a06                	case 59: -> 1f52 <__vfprintf_r+0x7ee>
    1900:	8a06                	case 60: -> 1f52 <__vfprintf_r+0x7ee>
    1902:	8a06                	case 61: -> 1f52 <__vfprintf_r+0x7ee>
    1904:	8a06                	case 62: -> 1f52 <__vfprintf_r+0x7ee>
    1906:	8a06                	case 63: -> 1f52 <__vfprintf_r+0x7ee>
    1908:	8a06                	case 64: -> 1f52 <__vfprintf_r+0x7ee>
    190a:	8a06                	case 65: -> 1f52 <__vfprintf_r+0x7ee>
    190c:	8a06                	case 66: -> 1f52 <__vfprintf_r+0x7ee>
    190e:	8a06                	case 67: -> 1f52 <__vfprintf_r+0x7ee>
    1910:	bc09                	case 68: -> 2284 <__vfprintf_r+0xb20>
    1912:	1c09                	case 69: -> 21e4 <__vfprintf_r+0xa80>
    1914:	8a06                	case 70: -> 1f52 <__vfprintf_r+0x7ee>
    1916:	1c09                	case 71: -> 21e4 <__vfprintf_r+0xa80>
    1918:	8a06                	case 72: -> 1f52 <__vfprintf_r+0x7ee>
    191a:	8a06                	case 73: -> 1f52 <__vfprintf_r+0x7ee>
    191c:	8a06                	case 74: -> 1f52 <__vfprintf_r+0x7ee>
    191e:	8a06                	case 75: -> 1f52 <__vfprintf_r+0x7ee>
    1920:	b409                	case 76: -> 227c <__vfprintf_r+0xb18>
    1922:	8a06                	case 77: -> 1f52 <__vfprintf_r+0x7ee>
    1924:	8a06                	case 78: -> 1f52 <__vfprintf_r+0x7ee>
    1926:	e600                	case 79: -> 19ae <__vfprintf_r+0x24a>
    1928:	8a06                	case 80: -> 1f52 <__vfprintf_r+0x7ee>
    192a:	8a06                	case 81: -> 1f52 <__vfprintf_r+0x7ee>
    192c:	8a06                	case 82: -> 1f52 <__vfprintf_r+0x7ee>
    192e:	8a06                	case 83: -> 1f52 <__vfprintf_r+0x7ee>
    1930:	8a06                	case 84: -> 1f52 <__vfprintf_r+0x7ee>
    1932:	b400                	case 85: -> 197c <__vfprintf_r+0x218>
    1934:	8a06                	case 86: -> 1f52 <__vfprintf_r+0x7ee>
    1936:	8a06                	case 87: -> 1f52 <__vfprintf_r+0x7ee>
    1938:	6c07                	case 88: -> 2034 <__vfprintf_r+0x8d0>
    193a:	8a06                	case 89: -> 1f52 <__vfprintf_r+0x7ee>
    193c:	8a06                	case 90: -> 1f52 <__vfprintf_r+0x7ee>
    193e:	8a06                	case 91: -> 1f52 <__vfprintf_r+0x7ee>
    1940:	8a06                	case 92: -> 1f52 <__vfprintf_r+0x7ee>
    1942:	8a06                	case 93: -> 1f52 <__vfprintf_r+0x7ee>
    1944:	8a06                	case 94: -> 1f52 <__vfprintf_r+0x7ee>
    1946:	8a06                	case 95: -> 1f52 <__vfprintf_r+0x7ee>
    1948:	8a06                	case 96: -> 1f52 <__vfprintf_r+0x7ee>
    194a:	8a06                	case 97: -> 1f52 <__vfprintf_r+0x7ee>
    194c:	8a06                	case 98: -> 1f52 <__vfprintf_r+0x7ee>
    194e:	b007                	case 99: -> 2078 <__vfprintf_r+0x914>
    1950:	ea07                	case 100: -> 20b2 <__vfprintf_r+0x94e>
    1952:	1c09                	case 101: -> 21e4 <__vfprintf_r+0xa80>
    1954:	1c09                	case 102: -> 21e4 <__vfprintf_r+0xa80>
    1956:	1c09                	case 103: -> 21e4 <__vfprintf_r+0xa80>
    1958:	2808                	case 104: -> 20f0 <__vfprintf_r+0x98c>
    195a:	ea07                	case 105: -> 20b2 <__vfprintf_r+0x94e>
    195c:	8a06                	case 106: -> 1f52 <__vfprintf_r+0x7ee>
    195e:	8a06                	case 107: -> 1f52 <__vfprintf_r+0x7ee>
    1960:	3208                	case 108: -> 20fa <__vfprintf_r+0x996>
    1962:	8a06                	case 109: -> 1f52 <__vfprintf_r+0x7ee>
    1964:	4408                	case 110: -> 210c <__vfprintf_r+0x9a8>
    1966:	e800                	case 111: -> 19b0 <__vfprintf_r+0x24c>
    1968:	2a07                	case 112: -> 1ff2 <__vfprintf_r+0x88e>
    196a:	aa09                	case 113: -> 2272 <__vfprintf_r+0xb0e>
    196c:	8a06                	case 114: -> 1f52 <__vfprintf_r+0x7ee>
    196e:	7a08                	case 115: -> 2142 <__vfprintf_r+0x9de>
    1970:	8a06                	case 116: -> 1f52 <__vfprintf_r+0x7ee>
    1972:	b600                	case 117: -> 197e <__vfprintf_r+0x21a>
    1974:	8a06                	case 118: -> 1f52 <__vfprintf_r+0x7ee>
    1976:	8a06                	case 119: -> 1f52 <__vfprintf_r+0x7ee>
    1978:	2006                	case 120: -> 1ee8 <__vfprintf_r+0x784>
    197a:	8a06                	case 121/default: -> 1f52 <__vfprintf_r+0x7ee>
    197c:	5053                	orq 16,r5
    197e:	8553                	btstq 5,r5
    1980:	ffbd 4205           	blt 1ec6 <__vfprintf_r+0x762>
    1984:	8453                	btstq 4,r5
    1986:	ffbd 3609           	blt 22c0 <__vfprintf_r+0xb5c>
    198a:	8653                	btstq 6,r5
    198c:	ffad 3009           	bge 22c0 <__vfprintf_r+0xb5c>
    1990:	0f05                	nop 
    1992:	54e1 6bba           	move.d [sp+84],r11
    1996:	5bb8                	movu.w [r11],r11
    1998:	40e1 ebbb           	move.d r11,[sp+64]
    199c:	44e1 708a           	clear.d [sp+68]
    19a0:	54e1 6cca           	move.d [sp+84],r12
    19a4:	04c2                	addq 4,r12
    19a6:	54e1 eccb           	move.d r12,[sp+84]
    19aa:	2ae0                	ba 19d6 <__vfprintf_r+0x272>
    19ac:	41d2                	moveq 1,r13
    19ae:	5053                	orq 16,r5
    19b0:	8553                	btstq 5,r5
    19b2:	ffad e604           	bge 1e9c <__vfprintf_r+0x738>
    19b6:	8453                	btstq 4,r5
    19b8:	54e1 6bba           	move.d [sp+84],r11
    19bc:	6baa                	move.d [r11],r10
    19be:	04b1 6bba           	move.d [r11+4],r11
    19c2:	40e1 eaab           	move.d r10,[sp+64]
    19c6:	44e1 ebbb           	move.d r11,[sp+68]
    19ca:	54e1 6cca           	move.d [sp+84],r12
    19ce:	08c2                	addq 8,r12
    19d0:	54e1 eccb           	move.d r12,[sp+84]
    19d4:	7d06                	clear.b r13
    19d6:	5fed 9500 700a      	clear.b [sp+149]
    19dc:	7006                	clear.b r0
    19de:	6886                	test.d r8
    19e0:	08b0                	blt 19ea <__vfprintf_r+0x286>
    19e2:	0f05                	nop 
    19e4:	2f5f 7fff ffff      	and.d 0xffffff7f,r5
    19ea:	40e1 a00b           	test.d [sp+64]
    19ee:	b015                	ax 
    19f0:	44e1 a00b           	test.d [sp+68]
    19f4:	ff2d 6e09           	bne 2366 <__vfprintf_r+0xc02>
    19f8:	6886                	test.d r8
    19fa:	ff2d 6809           	bne 2366 <__vfprintf_r+0xc02>
    19fe:	4dd6                	test.b r13
    1a00:	ff2d b80d           	bne 27bc <__vfprintf_r+0x1058>
    1a04:	8053                	btstq 0,r5
    1a06:	ffad b20d           	bge 27bc <__vfprintf_r+0x1058>
    1a0a:	0f05                	nop 
    1a0c:	4fce 3000           	move.b 0x30,r12
    1a10:	5fed ed00 cccb      	move.b r12,[sp+237]
    1a16:	5fed 8400 6dda      	move.d [sp+132],r13
    1a1c:	50e1 eddb           	move.d r13,[sp+80]
    1a20:	6e46                	move.d sp,r4
    1a22:	0f4c ed00           	addu.b 0xed,r4
    1a26:	50e1 6dda           	move.d [sp+80],r13
    1a2a:	48e1 eddb           	move.d r13,[sp+72]
    1a2e:	e8d6                	cmp.d r8,r13
    1a30:	06a0                	bge 1a38 <__vfprintf_r+0x2d4>
    1a32:	0f05                	nop 
    1a34:	48e1 e88b           	move.d r8,[sp+72]
    1a38:	60e1 e88b           	move.d r8,[sp+96]
    1a3c:	70e1 708a           	clear.d [sp+112]
    1a40:	4006                	test.b r0
    1a42:	0e30                	beq 1a52 <__vfprintf_r+0x2ee>
    1a44:	6586                	move.d r5,r8
    1a46:	48e1 6bba           	move.d [sp+72],r11
    1a4a:	01b2                	addq 1,r11
    1a4c:	48e1 ebbb           	move.d r11,[sp+72]
    1a50:	6586                	move.d r5,r8
    1a52:	0283                	andq 2,r8
    1a54:	0c30                	beq 1a62 <__vfprintf_r+0x2fe>
    1a56:	45d4                	movu.b r5,r13
    1a58:	48e1 6cca           	move.d [sp+72],r12
    1a5c:	02c2                	addq 2,r12
    1a5e:	48e1 eccb           	move.d r12,[sp+72]
    1a62:	0fdf 84ff           	and.b 0xff84,r13
    1a66:	5ce1 eddb           	move.d r13,[sp+92]
    1a6a:	6dd6                	test.d r13
    1a6c:	a620                	bne 1b14 <__vfprintf_r+0x3b0>
    1a6e:	0f05                	nop 
    1a70:	58e1 677a           	move.d [sp+88],r7
    1a74:	48e1 a77a           	sub.d [sp+72],r7
    1a78:	6776                	test.d r7
    1a7a:	98d0                	ble 1b14 <__vfprintf_r+0x3b0>
    1a7c:	0f05                	nop 
    1a7e:	5fed be00 600a      	move.d [sp+190],r0
    1a84:	d072                	cmpq 16,r7
    1a86:	0ec0                	bgt 1a96 <__vfprintf_r+0x332>
    1a88:	0f05                	nop 
    1a8a:	5ae0                	ba 1ae6 <__vfprintf_r+0x382>
    1a8c:	0f05                	nop 
    1a8e:	9072                	subq 16,r7
    1a90:	d072                	cmpq 16,r7
    1a92:	52d0                	ble 1ae6 <__vfprintf_r+0x382>
    1a94:	0892                	addq 8,r9
    1a96:	6fae 2eac 0000      	move.d ac2e <_blanks.4006>,r10
    1a9c:	e9ab                	move.d r10,[r9]
    1a9e:	50b2                	moveq 16,r11
    1aa0:	0491 ebbb           	move.d r11,[r9+4]
    1aa4:	5fed c200 2cba      	add.d [sp+194],r11,r12
    1aaa:	5fed c200 eccb      	move.d r12,[sp+194]
    1ab0:	0102                	addq 1,r0
    1ab2:	5fed be00 e00b      	move.d r0,[sp+190]
    1ab8:	c702                	cmpq 7,r0
    1aba:	d3d0                	ble 1a8e <__vfprintf_r+0x32a>
    1abc:	63a6                	move.d r3,r10
    1abe:	61b6                	move.d r1,r11
    1ac0:	6ec6                	move.d sp,r12
    1ac2:	0fcc ba00           	addu.b 0xba,r12
    1ac6:	3fbd 8c6a 0000      	jsr 6a8c <___sprint_r>
    1acc:	6aa6                	test.d r10
    1ace:	ff2d 8203           	bne 1e54 <__vfprintf_r+0x6f0>
    1ad2:	6e96                	move.d sp,r9
    1ad4:	1f9c 5601           	addu.w 0x156,r9
    1ad8:	5fed be00 600a      	move.d [sp+190],r0
    1ade:	9072                	subq 16,r7
    1ae0:	d072                	cmpq 16,r7
    1ae2:	b3c0                	bgt 1a96 <__vfprintf_r+0x332>
    1ae4:	0f05                	nop 
    1ae6:	6fce 2eac 0000      	move.d ac2e <_blanks.4006>,r12
    1aec:	e9cb                	move.d r12,[r9]
    1aee:	0491 e77b           	move.d r7,[r9+4]
    1af2:	5fed c200 2c7a      	add.d [sp+194],r7,r12
    1af8:	5fed c200 eccb      	move.d r12,[sp+194]
    1afe:	0102                	addq 1,r0
    1b00:	5fed be00 e00b      	move.d r0,[sp+190]
    1b06:	c702                	cmpq 7,r0
    1b08:	ffcd 900d           	bgt 289c <__vfprintf_r+0x1138>
    1b0c:	0892                	addq 8,r9
    1b0e:	5fed 9500 400a      	move.b [sp+149],r0
    1b14:	4006                	test.b r0
    1b16:	3230                	beq 1b4a <__vfprintf_r+0x3e6>
    1b18:	6ed6                	move.d sp,r13
    1b1a:	0fdc 9500           	addu.b 0x95,r13
    1b1e:	e9db                	move.d r13,[r9]
    1b20:	41d2                	moveq 1,r13
    1b22:	0491 eddb           	move.d r13,[r9+4]
    1b26:	5fed c200 6dda      	move.d [sp+194],r13
    1b2c:	01d2                	addq 1,r13
    1b2e:	5fed c200 eddb      	move.d r13,[sp+194]
    1b34:	5fed be00 6dda      	move.d [sp+190],r13
    1b3a:	01d2                	addq 1,r13
    1b3c:	5fed be00 eddb      	move.d r13,[sp+190]
    1b42:	c7d2                	cmpq 7,r13
    1b44:	ffcd fc0b           	bgt 2744 <__vfprintf_r+0xfe0>
    1b48:	0892                	addq 8,r9
    1b4a:	6886                	test.d r8
    1b4c:	3030                	beq 1b7e <__vfprintf_r+0x41a>
    1b4e:	6ed6                	move.d sp,r13
    1b50:	0fdc 9600           	addu.b 0x96,r13
    1b54:	e9db                	move.d r13,[r9]
    1b56:	42a2                	moveq 2,r10
    1b58:	0491 eaab           	move.d r10,[r9+4]
    1b5c:	5fed c200 2daa      	add.d [sp+194],r10,r13
    1b62:	5fed c200 eddb      	move.d r13,[sp+194]
    1b68:	5fed be00 6dda      	move.d [sp+190],r13
    1b6e:	01d2                	addq 1,r13
    1b70:	5fed be00 eddb      	move.d r13,[sp+190]
    1b76:	c7d2                	cmpq 7,r13
    1b78:	ffcd ea0b           	bgt 2766 <__vfprintf_r+0x1002>
    1b7c:	0892                	addq 8,r9
    1b7e:	5ce1 6dda           	move.d [sp+92],r13
    1b82:	cfdc 8000           	cmpu.b 0x80,r13
    1b86:	ff3d ae09           	beq 2538 <__vfprintf_r+0xdd4>
    1b8a:	0f05                	nop 
    1b8c:	60e1 6dda           	move.d [sp+96],r13
    1b90:	50e1 adda           	sub.d [sp+80],r13
    1b94:	6dd6                	test.d r13
    1b96:	92d0                	ble 1c2a <__vfprintf_r+0x4c6>
    1b98:	6d86                	move.d r13,r8
    1b9a:	5fed be00 600a      	move.d [sp+190],r0
    1ba0:	d0d2                	cmpq 16,r13
    1ba2:	0ec0                	bgt 1bb2 <__vfprintf_r+0x44e>
    1ba4:	0f05                	nop 
    1ba6:	5ae0                	ba 1c02 <__vfprintf_r+0x49e>
    1ba8:	0f05                	nop 
    1baa:	9082                	subq 16,r8
    1bac:	d082                	cmpq 16,r8
    1bae:	52d0                	ble 1c02 <__vfprintf_r+0x49e>
    1bb0:	0892                	addq 8,r9
    1bb2:	6fae 3eac 0000      	move.d ac3e <_zeroes.4007>,r10
    1bb8:	e9ab                	move.d r10,[r9]
    1bba:	50b2                	moveq 16,r11
    1bbc:	0491 ebbb           	move.d r11,[r9+4]
    1bc0:	5fed c200 2dba      	add.d [sp+194],r11,r13
    1bc6:	5fed c200 eddb      	move.d r13,[sp+194]
    1bcc:	0102                	addq 1,r0
    1bce:	5fed be00 e00b      	move.d r0,[sp+190]
    1bd4:	c702                	cmpq 7,r0
    1bd6:	d3d0                	ble 1baa <__vfprintf_r+0x446>
    1bd8:	63a6                	move.d r3,r10
    1bda:	61b6                	move.d r1,r11
    1bdc:	6ec6                	move.d sp,r12
    1bde:	0fcc ba00           	addu.b 0xba,r12
    1be2:	3fbd 8c6a 0000      	jsr 6a8c <___sprint_r>
    1be8:	6aa6                	test.d r10
    1bea:	ff2d 6602           	bne 1e54 <__vfprintf_r+0x6f0>
    1bee:	6e96                	move.d sp,r9
    1bf0:	1f9c 5601           	addu.w 0x156,r9
    1bf4:	5fed be00 600a      	move.d [sp+190],r0
    1bfa:	9082                	subq 16,r8
    1bfc:	d082                	cmpq 16,r8
    1bfe:	b3c0                	bgt 1bb2 <__vfprintf_r+0x44e>
    1c00:	0f05                	nop 
    1c02:	6fce 3eac 0000      	move.d ac3e <_zeroes.4007>,r12
    1c08:	e9cb                	move.d r12,[r9]
    1c0a:	0491 e88b           	move.d r8,[r9+4]
    1c0e:	5fed c200 2d8a      	add.d [sp+194],r8,r13
    1c14:	5fed c200 eddb      	move.d r13,[sp+194]
    1c1a:	0102                	addq 1,r0
    1c1c:	5fed be00 e00b      	move.d r0,[sp+190]
    1c22:	c702                	cmpq 7,r0
    1c24:	ffcd fa0a           	bgt 2722 <__vfprintf_r+0xfbe>
    1c28:	0892                	addq 8,r9
    1c2a:	8853                	btstq 8,r5
    1c2c:	ffbd f607           	blt 2426 <__vfprintf_r+0xcc2>
    1c30:	0f05                	nop 
    1c32:	e94b                	move.d r4,[r9]
    1c34:	50e1 6dda           	move.d [sp+80],r13
    1c38:	0491 eddb           	move.d r13,[r9+4]
    1c3c:	5fed c200 6dda      	move.d [sp+194],r13
    1c42:	50e1 2dda           	add.d [sp+80],r13
    1c46:	5fed c200 eddb      	move.d r13,[sp+194]
    1c4c:	5fed be00 6dda      	move.d [sp+190],r13
    1c52:	01d2                	addq 1,r13
    1c54:	5fed be00 eddb      	move.d r13,[sp+190]
    1c5a:	c7d2                	cmpq 7,r13
    1c5c:	ffcd e606           	bgt 2346 <__vfprintf_r+0xbe2>
    1c60:	63a6                	move.d r3,r10
    1c62:	0892                	addq 8,r9
    1c64:	8253                	btstq 2,r5
    1c66:	b4a0                	bge 1d1c <__vfprintf_r+0x5b8>
    1c68:	0f05                	nop 
    1c6a:	58e1 644a           	move.d [sp+88],r4
    1c6e:	48e1 a44a           	sub.d [sp+72],r4
    1c72:	6446                	test.d r4
    1c74:	a6d0                	ble 1d1c <__vfprintf_r+0x5b8>
    1c76:	0f05                	nop 
    1c78:	5fed be00 600a      	move.d [sp+190],r0
    1c7e:	d042                	cmpq 16,r4
    1c80:	0ec0                	bgt 1c90 <__vfprintf_r+0x52c>
    1c82:	0f05                	nop 
    1c84:	5ae0                	ba 1ce0 <__vfprintf_r+0x57c>
    1c86:	0f05                	nop 
    1c88:	9042                	subq 16,r4
    1c8a:	d042                	cmpq 16,r4
    1c8c:	52d0                	ble 1ce0 <__vfprintf_r+0x57c>
    1c8e:	0892                	addq 8,r9
    1c90:	6fae 2eac 0000      	move.d ac2e <_blanks.4006>,r10
    1c96:	e9ab                	move.d r10,[r9]
    1c98:	50b2                	moveq 16,r11
    1c9a:	0491 ebbb           	move.d r11,[r9+4]
    1c9e:	5fed c200 2dba      	add.d [sp+194],r11,r13
    1ca4:	5fed c200 eddb      	move.d r13,[sp+194]
    1caa:	0102                	addq 1,r0
    1cac:	5fed be00 e00b      	move.d r0,[sp+190]
    1cb2:	c702                	cmpq 7,r0
    1cb4:	d3d0                	ble 1c88 <__vfprintf_r+0x524>
    1cb6:	63a6                	move.d r3,r10
    1cb8:	61b6                	move.d r1,r11
    1cba:	6ec6                	move.d sp,r12
    1cbc:	0fcc ba00           	addu.b 0xba,r12
    1cc0:	3fbd 8c6a 0000      	jsr 6a8c <___sprint_r>
    1cc6:	6aa6                	test.d r10
    1cc8:	ff2d 8801           	bne 1e54 <__vfprintf_r+0x6f0>
    1ccc:	6e96                	move.d sp,r9
    1cce:	1f9c 5601           	addu.w 0x156,r9
    1cd2:	5fed be00 600a      	move.d [sp+190],r0
    1cd8:	9042                	subq 16,r4
    1cda:	d042                	cmpq 16,r4
    1cdc:	b3c0                	bgt 1c90 <__vfprintf_r+0x52c>
    1cde:	0f05                	nop 
    1ce0:	6fce 2eac 0000      	move.d ac2e <_blanks.4006>,r12
    1ce6:	e9cb                	move.d r12,[r9]
    1ce8:	0491 e44b           	move.d r4,[r9+4]
    1cec:	5fed c200 244a      	add.d [sp+194],r4
    1cf2:	5fed c200 e44b      	move.d r4,[sp+194]
    1cf8:	0102                	addq 1,r0
    1cfa:	5fed be00 e00b      	move.d r0,[sp+190]
    1d00:	c702                	cmpq 7,r0
    1d02:	1ed0                	ble 1d22 <__vfprintf_r+0x5be>
    1d04:	63a6                	move.d r3,r10
    1d06:	61b6                	move.d r1,r11
    1d08:	6ec6                	move.d sp,r12
    1d0a:	0fcc ba00           	addu.b 0xba,r12
    1d0e:	3fbd 8c6a 0000      	jsr 6a8c <___sprint_r>
    1d14:	6aa6                	test.d r10
    1d16:	ff2d 3a01           	bne 1e54 <__vfprintf_r+0x6f0>
    1d1a:	0f05                	nop 
    1d1c:	5fed c200 644a      	move.d [sp+194],r4
    1d22:	48e1 699a           	move.d [sp+72],r9
    1d26:	58e1 e99a           	cmp.d [sp+88],r9
    1d2a:	06a0                	bge 1d32 <__vfprintf_r+0x5ce>
    1d2c:	0f05                	nop 
    1d2e:	58e1 699a           	move.d [sp+88],r9
    1d32:	4ce1 299a           	add.d [sp+76],r9
    1d36:	4ce1 e99b           	move.d r9,[sp+76]
    1d3a:	6446                	test.d r4
    1d3c:	ff2d c609           	bne 2706 <__vfprintf_r+0xfa2>
    1d40:	63a6                	move.d r3,r10
    1d42:	5fed be00 708a      	clear.d [sp+190]
    1d48:	6e96                	move.d sp,r9
    1d4a:	1f9c 5601           	addu.w 0x156,r9
    1d4e:	42da                	move.b [r2],r13
    1d50:	ff2d f0fa           	bne 1844 <__vfprintf_r+0xe0>
    1d54:	6206                	move.d r2,r0
    1d56:	ffed 40fb           	ba 189a <__vfprintf_r+0x136>
    1d5a:	0f05                	nop 
    1d5c:	58e1 6aaa           	move.d [sp+88],r10
    1d60:	aaa5                	neg.d r10,r10
    1d62:	58e1 eaab           	move.d r10,[sp+88]
    1d66:	54e1 ebbb           	move.d r11,[sp+84]
    1d6a:	4453                	orq 4,r5
    1d6c:	ffed 48fb           	ba 18b8 <__vfprintf_r+0x154>
    1d70:	42da                	move.b [r2],r13
    1d72:	61b6                	move.d r1,r11
    1d74:	3fbd 6434 0000      	jsr 3464 <___swsetup_r>
    1d7a:	6aa6                	test.d r10
    1d7c:	e020                	bne 1e5e <__vfprintf_r+0x6fa>
    1d7e:	7f92                	moveq -1,r9
    1d80:	0c11 599a           	move.w [r1+12],r9
    1d84:	59d6                	move.w r9,r13
    1d86:	1ad3                	andq 26,r13
    1d88:	dfde 0a00           	cmp.w 0xa,r13
    1d8c:	ff2d 50fa           	bne 17e0 <__vfprintf_r+0x7c>
    1d90:	0f05                	nop 
    1d92:	0e11 5dda           	move.w [r1+14],r13
    1d96:	ffbd 46fa           	blt 17e0 <__vfprintf_r+0x7c>
    1d9a:	3d93                	andq -3,r9
    1d9c:	5fed fa00 d99b      	move.w r9,[sp+250]
    1da2:	6411 6aaa           	move.d [r1+100],r10
    1da6:	5fed 5201 eaab      	move.d r10,[sp+338]
    1dac:	5fed fc00 dddb      	move.w r13,[sp+252]
    1db2:	1c11 6bba           	move.d [r1+28],r11
    1db6:	5fed 0a01 ebbb      	move.d r11,[sp+266]
    1dbc:	2411 6cca           	move.d [r1+36],r12
    1dc0:	5fed 1201 eccb      	move.d r12,[sp+274]
    1dc6:	6e96                	move.d sp,r9
    1dc8:	1f9c 5601           	addu.w 0x156,r9
    1dcc:	5fed ee00 e99b      	move.d r9,[sp+238]
    1dd2:	5fed fe00 e99b      	move.d r9,[sp+254]
    1dd8:	5fdc 0004           	movu.w 0x400,r13
    1ddc:	5fed f600 eddb      	move.d r13,[sp+246]
    1de2:	5fed 0201 eddb      	move.d r13,[sp+258]
    1de8:	5fed 0601 708a      	clear.d [sp+262]
    1dee:	63a6                	move.d r3,r10
    1df0:	6eb6                	move.d sp,r11
    1df2:	0fbc ee00           	addu.b 0xee,r11
    1df6:	62c6                	move.d r2,r12
    1df8:	54e1 6dda           	move.d [sp+84],r13
    1dfc:	3fbd 6417 0000      	jsr 1764 <__vfprintf_r>
    1e02:	4ce1 eaab           	move.d r10,[sp+76]
    1e06:	6aa6                	test.d r10
    1e08:	16b0                	blt 1e20 <__vfprintf_r+0x6bc>
    1e0a:	63a6                	move.d r3,r10
    1e0c:	6eb6                	move.d sp,r11
    1e0e:	0fbc ee00           	addu.b 0xee,r11
    1e12:	3fbd 144c 0000      	jsr 4c14 <__fflush_r>
    1e18:	6aa6                	test.d r10
    1e1a:	ff2d 9c15           	bne 33ba <__vfprintf_r+0x1c56>
    1e1e:	7f92                	moveq -1,r9
    1e20:	5fed fa00 599a      	move.w [sp+250],r9
    1e26:	8693                	btstq 6,r9
    1e28:	38a0                	bge 1e62 <__vfprintf_r+0x6fe>
    1e2a:	0f05                	nop 
    1e2c:	0c11 599a           	move.w [r1+12],r9
    1e30:	5f9f 4000           	or.w 0x40,r9
    1e34:	0c11 d99b           	move.w r9,[r1+12]
    1e38:	28e0                	ba 1e62 <__vfprintf_r+0x6fe>
    1e3a:	0f05                	nop 
    1e3c:	5fed c200 a00b      	test.d [sp+194]
    1e42:	1030                	beq 1e54 <__vfprintf_r+0x6f0>
    1e44:	63a6                	move.d r3,r10
    1e46:	61b6                	move.d r1,r11
    1e48:	6ec6                	move.d sp,r12
    1e4a:	0fcc ba00           	addu.b 0xba,r12
    1e4e:	3fbd 8c6a 0000      	jsr 6a8c <___sprint_r>
    1e54:	0c11 599a           	move.w [r1+12],r9
    1e58:	8693                	btstq 6,r9
    1e5a:	06a0                	bge 1e62 <__vfprintf_r+0x6fe>
    1e5c:	7f92                	moveq -1,r9
    1e5e:	4ce1 e99b           	move.d r9,[sp+76]
    1e62:	4ce1 6aaa           	move.d [sp+76],r10
    1e66:	10e2                	addq 16,sp
    1e68:	be8f                	movem [sp+],r8
    1e6a:	1fec 2205           	addu.w 0x522,sp
    1e6e:	3e0d                	jump [sp+]
    1e70:	63a6                	move.d r3,r10
    1e72:	61b6                	move.d r1,r11
    1e74:	6ec6                	move.d sp,r12
    1e76:	0fcc ba00           	addu.b 0xba,r12
    1e7a:	3fbd 8c6a 0000      	jsr 6a8c <___sprint_r>
    1e80:	6aa6                	test.d r10
    1e82:	d120                	bne 1e54 <__vfprintf_r+0x6f0>
    1e84:	6e96                	move.d sp,r9
    1e86:	1f9c 5601           	addu.w 0x156,r9
    1e8a:	ffed 04fa           	ba 1892 <__vfprintf_r+0x12e>
    1e8e:	0f05                	nop 
    1e90:	3fbd 684d 0000      	jsr 4d68 <___sinit>
    1e96:	ffed 08f9           	ba 17a2 <__vfprintf_r+0x3e>
    1e9a:	0f05                	nop 
    1e9c:	ffbd 3e04           	blt 22de <__vfprintf_r+0xb7a>
    1ea0:	8653                	btstq 6,r5
    1ea2:	ffad 3804           	bge 22de <__vfprintf_r+0xb7a>
    1ea6:	0f05                	nop 
    1ea8:	54e1 6bba           	move.d [sp+84],r11
    1eac:	5bb8                	movu.w [r11],r11
    1eae:	40e1 ebbb           	move.d r11,[sp+64]
    1eb2:	44e1 708a           	clear.d [sp+68]
    1eb6:	54e1 6cca           	move.d [sp+84],r12
    1eba:	04c2                	addq 4,r12
    1ebc:	54e1 eccb           	move.d r12,[sp+84]
    1ec0:	ffed 12fb           	ba 19d6 <__vfprintf_r+0x272>
    1ec4:	7d06                	clear.b r13
    1ec6:	54e1 6bba           	move.d [sp+84],r11
    1eca:	6baa                	move.d [r11],r10
    1ecc:	04b1 6bba           	move.d [r11+4],r11
    1ed0:	40e1 eaab           	move.d r10,[sp+64]
    1ed4:	44e1 ebbb           	move.d r11,[sp+68]
    1ed8:	54e1 6cca           	move.d [sp+84],r12
    1edc:	08c2                	addq 8,r12
    1ede:	54e1 eccb           	move.d r12,[sp+84]
    1ee2:	ffed f0fa           	ba 19d6 <__vfprintf_r+0x272>
    1ee6:	41d2                	moveq 1,r13
    1ee8:	5fed 9500 cccb      	move.b r12,[sp+149]
    1eee:	6fbe 12ac 0000      	move.d ac12 <__global_impure_ptr+0x28>,r11
    1ef4:	64e1 ebbb           	move.d r11,[sp+100]
    1ef8:	8553                	btstq 5,r5
    1efa:	ffad 4e01           	bge 204c <__vfprintf_r+0x8e8>
    1efe:	0f05                	nop 
    1f00:	54e1 6dda           	move.d [sp+84],r13
    1f04:	6dca                	move.d [r13],r12
    1f06:	04d1 6dda           	move.d [r13+4],r13
    1f0a:	40e1 eccb           	move.d r12,[sp+64]
    1f0e:	44e1 eddb           	move.d r13,[sp+68]
    1f12:	54e1 6aaa           	move.d [sp+84],r10
    1f16:	08a2                	addq 8,r10
    1f18:	54e1 eaab           	move.d r10,[sp+84]
    1f1c:	8053                	btstq 0,r5
    1f1e:	ffad b4fa           	bge 19d6 <__vfprintf_r+0x272>
    1f22:	42d2                	moveq 2,r13
    1f24:	40e1 a00b           	test.d [sp+64]
    1f28:	b015                	ax 
    1f2a:	44e1 a00b           	test.d [sp+68]
    1f2e:	ff3d a4fa           	beq 19d6 <__vfprintf_r+0x272>
    1f32:	0f05                	nop 
    1f34:	4fae 3000           	move.b 0x30,r10
    1f38:	5fed 9600 caab      	move.b r10,[sp+150]
    1f3e:	5fed 9700 c66b      	move.b r6,[sp+151]
    1f44:	ffed 8efa           	ba 19d6 <__vfprintf_r+0x272>
    1f48:	4253                	orq 2,r5
    1f4a:	4153                	orq 1,r5
    1f4c:	ffed 68f9           	ba 18b8 <__vfprintf_r+0x154>
    1f50:	42da                	move.b [r2],r13
    1f52:	5fed 9500 cccb      	move.b r12,[sp+149]
    1f58:	6666                	test.d r6
    1f5a:	ff3d defe           	beq 1e3c <__vfprintf_r+0x6d8>
    1f5e:	41a2                	moveq 1,r10
    1f60:	5fed c600 c66b      	move.b r6,[sp+198]
    1f66:	5fed 9500 700a      	clear.b [sp+149]
    1f6c:	48e1 eaab           	move.d r10,[sp+72]
    1f70:	50e1 eaab           	move.d r10,[sp+80]
    1f74:	60e1 708a           	clear.d [sp+96]
    1f78:	70e1 708a           	clear.d [sp+112]
    1f7c:	6e46                	move.d sp,r4
    1f7e:	0f4c c600           	addu.b 0xc6,r4
    1f82:	ffed cafa           	ba 1a50 <__vfprintf_r+0x2ec>
    1f86:	7006                	clear.b r0
    1f88:	4cc6                	test.b r12
    1f8a:	ff2d 2af9           	bne 18b8 <__vfprintf_r+0x154>
    1f8e:	42da                	move.b [r2],r13
    1f90:	4fce 2000           	move.b 0x20,r12
    1f94:	ffed 22f9           	ba 18ba <__vfprintf_r+0x156>
    1f98:	6d64                	movs.b r13,r6
    1f9a:	4fce 2b00           	move.b 0x2b,r12
    1f9e:	ffed 16f9           	ba 18b8 <__vfprintf_r+0x154>
    1fa2:	42da                	move.b [r2],r13
    1fa4:	4f5f 8000           	or.b 0x80,r5
    1fa8:	ffed 0cf9           	ba 18b8 <__vfprintf_r+0x154>
    1fac:	42da                	move.b [r2],r13
    1fae:	54e1 6bba           	move.d [sp+84],r11
    1fb2:	54e1 6dda           	move.d [sp+84],r13
    1fb6:	6dda                	move.d [r13],r13
    1fb8:	58e1 eddb           	move.d r13,[sp+88]
    1fbc:	ffbd 9cfd           	blt 1d5c <__vfprintf_r+0x5f8>
    1fc0:	04b2                	addq 4,r11
    1fc2:	42da                	move.b [r2],r13
    1fc4:	54e1 ebbb           	move.d r11,[sp+84]
    1fc8:	ffed eef8           	ba 18ba <__vfprintf_r+0x156>
    1fcc:	6d64                	movs.b r13,r6
    1fce:	62a6                	move.d r2,r10
    1fd0:	7b86                	clear.d r11
    1fd2:	66d6                	move.d r6,r13
    1fd4:	b0d2                	subq 48,r13
    1fd6:	2bb5                	addi r11.d,r11
    1fd8:	1db5                	addi r11.w,r13
    1fda:	6db6                	move.d r13,r11
    1fdc:	6a6c                	movs.b [r10+],r6
    1fde:	66d6                	move.d r6,r13
    1fe0:	b0d2                	subq 48,r13
    1fe2:	c9d2                	cmpq 9,r13
    1fe4:	f180                	bls 1fd6 <__vfprintf_r+0x872>
    1fe6:	6a26                	move.d r10,r2
    1fe8:	58e1 ebbb           	move.d r11,[sp+88]
    1fec:	ffed cef8           	ba 18be <__vfprintf_r+0x15a>
    1ff0:	66d6                	move.d r6,r13
    1ff2:	54e1 6bba           	move.d [sp+84],r11
    1ff6:	6bba                	move.d [r11],r11
    1ff8:	40e1 ebbb           	move.d r11,[sp+64]
    1ffc:	44e1 708a           	clear.d [sp+68]
    2000:	4253                	orq 2,r5
    2002:	4fce 3000           	move.b 0x30,r12
    2006:	5fed 9600 cccb      	move.b r12,[sp+150]
    200c:	4fde 7800           	move.b 0x78,r13
    2010:	5fed 9700 cddb      	move.b r13,[sp+151]
    2016:	54e1 6aaa           	move.d [sp+84],r10
    201a:	04a2                	addq 4,r10
    201c:	54e1 eaab           	move.d r10,[sp+84]
    2020:	6fbe 12ac 0000      	move.d ac12 <__global_impure_ptr+0x28>,r11
    2026:	64e1 ebbb           	move.d r11,[sp+100]
    202a:	4f6c 7800           	movu.b 0x78,r6
    202e:	ffed a4f9           	ba 19d6 <__vfprintf_r+0x272>
    2032:	42d2                	moveq 2,r13
    2034:	5fed 9500 cccb      	move.b r12,[sp+149]
    203a:	6fae 00ac 0000      	move.d ac00 <__global_impure_ptr+0x16>,r10
    2040:	64e1 eaab           	move.d r10,[sp+100]
    2044:	8553                	btstq 5,r5
    2046:	ffbd b6fe           	blt 1f00 <__vfprintf_r+0x79c>
    204a:	0f05                	nop 
    204c:	8453                	btstq 4,r5
    204e:	ffbd 7208           	blt 28c4 <__vfprintf_r+0x1160>
    2052:	8653                	btstq 6,r5
    2054:	ffad 6c08           	bge 28c4 <__vfprintf_r+0x1160>
    2058:	0f05                	nop 
    205a:	54e1 6dda           	move.d [sp+84],r13
    205e:	5dd8                	movu.w [r13],r13
    2060:	40e1 eddb           	move.d r13,[sp+64]
    2064:	44e1 708a           	clear.d [sp+68]
    2068:	54e1 6aaa           	move.d [sp+84],r10
    206c:	04a2                	addq 4,r10
    206e:	54e1 eaab           	move.d r10,[sp+84]
    2072:	ffed a6fe           	ba 1f1c <__vfprintf_r+0x7b8>
    2076:	0f05                	nop 
    2078:	54e1 6aaa           	move.d [sp+84],r10
    207c:	4aaa                	move.b [r10],r10
    207e:	5fed c600 caab      	move.b r10,[sp+198]
    2084:	5fed 9500 700a      	clear.b [sp+149]
    208a:	54e1 6bba           	move.d [sp+84],r11
    208e:	04b2                	addq 4,r11
    2090:	54e1 ebbb           	move.d r11,[sp+84]
    2094:	41c2                	moveq 1,r12
    2096:	48e1 eccb           	move.d r12,[sp+72]
    209a:	50e1 eccb           	move.d r12,[sp+80]
    209e:	60e1 708a           	clear.d [sp+96]
    20a2:	70e1 708a           	clear.d [sp+112]
    20a6:	6e46                	move.d sp,r4
    20a8:	0f4c c600           	addu.b 0xc6,r4
    20ac:	ffed a0f9           	ba 1a50 <__vfprintf_r+0x2ec>
    20b0:	7006                	clear.b r0
    20b2:	5fed 9500 cccb      	move.b r12,[sp+149]
    20b8:	8553                	btstq 5,r5
    20ba:	ffad d601           	bge 2294 <__vfprintf_r+0xb30>
    20be:	0f05                	nop 
    20c0:	54e1 6aaa           	move.d [sp+84],r10
    20c4:	6aca                	move.d [r10],r12
    20c6:	04a1 6dda           	move.d [r10+4],r13
    20ca:	40e1 eccb           	move.d r12,[sp+64]
    20ce:	44e1 eddb           	move.d r13,[sp+68]
    20d2:	08a2                	addq 8,r10
    20d4:	54e1 eaab           	move.d r10,[sp+84]
    20d8:	6cc6                	test.d r12
    20da:	b015                	ax 
    20dc:	6dd6                	test.d r13
    20de:	ffbd 760a           	blt 2b58 <__vfprintf_r+0x13f4>
    20e2:	0f05                	nop 
    20e4:	5fed 9500 400a      	move.b [sp+149],r0
    20ea:	ffed f0f8           	ba 19de <__vfprintf_r+0x27a>
    20ee:	41d2                	moveq 1,r13
    20f0:	4f5f 4000           	or.b 0x40,r5
    20f4:	ffed c0f7           	ba 18b8 <__vfprintf_r+0x154>
    20f8:	42da                	move.b [r2],r13
    20fa:	42da                	move.b [r2],r13
    20fc:	cfde 6c00           	cmp.b 0x6c,r13
    2100:	ff3d 420e           	beq 2f46 <__vfprintf_r+0x17e2>
    2104:	62b6                	move.d r2,r11
    2106:	ffed aef7           	ba 18b8 <__vfprintf_r+0x154>
    210a:	5053                	orq 16,r5
    210c:	5fed 9500 cccb      	move.b r12,[sp+149]
    2112:	8553                	btstq 5,r5
    2114:	ffad 320c           	bge 2d4a <__vfprintf_r+0x15e6>
    2118:	8453                	btstq 4,r5
    211a:	54e1 6aaa           	move.d [sp+84],r10
    211e:	6aba                	move.d [r10],r11
    2120:	4ce1 6cca           	move.d [sp+76],r12
    2124:	3d75                	smi r13
    2126:	add5                	neg.d r13,r13
    2128:	4ce1 6aaa           	move.d [sp+76],r10
    212c:	ebab                	move.d r10,[r11]
    212e:	04b1 eddb           	move.d r13,[r11+4]
    2132:	54e1 6bba           	move.d [sp+84],r11
    2136:	04b2                	addq 4,r11
    2138:	54e1 ebbb           	move.d r11,[sp+84]
    213c:	ffed fef6           	ba 183e <__vfprintf_r+0xda>
    2140:	42da                	move.b [r2],r13
    2142:	5fed 9500 700a      	clear.b [sp+149]
    2148:	54e1 677a           	move.d [sp+84],r7
    214c:	54e1 6cca           	move.d [sp+84],r12
    2150:	6c4a                	move.d [r12],r4
    2152:	ff3d 0a0f           	beq 3060 <__vfprintf_r+0x18fc>
    2156:	0472                	addq 4,r7
    2158:	6886                	test.d r8
    215a:	ffbd 600e           	blt 2fbe <__vfprintf_r+0x185a>
    215e:	64a6                	move.d r4,r10
    2160:	7b86                	clear.d r11
    2162:	68c6                	move.d r8,r12
    2164:	34e1 e99b           	move.d r9,[sp+52]
    2168:	3fbd e45a 0000      	jsr 5ae4 <_memchr>
    216e:	34e1 699a           	move.d [sp+52],r9
    2172:	6aa6                	test.d r10
    2174:	ff3d 8401           	beq 22fc <__vfprintf_r+0xb98>
    2178:	a4a6                	sub.d r4,r10
    217a:	50e1 eaab           	move.d r10,[sp+80]
    217e:	e8a6                	cmp.d r8,r10
    2180:	ffcd 7801           	bgt 22fc <__vfprintf_r+0xb98>
    2184:	0f05                	nop 
    2186:	50e1 6dda           	move.d [sp+80],r13
    218a:	48e1 eddb           	move.d r13,[sp+72]
    218e:	ffbd 4a0e           	blt 2fdc <__vfprintf_r+0x1878>
    2192:	0f05                	nop 
    2194:	5fed 9500 400a      	move.b [sp+149],r0
    219a:	54e1 e77b           	move.d r7,[sp+84]
    219e:	60e1 708a           	clear.d [sp+96]
    21a2:	70e1 708a           	clear.d [sp+112]
    21a6:	ffed 96f8           	ba 1a40 <__vfprintf_r+0x2dc>
    21aa:	0f05                	nop 
    21ac:	62b6                	move.d r2,r11
    21ae:	6b6c                	movs.b [r11+],r6
    21b0:	cf6c 2a00           	cmpu.b 0x2a,r6
    21b4:	ff3d 2612           	beq 33de <__vfprintf_r+0x1c7a>
    21b8:	66d6                	move.d r6,r13
    21ba:	b0d2                	subq 48,r13
    21bc:	c9d2                	cmpq 9,r13
    21be:	ff9d 9c10           	bhi 325e <__vfprintf_r+0x1afa>
    21c2:	7886                	clear.d r8
    21c4:	2885                	addi r8.d,r8
    21c6:	1d85                	addi r8.w,r13
    21c8:	6d86                	move.d r13,r8
    21ca:	6b6c                	movs.b [r11+],r6
    21cc:	66d6                	move.d r6,r13
    21ce:	b0d2                	subq 48,r13
    21d0:	c9d2                	cmpq 9,r13
    21d2:	f180                	bls 21c4 <__vfprintf_r+0xa60>
    21d4:	6b26                	move.d r11,r2
    21d6:	6886                	test.d r8
    21d8:	ffad e2f6           	bge 18be <__vfprintf_r+0x15a>
    21dc:	66d6                	move.d r6,r13
    21de:	ffed dcf6           	ba 18be <__vfprintf_r+0x15a>
    21e2:	7f82                	moveq -1,r8
    21e4:	5fed 9500 cccb      	move.b r12,[sp+149]
    21ea:	54e1 6aaa           	move.d [sp+84],r10
    21ee:	3aba                	move [r10],srp
    21f0:	74e1 70ba           	move srp,[sp+116]
    21f4:	04a1 6bba           	move.d [r10+4],r11
    21f8:	78e1 ebbb           	move.d r11,[sp+120]
    21fc:	08a2                	addq 8,r10
    21fe:	54e1 eaab           	move.d r10,[sp+84]
    2202:	6f0e 1868 0000      	move.d 6818 <___fpclassifyd>,r0
    2208:	74e1 6aaa           	move.d [sp+116],r10
    220c:	78e1 6bba           	move.d [sp+120],r11
    2210:	34e1 e99b           	move.d r9,[sp+52]
    2214:	b0b9                	jsr r0
    2216:	34e1 699a           	move.d [sp+52],r9
    221a:	c1a2                	cmpq 1,r10
    221c:	ff2d 7409           	bne 2b94 <__vfprintf_r+0x1430>
    2220:	7c86                	clear.d r12
    2222:	74e1 6aaa           	move.d [sp+116],r10
    2226:	78e1 6bba           	move.d [sp+120],r11
    222a:	7d86                	clear.d r13
    222c:	3fbd 309e 0000      	jsr 9e30 <___ltdf2>
    2232:	34e1 699a           	move.d [sp+52],r9
    2236:	6aa6                	test.d r10
    2238:	ffbd 800e           	blt 30bc <__vfprintf_r+0x1958>
    223c:	0f05                	nop 
    223e:	5fed 9500 400a      	move.b [sp+149],r0
    2244:	cf6c 4700           	cmpu.b 0x47,r6
    2248:	ffdd a00c           	ble 2eec <__vfprintf_r+0x1788>
    224c:	0f05                	nop 
    224e:	6f4e f4ab 0000      	move.d abf4 <__global_impure_ptr+0xa>,r4
    2254:	2f5f 7fff ffff      	and.d 0xffffff7f,r5
    225a:	43d2                	moveq 3,r13
    225c:	48e1 eddb           	move.d r13,[sp+72]
    2260:	50e1 eddb           	move.d r13,[sp+80]
    2264:	60e1 708a           	clear.d [sp+96]
    2268:	70e1 708a           	clear.d [sp+112]
    226c:	ffed d0f7           	ba 1a40 <__vfprintf_r+0x2dc>
    2270:	0f05                	nop 
    2272:	4f5f 2000           	or.b 0x20,r5
    2276:	ffed 3ef6           	ba 18b8 <__vfprintf_r+0x154>
    227a:	42da                	move.b [r2],r13
    227c:	4853                	orq 8,r5
    227e:	ffed 36f6           	ba 18b8 <__vfprintf_r+0x154>
    2282:	42da                	move.b [r2],r13
    2284:	5fed 9500 cccb      	move.b r12,[sp+149]
    228a:	5053                	orq 16,r5
    228c:	8553                	btstq 5,r5
    228e:	ffbd 2efe           	blt 20c0 <__vfprintf_r+0x95c>
    2292:	0f05                	nop 
    2294:	8453                	btstq 4,r5
    2296:	ffad 820a           	bge 2d1c <__vfprintf_r+0x15b8>
    229a:	8653                	btstq 6,r5
    229c:	54e1 6cca           	move.d [sp+84],r12
    22a0:	6cba                	move.d [r12],r11
    22a2:	3c75                	smi r12
    22a4:	acc5                	neg.d r12,r12
    22a6:	40e1 ebbb           	move.d r11,[sp+64]
    22aa:	44e1 eccb           	move.d r12,[sp+68]
    22ae:	6cd6                	move.d r12,r13
    22b0:	54e1 6aaa           	move.d [sp+84],r10
    22b4:	04a2                	addq 4,r10
    22b6:	54e1 eaab           	move.d r10,[sp+84]
    22ba:	ffed 1afe           	ba 20d8 <__vfprintf_r+0x974>
    22be:	6bc6                	move.d r11,r12
    22c0:	54e1 6dda           	move.d [sp+84],r13
    22c4:	6dda                	move.d [r13],r13
    22c6:	40e1 eddb           	move.d r13,[sp+64]
    22ca:	44e1 708a           	clear.d [sp+68]
    22ce:	54e1 6aaa           	move.d [sp+84],r10
    22d2:	04a2                	addq 4,r10
    22d4:	54e1 eaab           	move.d r10,[sp+84]
    22d8:	ffed faf6           	ba 19d6 <__vfprintf_r+0x272>
    22dc:	41d2                	moveq 1,r13
    22de:	54e1 6dda           	move.d [sp+84],r13
    22e2:	6dda                	move.d [r13],r13
    22e4:	40e1 eddb           	move.d r13,[sp+64]
    22e8:	44e1 708a           	clear.d [sp+68]
    22ec:	54e1 6aaa           	move.d [sp+84],r10
    22f0:	04a2                	addq 4,r10
    22f2:	54e1 eaab           	move.d r10,[sp+84]
    22f6:	ffed dcf6           	ba 19d6 <__vfprintf_r+0x272>
    22fa:	7d06                	clear.b r13
    22fc:	48e1 e88b           	move.d r8,[sp+72]
    2300:	5fed 9500 400a      	move.b [sp+149],r0
    2306:	50e1 e88b           	move.d r8,[sp+80]
    230a:	54e1 e77b           	move.d r7,[sp+84]
    230e:	60e1 708a           	clear.d [sp+96]
    2312:	70e1 708a           	clear.d [sp+112]
    2316:	ffed 26f7           	ba 1a40 <__vfprintf_r+0x2dc>
    231a:	0f05                	nop 
    231c:	6fde 3eac 0000      	move.d ac3e <_zeroes.4007>,r13
    2322:	e9db                	move.d r13,[r9]
    2324:	0491 e44b           	move.d r4,[r9+4]
    2328:	5fed c200 2d4a      	add.d [sp+194],r4,r13
    232e:	5fed c200 eddb      	move.d r13,[sp+194]
    2334:	0102                	addq 1,r0
    2336:	5fed be00 e00b      	move.d r0,[sp+190]
    233c:	c702                	cmpq 7,r0
    233e:	ffdd 22f9           	ble 1c64 <__vfprintf_r+0x500>
    2342:	0892                	addq 8,r9
    2344:	63a6                	move.d r3,r10
    2346:	61b6                	move.d r1,r11
    2348:	6ec6                	move.d sp,r12
    234a:	0fcc ba00           	addu.b 0xba,r12
    234e:	3fbd 8c6a 0000      	jsr 6a8c <___sprint_r>
    2354:	6aa6                	test.d r10
    2356:	ff2d fafa           	bne 1e54 <__vfprintf_r+0x6f0>
    235a:	6e96                	move.d sp,r9
    235c:	1f9c 5601           	addu.w 0x156,r9
    2360:	ffed 00f9           	ba 1c64 <__vfprintf_r+0x500>
    2364:	0f05                	nop 
    2366:	cfde 0100           	cmp.b 0x1,r13
    236a:	ff3d 1a04           	beq 2788 <__vfprintf_r+0x1024>
    236e:	6e46                	move.d sp,r4
    2370:	0f4c ee00           	addu.b 0xee,r4
    2374:	cfde 0200           	cmp.b 0x2,r13
    2378:	6030                	beq 23da <__vfprintf_r+0xc76>
    237a:	0f05                	nop 
    237c:	8142                	subq 1,r4
    237e:	40e1 6dda           	move.d [sp+64],r13
    2382:	07d3                	andq 7,r13
    2384:	30d2                	addq 48,r13
    2386:	c4db                	move.b r13,[r4]
    2388:	44e1 6aaa           	move.d [sp+68],r10
    238c:	dda3                	lslq 29,r10
    238e:	40e1 6bba           	move.d [sp+64],r11
    2392:	e3b3                	lsrq 3,r11
    2394:	44e1 6cca           	move.d [sp+68],r12
    2398:	e3c3                	lsrq 3,r12
    239a:	6ba7                	or.d r11,r10
    239c:	40e1 eaab           	move.d r10,[sp+64]
    23a0:	44e1 eccb           	move.d r12,[sp+68]
    23a4:	40e1 a00b           	test.d [sp+64]
    23a8:	b015                	ax 
    23aa:	44e1 a00b           	test.d [sp+68]
    23ae:	cd20                	bne 237c <__vfprintf_r+0xc18>
    23b0:	8053                	btstq 0,r5
    23b2:	62a0                	bge 2416 <__vfprintf_r+0xcb2>
    23b4:	64c6                	move.d r4,r12
    23b6:	cfde 3000           	cmp.b 0x30,r13
    23ba:	ff3d b80b           	beq 2f76 <__vfprintf_r+0x1812>
    23be:	0f05                	nop 
    23c0:	8142                	subq 1,r4
    23c2:	4fde 3000           	move.b 0x30,r13
    23c6:	ffc1 cddb           	move.b r13,[r12-1]
    23ca:	3ce1 6aaa           	move.d [sp+60],r10
    23ce:	a4a6                	sub.d r4,r10
    23d0:	50e1 eaab           	move.d r10,[sp+80]
    23d4:	ffed 4ef6           	ba 1a26 <__vfprintf_r+0x2c2>
    23d8:	0f05                	nop 
    23da:	8142                	subq 1,r4
    23dc:	40e1 6dda           	move.d [sp+64],r13
    23e0:	0fd3                	andq 15,r13
    23e2:	64e1 6aaa           	move.d [sp+100],r10
    23e6:	4ad5 4dda           	move.b [r10+r13.b],r13
    23ea:	c4db                	move.b r13,[r4]
    23ec:	44e1 6bba           	move.d [sp+68],r11
    23f0:	dcb3                	lslq 28,r11
    23f2:	40e1 6cca           	move.d [sp+64],r12
    23f6:	e4c3                	lsrq 4,r12
    23f8:	44e1 6dda           	move.d [sp+68],r13
    23fc:	e4d3                	lsrq 4,r13
    23fe:	6cb7                	or.d r12,r11
    2400:	40e1 ebbb           	move.d r11,[sp+64]
    2404:	44e1 eddb           	move.d r13,[sp+68]
    2408:	40e1 a00b           	test.d [sp+64]
    240c:	b015                	ax 
    240e:	44e1 a00b           	test.d [sp+68]
    2412:	c720                	bne 23da <__vfprintf_r+0xc76>
    2414:	0f05                	nop 
    2416:	3ce1 6bba           	move.d [sp+60],r11
    241a:	a4b6                	sub.d r4,r11
    241c:	50e1 ebbb           	move.d r11,[sp+80]
    2420:	ffed 02f6           	ba 1a26 <__vfprintf_r+0x2c2>
    2424:	0f05                	nop 
    2426:	cf6c 6500           	cmpu.b 0x65,r6
    242a:	ffdd b001           	ble 25de <__vfprintf_r+0xe7a>
    242e:	7c86                	clear.d r12
    2430:	74e1 6aaa           	move.d [sp+116],r10
    2434:	78e1 6bba           	move.d [sp+120],r11
    2438:	7d86                	clear.d r13
    243a:	34e1 e99b           	move.d r9,[sp+52]
    243e:	3fbd 1c9d 0000      	jsr 9d1c <___eqdf2>
    2444:	34e1 699a           	move.d [sp+52],r9
    2448:	6aa6                	test.d r10
    244a:	ff2d 7e03           	bne 27cc <__vfprintf_r+0x1068>
    244e:	41b2                	moveq 1,r11
    2450:	6fae 2cac 0000      	move.d ac2c <__global_impure_ptr+0x42>,r10
    2456:	e9ab                	move.d r10,[r9]
    2458:	0491 ebbb           	move.d r11,[r9+4]
    245c:	5fed c200 2dba      	add.d [sp+194],r11,r13
    2462:	5fed c200 eddb      	move.d r13,[sp+194]
    2468:	5fed be00 2dba      	add.d [sp+190],r11,r13
    246e:	5fed be00 eddb      	move.d r13,[sp+190]
    2474:	c7d2                	cmpq 7,r13
    2476:	ffcd 3209           	bgt 2dac <__vfprintf_r+0x1648>
    247a:	0892                	addq 8,r9
    247c:	6ce1 6cca           	move.d [sp+108],r12
    2480:	5fed 9800 ecca      	cmp.d [sp+152],r12
    2486:	08c0                	bgt 2490 <__vfprintf_r+0xd2c>
    2488:	8053                	btstq 0,r5
    248a:	ffad d6f7           	bge 1c64 <__vfprintf_r+0x500>
    248e:	0f05                	nop 
    2490:	68e1 30ba           	move [sp+104],srp
    2494:	79ba                	move srp,[r9]
    2496:	7ce1 6aaa           	move.d [sp+124],r10
    249a:	0491 eaab           	move.d r10,[r9+4]
    249e:	5fed c200 2daa      	add.d [sp+194],r10,r13
    24a4:	5fed c200 eddb      	move.d r13,[sp+194]
    24aa:	5fed be00 6dda      	move.d [sp+190],r13
    24b0:	01d2                	addq 1,r13
    24b2:	5fed be00 eddb      	move.d r13,[sp+190]
    24b8:	c7d2                	cmpq 7,r13
    24ba:	ffcd 960a           	bgt 2f54 <__vfprintf_r+0x17f0>
    24be:	0892                	addq 8,r9
    24c0:	6ce1 644a           	move.d [sp+108],r4
    24c4:	8142                	subq 1,r4
    24c6:	6446                	test.d r4
    24c8:	ffdd 98f7           	ble 1c64 <__vfprintf_r+0x500>
    24cc:	0f05                	nop 
    24ce:	5fed be00 600a      	move.d [sp+190],r0
    24d4:	d042                	cmpq 16,r4
    24d6:	12c0                	bgt 24ea <__vfprintf_r+0xd86>
    24d8:	0f05                	nop 
    24da:	ffed 3efe           	ba 231c <__vfprintf_r+0xbb8>
    24de:	0f05                	nop 
    24e0:	9042                	subq 16,r4
    24e2:	d042                	cmpq 16,r4
    24e4:	ffdd 34fe           	ble 231c <__vfprintf_r+0xbb8>
    24e8:	0f05                	nop 
    24ea:	6fbe 3eac 0000      	move.d ac3e <_zeroes.4007>,r11
    24f0:	e9bb                	move.d r11,[r9]
    24f2:	50c2                	moveq 16,r12
    24f4:	0491 eccb           	move.d r12,[r9+4]
    24f8:	5fed c200 2dca      	add.d [sp+194],r12,r13
    24fe:	5fed c200 eddb      	move.d r13,[sp+194]
    2504:	0102                	addq 1,r0
    2506:	5fed be00 e00b      	move.d r0,[sp+190]
    250c:	c702                	cmpq 7,r0
    250e:	d1d0                	ble 24e0 <__vfprintf_r+0xd7c>
    2510:	0892                	addq 8,r9
    2512:	63a6                	move.d r3,r10
    2514:	61b6                	move.d r1,r11
    2516:	6ec6                	move.d sp,r12
    2518:	0fcc ba00           	addu.b 0xba,r12
    251c:	3fbd 8c6a 0000      	jsr 6a8c <___sprint_r>
    2522:	6aa6                	test.d r10
    2524:	ff2d 2cf9           	bne 1e54 <__vfprintf_r+0x6f0>
    2528:	6e96                	move.d sp,r9
    252a:	1f9c 5601           	addu.w 0x156,r9
    252e:	5fed be00 600a      	move.d [sp+190],r0
    2534:	ade0                	ba 24e2 <__vfprintf_r+0xd7e>
    2536:	9042                	subq 16,r4
    2538:	58e1 677a           	move.d [sp+88],r7
    253c:	48e1 a77a           	sub.d [sp+72],r7
    2540:	6776                	test.d r7
    2542:	ffdd 46f6           	ble 1b8c <__vfprintf_r+0x428>
    2546:	0f05                	nop 
    2548:	5fed be00 600a      	move.d [sp+190],r0
    254e:	d072                	cmpq 16,r7
    2550:	0ec0                	bgt 2560 <__vfprintf_r+0xdfc>
    2552:	0f05                	nop 
    2554:	5ae0                	ba 25b0 <__vfprintf_r+0xe4c>
    2556:	0f05                	nop 
    2558:	9072                	subq 16,r7
    255a:	d072                	cmpq 16,r7
    255c:	52d0                	ble 25b0 <__vfprintf_r+0xe4c>
    255e:	0892                	addq 8,r9
    2560:	6fae 3eac 0000      	move.d ac3e <_zeroes.4007>,r10
    2566:	e9ab                	move.d r10,[r9]
    2568:	50b2                	moveq 16,r11
    256a:	0491 ebbb           	move.d r11,[r9+4]
    256e:	5fed c200 2dba      	add.d [sp+194],r11,r13
    2574:	5fed c200 eddb      	move.d r13,[sp+194]
    257a:	0102                	addq 1,r0
    257c:	5fed be00 e00b      	move.d r0,[sp+190]
    2582:	c702                	cmpq 7,r0
    2584:	d3d0                	ble 2558 <__vfprintf_r+0xdf4>
    2586:	63a6                	move.d r3,r10
    2588:	61b6                	move.d r1,r11
    258a:	6ec6                	move.d sp,r12
    258c:	0fcc ba00           	addu.b 0xba,r12
    2590:	3fbd 8c6a 0000      	jsr 6a8c <___sprint_r>
    2596:	6aa6                	test.d r10
    2598:	ff2d b8f8           	bne 1e54 <__vfprintf_r+0x6f0>
    259c:	6e96                	move.d sp,r9
    259e:	1f9c 5601           	addu.w 0x156,r9
    25a2:	5fed be00 600a      	move.d [sp+190],r0
    25a8:	9072                	subq 16,r7
    25aa:	d072                	cmpq 16,r7
    25ac:	b3c0                	bgt 2560 <__vfprintf_r+0xdfc>
    25ae:	0f05                	nop 
    25b0:	6fce 3eac 0000      	move.d ac3e <_zeroes.4007>,r12
    25b6:	e9cb                	move.d r12,[r9]
    25b8:	0491 e77b           	move.d r7,[r9+4]
    25bc:	5fed c200 2d7a      	add.d [sp+194],r7,r13
    25c2:	5fed c200 eddb      	move.d r13,[sp+194]
    25c8:	0102                	addq 1,r0
    25ca:	5fed be00 e00b      	move.d r0,[sp+190]
    25d0:	c702                	cmpq 7,r0
    25d2:	ffcd 6005           	bgt 2b36 <__vfprintf_r+0x13d2>
    25d6:	0892                	addq 8,r9
    25d8:	ffed b0f5           	ba 1b8c <__vfprintf_r+0x428>
    25dc:	0f05                	nop 
    25de:	6ce1 6bba           	move.d [sp+108],r11
    25e2:	c1b2                	cmpq 1,r11
    25e4:	d0d0                	ble 26b6 <__vfprintf_r+0xf52>
    25e6:	e94b                	move.d r4,[r9]
    25e8:	41c2                	moveq 1,r12
    25ea:	0491 eccb           	move.d r12,[r9+4]
    25ee:	5fed c200 2dca      	add.d [sp+194],r12,r13
    25f4:	5fed c200 eddb      	move.d r13,[sp+194]
    25fa:	5fed be00 20ca      	add.d [sp+190],r12,r0
    2600:	5fed be00 e00b      	move.d r0,[sp+190]
    2606:	c702                	cmpq 7,r0
    2608:	ffcd c204           	bgt 2ace <__vfprintf_r+0x136a>
    260c:	0892                	addq 8,r9
    260e:	68e1 30ba           	move [sp+104],srp
    2612:	79ba                	move srp,[r9]
    2614:	7ce1 6aaa           	move.d [sp+124],r10
    2618:	0491 eaab           	move.d r10,[r9+4]
    261c:	5fed c200 2daa      	add.d [sp+194],r10,r13
    2622:	5fed c200 eddb      	move.d r13,[sp+194]
    2628:	0102                	addq 1,r0
    262a:	5fed be00 e00b      	move.d r0,[sp+190]
    2630:	c702                	cmpq 7,r0
    2632:	ffcd c004           	bgt 2af6 <__vfprintf_r+0x1392>
    2636:	6966                	move.d r9,r6
    2638:	0862                	addq 8,r6
    263a:	74e1 6aaa           	move.d [sp+116],r10
    263e:	78e1 6bba           	move.d [sp+120],r11
    2642:	7c86                	clear.d r12
    2644:	7d86                	clear.d r13
    2646:	3fbd 789d 0000      	jsr 9d78 <___nedf2>
    264c:	6aa6                	test.d r10
    264e:	ff3d 9002           	beq 28e2 <__vfprintf_r+0x117e>
    2652:	0142                	addq 1,r4
    2654:	e64b                	move.d r4,[r6]
    2656:	6ce1 6dda           	move.d [sp+108],r13
    265a:	81d2                	subq 1,r13
    265c:	0461 eddb           	move.d r13,[r6+4]
    2660:	5fed c200 29da      	add.d [sp+194],r13,r9
    2666:	5fed c200 e99b      	move.d r9,[sp+194]
    266c:	0102                	addq 1,r0
    266e:	5fed be00 e00b      	move.d r0,[sp+190]
    2674:	c702                	cmpq 7,r0
    2676:	6ac0                	bgt 26e2 <__vfprintf_r+0xf7e>
    2678:	63a6                	move.d r3,r10
    267a:	0862                	addq 8,r6
    267c:	6e96                	move.d sp,r9
    267e:	0f9c a400           	addu.b 0xa4,r9
    2682:	e69b                	move.d r9,[r6]
    2684:	5fed 8000 699a      	move.d [sp+128],r9
    268a:	0461 e99b           	move.d r9,[r6+4]
    268e:	5fed c200 699a      	move.d [sp+194],r9
    2694:	5fed 8000 299a      	add.d [sp+128],r9
    269a:	5fed c200 e99b      	move.d r9,[sp+194]
    26a0:	0102                	addq 1,r0
    26a2:	5fed be00 e00b      	move.d r0,[sp+190]
    26a8:	c702                	cmpq 7,r0
    26aa:	ffcd 96fc           	bgt 2344 <__vfprintf_r+0xbe0>
    26ae:	6696                	move.d r6,r9
    26b0:	ffed b0f5           	ba 1c64 <__vfprintf_r+0x500>
    26b4:	0892                	addq 8,r9
    26b6:	8053                	btstq 0,r5
    26b8:	31b0                	blt 25ea <__vfprintf_r+0xe86>
    26ba:	41c2                	moveq 1,r12
    26bc:	41a2                	moveq 1,r10
    26be:	0491 eaab           	move.d r10,[r9+4]
    26c2:	5fed c200 2daa      	add.d [sp+194],r10,r13
    26c8:	5fed c200 eddb      	move.d r13,[sp+194]
    26ce:	5fed be00 20aa      	add.d [sp+190],r10,r0
    26d4:	5fed be00 e00b      	move.d r0,[sp+190]
    26da:	c702                	cmpq 7,r0
    26dc:	9dd0                	ble 267a <__vfprintf_r+0xf16>
    26de:	6966                	move.d r9,r6
    26e0:	63a6                	move.d r3,r10
    26e2:	61b6                	move.d r1,r11
    26e4:	6ec6                	move.d sp,r12
    26e6:	0fcc ba00           	addu.b 0xba,r12
    26ea:	3fbd 8c6a 0000      	jsr 6a8c <___sprint_r>
    26f0:	6aa6                	test.d r10
    26f2:	ff2d 5ef7           	bne 1e54 <__vfprintf_r+0x6f0>
    26f6:	6e66                	move.d sp,r6
    26f8:	1f6c 5601           	addu.w 0x156,r6
    26fc:	5fed be00 600a      	move.d [sp+190],r0
    2702:	7be0                	ba 267e <__vfprintf_r+0xf1a>
    2704:	6e96                	move.d sp,r9
    2706:	61b6                	move.d r1,r11
    2708:	6ec6                	move.d sp,r12
    270a:	0fcc ba00           	addu.b 0xba,r12
    270e:	3fbd 8c6a 0000      	jsr 6a8c <___sprint_r>
    2714:	6aa6                	test.d r10
    2716:	ff3d 28f6           	beq 1d42 <__vfprintf_r+0x5de>
    271a:	0f05                	nop 
    271c:	ffed 34f7           	ba 1e54 <__vfprintf_r+0x6f0>
    2720:	0f05                	nop 
    2722:	63a6                	move.d r3,r10
    2724:	61b6                	move.d r1,r11
    2726:	6ec6                	move.d sp,r12
    2728:	0fcc ba00           	addu.b 0xba,r12
    272c:	3fbd 8c6a 0000      	jsr 6a8c <___sprint_r>
    2732:	6aa6                	test.d r10
    2734:	ff2d 1cf7           	bne 1e54 <__vfprintf_r+0x6f0>
    2738:	6e96                	move.d sp,r9
    273a:	1f9c 5601           	addu.w 0x156,r9
    273e:	ffed e8f4           	ba 1c2a <__vfprintf_r+0x4c6>
    2742:	0f05                	nop 
    2744:	63a6                	move.d r3,r10
    2746:	61b6                	move.d r1,r11
    2748:	6ec6                	move.d sp,r12
    274a:	0fcc ba00           	addu.b 0xba,r12
    274e:	3fbd 8c6a 0000      	jsr 6a8c <___sprint_r>
    2754:	6aa6                	test.d r10
    2756:	ff2d faf6           	bne 1e54 <__vfprintf_r+0x6f0>
    275a:	6e96                	move.d sp,r9
    275c:	1f9c 5601           	addu.w 0x156,r9
    2760:	ffed e6f3           	ba 1b4a <__vfprintf_r+0x3e6>
    2764:	0f05                	nop 
    2766:	63a6                	move.d r3,r10
    2768:	61b6                	move.d r1,r11
    276a:	6ec6                	move.d sp,r12
    276c:	0fcc ba00           	addu.b 0xba,r12
    2770:	3fbd 8c6a 0000      	jsr 6a8c <___sprint_r>
    2776:	6aa6                	test.d r10
    2778:	ff2d d8f6           	bne 1e54 <__vfprintf_r+0x6f0>
    277c:	6e96                	move.d sp,r9
    277e:	1f9c 5601           	addu.w 0x156,r9
    2782:	ffed f8f3           	ba 1b7e <__vfprintf_r+0x41a>
    2786:	0f05                	nop 
    2788:	40e1 6bba           	move.d [sp+64],r11
    278c:	44e1 6cca           	move.d [sp+68],r12
    2790:	c9b2                	cmpq 9,r11
    2792:	b015                	ax 
    2794:	c0c2                	cmpq 0,r12
    2796:	ff9d ae01           	bhi 2948 <__vfprintf_r+0x11e4>
    279a:	0f05                	nop 
    279c:	40e1 4dda           	move.b [sp+64],r13
    27a0:	30d2                	addq 48,r13
    27a2:	5fed ed00 cddb      	move.b r13,[sp+237]
    27a8:	5fed 8400 6cca      	move.d [sp+132],r12
    27ae:	50e1 eccb           	move.d r12,[sp+80]
    27b2:	0f4c ed00           	addu.b 0xed,r4
    27b6:	ffed 6cf2           	ba 1a26 <__vfprintf_r+0x2c2>
    27ba:	0f05                	nop 
    27bc:	50e1 708a           	clear.d [sp+80]
    27c0:	6e46                	move.d sp,r4
    27c2:	0f4c ee00           	addu.b 0xee,r4
    27c6:	ffed 5cf2           	ba 1a26 <__vfprintf_r+0x2c2>
    27ca:	0f05                	nop 
    27cc:	5fed 9800 666a      	move.d [sp+152],r6
    27d2:	ffdd f805           	ble 2dce <__vfprintf_r+0x166a>
    27d6:	0f05                	nop 
    27d8:	6ce1 264a           	add.d [sp+108],r4,r6
    27dc:	6676                	move.d r6,r7
    27de:	a476                	sub.d r4,r7
    27e0:	70e1 e77a           	cmp.d [sp+112],r7
    27e4:	06d0                	ble 27ec <__vfprintf_r+0x1088>
    27e6:	0f05                	nop 
    27e8:	70e1 677a           	move.d [sp+112],r7
    27ec:	6776                	test.d r7
    27ee:	2ad0                	ble 281a <__vfprintf_r+0x10b6>
    27f0:	0f05                	nop 
    27f2:	e94b                	move.d r4,[r9]
    27f4:	0491 e77b           	move.d r7,[r9+4]
    27f8:	5fed c200 2d7a      	add.d [sp+194],r7,r13
    27fe:	5fed c200 eddb      	move.d r13,[sp+194]
    2804:	5fed be00 6dda      	move.d [sp+190],r13
    280a:	01d2                	addq 1,r13
    280c:	5fed be00 eddb      	move.d r13,[sp+190]
    2812:	c7d2                	cmpq 7,r13
    2814:	ffcd d407           	bgt 2fec <__vfprintf_r+0x1888>
    2818:	0892                	addq 8,r9
    281a:	6776                	test.d r7
    281c:	ffbd c607           	blt 2fe6 <__vfprintf_r+0x1882>
    2820:	0f05                	nop 
    2822:	70e1 6bba           	move.d [sp+112],r11
    2826:	a7b6                	sub.d r7,r11
    2828:	6bb6                	test.d r11
    282a:	ffdd 9601           	ble 29c4 <__vfprintf_r+0x1260>
    282e:	6b76                	move.d r11,r7
    2830:	5fed be00 600a      	move.d [sp+190],r0
    2836:	d0b2                	cmpq 16,r11
    2838:	12c0                	bgt 284c <__vfprintf_r+0x10e8>
    283a:	0f05                	nop 
    283c:	ffed 3205           	ba 2d72 <__vfprintf_r+0x160e>
    2840:	0f05                	nop 
    2842:	9072                	subq 16,r7
    2844:	d072                	cmpq 16,r7
    2846:	ffdd 2805           	ble 2d72 <__vfprintf_r+0x160e>
    284a:	0f05                	nop 
    284c:	6fce 3eac 0000      	move.d ac3e <_zeroes.4007>,r12
    2852:	e9cb                	move.d r12,[r9]
    2854:	50d2                	moveq 16,r13
    2856:	0491 eddb           	move.d r13,[r9+4]
    285a:	5fed c200 6dda      	move.d [sp+194],r13
    2860:	10d2                	addq 16,r13
    2862:	5fed c200 eddb      	move.d r13,[sp+194]
    2868:	0102                	addq 1,r0
    286a:	5fed be00 e00b      	move.d r0,[sp+190]
    2870:	c702                	cmpq 7,r0
    2872:	cfd0                	ble 2842 <__vfprintf_r+0x10de>
    2874:	0892                	addq 8,r9
    2876:	63a6                	move.d r3,r10
    2878:	61b6                	move.d r1,r11
    287a:	6ec6                	move.d sp,r12
    287c:	0fcc ba00           	addu.b 0xba,r12
    2880:	3fbd 8c6a 0000      	jsr 6a8c <___sprint_r>
    2886:	6aa6                	test.d r10
    2888:	ff2d c8f5           	bne 1e54 <__vfprintf_r+0x6f0>
    288c:	6e96                	move.d sp,r9
    288e:	1f9c 5601           	addu.w 0x156,r9
    2892:	5fed be00 600a      	move.d [sp+190],r0
    2898:	abe0                	ba 2844 <__vfprintf_r+0x10e0>
    289a:	9072                	subq 16,r7
    289c:	63a6                	move.d r3,r10
    289e:	61b6                	move.d r1,r11
    28a0:	6ec6                	move.d sp,r12
    28a2:	0fcc ba00           	addu.b 0xba,r12
    28a6:	3fbd 8c6a 0000      	jsr 6a8c <___sprint_r>
    28ac:	6aa6                	test.d r10
    28ae:	ff2d a2f5           	bne 1e54 <__vfprintf_r+0x6f0>
    28b2:	6e96                	move.d sp,r9
    28b4:	5fed 9500 400a      	move.b [sp+149],r0
    28ba:	1f9c 5601           	addu.w 0x156,r9
    28be:	ffed 52f2           	ba 1b14 <__vfprintf_r+0x3b0>
    28c2:	0f05                	nop 
    28c4:	54e1 6bba           	move.d [sp+84],r11
    28c8:	6bba                	move.d [r11],r11
    28ca:	40e1 ebbb           	move.d r11,[sp+64]
    28ce:	44e1 708a           	clear.d [sp+68]
    28d2:	54e1 6cca           	move.d [sp+84],r12
    28d6:	04c2                	addq 4,r12
    28d8:	54e1 eccb           	move.d r12,[sp+84]
    28dc:	ffed 3cf6           	ba 1f1c <__vfprintf_r+0x7b8>
    28e0:	0f05                	nop 
    28e2:	6ce1 644a           	move.d [sp+108],r4
    28e6:	8142                	subq 1,r4
    28e8:	6446                	test.d r4
    28ea:	ffdd 90fd           	ble 267e <__vfprintf_r+0xf1a>
    28ee:	6e96                	move.d sp,r9
    28f0:	d042                	cmpq 16,r4
    28f2:	ffdd 2802           	ble 2b1e <__vfprintf_r+0x13ba>
    28f6:	50c2                	moveq 16,r12
    28f8:	6fbe 3eac 0000      	move.d ac3e <_zeroes.4007>,r11
    28fe:	e6bb                	move.d r11,[r6]
    2900:	0461 eccb           	move.d r12,[r6+4]
    2904:	5fed c200 29ca      	add.d [sp+194],r12,r9
    290a:	5fed c200 e99b      	move.d r9,[sp+194]
    2910:	0102                	addq 1,r0
    2912:	5fed be00 e00b      	move.d r0,[sp+190]
    2918:	c702                	cmpq 7,r0
    291a:	06c0                	bgt 2922 <__vfprintf_r+0x11be>
    291c:	0862                	addq 8,r6
    291e:	d1e0                	ba 28f0 <__vfprintf_r+0x118c>
    2920:	9042                	subq 16,r4
    2922:	63a6                	move.d r3,r10
    2924:	61b6                	move.d r1,r11
    2926:	6ec6                	move.d sp,r12
    2928:	0fcc ba00           	addu.b 0xba,r12
    292c:	3fbd 8c6a 0000      	jsr 6a8c <___sprint_r>
    2932:	6aa6                	test.d r10
    2934:	ff2d 1cf5           	bne 1e54 <__vfprintf_r+0x6f0>
    2938:	6e66                	move.d sp,r6
    293a:	1f6c 5601           	addu.w 0x156,r6
    293e:	5fed be00 600a      	move.d [sp+190],r0
    2944:	abe0                	ba 28f0 <__vfprintf_r+0x118c>
    2946:	9042                	subq 16,r4
    2948:	6e46                	move.d sp,r4
    294a:	0f4c ee00           	addu.b 0xee,r4
    294e:	6f7e bc8f 0000      	move.d 8fbc <___umoddi3>,r7
    2954:	8142                	subq 1,r4
    2956:	40e1 6aaa           	move.d [sp+64],r10
    295a:	44e1 6bba           	move.d [sp+68],r11
    295e:	4ac2                	moveq 10,r12
    2960:	7d86                	clear.d r13
    2962:	34e1 e99b           	move.d r9,[sp+52]
    2966:	b7b9                	jsr r7
    2968:	30a2                	addq 48,r10
    296a:	c4ab                	move.b r10,[r4]
    296c:	40e1 6aaa           	move.d [sp+64],r10
    2970:	44e1 6bba           	move.d [sp+68],r11
    2974:	4ac2                	moveq 10,r12
    2976:	7d86                	clear.d r13
    2978:	3fbd 1c8b 0000      	jsr 8b1c <___udivdi3>
    297e:	40e1 eaab           	move.d r10,[sp+64]
    2982:	44e1 ebbb           	move.d r11,[sp+68]
    2986:	34e1 699a           	move.d [sp+52],r9
    298a:	40e1 a00b           	test.d [sp+64]
    298e:	b015                	ax 
    2990:	44e1 a00b           	test.d [sp+68]
    2994:	bf20                	bne 2954 <__vfprintf_r+0x11f0>
    2996:	0f05                	nop 
    2998:	3ce1 6dda           	move.d [sp+60],r13
    299c:	a4d6                	sub.d r4,r13
    299e:	50e1 eddb           	move.d r13,[sp+80]
    29a2:	ffed 80f0           	ba 1a26 <__vfprintf_r+0x2c2>
    29a6:	0f05                	nop 
    29a8:	63a6                	move.d r3,r10
    29aa:	61b6                	move.d r1,r11
    29ac:	6ec6                	move.d sp,r12
    29ae:	0fcc ba00           	addu.b 0xba,r12
    29b2:	3fbd 8c6a 0000      	jsr 6a8c <___sprint_r>
    29b8:	6aa6                	test.d r10
    29ba:	ff2d 96f4           	bne 1e54 <__vfprintf_r+0x6f0>
    29be:	6e96                	move.d sp,r9
    29c0:	1f9c 5601           	addu.w 0x156,r9
    29c4:	70e1 244a           	add.d [sp+112],r4
    29c8:	5fed 9800 6dda      	move.d [sp+152],r13
    29ce:	6ce1 edda           	cmp.d [sp+108],r13
    29d2:	c6b0                	blt 2a9a <__vfprintf_r+0x1336>
    29d4:	8053                	btstq 0,r5
    29d6:	c2b0                	blt 2a9a <__vfprintf_r+0x1336>
    29d8:	0f05                	nop 
    29da:	a466                	sub.d r4,r6
    29dc:	6ce1 6bba           	move.d [sp+108],r11
    29e0:	adb6                	sub.d r13,r11
    29e2:	6bd6                	move.d r11,r13
    29e4:	e6b6                	cmp.d r6,r11
    29e6:	04d0                	ble 29ec <__vfprintf_r+0x1288>
    29e8:	6b06                	move.d r11,r0
    29ea:	6606                	move.d r6,r0
    29ec:	6006                	test.d r0
    29ee:	2ad0                	ble 2a1a <__vfprintf_r+0x12b6>
    29f0:	0f05                	nop 
    29f2:	e94b                	move.d r4,[r9]
    29f4:	0491 e00b           	move.d r0,[r9+4]
    29f8:	5fed c200 2c0a      	add.d [sp+194],r0,r12
    29fe:	5fed c200 eccb      	move.d r12,[sp+194]
    2a04:	5fed be00 6cca      	move.d [sp+190],r12
    2a0a:	01c2                	addq 1,r12
    2a0c:	5fed be00 eccb      	move.d r12,[sp+190]
    2a12:	c7c2                	cmpq 7,r12
    2a14:	ffcd 7206           	bgt 308a <__vfprintf_r+0x1926>
    2a18:	0892                	addq 8,r9
    2a1a:	6006                	test.d r0
    2a1c:	ffbd 9606           	blt 30b6 <__vfprintf_r+0x1952>
    2a20:	0f05                	nop 
    2a22:	6d46                	move.d r13,r4
    2a24:	a046                	sub.d r0,r4
    2a26:	6446                	test.d r4
    2a28:	ffdd 38f2           	ble 1c64 <__vfprintf_r+0x500>
    2a2c:	0f05                	nop 
    2a2e:	5fed be00 600a      	move.d [sp+190],r0
    2a34:	d042                	cmpq 16,r4
    2a36:	12c0                	bgt 2a4a <__vfprintf_r+0x12e6>
    2a38:	0f05                	nop 
    2a3a:	ffed 6203           	ba 2da0 <__vfprintf_r+0x163c>
    2a3e:	0f05                	nop 
    2a40:	9042                	subq 16,r4
    2a42:	d042                	cmpq 16,r4
    2a44:	ffdd 5803           	ble 2da0 <__vfprintf_r+0x163c>
    2a48:	0f05                	nop 
    2a4a:	6fce 3eac 0000      	move.d ac3e <_zeroes.4007>,r12
    2a50:	e9cb                	move.d r12,[r9]
    2a52:	50d2                	moveq 16,r13
    2a54:	0491 eddb           	move.d r13,[r9+4]
    2a58:	5fed c200 6dda      	move.d [sp+194],r13
    2a5e:	10d2                	addq 16,r13
    2a60:	5fed c200 eddb      	move.d r13,[sp+194]
    2a66:	0102                	addq 1,r0
    2a68:	5fed be00 e00b      	move.d r0,[sp+190]
    2a6e:	c702                	cmpq 7,r0
    2a70:	cfd0                	ble 2a40 <__vfprintf_r+0x12dc>
    2a72:	0892                	addq 8,r9
    2a74:	63a6                	move.d r3,r10
    2a76:	61b6                	move.d r1,r11
    2a78:	6ec6                	move.d sp,r12
    2a7a:	0fcc ba00           	addu.b 0xba,r12
    2a7e:	3fbd 8c6a 0000      	jsr 6a8c <___sprint_r>
    2a84:	6aa6                	test.d r10
    2a86:	ff2d caf3           	bne 1e54 <__vfprintf_r+0x6f0>
    2a8a:	6e96                	move.d sp,r9
    2a8c:	1f9c 5601           	addu.w 0x156,r9
    2a90:	5fed be00 600a      	move.d [sp+190],r0
    2a96:	abe0                	ba 2a42 <__vfprintf_r+0x12de>
    2a98:	9042                	subq 16,r4
    2a9a:	68e1 30ba           	move [sp+104],srp
    2a9e:	79ba                	move srp,[r9]
    2aa0:	7ce1 6aaa           	move.d [sp+124],r10
    2aa4:	0491 eaab           	move.d r10,[r9+4]
    2aa8:	5fed c200 2caa      	add.d [sp+194],r10,r12
    2aae:	5fed c200 eccb      	move.d r12,[sp+194]
    2ab4:	5fed be00 6cca      	move.d [sp+190],r12
    2aba:	01c2                	addq 1,r12
    2abc:	5fed be00 eccb      	move.d r12,[sp+190]
    2ac2:	c7c2                	cmpq 7,r12
    2ac4:	ffcd 7005           	bgt 3038 <__vfprintf_r+0x18d4>
    2ac8:	0892                	addq 8,r9
    2aca:	11e0                	ba 29dc <__vfprintf_r+0x1278>
    2acc:	a466                	sub.d r4,r6
    2ace:	63a6                	move.d r3,r10
    2ad0:	61b6                	move.d r1,r11
    2ad2:	6ec6                	move.d sp,r12
    2ad4:	0fcc ba00           	addu.b 0xba,r12
    2ad8:	3fbd 8c6a 0000      	jsr 6a8c <___sprint_r>
    2ade:	6aa6                	test.d r10
    2ae0:	ff2d 70f3           	bne 1e54 <__vfprintf_r+0x6f0>
    2ae4:	6e96                	move.d sp,r9
    2ae6:	1f9c 5601           	addu.w 0x156,r9
    2aea:	5fed be00 600a      	move.d [sp+190],r0
    2af0:	ffed 1afb           	ba 260e <__vfprintf_r+0xeaa>
    2af4:	0f05                	nop 
    2af6:	63a6                	move.d r3,r10
    2af8:	61b6                	move.d r1,r11
    2afa:	6ec6                	move.d sp,r12
    2afc:	0fcc ba00           	addu.b 0xba,r12
    2b00:	3fbd 8c6a 0000      	jsr 6a8c <___sprint_r>
    2b06:	6aa6                	test.d r10
    2b08:	ff2d 48f3           	bne 1e54 <__vfprintf_r+0x6f0>
    2b0c:	6e66                	move.d sp,r6
    2b0e:	1f6c 5601           	addu.w 0x156,r6
    2b12:	5fed be00 600a      	move.d [sp+190],r0
    2b18:	ffed 1efb           	ba 263a <__vfprintf_r+0xed6>
    2b1c:	0f05                	nop 
    2b1e:	6fde 3eac 0000      	move.d ac3e <_zeroes.4007>,r13
    2b24:	e6db                	move.d r13,[r6]
    2b26:	0461 e44b           	move.d r4,[r6+4]
    2b2a:	5fed c200 294a      	add.d [sp+194],r4,r9
    2b30:	ffed 32fb           	ba 2666 <__vfprintf_r+0xf02>
    2b34:	0f05                	nop 
    2b36:	63a6                	move.d r3,r10
    2b38:	61b6                	move.d r1,r11
    2b3a:	6ec6                	move.d sp,r12
    2b3c:	0fcc ba00           	addu.b 0xba,r12
    2b40:	3fbd 8c6a 0000      	jsr 6a8c <___sprint_r>
    2b46:	6aa6                	test.d r10
    2b48:	ff2d 08f3           	bne 1e54 <__vfprintf_r+0x6f0>
    2b4c:	6e96                	move.d sp,r9
    2b4e:	1f9c 5601           	addu.w 0x156,r9
    2b52:	ffed 36f0           	ba 1b8c <__vfprintf_r+0x428>
    2b56:	0f05                	nop 
    2b58:	5fed 8c00 708a      	clear.d [sp+140]
    2b5e:	5fed 9000 708a      	clear.d [sp+144]
    2b64:	5fed 8c00 6bba      	move.d [sp+140],r11
    2b6a:	5fed 9000 6cca      	move.d [sp+144],r12
    2b70:	40e1 abba           	sub.d [sp+64],r11
    2b74:	b015                	ax 
    2b76:	44e1 acca           	sub.d [sp+68],r12
    2b7a:	40e1 ebbb           	move.d r11,[sp+64]
    2b7e:	44e1 eccb           	move.d r12,[sp+68]
    2b82:	4fce 2d00           	move.b 0x2d,r12
    2b86:	5fed 9500 cccb      	move.b r12,[sp+149]
    2b8c:	4c06                	move.b r12,r0
    2b8e:	ffed 4cee           	ba 19de <__vfprintf_r+0x27a>
    2b92:	41d2                	moveq 1,r13
    2b94:	74e1 6aaa           	move.d [sp+116],r10
    2b98:	78e1 6bba           	move.d [sp+120],r11
    2b9c:	34e1 e99b           	move.d r9,[sp+52]
    2ba0:	b0b9                	jsr r0
    2ba2:	34e1 699a           	move.d [sp+52],r9
    2ba6:	6aa6                	test.d r10
    2ba8:	ff3d ce02           	beq 2e7a <__vfprintf_r+0x1716>
    2bac:	ff82                	cmpq -1,r8
    2bae:	ff3d fe06           	beq 32b0 <__vfprintf_r+0x1b4c>
    2bb2:	0f05                	nop 
    2bb4:	cf6c 6700           	cmpu.b 0x67,r6
    2bb8:	ff3d 9406           	beq 3250 <__vfprintf_r+0x1aec>
    2bbc:	0f05                	nop 
    2bbe:	cf6c 4700           	cmpu.b 0x47,r6
    2bc2:	ff3d 8a06           	beq 3250 <__vfprintf_r+0x1aec>
    2bc6:	0f05                	nop 
    2bc8:	65b6                	move.d r5,r11
    2bca:	5fbf 0001           	or.w 0x100,r11
    2bce:	5ce1 ebbb           	move.d r11,[sp+92]
    2bd2:	74e1 30ba           	move [sp+116],srp
    2bd6:	5fed b200 70ba      	move srp,[sp+178]
    2bdc:	78e1 6aaa           	move.d [sp+120],r10
    2be0:	5fed b600 eaab      	move.d r10,[sp+182]
    2be6:	ffbd ae06           	blt 3298 <__vfprintf_r+0x1b34>
    2bea:	0f05                	nop 
    2bec:	78e1 6cca           	move.d [sp+120],r12
    2bf0:	48e1 eccb           	move.d r12,[sp+72]
    2bf4:	60e1 700a           	clear.b [sp+96]
    2bf8:	cf6c 6600           	cmpu.b 0x66,r6
    2bfc:	ff3d d405           	beq 31d4 <__vfprintf_r+0x1a70>
    2c00:	0f05                	nop 
    2c02:	cf6c 4600           	cmpu.b 0x46,r6
    2c06:	ff3d ca05           	beq 31d4 <__vfprintf_r+0x1a70>
    2c0a:	0f05                	nop 
    2c0c:	cf6c 6500           	cmpu.b 0x65,r6
    2c10:	ff3d 7e06           	beq 3292 <__vfprintf_r+0x1b2e>
    2c14:	6876                	move.d r8,r7
    2c16:	cf6c 4500           	cmpu.b 0x45,r6
    2c1a:	ff3d 7406           	beq 3292 <__vfprintf_r+0x1b2e>
    2c1e:	0f05                	nop 
    2c20:	ee7b                	move.d r7,[sp]
    2c22:	6ed6                	move.d sp,r13
    2c24:	0fdc 9800           	addu.b 0x98,r13
    2c28:	04e1 eddb           	move.d r13,[sp+4]
    2c2c:	04d2                	addq 4,r13
    2c2e:	08e1 eddb           	move.d r13,[sp+8]
    2c32:	04d2                	addq 4,r13
    2c34:	0ce1 eddb           	move.d r13,[sp+12]
    2c38:	63a6                	move.d r3,r10
    2c3a:	74e1 6bba           	move.d [sp+116],r11
    2c3e:	48e1 6cca           	move.d [sp+72],r12
    2c42:	42d2                	moveq 2,r13
    2c44:	34e1 e99b           	move.d r9,[sp+52]
    2c48:	3fbd d437 0000      	jsr 37d4 <__dtoa_r>
    2c4e:	34e1 699a           	move.d [sp+52],r9
    2c52:	cf6c 6700           	cmpu.b 0x67,r6
    2c56:	0a30                	beq 2c62 <__vfprintf_r+0x14fe>
    2c58:	6a46                	move.d r10,r4
    2c5a:	cf6c 4700           	cmpu.b 0x47,r6
    2c5e:	0c20                	bne 2c6c <__vfprintf_r+0x1508>
    2c60:	6406                	move.d r4,r0
    2c62:	8053                	btstq 0,r5
    2c64:	ffad 8a06           	bge 32f2 <__vfprintf_r+0x1b8e>
    2c68:	0f05                	nop 
    2c6a:	6406                	move.d r4,r0
    2c6c:	cf6c 4600           	cmpu.b 0x46,r6
    2c70:	ff3d 9a05           	beq 320e <__vfprintf_r+0x1aaa>
    2c74:	2706                	add.d r7,r0
    2c76:	74e1 6aaa           	move.d [sp+116],r10
    2c7a:	48e1 6bba           	move.d [sp+72],r11
    2c7e:	7c86                	clear.d r12
    2c80:	7d86                	clear.d r13
    2c82:	34e1 e99b           	move.d r9,[sp+52]
    2c86:	3fbd 1c9d 0000      	jsr 9d1c <___eqdf2>
    2c8c:	34e1 699a           	move.d [sp+52],r9
    2c90:	6aa6                	test.d r10
    2c92:	2230                	beq 2cb6 <__vfprintf_r+0x1552>
    2c94:	0f05                	nop 
    2c96:	5fed a000 6dda      	move.d [sp+160],r13
    2c9c:	ed06                	cmp.d r13,r0
    2c9e:	ff8d 7207           	bls 3414 <__vfprintf_r+0x1cb0>
    2ca2:	0f05                	nop 
    2ca4:	4fae 3000           	move.b 0x30,r10
    2ca8:	cdaf                	move.b r10,[r13+]
    2caa:	5fed a000 eddb      	move.d r13,[sp+160]
    2cb0:	e0d6                	cmp.d r0,r13
    2cb2:	f520                	bne 2ca8 <__vfprintf_r+0x1544>
    2cb4:	0f05                	nop 
    2cb6:	a406                	sub.d r4,r0
    2cb8:	6ce1 e00b           	move.d r0,[sp+108]
    2cbc:	cf6c 6700           	cmpu.b 0x67,r6
    2cc0:	ff3d 1404           	beq 30d8 <__vfprintf_r+0x1974>
    2cc4:	0f05                	nop 
    2cc6:	cf6c 4700           	cmpu.b 0x47,r6
    2cca:	ff3d 0a04           	beq 30d8 <__vfprintf_r+0x1974>
    2cce:	0f05                	nop 
    2cd0:	cf6c 6600           	cmpu.b 0x66,r6
    2cd4:	ff2d 5007           	bne 3428 <__vfprintf_r+0x1cc4>
    2cd8:	0f05                	nop 
    2cda:	5fed 9800 6dda      	move.d [sp+152],r13
    2ce0:	ffdd be06           	ble 33a2 <__vfprintf_r+0x1c3e>
    2ce4:	6886                	test.d r8
    2ce6:	ff2d 8e06           	bne 3378 <__vfprintf_r+0x1c14>
    2cea:	8053                	btstq 0,r5
    2cec:	ffbd 8806           	blt 3378 <__vfprintf_r+0x1c14>
    2cf0:	0f05                	nop 
    2cf2:	48e1 eddb           	move.d r13,[sp+72]
    2cf6:	50e1 eddb           	move.d r13,[sp+80]
    2cfa:	70e1 eddb           	move.d r13,[sp+112]
    2cfe:	60e1 800b           	test.b [sp+96]
    2d02:	ff2d b604           	bne 31bc <__vfprintf_r+0x1a58>
    2d06:	0f05                	nop 
    2d08:	5fed 9500 400a      	move.b [sp+149],r0
    2d0e:	5ce1 655a           	move.d [sp+92],r5
    2d12:	60e1 708a           	clear.d [sp+96]
    2d16:	ffed 26ed           	ba 1a40 <__vfprintf_r+0x2dc>
    2d1a:	0f05                	nop 
    2d1c:	ffad aa01           	bge 2eca <__vfprintf_r+0x1766>
    2d20:	0f05                	nop 
    2d22:	54e1 6bba           	move.d [sp+84],r11
    2d26:	7bc8                	movs.w [r11],r12
    2d28:	3d75                	smi r13
    2d2a:	add5                	neg.d r13,r13
    2d2c:	7ca4                	movs.w r12,r10
    2d2e:	3b75                	smi r11
    2d30:	abb5                	neg.d r11,r11
    2d32:	40e1 eaab           	move.d r10,[sp+64]
    2d36:	44e1 ebbb           	move.d r11,[sp+68]
    2d3a:	54e1 6bba           	move.d [sp+84],r11
    2d3e:	04b2                	addq 4,r11
    2d40:	54e1 ebbb           	move.d r11,[sp+84]
    2d44:	ffed 90f3           	ba 20d8 <__vfprintf_r+0x974>
    2d48:	0f05                	nop 
    2d4a:	ffbd 6001           	blt 2eae <__vfprintf_r+0x174a>
    2d4e:	8653                	btstq 6,r5
    2d50:	ffad 4c04           	bge 31a0 <__vfprintf_r+0x1a3c>
    2d54:	0f05                	nop 
    2d56:	4ce1 5cca           	move.w [sp+76],r12
    2d5a:	54e1 6bba           	move.d [sp+84],r11
    2d5e:	6bba                	move.d [r11],r11
    2d60:	dbcb                	move.w r12,[r11]
    2d62:	54e1 6dda           	move.d [sp+84],r13
    2d66:	04d2                	addq 4,r13
    2d68:	54e1 eddb           	move.d r13,[sp+84]
    2d6c:	ffed ceea           	ba 183e <__vfprintf_r+0xda>
    2d70:	42da                	move.b [r2],r13
    2d72:	6fae 3eac 0000      	move.d ac3e <_zeroes.4007>,r10
    2d78:	e9ab                	move.d r10,[r9]
    2d7a:	0491 e77b           	move.d r7,[r9+4]
    2d7e:	5fed c200 2d7a      	add.d [sp+194],r7,r13
    2d84:	5fed c200 eddb      	move.d r13,[sp+194]
    2d8a:	0102                	addq 1,r0
    2d8c:	5fed be00 e00b      	move.d r0,[sp+190]
    2d92:	c702                	cmpq 7,r0
    2d94:	ffcd 10fc           	bgt 29a8 <__vfprintf_r+0x1244>
    2d98:	0892                	addq 8,r9
    2d9a:	ffed 26fc           	ba 29c4 <__vfprintf_r+0x1260>
    2d9e:	0f05                	nop 
    2da0:	6fae 3eac 0000      	move.d ac3e <_zeroes.4007>,r10
    2da6:	ffed 7af5           	ba 2324 <__vfprintf_r+0xbc0>
    2daa:	e9ab                	move.d r10,[r9]
    2dac:	63a6                	move.d r3,r10
    2dae:	61b6                	move.d r1,r11
    2db0:	6ec6                	move.d sp,r12
    2db2:	0fcc ba00           	addu.b 0xba,r12
    2db6:	3fbd 8c6a 0000      	jsr 6a8c <___sprint_r>
    2dbc:	6aa6                	test.d r10
    2dbe:	ff2d 92f0           	bne 1e54 <__vfprintf_r+0x6f0>
    2dc2:	6e96                	move.d sp,r9
    2dc4:	1f9c 5601           	addu.w 0x156,r9
    2dc8:	ffed b0f6           	ba 247c <__vfprintf_r+0xd18>
    2dcc:	0f05                	nop 
    2dce:	6fae 2cac 0000      	move.d ac2c <__global_impure_ptr+0x42>,r10
    2dd4:	e9ab                	move.d r10,[r9]
    2dd6:	0491 ebbb           	move.d r11,[r9+4]
    2dda:	5fed c200 2dba      	add.d [sp+194],r11,r13
    2de0:	5fed c200 eddb      	move.d r13,[sp+194]
    2de6:	5fed be00 2dba      	add.d [sp+190],r11,r13
    2dec:	5fed be00 eddb      	move.d r13,[sp+190]
    2df2:	c7d2                	cmpq 7,r13
    2df4:	ffcd 0001           	bgt 2ef8 <__vfprintf_r+0x1794>
    2df8:	0892                	addq 8,r9
    2dfa:	6666                	test.d r6
    2dfc:	1020                	bne 2e0e <__vfprintf_r+0x16aa>
    2dfe:	0f05                	nop 
    2e00:	6ce1 a00b           	test.d [sp+108]
    2e04:	0820                	bne 2e0e <__vfprintf_r+0x16aa>
    2e06:	8053                	btstq 0,r5
    2e08:	ffad 58ee           	bge 1c64 <__vfprintf_r+0x500>
    2e0c:	0f05                	nop 
    2e0e:	68e1 30ba           	move [sp+104],srp
    2e12:	79ba                	move srp,[r9]
    2e14:	7ce1 6aaa           	move.d [sp+124],r10
    2e18:	0491 eaab           	move.d r10,[r9+4]
    2e1c:	5fed c200 2daa      	add.d [sp+194],r10,r13
    2e22:	5fed c200 eddb      	move.d r13,[sp+194]
    2e28:	5fed be00 600a      	move.d [sp+190],r0
    2e2e:	0102                	addq 1,r0
    2e30:	5fed be00 e00b      	move.d r0,[sp+190]
    2e36:	c702                	cmpq 7,r0
    2e38:	ffcd 2804           	bgt 3264 <__vfprintf_r+0x1b00>
    2e3c:	0892                	addq 8,r9
    2e3e:	a665                	neg.d r6,r6
    2e40:	6666                	test.d r6
    2e42:	ffdd 6201           	ble 2fa8 <__vfprintf_r+0x1844>
    2e46:	0f05                	nop 
    2e48:	d062                	cmpq 16,r6
    2e4a:	ffdd c001           	ble 300e <__vfprintf_r+0x18aa>
    2e4e:	50c2                	moveq 16,r12
    2e50:	6fbe 3eac 0000      	move.d ac3e <_zeroes.4007>,r11
    2e56:	e9bb                	move.d r11,[r9]
    2e58:	0491 eccb           	move.d r12,[r9+4]
    2e5c:	5fed c200 2dca      	add.d [sp+194],r12,r13
    2e62:	5fed c200 eddb      	move.d r13,[sp+194]
    2e68:	0102                	addq 1,r0
    2e6a:	5fed be00 e00b      	move.d r0,[sp+190]
    2e70:	c702                	cmpq 7,r0
    2e72:	acc0                	bgt 2f20 <__vfprintf_r+0x17bc>
    2e74:	0892                	addq 8,r9
    2e76:	d1e0                	ba 2e48 <__vfprintf_r+0x16e4>
    2e78:	9062                	subq 16,r6
    2e7a:	cf6c 4700           	cmpu.b 0x47,r6
    2e7e:	ffcd 4a02           	bgt 30cc <__vfprintf_r+0x1968>
    2e82:	0f05                	nop 
    2e84:	6f4e f8ab 0000      	move.d abf8 <__global_impure_ptr+0xe>,r4
    2e8a:	2f5f 7fff ffff      	and.d 0xffffff7f,r5
    2e90:	5fed 9500 400a      	move.b [sp+149],r0
    2e96:	43a2                	moveq 3,r10
    2e98:	48e1 eaab           	move.d r10,[sp+72]
    2e9c:	50e1 eaab           	move.d r10,[sp+80]
    2ea0:	60e1 708a           	clear.d [sp+96]
    2ea4:	70e1 708a           	clear.d [sp+112]
    2ea8:	ffed 94eb           	ba 1a40 <__vfprintf_r+0x2dc>
    2eac:	0f05                	nop 
    2eae:	4ce1 6dda           	move.d [sp+76],r13
    2eb2:	54e1 6cca           	move.d [sp+84],r12
    2eb6:	6cca                	move.d [r12],r12
    2eb8:	ecdb                	move.d r13,[r12]
    2eba:	54e1 6aaa           	move.d [sp+84],r10
    2ebe:	04a2                	addq 4,r10
    2ec0:	54e1 eaab           	move.d r10,[sp+84]
    2ec4:	ffed 76e9           	ba 183e <__vfprintf_r+0xda>
    2ec8:	42da                	move.b [r2],r13
    2eca:	54e1 6dda           	move.d [sp+84],r13
    2ece:	6dca                	move.d [r13],r12
    2ed0:	3d75                	smi r13
    2ed2:	add5                	neg.d r13,r13
    2ed4:	40e1 eccb           	move.d r12,[sp+64]
    2ed8:	44e1 eddb           	move.d r13,[sp+68]
    2edc:	54e1 6aaa           	move.d [sp+84],r10
    2ee0:	04a2                	addq 4,r10
    2ee2:	54e1 eaab           	move.d r10,[sp+84]
    2ee6:	ffed eef1           	ba 20d8 <__vfprintf_r+0x974>
    2eea:	0f05                	nop 
    2eec:	6f4e f0ab 0000      	move.d abf0 <__global_impure_ptr+0x6>,r4
    2ef2:	ffed 5ef3           	ba 2254 <__vfprintf_r+0xaf0>
    2ef6:	0f05                	nop 
    2ef8:	63a6                	move.d r3,r10
    2efa:	61b6                	move.d r1,r11
    2efc:	6ec6                	move.d sp,r12
    2efe:	0fcc ba00           	addu.b 0xba,r12
    2f02:	3fbd 8c6a 0000      	jsr 6a8c <___sprint_r>
    2f08:	6aa6                	test.d r10
    2f0a:	ff2d 46ef           	bne 1e54 <__vfprintf_r+0x6f0>
    2f0e:	6e96                	move.d sp,r9
    2f10:	5fed 9800 666a      	move.d [sp+152],r6
    2f16:	1f9c 5601           	addu.w 0x156,r9
    2f1a:	ffed dcfe           	ba 2dfa <__vfprintf_r+0x1696>
    2f1e:	0f05                	nop 
    2f20:	63a6                	move.d r3,r10
    2f22:	61b6                	move.d r1,r11
    2f24:	6ec6                	move.d sp,r12
    2f26:	0fcc ba00           	addu.b 0xba,r12
    2f2a:	3fbd 8c6a 0000      	jsr 6a8c <___sprint_r>
    2f30:	6aa6                	test.d r10
    2f32:	ff2d 1eef           	bne 1e54 <__vfprintf_r+0x6f0>
    2f36:	6e96                	move.d sp,r9
    2f38:	1f9c 5601           	addu.w 0x156,r9
    2f3c:	5fed be00 600a      	move.d [sp+190],r0
    2f42:	05e0                	ba 2e48 <__vfprintf_r+0x16e4>
    2f44:	9062                	subq 16,r6
    2f46:	4f5f 2000           	or.b 0x20,r5
    2f4a:	01b1 4dda           	move.b [r11+1],r13
    2f4e:	ffed 66e9           	ba 18b8 <__vfprintf_r+0x154>
    2f52:	0122                	addq 1,r2
    2f54:	63a6                	move.d r3,r10
    2f56:	61b6                	move.d r1,r11
    2f58:	6ec6                	move.d sp,r12
    2f5a:	0fcc ba00           	addu.b 0xba,r12
    2f5e:	3fbd 8c6a 0000      	jsr 6a8c <___sprint_r>
    2f64:	6aa6                	test.d r10
    2f66:	ff2d eaee           	bne 1e54 <__vfprintf_r+0x6f0>
    2f6a:	6e96                	move.d sp,r9
    2f6c:	1f9c 5601           	addu.w 0x156,r9
    2f70:	ffed 4cf5           	ba 24c0 <__vfprintf_r+0xd5c>
    2f74:	0f05                	nop 
    2f76:	3ce1 6cca           	move.d [sp+60],r12
    2f7a:	a4c6                	sub.d r4,r12
    2f7c:	50e1 eccb           	move.d r12,[sp+80]
    2f80:	ffed a2ea           	ba 1a26 <__vfprintf_r+0x2c2>
    2f84:	0f05                	nop 
    2f86:	63a6                	move.d r3,r10
    2f88:	61b6                	move.d r1,r11
    2f8a:	6ec6                	move.d sp,r12
    2f8c:	0fcc ba00           	addu.b 0xba,r12
    2f90:	3fbd 8c6a 0000      	jsr 6a8c <___sprint_r>
    2f96:	6aa6                	test.d r10
    2f98:	ff2d b8ee           	bne 1e54 <__vfprintf_r+0x6f0>
    2f9c:	6e96                	move.d sp,r9
    2f9e:	1f9c 5601           	addu.w 0x156,r9
    2fa2:	5fed be00 600a      	move.d [sp+190],r0
    2fa8:	e94b                	move.d r4,[r9]
    2faa:	6ce1 6aaa           	move.d [sp+108],r10
    2fae:	0491 eaab           	move.d r10,[r9+4]
    2fb2:	5fed c200 2daa      	add.d [sp+194],r10,r13
    2fb8:	ffed 72f3           	ba 232e <__vfprintf_r+0xbca>
    2fbc:	0f05                	nop 
    2fbe:	34e1 e99b           	move.d r9,[sp+52]
    2fc2:	3fbd 1c6a 0000      	jsr 6a1c <_strlen>
    2fc8:	50e1 eaab           	move.d r10,[sp+80]
    2fcc:	48e1 eaab           	move.d r10,[sp+72]
    2fd0:	34e1 699a           	move.d [sp+52],r9
    2fd4:	6aa6                	test.d r10
    2fd6:	ffad baf1           	bge 2194 <__vfprintf_r+0xa30>
    2fda:	0f05                	nop 
    2fdc:	48e1 708a           	clear.d [sp+72]
    2fe0:	ffed b0f1           	ba 2194 <__vfprintf_r+0xa30>
    2fe4:	0f05                	nop 
    2fe6:	ffed 38f8           	ba 2822 <__vfprintf_r+0x10be>
    2fea:	7786                	clear.d r7
    2fec:	63a6                	move.d r3,r10
    2fee:	61b6                	move.d r1,r11
    2ff0:	6ec6                	move.d sp,r12
    2ff2:	0fcc ba00           	addu.b 0xba,r12
    2ff6:	3fbd 8c6a 0000      	jsr 6a8c <___sprint_r>
    2ffc:	6aa6                	test.d r10
    2ffe:	ff2d 52ee           	bne 1e54 <__vfprintf_r+0x6f0>
    3002:	6e96                	move.d sp,r9
    3004:	1f9c 5601           	addu.w 0x156,r9
    3008:	ffed 0ef8           	ba 281a <__vfprintf_r+0x10b6>
    300c:	0f05                	nop 
    300e:	6fde 3eac 0000      	move.d ac3e <_zeroes.4007>,r13
    3014:	e9db                	move.d r13,[r9]
    3016:	0491 e66b           	move.d r6,[r9+4]
    301a:	5fed c200 2d6a      	add.d [sp+194],r6,r13
    3020:	5fed c200 eddb      	move.d r13,[sp+194]
    3026:	0102                	addq 1,r0
    3028:	5fed be00 e00b      	move.d r0,[sp+190]
    302e:	c702                	cmpq 7,r0
    3030:	55c0                	bgt 2f86 <__vfprintf_r+0x1822>
    3032:	0892                	addq 8,r9
    3034:	75e0                	ba 2faa <__vfprintf_r+0x1846>
    3036:	e94b                	move.d r4,[r9]
    3038:	63a6                	move.d r3,r10
    303a:	61b6                	move.d r1,r11
    303c:	6ec6                	move.d sp,r12
    303e:	0fcc ba00           	addu.b 0xba,r12
    3042:	3fbd 8c6a 0000      	jsr 6a8c <___sprint_r>
    3048:	6aa6                	test.d r10
    304a:	ff2d 06ee           	bne 1e54 <__vfprintf_r+0x6f0>
    304e:	6e96                	move.d sp,r9
    3050:	5fed 9800 6dda      	move.d [sp+152],r13
    3056:	1f9c 5601           	addu.w 0x156,r9
    305a:	ffed 7ef9           	ba 29dc <__vfprintf_r+0x1278>
    305e:	a466                	sub.d r4,r6
    3060:	cf8d 0600           	bound.b 0x6,r8
    3064:	50e1 e88b           	move.d r8,[sp+80]
    3068:	48e1 e88b           	move.d r8,[sp+72]
    306c:	ffbd fe02           	blt 336e <__vfprintf_r+0x1c0a>
    3070:	0f05                	nop 
    3072:	54e1 e77b           	move.d r7,[sp+84]
    3076:	60e1 708a           	clear.d [sp+96]
    307a:	70e1 708a           	clear.d [sp+112]
    307e:	6f4e 24ac 0000      	move.d ac24 <__global_impure_ptr+0x3a>,r4
    3084:	ffed c8e9           	ba 1a50 <__vfprintf_r+0x2ec>
    3088:	7006                	clear.b r0
    308a:	63a6                	move.d r3,r10
    308c:	61b6                	move.d r1,r11
    308e:	6ec6                	move.d sp,r12
    3090:	0fcc ba00           	addu.b 0xba,r12
    3094:	3fbd 8c6a 0000      	jsr 6a8c <___sprint_r>
    309a:	6aa6                	test.d r10
    309c:	ff2d b4ed           	bne 1e54 <__vfprintf_r+0x6f0>
    30a0:	6e96                	move.d sp,r9
    30a2:	6ce1 6dda           	move.d [sp+108],r13
    30a6:	5fed 9800 adda      	sub.d [sp+152],r13
    30ac:	1f9c 5601           	addu.w 0x156,r9
    30b0:	ffed 66f9           	ba 2a1a <__vfprintf_r+0x12b6>
    30b4:	0f05                	nop 
    30b6:	ffed 68f9           	ba 2a22 <__vfprintf_r+0x12be>
    30ba:	7086                	clear.d r0
    30bc:	4fce 2d00           	move.b 0x2d,r12
    30c0:	5fed 9500 cccb      	move.b r12,[sp+149]
    30c6:	ffed 7af1           	ba 2244 <__vfprintf_r+0xae0>
    30ca:	4c06                	move.b r12,r0
    30cc:	6f4e fcab 0000      	move.d abfc <__global_impure_ptr+0x12>,r4
    30d2:	ffed b4fd           	ba 2e8a <__vfprintf_r+0x1726>
    30d6:	0f05                	nop 
    30d8:	5fed 9800 6dda      	move.d [sp+152],r13
    30de:	fdd2                	cmpq -3,r13
    30e0:	08b0                	blt 30ea <__vfprintf_r+0x1986>
    30e2:	6dc6                	move.d r13,r12
    30e4:	ed86                	cmp.d r13,r8
    30e6:	80a0                	bge 3168 <__vfprintf_r+0x1a04>
    30e8:	0f05                	nop 
    30ea:	8262                	subq 2,r6
    30ec:	6c86                	move.d r12,r8
    30ee:	8182                	subq 1,r8
    30f0:	5fed 9800 e88b      	move.d r8,[sp+152]
    30f6:	5fed a400 c66b      	move.b r6,[sp+164]
    30fc:	ff7d c402           	bmi 33c4 <__vfprintf_r+0x1c60>
    3100:	0f05                	nop 
    3102:	4fce 2b00           	move.b 0x2b,r12
    3106:	5fed a500 cccb      	move.b r12,[sp+165]
    310c:	c982                	cmpq 9,r8
    310e:	ffcd ec01           	bgt 32fe <__vfprintf_r+0x1b9a>
    3112:	6ed6                	move.d sp,r13
    3114:	4fbe 3000           	move.b 0x30,r11
    3118:	5fed a600 cbbb      	move.b r11,[sp+166]
    311e:	0b86                	add.b r11,r8
    3120:	5fed a700 c88b      	move.b r8,[sp+167]
    3126:	0fdc a400           	addu.b 0xa4,r13
    312a:	6dc6                	move.d r13,r12
    312c:	04c2                	addq 4,r12
    312e:	adc6                	sub.d r13,r12
    3130:	5fed 8000 eccb      	move.d r12,[sp+128]
    3136:	6ce1 2dca           	add.d [sp+108],r12,r13
    313a:	50e1 eddb           	move.d r13,[sp+80]
    313e:	6ce1 6aaa           	move.d [sp+108],r10
    3142:	c1a2                	cmpq 1,r10
    3144:	ffdd 4e02           	ble 3396 <__vfprintf_r+0x1c32>
    3148:	8053                	btstq 0,r5
    314a:	50e1 6dda           	move.d [sp+80],r13
    314e:	01d2                	addq 1,r13
    3150:	50e1 eddb           	move.d r13,[sp+80]
    3154:	48e1 eddb           	move.d r13,[sp+72]
    3158:	6dd6                	test.d r13
    315a:	36b0                	blt 3192 <__vfprintf_r+0x1a2e>
    315c:	0f05                	nop 
    315e:	70e1 708a           	clear.d [sp+112]
    3162:	ffed 98fb           	ba 2cfe <__vfprintf_r+0x159a>
    3166:	0f05                	nop 
    3168:	6ce1 edda           	cmp.d [sp+108],r13
    316c:	ffbd 4601           	blt 32b6 <__vfprintf_r+0x1b52>
    3170:	6dd6                	test.d r13
    3172:	8053                	btstq 0,r5
    3174:	ffbd 5e01           	blt 32d6 <__vfprintf_r+0x1b72>
    3178:	6db6                	move.d r13,r11
    317a:	48e1 eddb           	move.d r13,[sp+72]
    317e:	ffbd b202           	blt 3434 <__vfprintf_r+0x1cd0>
    3182:	0f05                	nop 
    3184:	50e1 eccb           	move.d r12,[sp+80]
    3188:	4f6c 6700           	movu.b 0x67,r6
    318c:	ffed 6afb           	ba 2cfa <__vfprintf_r+0x1596>
    3190:	0f05                	nop 
    3192:	48e1 708a           	clear.d [sp+72]
    3196:	70e1 708a           	clear.d [sp+112]
    319a:	ffed 60fb           	ba 2cfe <__vfprintf_r+0x159a>
    319e:	0f05                	nop 
    31a0:	4ce1 6bba           	move.d [sp+76],r11
    31a4:	54e1 6aaa           	move.d [sp+84],r10
    31a8:	6aaa                	move.d [r10],r10
    31aa:	eabb                	move.d r11,[r10]
    31ac:	54e1 6cca           	move.d [sp+84],r12
    31b0:	04c2                	addq 4,r12
    31b2:	54e1 eccb           	move.d r12,[sp+84]
    31b6:	ffed 84e6           	ba 183e <__vfprintf_r+0xda>
    31ba:	42da                	move.b [r2],r13
    31bc:	4fde 2d00           	move.b 0x2d,r13
    31c0:	5fed 9500 cddb      	move.b r13,[sp+149]
    31c6:	5ce1 655a           	move.d [sp+92],r5
    31ca:	60e1 708a           	clear.d [sp+96]
    31ce:	ffed 74e8           	ba 1a46 <__vfprintf_r+0x2e2>
    31d2:	4d06                	move.b r13,r0
    31d4:	ee8b                	move.d r8,[sp]
    31d6:	6ed6                	move.d sp,r13
    31d8:	0fdc 9800           	addu.b 0x98,r13
    31dc:	04e1 eddb           	move.d r13,[sp+4]
    31e0:	04d2                	addq 4,r13
    31e2:	08e1 eddb           	move.d r13,[sp+8]
    31e6:	04d2                	addq 4,r13
    31e8:	0ce1 eddb           	move.d r13,[sp+12]
    31ec:	63a6                	move.d r3,r10
    31ee:	74e1 6bba           	move.d [sp+116],r11
    31f2:	48e1 6cca           	move.d [sp+72],r12
    31f6:	43d2                	moveq 3,r13
    31f8:	34e1 e99b           	move.d r9,[sp+52]
    31fc:	3fbd d437 0000      	jsr 37d4 <__dtoa_r>
    3202:	6a46                	move.d r10,r4
    3204:	6a06                	move.d r10,r0
    3206:	2806                	add.d r8,r0
    3208:	6876                	move.d r8,r7
    320a:	34e1 699a           	move.d [sp+52],r9
    320e:	4fde 3000           	move.b 0x30,r13
    3212:	c4da                	cmp.b [r4],r13
    3214:	0e30                	beq 3224 <__vfprintf_r+0x1ac0>
    3216:	7c86                	clear.d r12
    3218:	5fed 9800 6dda      	move.d [sp+152],r13
    321e:	ffed 54fa           	ba 2c76 <__vfprintf_r+0x1512>
    3222:	2d06                	add.d r13,r0
    3224:	74e1 6aaa           	move.d [sp+116],r10
    3228:	48e1 6bba           	move.d [sp+72],r11
    322c:	7d86                	clear.d r13
    322e:	34e1 e99b           	move.d r9,[sp+52]
    3232:	3fbd 789d 0000      	jsr 9d78 <___nedf2>
    3238:	34e1 699a           	move.d [sp+52],r9
    323c:	6aa6                	test.d r10
    323e:	d930                	beq 3218 <__vfprintf_r+0x1ab4>
    3240:	41d2                	moveq 1,r13
    3242:	a7d6                	sub.d r7,r13
    3244:	5fed 9800 eddb      	move.d r13,[sp+152]
    324a:	ffed 28fa           	ba 2c76 <__vfprintf_r+0x1512>
    324e:	2d06                	add.d r13,r0
    3250:	6886                	test.d r8
    3252:	ff2d 74f9           	bne 2bca <__vfprintf_r+0x1466>
    3256:	65b6                	move.d r5,r11
    3258:	ffed 6ef9           	ba 2bca <__vfprintf_r+0x1466>
    325c:	4182                	moveq 1,r8
    325e:	ffed 5ae6           	ba 18bc <__vfprintf_r+0x158>
    3262:	6b26                	move.d r11,r2
    3264:	63a6                	move.d r3,r10
    3266:	61b6                	move.d r1,r11
    3268:	6ec6                	move.d sp,r12
    326a:	0fcc ba00           	addu.b 0xba,r12
    326e:	3fbd 8c6a 0000      	jsr 6a8c <___sprint_r>
    3274:	6aa6                	test.d r10
    3276:	ff2d daeb           	bne 1e54 <__vfprintf_r+0x6f0>
    327a:	6e96                	move.d sp,r9
    327c:	5fed 9800 666a      	move.d [sp+152],r6
    3282:	1f9c 5601           	addu.w 0x156,r9
    3286:	5fed be00 600a      	move.d [sp+190],r0
    328c:	ffed b0fb           	ba 2e40 <__vfprintf_r+0x16dc>
    3290:	a665                	neg.d r6,r6
    3292:	ffed 8af9           	ba 2c20 <__vfprintf_r+0x14bc>
    3296:	0172                	addq 1,r7
    3298:	2fae 0000 0080      	add.d 80000000 <__end+0x7fff02f0>,r10
    329e:	48e1 eaab           	move.d r10,[sp+72]
    32a2:	4fbe 2d00           	move.b 0x2d,r11
    32a6:	60e1 cbbb           	move.b r11,[sp+96]
    32aa:	ffed 4af9           	ba 2bf8 <__vfprintf_r+0x1494>
    32ae:	0f05                	nop 
    32b0:	ffed 14f9           	ba 2bc8 <__vfprintf_r+0x1464>
    32b4:	4682                	moveq 6,r8
    32b6:	ffdd 1a01           	ble 33d4 <__vfprintf_r+0x1c70>
    32ba:	4162                	moveq 1,r6
    32bc:	6ce1 266a           	add.d [sp+108],r6
    32c0:	50e1 e66b           	move.d r6,[sp+80]
    32c4:	48e1 e66b           	move.d r6,[sp+72]
    32c8:	1a70                	bmi 32e4 <__vfprintf_r+0x1b80>
    32ca:	0f05                	nop 
    32cc:	4f6c 6700           	movu.b 0x67,r6
    32d0:	ffed 26fa           	ba 2cfa <__vfprintf_r+0x1596>
    32d4:	0f05                	nop 
    32d6:	01b2                	addq 1,r11
    32d8:	50e1 ebbb           	move.d r11,[sp+80]
    32dc:	48e1 ebbb           	move.d r11,[sp+72]
    32e0:	eb60                	bpl 32cc <__vfprintf_r+0x1b68>
    32e2:	0f05                	nop 
    32e4:	48e1 708a           	clear.d [sp+72]
    32e8:	4f6c 6700           	movu.b 0x67,r6
    32ec:	ffed 0afa           	ba 2cfa <__vfprintf_r+0x1596>
    32f0:	0f05                	nop 
    32f2:	5fed a000 600a      	move.d [sp+160],r0
    32f8:	ffed bcf9           	ba 2cb8 <__vfprintf_r+0x1554>
    32fc:	a406                	sub.d r4,r0
    32fe:	4f0c b200           	movu.b 0xb2,r0
    3302:	2e06                	add.d sp,r0
    3304:	6f7e 48a2 0000      	move.d a248 <___Div>,r7
    330a:	8102                	subq 1,r0
    330c:	68a6                	move.d r8,r10
    330e:	4ab2                	moveq 10,r11
    3310:	34e1 e99b           	move.d r9,[sp+52]
    3314:	3fbd 94a4 0000      	jsr a494 <___Mod>
    331a:	30a2                	addq 48,r10
    331c:	c0ab                	move.b r10,[r0]
    331e:	68a6                	move.d r8,r10
    3320:	4ab2                	moveq 10,r11
    3322:	b7b9                	jsr r7
    3324:	34e1 699a           	move.d [sp+52],r9
    3328:	c9a2                	cmpq 9,r10
    332a:	dfc0                	bgt 330a <__vfprintf_r+0x1ba6>
    332c:	6a86                	move.d r10,r8
    332e:	4ab6                	move.b r10,r11
    3330:	30b2                	addq 48,r11
    3332:	ff01 cbbb           	move.b r11,[r0-1]
    3336:	4f7c b200           	movu.b 0xb2,r7
    333a:	2e76                	add.d sp,r7
    333c:	60d6                	move.d r0,r13
    333e:	81d2                	subq 1,r13
    3340:	ed76                	cmp.d r13,r7
    3342:	d680                	bls 341a <__vfprintf_r+0x1cb6>
    3344:	0f05                	nop 
    3346:	60c6                	move.d r0,r12
    3348:	6ed6                	move.d sp,r13
    334a:	0fdc a400           	addu.b 0xa4,r13
    334e:	6da6                	move.d r13,r10
    3350:	04e0                	ba 3356 <__vfprintf_r+0x1bf2>
    3352:	02a2                	addq 2,r10
    3354:	4cbe                	move.b [r12+],r11
    3356:	e7c6                	cmp.d r7,r12
    3358:	fb20                	bne 3354 <__vfprintf_r+0x1bf0>
    335a:	cabf                	move.b r11,[r10+]
    335c:	6dc6                	move.d r13,r12
    335e:	02c2                	addq 2,r12
    3360:	5fed 8800 6aaa      	move.d [sp+136],r10
    3366:	a0a6                	sub.d r0,r10
    3368:	ffed c2fd           	ba 312e <__vfprintf_r+0x19ca>
    336c:	2ac6                	add.d r10,r12
    336e:	48e1 708a           	clear.d [sp+72]
    3372:	ffed fcfc           	ba 3072 <__vfprintf_r+0x190e>
    3376:	0f05                	nop 
    3378:	0182                	addq 1,r8
    337a:	68a6                	move.d r8,r10
    337c:	2da6                	add.d r13,r10
    337e:	50e1 eaab           	move.d r10,[sp+80]
    3382:	48e1 eaab           	move.d r10,[sp+72]
    3386:	ff6d 70f9           	bpl 2cfa <__vfprintf_r+0x1596>
    338a:	0f05                	nop 
    338c:	48e1 708a           	clear.d [sp+72]
    3390:	ffed 66f9           	ba 2cfa <__vfprintf_r+0x1596>
    3394:	0f05                	nop 
    3396:	ffbd b0fd           	blt 314a <__vfprintf_r+0x19e6>
    339a:	0f05                	nop 
    339c:	ffed b4fd           	ba 3154 <__vfprintf_r+0x19f0>
    33a0:	0f05                	nop 
    33a2:	6886                	test.d r8
    33a4:	5a20                	bne 3400 <__vfprintf_r+0x1c9c>
    33a6:	8053                	btstq 0,r5
    33a8:	56b0                	blt 3400 <__vfprintf_r+0x1c9c>
    33aa:	41c2                	moveq 1,r12
    33ac:	48e1 eccb           	move.d r12,[sp+72]
    33b0:	50e1 eccb           	move.d r12,[sp+80]
    33b4:	ffed 42f9           	ba 2cfa <__vfprintf_r+0x1596>
    33b8:	0f05                	nop 
    33ba:	4ce1 e99b           	move.d r9,[sp+76]
    33be:	ffed 5eea           	ba 1e20 <__vfprintf_r+0x6bc>
    33c2:	0f05                	nop 
    33c4:	4fbe 2d00           	move.b 0x2d,r11
    33c8:	5fed a500 cbbb      	move.b r11,[sp+165]
    33ce:	ffed 3afd           	ba 310c <__vfprintf_r+0x19a8>
    33d2:	a885                	neg.d r8,r8
    33d4:	4f6e 0200           	move.b 0x2,r6
    33d8:	ffed e0fe           	ba 32bc <__vfprintf_r+0x1b58>
    33dc:	ad66                	sub.d r13,r6
    33de:	54e1 6aaa           	move.d [sp+84],r10
    33e2:	04a2                	addq 4,r10
    33e4:	54e1 6dda           	move.d [sp+84],r13
    33e8:	6d8a                	move.d [r13],r8
    33ea:	0121 4dda           	move.b [r2+1],r13
    33ee:	54e1 eaab           	move.d r10,[sp+84]
    33f2:	6886                	test.d r8
    33f4:	ffad c0e4           	bge 18b8 <__vfprintf_r+0x154>
    33f8:	6b26                	move.d r11,r2
    33fa:	ffed bae4           	ba 18b8 <__vfprintf_r+0x154>
    33fe:	7f82                	moveq -1,r8
    3400:	0282                	addq 2,r8
    3402:	50e1 e88b           	move.d r8,[sp+80]
    3406:	48e1 e88b           	move.d r8,[sp+72]
    340a:	ff6d ecf8           	bpl 2cfa <__vfprintf_r+0x1596>
    340e:	0f05                	nop 
    3410:	7be0                	ba 338c <__vfprintf_r+0x1c28>
    3412:	0f05                	nop 
    3414:	ffed 9ef8           	ba 2cb6 <__vfprintf_r+0x1552>
    3418:	6d06                	move.d r13,r0
    341a:	6ed6                	move.d sp,r13
    341c:	0fdc a400           	addu.b 0xa4,r13
    3420:	6dc6                	move.d r13,r12
    3422:	ffed 08fd           	ba 312e <__vfprintf_r+0x19ca>
    3426:	02c2                	addq 2,r12
    3428:	5fed 9800 6cca      	move.d [sp+152],r12
    342e:	ffed bcfc           	ba 30ee <__vfprintf_r+0x198a>
    3432:	6c86                	move.d r12,r8
    3434:	48e1 708a           	clear.d [sp+72]
    3438:	ffed 48fd           	ba 3184 <__vfprintf_r+0x1a20>
    343c:	0f05                	nop 

0000343e <_vfprintf>:
    343e:	84e2                	subq 4,sp
    3440:	7eba                	move srp,[sp]
    3442:	84e2                	subq 4,sp
    3444:	ee0b                	move.d r0,[sp]
    3446:	6a06                	move.d r10,r0
    3448:	6b96                	move.d r11,r9
    344a:	6cd6                	move.d r12,r13
    344c:	6fae 08b0 0000      	move.d b008 <__impure_ptr>,r10
    3452:	6aaa                	move.d [r10],r10
    3454:	60b6                	move.d r0,r11
    3456:	69c6                	move.d r9,r12
    3458:	3fbd 6417 0000      	jsr 1764 <__vfprintf_r>
    345e:	6e0e                	pop r0
    3460:	3e0d                	jump [sp+]
	...

00003464 <___swsetup_r>:
    3464:	84e2                	subq 4,sp
    3466:	7eba                	move srp,[sp]
    3468:	88e2                	subq 8,sp
    346a:	fe1b                	movem r1,[sp]
    346c:	6a16                	move.d r10,r1
    346e:	6fae 08b0 0000      	move.d b008 <__impure_ptr>,r10
    3474:	6aaa                	move.d [r10],r10
    3476:	0a30                	beq 3482 <___swsetup_r+0x1e>
    3478:	6b06                	move.d r11,r0
    347a:	35a1 a00b           	test.d [r10+53]
    347e:	9830                	beq 3518 <___swsetup_r+0xb4>
    3480:	0f05                	nop 
    3482:	0c01 599a           	move.w [r0+12],r9
    3486:	8393                	btstq 3,r9
    3488:	2aa0                	bge 34b4 <___swsetup_r+0x50>
    348a:	8493                	btstq 4,r9
    348c:	1001 6dda           	move.d [r0+16],r13
    3490:	3a30                	beq 34cc <___swsetup_r+0x68>
    3492:	59c6                	move.w r9,r12
    3494:	8093                	btstq 0,r9
    3496:	56a0                	bge 34ee <___swsetup_r+0x8a>
    3498:	8193                	btstq 1,r9
    349a:	0801 708a           	clear.d [r0+8]
    349e:	1401 699a           	move.d [r0+20],r9
    34a2:	a995                	neg.d r9,r9
    34a4:	1801 e99b           	move.d r9,[r0+24]
    34a8:	6dd6                	test.d r13
    34aa:	5430                	beq 3500 <___swsetup_r+0x9c>
    34ac:	0f05                	nop 
    34ae:	7a86                	clear.d r10
    34b0:	be1f                	movem [sp+],r1
    34b2:	3e0d                	jump [sp+]
    34b4:	a6a0                	bge 355c <___swsetup_r+0xf8>
    34b6:	8293                	btstq 2,r9
    34b8:	70b0                	blt 352a <___swsetup_r+0xc6>
    34ba:	0f05                	nop 
    34bc:	1001 6dda           	move.d [r0+16],r13
    34c0:	4893                	orq 8,r9
    34c2:	0c01 d99b           	move.w r9,[r0+12]
    34c6:	6dd6                	test.d r13
    34c8:	cb20                	bne 3494 <___swsetup_r+0x30>
    34ca:	59c6                	move.w r9,r12
    34cc:	1fcf 8002           	and.w 0x280,r12
    34d0:	dfce 0002           	cmp.w 0x200,r12
    34d4:	bf30                	beq 3494 <___swsetup_r+0x30>
    34d6:	0f05                	nop 
    34d8:	61a6                	move.d r1,r10
    34da:	60b6                	move.d r0,r11
    34dc:	3fbd 3c53 0000      	jsr 533c <___smakebuf_r>
    34e2:	0c01 599a           	move.w [r0+12],r9
    34e6:	1001 6dda           	move.d [r0+16],r13
    34ea:	a9e0                	ba 3494 <___swsetup_r+0x30>
    34ec:	0f05                	nop 
    34ee:	32b0                	blt 3522 <___swsetup_r+0xbe>
    34f0:	7986                	clear.d r9
    34f2:	1401 699a           	move.d [r0+20],r9
    34f6:	0801 e99b           	move.d r9,[r0+8]
    34fa:	6dd6                	test.d r13
    34fc:	b120                	bne 34ae <___swsetup_r+0x4a>
    34fe:	0f05                	nop 
    3500:	0c01 599a           	move.w [r0+12],r9
    3504:	8793                	btstq 7,r9
    3506:	a9a0                	bge 34b0 <___swsetup_r+0x4c>
    3508:	7a86                	clear.d r10
    350a:	5f9f 4000           	or.w 0x40,r9
    350e:	0c01 d99b           	move.w r9,[r0+12]
    3512:	7fa2                	moveq -1,r10
    3514:	be1f                	movem [sp+],r1
    3516:	3e0d                	jump [sp+]
    3518:	3fbd 684d 0000      	jsr 4d68 <___sinit>
    351e:	63e0                	ba 3482 <___swsetup_r+0x1e>
    3520:	0f05                	nop 
    3522:	0801 e99b           	move.d r9,[r0+8]
    3526:	d3e0                	ba 34fa <___swsetup_r+0x96>
    3528:	0f05                	nop 
    352a:	3001 6bba           	move.d [r0+48],r11
    352e:	1c30                	beq 354c <___swsetup_r+0xe8>
    3530:	0f05                	nop 
    3532:	60d6                	move.d r0,r13
    3534:	0fdc 4000           	addu.b 0x40,r13
    3538:	edb6                	cmp.d r13,r11
    353a:	0c30                	beq 3548 <___swsetup_r+0xe4>
    353c:	61a6                	move.d r1,r10
    353e:	3fbd 9a4f 0000      	jsr 4f9a <__free_r>
    3544:	0c01 599a           	move.w [r0+12],r9
    3548:	3001 708a           	clear.d [r0+48]
    354c:	1f9f dbff           	and.w 0xffdb,r9
    3550:	0401 708a           	clear.d [r0+4]
    3554:	1001 6dda           	move.d [r0+16],r13
    3558:	67e0                	ba 34c0 <___swsetup_r+0x5c>
    355a:	e0db                	move.d r13,[r0]
    355c:	49d2                	moveq 9,r13
    355e:	e1db                	move.d r13,[r1]
    3560:	5f9f 4000           	or.w 0x40,r9
    3564:	0c01 d99b           	move.w r9,[r0+12]
    3568:	7fa2                	moveq -1,r10
    356a:	be1f                	movem [sp+],r1
    356c:	3e0d                	jump [sp+]
	...

00003570 <___call_exitprocs>:
    3570:	84e2                	subq 4,sp
    3572:	7eba                	move srp,[sp]
    3574:	a8e2                	subq 40,sp
    3576:	fe8b                	movem r8,[sp]
    3578:	24e1 eaab           	move.d r10,[sp+36]
    357c:	6b26                	move.d r11,r2
    357e:	6f8e eaab 0000      	move.d abea <__global_impure_ptr>,r8
    3584:	688a                	move.d [r8],r8
    3586:	1f8c 4501           	addu.w 0x145,r8
    358a:	4152                	moveq 1,r5
    358c:	6f9e eaab 0000      	move.d abea <__global_impure_ptr>,r9
    3592:	699a                	move.d [r9],r9
    3594:	5f9d 4501 666a      	move.d [r9+325],r6
    359a:	6846                	move.d r8,r4
    359c:	6666                	test.d r6
    359e:	8e30                	beq 362e <___call_exitprocs+0xbe>
    35a0:	0f05                	nop 
    35a2:	0461 600a           	move.d [r6+4],r0
    35a6:	8102                	subq 1,r0
    35a8:	7a70                	bmi 3624 <___call_exitprocs+0xb4>
    35aa:	0f05                	nop 
    35ac:	6636                	move.d r6,r3
    35ae:	0f3c 8800           	addu.b 0x88,r3
    35b2:	6316                	move.d r3,r1
    35b4:	14e0                	ba 35ca <___call_exitprocs+0x5a>
    35b6:	2105                	addi r0.d,r1
    35b8:	5f1d 8000 e22a      	cmp.d [r1+128],r2
    35be:	1230                	beq 35d2 <___call_exitprocs+0x62>
    35c0:	a3c6                	sub.d r3,r12
    35c2:	8102                	subq 1,r0
    35c4:	ff02                	cmpq -1,r0
    35c6:	5c30                	beq 3624 <___call_exitprocs+0xb4>
    35c8:	8412                	subq 4,r1
    35ca:	6226                	test.d r2
    35cc:	eb20                	bne 35b8 <___call_exitprocs+0x48>
    35ce:	61c6                	move.d r1,r12
    35d0:	a3c6                	sub.d r3,r12
    35d2:	26c6                	add.d r6,r12
    35d4:	08c1 6dda           	move.d [r12+8],r13
    35d8:	0461 6bba           	move.d [r6+4],r11
    35dc:	81b2                	subq 1,r11
    35de:	e0b6                	cmp.d r0,r11
    35e0:	5830                	beq 363a <___call_exitprocs+0xca>
    35e2:	0f05                	nop 
    35e4:	08c1 708a           	clear.d [r12+8]
    35e8:	6dd6                	test.d r13
    35ea:	d730                	beq 35c2 <___call_exitprocs+0x52>
    35ec:	65b6                	move.d r5,r11
    35ee:	0461 677a           	move.d [r6+4],r7
    35f2:	e0b4                	lsl.d r0,r11
    35f4:	5f6d 8801 2abb      	and.d [r6+392],r11,r10
    35fa:	3830                	beq 3634 <___call_exitprocs+0xc4>
    35fc:	0f05                	nop 
    35fe:	5f6d 8c01 2bbb      	and.d [r6+396],r11
    3604:	3c20                	bne 3642 <___call_exitprocs+0xd2>
    3606:	0f05                	nop 
    3608:	24e1 6aaa           	move.d [sp+36],r10
    360c:	61ba                	move.d [r1],r11
    360e:	bdb9                	jsr r13
    3610:	0461 e77a           	cmp.d [r6+4],r7
    3614:	7720                	bne 358c <___call_exitprocs+0x1c>
    3616:	0f05                	nop 
    3618:	e46a                	cmp.d [r4],r6
    361a:	7120                	bne 358c <___call_exitprocs+0x1c>
    361c:	8102                	subq 1,r0
    361e:	ff02                	cmpq -1,r0
    3620:	a920                	bne 35ca <___call_exitprocs+0x5a>
    3622:	8412                	subq 4,r1
    3624:	6f9e 0000 0000      	move.d 0 <_.xy-0x4>,r9
    362a:	1e20                	bne 364a <___call_exitprocs+0xda>
    362c:	0f05                	nop 
    362e:	be8f                	movem [sp+],r8
    3630:	04e2                	addq 4,sp
    3632:	3e0d                	jump [sp+]
    3634:	bdb9                	jsr r13
    3636:	d9e0                	ba 3610 <___call_exitprocs+0xa0>
    3638:	0f05                	nop 
    363a:	0461 e00b           	move.d r0,[r6+4]
    363e:	a9e0                	ba 35e8 <___call_exitprocs+0x78>
    3640:	0f05                	nop 
    3642:	61aa                	move.d [r1],r10
    3644:	bdb9                	jsr r13
    3646:	c9e0                	ba 3610 <___call_exitprocs+0xa0>
    3648:	0f05                	nop 
    364a:	0461 a00b           	test.d [r6+4]
    364e:	1020                	bne 3660 <___call_exitprocs+0xf0>
    3650:	0f05                	nop 
    3652:	66da                	move.d [r6],r13
    3654:	1230                	beq 3668 <___call_exitprocs+0xf8>
    3656:	66a6                	move.d r6,r10
    3658:	e4db                	move.d r13,[r4]
    365a:	b9b9                	jsr r9
    365c:	3fe0                	ba 359c <___call_exitprocs+0x2c>
    365e:	646a                	move.d [r4],r6
    3660:	66da                	move.d [r6],r13
    3662:	6646                	move.d r6,r4
    3664:	37e0                	ba 359c <___call_exitprocs+0x2c>
    3666:	6d66                	move.d r13,r6
    3668:	f9e0                	ba 3662 <___call_exitprocs+0xf2>
    366a:	7d86                	clear.d r13

0000366c <_quorem>:
    366c:	84e2                	subq 4,sp
    366e:	7eba                	move srp,[sp]
    3670:	b4e2                	subq 52,sp
    3672:	fe8b                	movem r8,[sp]
    3674:	30e1 ebbb           	move.d r11,[sp+48]
    3678:	10b1 699a           	move.d [r11+16],r9
    367c:	10a1 e99a           	cmp.d [r10+16],r9
    3680:	ffcd 4801           	bgt 37cc <_quorem+0x160>
    3684:	6a76                	move.d r10,r7
    3686:	6b06                	move.d r11,r0
    3688:	1402                	addq 20,r0
    368a:	6916                	move.d r9,r1
    368c:	8112                	subq 1,r1
    368e:	0492                	addq 4,r9
    3690:	6b66                	move.d r11,r6
    3692:	2695                	addi r9.d,r6
    3694:	6a86                	move.d r10,r8
    3696:	1482                	addq 20,r8
    3698:	6b95 6bba           	move.d [r11+r9.d],r11
    369c:	6a95 6aaa           	move.d [r10+r9.d],r10
    36a0:	01b2                	addq 1,r11
    36a2:	3fbd 04a1 0000      	jsr a104 <___Udiv>
    36a8:	6aa6                	test.d r10
    36aa:	a630                	beq 3752 <_quorem+0xe6>
    36ac:	6a26                	move.d r10,r2
    36ae:	6046                	move.d r0,r4
    36b0:	6836                	move.d r8,r3
    36b2:	7c86                	clear.d r12
    36b4:	7d86                	clear.d r13
    36b6:	649e                	move.d [r4+],r9
    36b8:	59a4                	movu.w r9,r10
    36ba:	62b6                	move.d r2,r11
    36bc:	2ce1 e99b           	move.d r9,[sp+44]
    36c0:	24e1 eccb           	move.d r12,[sp+36]
    36c4:	28e1 eddb           	move.d r13,[sp+40]
    36c8:	3fbd 9ca5 0000      	jsr a59c <___Mul>
    36ce:	24e1 6cca           	move.d [sp+36],r12
    36d2:	6c56                	move.d r12,r5
    36d4:	2a56                	add.d r10,r5
    36d6:	65c6                	move.d r5,r12
    36d8:	f0c3                	lsrq 16,r12
    36da:	2ce1 699a           	move.d [sp+44],r9
    36de:	69a6                	move.d r9,r10
    36e0:	f0a3                	lsrq 16,r10
    36e2:	62b6                	move.d r2,r11
    36e4:	24e1 eccb           	move.d r12,[sp+36]
    36e8:	3fbd 9ca5 0000      	jsr a59c <___Mul>
    36ee:	24e1 6cca           	move.d [sp+36],r12
    36f2:	2ca6                	add.d r12,r10
    36f4:	6ac6                	move.d r10,r12
    36f6:	f0c3                	lsrq 16,r12
    36f8:	63ba                	move.d [r3],r11
    36fa:	28e1 6dda           	move.d [sp+40],r13
    36fe:	6d96                	move.d r13,r9
    3700:	1b94                	addu.w r11,r9
    3702:	9594                	subu.w r5,r9
    3704:	f0b3                	lsrq 16,r11
    3706:	9ab4                	subu.w r10,r11
    3708:	69d6                	move.d r9,r13
    370a:	b0d3                	asrq 16,r13
    370c:	2db6                	add.d r13,r11
    370e:	6bd6                	move.d r11,r13
    3710:	b0d3                	asrq 16,r13
    3712:	d0b3                	lslq 16,r11
    3714:	5994                	movu.w r9,r9
    3716:	69b7                	or.d r9,r11
    3718:	e466                	cmp.d r4,r6
    371a:	9b00                	bcc 36b6 <_quorem+0x4a>
    371c:	e3bf                	move.d r11,[r3+]
    371e:	6196                	move.d r1,r9
    3720:	0592                	addq 5,r9
    3722:	6795 a00b           	test.d [r7+r9.d]
    3726:	2a20                	bne 3752 <_quorem+0xe6>
    3728:	67d6                	move.d r7,r13
    372a:	2d95                	addi r9.d,r13
    372c:	6d96                	move.d r13,r9
    372e:	8492                	subq 4,r9
    3730:	e986                	cmp.d r9,r8
    3732:	1a00                	bcc 374e <_quorem+0xe2>
    3734:	0f05                	nop 
    3736:	fcd1 a00b           	test.d [r13-4]
    373a:	0c30                	beq 3748 <_quorem+0xdc>
    373c:	8492                	subq 4,r9
    373e:	0ee0                	ba 374e <_quorem+0xe2>
    3740:	0f05                	nop 
    3742:	a90b                	test.d [r9]
    3744:	0820                	bne 374e <_quorem+0xe2>
    3746:	8492                	subq 4,r9
    3748:	e986                	cmp.d r9,r8
    374a:	f710                	bcs 3742 <_quorem+0xd6>
    374c:	8112                	subq 1,r1
    374e:	1071 e11b           	move.d r1,[r7+16]
    3752:	67a6                	move.d r7,r10
    3754:	30e1 6bba           	move.d [sp+48],r11
    3758:	3fbd 4063 0000      	jsr 6340 <___mcmp>
    375e:	6aa6                	test.d r10
    3760:	62b0                	blt 37c4 <_quorem+0x158>
    3762:	68c6                	move.d r8,r12
    3764:	0122                	addq 1,r2
    3766:	7a86                	clear.d r10
    3768:	60be                	move.d [r0+],r11
    376a:	6c9a                	move.d [r12],r9
    376c:	6ad6                	move.d r10,r13
    376e:	19d4                	addu.w r9,r13
    3770:	9bd4                	subu.w r11,r13
    3772:	f093                	lsrq 16,r9
    3774:	f0b3                	lsrq 16,r11
    3776:	ab96                	sub.d r11,r9
    3778:	6db6                	move.d r13,r11
    377a:	b0b3                	asrq 16,r11
    377c:	2b96                	add.d r11,r9
    377e:	69a6                	move.d r9,r10
    3780:	b0a3                	asrq 16,r10
    3782:	d093                	lslq 16,r9
    3784:	5dd4                	movu.w r13,r13
    3786:	6d97                	or.d r13,r9
    3788:	e066                	cmp.d r0,r6
    378a:	dd00                	bcc 3768 <_quorem+0xfc>
    378c:	ec9f                	move.d r9,[r12+]
    378e:	6196                	move.d r1,r9
    3790:	0592                	addq 5,r9
    3792:	6795 a00b           	test.d [r7+r9.d]
    3796:	2c20                	bne 37c4 <_quorem+0x158>
    3798:	67d6                	move.d r7,r13
    379a:	2d95                	addi r9.d,r13
    379c:	6d96                	move.d r13,r9
    379e:	8492                	subq 4,r9
    37a0:	e986                	cmp.d r9,r8
    37a2:	1c00                	bcc 37c0 <_quorem+0x154>
    37a4:	0f05                	nop 
    37a6:	fcd1 a00b           	test.d [r13-4]
    37aa:	0e30                	beq 37ba <_quorem+0x14e>
    37ac:	8492                	subq 4,r9
    37ae:	10e0                	ba 37c0 <_quorem+0x154>
    37b0:	0492                	addq 4,r9
    37b2:	a90b                	test.d [r9]
    37b4:	0a20                	bne 37c0 <_quorem+0x154>
    37b6:	0f05                	nop 
    37b8:	8492                	subq 4,r9
    37ba:	e986                	cmp.d r9,r8
    37bc:	f510                	bcs 37b2 <_quorem+0x146>
    37be:	8112                	subq 1,r1
    37c0:	1071 e11b           	move.d r1,[r7+16]
    37c4:	62a6                	move.d r2,r10
    37c6:	be8f                	movem [sp+],r8
    37c8:	10e2                	addq 16,sp
    37ca:	3e0d                	jump [sp+]
    37cc:	7a86                	clear.d r10
    37ce:	be8f                	movem [sp+],r8
    37d0:	10e2                	addq 16,sp
    37d2:	3e0d                	jump [sp+]

000037d4 <__dtoa_r>:
    37d4:	84e2                	subq 4,sp
    37d6:	7eba                	move srp,[sp]
    37d8:	8fec 9800           	subu.b 0x98,sp
    37dc:	fe8b                	movem r8,[sp]
    37de:	84e2                	subq 4,sp
    37e0:	38e1 eddb           	move.d r13,[sp+56]
    37e4:	5fed a800 600a      	move.d [sp+168],r0
    37ea:	5fed 8400 ebbb      	move.d r11,[sp+132]
    37f0:	5fed 8800 eccb      	move.d r12,[sp+136]
    37f6:	3da1 6bba           	move.d [r10+61],r11
    37fa:	1c30                	beq 3818 <__dtoa_r+0x44>
    37fc:	6a86                	move.d r10,r8
    37fe:	41a1 6dda           	move.d [r10+65],r13
    3802:	04b1 eddb           	move.d r13,[r11+4]
    3806:	4192                	moveq 1,r9
    3808:	ed94                	lsl.d r13,r9
    380a:	08b1 e99b           	move.d r9,[r11+8]
    380e:	3fbd 045e 0000      	jsr 5e04 <__Bfree>
    3814:	3d81 708a           	clear.d [r8+61]
    3818:	5fed 8800 633a      	move.d [sp+136],r3
    381e:	b0b0                	blt 38d0 <__dtoa_r+0xfc>
    3820:	4192                	moveq 1,r9
    3822:	708a                	clear.d [r0]
    3824:	6396                	move.d r3,r9
    3826:	2f9f 0000 f07f      	and.d 7ff00000 <__end+0x7fef02f0>,r9
    382c:	ef9e 0000 f07f      	cmp.d 7ff00000 <__end+0x7fef02f0>,r9
    3832:	5430                	beq 3888 <__dtoa_r+0xb4>
    3834:	7c86                	clear.d r12
    3836:	5fed 8400 644a      	move.d [sp+132],r4
    383c:	5fed 8800 622a      	move.d [sp+136],r2
    3842:	64a6                	move.d r4,r10
    3844:	62b6                	move.d r2,r11
    3846:	7d86                	clear.d r13
    3848:	3fbd 1c9d 0000      	jsr 9d1c <___eqdf2>
    384e:	6aa6                	test.d r10
    3850:	9020                	bne 38e2 <__dtoa_r+0x10e>
    3852:	41c2                	moveq 1,r12
    3854:	5fed a400 699a      	move.d [sp+164],r9
    385a:	e9cb                	move.d r12,[r9]
    385c:	5fed ac00 a00b      	test.d [sp+172]
    3862:	ff3d 6402           	beq 3aca <__dtoa_r+0x2f6>
    3866:	0f05                	nop 
    3868:	6fce 2dac 0000      	move.d ac2d <__global_impure_ptr+0x43>,r12
    386e:	5fed ac00 699a      	move.d [sp+172],r9
    3874:	e9cb                	move.d r12,[r9]
    3876:	6f1e 2cac 0000      	move.d ac2c <__global_impure_ptr+0x42>,r1
    387c:	61a6                	move.d r1,r10
    387e:	04e2                	addq 4,sp
    3880:	be8f                	movem [sp+],r8
    3882:	0fec 7400           	addu.b 0x74,sp
    3886:	3e0d                	jump [sp+]
    3888:	5fcc 0f27           	movu.w 0x270f,r12
    388c:	5fed a400 699a      	move.d [sp+164],r9
    3892:	e9cb                	move.d r12,[r9]
    3894:	5fed 8400 a00b      	test.d [sp+132]
    389a:	ff3d ea01           	beq 3a88 <__dtoa_r+0x2b4>
    389e:	9333                	btstq 19,r3
    38a0:	6f1e 58ac 0000      	move.d ac58 <_zeroes.4007+0x1a>,r1
    38a6:	5fed ac00 a00b      	test.d [sp+172]
    38ac:	d130                	beq 387e <__dtoa_r+0xaa>
    38ae:	61a6                	move.d r1,r10
    38b0:	0311 800b           	test.b [r1+3]
    38b4:	ff2d e201           	bne 3a9a <__dtoa_r+0x2c6>
    38b8:	6196                	move.d r1,r9
    38ba:	0392                	addq 3,r9
    38bc:	5fed ac00 6dda      	move.d [sp+172],r13
    38c2:	ed9b                	move.d r9,[r13]
    38c4:	61a6                	move.d r1,r10
    38c6:	04e2                	addq 4,sp
    38c8:	be8f                	movem [sp+],r8
    38ca:	0fec 7400           	addu.b 0x74,sp
    38ce:	3e0d                	jump [sp+]
    38d0:	e09b                	move.d r9,[r0]
    38d2:	2f3f ffff ff7f      	and.d 7fffffff <__end+0x7fff02ef>,r3
    38d8:	5fed 8800 e33b      	move.d r3,[sp+136]
    38de:	47e0                	ba 3826 <__dtoa_r+0x52>
    38e0:	6396                	move.d r3,r9
    38e2:	6e96                	move.d sp,r9
    38e4:	0f9c 7c00           	addu.b 0x7c,r9
    38e8:	ee9b                	move.d r9,[sp]
    38ea:	68a6                	move.d r8,r10
    38ec:	64b6                	move.d r4,r11
    38ee:	62c6                	move.d r2,r12
    38f0:	6ed6                	move.d sp,r13
    38f2:	0fdc 8000           	addu.b 0x80,r13
    38f6:	3fbd b465 0000      	jsr 65b4 <___d2b>
    38fc:	6306                	move.d r3,r0
    38fe:	f403                	lsrq 20,r0
    3900:	1f0f ff07           	and.w 0x7ff,r0
    3904:	6006                	test.d r0
    3906:	ff2d 9601           	bne 3aa0 <__dtoa_r+0x2cc>
    390a:	6a76                	move.d r10,r7
    390c:	7ce1 622a           	move.d [sp+124],r2
    3910:	5fed 8000 202a      	add.d [sp+128],r2,r0
    3916:	ff0c effb           	cmps.w -1041,r0
    391a:	ffbd 9406           	blt 3fb2 <__dtoa_r+0x7de>
    391e:	60d6                	move.d r0,r13
    3920:	7f9c 0efc           	movs.w -1010,r9
    3924:	a096                	sub.d r0,r9
    3926:	63a6                	move.d r3,r10
    3928:	e9a4                	lsl.d r9,r10
    392a:	1fdc 1204           	addu.w 0x412,r13
    392e:	5fed 8400 699a      	move.d [sp+132],r9
    3934:	ed97                	lsr.d r13,r9
    3936:	69a7                	or.d r9,r10
    3938:	3fbd 30a0 0000      	jsr a030 <___floatunsidf>
    393e:	5fed 8c00 eaab      	move.d r10,[sp+140]
    3944:	2fbe 0000 10fe      	add.d fe100000 <__end+0xfe0f02f0>,r11
    394a:	5fed 9000 ebbb      	move.d r11,[sp+144]
    3950:	8102                	subq 1,r0
    3952:	4192                	moveq 1,r9
    3954:	64e1 e99b           	move.d r9,[sp+100]
    3958:	5fed 8c00 6aaa      	move.d [sp+140],r10
    395e:	5fed 9000 6bba      	move.d [sp+144],r11
    3964:	7c86                	clear.d r12
    3966:	6fde 0000 f83f      	move.d 3ff80000 <__end+0x3ff702f0>,r13
    396c:	3fbd 7297 0000      	jsr 9772 <___subdf3>
    3972:	6fce 6143 6f63      	move.d 636f4361 <__end+0x636e4651>,r12
    3978:	6fde a787 d23f      	move.d 3fd287a7 <__end+0x3fd18a97>,r13
    397e:	3fbd d097 0000      	jsr 97d0 <___muldf3>
    3984:	6fce b3c8 608b      	move.d 8b60c8b3 <__end+0x8b5fcba3>,r12
    398a:	6fde 288a c63f      	move.d 3fc68a28 <__end+0x3fc58d18>,r13
    3990:	3fbd 2097 0000      	jsr 9720 <___adddf3>
    3996:	6a46                	move.d r10,r4
    3998:	6b36                	move.d r11,r3
    399a:	60a6                	move.d r0,r10
    399c:	3fbd e89e 0000      	jsr 9ee8 <___floatsidf>
    39a2:	6fce fb79 9f50      	move.d 509f79fb <__end+0x509e7ceb>,r12
    39a8:	6fde 1344 d33f      	move.d 3fd34413 <__end+0x3fd24703>,r13
    39ae:	3fbd d097 0000      	jsr 97d0 <___muldf3>
    39b4:	6ac6                	move.d r10,r12
    39b6:	6bd6                	move.d r11,r13
    39b8:	64a6                	move.d r4,r10
    39ba:	63b6                	move.d r3,r11
    39bc:	3fbd 2097 0000      	jsr 9720 <___adddf3>
    39c2:	6a46                	move.d r10,r4
    39c4:	6b36                	move.d r11,r3
    39c6:	3fbd a09f 0000      	jsr 9fa0 <___fixdfsi>
    39cc:	3ce1 eaab           	move.d r10,[sp+60]
    39d0:	64a6                	move.d r4,r10
    39d2:	63b6                	move.d r3,r11
    39d4:	7c86                	clear.d r12
    39d6:	7d86                	clear.d r13
    39d8:	3fbd 309e 0000      	jsr 9e30 <___ltdf2>
    39de:	6aa6                	test.d r10
    39e0:	ffbd 5c03           	blt 3d40 <__dtoa_r+0x56c>
    39e4:	0f05                	nop 
    39e6:	4192                	moveq 1,r9
    39e8:	54e1 e99b           	move.d r9,[sp+84]
    39ec:	3ce1 699a           	move.d [sp+60],r9
    39f0:	d692                	cmpq 22,r9
    39f2:	3a90                	bhi 3a2e <__dtoa_r+0x25a>
    39f4:	c393                	lslq 3,r9
    39f6:	5fed 8400 6aaa      	move.d [sp+132],r10
    39fc:	5fed 8800 6bba      	move.d [sp+136],r11
    3a02:	6f9d b4ac 0000 6cca 	move.d [r9+acb4 <___mprec_tens>],r12
    3a0a:	6f9d b8ac 0000 6dda 	move.d [r9+acb8 <___mprec_tens+0x4>],r13
    3a12:	3fbd 309e 0000      	jsr 9e30 <___ltdf2>
    3a18:	6aa6                	test.d r10
    3a1a:	ffad a605           	bge 3fc4 <__dtoa_r+0x7f0>
    3a1e:	0f05                	nop 
    3a20:	3ce1 699a           	move.d [sp+60],r9
    3a24:	8192                	subq 1,r9
    3a26:	3ce1 e99b           	move.d r9,[sp+60]
    3a2a:	54e1 708a           	clear.d [sp+84]
    3a2e:	a026                	sub.d r0,r2
    3a30:	6206                	move.d r2,r0
    3a32:	8102                	subq 1,r0
    3a34:	ff7d fc02           	bmi 3d34 <__dtoa_r+0x560>
    3a38:	0f05                	nop 
    3a3a:	6066                	move.d r0,r6
    3a3c:	40e1 708a           	clear.d [sp+64]
    3a40:	3ce1 a00b           	test.d [sp+60]
    3a44:	ffbd 2403           	blt 3d6c <__dtoa_r+0x598>
    3a48:	0f05                	nop 
    3a4a:	3ce1 266a           	add.d [sp+60],r6
    3a4e:	3ce1 699a           	move.d [sp+60],r9
    3a52:	4ce1 e99b           	move.d r9,[sp+76]
    3a56:	48e1 708a           	clear.d [sp+72]
    3a5a:	38e1 699a           	move.d [sp+56],r9
    3a5e:	c992                	cmpq 9,r9
    3a60:	7490                	bhi 3ad6 <__dtoa_r+0x302>
    3a62:	c592                	cmpq 5,r9
    3a64:	0ed0                	ble 3a74 <__dtoa_r+0x2a0>
    3a66:	4122                	moveq 1,r2
    3a68:	8492                	subq 4,r9
    3a6a:	38e1 e99b           	move.d r9,[sp+56]
    3a6e:	7206                	clear.b r2
    3a70:	38e1 699a           	move.d [sp+56],r9
    3a74:	8292                	subq 2,r9
    3a76:	cf9d 0400           	bound.b 0x4,r9
    3a7a:	5f95 3ff8           	adds.w [pc+r9.w],pc
    3a7e:	f009                	case 2: -> 446e <__dtoa_r+0xc9a>
    3a80:	c409                	case 3: -> 4442 <__dtoa_r+0xc6e>
    3a82:	b406                	case 4: -> 4132 <__dtoa_r+0x95e>
    3a84:	fa09                	case 5: -> 4478 <__dtoa_r+0xca4>
    3a86:	5c00                	case 6/default: -> 3ada <__dtoa_r+0x306>
    3a88:	ff2d 14fe           	bne 38a0 <__dtoa_r+0xcc>
    3a8c:	0f05                	nop 
    3a8e:	6f1e 4eac 0000      	move.d ac4e <_zeroes.4007+0x10>,r1
    3a94:	ffed 0efe           	ba 38a6 <__dtoa_r+0xd2>
    3a98:	0f05                	nop 
    3a9a:	ffed 1efe           	ba 38bc <__dtoa_r+0xe8>
    3a9e:	0892                	addq 8,r9
    3aa0:	5fed 8c00 e44b      	move.d r4,[sp+140]
    3aa6:	2f2f ffff 0f00      	and.d fffff <__end+0xf02ef>,r2
    3aac:	6f2f 0000 f03f      	or.d 3ff00000 <__end+0x3fef02f0>,r2
    3ab2:	5fed 9000 e22b      	move.d r2,[sp+144]
    3ab8:	9f0c ff03           	subu.w 0x3ff,r0
    3abc:	7ce1 622a           	move.d [sp+124],r2
    3ac0:	64e1 708a           	clear.d [sp+100]
    3ac4:	ffed 90fe           	ba 3958 <__dtoa_r+0x184>
    3ac8:	0f05                	nop 
    3aca:	6f1e 2cac 0000      	move.d ac2c <__global_impure_ptr+0x42>,r1
    3ad0:	ffed aafd           	ba 387e <__dtoa_r+0xaa>
    3ad4:	61a6                	move.d r1,r10
    3ad6:	38e1 708a           	clear.d [sp+56]
    3ada:	4181 708a           	clear.d [r8+65]
    3ade:	6f9e 985d 0000      	move.d 5d98 <__Balloc>,r9
    3ae4:	5ce1 e99b           	move.d r9,[sp+92]
    3ae8:	68a6                	move.d r8,r10
    3aea:	7b86                	clear.d r11
    3aec:	b9b9                	jsr r9
    3aee:	6a16                	move.d r10,r1
    3af0:	3d81 eaab           	move.d r10,[r8+61]
    3af4:	5fed a000 708a      	clear.d [sp+160]
    3afa:	7f92                	moveq -1,r9
    3afc:	2ce1 e99b           	move.d r9,[sp+44]
    3b00:	60e1 e99b           	move.d r9,[sp+96]
    3b04:	4192                	moveq 1,r9
    3b06:	50e1 e99b           	move.d r9,[sp+80]
    3b0a:	5fed 8000 699a      	move.d [sp+128],r9
    3b10:	ffbd c801           	blt 3cdc <__dtoa_r+0x508>
    3b14:	0f05                	nop 
    3b16:	3ce1 6cca           	move.d [sp+60],r12
    3b1a:	cec2                	cmpq 14,r12
    3b1c:	ffcd bc01           	bgt 3cdc <__dtoa_r+0x508>
    3b20:	6c36                	move.d r12,r3
    3b22:	c333                	lslq 3,r3
    3b24:	6f3d b4ac 0000 693e 	move.d [r9=r3+acb4 <___mprec_tens>],r3
    3b2c:	0491 644a           	move.d [r9+4],r4
    3b30:	5fed a000 a00b      	test.d [sp+160]
    3b36:	ffbd 4809           	blt 4482 <__dtoa_r+0xcae>
    3b3a:	0f05                	nop 
    3b3c:	5fed 8400 622a      	move.d [sp+132],r2
    3b42:	5fed 8800 600a      	move.d [sp+136],r0
    3b48:	6f9e 949b 0000      	move.d 9b94 <___divdf3>,r9
    3b4e:	34e1 e99b           	move.d r9,[sp+52]
    3b52:	62a6                	move.d r2,r10
    3b54:	60b6                	move.d r0,r11
    3b56:	63c6                	move.d r3,r12
    3b58:	64d6                	move.d r4,r13
    3b5a:	b9b9                	jsr r9
    3b5c:	3fbd a09f 0000      	jsr 9fa0 <___fixdfsi>
    3b62:	6a56                	move.d r10,r5
    3b64:	3fbd e89e 0000      	jsr 9ee8 <___floatsidf>
    3b6a:	63c6                	move.d r3,r12
    3b6c:	64d6                	move.d r4,r13
    3b6e:	3fbd d097 0000      	jsr 97d0 <___muldf3>
    3b74:	6ac6                	move.d r10,r12
    3b76:	6bd6                	move.d r11,r13
    3b78:	62a6                	move.d r2,r10
    3b7a:	60b6                	move.d r0,r11
    3b7c:	3fbd 7297 0000      	jsr 9772 <___subdf3>
    3b82:	6ac6                	move.d r10,r12
    3b84:	4596                	move.b r5,r9
    3b86:	3092                	addq 48,r9
    3b88:	61d6                	move.d r1,r13
    3b8a:	cd9f                	move.b r9,[r13+]
    3b8c:	44e1 eddb           	move.d r13,[sp+68]
    3b90:	6d96                	move.d r13,r9
    3b92:	2ce1 6dda           	move.d [sp+44],r13
    3b96:	c1d2                	cmpq 1,r13
    3b98:	ac30                	beq 3c46 <__dtoa_r+0x472>
    3b9a:	6b06                	move.d r11,r0
    3b9c:	7c86                	clear.d r12
    3b9e:	6fde 0000 2440      	move.d 40240000 <__end+0x402302f0>,r13
    3ba4:	28e1 e99b           	move.d r9,[sp+40]
    3ba8:	3fbd d097 0000      	jsr 97d0 <___muldf3>
    3bae:	6a06                	move.d r10,r0
    3bb0:	6b26                	move.d r11,r2
    3bb2:	7c86                	clear.d r12
    3bb4:	7d86                	clear.d r13
    3bb6:	3fbd 1c9d 0000      	jsr 9d1c <___eqdf2>
    3bbc:	28e1 699a           	move.d [sp+40],r9
    3bc0:	6aa6                	test.d r10
    3bc2:	ff3d 0601           	beq 3ccc <__dtoa_r+0x4f8>
    3bc6:	0f05                	nop 
    3bc8:	44e1 666a           	move.d [sp+68],r6
    3bcc:	30e0                	ba 3bfe <__dtoa_r+0x42a>
    3bce:	60a6                	move.d r0,r10
    3bd0:	7c86                	clear.d r12
    3bd2:	6fde 0000 2440      	move.d 40240000 <__end+0x402302f0>,r13
    3bd8:	28e1 e99b           	move.d r9,[sp+40]
    3bdc:	3fbd d097 0000      	jsr 97d0 <___muldf3>
    3be2:	6a06                	move.d r10,r0
    3be4:	6b26                	move.d r11,r2
    3be6:	7c86                	clear.d r12
    3be8:	7d86                	clear.d r13
    3bea:	3fbd 1c9d 0000      	jsr 9d1c <___eqdf2>
    3bf0:	28e1 699a           	move.d [sp+40],r9
    3bf4:	6aa6                	test.d r10
    3bf6:	ff3d 3808           	beq 4432 <__dtoa_r+0xc5e>
    3bfa:	0f05                	nop 
    3bfc:	60a6                	move.d r0,r10
    3bfe:	62b6                	move.d r2,r11
    3c00:	63c6                	move.d r3,r12
    3c02:	64d6                	move.d r4,r13
    3c04:	34e1 30b9           	jsr [sp+52]
    3c08:	3fbd a09f 0000      	jsr 9fa0 <___fixdfsi>
    3c0e:	6a56                	move.d r10,r5
    3c10:	3fbd e89e 0000      	jsr 9ee8 <___floatsidf>
    3c16:	63c6                	move.d r3,r12
    3c18:	64d6                	move.d r4,r13
    3c1a:	3fbd d097 0000      	jsr 97d0 <___muldf3>
    3c20:	6ac6                	move.d r10,r12
    3c22:	6bd6                	move.d r11,r13
    3c24:	60a6                	move.d r0,r10
    3c26:	62b6                	move.d r2,r11
    3c28:	3fbd 7297 0000      	jsr 9772 <___subdf3>
    3c2e:	6ac6                	move.d r10,r12
    3c30:	6b06                	move.d r11,r0
    3c32:	45d6                	move.b r5,r13
    3c34:	30d2                	addq 48,r13
    3c36:	6696                	move.d r6,r9
    3c38:	c9df                	move.b r13,[r9+]
    3c3a:	69d6                	move.d r9,r13
    3c3c:	a1d6                	sub.d r1,r13
    3c3e:	2ce1 edda           	cmp.d [sp+44],r13
    3c42:	8d20                	bne 3bd0 <__dtoa_r+0x3fc>
    3c44:	6966                	move.d r9,r6
    3c46:	6ca6                	move.d r12,r10
    3c48:	60b6                	move.d r0,r11
    3c4a:	60d6                	move.d r0,r13
    3c4c:	28e1 e99b           	move.d r9,[sp+40]
    3c50:	3fbd 2097 0000      	jsr 9720 <___adddf3>
    3c56:	6a26                	move.d r10,r2
    3c58:	6b06                	move.d r11,r0
    3c5a:	63a6                	move.d r3,r10
    3c5c:	64b6                	move.d r4,r11
    3c5e:	62c6                	move.d r2,r12
    3c60:	60d6                	move.d r0,r13
    3c62:	3fbd 309e 0000      	jsr 9e30 <___ltdf2>
    3c68:	28e1 699a           	move.d [sp+40],r9
    3c6c:	6aa6                	test.d r10
    3c6e:	22b0                	blt 3c92 <__dtoa_r+0x4be>
    3c70:	63a6                	move.d r3,r10
    3c72:	64b6                	move.d r4,r11
    3c74:	62c6                	move.d r2,r12
    3c76:	60d6                	move.d r0,r13
    3c78:	28e1 e99b           	move.d r9,[sp+40]
    3c7c:	3fbd 1c9d 0000      	jsr 9d1c <___eqdf2>
    3c82:	28e1 699a           	move.d [sp+40],r9
    3c86:	6aa6                	test.d r10
    3c88:	ff2d a607           	bne 4432 <__dtoa_r+0xc5e>
    3c8c:	8053                	btstq 0,r5
    3c8e:	3ca0                	bge 3ccc <__dtoa_r+0x4f8>
    3c90:	0f05                	nop 
    3c92:	ff91 444a           	move.b [r9-1],r4
    3c96:	08e0                	ba 3ca0 <__dtoa_r+0x4cc>
    3c98:	69d6                	move.d r9,r13
    3c9a:	fed1 444a           	move.b [r13-2],r4
    3c9e:	6cd6                	move.d r12,r13
    3ca0:	6d96                	move.d r13,r9
    3ca2:	6dc6                	move.d r13,r12
    3ca4:	cf4e 3900           	cmp.b 0x39,r4
    3ca8:	ff2d b80c           	bne 4964 <__dtoa_r+0x1190>
    3cac:	81c2                	subq 1,r12
    3cae:	44e1 edda           	cmp.d [sp+68],r13
    3cb2:	e720                	bne 3c9a <__dtoa_r+0x4c6>
    3cb4:	0f05                	nop 
    3cb6:	3ce1 6dda           	move.d [sp+60],r13
    3cba:	01d2                	addq 1,r13
    3cbc:	3ce1 eddb           	move.d r13,[sp+60]
    3cc0:	4fde 3000           	move.b 0x30,r13
    3cc4:	ccdb                	move.b r13,[r12]
    3cc6:	4f6e 3100           	move.b 0x31,r6
    3cca:	cc6b                	move.b r6,[r12]
    3ccc:	6fce 045e 0000      	move.d 5e04 <__Bfree>,r12
    3cd2:	34e1 eccb           	move.d r12,[sp+52]
    3cd6:	ffed da03           	ba 40b4 <__dtoa_r+0x8e0>
    3cda:	68a6                	move.d r8,r10
    3cdc:	50e1 a00b           	test.d [sp+80]
    3ce0:	aa30                	beq 3d8c <__dtoa_r+0x5b8>
    3ce2:	7486                	clear.d r4
    3ce4:	38e1 6cca           	move.d [sp+56],r12
    3ce8:	c1c2                	cmpq 1,r12
    3cea:	ffdd 2c08           	ble 451a <__dtoa_r+0xd46>
    3cee:	0f05                	nop 
    3cf0:	2ce1 655a           	move.d [sp+44],r5
    3cf4:	8152                	subq 1,r5
    3cf6:	48e1 e55a           	cmp.d [sp+72],r5
    3cfa:	ffcd e009           	bgt 46de <__dtoa_r+0xf0a>
    3cfe:	0f05                	nop 
    3d00:	48e1 699a           	move.d [sp+72],r9
    3d04:	a596                	sub.d r5,r9
    3d06:	6956                	move.d r9,r5
    3d08:	40e1 622a           	move.d [sp+64],r2
    3d0c:	2ce1 a00b           	test.d [sp+44]
    3d10:	ffbd 2a0c           	blt 493e <__dtoa_r+0x116a>
    3d14:	0f05                	nop 
    3d16:	2ce1 699a           	move.d [sp+44],r9
    3d1a:	40e1 2c9a           	add.d [sp+64],r9,r12
    3d1e:	40e1 eccb           	move.d r12,[sp+64]
    3d22:	2966                	add.d r9,r6
    3d24:	6f3e 3060 0000      	move.d 6030 <___i2b>,r3
    3d2a:	68a6                	move.d r8,r10
    3d2c:	41b2                	moveq 1,r11
    3d2e:	b3b9                	jsr r3
    3d30:	68e0                	ba 3d9a <__dtoa_r+0x5c6>
    3d32:	6a46                	move.d r10,r4
    3d34:	a005                	neg.d r0,r0
    3d36:	40e1 e00b           	move.d r0,[sp+64]
    3d3a:	ffed 02fd           	ba 3a40 <__dtoa_r+0x26c>
    3d3e:	7686                	clear.d r6
    3d40:	3ce1 6aaa           	move.d [sp+60],r10
    3d44:	3fbd e89e 0000      	jsr 9ee8 <___floatsidf>
    3d4a:	64c6                	move.d r4,r12
    3d4c:	63d6                	move.d r3,r13
    3d4e:	3fbd 789d 0000      	jsr 9d78 <___nedf2>
    3d54:	6aa6                	test.d r10
    3d56:	ff3d 8cfc           	beq 39e6 <__dtoa_r+0x212>
    3d5a:	0f05                	nop 
    3d5c:	3ce1 699a           	move.d [sp+60],r9
    3d60:	8192                	subq 1,r9
    3d62:	3ce1 e99b           	move.d r9,[sp+60]
    3d66:	ffed 7efc           	ba 39e8 <__dtoa_r+0x214>
    3d6a:	4192                	moveq 1,r9
    3d6c:	40e1 699a           	move.d [sp+64],r9
    3d70:	3ce1 a99a           	sub.d [sp+60],r9
    3d74:	40e1 e99b           	move.d r9,[sp+64]
    3d78:	3ce1 699a           	move.d [sp+60],r9
    3d7c:	a995                	neg.d r9,r9
    3d7e:	48e1 e99b           	move.d r9,[sp+72]
    3d82:	4ce1 708a           	clear.d [sp+76]
    3d86:	ffed d0fc           	ba 3a5a <__dtoa_r+0x286>
    3d8a:	0f05                	nop 
    3d8c:	48e1 655a           	move.d [sp+72],r5
    3d90:	40e1 622a           	move.d [sp+64],r2
    3d94:	6f3e 3060 0000      	move.d 6030 <___i2b>,r3
    3d9a:	6226                	test.d r2
    3d9c:	1a30                	beq 3db8 <__dtoa_r+0x5e4>
    3d9e:	6666                	test.d r6
    3da0:	16d0                	ble 3db8 <__dtoa_r+0x5e4>
    3da2:	e266                	cmp.d r2,r6
    3da4:	ffcd 7403           	bgt 411c <__dtoa_r+0x948>
    3da8:	6696                	move.d r6,r9
    3daa:	40e1 6dda           	move.d [sp+64],r13
    3dae:	a9d6                	sub.d r9,r13
    3db0:	40e1 eddb           	move.d r13,[sp+64]
    3db4:	a926                	sub.d r9,r2
    3db6:	a966                	sub.d r9,r6
    3db8:	48e1 a00b           	test.d [sp+72]
    3dbc:	62d0                	ble 3e20 <__dtoa_r+0x64c>
    3dbe:	0f05                	nop 
    3dc0:	50e1 a00b           	test.d [sp+80]
    3dc4:	4a30                	beq 3e10 <__dtoa_r+0x63c>
    3dc6:	6556                	test.d r5
    3dc8:	ffdd 5603           	ble 4122 <__dtoa_r+0x94e>
    3dcc:	68a6                	move.d r8,r10
    3dce:	64b6                	move.d r4,r11
    3dd0:	65c6                	move.d r5,r12
    3dd2:	3fbd ea61 0000      	jsr 61ea <___pow5mult>
    3dd8:	6a46                	move.d r10,r4
    3dda:	68a6                	move.d r8,r10
    3ddc:	64b6                	move.d r4,r11
    3dde:	67c6                	move.d r7,r12
    3de0:	3fbd 5060 0000      	jsr 6050 <___multiply>
    3de6:	6a06                	move.d r10,r0
    3de8:	6f9e 045e 0000      	move.d 5e04 <__Bfree>,r9
    3dee:	34e1 e99b           	move.d r9,[sp+52]
    3df2:	68a6                	move.d r8,r10
    3df4:	67b6                	move.d r7,r11
    3df6:	b9b9                	jsr r9
    3df8:	6076                	move.d r0,r7
    3dfa:	48e1 6cca           	move.d [sp+72],r12
    3dfe:	a5c6                	sub.d r5,r12
    3e00:	2a30                	beq 3e2c <__dtoa_r+0x658>
    3e02:	68a6                	move.d r8,r10
    3e04:	67b6                	move.d r7,r11
    3e06:	3fbd ea61 0000      	jsr 61ea <___pow5mult>
    3e0c:	1ce0                	ba 3e2a <__dtoa_r+0x656>
    3e0e:	6a76                	move.d r10,r7
    3e10:	68a6                	move.d r8,r10
    3e12:	67b6                	move.d r7,r11
    3e14:	48e1 6cca           	move.d [sp+72],r12
    3e18:	3fbd ea61 0000      	jsr 61ea <___pow5mult>
    3e1e:	6a76                	move.d r10,r7
    3e20:	6f9e 045e 0000      	move.d 5e04 <__Bfree>,r9
    3e26:	34e1 e99b           	move.d r9,[sp+52]
    3e2a:	68a6                	move.d r8,r10
    3e2c:	41b2                	moveq 1,r11
    3e2e:	b3b9                	jsr r3
    3e30:	4ce1 a00b           	test.d [sp+76]
    3e34:	12d0                	ble 3e48 <__dtoa_r+0x674>
    3e36:	6a56                	move.d r10,r5
    3e38:	68a6                	move.d r8,r10
    3e3a:	65b6                	move.d r5,r11
    3e3c:	4ce1 6cca           	move.d [sp+76],r12
    3e40:	3fbd ea61 0000      	jsr 61ea <___pow5mult>
    3e46:	6a56                	move.d r10,r5
    3e48:	38e1 699a           	move.d [sp+56],r9
    3e4c:	c192                	cmpq 1,r9
    3e4e:	ffdd 9202           	ble 40e4 <__dtoa_r+0x910>
    3e52:	7086                	clear.d r0
    3e54:	4ce1 a00b           	test.d [sp+76]
    3e58:	ff2d 8a07           	bne 45e6 <__dtoa_r+0xe12>
    3e5c:	4192                	moveq 1,r9
    3e5e:	2696                	add.d r6,r9
    3e60:	1f93                	andq 31,r9
    3e62:	1430                	beq 3e78 <__dtoa_r+0x6a4>
    3e64:	5cd2                	moveq 28,r13
    3e66:	4fdc 2000           	movu.b 0x20,r13
    3e6a:	a9d6                	sub.d r9,r13
    3e6c:	c4d2                	cmpq 4,r13
    3e6e:	ffdd 1c0c           	ble 4a8e <__dtoa_r+0x12ba>
    3e72:	c4d2                	cmpq 4,r13
    3e74:	5cd2                	moveq 28,r13
    3e76:	a9d6                	sub.d r9,r13
    3e78:	40e1 29da           	add.d [sp+64],r13,r9
    3e7c:	40e1 e99b           	move.d r9,[sp+64]
    3e80:	2d26                	add.d r13,r2
    3e82:	2d66                	add.d r13,r6
    3e84:	40e1 a00b           	test.d [sp+64]
    3e88:	10d0                	ble 3e9a <__dtoa_r+0x6c6>
    3e8a:	68a6                	move.d r8,r10
    3e8c:	67b6                	move.d r7,r11
    3e8e:	40e1 6cca           	move.d [sp+64],r12
    3e92:	3fbd 9062 0000      	jsr 6290 <___lshift>
    3e98:	6a76                	move.d r10,r7
    3e9a:	6666                	test.d r6
    3e9c:	0ed0                	ble 3eac <__dtoa_r+0x6d8>
    3e9e:	68a6                	move.d r8,r10
    3ea0:	65b6                	move.d r5,r11
    3ea2:	66c6                	move.d r6,r12
    3ea4:	3fbd 9062 0000      	jsr 6290 <___lshift>
    3eaa:	6a56                	move.d r10,r5
    3eac:	54e1 a00b           	test.d [sp+84]
    3eb0:	ff2d f206           	bne 45a6 <__dtoa_r+0xdd2>
    3eb4:	67a6                	move.d r7,r10
    3eb6:	2ce1 a00b           	test.d [sp+44]
    3eba:	ffdd 4207           	ble 4600 <__dtoa_r+0xe2c>
    3ebe:	0f05                	nop 
    3ec0:	50e1 a00b           	test.d [sp+80]
    3ec4:	ff3d 0601           	beq 3fce <__dtoa_r+0x7fa>
    3ec8:	6226                	test.d r2
    3eca:	0ed0                	ble 3eda <__dtoa_r+0x706>
    3ecc:	68a6                	move.d r8,r10
    3ece:	64b6                	move.d r4,r11
    3ed0:	62c6                	move.d r2,r12
    3ed2:	3fbd 9062 0000      	jsr 6290 <___lshift>
    3ed8:	6a46                	move.d r10,r4
    3eda:	6006                	test.d r0
    3edc:	ff2d 1009           	bne 47f0 <__dtoa_r+0x101c>
    3ee0:	68a6                	move.d r8,r10
    3ee2:	6426                	move.d r4,r2
    3ee4:	6166                	move.d r1,r6
    3ee6:	6196                	move.d r1,r9
    3ee8:	8192                	subq 1,r9
    3eea:	2ce1 299a           	add.d [sp+44],r9
    3eee:	44e1 e99b           	move.d r9,[sp+68]
    3ef2:	6406                	move.d r4,r0
    3ef4:	6f9e 4063 0000      	move.d 6340 <___mcmp>,r9
    3efa:	40e1 e99b           	move.d r9,[sp+64]
    3efe:	6f9e 6c36 0000      	move.d 366c <_quorem>,r9
    3f04:	30e1 e99b           	move.d r9,[sp+48]
    3f08:	67a6                	move.d r7,r10
    3f0a:	65b6                	move.d r5,r11
    3f0c:	30e1 30b9           	jsr [sp+48]
    3f10:	2ce1 eaab           	move.d r10,[sp+44]
    3f14:	6a36                	move.d r10,r3
    3f16:	3032                	addq 48,r3
    3f18:	67a6                	move.d r7,r10
    3f1a:	60b6                	move.d r0,r11
    3f1c:	40e1 30b9           	jsr [sp+64]
    3f20:	6a46                	move.d r10,r4
    3f22:	68a6                	move.d r8,r10
    3f24:	65b6                	move.d r5,r11
    3f26:	62c6                	move.d r2,r12
    3f28:	3fbd 7e63 0000      	jsr 637e <___mdiff>
    3f2e:	0ca1 a00b           	test.d [r10+12]
    3f32:	ff3d 0006           	beq 4536 <__dtoa_r+0xd62>
    3f36:	6a96                	move.d r10,r9
    3f38:	68a6                	move.d r8,r10
    3f3a:	69b6                	move.d r9,r11
    3f3c:	34e1 30b9           	jsr [sp+52]
    3f40:	41d2                	moveq 1,r13
    3f42:	6446                	test.d r4
    3f44:	ffbd e007           	blt 4728 <__dtoa_r+0xf54>
    3f48:	6446                	test.d r4
    3f4a:	1820                	bne 3f64 <__dtoa_r+0x790>
    3f4c:	0f05                	nop 
    3f4e:	38e1 a00b           	test.d [sp+56]
    3f52:	1020                	bne 3f64 <__dtoa_r+0x790>
    3f54:	0f05                	nop 
    3f56:	5fed 8400 699a      	move.d [sp+132],r9
    3f5c:	8093                	btstq 0,r9
    3f5e:	ffad c607           	bge 4728 <__dtoa_r+0xf54>
    3f62:	0f05                	nop 
    3f64:	6dd6                	test.d r13
    3f66:	ffcd b608           	bgt 4820 <__dtoa_r+0x104c>
    3f6a:	6646                	move.d r6,r4
    3f6c:	c43f                	move.b r3,[r4+]
    3f6e:	44e1 e66a           	cmp.d [sp+68],r6
    3f72:	ff3d b808           	beq 482e <__dtoa_r+0x105a>
    3f76:	6496                	move.d r4,r9
    3f78:	68a6                	move.d r8,r10
    3f7a:	67b6                	move.d r7,r11
    3f7c:	4ac2                	moveq 10,r12
    3f7e:	7d86                	clear.d r13
    3f80:	3fbd 1e5e 0000      	jsr 5e1e <___multadd>
    3f86:	6a76                	move.d r10,r7
    3f88:	68a6                	move.d r8,r10
    3f8a:	60b6                	move.d r0,r11
    3f8c:	4ac2                	moveq 10,r12
    3f8e:	e206                	cmp.d r2,r0
    3f90:	ff3d 0206           	beq 4596 <__dtoa_r+0xdc2>
    3f94:	7d86                	clear.d r13
    3f96:	3fbd 1e5e 0000      	jsr 5e1e <___multadd>
    3f9c:	6a06                	move.d r10,r0
    3f9e:	68a6                	move.d r8,r10
    3fa0:	62b6                	move.d r2,r11
    3fa2:	4ac2                	moveq 10,r12
    3fa4:	7d86                	clear.d r13
    3fa6:	3fbd 1e5e 0000      	jsr 5e1e <___multadd>
    3fac:	6a26                	move.d r10,r2
    3fae:	59e0                	ba 3f08 <__dtoa_r+0x734>
    3fb0:	6466                	move.d r4,r6
    3fb2:	7f9c eefb           	movs.w -1042,r9
    3fb6:	a096                	sub.d r0,r9
    3fb8:	5fed 8400 6aaa      	move.d [sp+132],r10
    3fbe:	ffed 76f9           	ba 3938 <__dtoa_r+0x164>
    3fc2:	e9a4                	lsl.d r9,r10
    3fc4:	54e1 708a           	clear.d [sp+84]
    3fc8:	ffed 64fa           	ba 3a30 <__dtoa_r+0x25c>
    3fcc:	a026                	sub.d r0,r2
    3fce:	6f9e 6c36 0000      	move.d 366c <_quorem>,r9
    3fd4:	30e1 e99b           	move.d r9,[sp+48]
    3fd8:	6f2e 1e5e 0000      	move.d 5e1e <___multadd>,r2
    3fde:	0ce0                	ba 3fec <__dtoa_r+0x818>
    3fe0:	6106                	move.d r1,r0
    3fe2:	67b6                	move.d r7,r11
    3fe4:	4ac2                	moveq 10,r12
    3fe6:	7d86                	clear.d r13
    3fe8:	b2b9                	jsr r2
    3fea:	6a76                	move.d r10,r7
    3fec:	67a6                	move.d r7,r10
    3fee:	65b6                	move.d r5,r11
    3ff0:	30e1 30b9           	jsr [sp+48]
    3ff4:	6a36                	move.d r10,r3
    3ff6:	3032                	addq 48,r3
    3ff8:	c03f                	move.b r3,[r0+]
    3ffa:	6096                	move.d r0,r9
    3ffc:	a196                	sub.d r1,r9
    3ffe:	2ce1 e99a           	cmp.d [sp+44],r9
    4002:	dfb0                	blt 3fe2 <__dtoa_r+0x80e>
    4004:	68a6                	move.d r8,r10
    4006:	2ce1 699a           	move.d [sp+44],r9
    400a:	ffdd 3a09           	ble 4948 <__dtoa_r+0x1174>
    400e:	0f05                	nop 
    4010:	2196                	add.d r1,r9
    4012:	7086                	clear.d r0
    4014:	6fde 4063 0000      	move.d 6340 <___mcmp>,r13
    401a:	40e1 eddb           	move.d r13,[sp+64]
    401e:	68a6                	move.d r8,r10
    4020:	67b6                	move.d r7,r11
    4022:	41c2                	moveq 1,r12
    4024:	28e1 e99b           	move.d r9,[sp+40]
    4028:	3fbd 9062 0000      	jsr 6290 <___lshift>
    402e:	6a76                	move.d r10,r7
    4030:	65b6                	move.d r5,r11
    4032:	40e1 30b9           	jsr [sp+64]
    4036:	28e1 699a           	move.d [sp+40],r9
    403a:	6aa6                	test.d r10
    403c:	ffdd b804           	ble 44f8 <__dtoa_r+0xd24>
    4040:	6aa6                	test.d r10
    4042:	ff91 4cca           	move.b [r9-1],r12
    4046:	69d6                	move.d r9,r13
    4048:	61a6                	move.d r1,r10
    404a:	08e0                	ba 4054 <__dtoa_r+0x880>
    404c:	01a2                	addq 1,r10
    404e:	fed1 4cca           	move.b [r13-2],r12
    4052:	6bd6                	move.d r11,r13
    4054:	6d96                	move.d r13,r9
    4056:	6db6                	move.d r13,r11
    4058:	cfce 3900           	cmp.b 0x39,r12
    405c:	ff2d 8807           	bne 47e8 <__dtoa_r+0x1014>
    4060:	81b2                	subq 1,r11
    4062:	ead6                	cmp.d r10,r13
    4064:	e920                	bne 404e <__dtoa_r+0x87a>
    4066:	0f05                	nop 
    4068:	3ce1 6cca           	move.d [sp+60],r12
    406c:	01c2                	addq 1,r12
    406e:	3ce1 eccb           	move.d r12,[sp+60]
    4072:	4fde 3100           	move.b 0x31,r13
    4076:	cbdb                	move.b r13,[r11]
    4078:	68a6                	move.d r8,r10
    407a:	65b6                	move.d r5,r11
    407c:	28e1 e99b           	move.d r9,[sp+40]
    4080:	34e1 30b9           	jsr [sp+52]
    4084:	28e1 699a           	move.d [sp+40],r9
    4088:	6446                	test.d r4
    408a:	2630                	beq 40b2 <__dtoa_r+0x8de>
    408c:	6006                	test.d r0
    408e:	1230                	beq 40a2 <__dtoa_r+0x8ce>
    4090:	e406                	cmp.d r4,r0
    4092:	0e30                	beq 40a2 <__dtoa_r+0x8ce>
    4094:	68a6                	move.d r8,r10
    4096:	60b6                	move.d r0,r11
    4098:	3fbd 045e 0000      	jsr 5e04 <__Bfree>
    409e:	28e1 699a           	move.d [sp+40],r9
    40a2:	68a6                	move.d r8,r10
    40a4:	64b6                	move.d r4,r11
    40a6:	28e1 e99b           	move.d r9,[sp+40]
    40aa:	34e1 30b9           	jsr [sp+52]
    40ae:	28e1 699a           	move.d [sp+40],r9
    40b2:	68a6                	move.d r8,r10
    40b4:	67b6                	move.d r7,r11
    40b6:	28e1 e99b           	move.d r9,[sp+40]
    40ba:	34e1 30b9           	jsr [sp+52]
    40be:	28e1 699a           	move.d [sp+40],r9
    40c2:	790a                	clear.b [r9]
    40c4:	3ce1 6dda           	move.d [sp+60],r13
    40c8:	01d2                	addq 1,r13
    40ca:	5fed a400 6cca      	move.d [sp+164],r12
    40d0:	ecdb                	move.d r13,[r12]
    40d2:	5fed ac00 a00b      	test.d [sp+172]
    40d8:	ff2d e0f7           	bne 38bc <__dtoa_r+0xe8>
    40dc:	0f05                	nop 
    40de:	ffed 9cf7           	ba 387e <__dtoa_r+0xaa>
    40e2:	61a6                	move.d r1,r10
    40e4:	5fed 8400 a00b      	test.d [sp+132]
    40ea:	ff2d 66fd           	bne 3e54 <__dtoa_r+0x680>
    40ee:	0f05                	nop 
    40f0:	5fed 8800 699a      	move.d [sp+136],r9
    40f6:	9393                	btstq 19,r9
    40f8:	ff2d 58fd           	bne 3e54 <__dtoa_r+0x680>
    40fc:	0f05                	nop 
    40fe:	2f9f 0000 f07f      	and.d 7ff00000 <__end+0x7fef02f0>,r9
    4104:	ff3d 4cfd           	beq 3e54 <__dtoa_r+0x680>
    4108:	0f05                	nop 
    410a:	40e1 699a           	move.d [sp+64],r9
    410e:	0192                	addq 1,r9
    4110:	40e1 e99b           	move.d r9,[sp+64]
    4114:	0162                	addq 1,r6
    4116:	ffed 3afd           	ba 3e54 <__dtoa_r+0x680>
    411a:	4102                	moveq 1,r0
    411c:	ffed 8afc           	ba 3daa <__dtoa_r+0x5d6>
    4120:	6296                	move.d r2,r9
    4122:	6f9e 045e 0000      	move.d 5e04 <__Bfree>,r9
    4128:	34e1 e99b           	move.d r9,[sp+52]
    412c:	ffed cafc           	ba 3dfa <__dtoa_r+0x626>
    4130:	0f05                	nop 
    4132:	4192                	moveq 1,r9
    4134:	50e1 e99b           	move.d r9,[sp+80]
    4138:	5fed a000 a00b      	test.d [sp+160]
    413e:	ffdd d205           	ble 4714 <__dtoa_r+0xf40>
    4142:	4102                	moveq 1,r0
    4144:	5fed a000 600a      	move.d [sp+160],r0
    414a:	60e1 e00b           	move.d r0,[sp+96]
    414e:	2ce1 e00b           	move.d r0,[sp+44]
    4152:	4181 708a           	clear.d [r8+65]
    4156:	d702                	cmpq 23,r0
    4158:	ff8d 2c09           	bls 4a88 <__dtoa_r+0x12b4>
    415c:	41d2                	moveq 1,r13
    415e:	4492                	moveq 4,r9
    4160:	6db6                	move.d r13,r11
    4162:	2996                	add.d r9,r9
    4164:	69c6                	move.d r9,r12
    4166:	14c2                	addq 20,r12
    4168:	e0c6                	cmp.d r0,r12
    416a:	f580                	bls 4160 <__dtoa_r+0x98c>
    416c:	01d2                	addq 1,r13
    416e:	4181 ebbb           	move.d r11,[r8+65]
    4172:	6f9e 985d 0000      	move.d 5d98 <__Balloc>,r9
    4178:	5ce1 e99b           	move.d r9,[sp+92]
    417c:	68a6                	move.d r8,r10
    417e:	b9b9                	jsr r9
    4180:	3d81 eaab           	move.d r10,[r8+61]
    4184:	ce02                	cmpq 14,r0
    4186:	ff9d 80f9           	bhi 3b0a <__dtoa_r+0x336>
    418a:	6a16                	move.d r10,r1
    418c:	6226                	test.d r2
    418e:	ff3d 78f9           	beq 3b0a <__dtoa_r+0x336>
    4192:	0f05                	nop 
    4194:	5fed 8400 30ba      	move [sp+132],srp
    419a:	6ce1 70ba           	move srp,[sp+108]
    419e:	5fed 8800 30ba      	move [sp+136],srp
    41a4:	70e1 70ba           	move srp,[sp+112]
    41a8:	3ce1 a00b           	test.d [sp+60]
    41ac:	ffdd d205           	ble 4782 <__dtoa_r+0xfae>
    41b0:	0f05                	nop 
    41b2:	3ce1 655a           	move.d [sp+60],r5
    41b6:	0f53                	andq 15,r5
    41b8:	c353                	lslq 3,r5
    41ba:	6f5d b4ac 0000 695e 	move.d [r9=r5+acb4 <___mprec_tens>],r5
    41c2:	0491 644a           	move.d [r9+4],r4
    41c6:	3ce1 600a           	move.d [sp+60],r0
    41ca:	a403                	asrq 4,r0
    41cc:	8403                	btstq 4,r0
    41ce:	ffad 2205           	bge 46f4 <__dtoa_r+0xf20>
    41d2:	7bb6                	move srp,r11
    41d4:	0f03                	andq 15,r0
    41d6:	6f9e 949b 0000      	move.d 9b94 <___divdf3>,r9
    41dc:	34e1 e99b           	move.d r9,[sp+52]
    41e0:	6ce1 6aaa           	move.d [sp+108],r10
    41e4:	6fce acac 0000      	move.d acac <___mprec_bigtens+0x20>,r12
    41ea:	6cca                	move.d [r12],r12
    41ec:	6fde b0ac 0000      	move.d acb0 <___mprec_bigtens+0x24>,r13
    41f2:	6dda                	move.d [r13],r13
    41f4:	b9b9                	jsr r9
    41f6:	44e1 eaab           	move.d r10,[sp+68]
    41fa:	58e1 ebbb           	move.d r11,[sp+88]
    41fe:	4332                	moveq 3,r3
    4200:	6006                	test.d r0
    4202:	2830                	beq 422c <__dtoa_r+0xa58>
    4204:	0f05                	nop 
    4206:	6f2e 8cac 0000      	move.d ac8c <___mprec_bigtens>,r2
    420c:	8003                	btstq 0,r0
    420e:	16a0                	bge 4226 <__dtoa_r+0xa52>
    4210:	65a6                	move.d r5,r10
    4212:	0132                	addq 1,r3
    4214:	64b6                	move.d r4,r11
    4216:	62ca                	move.d [r2],r12
    4218:	0421 6dda           	move.d [r2+4],r13
    421c:	3fbd d097 0000      	jsr 97d0 <___muldf3>
    4222:	6a56                	move.d r10,r5
    4224:	6b46                	move.d r11,r4
    4226:	a103                	asrq 1,r0
    4228:	e320                	bne 420c <__dtoa_r+0xa38>
    422a:	0822                	addq 8,r2
    422c:	44e1 6aaa           	move.d [sp+68],r10
    4230:	58e1 6bba           	move.d [sp+88],r11
    4234:	65c6                	move.d r5,r12
    4236:	64d6                	move.d r4,r13
    4238:	34e1 30b9           	jsr [sp+52]
    423c:	6a46                	move.d r10,r4
    423e:	6b56                	move.d r11,r5
    4240:	54e1 a00b           	test.d [sp+84]
    4244:	1c30                	beq 4262 <__dtoa_r+0xa8e>
    4246:	63a6                	move.d r3,r10
    4248:	64a6                	move.d r4,r10
    424a:	65b6                	move.d r5,r11
    424c:	7c86                	clear.d r12
    424e:	6fde 0000 f03f      	move.d 3ff00000 <__end+0x3fef02f0>,r13
    4254:	3fbd 309e 0000      	jsr 9e30 <___ltdf2>
    425a:	6aa6                	test.d r10
    425c:	ffbd 1c07           	blt 497c <__dtoa_r+0x11a8>
    4260:	63a6                	move.d r3,r10
    4262:	3fbd e89e 0000      	jsr 9ee8 <___floatsidf>
    4268:	64c6                	move.d r4,r12
    426a:	65d6                	move.d r5,r13
    426c:	3fbd d097 0000      	jsr 97d0 <___muldf3>
    4272:	7c86                	clear.d r12
    4274:	6fde 0000 1c40      	move.d 401c0000 <__end+0x401b02f0>,r13
    427a:	3fbd 2097 0000      	jsr 9720 <___adddf3>
    4280:	5fed 9400 eaab      	move.d r10,[sp+148]
    4286:	2fbe 0000 c0fc      	add.d fcc00000 <__end+0xfcbf02f0>,r11
    428c:	5fed 9800 ebbb      	move.d r11,[sp+152]
    4292:	2ce1 a00b           	test.d [sp+44]
    4296:	ff3d e603           	beq 4680 <__dtoa_r+0xeac>
    429a:	64a6                	move.d r4,r10
    429c:	3ce1 699a           	move.d [sp+60],r9
    42a0:	74e1 e99b           	move.d r9,[sp+116]
    42a4:	2ce1 699a           	move.d [sp+44],r9
    42a8:	58e1 e99b           	move.d r9,[sp+88]
    42ac:	50e1 a00b           	test.d [sp+80]
    42b0:	ff3d 9005           	beq 4844 <__dtoa_r+0x1070>
    42b4:	7a86                	clear.d r10
    42b6:	5fed 9400 622a      	move.d [sp+148],r2
    42bc:	5fed 9800 600a      	move.d [sp+152],r0
    42c2:	58e1 699a           	move.d [sp+88],r9
    42c6:	c393                	lslq 3,r9
    42c8:	6fbe 0000 e03f      	move.d 3fe00000 <__end+0x3fdf02f0>,r11
    42ce:	6f9d acac 0000 6cca 	move.d [r9+acac <___mprec_bigtens+0x20>],r12
    42d6:	6f9d b0ac 0000 6dda 	move.d [r9+acb0 <___mprec_bigtens+0x24>],r13
    42de:	3fbd 949b 0000      	jsr 9b94 <___divdf3>
    42e4:	62c6                	move.d r2,r12
    42e6:	60d6                	move.d r0,r13
    42e8:	3fbd 7297 0000      	jsr 9772 <___subdf3>
    42ee:	6a06                	move.d r10,r0
    42f0:	6b26                	move.d r11,r2
    42f2:	64a6                	move.d r4,r10
    42f4:	65b6                	move.d r5,r11
    42f6:	3fbd a09f 0000      	jsr 9fa0 <___fixdfsi>
    42fc:	6a36                	move.d r10,r3
    42fe:	3fbd e89e 0000      	jsr 9ee8 <___floatsidf>
    4304:	6ac6                	move.d r10,r12
    4306:	6bd6                	move.d r11,r13
    4308:	64a6                	move.d r4,r10
    430a:	65b6                	move.d r5,r11
    430c:	3fbd 7297 0000      	jsr 9772 <___subdf3>
    4312:	34e1 eaab           	move.d r10,[sp+52]
    4316:	6b56                	move.d r11,r5
    4318:	4346                	move.b r3,r4
    431a:	3042                	addq 48,r4
    431c:	6196                	move.d r1,r9
    431e:	c94f                	move.b r4,[r9+]
    4320:	44e1 e99b           	move.d r9,[sp+68]
    4324:	6f3e d49d 0000      	move.d 9dd4 <___gtdf2>,r3
    432a:	60a6                	move.d r0,r10
    432c:	62b6                	move.d r2,r11
    432e:	34e1 6cca           	move.d [sp+52],r12
    4332:	65d6                	move.d r5,r13
    4334:	28e1 e99b           	move.d r9,[sp+40]
    4338:	b3b9                	jsr r3
    433a:	28e1 699a           	move.d [sp+40],r9
    433e:	6aa6                	test.d r10
    4340:	e8c0                	bgt 442a <__dtoa_r+0xc56>
    4342:	65d6                	move.d r5,r13
    4344:	7a86                	clear.d r10
    4346:	6fbe 0000 f03f      	move.d 3ff00000 <__end+0x3fef02f0>,r11
    434c:	34e1 6cca           	move.d [sp+52],r12
    4350:	3fbd 7297 0000      	jsr 9772 <___subdf3>
    4356:	6ac6                	move.d r10,r12
    4358:	6bd6                	move.d r11,r13
    435a:	60a6                	move.d r0,r10
    435c:	62b6                	move.d r2,r11
    435e:	b3b9                	jsr r3
    4360:	28e1 699a           	move.d [sp+40],r9
    4364:	6aa6                	test.d r10
    4366:	ffcd 1007           	bgt 4a7a <__dtoa_r+0x12a6>
    436a:	0f05                	nop 
    436c:	58e1 699a           	move.d [sp+88],r9
    4370:	c192                	cmpq 1,r9
    4372:	ffdd f203           	ble 4768 <__dtoa_r+0xf94>
    4376:	2196                	add.d r1,r9
    4378:	44e1 633a           	move.d [sp+68],r3
    437c:	68e1 e99b           	move.d r9,[sp+104]
    4380:	38e0                	ba 43ba <__dtoa_r+0xbe6>
    4382:	60a6                	move.d r0,r10
    4384:	7a86                	clear.d r10
    4386:	6fbe 0000 f03f      	move.d 3ff00000 <__end+0x3fef02f0>,r11
    438c:	34e1 6cca           	move.d [sp+52],r12
    4390:	28e1 e99b           	move.d r9,[sp+40]
    4394:	3fbd 7297 0000      	jsr 9772 <___subdf3>
    439a:	60c6                	move.d r0,r12
    439c:	62d6                	move.d r2,r13
    439e:	3fbd 309e 0000      	jsr 9e30 <___ltdf2>
    43a4:	28e1 699a           	move.d [sp+40],r9
    43a8:	6aa6                	test.d r10
    43aa:	ffbd 8c06           	blt 4a3a <__dtoa_r+0x1266>
    43ae:	0f05                	nop 
    43b0:	68e1 e33a           	cmp.d [sp+104],r3
    43b4:	ff3d b003           	beq 4768 <__dtoa_r+0xf94>
    43b8:	60a6                	move.d r0,r10
    43ba:	62b6                	move.d r2,r11
    43bc:	7c86                	clear.d r12
    43be:	6fde 0000 2440      	move.d 40240000 <__end+0x402302f0>,r13
    43c4:	3fbd d097 0000      	jsr 97d0 <___muldf3>
    43ca:	6a06                	move.d r10,r0
    43cc:	6b26                	move.d r11,r2
    43ce:	34e1 6aaa           	move.d [sp+52],r10
    43d2:	65b6                	move.d r5,r11
    43d4:	7c86                	clear.d r12
    43d6:	6fde 0000 2440      	move.d 40240000 <__end+0x402302f0>,r13
    43dc:	3fbd d097 0000      	jsr 97d0 <___muldf3>
    43e2:	6a56                	move.d r10,r5
    43e4:	6b46                	move.d r11,r4
    43e6:	3fbd a09f 0000      	jsr 9fa0 <___fixdfsi>
    43ec:	58e1 eaab           	move.d r10,[sp+88]
    43f0:	3fbd e89e 0000      	jsr 9ee8 <___floatsidf>
    43f6:	6ac6                	move.d r10,r12
    43f8:	6bd6                	move.d r11,r13
    43fa:	65a6                	move.d r5,r10
    43fc:	64b6                	move.d r4,r11
    43fe:	3fbd 7297 0000      	jsr 9772 <___subdf3>
    4404:	34e1 eaab           	move.d r10,[sp+52]
    4408:	6b56                	move.d r11,r5
    440a:	58e1 444a           	move.b [sp+88],r4
    440e:	3042                	addq 48,r4
    4410:	c34f                	move.b r4,[r3+]
    4412:	60c6                	move.d r0,r12
    4414:	62d6                	move.d r2,r13
    4416:	28e1 e33b           	move.d r3,[sp+40]
    441a:	3fbd 309e 0000      	jsr 9e30 <___ltdf2>
    4420:	28e1 699a           	move.d [sp+40],r9
    4424:	6aa6                	test.d r10
    4426:	5da0                	bge 4384 <__dtoa_r+0xbb0>
    4428:	65d6                	move.d r5,r13
    442a:	74e1 6cca           	move.d [sp+116],r12
    442e:	3ce1 eccb           	move.d r12,[sp+60]
    4432:	6fde 045e 0000      	move.d 5e04 <__Bfree>,r13
    4438:	34e1 eddb           	move.d r13,[sp+52]
    443c:	ffed 74fc           	ba 40b4 <__dtoa_r+0x8e0>
    4440:	68a6                	move.d r8,r10
    4442:	50e1 708a           	clear.d [sp+80]
    4446:	5fed a000 6cca      	move.d [sp+160],r12
    444c:	3ce1 2cca           	add.d [sp+60],r12
    4450:	60e1 eccb           	move.d r12,[sp+96]
    4454:	6c06                	move.d r12,r0
    4456:	0102                	addq 1,r0
    4458:	2ce1 e00b           	move.d r0,[sp+44]
    445c:	6006                	test.d r0
    445e:	ffcd f0fc           	bgt 4152 <__dtoa_r+0x97e>
    4462:	0f05                	nop 
    4464:	4181 708a           	clear.d [r8+65]
    4468:	ffed 06fd           	ba 4172 <__dtoa_r+0x99e>
    446c:	7b86                	clear.d r11
    446e:	50e1 708a           	clear.d [sp+80]
    4472:	ffed c2fc           	ba 4138 <__dtoa_r+0x964>
    4476:	0f05                	nop 
    4478:	4192                	moveq 1,r9
    447a:	50e1 e99b           	move.d r9,[sp+80]
    447e:	c7e0                	ba 4446 <__dtoa_r+0xc72>
    4480:	0f05                	nop 
    4482:	2ce1 a00b           	test.d [sp+44]
    4486:	ffcd b2f6           	bgt 3b3c <__dtoa_r+0x368>
    448a:	0f05                	nop 
    448c:	ff2d 3c02           	bne 46cc <__dtoa_r+0xef8>
    4490:	63a6                	move.d r3,r10
    4492:	64b6                	move.d r4,r11
    4494:	7c86                	clear.d r12
    4496:	6fde 0000 1440      	move.d 40140000 <__end+0x401302f0>,r13
    449c:	3fbd d097 0000      	jsr 97d0 <___muldf3>
    44a2:	6ac6                	move.d r10,r12
    44a4:	6bd6                	move.d r11,r13
    44a6:	5fed 8400 6aaa      	move.d [sp+132],r10
    44ac:	5fed 8800 6bba      	move.d [sp+136],r11
    44b2:	3fbd 8c9e 0000      	jsr 9e8c <___ledf2>
    44b8:	7586                	clear.d r5
    44ba:	6f9e 045e 0000      	move.d 5e04 <__Bfree>,r9
    44c0:	34e1 e99b           	move.d r9,[sp+52]
    44c4:	6aa6                	test.d r10
    44c6:	ffcd 6c01           	bgt 4636 <__dtoa_r+0xe62>
    44ca:	7486                	clear.d r4
    44cc:	5fed a000 6cca      	move.d [sp+160],r12
    44d2:	7c87                	not r12
    44d4:	3ce1 eccb           	move.d r12,[sp+60]
    44d8:	6196                	move.d r1,r9
    44da:	68a6                	move.d r8,r10
    44dc:	65b6                	move.d r5,r11
    44de:	28e1 e99b           	move.d r9,[sp+40]
    44e2:	34e1 30b9           	jsr [sp+52]
    44e6:	28e1 699a           	move.d [sp+40],r9
    44ea:	6446                	test.d r4
    44ec:	ff2d b2fb           	bne 40a2 <__dtoa_r+0x8ce>
    44f0:	68a6                	move.d r8,r10
    44f2:	ffed c0fb           	ba 40b6 <__dtoa_r+0x8e2>
    44f6:	67b6                	move.d r7,r11
    44f8:	0e20                	bne 4508 <__dtoa_r+0xd34>
    44fa:	8033                	btstq 0,r3
    44fc:	0aa0                	bge 4508 <__dtoa_r+0xd34>
    44fe:	0f05                	nop 
    4500:	ffed 3efb           	ba 4042 <__dtoa_r+0x86e>
    4504:	0f05                	nop 
    4506:	6c96                	move.d r12,r9
    4508:	ff91 4cde           	move.b [r12=r9-1],r13
    450c:	cfde 3000           	cmp.b 0x30,r13
    4510:	f530                	beq 4506 <__dtoa_r+0xd32>
    4512:	68a6                	move.d r8,r10
    4514:	ffed 64fb           	ba 407c <__dtoa_r+0x8a8>
    4518:	65b6                	move.d r5,r11
    451a:	64e1 a00b           	test.d [sp+100]
    451e:	ff3d 2c04           	beq 494e <__dtoa_r+0x117a>
    4522:	0f05                	nop 
    4524:	1f9c 3304           	addu.w 0x433,r9
    4528:	48e1 655a           	move.d [sp+72],r5
    452c:	40e1 622a           	move.d [sp+64],r2
    4530:	ffed e6f7           	ba 3d1a <__dtoa_r+0x546>
    4534:	0f05                	nop 
    4536:	67a6                	move.d r7,r10
    4538:	69b6                	move.d r9,r11
    453a:	28e1 e99b           	move.d r9,[sp+40]
    453e:	3fbd 4063 0000      	jsr 6340 <___mcmp>
    4544:	6ad6                	move.d r10,r13
    4546:	68a6                	move.d r8,r10
    4548:	28e1 699a           	move.d [sp+40],r9
    454c:	69b6                	move.d r9,r11
    454e:	28e1 eddb           	move.d r13,[sp+40]
    4552:	34e1 30b9           	jsr [sp+52]
    4556:	28e1 6dda           	move.d [sp+40],r13
    455a:	ff2d e4f9           	bne 3f42 <__dtoa_r+0x76e>
    455e:	0f05                	nop 
    4560:	38e1 a00b           	test.d [sp+56]
    4564:	ff2d daf9           	bne 3f42 <__dtoa_r+0x76e>
    4568:	0f05                	nop 
    456a:	5fed 8400 699a      	move.d [sp+132],r9
    4570:	8093                	btstq 0,r9
    4572:	ffbd ccf9           	blt 3f42 <__dtoa_r+0x76e>
    4576:	0f05                	nop 
    4578:	cf3c 3900           	cmpu.b 0x39,r3
    457c:	ff3d da01           	beq 475a <__dtoa_r+0xf86>
    4580:	6446                	test.d r4
    4582:	08d0                	ble 458c <__dtoa_r+0xdb8>
    4584:	0f05                	nop 
    4586:	2ce1 633a           	move.d [sp+44],r3
    458a:	3132                	addq 49,r3
    458c:	6696                	move.d r6,r9
    458e:	c93f                	move.b r3,[r9+]
    4590:	ffed e4fa           	ba 4078 <__dtoa_r+0x8a4>
    4594:	6246                	move.d r2,r4
    4596:	3fbd 1e5e 0000      	jsr 5e1e <___multadd>
    459c:	6a06                	move.d r10,r0
    459e:	6a26                	move.d r10,r2
    45a0:	ffed 64f9           	ba 3f08 <__dtoa_r+0x734>
    45a4:	6466                	move.d r4,r6
    45a6:	65b6                	move.d r5,r11
    45a8:	3fbd 4063 0000      	jsr 6340 <___mcmp>
    45ae:	6aa6                	test.d r10
    45b0:	ffad 02f9           	bge 3eb6 <__dtoa_r+0x6e2>
    45b4:	68a6                	move.d r8,r10
    45b6:	3ce1 699a           	move.d [sp+60],r9
    45ba:	8192                	subq 1,r9
    45bc:	3ce1 e99b           	move.d r9,[sp+60]
    45c0:	6f3e 1e5e 0000      	move.d 5e1e <___multadd>,r3
    45c6:	67b6                	move.d r7,r11
    45c8:	4ac2                	moveq 10,r12
    45ca:	7d86                	clear.d r13
    45cc:	b3b9                	jsr r3
    45ce:	50e1 a00b           	test.d [sp+80]
    45d2:	ff2d 8604           	bne 4a5c <__dtoa_r+0x1288>
    45d6:	6a76                	move.d r10,r7
    45d8:	60e1 699a           	move.d [sp+96],r9
    45dc:	2ce1 e99b           	move.d r9,[sp+44]
    45e0:	ffed d2f8           	ba 3eb6 <__dtoa_r+0x6e2>
    45e4:	0f05                	nop 
    45e6:	1051 699a           	move.d [r5+16],r9
    45ea:	0492                	addq 4,r9
    45ec:	6595 6aaa           	move.d [r5+r9.d],r10
    45f0:	3fbd 6a5f 0000      	jsr 5f6a <___hi0bits>
    45f6:	4f9c 2000           	movu.b 0x20,r9
    45fa:	ffed 60f8           	ba 3e5e <__dtoa_r+0x68a>
    45fe:	aa96                	sub.d r10,r9
    4600:	38e1 699a           	move.d [sp+56],r9
    4604:	c292                	cmpq 2,r9
    4606:	ffdd b6f8           	ble 3ec0 <__dtoa_r+0x6ec>
    460a:	0f05                	nop 
    460c:	2ce1 a00b           	test.d [sp+44]
    4610:	ff2d b8fe           	bne 44cc <__dtoa_r+0xcf8>
    4614:	68a6                	move.d r8,r10
    4616:	65b6                	move.d r5,r11
    4618:	45c2                	moveq 5,r12
    461a:	7d86                	clear.d r13
    461c:	3fbd 1e5e 0000      	jsr 5e1e <___multadd>
    4622:	6a56                	move.d r10,r5
    4624:	67a6                	move.d r7,r10
    4626:	65b6                	move.d r5,r11
    4628:	3fbd 4063 0000      	jsr 6340 <___mcmp>
    462e:	6aa6                	test.d r10
    4630:	ffdd 98fe           	ble 44cc <__dtoa_r+0xcf8>
    4634:	0f05                	nop 
    4636:	6196                	move.d r1,r9
    4638:	4fce 3100           	move.b 0x31,r12
    463c:	c9cf                	move.b r12,[r9+]
    463e:	3ce1 6dda           	move.d [sp+60],r13
    4642:	01d2                	addq 1,r13
    4644:	3ce1 eddb           	move.d r13,[sp+60]
    4648:	ffed 90fe           	ba 44dc <__dtoa_r+0xd08>
    464c:	68a6                	move.d r8,r10
    464e:	3fbd e89e 0000      	jsr 9ee8 <___floatsidf>
    4654:	64c6                	move.d r4,r12
    4656:	65d6                	move.d r5,r13
    4658:	3fbd d097 0000      	jsr 97d0 <___muldf3>
    465e:	7c86                	clear.d r12
    4660:	6fde 0000 1c40      	move.d 401c0000 <__end+0x401b02f0>,r13
    4666:	3fbd 2097 0000      	jsr 9720 <___adddf3>
    466c:	5fed 9400 eaab      	move.d r10,[sp+148]
    4672:	2fbe 0000 c0fc      	add.d fcc00000 <__end+0xfcbf02f0>,r11
    4678:	5fed 9800 ebbb      	move.d r11,[sp+152]
    467e:	64a6                	move.d r4,r10
    4680:	65b6                	move.d r5,r11
    4682:	7c86                	clear.d r12
    4684:	6fde 0000 1440      	move.d 40140000 <__end+0x401302f0>,r13
    468a:	3fbd 7297 0000      	jsr 9772 <___subdf3>
    4690:	6a36                	move.d r10,r3
    4692:	6b26                	move.d r11,r2
    4694:	5fed 9400 644a      	move.d [sp+148],r4
    469a:	5fed 9800 600a      	move.d [sp+152],r0
    46a0:	64c6                	move.d r4,r12
    46a2:	60d6                	move.d r0,r13
    46a4:	3fbd d49d 0000      	jsr 9dd4 <___gtdf2>
    46aa:	6aa6                	test.d r10
    46ac:	ffcd 8401           	bgt 4834 <__dtoa_r+0x1060>
    46b0:	7586                	clear.d r5
    46b2:	63a6                	move.d r3,r10
    46b4:	62b6                	move.d r2,r11
    46b6:	64c6                	move.d r4,r12
    46b8:	60d6                	move.d r0,r13
    46ba:	2fde 0000 0080      	add.d 80000000 <__end+0x7fff02f0>,r13
    46c0:	3fbd 309e 0000      	jsr 9e30 <___ltdf2>
    46c6:	6aa6                	test.d r10
    46c8:	9ea0                	bge 4768 <__dtoa_r+0xf94>
    46ca:	0f05                	nop 
    46cc:	7586                	clear.d r5
    46ce:	6f9e 045e 0000      	move.d 5e04 <__Bfree>,r9
    46d4:	34e1 e99b           	move.d r9,[sp+52]
    46d8:	ffed f0fd           	ba 44cc <__dtoa_r+0xcf8>
    46dc:	7486                	clear.d r4
    46de:	48e1 a95a           	sub.d [sp+72],r5,r9
    46e2:	4ce1 299a           	add.d [sp+76],r9
    46e6:	4ce1 e99b           	move.d r9,[sp+76]
    46ea:	48e1 e55b           	move.d r5,[sp+72]
    46ee:	ffed 16f6           	ba 3d08 <__dtoa_r+0x534>
    46f2:	7586                	clear.d r5
    46f4:	6ce1 30ba           	move [sp+108],srp
    46f8:	44e1 70ba           	move srp,[sp+68]
    46fc:	70e1 30ba           	move [sp+112],srp
    4700:	58e1 70ba           	move srp,[sp+88]
    4704:	6f9e 949b 0000      	move.d 9b94 <___divdf3>,r9
    470a:	34e1 e99b           	move.d r9,[sp+52]
    470e:	ffed eefa           	ba 4200 <__dtoa_r+0xa2c>
    4712:	4232                	moveq 2,r3
    4714:	60e1 e00b           	move.d r0,[sp+96]
    4718:	2ce1 e00b           	move.d r0,[sp+44]
    471c:	5fed a000 e00b      	move.d r0,[sp+160]
    4722:	ffed 3efd           	ba 4464 <__dtoa_r+0xc90>
    4726:	0f05                	nop 
    4728:	6dd6                	test.d r13
    472a:	ffdd 5efe           	ble 458c <__dtoa_r+0xdb8>
    472e:	6346                	move.d r3,r4
    4730:	68a6                	move.d r8,r10
    4732:	67b6                	move.d r7,r11
    4734:	41c2                	moveq 1,r12
    4736:	3fbd 9062 0000      	jsr 6290 <___lshift>
    473c:	6a76                	move.d r10,r7
    473e:	65b6                	move.d r5,r11
    4740:	40e1 30b9           	jsr [sp+64]
    4744:	6aa6                	test.d r10
    4746:	ffdd fe02           	ble 4a48 <__dtoa_r+0x1274>
    474a:	6aa6                	test.d r10
    474c:	2ce1 633a           	move.d [sp+44],r3
    4750:	cf4c 3900           	cmpu.b 0x39,r4
    4754:	ff2d 34fe           	bne 458c <__dtoa_r+0xdb8>
    4758:	3132                	addq 49,r3
    475a:	6696                	move.d r6,r9
    475c:	4fce 3900           	move.b 0x39,r12
    4760:	c9cf                	move.b r12,[r9+]
    4762:	ffed e0f8           	ba 4046 <__dtoa_r+0x872>
    4766:	6246                	move.d r2,r4
    4768:	6ce1 30ba           	move [sp+108],srp
    476c:	5fed 8400 70ba      	move srp,[sp+132]
    4772:	70e1 30ba           	move [sp+112],srp
    4776:	5fed 8800 70ba      	move srp,[sp+136]
    477c:	ffed 8af3           	ba 3b0a <__dtoa_r+0x336>
    4780:	0f05                	nop 
    4782:	3ce1 699a           	move.d [sp+60],r9
    4786:	a905                	neg.d r9,r0
    4788:	ff3d e201           	beq 496e <__dtoa_r+0x119a>
    478c:	6096                	move.d r0,r9
    478e:	0f93                	andq 15,r9
    4790:	c393                	lslq 3,r9
    4792:	6ce1 6aaa           	move.d [sp+108],r10
    4796:	70e1 6bba           	move.d [sp+112],r11
    479a:	6f9d b4ac 0000 6cca 	move.d [r9+acb4 <___mprec_tens>],r12
    47a2:	6f9d b8ac 0000 6dda 	move.d [r9+acb8 <___mprec_tens+0x4>],r13
    47aa:	3fbd d097 0000      	jsr 97d0 <___muldf3>
    47b0:	6a46                	move.d r10,r4
    47b2:	a403                	asrq 4,r0
    47b4:	ff3d bc02           	beq 4a74 <__dtoa_r+0x12a0>
    47b8:	6b56                	move.d r11,r5
    47ba:	6f2e 8cac 0000      	move.d ac8c <___mprec_bigtens>,r2
    47c0:	4232                	moveq 2,r3
    47c2:	8003                	btstq 0,r0
    47c4:	16a0                	bge 47dc <__dtoa_r+0x1008>
    47c6:	64a6                	move.d r4,r10
    47c8:	0132                	addq 1,r3
    47ca:	65b6                	move.d r5,r11
    47cc:	62ca                	move.d [r2],r12
    47ce:	0421 6dda           	move.d [r2+4],r13
    47d2:	3fbd d097 0000      	jsr 97d0 <___muldf3>
    47d8:	6a46                	move.d r10,r4
    47da:	6b56                	move.d r11,r5
    47dc:	a103                	asrq 1,r0
    47de:	e320                	bne 47c2 <__dtoa_r+0xfee>
    47e0:	0822                	addq 8,r2
    47e2:	ffed 5afa           	ba 4240 <__dtoa_r+0xa6c>
    47e6:	0f05                	nop 
    47e8:	01c2                	addq 1,r12
    47ea:	ffed 8af8           	ba 4078 <__dtoa_r+0x8a4>
    47ee:	cbcb                	move.b r12,[r11]
    47f0:	0441 6bba           	move.d [r4+4],r11
    47f4:	5ce1 30b9           	jsr [sp+92]
    47f8:	6a06                	move.d r10,r0
    47fa:	1041 6cca           	move.d [r4+16],r12
    47fe:	02c2                	addq 2,r12
    4800:	0ca2                	addq 12,r10
    4802:	64b6                	move.d r4,r11
    4804:	0cb2                	addq 12,r11
    4806:	c2c3                	lslq 2,r12
    4808:	3fbd 7c5b 0000      	jsr 5b7c <_memcpy>
    480e:	68a6                	move.d r8,r10
    4810:	60b6                	move.d r0,r11
    4812:	41c2                	moveq 1,r12
    4814:	3fbd 9062 0000      	jsr 6290 <___lshift>
    481a:	ffed c6f6           	ba 3ee4 <__dtoa_r+0x710>
    481e:	6a26                	move.d r10,r2
    4820:	cf3c 3900           	cmpu.b 0x39,r3
    4824:	3530                	beq 475a <__dtoa_r+0xf86>
    4826:	0f05                	nop 
    4828:	ffed 60fd           	ba 458c <__dtoa_r+0xdb8>
    482c:	0132                	addq 1,r3
    482e:	ffed ecf7           	ba 401e <__dtoa_r+0x84a>
    4832:	6246                	move.d r2,r4
    4834:	6f9e 045e 0000      	move.d 5e04 <__Bfree>,r9
    483a:	34e1 e99b           	move.d r9,[sp+52]
    483e:	ffed f4fd           	ba 4636 <__dtoa_r+0xe62>
    4842:	7486                	clear.d r4
    4844:	58e1 699a           	move.d [sp+88],r9
    4848:	8192                	subq 1,r9
    484a:	34e1 e99b           	move.d r9,[sp+52]
    484e:	c393                	lslq 3,r9
    4850:	5fed 9400 6aaa      	move.d [sp+148],r10
    4856:	5fed 9800 6bba      	move.d [sp+152],r11
    485c:	6f9d b4ac 0000 6cca 	move.d [r9+acb4 <___mprec_tens>],r12
    4864:	6f9d b8ac 0000 6dda 	move.d [r9+acb8 <___mprec_tens+0x4>],r13
    486c:	3fbd d097 0000      	jsr 97d0 <___muldf3>
    4872:	68e1 eaab           	move.d r10,[sp+104]
    4876:	78e1 ebbb           	move.d r11,[sp+120]
    487a:	64a6                	move.d r4,r10
    487c:	65b6                	move.d r5,r11
    487e:	3fbd a09f 0000      	jsr 9fa0 <___fixdfsi>
    4884:	6a06                	move.d r10,r0
    4886:	3fbd e89e 0000      	jsr 9ee8 <___floatsidf>
    488c:	6ac6                	move.d r10,r12
    488e:	6bd6                	move.d r11,r13
    4890:	64a6                	move.d r4,r10
    4892:	65b6                	move.d r5,r11
    4894:	3fbd 7297 0000      	jsr 9772 <___subdf3>
    489a:	6a26                	move.d r10,r2
    489c:	3002                	addq 48,r0
    489e:	6196                	move.d r1,r9
    48a0:	c90f                	move.b r0,[r9+]
    48a2:	44e1 e99b           	move.d r9,[sp+68]
    48a6:	58e1 6cca           	move.d [sp+88],r12
    48aa:	c1c2                	cmpq 1,r12
    48ac:	5030                	beq 48fe <__dtoa_r+0x112a>
    48ae:	6b36                	move.d r11,r3
    48b0:	58e1 251a           	add.d [sp+88],r1,r5
    48b4:	44e1 600a           	move.d [sp+68],r0
    48b8:	62a6                	move.d r2,r10
    48ba:	63b6                	move.d r3,r11
    48bc:	7c86                	clear.d r12
    48be:	6fde 0000 2440      	move.d 40240000 <__end+0x402302f0>,r13
    48c4:	3fbd d097 0000      	jsr 97d0 <___muldf3>
    48ca:	6a36                	move.d r10,r3
    48cc:	6b26                	move.d r11,r2
    48ce:	3fbd a09f 0000      	jsr 9fa0 <___fixdfsi>
    48d4:	6a46                	move.d r10,r4
    48d6:	3fbd e89e 0000      	jsr 9ee8 <___floatsidf>
    48dc:	6ac6                	move.d r10,r12
    48de:	6bd6                	move.d r11,r13
    48e0:	63a6                	move.d r3,r10
    48e2:	62b6                	move.d r2,r11
    48e4:	3fbd 7297 0000      	jsr 9772 <___subdf3>
    48ea:	6a26                	move.d r10,r2
    48ec:	3042                	addq 48,r4
    48ee:	c04f                	move.b r4,[r0+]
    48f0:	e506                	cmp.d r5,r0
    48f2:	c520                	bne 48b8 <__dtoa_r+0x10e4>
    48f4:	6b36                	move.d r11,r3
    48f6:	44e1 699a           	move.d [sp+68],r9
    48fa:	34e1 299a           	add.d [sp+52],r9
    48fe:	68e1 6aaa           	move.d [sp+104],r10
    4902:	78e1 6bba           	move.d [sp+120],r11
    4906:	7c86                	clear.d r12
    4908:	6fde 0000 e03f      	move.d 3fe00000 <__end+0x3fdf02f0>,r13
    490e:	28e1 e99b           	move.d r9,[sp+40]
    4912:	3fbd 2097 0000      	jsr 9720 <___adddf3>
    4918:	62c6                	move.d r2,r12
    491a:	63d6                	move.d r3,r13
    491c:	3fbd 309e 0000      	jsr 9e30 <___ltdf2>
    4922:	28e1 699a           	move.d [sp+40],r9
    4926:	6aa6                	test.d r10
    4928:	caa0                	bge 49f4 <__dtoa_r+0x1220>
    492a:	7a86                	clear.d r10
    492c:	ff91 444a           	move.b [r9-1],r4
    4930:	74e1 6dda           	move.d [sp+116],r13
    4934:	3ce1 eddb           	move.d r13,[sp+60]
    4938:	ffed 64f3           	ba 3ca0 <__dtoa_r+0x4cc>
    493c:	69d6                	move.d r9,r13
    493e:	2ce1 a22a           	sub.d [sp+44],r2
    4942:	ffed d4f3           	ba 3d1a <__dtoa_r+0x546>
    4946:	7986                	clear.d r9
    4948:	ffed c4f6           	ba 4010 <__dtoa_r+0x83c>
    494c:	4192                	moveq 1,r9
    494e:	4f9c 3600           	movu.b 0x36,r9
    4952:	7ce1 a99a           	sub.d [sp+124],r9
    4956:	48e1 655a           	move.d [sp+72],r5
    495a:	40e1 622a           	move.d [sp+64],r2
    495e:	ffed b8f3           	ba 3d1a <__dtoa_r+0x546>
    4962:	0f05                	nop 
    4964:	4466                	move.b r4,r6
    4966:	0162                	addq 1,r6
    4968:	ffed 60f3           	ba 3ccc <__dtoa_r+0x4f8>
    496c:	cc6b                	move.b r6,[r12]
    496e:	6ce1 644a           	move.d [sp+108],r4
    4972:	70e1 655a           	move.d [sp+112],r5
    4976:	ffed c6f8           	ba 4240 <__dtoa_r+0xa6c>
    497a:	4232                	moveq 2,r3
    497c:	2ce1 a00b           	test.d [sp+44]
    4980:	ff3d cafc           	beq 464e <__dtoa_r+0xe7a>
    4984:	0f05                	nop 
    4986:	60e1 a00b           	test.d [sp+96]
    498a:	ffdd dafd           	ble 4768 <__dtoa_r+0xf94>
    498e:	64a6                	move.d r4,r10
    4990:	3ce1 699a           	move.d [sp+60],r9
    4994:	8192                	subq 1,r9
    4996:	74e1 e99b           	move.d r9,[sp+116]
    499a:	65b6                	move.d r5,r11
    499c:	7c86                	clear.d r12
    499e:	6fde 0000 2440      	move.d 40240000 <__end+0x402302f0>,r13
    49a4:	3fbd d097 0000      	jsr 97d0 <___muldf3>
    49aa:	6a46                	move.d r10,r4
    49ac:	6b56                	move.d r11,r5
    49ae:	63a6                	move.d r3,r10
    49b0:	01a2                	addq 1,r10
    49b2:	3fbd e89e 0000      	jsr 9ee8 <___floatsidf>
    49b8:	6ac6                	move.d r10,r12
    49ba:	6bd6                	move.d r11,r13
    49bc:	64a6                	move.d r4,r10
    49be:	65b6                	move.d r5,r11
    49c0:	3fbd d097 0000      	jsr 97d0 <___muldf3>
    49c6:	7c86                	clear.d r12
    49c8:	6fde 0000 1c40      	move.d 401c0000 <__end+0x401b02f0>,r13
    49ce:	3fbd 2097 0000      	jsr 9720 <___adddf3>
    49d4:	5fed 9400 eaab      	move.d r10,[sp+148]
    49da:	2fbe 0000 c0fc      	add.d fcc00000 <__end+0xfcbf02f0>,r11
    49e0:	5fed 9800 ebbb      	move.d r11,[sp+152]
    49e6:	60e1 699a           	move.d [sp+96],r9
    49ea:	58e1 e99b           	move.d r9,[sp+88]
    49ee:	ffed baf8           	ba 42ac <__dtoa_r+0xad8>
    49f2:	0f05                	nop 
    49f4:	6fbe 0000 e03f      	move.d 3fe00000 <__end+0x3fdf02f0>,r11
    49fa:	68e1 6cca           	move.d [sp+104],r12
    49fe:	78e1 6dda           	move.d [sp+120],r13
    4a02:	28e1 e99b           	move.d r9,[sp+40]
    4a06:	3fbd 7297 0000      	jsr 9772 <___subdf3>
    4a0c:	62c6                	move.d r2,r12
    4a0e:	63d6                	move.d r3,r13
    4a10:	3fbd d49d 0000      	jsr 9dd4 <___gtdf2>
    4a16:	28e1 699a           	move.d [sp+40],r9
    4a1a:	6aa6                	test.d r10
    4a1c:	0ac0                	bgt 4a28 <__dtoa_r+0x1254>
    4a1e:	0f05                	nop 
    4a20:	ffed 44fd           	ba 4768 <__dtoa_r+0xf94>
    4a24:	0f05                	nop 
    4a26:	6c96                	move.d r12,r9
    4a28:	ff91 4cde           	move.b [r12=r9-1],r13
    4a2c:	cfde 3000           	cmp.b 0x30,r13
    4a30:	f530                	beq 4a26 <__dtoa_r+0x1252>
    4a32:	0f05                	nop 
    4a34:	ffed f2f9           	ba 442a <__dtoa_r+0xc56>
    4a38:	0f05                	nop 
    4a3a:	74e1 6dda           	move.d [sp+116],r13
    4a3e:	3ce1 eddb           	move.d r13,[sp+60]
    4a42:	ffed 5af2           	ba 3ca0 <__dtoa_r+0x4cc>
    4a46:	69d6                	move.d r9,r13
    4a48:	ff2d 42fb           	bne 458e <__dtoa_r+0xdba>
    4a4c:	6696                	move.d r6,r9
    4a4e:	8033                	btstq 0,r3
    4a50:	ffad 3afb           	bge 458e <__dtoa_r+0xdba>
    4a54:	0f05                	nop 
    4a56:	ffed f2fc           	ba 474c <__dtoa_r+0xf78>
    4a5a:	0f05                	nop 
    4a5c:	68a6                	move.d r8,r10
    4a5e:	64b6                	move.d r4,r11
    4a60:	4ac2                	moveq 10,r12
    4a62:	7d86                	clear.d r13
    4a64:	b3b9                	jsr r3
    4a66:	60e1 699a           	move.d [sp+96],r9
    4a6a:	2ce1 e99b           	move.d r9,[sp+44]
    4a6e:	ffed 44f4           	ba 3eb6 <__dtoa_r+0x6e2>
    4a72:	6a46                	move.d r10,r4
    4a74:	ffed c8f7           	ba 4240 <__dtoa_r+0xa6c>
    4a78:	4232                	moveq 2,r3
    4a7a:	74e1 6cca           	move.d [sp+116],r12
    4a7e:	3ce1 eccb           	move.d r12,[sp+60]
    4a82:	ffed 1af2           	ba 3ca0 <__dtoa_r+0x4cc>
    4a86:	69d6                	move.d r9,r13
    4a88:	ffed e6f6           	ba 4172 <__dtoa_r+0x99e>
    4a8c:	7b86                	clear.d r11
    4a8e:	ff3d f2f3           	beq 3e84 <__dtoa_r+0x6b0>
    4a92:	0f05                	nop 
    4a94:	4fdc 3c00           	movu.b 0x3c,r13
    4a98:	ffed dcf3           	ba 3e78 <__dtoa_r+0x6a4>
    4a9c:	a9d6                	sub.d r9,r13
	...

00004aa0 <___sflush_r>:
    4aa0:	84e2                	subq 4,sp
    4aa2:	7eba                	move srp,[sp]
    4aa4:	90e2                	subq 16,sp
    4aa6:	fe3b                	movem r3,[sp]
    4aa8:	6a36                	move.d r10,r3
    4aaa:	0cb1 599a           	move.w [r11+12],r9
    4aae:	8393                	btstq 3,r9
    4ab0:	8eb0                	blt 4b40 <___sflush_r+0xa0>
    4ab2:	6b16                	move.d r11,r1
    4ab4:	59d6                	move.w r9,r13
    4ab6:	5fdf 0008           	or.w 0x800,r13
    4aba:	0cb1 dddb           	move.w r13,[r11+12]
    4abe:	04b1 a00b           	test.d [r11+4]
    4ac2:	d2d0                	ble 4b96 <___sflush_r+0xf6>
    4ac4:	0f05                	nop 
    4ac6:	2811 600a           	move.d [r1+40],r0
    4aca:	7030                	beq 4b3c <___sflush_r+0x9c>
    4acc:	7a86                	clear.d r10
    4ace:	632a                	move.d [r3],r2
    4ad0:	8c93                	btstq 12,r9
    4ad2:	cea0                	bge 4ba2 <___sflush_r+0x102>
    4ad4:	738a                	clear.d [r3]
    4ad6:	5011 6cca           	move.d [r1+80],r12
    4ada:	82d3                	btstq 2,r13
    4adc:	12a0                	bge 4af0 <___sflush_r+0x50>
    4ade:	63a6                	move.d r3,r10
    4ae0:	0411 acca           	sub.d [r1+4],r12
    4ae4:	3011 a00b           	test.d [r1+48]
    4ae8:	0630                	beq 4af0 <___sflush_r+0x50>
    4aea:	0f05                	nop 
    4aec:	3c11 acca           	sub.d [r1+60],r12
    4af0:	1c11 6bba           	move.d [r1+28],r11
    4af4:	7d86                	clear.d r13
    4af6:	b0b9                	jsr r0
    4af8:	ffa2                	cmpq -1,r10
    4afa:	c430                	beq 4bc0 <___sflush_r+0x120>
    4afc:	0f05                	nop 
    4afe:	0c11 599a           	move.w [r1+12],r9
    4b02:	59d6                	move.w r9,r13
    4b04:	1fdf fff7           	and.w 0xf7ff,r13
    4b08:	0c11 dddb           	move.w r13,[r1+12]
    4b0c:	0411 708a           	clear.d [r1+4]
    4b10:	1011 6dda           	move.d [r1+16],r13
    4b14:	8c93                	btstq 12,r9
    4b16:	e4b0                	blt 4bfc <___sflush_r+0x15c>
    4b18:	e1db                	move.d r13,[r1]
    4b1a:	e32b                	move.d r2,[r3]
    4b1c:	3011 6bba           	move.d [r1+48],r11
    4b20:	1830                	beq 4b3a <___sflush_r+0x9a>
    4b22:	6196                	move.d r1,r9
    4b24:	0f9c 4000           	addu.b 0x40,r9
    4b28:	e9b6                	cmp.d r9,r11
    4b2a:	0a30                	beq 4b36 <___sflush_r+0x96>
    4b2c:	0f05                	nop 
    4b2e:	63a6                	move.d r3,r10
    4b30:	3fbd 9a4f 0000      	jsr 4f9a <__free_r>
    4b36:	3011 708a           	clear.d [r1+48]
    4b3a:	7a86                	clear.d r10
    4b3c:	be3f                	movem [sp+],r3
    4b3e:	3e0d                	jump [sp+]
    4b40:	10b1 622a           	move.d [r11+16],r2
    4b44:	f730                	beq 4b3c <___sflush_r+0x9c>
    4b46:	7a86                	clear.d r10
    4b48:	6b0a                	move.d [r11],r0
    4b4a:	a206                	sub.d r2,r0
    4b4c:	8193                	btstq 1,r9
    4b4e:	4220                	bne 4b92 <___sflush_r+0xf2>
    4b50:	eb2b                	move.d r2,[r11]
    4b52:	14b1 699a           	move.d [r11+20],r9
    4b56:	0811 e99b           	move.d r9,[r1+8]
    4b5a:	6006                	test.d r0
    4b5c:	0cc0                	bgt 4b6a <___sflush_r+0xca>
    4b5e:	7a86                	clear.d r10
    4b60:	b0e0                	ba 4c12 <___sflush_r+0x172>
    4b62:	be3f                	movem [sp+],r3
    4b64:	6006                	test.d r0
    4b66:	d3d0                	ble 4b3a <___sflush_r+0x9a>
    4b68:	2a26                	add.d r10,r2
    4b6a:	63a6                	move.d r3,r10
    4b6c:	1c11 6bba           	move.d [r1+28],r11
    4b70:	62c6                	move.d r2,r12
    4b72:	60d6                	move.d r0,r13
    4b74:	2411 30b9           	jsr [r1+36]
    4b78:	6aa6                	test.d r10
    4b7a:	e9c0                	bgt 4b64 <___sflush_r+0xc4>
    4b7c:	aa06                	sub.d r10,r0
    4b7e:	2a06                	add.d r10,r0
    4b80:	0c11 599a           	move.w [r1+12],r9
    4b84:	5f9f 4000           	or.w 0x40,r9
    4b88:	0c11 d99b           	move.w r9,[r1+12]
    4b8c:	7fa2                	moveq -1,r10
    4b8e:	be3f                	movem [sp+],r3
    4b90:	3e0d                	jump [sp+]
    4b92:	c3e0                	ba 4b56 <___sflush_r+0xb6>
    4b94:	7986                	clear.d r9
    4b96:	3cb1 a00b           	test.d [r11+60]
    4b9a:	2bc0                	bgt 4ac6 <___sflush_r+0x26>
    4b9c:	7a86                	clear.d r10
    4b9e:	72e0                	ba 4c12 <___sflush_r+0x172>
    4ba0:	be3f                	movem [sp+],r3
    4ba2:	63a6                	move.d r3,r10
    4ba4:	1c11 6bba           	move.d [r1+28],r11
    4ba8:	7c86                	clear.d r12
    4baa:	41d2                	moveq 1,r13
    4bac:	b0b9                	jsr r0
    4bae:	ffa2                	cmpq -1,r10
    4bb0:	3430                	beq 4be6 <___sflush_r+0x146>
    4bb2:	6ac6                	move.d r10,r12
    4bb4:	0c11 5dda           	move.w [r1+12],r13
    4bb8:	2811 600a           	move.d [r1+40],r0
    4bbc:	1de0                	ba 4ada <___sflush_r+0x3a>
    4bbe:	0f05                	nop 
    4bc0:	639a                	move.d [r3],r9
    4bc2:	3b30                	beq 4afe <___sflush_r+0x5e>
    4bc4:	dd92                	cmpq 29,r9
    4bc6:	0630                	beq 4bce <___sflush_r+0x12e>
    4bc8:	d692                	cmpq 22,r9
    4bca:	3820                	bne 4c04 <___sflush_r+0x164>
    4bcc:	0f05                	nop 
    4bce:	0c11 599a           	move.w [r1+12],r9
    4bd2:	1f9f fff7           	and.w 0xf7ff,r9
    4bd6:	0c11 d99b           	move.w r9,[r1+12]
    4bda:	0411 708a           	clear.d [r1+4]
    4bde:	1011 699a           	move.d [r1+16],r9
    4be2:	37e0                	ba 4b1a <___sflush_r+0x7a>
    4be4:	e19b                	move.d r9,[r1]
    4be6:	639a                	move.d [r3],r9
    4be8:	cb30                	beq 4bb4 <___sflush_r+0x114>
    4bea:	dd92                	cmpq 29,r9
    4bec:	0630                	beq 4bf4 <___sflush_r+0x154>
    4bee:	d692                	cmpq 22,r9
    4bf0:	8f20                	bne 4b80 <___sflush_r+0xe0>
    4bf2:	0f05                	nop 
    4bf4:	e32b                	move.d r2,[r3]
    4bf6:	7a86                	clear.d r10
    4bf8:	be3f                	movem [sp+],r3
    4bfa:	3e0d                	jump [sp+]
    4bfc:	5011 eaab           	move.d r10,[r1+80]
    4c00:	1be0                	ba 4b1c <___sflush_r+0x7c>
    4c02:	e32b                	move.d r2,[r3]
    4c04:	0c11 599a           	move.w [r1+12],r9
    4c08:	5f9f 4000           	or.w 0x40,r9
    4c0c:	0c11 d99b           	move.w r9,[r1+12]
    4c10:	be3f                	movem [sp+],r3
    4c12:	3e0d                	jump [sp+]

00004c14 <__fflush_r>:
    4c14:	84e2                	subq 4,sp
    4c16:	7eba                	move srp,[sp]
    4c18:	88e2                	subq 8,sp
    4c1a:	ee0b                	move.d r0,[sp]
    4c1c:	6aa6                	test.d r10
    4c1e:	0a30                	beq 4c2a <__fflush_r+0x16>
    4c20:	6a06                	move.d r10,r0
    4c22:	35a1 a00b           	test.d [r10+53]
    4c26:	2030                	beq 4c48 <__fflush_r+0x34>
    4c28:	0f05                	nop 
    4c2a:	0cb1 900b           	test.w [r11+12]
    4c2e:	0a20                	bne 4c3a <__fflush_r+0x26>
    4c30:	0f05                	nop 
    4c32:	7a86                	clear.d r10
    4c34:	6e0e                	pop r0
    4c36:	04e2                	addq 4,sp
    4c38:	3e0d                	jump [sp+]
    4c3a:	60a6                	move.d r0,r10
    4c3c:	3fbd a04a 0000      	jsr 4aa0 <___sflush_r>
    4c42:	6e0e                	pop r0
    4c44:	04e2                	addq 4,sp
    4c46:	3e0d                	jump [sp+]
    4c48:	04e1 ebbb           	move.d r11,[sp+4]
    4c4c:	3fbd 684d 0000      	jsr 4d68 <___sinit>
    4c52:	04e1 6bba           	move.d [sp+4],r11
    4c56:	d3e0                	ba 4c2a <__fflush_r+0x16>
    4c58:	0f05                	nop 

00004c5a <_fflush>:
    4c5a:	84e2                	subq 4,sp
    4c5c:	7eba                	move srp,[sp]
    4c5e:	6aa6                	test.d r10
    4c60:	1230                	beq 4c74 <_fflush+0x1a>
    4c62:	6ab6                	move.d r10,r11
    4c64:	6fae 08b0 0000      	move.d b008 <__impure_ptr>,r10
    4c6a:	6aaa                	move.d [r10],r10
    4c6c:	3fbd 144c 0000      	jsr 4c14 <__fflush_r>
    4c72:	3e0d                	jump [sp+]
    4c74:	6fae eaab 0000      	move.d abea <__global_impure_ptr>,r10
    4c7a:	6aaa                	move.d [r10],r10
    4c7c:	6fbe 144c 0000      	move.d 4c14 <__fflush_r>,r11
    4c82:	3fbd 3a52 0000      	jsr 523a <__fwalk_reent>
    4c88:	3e0d                	jump [sp+]
	...

00004c8c <___fp_lock>:
    4c8c:	7fb6                	ret 
    4c8e:	7a86                	clear.d r10

00004c90 <___fp_unlock>:
    4c90:	7fb6                	ret 
    4c92:	7a86                	clear.d r10

00004c94 <__cleanup_r>:
    4c94:	84e2                	subq 4,sp
    4c96:	7eba                	move srp,[sp]
    4c98:	6fbe 227b 0000      	move.d 7b22 <_fclose>,r11
    4c9e:	3fbd e051 0000      	jsr 51e0 <__fwalk>
    4ca4:	3e0d                	jump [sp+]

00004ca6 <_std.isra.0>:
    4ca6:	84e2                	subq 4,sp
    4ca8:	7eba                	move srp,[sp]
    4caa:	84e2                	subq 4,sp
    4cac:	ee0b                	move.d r0,[sp]
    4cae:	6a06                	move.d r10,r0
    4cb0:	7a8a                	clear.d [r10]
    4cb2:	04a1 708a           	clear.d [r10+4]
    4cb6:	08a1 708a           	clear.d [r10+8]
    4cba:	0ca1 dbbb           	move.w r11,[r10+12]
    4cbe:	64a1 708a           	clear.d [r10+100]
    4cc2:	0ea1 dccb           	move.w r12,[r10+14]
    4cc6:	10a1 708a           	clear.d [r10+16]
    4cca:	14a1 708a           	clear.d [r10+20]
    4cce:	18a1 708a           	clear.d [r10+24]
    4cd2:	0fac 5c00           	addu.b 0x5c,r10
    4cd6:	7b86                	clear.d r11
    4cd8:	48c2                	moveq 8,r12
    4cda:	3fbd 7c15 0000      	jsr 157c <_memset>
    4ce0:	1c01 e00b           	move.d r0,[r0+28]
    4ce4:	6f9e d068 0000      	move.d 68d0 <___sread>,r9
    4cea:	2001 e99b           	move.d r9,[r0+32]
    4cee:	6f9e 0a69 0000      	move.d 690a <___swrite>,r9
    4cf4:	2401 e99b           	move.d r9,[r0+36]
    4cf8:	6f9e 5069 0000      	move.d 6950 <___sseek>,r9
    4cfe:	2801 e99b           	move.d r9,[r0+40]
    4d02:	6f9e 8a69 0000      	move.d 698a <___sclose>,r9
    4d08:	2c01 e99b           	move.d r9,[r0+44]
    4d0c:	6e0e                	pop r0
    4d0e:	3e0d                	jump [sp+]

00004d10 <___sfmoreglue>:
    4d10:	84e2                	subq 4,sp
    4d12:	7eba                	move srp,[sp]
    4d14:	8ce2                	subq 12,sp
    4d16:	fe2b                	movem r2,[sp]
    4d18:	6b16                	move.d r11,r1
    4d1a:	6b26                	move.d r11,r2
    4d1c:	2b26                	add.d r11,r2
    4d1e:	2b26                	add.d r11,r2
    4d20:	6b96                	move.d r11,r9
    4d22:	2925                	addi r2.d,r9
    4d24:	6926                	move.d r9,r2
    4d26:	c323                	lslq 3,r2
    4d28:	62b6                	move.d r2,r11
    4d2a:	0cb2                	addq 12,r11
    4d2c:	3fbd 5c54 0000      	jsr 545c <__malloc_r>
    4d32:	6aa6                	test.d r10
    4d34:	1830                	beq 4d4e <___sfmoreglue+0x3e>
    4d36:	6a06                	move.d r10,r0
    4d38:	0ca2                	addq 12,r10
    4d3a:	708a                	clear.d [r0]
    4d3c:	0401 e11b           	move.d r1,[r0+4]
    4d40:	0801 eaab           	move.d r10,[r0+8]
    4d44:	7b86                	clear.d r11
    4d46:	62c6                	move.d r2,r12
    4d48:	3fbd 7c15 0000      	jsr 157c <_memset>
    4d4e:	60a6                	move.d r0,r10
    4d50:	be2f                	movem [sp+],r2
    4d52:	3e0d                	jump [sp+]

00004d54 <__cleanup>:
    4d54:	84e2                	subq 4,sp
    4d56:	7eba                	move srp,[sp]
    4d58:	6fae eaab 0000      	move.d abea <__global_impure_ptr>,r10
    4d5e:	6aaa                	move.d [r10],r10
    4d60:	3fbd 944c 0000      	jsr 4c94 <__cleanup_r>
    4d66:	3e0d                	jump [sp+]

00004d68 <___sinit>:
    4d68:	84e2                	subq 4,sp
    4d6a:	7eba                	move srp,[sp]
    4d6c:	88e2                	subq 8,sp
    4d6e:	fe1b                	movem r1,[sp]
    4d70:	35a1 a00b           	test.d [r10+53]
    4d74:	0630                	beq 4d7c <___sinit+0x14>
    4d76:	6a06                	move.d r10,r0
    4d78:	be1f                	movem [sp+],r1
    4d7a:	3e0d                	jump [sp+]
    4d7c:	6f9e 944c 0000      	move.d 4c94 <__cleanup_r>,r9
    4d82:	39a1 e99b           	move.d r9,[r10+57]
    4d86:	4192                	moveq 1,r9
    4d88:	35a1 e99b           	move.d r9,[r10+53]
    4d8c:	5fad dd02 708a      	clear.d [r10+733]
    4d92:	4f9e 0300           	move.b 0x3,r9
    4d96:	5fad e102 e99b      	move.d r9,[r10+737]
    4d9c:	6a96                	move.d r10,r9
    4d9e:	1f9c e902           	addu.w 0x2e9,r9
    4da2:	5fad e502 e99b      	move.d r9,[r10+741]
    4da8:	6f1e a64c 0000      	move.d 4ca6 <_std.isra.0>,r1
    4dae:	04a1 6aaa           	move.d [r10+4],r10
    4db2:	44b2                	moveq 4,r11
    4db4:	7c86                	clear.d r12
    4db6:	b1b9                	jsr r1
    4db8:	0801 6aaa           	move.d [r0+8],r10
    4dbc:	49b2                	moveq 9,r11
    4dbe:	41c2                	moveq 1,r12
    4dc0:	b1b9                	jsr r1
    4dc2:	0c01 6aaa           	move.d [r0+12],r10
    4dc6:	52b2                	moveq 18,r11
    4dc8:	42c2                	moveq 2,r12
    4dca:	b1b9                	jsr r1
    4dcc:	be1f                	movem [sp+],r1
    4dce:	3e0d                	jump [sp+]

00004dd0 <___sfp>:
    4dd0:	84e2                	subq 4,sp
    4dd2:	7eba                	move srp,[sp]
    4dd4:	90e2                	subq 16,sp
    4dd6:	fe3b                	movem r3,[sp]
    4dd8:	6f1e eaab 0000      	move.d abea <__global_impure_ptr>,r1
    4dde:	611a                	move.d [r1],r1
    4de0:	3511 a00b           	test.d [r1+53]
    4de4:	8830                	beq 4e6e <___sfp+0x9e>
    4de6:	6a26                	move.d r10,r2
    4de8:	1f1c dd02           	addu.w 0x2dd,r1
    4dec:	6f3e 104d 0000      	move.d 4d10 <___sfmoreglue>,r3
    4df2:	0811 600a           	move.d [r1+8],r0
    4df6:	0411 699a           	move.d [r1+4],r9
    4dfa:	8192                	subq 1,r9
    4dfc:	1060                	bpl 4e0e <___sfp+0x3e>
    4dfe:	0f05                	nop 
    4e00:	62e0                	ba 4e64 <___sfp+0x94>
    4e02:	61aa                	move.d [r1],r10
    4e04:	0f0c 6800           	addu.b 0x68,r0
    4e08:	ff92                	cmpq -1,r9
    4e0a:	5630                	beq 4e62 <___sfp+0x92>
    4e0c:	0f05                	nop 
    4e0e:	0c01 900b           	test.w [r0+12]
    4e12:	f120                	bne 4e04 <___sfp+0x34>
    4e14:	8192                	subq 1,r9
    4e16:	7f92                	moveq -1,r9
    4e18:	0e01 d99b           	move.w r9,[r0+14]
    4e1c:	4192                	moveq 1,r9
    4e1e:	0c01 d99b           	move.w r9,[r0+12]
    4e22:	6401 708a           	clear.d [r0+100]
    4e26:	708a                	clear.d [r0]
    4e28:	0801 708a           	clear.d [r0+8]
    4e2c:	0401 708a           	clear.d [r0+4]
    4e30:	1001 708a           	clear.d [r0+16]
    4e34:	1401 708a           	clear.d [r0+20]
    4e38:	1801 708a           	clear.d [r0+24]
    4e3c:	60a6                	move.d r0,r10
    4e3e:	0fac 5c00           	addu.b 0x5c,r10
    4e42:	7b86                	clear.d r11
    4e44:	48c2                	moveq 8,r12
    4e46:	3fbd 7c15 0000      	jsr 157c <_memset>
    4e4c:	3001 708a           	clear.d [r0+48]
    4e50:	3401 708a           	clear.d [r0+52]
    4e54:	4401 708a           	clear.d [r0+68]
    4e58:	4801 708a           	clear.d [r0+72]
    4e5c:	60a6                	move.d r0,r10
    4e5e:	be3f                	movem [sp+],r3
    4e60:	3e0d                	jump [sp+]
    4e62:	61aa                	move.d [r1],r10
    4e64:	6aa6                	test.d r10
    4e66:	1230                	beq 4e7a <___sfp+0xaa>
    4e68:	44b2                	moveq 4,r11
    4e6a:	87e0                	ba 4df2 <___sfp+0x22>
    4e6c:	6a16                	move.d r10,r1
    4e6e:	61a6                	move.d r1,r10
    4e70:	3fbd 684d 0000      	jsr 4d68 <___sinit>
    4e76:	71e0                	ba 4de8 <___sfp+0x18>
    4e78:	0f05                	nop 
    4e7a:	62a6                	move.d r2,r10
    4e7c:	b3b9                	jsr r3
    4e7e:	6aa6                	test.d r10
    4e80:	e920                	bne 4e6a <___sfp+0x9a>
    4e82:	e1ab                	move.d r10,[r1]
    4e84:	4c92                	moveq 12,r9
    4e86:	e29b                	move.d r9,[r2]
    4e88:	d3e0                	ba 4e5c <___sfp+0x8c>
    4e8a:	7086                	clear.d r0

00004e8c <___sfp_lock_acquire>:
    4e8c:	7fb6                	ret 
    4e8e:	0f05                	nop 

00004e90 <___sfp_lock_release>:
    4e90:	7fb6                	ret 
    4e92:	0f05                	nop 

00004e94 <___sinit_lock_acquire>:
    4e94:	7fb6                	ret 
    4e96:	0f05                	nop 

00004e98 <___sinit_lock_release>:
    4e98:	7fb6                	ret 
    4e9a:	0f05                	nop 

00004e9c <___fp_lock_all>:
    4e9c:	84e2                	subq 4,sp
    4e9e:	7eba                	move srp,[sp]
    4ea0:	6fae 08b0 0000      	move.d b008 <__impure_ptr>,r10
    4ea6:	6aaa                	move.d [r10],r10
    4ea8:	6fbe 8c4c 0000      	move.d 4c8c <___fp_lock>,r11
    4eae:	3fbd e051 0000      	jsr 51e0 <__fwalk>
    4eb4:	3e0d                	jump [sp+]

00004eb6 <___fp_unlock_all>:
    4eb6:	84e2                	subq 4,sp
    4eb8:	7eba                	move srp,[sp]
    4eba:	6fae 08b0 0000      	move.d b008 <__impure_ptr>,r10
    4ec0:	6aaa                	move.d [r10],r10
    4ec2:	6fbe 904c 0000      	move.d 4c90 <___fp_unlock>,r11
    4ec8:	3fbd e051 0000      	jsr 51e0 <__fwalk>
    4ece:	3e0d                	jump [sp+]

00004ed0 <__malloc_trim_r>:
    4ed0:	84e2                	subq 4,sp
    4ed2:	7eba                	move srp,[sp]
    4ed4:	90e2                	subq 16,sp
    4ed6:	fe3b                	movem r3,[sp]
    4ed8:	6a26                	move.d r10,r2
    4eda:	6b36                	move.d r11,r3
    4edc:	3fbd 905d 0000      	jsr 5d90 <___malloc_lock>
    4ee2:	6f9e b8b4 0000      	move.d b4b8 <___malloc_av_+0x8>,r9
    4ee8:	699a                	move.d [r9],r9
    4eea:	0491 611a           	move.d [r9+4],r1
    4eee:	3c13                	andq -4,r1
    4ef0:	6106                	move.d r1,r0
    4ef2:	1f0c ef0f           	addu.w 0xfef,r0
    4ef6:	a306                	sub.d r3,r0
    4ef8:	2f0f 00f0 ffff      	and.d 0xfffff000,r0
    4efe:	9f0c 0010           	subu.w 0x1000,r0
    4f02:	df0c ff0f           	cmpu.w 0xfff,r0
    4f06:	1cd0                	ble 4f24 <__malloc_trim_r+0x54>
    4f08:	7b86                	clear.d r11
    4f0a:	6f3e 9868 0000      	move.d 6898 <__sbrk_r>,r3
    4f10:	62a6                	move.d r2,r10
    4f12:	b3b9                	jsr r3
    4f14:	6f9e b8b4 0000      	move.d b4b8 <___malloc_av_+0x8>,r9
    4f1a:	699a                	move.d [r9],r9
    4f1c:	2196                	add.d r1,r9
    4f1e:	e9a6                	cmp.d r9,r10
    4f20:	1030                	beq 4f32 <__malloc_trim_r+0x62>
    4f22:	a0b5                	neg.d r0,r11
    4f24:	62a6                	move.d r2,r10
    4f26:	3fbd 945d 0000      	jsr 5d94 <___malloc_unlock>
    4f2c:	7a86                	clear.d r10
    4f2e:	be3f                	movem [sp+],r3
    4f30:	3e0d                	jump [sp+]
    4f32:	62a6                	move.d r2,r10
    4f34:	b3b9                	jsr r3
    4f36:	ffa2                	cmpq -1,r10
    4f38:	3030                	beq 4f6a <__malloc_trim_r+0x9a>
    4f3a:	a016                	sub.d r0,r1
    4f3c:	4113                	orq 1,r1
    4f3e:	6f9e b8b4 0000      	move.d b4b8 <___malloc_av_+0x8>,r9
    4f44:	699a                	move.d [r9],r9
    4f46:	0491 e11b           	move.d r1,[r9+4]
    4f4a:	6f9e c8b8 0000      	move.d b8c8 <___malloc_current_mallinfo>,r9
    4f50:	699a                	move.d [r9],r9
    4f52:	a096                	sub.d r0,r9
    4f54:	7f0d c8b8 0000 e99b 	move.d r9,[b8c8 <___malloc_current_mallinfo>]
    4f5c:	62a6                	move.d r2,r10
    4f5e:	3fbd 945d 0000      	jsr 5d94 <___malloc_unlock>
    4f64:	41a2                	moveq 1,r10
    4f66:	be3f                	movem [sp+],r3
    4f68:	3e0d                	jump [sp+]
    4f6a:	62a6                	move.d r2,r10
    4f6c:	7b86                	clear.d r11
    4f6e:	b3b9                	jsr r3
    4f70:	6f9e b8b4 0000      	move.d b4b8 <___malloc_av_+0x8>,r9
    4f76:	699a                	move.d [r9],r9
    4f78:	6ad6                	move.d r10,r13
    4f7a:	a9d6                	sub.d r9,r13
    4f7c:	cfd2                	cmpq 15,r13
    4f7e:	a5d0                	ble 4f24 <__malloc_trim_r+0x54>
    4f80:	41d3                	orq 1,r13
    4f82:	7f0d a8b4 0000 aaaa 	sub.d [b4a8 <___malloc_sbrk_base>],r10
    4f8a:	7f0d c8b8 0000 eaab 	move.d r10,[b8c8 <___malloc_current_mallinfo>]
    4f92:	0491 eddb           	move.d r13,[r9+4]
    4f96:	8fe0                	ba 4f26 <__malloc_trim_r+0x56>
    4f98:	62a6                	move.d r2,r10

00004f9a <__free_r>:
    4f9a:	84e2                	subq 4,sp
    4f9c:	7eba                	move srp,[sp]
    4f9e:	8ce2                	subq 12,sp
    4fa0:	fe2b                	movem r2,[sp]
    4fa2:	6a26                	move.d r10,r2
    4fa4:	6bb6                	test.d r11
    4fa6:	d230                	beq 507a <__free_r+0xe0>
    4fa8:	6b16                	move.d r11,r1
    4faa:	3fbd 905d 0000      	jsr 5d90 <___malloc_lock>
    4fb0:	6106                	move.d r1,r0
    4fb2:	8802                	subq 8,r0
    4fb4:	fc11 6bba           	move.d [r1-4],r11
    4fb8:	6b96                	move.d r11,r9
    4fba:	3e93                	andq -2,r9
    4fbc:	60d6                	move.d r0,r13
    4fbe:	29d6                	add.d r9,r13
    4fc0:	04d1 6cca           	move.d [r13+4],r12
    4fc4:	7f0d b8b4 0000 edda 	cmp.d [b4b8 <___malloc_av_+0x8>],r13
    4fcc:	ff3d 4801           	beq 5118 <__free_r+0x17e>
    4fd0:	3cc3                	andq -4,r12
    4fd2:	04d1 eccb           	move.d r12,[r13+4]
    4fd6:	80b3                	btstq 0,r11
    4fd8:	a4a0                	bge 507e <__free_r+0xe4>
    4fda:	0f05                	nop 
    4fdc:	7b86                	clear.d r11
    4fde:	6da6                	move.d r13,r10
    4fe0:	2ca6                	add.d r12,r10
    4fe2:	04a1 6aaa           	move.d [r10+4],r10
    4fe6:	80a3                	btstq 0,r10
    4fe8:	1ab0                	blt 5004 <__free_r+0x6a>
    4fea:	0f05                	nop 
    4fec:	2c96                	add.d r12,r9
    4fee:	08d1 6cca           	move.d [r13+8],r12
    4ff2:	6bb6                	test.d r11
    4ff4:	f030                	beq 50e6 <__free_r+0x14c>
    4ff6:	0f05                	nop 
    4ff8:	0cd1 6dda           	move.d [r13+12],r13
    4ffc:	0cc1 eddb           	move.d r13,[r12+12]
    5000:	08d1 eccb           	move.d r12,[r13+8]
    5004:	69d6                	move.d r9,r13
    5006:	41d3                	orq 1,r13
    5008:	0401 eddb           	move.d r13,[r0+4]
    500c:	4095 e99b           	move.d r9,[r0+r9.b]
    5010:	6bb6                	test.d r11
    5012:	6020                	bne 5074 <__free_r+0xda>
    5014:	62a6                	move.d r2,r10
    5016:	df9c ff01           	cmpu.w 0x1ff,r9
    501a:	8880                	bls 50a4 <__free_r+0x10a>
    501c:	41d2                	moveq 1,r13
    501e:	69d6                	move.d r9,r13
    5020:	e9d3                	lsrq 9,r13
    5022:	c4d2                	cmpq 4,r13
    5024:	ff9d 3c01           	bhi 5164 <__free_r+0x1ca>
    5028:	d4d2                	cmpq 20,r13
    502a:	69c6                	move.d r9,r12
    502c:	e6c3                	lsrq 6,r12
    502e:	38c2                	addq 56,r12
    5030:	6cb6                	move.d r12,r11
    5032:	2cb6                	add.d r12,r11
    5034:	c2b3                	lslq 2,r11
    5036:	2fbe b0b4 0000      	add.d b4b0 <___malloc_av_>,r11
    503c:	08b1 6dda           	move.d [r11+8],r13
    5040:	ebd6                	cmp.d r11,r13
    5042:	ff3d 2e01           	beq 5174 <__free_r+0x1da>
    5046:	a2c3                	asrq 2,r12
    5048:	04d1 6cca           	move.d [r13+4],r12
    504c:	3cc3                	andq -4,r12
    504e:	ec96                	cmp.d r12,r9
    5050:	0c00                	bcc 505e <__free_r+0xc4>
    5052:	0f05                	nop 
    5054:	08d1 6dda           	move.d [r13+8],r13
    5058:	edb6                	cmp.d r13,r11
    505a:	ed20                	bne 5048 <__free_r+0xae>
    505c:	0f05                	nop 
    505e:	0cd1 699a           	move.d [r13+12],r9
    5062:	0c01 e99b           	move.d r9,[r0+12]
    5066:	0801 eddb           	move.d r13,[r0+8]
    506a:	0891 e00b           	move.d r0,[r9+8]
    506e:	0cd1 e00b           	move.d r0,[r13+12]
    5072:	62a6                	move.d r2,r10
    5074:	3fbd 945d 0000      	jsr 5d94 <___malloc_unlock>
    507a:	be2f                	movem [sp+],r2
    507c:	3e0d                	jump [sp+]
    507e:	f811 6bba           	move.d [r1-8],r11
    5082:	ab06                	sub.d r11,r0
    5084:	2b96                	add.d r11,r9
    5086:	0801 6aaa           	move.d [r0+8],r10
    508a:	efae b8b4 0000      	cmp.d b4b8 <___malloc_av_+0x8>,r10
    5090:	4d30                	beq 4fde <__free_r+0x44>
    5092:	41b2                	moveq 1,r11
    5094:	0c01 6bba           	move.d [r0+12],r11
    5098:	0ca1 ebbb           	move.d r11,[r10+12]
    509c:	08b1 eaab           	move.d r10,[r11+8]
    50a0:	3de0                	ba 4fde <__free_r+0x44>
    50a2:	7b86                	clear.d r11
    50a4:	e393                	lsrq 3,r9
    50a6:	69c6                	move.d r9,r12
    50a8:	a2c3                	asrq 2,r12
    50aa:	ecd4                	lsl.d r12,r13
    50ac:	7f0d b4b4 0000 6ddb 	or.d [b4b4 <___malloc_av_+0x4>],r13
    50b4:	7f0d b4b4 0000 eddb 	move.d r13,[b4b4 <___malloc_av_+0x4>]
    50bc:	2996                	add.d r9,r9
    50be:	c293                	lslq 2,r9
    50c0:	2f9e b0b4 0000      	add.d b4b0 <___malloc_av_>,r9
    50c6:	0891 6dda           	move.d [r9+8],r13
    50ca:	0c01 e99b           	move.d r9,[r0+12]
    50ce:	0801 eddb           	move.d r13,[r0+8]
    50d2:	0891 e00b           	move.d r0,[r9+8]
    50d6:	0cd1 e00b           	move.d r0,[r13+12]
    50da:	62a6                	move.d r2,r10
    50dc:	3fbd 945d 0000      	jsr 5d94 <___malloc_unlock>
    50e2:	99e0                	ba 507c <__free_r+0xe2>
    50e4:	be2f                	movem [sp+],r2
    50e6:	efce b8b4 0000      	cmp.d b4b8 <___malloc_av_+0x8>,r12
    50ec:	0b20                	bne 4ff8 <__free_r+0x5e>
    50ee:	62a6                	move.d r2,r10
    50f0:	7f0d c4b4 0000 e00b 	move.d r0,[b4c4 <___malloc_av_+0x14>]
    50f8:	7f0d c0b4 0000 e00b 	move.d r0,[b4c0 <___malloc_av_+0x10>]
    5100:	0c01 eccb           	move.d r12,[r0+12]
    5104:	0801 eccb           	move.d r12,[r0+8]
    5108:	69d6                	move.d r9,r13
    510a:	41d3                	orq 1,r13
    510c:	0401 eddb           	move.d r13,[r0+4]
    5110:	4095 e99b           	move.d r9,[r0+r9.b]
    5114:	5fe0                	ba 5074 <__free_r+0xda>
    5116:	0f05                	nop 
    5118:	80b3                	btstq 0,r11
    511a:	1ab0                	blt 5136 <__free_r+0x19c>
    511c:	2c96                	add.d r12,r9
    511e:	f811 6dda           	move.d [r1-8],r13
    5122:	ad06                	sub.d r13,r0
    5124:	2d96                	add.d r13,r9
    5126:	0c01 6cca           	move.d [r0+12],r12
    512a:	0801 6dda           	move.d [r0+8],r13
    512e:	0cd1 eccb           	move.d r12,[r13+12]
    5132:	08c1 eddb           	move.d r13,[r12+8]
    5136:	69d6                	move.d r9,r13
    5138:	41d3                	orq 1,r13
    513a:	0401 eddb           	move.d r13,[r0+4]
    513e:	7f0d b8b4 0000 e00b 	move.d r0,[b4b8 <___malloc_av_+0x8>]
    5146:	7f0d acb4 0000 e99a 	cmp.d [b4ac <___malloc_trim_threshold>],r9
    514e:	2310                	bcs 5072 <__free_r+0xd8>
    5150:	62a6                	move.d r2,r10
    5152:	6fbe f8b8 0000      	move.d b8f8 <___malloc_top_pad>,r11
    5158:	6bba                	move.d [r11],r11
    515a:	3fbd d04e 0000      	jsr 4ed0 <__malloc_trim_r>
    5160:	13e0                	ba 5074 <__free_r+0xda>
    5162:	62a6                	move.d r2,r10
    5164:	2890                	bhi 518e <__free_r+0x1f4>
    5166:	6dc6                	move.d r13,r12
    5168:	0fcc 5b00           	addu.b 0x5b,r12
    516c:	6cb6                	move.d r12,r11
    516e:	ffed c2fe           	ba 5034 <__free_r+0x9a>
    5172:	2cb6                	add.d r12,r11
    5174:	4192                	moveq 1,r9
    5176:	ec94                	lsl.d r12,r9
    5178:	7f0d b4b4 0000 699b 	or.d [b4b4 <___malloc_av_+0x4>],r9
    5180:	7f0d b4b4 0000 e99b 	move.d r9,[b4b4 <___malloc_av_+0x4>]
    5188:	ffed d6fe           	ba 5062 <__free_r+0xc8>
    518c:	6d96                	move.d r13,r9
    518e:	cfdc 5400           	cmpu.b 0x54,r13
    5192:	1090                	bhi 51a4 <__free_r+0x20a>
    5194:	69c6                	move.d r9,r12
    5196:	ecc3                	lsrq 12,r12
    5198:	0fcc 6e00           	addu.b 0x6e,r12
    519c:	6cb6                	move.d r12,r11
    519e:	ffed 92fe           	ba 5034 <__free_r+0x9a>
    51a2:	2cb6                	add.d r12,r11
    51a4:	dfdc 5401           	cmpu.w 0x154,r13
    51a8:	0e90                	bhi 51b8 <__free_r+0x21e>
    51aa:	efc3                	lsrq 15,r12
    51ac:	0fcc 7700           	addu.b 0x77,r12
    51b0:	6cb6                	move.d r12,r11
    51b2:	ffed 7efe           	ba 5034 <__free_r+0x9a>
    51b6:	2cb6                	add.d r12,r11
    51b8:	dfdc 5405           	cmpu.w 0x554,r13
    51bc:	1290                	bhi 51d0 <__free_r+0x236>
    51be:	0f05                	nop 
    51c0:	69c6                	move.d r9,r12
    51c2:	f2c3                	lsrq 18,r12
    51c4:	0fcc 7c00           	addu.b 0x7c,r12
    51c8:	6cb6                	move.d r12,r11
    51ca:	ffed 66fe           	ba 5034 <__free_r+0x9a>
    51ce:	2cb6                	add.d r12,r11
    51d0:	4fbc fc00           	movu.b 0xfc,r11
    51d4:	4fcc 7e00           	movu.b 0x7e,r12
    51d8:	ffed 5afe           	ba 5036 <__free_r+0x9c>
    51dc:	c2b3                	lslq 2,r11
	...

000051e0 <__fwalk>:
    51e0:	84e2                	subq 4,sp
    51e2:	7eba                	move srp,[sp]
    51e4:	94e2                	subq 20,sp
    51e6:	fe4b                	movem r4,[sp]
    51e8:	6b46                	move.d r11,r4
    51ea:	6a26                	move.d r10,r2
    51ec:	1f2c dd02           	addu.w 0x2dd,r2
    51f0:	4230                	beq 5234 <__fwalk+0x54>
    51f2:	7386                	clear.d r3
    51f4:	0821 600a           	move.d [r2+8],r0
    51f8:	0421 611a           	move.d [r2+4],r1
    51fc:	8112                	subq 1,r1
    51fe:	2e70                	bmi 522e <__fwalk+0x4e>
    5200:	0f05                	nop 
    5202:	0c01 599a           	move.w [r0+12],r9
    5206:	1a30                	beq 5222 <__fwalk+0x42>
    5208:	0f05                	nop 
    520a:	df9e 0100           	cmp.w 0x1,r9
    520e:	1280                	bls 5222 <__fwalk+0x42>
    5210:	0f05                	nop 
    5212:	0e01 599a           	move.w [r0+14],r9
    5216:	df9e ffff           	cmp.w 0xffff,r9
    521a:	0630                	beq 5222 <__fwalk+0x42>
    521c:	60a6                	move.d r0,r10
    521e:	b4b9                	jsr r4
    5220:	6a37                	or.d r10,r3
    5222:	0f0c 6800           	addu.b 0x68,r0
    5226:	8112                	subq 1,r1
    5228:	ff12                	cmpq -1,r1
    522a:	d720                	bne 5202 <__fwalk+0x22>
    522c:	0f05                	nop 
    522e:	622a                	move.d [r2],r2
    5230:	c320                	bne 51f4 <__fwalk+0x14>
    5232:	0f05                	nop 
    5234:	63a6                	move.d r3,r10
    5236:	be4f                	movem [sp+],r4
    5238:	3e0d                	jump [sp+]

0000523a <__fwalk_reent>:
    523a:	84e2                	subq 4,sp
    523c:	7eba                	move srp,[sp]
    523e:	98e2                	subq 24,sp
    5240:	fe5b                	movem r5,[sp]
    5242:	6a46                	move.d r10,r4
    5244:	6b56                	move.d r11,r5
    5246:	6a26                	move.d r10,r2
    5248:	1f2c dd02           	addu.w 0x2dd,r2
    524c:	4430                	beq 5292 <__fwalk_reent+0x58>
    524e:	7386                	clear.d r3
    5250:	0821 600a           	move.d [r2+8],r0
    5254:	0421 611a           	move.d [r2+4],r1
    5258:	8112                	subq 1,r1
    525a:	3070                	bmi 528c <__fwalk_reent+0x52>
    525c:	0f05                	nop 
    525e:	0c01 599a           	move.w [r0+12],r9
