	.file	"i386-elf.c"
	.text
.Ltext0:
	.globl	_exit
	.type	_exit, @function
_exit:
.LFB0:
	.file 1 "i386-elf.c"
	.loc 1 39 0
	.cfi_startproc
.LVL0:
	subl	$28, %esp
.LCFI0:
	.cfi_def_cfa_offset 32
	.loc 1 40 0
	movl	32(%esp), %eax
	movl	%eax, (%esp)
	call	__exit
.LVL1:
	.cfi_endproc
.LFE0:
	.size	_exit, .-_exit
	.globl	read
	.type	read, @function
read:
.LFB1:
	.loc 1 44 0
	.cfi_startproc
.LVL2:
	subl	$28, %esp
.LCFI1:
	.cfi_def_cfa_offset 32
	.loc 1 45 0
	movl	40(%esp), %eax
	movl	%eax, 8(%esp)
	movl	36(%esp), %eax
	movl	%eax, 4(%esp)
	movl	32(%esp), %eax
	movl	%eax, (%esp)
	call	__read
.LVL3:
	.loc 1 46 0
	addl	$28, %esp
.LCFI2:
	.cfi_def_cfa_offset 4
	ret
	.cfi_endproc
.LFE1:
	.size	read, .-read
	.globl	write
	.type	write, @function
write:
.LFB2:
	.loc 1 48 0
	.cfi_startproc
.LVL4:
	subl	$28, %esp
.LCFI3:
	.cfi_def_cfa_offset 32
	.loc 1 49 0
	movl	40(%esp), %eax
	movl	%eax, 8(%esp)
	movl	36(%esp), %eax
	movl	%eax, 4(%esp)
	movl	32(%esp), %eax
	movl	%eax, (%esp)
	call	__write
.LVL5:
	.loc 1 50 0
	addl	$28, %esp
.LCFI4:
	.cfi_def_cfa_offset 4
	ret
	.cfi_endproc
.LFE2:
	.size	write, .-write
	.globl	open
	.type	open, @function
open:
.LFB3:
	.loc 1 52 0
	.cfi_startproc
.LVL6:
	subl	$28, %esp
.LCFI5:
	.cfi_def_cfa_offset 32
	.loc 1 53 0
	movl	40(%esp), %eax
	movl	%eax, 8(%esp)
	movl	36(%esp), %eax
	movl	%eax, 4(%esp)
	movl	32(%esp), %eax
	movl	%eax, (%esp)
	call	__open
.LVL7:
	.loc 1 54 0
	addl	$28, %esp
.LCFI6:
	.cfi_def_cfa_offset 4
	ret
	.cfi_endproc
.LFE3:
	.size	open, .-open
	.globl	close
	.type	close, @function
close:
.LFB4:
	.loc 1 56 0
	.cfi_startproc
.LVL8:
	subl	$28, %esp
.LCFI7:
	.cfi_def_cfa_offset 32
	.loc 1 57 0
	movl	32(%esp), %eax
	movl	%eax, (%esp)
	call	__close
.LVL9:
	.loc 1 58 0
	addl	$28, %esp
.LCFI8:
	.cfi_def_cfa_offset 4
	ret
	.cfi_endproc
.LFE4:
	.size	close, .-close
	.globl	fstat
	.type	fstat, @function
fstat:
.LFB5:
	.loc 1 63 0
	.cfi_startproc
.LVL10:
	subl	$28, %esp
.LCFI9:
	.cfi_def_cfa_offset 32
	.loc 1 64 0
	movl	$60, 8(%esp)
	movl	$0, 4(%esp)
	movl	36(%esp), %eax
	movl	%eax, (%esp)
	call	memset
.LVL11:
	.loc 1 66 0
	movl	$0, %eax
	addl	$28, %esp
.LCFI10:
	.cfi_def_cfa_offset 4
	ret
	.cfi_endproc
.LFE5:
	.size	fstat, .-fstat
	.globl	lseek
	.type	lseek, @function
lseek:
.LFB6:
	.loc 1 69 0
	.cfi_startproc
.LVL12:
	.loc 1 71 0
	movl	8(%esp), %eax
	ret
	.cfi_endproc
.LFE6:
	.size	lseek, .-lseek
	.globl	sbrk
	.type	sbrk, @function
sbrk:
.LFB7:
	.loc 1 77 0
	.cfi_startproc
.LVL13:
	.loc 1 79 0
	movl	sbrk_top, %eax
.LVL14:
	.loc 1 80 0
	movl	%eax, %edx
	addl	4(%esp), %edx
	movl	%edx, sbrk_top
	.loc 1 82 0
	ret
	.cfi_endproc
.LFE7:
	.size	sbrk, .-sbrk
	.globl	isatty
	.type	isatty, @function
isatty:
.LFB8:
	.loc 1 85 0
	.cfi_startproc
.LVL15:
	.loc 1 87 0
	movl	$1, %eax
	ret
	.cfi_endproc
.LFE8:
	.size	isatty, .-isatty
	.section	.rodata.str1.1,"aMS",@progbits,1
.LC0:
	.string	"i386-elf"
	.section	.rodata.str1.4,"aMS",@progbits,1
	.align 4
.LC1:
	.string	"Hello World! %08lx This architecture is %s\n"
	.text
	.globl	main
	.type	main, @function
main:
.LFB11:
	.loc 1 173 0
	.cfi_startproc
	pushl	%ebp
.LCFI11:
	.cfi_def_cfa_offset 8
	.cfi_offset 5, -8
	movl	%esp, %ebp
.LCFI12:
	.cfi_def_cfa_register 5
	andl	$-16, %esp
	subl	$16, %esp
	.loc 1 174 0
	movl	$.LC0, 8(%esp)
	movl	data_value, %eax
	movl	%eax, 4(%esp)
	movl	$.LC1, (%esp)
	call	printf
.LVL16:
	.loc 1 175 0
	movl	$0, (%esp)
	call	exit
.LVL17:
	.cfi_endproc
.LFE11:
	.size	main, .-main
	.globl	_startmain
	.type	_startmain, @function
_startmain:
.LFB10:
	.loc 1 166 0
	.cfi_startproc
	subl	$28, %esp
.LCFI13:
	.cfi_def_cfa_offset 32
.LBB4:
.LBB5:
	.loc 1 159 0
	movl	$_ebss, %eax
	subl	$_bss_start, %eax
	movl	%eax, 8(%esp)
	movl	$0, 4(%esp)
	movl	$_bss_start, (%esp)
	call	memset
.LVL18:
.LBE5:
.LBE4:
	.loc 1 168 0
	call	main
.LVL19:
	.cfi_endproc
.LFE10:
	.size	_startmain, .-_startmain
	.globl	sbrk_top
	.data
	.align 4
	.type	sbrk_top, @object
	.size	sbrk_top, 4
sbrk_top:
	.long	_heap
	.comm	bss_value,4,4
	.globl	data_value
	.align 4
	.type	data_value, @object
	.size	data_value, 4
data_value:
	.long	-1414661426
	.text
.Letext0:
	.file 2 "/usr/local/cross2-gcc4/lib/gcc/i386-elf/4.7.2/include/stddef.h"
	.file 3 "/usr/local/cross2-gcc4/lib/gcc/i386-elf/4.7.2/../../../../i386-elf/include/sys/_types.h"
	.file 4 "/usr/local/cross2-gcc4/lib/gcc/i386-elf/4.7.2/../../../../i386-elf/include/sys/types.h"
	.file 5 "/usr/local/cross2-gcc4/lib/gcc/i386-elf/4.7.2/../../../../i386-elf/include/sys/stat.h"
	.file 6 "syscall.h"
	.file 7 "/usr/local/cross2-gcc4/lib/gcc/i386-elf/4.7.2/../../../../i386-elf/include/string.h"
	.file 8 "/usr/local/cross2-gcc4/lib/gcc/i386-elf/4.7.2/../../../../i386-elf/include/stdio.h"
	.file 9 "/usr/local/cross2-gcc4/lib/gcc/i386-elf/4.7.2/../../../../i386-elf/include/stdlib.h"