
i386-elf.x:     file format elf32-i386


Disassembly of section .text:

08048400 <_start>:
 8048400:	bc c0 6d 05 08       	mov    $0x8056dc0,%esp
 8048405:	e8 5c 01 00 00       	call   8048566 <_startmain>
 804840a:	50                   	push   %eax
 804840b:	e8 00 00 00 00       	call   8048410 <__exit>

08048410 <__exit>:
 8048410:	b8 01 00 00 00       	mov    $0x1,%eax
 8048415:	eb 1c                	jmp    8048433 <_syscall>

08048417 <__read>:
 8048417:	b8 03 00 00 00       	mov    $0x3,%eax
 804841c:	eb 15                	jmp    8048433 <_syscall>

0804841e <__write>:
 804841e:	b8 04 00 00 00       	mov    $0x4,%eax
 8048423:	eb 0e                	jmp    8048433 <_syscall>

08048425 <__open>:
 8048425:	b8 05 00 00 00       	mov    $0x5,%eax
 804842a:	eb 07                	jmp    8048433 <_syscall>

0804842c <__close>:
 804842c:	b8 06 00 00 00       	mov    $0x6,%eax
 8048431:	eb 00                	jmp    8048433 <_syscall>

08048433 <_syscall>:
 8048433:	52                   	push   %edx
 8048434:	51                   	push   %ecx
 8048435:	53                   	push   %ebx
 8048436:	50                   	push   %eax
 8048437:	8b 54 24 1c          	mov    0x1c(%esp),%edx
 804843b:	8b 4c 24 18          	mov    0x18(%esp),%ecx
 804843f:	8b 5c 24 14          	mov    0x14(%esp),%ebx
 8048443:	8b 44 24 10          	mov    0x10(%esp),%eax
 8048447:	52                   	push   %edx
 8048448:	51                   	push   %ecx
 8048449:	53                   	push   %ebx
 804844a:	50                   	push   %eax
 804844b:	8b 44 24 10          	mov    0x10(%esp),%eax
 804844f:	f8                   	clc    
 8048450:	cd 80                	int    $0x80
 8048452:	73 07                	jae    804845b <ret>
 8048454:	83 f8 00             	cmp    $0x0,%eax
 8048457:	7e 02                	jle    804845b <ret>
 8048459:	f7 d8                	neg    %eax

0804845b <ret>:
 804845b:	5b                   	pop    %ebx
 804845c:	5b                   	pop    %ebx
 804845d:	5b                   	pop    %ebx
 804845e:	5b                   	pop    %ebx
 804845f:	5b                   	pop    %ebx
 8048460:	5b                   	pop    %ebx
 8048461:	59                   	pop    %ecx
 8048462:	5a                   	pop    %edx
 8048463:	c3                   	ret    

08048464 <_exit>:
 8048464:	83 ec 1c             	sub    $0x1c,%esp
 8048467:	8b 44 24 20          	mov    0x20(%esp),%eax
 804846b:	89 04 24             	mov    %eax,(%esp)
 804846e:	e8 9d ff ff ff       	call   8048410 <__exit>

08048473 <read>:
 8048473:	83 ec 1c             	sub    $0x1c,%esp
 8048476:	8b 44 24 28          	mov    0x28(%esp),%eax
 804847a:	89 44 24 08          	mov    %eax,0x8(%esp)
 804847e:	8b 44 24 24          	mov    0x24(%esp),%eax
 8048482:	89 44 24 04          	mov    %eax,0x4(%esp)
 8048486:	8b 44 24 20          	mov    0x20(%esp),%eax
 804848a:	89 04 24             	mov    %eax,(%esp)
 804848d:	e8 85 ff ff ff       	call   8048417 <__read>
 8048492:	83 c4 1c             	add    $0x1c,%esp
 8048495:	c3                   	ret    

08048496 <write>:
 8048496:	83 ec 1c             	sub    $0x1c,%esp
 8048499:	8b 44 24 28          	mov    0x28(%esp),%eax
 804849d:	89 44 24 08          	mov    %eax,0x8(%esp)
 80484a1:	8b 44 24 24          	mov    0x24(%esp),%eax
 80484a5:	89 44 24 04          	mov    %eax,0x4(%esp)
 80484a9:	8b 44 24 20          	mov    0x20(%esp),%eax
 80484ad:	89 04 24             	mov    %eax,(%esp)
 80484b0:	e8 69 ff ff ff       	call   804841e <__write>
 80484b5:	83 c4 1c             	add    $0x1c,%esp
 80484b8:	c3                   	ret    

080484b9 <open>:
 80484b9:	83 ec 1c             	sub    $0x1c,%esp
 80484bc:	8b 44 24 28          	mov    0x28(%esp),%eax
 80484c0:	89 44 24 08          	mov    %eax,0x8(%esp)
 80484c4:	8b 44 24 24          	mov    0x24(%esp),%eax
 80484c8:	89 44 24 04          	mov    %eax,0x4(%esp)
 80484cc:	8b 44 24 20          	mov    0x20(%esp),%eax
 80484d0:	89 04 24             	mov    %eax,(%esp)
 80484d3:	e8 4d ff ff ff       	call   8048425 <__open>
 80484d8:	83 c4 1c             	add    $0x1c,%esp
 80484db:	c3                   	ret    

080484dc <close>:
 80484dc:	83 ec 1c             	sub    $0x1c,%esp
 80484df:	8b 44 24 20          	mov    0x20(%esp),%eax
 80484e3:	89 04 24             	mov    %eax,(%esp)
 80484e6:	e8 41 ff ff ff       	call   804842c <__close>
 80484eb:	83 c4 1c             	add    $0x1c,%esp
 80484ee:	c3                   	ret    

080484ef <fstat>:
 80484ef:	83 ec 1c             	sub    $0x1c,%esp
 80484f2:	c7 44 24 08 3c 00 00 	movl   $0x3c,0x8(%esp)
 80484f9:	00 
 80484fa:	c7 44 24 04 00 00 00 	movl   $0x0,0x4(%esp)
 8048501:	00 
 8048502:	8b 44 24 24          	mov    0x24(%esp),%eax
 8048506:	89 04 24             	mov    %eax,(%esp)
 8048509:	e8 b6 00 00 00       	call   80485c4 <memset>
 804850e:	b8 00 00 00 00       	mov    $0x0,%eax
 8048513:	83 c4 1c             	add    $0x1c,%esp
 8048516:	c3                   	ret    

08048517 <lseek>:
 8048517:	8b 44 24 08          	mov    0x8(%esp),%eax
 804851b:	c3                   	ret    

0804851c <sbrk>:
 804851c:	a1 00 20 05 08       	mov    0x8052000,%eax
 8048521:	89 c2                	mov    %eax,%edx
 8048523:	03 54 24 04          	add    0x4(%esp),%edx
 8048527:	89 15 00 20 05 08    	mov    %edx,0x8052000
 804852d:	c3                   	ret    

0804852e <isatty>:
 804852e:	b8 01 00 00 00       	mov    $0x1,%eax
 8048533:	c3                   	ret    

08048534 <main>:
 8048534:	55                   	push   %ebp
 8048535:	89 e5                	mov    %esp,%ebp
 8048537:	83 e4 f0             	and    $0xfffffff0,%esp
 804853a:	83 ec 10             	sub    $0x10,%esp
 804853d:	c7 44 24 08 80 04 05 	movl   $0x8050480,0x8(%esp)
 8048544:	08 
 8048545:	a1 04 20 05 08       	mov    0x8052004,%eax
 804854a:	89 44 24 04          	mov    %eax,0x4(%esp)
 804854e:	c7 04 24 8c 04 05 08 	movl   $0x805048c,(%esp)
 8048555:	e8 1e 01 00 00       	call   8048678 <printf>
 804855a:	c7 04 24 00 00 00 00 	movl   $0x0,(%esp)
 8048561:	e8 2a 00 00 00       	call   8048590 <exit>

08048566 <_startmain>:
 8048566:	83 ec 1c             	sub    $0x1c,%esp
 8048569:	b8 bc 69 05 08       	mov    $0x80569bc,%eax
 804856e:	2d 60 29 05 08       	sub    $0x8052960,%eax
 8048573:	89 44 24 08          	mov    %eax,0x8(%esp)
 8048577:	c7 44 24 04 00 00 00 	movl   $0x0,0x4(%esp)
 804857e:	00 
 804857f:	c7 04 24 60 29 05 08 	movl   $0x8052960,(%esp)
 8048586:	e8 39 00 00 00       	call   80485c4 <memset>
 804858b:	e8 a4 ff ff ff       	call   8048534 <main>

08048590 <exit>:
 8048590:	53                   	push   %ebx
 8048591:	83 ec 18             	sub    $0x18,%esp
 8048594:	8b 5c 24 20          	mov    0x20(%esp),%ebx
 8048598:	c7 44 24 04 00 00 00 	movl   $0x0,0x4(%esp)
 804859f:	00 
 80485a0:	89 1c 24             	mov    %ebx,(%esp)
 80485a3:	e8 30 23 00 00       	call   804a8d8 <__call_exitprocs>
 80485a8:	8b 15 b8 04 05 08    	mov    0x80504b8,%edx
 80485ae:	8b 42 3c             	mov    0x3c(%edx),%eax
 80485b1:	85 c0                	test   %eax,%eax
 80485b3:	74 05                	je     80485ba <exit+0x2a>
 80485b5:	89 14 24             	mov    %edx,(%esp)
 80485b8:	ff d0                	call   *%eax
 80485ba:	89 1c 24             	mov    %ebx,(%esp)
 80485bd:	e8 a2 fe ff ff       	call   8048464 <_exit>
 80485c2:	66 90                	xchg   %ax,%ax

080485c4 <memset>:
 80485c4:	55                   	push   %ebp
 80485c5:	89 e5                	mov    %esp,%ebp
 80485c7:	57                   	push   %edi
 80485c8:	8b 7d 08             	mov    0x8(%ebp),%edi
 80485cb:	0f b6 45 0c          	movzbl 0xc(%ebp),%eax
 80485cf:	8b 4d 10             	mov    0x10(%ebp),%ecx
 80485d2:	fc                   	cld    
 80485d3:	83 f9 10             	cmp    $0x10,%ecx
 80485d6:	76 69                	jbe    8048641 <memset+0x7d>
 80485d8:	f7 c7 07 00 00 00    	test   $0x7,%edi
 80485de:	74 4c                	je     804862c <memset+0x68>
 80485e0:	88 07                	mov    %al,(%edi)
 80485e2:	47                   	inc    %edi
 80485e3:	49                   	dec    %ecx
 80485e4:	f7 c7 07 00 00 00    	test   $0x7,%edi
 80485ea:	74 40                	je     804862c <memset+0x68>
 80485ec:	88 07                	mov    %al,(%edi)
 80485ee:	47                   	inc    %edi
 80485ef:	49                   	dec    %ecx
 80485f0:	f7 c7 07 00 00 00    	test   $0x7,%edi
 80485f6:	74 34                	je     804862c <memset+0x68>
 80485f8:	88 07                	mov    %al,(%edi)
 80485fa:	47                   	inc    %edi
 80485fb:	49                   	dec    %ecx
 80485fc:	f7 c7 07 00 00 00    	test   $0x7,%edi
 8048602:	74 28                	je     804862c <memset+0x68>
 8048604:	88 07                	mov    %al,(%edi)
 8048606:	47                   	inc    %edi
 8048607:	49                   	dec    %ecx
 8048608:	f7 c7 07 00 00 00    	test   $0x7,%edi
 804860e:	74 1c                	je     804862c <memset+0x68>
 8048610:	88 07                	mov    %al,(%edi)
 8048612:	47                   	inc    %edi
 8048613:	49                   	dec    %ecx
 8048614:	f7 c7 07 00 00 00    	test   $0x7,%edi
 804861a:	74 10                	je     804862c <memset+0x68>
 804861c:	88 07                	mov    %al,(%edi)
 804861e:	47                   	inc    %edi
 804861f:	49                   	dec    %ecx
 8048620:	f7 c7 07 00 00 00    	test   $0x7,%edi
 8048626:	74 04                	je     804862c <memset+0x68>
 8048628:	88 07                	mov    %al,(%edi)
 804862a:	47                   	inc    %edi
 804862b:	49                   	dec    %ecx
 804862c:	88 c4                	mov    %al,%ah
 804862e:	89 c2                	mov    %eax,%edx
 8048630:	c1 e2 10             	shl    $0x10,%edx
 8048633:	09 d0                	or     %edx,%eax
 8048635:	89 ca                	mov    %ecx,%edx
 8048637:	c1 e9 02             	shr    $0x2,%ecx
 804863a:	83 e2 03             	and    $0x3,%edx
 804863d:	f3 ab                	rep stos %eax,%es:(%edi)
 804863f:	89 d1                	mov    %edx,%ecx
 8048641:	f3 aa                	rep stos %al,%es:(%edi)
 8048643:	8b 45 08             	mov    0x8(%ebp),%eax
 8048646:	8d 65 fc             	lea    -0x4(%ebp),%esp
 8048649:	5f                   	pop    %edi
 804864a:	c9                   	leave  
 804864b:	c3                   	ret    

0804864c <_printf_r>:
 804864c:	83 ec 1c             	sub    $0x1c,%esp
 804864f:	8b 44 24 20          	mov    0x20(%esp),%eax
 8048653:	8d 54 24 28          	lea    0x28(%esp),%edx
 8048657:	89 54 24 0c          	mov    %edx,0xc(%esp)
 804865b:	8b 54 24 24          	mov    0x24(%esp),%edx
 804865f:	89 54 24 08          	mov    %edx,0x8(%esp)
 8048663:	8b 50 08             	mov    0x8(%eax),%edx
 8048666:	89 54 24 04          	mov    %edx,0x4(%esp)
 804866a:	89 04 24             	mov    %eax,(%esp)
 804866d:	e8 32 00 00 00       	call   80486a4 <_vfprintf_r>
 8048672:	83 c4 1c             	add    $0x1c,%esp
 8048675:	c3                   	ret    
 8048676:	66 90                	xchg   %ax,%ax

08048678 <printf>:
 8048678:	83 ec 1c             	sub    $0x1c,%esp
 804867b:	a1 20 20 05 08       	mov    0x8052020,%eax
 8048680:	8d 54 24 24          	lea    0x24(%esp),%edx
 8048684:	89 54 24 0c          	mov    %edx,0xc(%esp)
 8048688:	8b 54 24 20          	mov    0x20(%esp),%edx
 804868c:	89 54 24 08          	mov    %edx,0x8(%esp)
 8048690:	8b 50 08             	mov    0x8(%eax),%edx
 8048693:	89 54 24 04          	mov    %edx,0x4(%esp)
 8048697:	89 04 24             	mov    %eax,(%esp)
 804869a:	e8 05 00 00 00       	call   80486a4 <_vfprintf_r>
 804869f:	83 c4 1c             	add    $0x1c,%esp
 80486a2:	c3                   	ret    
 80486a3:	90                   	nop

080486a4 <_vfprintf_r>:
 80486a4:	55                   	push   %ebp
 80486a5:	57                   	push   %edi
 80486a6:	56                   	push   %esi
 80486a7:	53                   	push   %ebx
 80486a8:	81 ec 6c 05 00 00    	sub    $0x56c,%esp
 80486ae:	8b bc 24 84 05 00 00 	mov    0x584(%esp),%edi
 80486b5:	8b 8c 24 80 05 00 00 	mov    0x580(%esp),%ecx
 80486bc:	89 0c 24             	mov    %ecx,(%esp)
 80486bf:	e8 c4 41 00 00       	call   804c888 <_localeconv_r>
 80486c4:	8b 00                	mov    (%eax),%eax
 80486c6:	89 44 24 78          	mov    %eax,0x78(%esp)
 80486ca:	89 04 24             	mov    %eax,(%esp)
 80486cd:	e8 fe 59 00 00       	call   804e0d0 <strlen>
 80486d2:	89 84 24 84 00 00 00 	mov    %eax,0x84(%esp)
 80486d9:	8b ac 24 80 05 00 00 	mov    0x580(%esp),%ebp
 80486e0:	85 ed                	test   %ebp,%ebp
 80486e2:	74 12                	je     80486f6 <_vfprintf_r+0x52>
 80486e4:	8b 9c 24 80 05 00 00 	mov    0x580(%esp),%ebx
 80486eb:	8b 73 38             	mov    0x38(%ebx),%esi
 80486ee:	85 f6                	test   %esi,%esi
 80486f0:	0f 84 be 06 00 00    	je     8048db4 <_vfprintf_r+0x710>
 80486f6:	8b 47 0c             	mov    0xc(%edi),%eax
 80486f9:	f6 c4 20             	test   $0x20,%ah
 80486fc:	75 0e                	jne    804870c <_vfprintf_r+0x68>
 80486fe:	80 cc 20             	or     $0x20,%ah
 8048701:	66 89 47 0c          	mov    %ax,0xc(%edi)
 8048705:	81 67 64 ff df ff ff 	andl   $0xffffdfff,0x64(%edi)
 804870c:	a8 08                	test   $0x8,%al
 804870e:	0f 84 20 05 00 00    	je     8048c34 <_vfprintf_r+0x590>
 8048714:	8b 5f 10             	mov    0x10(%edi),%ebx
 8048717:	85 db                	test   %ebx,%ebx
 8048719:	0f 84 15 05 00 00    	je     8048c34 <_vfprintf_r+0x590>
 804871f:	89 c2                	mov    %eax,%edx
 8048721:	83 e2 1a             	and    $0x1a,%edx
 8048724:	66 83 fa 0a          	cmp    $0xa,%dx
 8048728:	0f 84 33 05 00 00    	je     8048c61 <_vfprintf_r+0x5bd>
 804872e:	8d 84 24 60 01 00 00 	lea    0x160(%esp),%eax
 8048735:	89 84 24 c4 00 00 00 	mov    %eax,0xc4(%esp)
 804873c:	c7 84 24 cc 00 00 00 	movl   $0x0,0xcc(%esp)
 8048743:	00 00 00 00 
 8048747:	c7 84 24 c8 00 00 00 	movl   $0x0,0xc8(%esp)
 804874e:	00 00 00 00 
 8048752:	8b b4 24 88 05 00 00 	mov    0x588(%esp),%esi
 8048759:	c7 44 24 7c 00 00 00 	movl   $0x0,0x7c(%esp)
 8048760:	00 
 8048761:	d9 ee                	fldz   
 8048763:	dd 9c 24 88 00 00 00 	fstpl  0x88(%esp)
 804876a:	c7 84 24 94 00 00 00 	movl   $0x0,0x94(%esp)
 8048771:	00 00 00 00 
 8048775:	c7 84 24 90 00 00 00 	movl   $0x0,0x90(%esp)
 804877c:	00 00 00 00 
 8048780:	c7 44 24 5c 00 00 00 	movl   $0x0,0x5c(%esp)
 8048787:	00 
 8048788:	89 c5                	mov    %eax,%ebp
 804878a:	8d 8c 24 c4 00 00 00 	lea    0xc4(%esp),%ecx
 8048791:	89 4c 24 48          	mov    %ecx,0x48(%esp)
 8048795:	8d 9c 24 f8 00 00 00 	lea    0xf8(%esp),%ebx
 804879c:	89 5c 24 44          	mov    %ebx,0x44(%esp)
 80487a0:	8a 06                	mov    (%esi),%al
 80487a2:	89 f3                	mov    %esi,%ebx
 80487a4:	84 c0                	test   %al,%al
 80487a6:	74 47                	je     80487ef <_vfprintf_r+0x14b>
 80487a8:	3c 25                	cmp    $0x25,%al
 80487aa:	75 08                	jne    80487b4 <_vfprintf_r+0x110>
 80487ac:	eb 41                	jmp    80487ef <_vfprintf_r+0x14b>
 80487ae:	66 90                	xchg   %ax,%ax
 80487b0:	3c 25                	cmp    $0x25,%al
 80487b2:	74 07                	je     80487bb <_vfprintf_r+0x117>
 80487b4:	43                   	inc    %ebx
 80487b5:	8a 03                	mov    (%ebx),%al
 80487b7:	84 c0                	test   %al,%al
 80487b9:	75 f5                	jne    80487b0 <_vfprintf_r+0x10c>
 80487bb:	89 da                	mov    %ebx,%edx
 80487bd:	29 f2                	sub    %esi,%edx
 80487bf:	85 d2                	test   %edx,%edx
 80487c1:	74 2c                	je     80487ef <_vfprintf_r+0x14b>
 80487c3:	89 75 00             	mov    %esi,0x0(%ebp)
 80487c6:	89 55 04             	mov    %edx,0x4(%ebp)
 80487c9:	01 94 24 cc 00 00 00 	add    %edx,0xcc(%esp)
 80487d0:	8b 8c 24 c8 00 00 00 	mov    0xc8(%esp),%ecx
 80487d7:	41                   	inc    %ecx
 80487d8:	89 8c 24 c8 00 00 00 	mov    %ecx,0xc8(%esp)
 80487df:	83 f9 07             	cmp    $0x7,%ecx
 80487e2:	0f 8f 94 05 00 00    	jg     8048d7c <_vfprintf_r+0x6d8>
 80487e8:	83 c5 08             	add    $0x8,%ebp
 80487eb:	01 54 24 5c          	add    %edx,0x5c(%esp)
 80487ef:	80 3b 00             	cmpb   $0x0,(%ebx)
 80487f2:	0f 84 3a 05 00 00    	je     8048d32 <_vfprintf_r+0x68e>
 80487f8:	8d 73 01             	lea    0x1(%ebx),%esi
 80487fb:	c6 84 24 a5 00 00 00 	movb   $0x0,0xa5(%esp)
 8048802:	00 
 8048803:	31 c9                	xor    %ecx,%ecx
 8048805:	bb ff ff ff ff       	mov    $0xffffffff,%ebx
 804880a:	c7 44 24 60 00 00 00 	movl   $0x0,0x60(%esp)
 8048811:	00 
 8048812:	c7 44 24 4c 00 00 00 	movl   $0x0,0x4c(%esp)
 8048819:	00 
 804881a:	0f be 06             	movsbl (%esi),%eax
 804881d:	46                   	inc    %esi
 804881e:	8d 50 e0             	lea    -0x20(%eax),%edx
 8048821:	83 fa 58             	cmp    $0x58,%edx
 8048824:	0f 86 e2 03 00 00    	jbe    8048c0c <_vfprintf_r+0x568>
 804882a:	89 44 24 70          	mov    %eax,0x70(%esp)
 804882e:	88 8c 24 a5 00 00 00 	mov    %cl,0xa5(%esp)
 8048835:	85 c0                	test   %eax,%eax
 8048837:	0f 84 f5 04 00 00    	je     8048d32 <_vfprintf_r+0x68e>
 804883d:	88 84 24 d0 00 00 00 	mov    %al,0xd0(%esp)
 8048844:	c6 84 24 a5 00 00 00 	movb   $0x0,0xa5(%esp)
 804884b:	00 
 804884c:	c6 44 24 54 00       	movb   $0x0,0x54(%esp)
 8048851:	c7 44 24 50 01 00 00 	movl   $0x1,0x50(%esp)
 8048858:	00 
 8048859:	c7 44 24 58 01 00 00 	movl   $0x1,0x58(%esp)
 8048860:	00 
 8048861:	c7 44 24 74 00 00 00 	movl   $0x0,0x74(%esp)
 8048868:	00 
 8048869:	c7 84 24 80 00 00 00 	movl   $0x0,0x80(%esp)
 8048870:	00 00 00 00 
 8048874:	8d 84 24 d0 00 00 00 	lea    0xd0(%esp),%eax
 804887b:	89 44 24 64          	mov    %eax,0x64(%esp)
 804887f:	90                   	nop
 8048880:	8b 4c 24 4c          	mov    0x4c(%esp),%ecx
 8048884:	83 e1 02             	and    $0x2,%ecx
 8048887:	89 4c 24 68          	mov    %ecx,0x68(%esp)
 804888b:	74 05                	je     8048892 <_vfprintf_r+0x1ee>
 804888d:	83 44 24 50 02       	addl   $0x2,0x50(%esp)
 8048892:	8b 5c 24 4c          	mov    0x4c(%esp),%ebx
 8048896:	81 e3 84 00 00 00    	and    $0x84,%ebx
 804889c:	89 5c 24 6c          	mov    %ebx,0x6c(%esp)
 80488a0:	0f 85 c7 00 00 00    	jne    804896d <_vfprintf_r+0x2c9>
 80488a6:	8b 5c 24 60          	mov    0x60(%esp),%ebx
 80488aa:	2b 5c 24 50          	sub    0x50(%esp),%ebx
 80488ae:	85 db                	test   %ebx,%ebx
 80488b0:	0f 8e b7 00 00 00    	jle    804896d <_vfprintf_r+0x2c9>
 80488b6:	8b 8c 24 c8 00 00 00 	mov    0xc8(%esp),%ecx
 80488bd:	83 fb 10             	cmp    $0x10,%ebx
 80488c0:	7e 7b                	jle    804893d <_vfprintf_r+0x299>
 80488c2:	89 74 24 54          	mov    %esi,0x54(%esp)
 80488c6:	89 de                	mov    %ebx,%esi
 80488c8:	8b 9c 24 80 05 00 00 	mov    0x580(%esp),%ebx
 80488cf:	eb 0e                	jmp    80488df <_vfprintf_r+0x23b>
 80488d1:	8d 76 00             	lea    0x0(%esi),%esi
 80488d4:	83 c5 08             	add    $0x8,%ebp
 80488d7:	83 ee 10             	sub    $0x10,%esi
 80488da:	83 fe 10             	cmp    $0x10,%esi
 80488dd:	7e 58                	jle    8048937 <_vfprintf_r+0x293>
 80488df:	c7 45 00 60 06 05 08 	movl   $0x8050660,0x0(%ebp)
 80488e6:	c7 45 04 10 00 00 00 	movl   $0x10,0x4(%ebp)
 80488ed:	83 84 24 cc 00 00 00 	addl   $0x10,0xcc(%esp)
 80488f4:	10 
 80488f5:	41                   	inc    %ecx
 80488f6:	89 8c 24 c8 00 00 00 	mov    %ecx,0xc8(%esp)
 80488fd:	83 f9 07             	cmp    $0x7,%ecx
 8048900:	7e d2                	jle    80488d4 <_vfprintf_r+0x230>
 8048902:	8d 84 24 c4 00 00 00 	lea    0xc4(%esp),%eax
 8048909:	89 44 24 08          	mov    %eax,0x8(%esp)
 804890d:	89 7c 24 04          	mov    %edi,0x4(%esp)
 8048911:	89 1c 24             	mov    %ebx,(%esp)
 8048914:	e8 33 58 00 00       	call   804e14c <__sprint_r>
 8048919:	85 c0                	test   %eax,%eax
 804891b:	0f 85 3b 04 00 00    	jne    8048d5c <_vfprintf_r+0x6b8>
 8048921:	8d ac 24 60 01 00 00 	lea    0x160(%esp),%ebp
 8048928:	8b 8c 24 c8 00 00 00 	mov    0xc8(%esp),%ecx
 804892f:	83 ee 10             	sub    $0x10,%esi
 8048932:	83 fe 10             	cmp    $0x10,%esi
 8048935:	7f a8                	jg     80488df <_vfprintf_r+0x23b>
 8048937:	89 f3                	mov    %esi,%ebx
 8048939:	8b 74 24 54          	mov    0x54(%esp),%esi
 804893d:	c7 45 00 60 06 05 08 	movl   $0x8050660,0x0(%ebp)
 8048944:	89 5d 04             	mov    %ebx,0x4(%ebp)
 8048947:	01 9c 24 cc 00 00 00 	add    %ebx,0xcc(%esp)
 804894e:	41                   	inc    %ecx
 804894f:	89 8c 24 c8 00 00 00 	mov    %ecx,0xc8(%esp)
 8048956:	83 f9 07             	cmp    $0x7,%ecx
 8048959:	0f 8f 16 0f 00 00    	jg     8049875 <_vfprintf_r+0x11d1>
 804895f:	83 c5 08             	add    $0x8,%ebp
 8048962:	8a 8c 24 a5 00 00 00 	mov    0xa5(%esp),%cl
 8048969:	88 4c 24 54          	mov    %cl,0x54(%esp)
 804896d:	80 7c 24 54 00       	cmpb   $0x0,0x54(%esp)
 8048972:	74 33                	je     80489a7 <_vfprintf_r+0x303>
 8048974:	8d 84 24 a5 00 00 00 	lea    0xa5(%esp),%eax
 804897b:	89 45 00             	mov    %eax,0x0(%ebp)
 804897e:	c7 45 04 01 00 00 00 	movl   $0x1,0x4(%ebp)
 8048985:	ff 84 24 cc 00 00 00 	incl   0xcc(%esp)
 804898c:	8b 8c 24 c8 00 00 00 	mov    0xc8(%esp),%ecx
 8048993:	41                   	inc    %ecx
 8048994:	89 8c 24 c8 00 00 00 	mov    %ecx,0xc8(%esp)
 804899b:	83 f9 07             	cmp    $0x7,%ecx
 804899e:	0f 8f fc 0c 00 00    	jg     80496a0 <_vfprintf_r+0xffc>
 80489a4:	83 c5 08             	add    $0x8,%ebp
 80489a7:	8b 4c 24 68          	mov    0x68(%esp),%ecx
 80489ab:	85 c9                	test   %ecx,%ecx
 80489ad:	74 34                	je     80489e3 <_vfprintf_r+0x33f>
 80489af:	8d 84 24 a6 00 00 00 	lea    0xa6(%esp),%eax
 80489b6:	89 45 00             	mov    %eax,0x0(%ebp)
 80489b9:	c7 45 04 02 00 00 00 	movl   $0x2,0x4(%ebp)
 80489c0:	83 84 24 cc 00 00 00 	addl   $0x2,0xcc(%esp)
 80489c7:	02 
 80489c8:	8b 8c 24 c8 00 00 00 	mov    0xc8(%esp),%ecx
 80489cf:	41                   	inc    %ecx
 80489d0:	89 8c 24 c8 00 00 00 	mov    %ecx,0xc8(%esp)
 80489d7:	83 f9 07             	cmp    $0x7,%ecx
 80489da:	0f 8f 8c 0c 00 00    	jg     804966c <_vfprintf_r+0xfc8>
 80489e0:	83 c5 08             	add    $0x8,%ebp
 80489e3:	81 7c 24 6c 80 00 00 	cmpl   $0x80,0x6c(%esp)
 80489ea:	00 
 80489eb:	0f 84 4f 0a 00 00    	je     8049440 <_vfprintf_r+0xd9c>
 80489f1:	8b 5c 24 74          	mov    0x74(%esp),%ebx
 80489f5:	2b 5c 24 58          	sub    0x58(%esp),%ebx
 80489f9:	85 db                	test   %ebx,%ebx
 80489fb:	0f 8e a9 00 00 00    	jle    8048aaa <_vfprintf_r+0x406>
 8048a01:	8b 8c 24 c8 00 00 00 	mov    0xc8(%esp),%ecx
 8048a08:	83 fb 10             	cmp    $0x10,%ebx
 8048a0b:	7e 78                	jle    8048a85 <_vfprintf_r+0x3e1>
 8048a0d:	89 74 24 54          	mov    %esi,0x54(%esp)
 8048a11:	89 de                	mov    %ebx,%esi
 8048a13:	8b 9c 24 80 05 00 00 	mov    0x580(%esp),%ebx
 8048a1a:	eb 0b                	jmp    8048a27 <_vfprintf_r+0x383>
 8048a1c:	83 c5 08             	add    $0x8,%ebp
 8048a1f:	83 ee 10             	sub    $0x10,%esi
 8048a22:	83 fe 10             	cmp    $0x10,%esi
 8048a25:	7e 58                	jle    8048a7f <_vfprintf_r+0x3db>
 8048a27:	c7 45 00 70 06 05 08 	movl   $0x8050670,0x0(%ebp)
 8048a2e:	c7 45 04 10 00 00 00 	movl   $0x10,0x4(%ebp)
 8048a35:	83 84 24 cc 00 00 00 	addl   $0x10,0xcc(%esp)
 8048a3c:	10 
 8048a3d:	41                   	inc    %ecx
 8048a3e:	89 8c 24 c8 00 00 00 	mov    %ecx,0xc8(%esp)
 8048a45:	83 f9 07             	cmp    $0x7,%ecx
 8048a48:	7e d2                	jle    8048a1c <_vfprintf_r+0x378>
 8048a4a:	8d 84 24 c4 00 00 00 	lea    0xc4(%esp),%eax
 8048a51:	89 44 24 08          	mov    %eax,0x8(%esp)
 8048a55:	89 7c 24 04          	mov    %edi,0x4(%esp)
 8048a59:	89 1c 24             	mov    %ebx,(%esp)
 8048a5c:	e8 eb 56 00 00       	call   804e14c <__sprint_r>
 8048a61:	85 c0                	test   %eax,%eax
 8048a63:	0f 85 f3 02 00 00    	jne    8048d5c <_vfprintf_r+0x6b8>
 8048a69:	8d ac 24 60 01 00 00 	lea    0x160(%esp),%ebp
 8048a70:	8b 8c 24 c8 00 00 00 	mov    0xc8(%esp),%ecx
 8048a77:	83 ee 10             	sub    $0x10,%esi
 8048a7a:	83 fe 10             	cmp    $0x10,%esi
 8048a7d:	7f a8                	jg     8048a27 <_vfprintf_r+0x383>
 8048a7f:	89 f3                	mov    %esi,%ebx
 8048a81:	8b 74 24 54          	mov    0x54(%esp),%esi
 8048a85:	c7 45 00 70 06 05 08 	movl   $0x8050670,0x0(%ebp)
 8048a8c:	89 5d 04             	mov    %ebx,0x4(%ebp)
 8048a8f:	01 9c 24 cc 00 00 00 	add    %ebx,0xcc(%esp)
 8048a96:	41                   	inc    %ecx
 8048a97:	89 8c 24 c8 00 00 00 	mov    %ecx,0xc8(%esp)
 8048a9e:	83 f9 07             	cmp    $0x7,%ecx
 8048aa1:	0f 8f 91 0b 00 00    	jg     8049638 <_vfprintf_r+0xf94>
 8048aa7:	83 c5 08             	add    $0x8,%ebp
 8048aaa:	f7 44 24 4c 00 01 00 	testl  $0x100,0x4c(%esp)
 8048ab1:	00 
 8048ab2:	0f 85 58 08 00 00    	jne    8049310 <_vfprintf_r+0xc6c>
 8048ab8:	8b 44 24 64          	mov    0x64(%esp),%eax
 8048abc:	89 45 00             	mov    %eax,0x0(%ebp)
 8048abf:	8b 44 24 58          	mov    0x58(%esp),%eax
 8048ac3:	89 45 04             	mov    %eax,0x4(%ebp)
 8048ac6:	01 84 24 cc 00 00 00 	add    %eax,0xcc(%esp)
 8048acd:	8b 8c 24 c8 00 00 00 	mov    0xc8(%esp),%ecx
 8048ad4:	41                   	inc    %ecx
 8048ad5:	89 8c 24 c8 00 00 00 	mov    %ecx,0xc8(%esp)
 8048adc:	83 f9 07             	cmp    $0x7,%ecx
 8048adf:	0f 8f 7f 0c 00 00    	jg     8049764 <_vfprintf_r+0x10c0>
 8048ae5:	83 c5 08             	add    $0x8,%ebp
 8048ae8:	f6 44 24 4c 04       	testb  $0x4,0x4c(%esp)
 8048aed:	0f 84 e1 00 00 00    	je     8048bd4 <_vfprintf_r+0x530>
 8048af3:	8b 5c 24 60          	mov    0x60(%esp),%ebx
 8048af7:	2b 5c 24 50          	sub    0x50(%esp),%ebx
 8048afb:	85 db                	test   %ebx,%ebx
 8048afd:	0f 8e d1 00 00 00    	jle    8048bd4 <_vfprintf_r+0x530>
 8048b03:	8b 8c 24 c8 00 00 00 	mov    0xc8(%esp),%ecx
 8048b0a:	83 fb 10             	cmp    $0x10,%ebx
 8048b0d:	7e 7a                	jle    8048b89 <_vfprintf_r+0x4e5>
 8048b0f:	89 74 24 4c          	mov    %esi,0x4c(%esp)
 8048b13:	89 de                	mov    %ebx,%esi
 8048b15:	8b 9c 24 80 05 00 00 	mov    0x580(%esp),%ebx
 8048b1c:	eb 0d                	jmp    8048b2b <_vfprintf_r+0x487>
 8048b1e:	66 90                	xchg   %ax,%ax
 8048b20:	83 c5 08             	add    $0x8,%ebp
 8048b23:	83 ee 10             	sub    $0x10,%esi
 8048b26:	83 fe 10             	cmp    $0x10,%esi
 8048b29:	7e 58                	jle    8048b83 <_vfprintf_r+0x4df>
 8048b2b:	c7 45 00 60 06 05 08 	movl   $0x8050660,0x0(%ebp)
 8048b32:	c7 45 04 10 00 00 00 	movl   $0x10,0x4(%ebp)
 8048b39:	83 84 24 cc 00 00 00 	addl   $0x10,0xcc(%esp)
 8048b40:	10 
 8048b41:	41                   	inc    %ecx
 8048b42:	89 8c 24 c8 00 00 00 	mov    %ecx,0xc8(%esp)
 8048b49:	83 f9 07             	cmp    $0x7,%ecx
 8048b4c:	7e d2                	jle    8048b20 <_vfprintf_r+0x47c>
 8048b4e:	8d 84 24 c4 00 00 00 	lea    0xc4(%esp),%eax
 8048b55:	89 44 24 08          	mov    %eax,0x8(%esp)
 8048b59:	89 7c 24 04          	mov    %edi,0x4(%esp)
 8048b5d:	89 1c 24             	mov    %ebx,(%esp)
 8048b60:	e8 e7 55 00 00       	call   804e14c <__sprint_r>
 8048b65:	85 c0                	test   %eax,%eax
 8048b67:	0f 85 ef 01 00 00    	jne    8048d5c <_vfprintf_r+0x6b8>
 8048b6d:	8d ac 24 60 01 00 00 	lea    0x160(%esp),%ebp
 8048b74:	8b 8c 24 c8 00 00 00 	mov    0xc8(%esp),%ecx
 8048b7b:	83 ee 10             	sub    $0x10,%esi
 8048b7e:	83 fe 10             	cmp    $0x10,%esi
 8048b81:	7f a8                	jg     8048b2b <_vfprintf_r+0x487>
 8048b83:	89 f3                	mov    %esi,%ebx
 8048b85:	8b 74 24 4c          	mov    0x4c(%esp),%esi
 8048b89:	c7 45 00 60 06 05 08 	movl   $0x8050660,0x0(%ebp)
 8048b90:	89 5d 04             	mov    %ebx,0x4(%ebp)
 8048b93:	03 9c 24 cc 00 00 00 	add    0xcc(%esp),%ebx
 8048b9a:	89 9c 24 cc 00 00 00 	mov    %ebx,0xcc(%esp)
 8048ba1:	41                   	inc    %ecx
 8048ba2:	89 8c 24 c8 00 00 00 	mov    %ecx,0xc8(%esp)
 8048ba9:	83 f9 07             	cmp    $0x7,%ecx
 8048bac:	7e 2d                	jle    8048bdb <_vfprintf_r+0x537>
 8048bae:	8d 94 24 c4 00 00 00 	lea    0xc4(%esp),%edx
 8048bb5:	89 54 24 08          	mov    %edx,0x8(%esp)
 8048bb9:	89 7c 24 04          	mov    %edi,0x4(%esp)
 8048bbd:	8b 8c 24 80 05 00 00 	mov    0x580(%esp),%ecx
 8048bc4:	89 0c 24             	mov    %ecx,(%esp)
 8048bc7:	e8 80 55 00 00       	call   804e14c <__sprint_r>
 8048bcc:	85 c0                	test   %eax,%eax
 8048bce:	0f 85 88 01 00 00    	jne    8048d5c <_vfprintf_r+0x6b8>
 8048bd4:	8b 9c 24 cc 00 00 00 	mov    0xcc(%esp),%ebx
 8048bdb:	8b 44 24 50          	mov    0x50(%esp),%eax
 8048bdf:	3b 44 24 60          	cmp    0x60(%esp),%eax
 8048be3:	7d 04                	jge    8048be9 <_vfprintf_r+0x545>
 8048be5:	8b 44 24 60          	mov    0x60(%esp),%eax
 8048be9:	01 44 24 5c          	add    %eax,0x5c(%esp)
 8048bed:	85 db                	test   %ebx,%ebx
 8048bef:	0f 85 17 0a 00 00    	jne    804960c <_vfprintf_r+0xf68>
 8048bf5:	c7 84 24 c8 00 00 00 	movl   $0x0,0xc8(%esp)
 8048bfc:	00 00 00 00 
 8048c00:	8d ac 24 60 01 00 00 	lea    0x160(%esp),%ebp
 8048c07:	e9 94 fb ff ff       	jmp    80487a0 <_vfprintf_r+0xfc>
 8048c0c:	ff 24 95 fc 04 05 08 	jmp    *0x80504fc(,%edx,4)
 8048c13:	83 4c 24 4c 10       	orl    $0x10,0x4c(%esp)
 8048c18:	e9 fd fb ff ff       	jmp    804881a <_vfprintf_r+0x176>
 8048c1d:	f7 da                	neg    %edx
 8048c1f:	89 54 24 60          	mov    %edx,0x60(%esp)
 8048c23:	89 84 24 8c 05 00 00 	mov    %eax,0x58c(%esp)
 8048c2a:	83 4c 24 4c 04       	orl    $0x4,0x4c(%esp)
 8048c2f:	e9 e6 fb ff ff       	jmp    804881a <_vfprintf_r+0x176>
 8048c34:	89 7c 24 04          	mov    %edi,0x4(%esp)
 8048c38:	8b b4 24 80 05 00 00 	mov    0x580(%esp),%esi
 8048c3f:	89 34 24             	mov    %esi,(%esp)
 8048c42:	e8 69 1b 00 00       	call   804a7b0 <__swsetup_r>
 8048c47:	85 c0                	test   %eax,%eax
 8048c49:	0f 85 13 01 00 00    	jne    8048d62 <_vfprintf_r+0x6be>
 8048c4f:	8b 47 0c             	mov    0xc(%edi),%eax
 8048c52:	89 c2                	mov    %eax,%edx
 8048c54:	83 e2 1a             	and    $0x1a,%edx
 8048c57:	66 83 fa 0a          	cmp    $0xa,%dx
 8048c5b:	0f 85 cd fa ff ff    	jne    804872e <_vfprintf_r+0x8a>
 8048c61:	66 8b 57 0e          	mov    0xe(%edi),%dx
 8048c65:	66 85 d2             	test   %dx,%dx
 8048c68:	0f 88 c0 fa ff ff    	js     804872e <_vfprintf_r+0x8a>
 8048c6e:	83 e0 fd             	and    $0xfffffffd,%eax
 8048c71:	66 89 84 24 04 01 00 	mov    %ax,0x104(%esp)
 8048c78:	00 
 8048c79:	8b 47 64             	mov    0x64(%edi),%eax
 8048c7c:	89 84 24 5c 01 00 00 	mov    %eax,0x15c(%esp)
 8048c83:	66 89 94 24 06 01 00 	mov    %dx,0x106(%esp)
 8048c8a:	00 
 8048c8b:	8b 47 1c             	mov    0x1c(%edi),%eax
 8048c8e:	89 84 24 14 01 00 00 	mov    %eax,0x114(%esp)
 8048c95:	8b 47 24             	mov    0x24(%edi),%eax
 8048c98:	89 84 24 1c 01 00 00 	mov    %eax,0x11c(%esp)
 8048c9f:	8d 84 24 60 01 00 00 	lea    0x160(%esp),%eax
 8048ca6:	89 84 24 f8 00 00 00 	mov    %eax,0xf8(%esp)
 8048cad:	89 84 24 08 01 00 00 	mov    %eax,0x108(%esp)
 8048cb4:	c7 84 24 00 01 00 00 	movl   $0x400,0x100(%esp)
 8048cbb:	00 04 00 00 
 8048cbf:	c7 84 24 0c 01 00 00 	movl   $0x400,0x10c(%esp)
 8048cc6:	00 04 00 00 
 8048cca:	c7 84 24 10 01 00 00 	movl   $0x0,0x110(%esp)
 8048cd1:	00 00 00 00 
 8048cd5:	8b 8c 24 8c 05 00 00 	mov    0x58c(%esp),%ecx
 8048cdc:	89 4c 24 0c          	mov    %ecx,0xc(%esp)
 8048ce0:	8b 9c 24 88 05 00 00 	mov    0x588(%esp),%ebx
 8048ce7:	89 5c 24 08          	mov    %ebx,0x8(%esp)
 8048ceb:	8d 9c 24 f8 00 00 00 	lea    0xf8(%esp),%ebx
 8048cf2:	89 5c 24 04          	mov    %ebx,0x4(%esp)
 8048cf6:	8b b4 24 80 05 00 00 	mov    0x580(%esp),%esi
 8048cfd:	89 34 24             	mov    %esi,(%esp)
 8048d00:	e8 9f f9 ff ff       	call   80486a4 <_vfprintf_r>
 8048d05:	89 44 24 5c          	mov    %eax,0x5c(%esp)
 8048d09:	85 c0                	test   %eax,%eax
 8048d0b:	78 14                	js     8048d21 <_vfprintf_r+0x67d>
 8048d0d:	89 5c 24 04          	mov    %ebx,0x4(%esp)
 8048d11:	89 34 24             	mov    %esi,(%esp)
 8048d14:	e8 97 33 00 00       	call   804c0b0 <_fflush_r>
 8048d19:	85 c0                	test   %eax,%eax
 8048d1b:	0f 85 a7 19 00 00    	jne    804a6c8 <_vfprintf_r+0x2024>
 8048d21:	f6 84 24 04 01 00 00 	testb  $0x40,0x104(%esp)
 8048d28:	40 
 8048d29:	74 3f                	je     8048d6a <_vfprintf_r+0x6c6>
 8048d2b:	66 83 4f 0c 40       	orw    $0x40,0xc(%edi)
 8048d30:	eb 38                	jmp    8048d6a <_vfprintf_r+0x6c6>
 8048d32:	8b 84 24 cc 00 00 00 	mov    0xcc(%esp),%eax
 8048d39:	85 c0                	test   %eax,%eax
 8048d3b:	74 1f                	je     8048d5c <_vfprintf_r+0x6b8>
 8048d3d:	8d 84 24 c4 00 00 00 	lea    0xc4(%esp),%eax
 8048d44:	89 44 24 08          	mov    %eax,0x8(%esp)
 8048d48:	89 7c 24 04          	mov    %edi,0x4(%esp)
 8048d4c:	8b 9c 24 80 05 00 00 	mov    0x580(%esp),%ebx
 8048d53:	89 1c 24             	mov    %ebx,(%esp)
 8048d56:	e8 f1 53 00 00       	call   804e14c <__sprint_r>
 8048d5b:	90                   	nop
 8048d5c:	f6 47 0c 40          	testb  $0x40,0xc(%edi)
 8048d60:	74 08                	je     8048d6a <_vfprintf_r+0x6c6>
 8048d62:	c7 44 24 5c ff ff ff 	movl   $0xffffffff,0x5c(%esp)
 8048d69:	ff 
 8048d6a:	8b 44 24 5c          	mov    0x5c(%esp),%eax
 8048d6e:	81 c4 6c 05 00 00    	add    $0x56c,%esp
 8048d74:	5b                   	pop    %ebx
 8048d75:	5e                   	pop    %esi
 8048d76:	5f                   	pop    %edi
 8048d77:	5d                   	pop    %ebp
 8048d78:	c3                   	ret    
 8048d79:	8d 76 00             	lea    0x0(%esi),%esi
 8048d7c:	8d b4 24 c4 00 00 00 	lea    0xc4(%esp),%esi
 8048d83:	89 74 24 08          	mov    %esi,0x8(%esp)
 8048d87:	89 7c 24 04          	mov    %edi,0x4(%esp)
 8048d8b:	8b 8c 24 80 05 00 00 	mov    0x580(%esp),%ecx
 8048d92:	89 0c 24             	mov    %ecx,(%esp)
 8048d95:	89 54 24 34          	mov    %edx,0x34(%esp)
 8048d99:	e8 ae 53 00 00       	call   804e14c <__sprint_r>
 8048d9e:	85 c0                	test   %eax,%eax
 8048da0:	8b 54 24 34          	mov    0x34(%esp),%edx
 8048da4:	75 b6                	jne    8048d5c <_vfprintf_r+0x6b8>
 8048da6:	8d ac 24 60 01 00 00 	lea    0x160(%esp),%ebp
 8048dad:	e9 39 fa ff ff       	jmp    80487eb <_vfprintf_r+0x147>
 8048db2:	66 90                	xchg   %ax,%ax
 8048db4:	89 1c 24             	mov    %ebx,(%esp)
 8048db7:	e8 88 34 00 00       	call   804c244 <__sinit>
 8048dbc:	e9 35 f9 ff ff       	jmp    80486f6 <_vfprintf_r+0x52>
 8048dc1:	89 44 24 70          	mov    %eax,0x70(%esp)
 8048dc5:	c6 84 24 a5 00 00 00 	movb   $0x0,0xa5(%esp)
 8048dcc:	00 
 8048dcd:	8b 94 24 8c 05 00 00 	mov    0x58c(%esp),%edx
 8048dd4:	83 c2 04             	add    $0x4,%edx
 8048dd7:	8b 8c 24 8c 05 00 00 	mov    0x58c(%esp),%ecx
 8048dde:	8b 09                	mov    (%ecx),%ecx
 8048de0:	89 4c 24 64          	mov    %ecx,0x64(%esp)
 8048de4:	85 c9                	test   %ecx,%ecx
 8048de6:	0f 84 cc 14 00 00    	je     804a2b8 <_vfprintf_r+0x1c14>
 8048dec:	85 db                	test   %ebx,%ebx
 8048dee:	0f 88 a8 13 00 00    	js     804a19c <_vfprintf_r+0x1af8>
 8048df4:	89 5c 24 08          	mov    %ebx,0x8(%esp)
 8048df8:	c7 44 24 04 00 00 00 	movl   $0x0,0x4(%esp)
 8048dff:	00 
 8048e00:	8b 44 24 64          	mov    0x64(%esp),%eax
 8048e04:	89 04 24             	mov    %eax,(%esp)
 8048e07:	89 54 24 34          	mov    %edx,0x34(%esp)
 8048e0b:	e8 d0 42 00 00       	call   804d0e0 <memchr>
 8048e10:	85 c0                	test   %eax,%eax
 8048e12:	8b 54 24 34          	mov    0x34(%esp),%edx
 8048e16:	0f 84 b6 16 00 00    	je     804a4d2 <_vfprintf_r+0x1e2e>
 8048e1c:	2b 44 24 64          	sub    0x64(%esp),%eax
 8048e20:	89 44 24 58          	mov    %eax,0x58(%esp)
 8048e24:	39 d8                	cmp    %ebx,%eax
 8048e26:	0f 8f 9c 12 00 00    	jg     804a0c8 <_vfprintf_r+0x1a24>
 8048e2c:	8b 44 24 58          	mov    0x58(%esp),%eax
 8048e30:	89 44 24 50          	mov    %eax,0x50(%esp)
 8048e34:	85 c0                	test   %eax,%eax
 8048e36:	0f 88 84 13 00 00    	js     804a1c0 <_vfprintf_r+0x1b1c>
 8048e3c:	8a 8c 24 a5 00 00 00 	mov    0xa5(%esp),%cl
 8048e43:	88 4c 24 54          	mov    %cl,0x54(%esp)
 8048e47:	89 94 24 8c 05 00 00 	mov    %edx,0x58c(%esp)
 8048e4e:	c7 44 24 74 00 00 00 	movl   $0x0,0x74(%esp)
 8048e55:	00 
 8048e56:	c7 84 24 80 00 00 00 	movl   $0x0,0x80(%esp)
 8048e5d:	00 00 00 00 
 8048e61:	e9 b9 00 00 00       	jmp    8048f1f <_vfprintf_r+0x87b>
 8048e66:	8b 84 24 8c 05 00 00 	mov    0x58c(%esp),%eax
 8048e6d:	8b 08                	mov    (%eax),%ecx
 8048e6f:	83 4c 24 4c 02       	orl    $0x2,0x4c(%esp)
 8048e74:	c6 84 24 a6 00 00 00 	movb   $0x30,0xa6(%esp)
 8048e7b:	30 
 8048e7c:	c6 84 24 a7 00 00 00 	movb   $0x78,0xa7(%esp)
 8048e83:	78 
 8048e84:	83 c0 04             	add    $0x4,%eax
 8048e87:	89 84 24 8c 05 00 00 	mov    %eax,0x58c(%esp)
 8048e8e:	c7 84 24 94 00 00 00 	movl   $0x80504df,0x94(%esp)
 8048e95:	df 04 05 08 
 8048e99:	b0 02                	mov    $0x2,%al
 8048e9b:	c7 44 24 70 78 00 00 	movl   $0x78,0x70(%esp)
 8048ea2:	00 
 8048ea3:	90                   	nop
 8048ea4:	c6 84 24 a5 00 00 00 	movb   $0x0,0xa5(%esp)
 8048eab:	00 
 8048eac:	c6 44 24 54 00       	movb   $0x0,0x54(%esp)
 8048eb1:	85 db                	test   %ebx,%ebx
 8048eb3:	78 08                	js     8048ebd <_vfprintf_r+0x819>
 8048eb5:	81 64 24 4c 7f ff ff 	andl   $0xffffff7f,0x4c(%esp)
 8048ebc:	ff 
 8048ebd:	85 c9                	test   %ecx,%ecx
 8048ebf:	0f 85 ff 03 00 00    	jne    80492c4 <_vfprintf_r+0xc20>
 8048ec5:	85 db                	test   %ebx,%ebx
 8048ec7:	0f 85 f7 03 00 00    	jne    80492c4 <_vfprintf_r+0xc20>
 8048ecd:	84 c0                	test   %al,%al
 8048ecf:	0f 85 ff 07 00 00    	jne    80496d4 <_vfprintf_r+0x1030>
 8048ed5:	f6 44 24 4c 01       	testb  $0x1,0x4c(%esp)
 8048eda:	0f 84 f4 07 00 00    	je     80496d4 <_vfprintf_r+0x1030>
 8048ee0:	c6 84 24 f7 00 00 00 	movb   $0x30,0xf7(%esp)
 8048ee7:	30 
 8048ee8:	8d 84 24 f7 00 00 00 	lea    0xf7(%esp),%eax
 8048eef:	8b 4c 24 44          	mov    0x44(%esp),%ecx
 8048ef3:	29 c1                	sub    %eax,%ecx
 8048ef5:	89 4c 24 58          	mov    %ecx,0x58(%esp)
 8048ef9:	89 44 24 64          	mov    %eax,0x64(%esp)
 8048efd:	8d 76 00             	lea    0x0(%esi),%esi
 8048f00:	8b 44 24 58          	mov    0x58(%esp),%eax
 8048f04:	89 44 24 50          	mov    %eax,0x50(%esp)
 8048f08:	39 d8                	cmp    %ebx,%eax
 8048f0a:	7d 04                	jge    8048f10 <_vfprintf_r+0x86c>
 8048f0c:	89 5c 24 50          	mov    %ebx,0x50(%esp)
 8048f10:	89 5c 24 74          	mov    %ebx,0x74(%esp)
 8048f14:	c7 84 24 80 00 00 00 	movl   $0x0,0x80(%esp)
 8048f1b:	00 00 00 00 
 8048f1f:	80 7c 24 54 00       	cmpb   $0x0,0x54(%esp)
 8048f24:	0f 84 56 f9 ff ff    	je     8048880 <_vfprintf_r+0x1dc>
 8048f2a:	ff 44 24 50          	incl   0x50(%esp)
 8048f2e:	e9 4d f9 ff ff       	jmp    8048880 <_vfprintf_r+0x1dc>
 8048f33:	84 c9                	test   %cl,%cl
 8048f35:	0f 85 df f8 ff ff    	jne    804881a <_vfprintf_r+0x176>
 8048f3b:	b1 20                	mov    $0x20,%cl
 8048f3d:	e9 d8 f8 ff ff       	jmp    804881a <_vfprintf_r+0x176>
 8048f42:	83 4c 24 4c 01       	orl    $0x1,0x4c(%esp)
 8048f47:	e9 ce f8 ff ff       	jmp    804881a <_vfprintf_r+0x176>
 8048f4c:	8b 84 24 8c 05 00 00 	mov    0x58c(%esp),%eax
 8048f53:	83 c0 04             	add    $0x4,%eax
 8048f56:	8b 94 24 8c 05 00 00 	mov    0x58c(%esp),%edx
 8048f5d:	8b 12                	mov    (%edx),%edx
 8048f5f:	89 54 24 60          	mov    %edx,0x60(%esp)
 8048f63:	85 d2                	test   %edx,%edx
 8048f65:	0f 88 b2 fc ff ff    	js     8048c1d <_vfprintf_r+0x579>
 8048f6b:	89 84 24 8c 05 00 00 	mov    %eax,0x58c(%esp)
 8048f72:	e9 a3 f8 ff ff       	jmp    804881a <_vfprintf_r+0x176>
 8048f77:	b1 2b                	mov    $0x2b,%cl
 8048f79:	e9 9c f8 ff ff       	jmp    804881a <_vfprintf_r+0x176>
 8048f7e:	83 4c 24 4c 40       	orl    $0x40,0x4c(%esp)
 8048f83:	e9 92 f8 ff ff       	jmp    804881a <_vfprintf_r+0x176>
 8048f88:	89 44 24 70          	mov    %eax,0x70(%esp)
 8048f8c:	88 8c 24 a5 00 00 00 	mov    %cl,0xa5(%esp)
 8048f93:	c7 84 24 94 00 00 00 	movl   $0x80504df,0x94(%esp)
 8048f9a:	df 04 05 08 
 8048f9e:	f6 44 24 4c 10       	testb  $0x10,0x4c(%esp)
 8048fa3:	0f 84 2a 02 00 00    	je     80491d3 <_vfprintf_r+0xb2f>
 8048fa9:	8b 84 24 8c 05 00 00 	mov    0x58c(%esp),%eax
 8048fb0:	8b 08                	mov    (%eax),%ecx
 8048fb2:	83 c0 04             	add    $0x4,%eax
 8048fb5:	89 84 24 8c 05 00 00 	mov    %eax,0x58c(%esp)
 8048fbc:	f6 44 24 4c 01       	testb  $0x1,0x4c(%esp)
 8048fc1:	0f 84 ad 07 00 00    	je     8049774 <_vfprintf_r+0x10d0>
 8048fc7:	85 c9                	test   %ecx,%ecx
 8048fc9:	0f 84 a5 07 00 00    	je     8049774 <_vfprintf_r+0x10d0>
 8048fcf:	c6 84 24 a6 00 00 00 	movb   $0x30,0xa6(%esp)
 8048fd6:	30 
 8048fd7:	8a 44 24 70          	mov    0x70(%esp),%al
 8048fdb:	88 84 24 a7 00 00 00 	mov    %al,0xa7(%esp)
 8048fe2:	83 4c 24 4c 02       	orl    $0x2,0x4c(%esp)
 8048fe7:	b0 02                	mov    $0x2,%al
 8048fe9:	e9 b6 fe ff ff       	jmp    8048ea4 <_vfprintf_r+0x800>
 8048fee:	88 8c 24 a5 00 00 00 	mov    %cl,0xa5(%esp)
 8048ff5:	f6 44 24 4c 10       	testb  $0x10,0x4c(%esp)
 8048ffa:	0f 84 86 0e 00 00    	je     8049e86 <_vfprintf_r+0x17e2>
 8049000:	8b 9c 24 8c 05 00 00 	mov    0x58c(%esp),%ebx
 8049007:	8b 03                	mov    (%ebx),%eax
 8049009:	8b 54 24 5c          	mov    0x5c(%esp),%edx
 804900d:	89 10                	mov    %edx,(%eax)
 804900f:	83 c3 04             	add    $0x4,%ebx
 8049012:	89 9c 24 8c 05 00 00 	mov    %ebx,0x58c(%esp)
 8049019:	e9 82 f7 ff ff       	jmp    80487a0 <_vfprintf_r+0xfc>
 804901e:	89 44 24 70          	mov    %eax,0x70(%esp)
 8049022:	88 8c 24 a5 00 00 00 	mov    %cl,0xa5(%esp)
 8049029:	83 4c 24 4c 10       	orl    $0x10,0x4c(%esp)
 804902e:	f6 44 24 4c 10       	testb  $0x10,0x4c(%esp)
 8049033:	0f 85 61 01 00 00    	jne    804919a <_vfprintf_r+0xaf6>
 8049039:	f6 44 24 4c 40       	testb  $0x40,0x4c(%esp)
 804903e:	0f 84 56 01 00 00    	je     804919a <_vfprintf_r+0xaf6>
 8049044:	8b 84 24 8c 05 00 00 	mov    0x58c(%esp),%eax
 804904b:	0f bf 08             	movswl (%eax),%ecx
 804904e:	83 c0 04             	add    $0x4,%eax
 8049051:	89 84 24 8c 05 00 00 	mov    %eax,0x58c(%esp)
 8049058:	85 c9                	test   %ecx,%ecx
 804905a:	0f 88 23 0c 00 00    	js     8049c83 <_vfprintf_r+0x15df>
 8049060:	8a 84 24 a5 00 00 00 	mov    0xa5(%esp),%al
 8049067:	88 44 24 54          	mov    %al,0x54(%esp)
 804906b:	b0 01                	mov    $0x1,%al
 804906d:	e9 3f fe ff ff       	jmp    8048eb1 <_vfprintf_r+0x80d>
 8049072:	89 44 24 70          	mov    %eax,0x70(%esp)
 8049076:	88 8c 24 a5 00 00 00 	mov    %cl,0xa5(%esp)
 804907d:	8b 8c 24 8c 05 00 00 	mov    0x58c(%esp),%ecx
 8049084:	f6 44 24 4c 08       	testb  $0x8,0x4c(%esp)
 8049089:	0f 84 df 0d 00 00    	je     8049e6e <_vfprintf_r+0x17ca>
 804908f:	db 29                	fldt   (%ecx)
 8049091:	dd 9c 24 88 00 00 00 	fstpl  0x88(%esp)
 8049098:	83 c1 0c             	add    $0xc,%ecx
 804909b:	89 8c 24 8c 05 00 00 	mov    %ecx,0x58c(%esp)
 80490a2:	dd 84 24 88 00 00 00 	fldl   0x88(%esp)
 80490a9:	dd 1c 24             	fstpl  (%esp)
 80490ac:	e8 ff 4d 00 00       	call   804deb0 <__fpclassifyd>
 80490b1:	48                   	dec    %eax
 80490b2:	0f 85 e1 0b 00 00    	jne    8049c99 <_vfprintf_r+0x15f5>
 80490b8:	d9 ee                	fldz   
 80490ba:	dd 84 24 88 00 00 00 	fldl   0x88(%esp)
 80490c1:	d9 c9                	fxch   %st(1)
 80490c3:	da e9                	fucompp 
 80490c5:	df e0                	fnstsw %ax
 80490c7:	f6 c4 45             	test   $0x45,%ah
 80490ca:	0f 84 a8 12 00 00    	je     804a378 <_vfprintf_r+0x1cd4>
 80490d0:	8a 8c 24 a5 00 00 00 	mov    0xa5(%esp),%cl
 80490d7:	88 4c 24 54          	mov    %cl,0x54(%esp)
 80490db:	83 7c 24 70 47       	cmpl   $0x47,0x70(%esp)
 80490e0:	0f 8e 2d 10 00 00    	jle    804a113 <_vfprintf_r+0x1a6f>
 80490e6:	c7 44 24 64 c2 04 05 	movl   $0x80504c2,0x64(%esp)
 80490ed:	08 
 80490ee:	81 64 24 4c 7f ff ff 	andl   $0xffffff7f,0x4c(%esp)
 80490f5:	ff 
 80490f6:	c7 44 24 50 03 00 00 	movl   $0x3,0x50(%esp)
 80490fd:	00 
 80490fe:	c7 44 24 58 03 00 00 	movl   $0x3,0x58(%esp)
 8049105:	00 
 8049106:	c7 44 24 74 00 00 00 	movl   $0x0,0x74(%esp)
 804910d:	00 
 804910e:	c7 84 24 80 00 00 00 	movl   $0x0,0x80(%esp)
 8049115:	00 00 00 00 
 8049119:	e9 01 fe ff ff       	jmp    8048f1f <_vfprintf_r+0x87b>
 804911e:	83 4c 24 4c 08       	orl    $0x8,0x4c(%esp)
 8049123:	e9 f2 f6 ff ff       	jmp    804881a <_vfprintf_r+0x176>
 8049128:	89 44 24 70          	mov    %eax,0x70(%esp)
 804912c:	83 4c 24 4c 10       	orl    $0x10,0x4c(%esp)
 8049131:	f6 44 24 4c 10       	testb  $0x10,0x4c(%esp)
 8049136:	0f 84 35 08 00 00    	je     8049971 <_vfprintf_r+0x12cd>
 804913c:	8b 84 24 8c 05 00 00 	mov    0x58c(%esp),%eax
 8049143:	8b 08                	mov    (%eax),%ecx
 8049145:	83 c0 04             	add    $0x4,%eax
 8049148:	89 84 24 8c 05 00 00 	mov    %eax,0x58c(%esp)
 804914f:	31 c0                	xor    %eax,%eax
 8049151:	e9 4e fd ff ff       	jmp    8048ea4 <_vfprintf_r+0x800>
 8049156:	89 44 24 70          	mov    %eax,0x70(%esp)
 804915a:	83 4c 24 4c 10       	orl    $0x10,0x4c(%esp)
 804915f:	f6 44 24 4c 10       	testb  $0x10,0x4c(%esp)
 8049164:	0f 84 48 07 00 00    	je     80498b2 <_vfprintf_r+0x120e>
 804916a:	8b 84 24 8c 05 00 00 	mov    0x58c(%esp),%eax
 8049171:	8b 08                	mov    (%eax),%ecx
 8049173:	83 c0 04             	add    $0x4,%eax
 8049176:	89 84 24 8c 05 00 00 	mov    %eax,0x58c(%esp)
 804917d:	b0 01                	mov    $0x1,%al
 804917f:	e9 20 fd ff ff       	jmp    8048ea4 <_vfprintf_r+0x800>
 8049184:	89 44 24 70          	mov    %eax,0x70(%esp)
 8049188:	88 8c 24 a5 00 00 00 	mov    %cl,0xa5(%esp)
 804918f:	f6 44 24 4c 10       	testb  $0x10,0x4c(%esp)
 8049194:	0f 84 9f fe ff ff    	je     8049039 <_vfprintf_r+0x995>
 804919a:	8b 94 24 8c 05 00 00 	mov    0x58c(%esp),%edx
 80491a1:	8b 0a                	mov    (%edx),%ecx
 80491a3:	83 c2 04             	add    $0x4,%edx
 80491a6:	89 94 24 8c 05 00 00 	mov    %edx,0x58c(%esp)
 80491ad:	e9 a6 fe ff ff       	jmp    8049058 <_vfprintf_r+0x9b4>
 80491b2:	89 44 24 70          	mov    %eax,0x70(%esp)
 80491b6:	88 8c 24 a5 00 00 00 	mov    %cl,0xa5(%esp)
 80491bd:	c7 84 24 94 00 00 00 	movl   $0x80504ce,0x94(%esp)
 80491c4:	ce 04 05 08 
 80491c8:	f6 44 24 4c 10       	testb  $0x10,0x4c(%esp)
 80491cd:	0f 85 d6 fd ff ff    	jne    8048fa9 <_vfprintf_r+0x905>
 80491d3:	f6 44 24 4c 40       	testb  $0x40,0x4c(%esp)
 80491d8:	0f 84 d2 0c 00 00    	je     8049eb0 <_vfprintf_r+0x180c>
 80491de:	8b 8c 24 8c 05 00 00 	mov    0x58c(%esp),%ecx
 80491e5:	8b 09                	mov    (%ecx),%ecx
 80491e7:	89 4c 24 38          	mov    %ecx,0x38(%esp)
 80491eb:	81 e1 ff ff 00 00    	and    $0xffff,%ecx
 80491f1:	8b 84 24 8c 05 00 00 	mov    0x58c(%esp),%eax
 80491f8:	83 c0 04             	add    $0x4,%eax
 80491fb:	89 84 24 8c 05 00 00 	mov    %eax,0x58c(%esp)
 8049202:	e9 b5 fd ff ff       	jmp    8048fbc <_vfprintf_r+0x918>
 8049207:	89 44 24 70          	mov    %eax,0x70(%esp)
 804920b:	8b 8c 24 8c 05 00 00 	mov    0x58c(%esp),%ecx
 8049212:	8b 01                	mov    (%ecx),%eax
 8049214:	88 84 24 d0 00 00 00 	mov    %al,0xd0(%esp)
 804921b:	c6 84 24 a5 00 00 00 	movb   $0x0,0xa5(%esp)
 8049222:	00 
 8049223:	83 c1 04             	add    $0x4,%ecx
 8049226:	89 8c 24 8c 05 00 00 	mov    %ecx,0x58c(%esp)
 804922d:	e9 1a f6 ff ff       	jmp    804884c <_vfprintf_r+0x1a8>
 8049232:	c7 44 24 60 00 00 00 	movl   $0x0,0x60(%esp)
 8049239:	00 
 804923a:	8d 50 d0             	lea    -0x30(%eax),%edx
 804923d:	89 6c 24 50          	mov    %ebp,0x50(%esp)
 8049241:	31 ed                	xor    %ebp,%ebp
 8049243:	90                   	nop
 8049244:	8d 44 ad 00          	lea    0x0(%ebp,%ebp,4),%eax
 8049248:	8d 2c 42             	lea    (%edx,%eax,2),%ebp
 804924b:	0f be 06             	movsbl (%esi),%eax
 804924e:	46                   	inc    %esi
 804924f:	8d 50 d0             	lea    -0x30(%eax),%edx
 8049252:	83 fa 09             	cmp    $0x9,%edx
 8049255:	76 ed                	jbe    8049244 <_vfprintf_r+0xba0>
 8049257:	89 6c 24 60          	mov    %ebp,0x60(%esp)
 804925b:	8b 6c 24 50          	mov    0x50(%esp),%ebp
 804925f:	e9 ba f5 ff ff       	jmp    804881e <_vfprintf_r+0x17a>
 8049264:	0f be 06             	movsbl (%esi),%eax
 8049267:	46                   	inc    %esi
 8049268:	83 f8 2a             	cmp    $0x2a,%eax
 804926b:	0f 84 7b 14 00 00    	je     804a6ec <_vfprintf_r+0x2048>
 8049271:	8d 50 d0             	lea    -0x30(%eax),%edx
 8049274:	31 db                	xor    %ebx,%ebx
 8049276:	83 fa 09             	cmp    $0x9,%edx
 8049279:	0f 87 9f f5 ff ff    	ja     804881e <_vfprintf_r+0x17a>
 804927f:	90                   	nop
 8049280:	8d 04 9b             	lea    (%ebx,%ebx,4),%eax
 8049283:	8d 1c 42             	lea    (%edx,%eax,2),%ebx
 8049286:	0f be 06             	movsbl (%esi),%eax
 8049289:	46                   	inc    %esi
 804928a:	8d 50 d0             	lea    -0x30(%eax),%edx
 804928d:	83 fa 09             	cmp    $0x9,%edx
 8049290:	76 ee                	jbe    8049280 <_vfprintf_r+0xbdc>
 8049292:	85 db                	test   %ebx,%ebx
 8049294:	0f 89 84 f5 ff ff    	jns    804881e <_vfprintf_r+0x17a>
 804929a:	bb ff ff ff ff       	mov    $0xffffffff,%ebx
 804929f:	e9 7a f5 ff ff       	jmp    804881e <_vfprintf_r+0x17a>
 80492a4:	81 4c 24 4c 80 00 00 	orl    $0x80,0x4c(%esp)
 80492ab:	00 
 80492ac:	e9 69 f5 ff ff       	jmp    804881a <_vfprintf_r+0x176>
 80492b1:	89 44 24 70          	mov    %eax,0x70(%esp)
 80492b5:	e9 77 fe ff ff       	jmp    8049131 <_vfprintf_r+0xa8d>
 80492ba:	89 44 24 70          	mov    %eax,0x70(%esp)
 80492be:	e9 9c fe ff ff       	jmp    804915f <_vfprintf_r+0xabb>
 80492c3:	90                   	nop
 80492c4:	3c 01                	cmp    $0x1,%al
 80492c6:	0f 84 58 04 00 00    	je     8049724 <_vfprintf_r+0x1080>
 80492cc:	3c 02                	cmp    $0x2,%al
 80492ce:	8d 84 24 f8 00 00 00 	lea    0xf8(%esp),%eax
 80492d5:	0f 84 11 04 00 00    	je     80496ec <_vfprintf_r+0x1048>
 80492db:	89 c2                	mov    %eax,%edx
 80492dd:	8d 76 00             	lea    0x0(%esi),%esi
 80492e0:	4a                   	dec    %edx
 80492e1:	89 c8                	mov    %ecx,%eax
 80492e3:	83 e0 07             	and    $0x7,%eax
 80492e6:	83 c0 30             	add    $0x30,%eax
 80492e9:	88 02                	mov    %al,(%edx)
 80492eb:	c1 e9 03             	shr    $0x3,%ecx
 80492ee:	75 f0                	jne    80492e0 <_vfprintf_r+0xc3c>
 80492f0:	89 54 24 64          	mov    %edx,0x64(%esp)
 80492f4:	f6 44 24 4c 01       	testb  $0x1,0x4c(%esp)
 80492f9:	0f 85 a8 06 00 00    	jne    80499a7 <_vfprintf_r+0x1303>
 80492ff:	8b 4c 24 44          	mov    0x44(%esp),%ecx
 8049303:	29 d1                	sub    %edx,%ecx
 8049305:	89 4c 24 58          	mov    %ecx,0x58(%esp)
 8049309:	e9 f2 fb ff ff       	jmp    8048f00 <_vfprintf_r+0x85c>
 804930e:	66 90                	xchg   %ax,%ax
 8049310:	83 7c 24 70 65       	cmpl   $0x65,0x70(%esp)
 8049315:	0f 8e e5 01 00 00    	jle    8049500 <_vfprintf_r+0xe5c>
 804931b:	d9 ee                	fldz   
 804931d:	dd 84 24 88 00 00 00 	fldl   0x88(%esp)
 8049324:	da e9                	fucompp 
 8049326:	df e0                	fnstsw %ax
 8049328:	80 e4 45             	and    $0x45,%ah
 804932b:	80 f4 40             	xor    $0x40,%ah
 804932e:	0f 85 47 04 00 00    	jne    804977b <_vfprintf_r+0x10d7>
 8049334:	c7 45 00 f7 04 05 08 	movl   $0x80504f7,0x0(%ebp)
 804933b:	c7 45 04 01 00 00 00 	movl   $0x1,0x4(%ebp)
 8049342:	ff 84 24 cc 00 00 00 	incl   0xcc(%esp)
 8049349:	8b 8c 24 c8 00 00 00 	mov    0xc8(%esp),%ecx
 8049350:	41                   	inc    %ecx
 8049351:	89 8c 24 c8 00 00 00 	mov    %ecx,0xc8(%esp)
 8049358:	83 f9 07             	cmp    $0x7,%ecx
 804935b:	0f 8f b1 0b 00 00    	jg     8049f12 <_vfprintf_r+0x186e>
 8049361:	83 c5 08             	add    $0x8,%ebp
 8049364:	8b 5c 24 7c          	mov    0x7c(%esp),%ebx
 8049368:	39 9c 24 a8 00 00 00 	cmp    %ebx,0xa8(%esp)
 804936f:	7c 0b                	jl     804937c <_vfprintf_r+0xcd8>
 8049371:	f6 44 24 4c 01       	testb  $0x1,0x4c(%esp)
 8049376:	0f 84 6c f7 ff ff    	je     8048ae8 <_vfprintf_r+0x444>
 804937c:	8b 4c 24 78          	mov    0x78(%esp),%ecx
 8049380:	89 4d 00             	mov    %ecx,0x0(%ebp)
 8049383:	8b 84 24 84 00 00 00 	mov    0x84(%esp),%eax
 804938a:	89 45 04             	mov    %eax,0x4(%ebp)
 804938d:	01 84 24 cc 00 00 00 	add    %eax,0xcc(%esp)
 8049394:	8b 8c 24 c8 00 00 00 	mov    0xc8(%esp),%ecx
 804939b:	41                   	inc    %ecx
 804939c:	89 8c 24 c8 00 00 00 	mov    %ecx,0xc8(%esp)
 80493a3:	83 f9 07             	cmp    $0x7,%ecx
 80493a6:	0f 8f ad 0d 00 00    	jg     804a159 <_vfprintf_r+0x1ab5>
 80493ac:	83 c5 08             	add    $0x8,%ebp
 80493af:	8b 5c 24 7c          	mov    0x7c(%esp),%ebx
 80493b3:	4b                   	dec    %ebx
 80493b4:	85 db                	test   %ebx,%ebx
 80493b6:	0f 8e 2c f7 ff ff    	jle    8048ae8 <_vfprintf_r+0x444>
 80493bc:	8b 8c 24 c8 00 00 00 	mov    0xc8(%esp),%ecx
 80493c3:	83 fb 10             	cmp    $0x10,%ebx
 80493c6:	0f 8e 76 03 00 00    	jle    8049742 <_vfprintf_r+0x109e>
 80493cc:	89 74 24 58          	mov    %esi,0x58(%esp)
 80493d0:	89 de                	mov    %ebx,%esi
 80493d2:	8b 9c 24 80 05 00 00 	mov    0x580(%esp),%ebx
 80493d9:	eb 10                	jmp    80493eb <_vfprintf_r+0xd47>
 80493db:	90                   	nop
 80493dc:	83 c5 08             	add    $0x8,%ebp
 80493df:	83 ee 10             	sub    $0x10,%esi
 80493e2:	83 fe 10             	cmp    $0x10,%esi
 80493e5:	0f 8e 51 03 00 00    	jle    804973c <_vfprintf_r+0x1098>
 80493eb:	c7 45 00 70 06 05 08 	movl   $0x8050670,0x0(%ebp)
 80493f2:	c7 45 04 10 00 00 00 	movl   $0x10,0x4(%ebp)
 80493f9:	83 84 24 cc 00 00 00 	addl   $0x10,0xcc(%esp)
 8049400:	10 
 8049401:	41                   	inc    %ecx
 8049402:	89 8c 24 c8 00 00 00 	mov    %ecx,0xc8(%esp)
 8049409:	83 f9 07             	cmp    $0x7,%ecx
 804940c:	7e ce                	jle    80493dc <_vfprintf_r+0xd38>
 804940e:	8d 84 24 c4 00 00 00 	lea    0xc4(%esp),%eax
 8049415:	89 44 24 08          	mov    %eax,0x8(%esp)
 8049419:	89 7c 24 04          	mov    %edi,0x4(%esp)
 804941d:	89 1c 24             	mov    %ebx,(%esp)
 8049420:	e8 27 4d 00 00       	call   804e14c <__sprint_r>
 8049425:	85 c0                	test   %eax,%eax
 8049427:	0f 85 2f f9 ff ff    	jne    8048d5c <_vfprintf_r+0x6b8>
 804942d:	8d ac 24 60 01 00 00 	lea    0x160(%esp),%ebp
 8049434:	8b 8c 24 c8 00 00 00 	mov    0xc8(%esp),%ecx
 804943b:	eb a2                	jmp    80493df <_vfprintf_r+0xd3b>
 804943d:	8d 76 00             	lea    0x0(%esi),%esi
 8049440:	8b 5c 24 60          	mov    0x60(%esp),%ebx
 8049444:	2b 5c 24 50          	sub    0x50(%esp),%ebx
 8049448:	85 db                	test   %ebx,%ebx
 804944a:	0f 8e a1 f5 ff ff    	jle    80489f1 <_vfprintf_r+0x34d>
 8049450:	8b 8c 24 c8 00 00 00 	mov    0xc8(%esp),%ecx
 8049457:	83 fb 10             	cmp    $0x10,%ebx
 804945a:	7e 79                	jle    80494d5 <_vfprintf_r+0xe31>
 804945c:	89 74 24 54          	mov    %esi,0x54(%esp)
 8049460:	89 de                	mov    %ebx,%esi
 8049462:	8b 9c 24 80 05 00 00 	mov    0x580(%esp),%ebx
 8049469:	eb 0c                	jmp    8049477 <_vfprintf_r+0xdd3>
 804946b:	90                   	nop
 804946c:	83 c5 08             	add    $0x8,%ebp
 804946f:	83 ee 10             	sub    $0x10,%esi
 8049472:	83 fe 10             	cmp    $0x10,%esi
 8049475:	7e 58                	jle    80494cf <_vfprintf_r+0xe2b>
 8049477:	c7 45 00 70 06 05 08 	movl   $0x8050670,0x0(%ebp)
 804947e:	c7 45 04 10 00 00 00 	movl   $0x10,0x4(%ebp)
 8049485:	83 84 24 cc 00 00 00 	addl   $0x10,0xcc(%esp)
 804948c:	10 
 804948d:	41                   	inc    %ecx
 804948e:	89 8c 24 c8 00 00 00 	mov    %ecx,0xc8(%esp)
 8049495:	83 f9 07             	cmp    $0x7,%ecx
 8049498:	7e d2                	jle    804946c <_vfprintf_r+0xdc8>
 804949a:	8d 84 24 c4 00 00 00 	lea    0xc4(%esp),%eax
 80494a1:	89 44 24 08          	mov    %eax,0x8(%esp)
 80494a5:	89 7c 24 04          	mov    %edi,0x4(%esp)
 80494a9:	89 1c 24             	mov    %ebx,(%esp)
 80494ac:	e8 9b 4c 00 00       	call   804e14c <__sprint_r>
 80494b1:	85 c0                	test   %eax,%eax
 80494b3:	0f 85 a3 f8 ff ff    	jne    8048d5c <_vfprintf_r+0x6b8>
 80494b9:	8d ac 24 60 01 00 00 	lea    0x160(%esp),%ebp
 80494c0:	8b 8c 24 c8 00 00 00 	mov    0xc8(%esp),%ecx
 80494c7:	83 ee 10             	sub    $0x10,%esi
 80494ca:	83 fe 10             	cmp    $0x10,%esi
 80494cd:	7f a8                	jg     8049477 <_vfprintf_r+0xdd3>
 80494cf:	89 f3                	mov    %esi,%ebx
 80494d1:	8b 74 24 54          	mov    0x54(%esp),%esi
 80494d5:	c7 45 00 70 06 05 08 	movl   $0x8050670,0x0(%ebp)
 80494dc:	89 5d 04             	mov    %ebx,0x4(%ebp)
 80494df:	01 9c 24 cc 00 00 00 	add    %ebx,0xcc(%esp)
 80494e6:	41                   	inc    %ecx
 80494e7:	89 8c 24 c8 00 00 00 	mov    %ecx,0xc8(%esp)
 80494ee:	83 f9 07             	cmp    $0x7,%ecx
 80494f1:	0f 8f 5a 07 00 00    	jg     8049c51 <_vfprintf_r+0x15ad>
 80494f7:	83 c5 08             	add    $0x8,%ebp
 80494fa:	e9 f2 f4 ff ff       	jmp    80489f1 <_vfprintf_r+0x34d>
 80494ff:	90                   	nop
 8049500:	8b 44 24 64          	mov    0x64(%esp),%eax
 8049504:	83 7c 24 7c 01       	cmpl   $0x1,0x7c(%esp)
 8049509:	0f 8e 62 06 00 00    	jle    8049b71 <_vfprintf_r+0x14cd>
 804950f:	89 45 00             	mov    %eax,0x0(%ebp)
 8049512:	c7 45 04 01 00 00 00 	movl   $0x1,0x4(%ebp)
 8049519:	ff 84 24 cc 00 00 00 	incl   0xcc(%esp)
 8049520:	8b 8c 24 c8 00 00 00 	mov    0xc8(%esp),%ecx
 8049527:	41                   	inc    %ecx
 8049528:	89 8c 24 c8 00 00 00 	mov    %ecx,0xc8(%esp)
 804952f:	83 f9 07             	cmp    $0x7,%ecx
 8049532:	0f 8f 7d 06 00 00    	jg     8049bb5 <_vfprintf_r+0x1511>
 8049538:	83 c5 08             	add    $0x8,%ebp
 804953b:	8b 5c 24 78          	mov    0x78(%esp),%ebx
 804953f:	89 5d 00             	mov    %ebx,0x0(%ebp)
 8049542:	8b 84 24 84 00 00 00 	mov    0x84(%esp),%eax
 8049549:	89 45 04             	mov    %eax,0x4(%ebp)
 804954c:	01 84 24 cc 00 00 00 	add    %eax,0xcc(%esp)
 8049553:	41                   	inc    %ecx
 8049554:	89 8c 24 c8 00 00 00 	mov    %ecx,0xc8(%esp)
 804955b:	83 f9 07             	cmp    $0x7,%ecx
 804955e:	0f 8f b4 06 00 00    	jg     8049c18 <_vfprintf_r+0x1574>
 8049564:	83 c5 08             	add    $0x8,%ebp
 8049567:	d9 ee                	fldz   
 8049569:	dd 84 24 88 00 00 00 	fldl   0x88(%esp)
 8049570:	da e9                	fucompp 
 8049572:	df e0                	fnstsw %ax
 8049574:	80 e4 45             	and    $0x45,%ah
 8049577:	80 fc 40             	cmp    $0x40,%ah
 804957a:	0f 84 68 03 00 00    	je     80498e8 <_vfprintf_r+0x1244>
 8049580:	8b 44 24 64          	mov    0x64(%esp),%eax
 8049584:	40                   	inc    %eax
 8049585:	89 45 00             	mov    %eax,0x0(%ebp)
 8049588:	8b 44 24 7c          	mov    0x7c(%esp),%eax
 804958c:	48                   	dec    %eax
 804958d:	89 45 04             	mov    %eax,0x4(%ebp)
 8049590:	01 84 24 cc 00 00 00 	add    %eax,0xcc(%esp)
 8049597:	41                   	inc    %ecx
 8049598:	89 8c 24 c8 00 00 00 	mov    %ecx,0xc8(%esp)
 804959f:	83 f9 07             	cmp    $0x7,%ecx
 80495a2:	0f 8f 99 0a 00 00    	jg     804a041 <_vfprintf_r+0x199d>
 80495a8:	83 c5 08             	add    $0x8,%ebp
 80495ab:	8d 84 24 b6 00 00 00 	lea    0xb6(%esp),%eax
 80495b2:	89 45 00             	mov    %eax,0x0(%ebp)
 80495b5:	8b 9c 24 90 00 00 00 	mov    0x90(%esp),%ebx
 80495bc:	89 5d 04             	mov    %ebx,0x4(%ebp)
 80495bf:	01 9c 24 cc 00 00 00 	add    %ebx,0xcc(%esp)
 80495c6:	41                   	inc    %ecx
 80495c7:	89 8c 24 c8 00 00 00 	mov    %ecx,0xc8(%esp)
 80495ce:	83 f9 07             	cmp    $0x7,%ecx
 80495d1:	0f 8e 0e f5 ff ff    	jle    8048ae5 <_vfprintf_r+0x441>
 80495d7:	8d 84 24 c4 00 00 00 	lea    0xc4(%esp),%eax
 80495de:	89 44 24 08          	mov    %eax,0x8(%esp)
 80495e2:	89 7c 24 04          	mov    %edi,0x4(%esp)
 80495e6:	8b 8c 24 80 05 00 00 	mov    0x580(%esp),%ecx
 80495ed:	89 0c 24             	mov    %ecx,(%esp)
 80495f0:	e8 57 4b 00 00       	call   804e14c <__sprint_r>
 80495f5:	85 c0                	test   %eax,%eax
 80495f7:	0f 85 5f f7 ff ff    	jne    8048d5c <_vfprintf_r+0x6b8>
 80495fd:	8d ac 24 60 01 00 00 	lea    0x160(%esp),%ebp
 8049604:	e9 df f4 ff ff       	jmp    8048ae8 <_vfprintf_r+0x444>
 8049609:	8d 76 00             	lea    0x0(%esi),%esi
 804960c:	8d 9c 24 c4 00 00 00 	lea    0xc4(%esp),%ebx
 8049613:	89 5c 24 08          	mov    %ebx,0x8(%esp)
 8049617:	89 7c 24 04          	mov    %edi,0x4(%esp)
 804961b:	8b 8c 24 80 05 00 00 	mov    0x580(%esp),%ecx
 8049622:	89 0c 24             	mov    %ecx,(%esp)
 8049625:	e8 22 4b 00 00       	call   804e14c <__sprint_r>
 804962a:	85 c0                	test   %eax,%eax
 804962c:	0f 84 c3 f5 ff ff    	je     8048bf5 <_vfprintf_r+0x551>
 8049632:	e9 25 f7 ff ff       	jmp    8048d5c <_vfprintf_r+0x6b8>
 8049637:	90                   	nop
 8049638:	8d 94 24 c4 00 00 00 	lea    0xc4(%esp),%edx
 804963f:	89 54 24 08          	mov    %edx,0x8(%esp)
 8049643:	89 7c 24 04          	mov    %edi,0x4(%esp)
 8049647:	8b 8c 24 80 05 00 00 	mov    0x580(%esp),%ecx
 804964e:	89 0c 24             	mov    %ecx,(%esp)
 8049651:	e8 f6 4a 00 00       	call   804e14c <__sprint_r>
 8049656:	85 c0                	test   %eax,%eax
 8049658:	0f 85 fe f6 ff ff    	jne    8048d5c <_vfprintf_r+0x6b8>
 804965e:	8d ac 24 60 01 00 00 	lea    0x160(%esp),%ebp
 8049665:	e9 40 f4 ff ff       	jmp    8048aaa <_vfprintf_r+0x406>
 804966a:	66 90                	xchg   %ax,%ax
 804966c:	8d 9c 24 c4 00 00 00 	lea    0xc4(%esp),%ebx
 8049673:	89 5c 24 08          	mov    %ebx,0x8(%esp)
 8049677:	89 7c 24 04          	mov    %edi,0x4(%esp)
 804967b:	8b 8c 24 80 05 00 00 	mov    0x580(%esp),%ecx
 8049682:	89 0c 24             	mov    %ecx,(%esp)
 8049685:	e8 c2 4a 00 00       	call   804e14c <__sprint_r>
 804968a:	85 c0                	test   %eax,%eax
 804968c:	0f 85 ca f6 ff ff    	jne    8048d5c <_vfprintf_r+0x6b8>
 8049692:	8d ac 24 60 01 00 00 	lea    0x160(%esp),%ebp
 8049699:	e9 45 f3 ff ff       	jmp    80489e3 <_vfprintf_r+0x33f>
 804969e:	66 90                	xchg   %ax,%ax
 80496a0:	8d 84 24 c4 00 00 00 	lea    0xc4(%esp),%eax
 80496a7:	89 44 24 08          	mov    %eax,0x8(%esp)
 80496ab:	89 7c 24 04          	mov    %edi,0x4(%esp)
 80496af:	8b 8c 24 80 05 00 00 	mov    0x580(%esp),%ecx
 80496b6:	89 0c 24             	mov    %ecx,(%esp)
 80496b9:	e8 8e 4a 00 00       	call   804e14c <__sprint_r>
 80496be:	85 c0                	test   %eax,%eax
 80496c0:	0f 85 96 f6 ff ff    	jne    8048d5c <_vfprintf_r+0x6b8>
 80496c6:	8d ac 24 60 01 00 00 	lea    0x160(%esp),%ebp
 80496cd:	e9 d5 f2 ff ff       	jmp    80489a7 <_vfprintf_r+0x303>
 80496d2:	66 90                	xchg   %ax,%ax
 80496d4:	c7 44 24 58 00 00 00 	movl   $0x0,0x58(%esp)
 80496db:	00 
 80496dc:	8d 84 24 f8 00 00 00 	lea    0xf8(%esp),%eax
 80496e3:	89 44 24 64          	mov    %eax,0x64(%esp)
 80496e7:	e9 14 f8 ff ff       	jmp    8048f00 <_vfprintf_r+0x85c>
 80496ec:	89 44 24 64          	mov    %eax,0x64(%esp)
 80496f0:	89 74 24 58          	mov    %esi,0x58(%esp)
 80496f4:	8b b4 24 94 00 00 00 	mov    0x94(%esp),%esi
 80496fb:	90                   	nop
 80496fc:	48                   	dec    %eax
 80496fd:	89 ca                	mov    %ecx,%edx
 80496ff:	83 e2 0f             	and    $0xf,%edx
 8049702:	8a 14 16             	mov    (%esi,%edx,1),%dl
 8049705:	88 10                	mov    %dl,(%eax)
 8049707:	c1 e9 04             	shr    $0x4,%ecx
 804970a:	75 f0                	jne    80496fc <_vfprintf_r+0x1058>
 804970c:	8b 74 24 58          	mov    0x58(%esp),%esi
 8049710:	89 44 24 64          	mov    %eax,0x64(%esp)
 8049714:	8b 54 24 44          	mov    0x44(%esp),%edx
 8049718:	29 c2                	sub    %eax,%edx
 804971a:	89 54 24 58          	mov    %edx,0x58(%esp)
 804971e:	e9 dd f7 ff ff       	jmp    8048f00 <_vfprintf_r+0x85c>
 8049723:	90                   	nop
 8049724:	83 f9 09             	cmp    $0x9,%ecx
 8049727:	0f 87 9b 02 00 00    	ja     80499c8 <_vfprintf_r+0x1324>
 804972d:	83 c1 30             	add    $0x30,%ecx
 8049730:	88 8c 24 f7 00 00 00 	mov    %cl,0xf7(%esp)
 8049737:	e9 ac f7 ff ff       	jmp    8048ee8 <_vfprintf_r+0x844>
 804973c:	89 f3                	mov    %esi,%ebx
 804973e:	8b 74 24 58          	mov    0x58(%esp),%esi
 8049742:	c7 45 00 70 06 05 08 	movl   $0x8050670,0x0(%ebp)
 8049749:	89 5d 04             	mov    %ebx,0x4(%ebp)
 804974c:	01 9c 24 cc 00 00 00 	add    %ebx,0xcc(%esp)
 8049753:	41                   	inc    %ecx
 8049754:	89 8c 24 c8 00 00 00 	mov    %ecx,0xc8(%esp)
 804975b:	83 f9 07             	cmp    $0x7,%ecx
 804975e:	0f 8e 81 f3 ff ff    	jle    8048ae5 <_vfprintf_r+0x441>
 8049764:	8d 94 24 c4 00 00 00 	lea    0xc4(%esp),%edx
 804976b:	89 54 24 08          	mov    %edx,0x8(%esp)
 804976f:	e9 6e fe ff ff       	jmp    80495e2 <_vfprintf_r+0xf3e>
 8049774:	b0 02                	mov    $0x2,%al
 8049776:	e9 29 f7 ff ff       	jmp    8048ea4 <_vfprintf_r+0x800>
 804977b:	8b 9c 24 a8 00 00 00 	mov    0xa8(%esp),%ebx
 8049782:	85 db                	test   %ebx,%ebx
 8049784:	0f 8e ba 07 00 00    	jle    8049f44 <_vfprintf_r+0x18a0>
 804978a:	8b 5c 24 64          	mov    0x64(%esp),%ebx
 804978e:	03 5c 24 7c          	add    0x7c(%esp),%ebx
 8049792:	89 5c 24 58          	mov    %ebx,0x58(%esp)
 8049796:	2b 5c 24 64          	sub    0x64(%esp),%ebx
 804979a:	3b 9c 24 80 00 00 00 	cmp    0x80(%esp),%ebx
 80497a1:	7e 07                	jle    80497aa <_vfprintf_r+0x1106>
 80497a3:	8b 9c 24 80 00 00 00 	mov    0x80(%esp),%ebx
 80497aa:	85 db                	test   %ebx,%ebx
 80497ac:	7e 2c                	jle    80497da <_vfprintf_r+0x1136>
 80497ae:	8b 44 24 64          	mov    0x64(%esp),%eax
 80497b2:	89 45 00             	mov    %eax,0x0(%ebp)
 80497b5:	89 5d 04             	mov    %ebx,0x4(%ebp)
 80497b8:	01 9c 24 cc 00 00 00 	add    %ebx,0xcc(%esp)
 80497bf:	8b 8c 24 c8 00 00 00 	mov    0xc8(%esp),%ecx
 80497c6:	41                   	inc    %ecx
 80497c7:	89 8c 24 c8 00 00 00 	mov    %ecx,0xc8(%esp)
 80497ce:	83 f9 07             	cmp    $0x7,%ecx
 80497d1:	0f 8f 41 0a 00 00    	jg     804a218 <_vfprintf_r+0x1b74>
 80497d7:	83 c5 08             	add    $0x8,%ebp
 80497da:	85 db                	test   %ebx,%ebx
 80497dc:	0f 88 2f 0a 00 00    	js     804a211 <_vfprintf_r+0x1b6d>
 80497e2:	8b 94 24 80 00 00 00 	mov    0x80(%esp),%edx
 80497e9:	29 da                	sub    %ebx,%edx
 80497eb:	89 d3                	mov    %edx,%ebx
 80497ed:	85 d2                	test   %edx,%edx
 80497ef:	0f 8e 46 02 00 00    	jle    8049a3b <_vfprintf_r+0x1397>
 80497f5:	8b 8c 24 c8 00 00 00 	mov    0xc8(%esp),%ecx
 80497fc:	83 fa 10             	cmp    $0x10,%edx
 80497ff:	0f 8e e3 06 00 00    	jle    8049ee8 <_vfprintf_r+0x1844>
 8049805:	89 74 24 54          	mov    %esi,0x54(%esp)
 8049809:	89 d6                	mov    %edx,%esi
 804980b:	8b 9c 24 80 05 00 00 	mov    0x580(%esp),%ebx
 8049812:	eb 0f                	jmp    8049823 <_vfprintf_r+0x117f>
 8049814:	83 c5 08             	add    $0x8,%ebp
 8049817:	83 ee 10             	sub    $0x10,%esi
 804981a:	83 fe 10             	cmp    $0x10,%esi
 804981d:	0f 8e bf 06 00 00    	jle    8049ee2 <_vfprintf_r+0x183e>
 8049823:	c7 45 00 70 06 05 08 	movl   $0x8050670,0x0(%ebp)
 804982a:	c7 45 04 10 00 00 00 	movl   $0x10,0x4(%ebp)
 8049831:	83 84 24 cc 00 00 00 	addl   $0x10,0xcc(%esp)
 8049838:	10 
 8049839:	41                   	inc    %ecx
 804983a:	89 8c 24 c8 00 00 00 	mov    %ecx,0xc8(%esp)
 8049841:	83 f9 07             	cmp    $0x7,%ecx
 8049844:	7e ce                	jle    8049814 <_vfprintf_r+0x1170>
 8049846:	8d 8c 24 c4 00 00 00 	lea    0xc4(%esp),%ecx
 804984d:	89 4c 24 08          	mov    %ecx,0x8(%esp)
 8049851:	89 7c 24 04          	mov    %edi,0x4(%esp)
 8049855:	89 1c 24             	mov    %ebx,(%esp)
 8049858:	e8 ef 48 00 00       	call   804e14c <__sprint_r>
 804985d:	85 c0                	test   %eax,%eax
 804985f:	0f 85 f7 f4 ff ff    	jne    8048d5c <_vfprintf_r+0x6b8>
 8049865:	8d ac 24 60 01 00 00 	lea    0x160(%esp),%ebp
 804986c:	8b 8c 24 c8 00 00 00 	mov    0xc8(%esp),%ecx
 8049873:	eb a2                	jmp    8049817 <_vfprintf_r+0x1173>
 8049875:	8d 9c 24 c4 00 00 00 	lea    0xc4(%esp),%ebx
 804987c:	89 5c 24 08          	mov    %ebx,0x8(%esp)
 8049880:	89 7c 24 04          	mov    %edi,0x4(%esp)
 8049884:	8b 8c 24 80 05 00 00 	mov    0x580(%esp),%ecx
 804988b:	89 0c 24             	mov    %ecx,(%esp)
 804988e:	e8 b9 48 00 00       	call   804e14c <__sprint_r>
 8049893:	85 c0                	test   %eax,%eax
 8049895:	0f 85 c1 f4 ff ff    	jne    8048d5c <_vfprintf_r+0x6b8>
 804989b:	8a 9c 24 a5 00 00 00 	mov    0xa5(%esp),%bl
 80498a2:	88 5c 24 54          	mov    %bl,0x54(%esp)
 80498a6:	8d ac 24 60 01 00 00 	lea    0x160(%esp),%ebp
 80498ad:	e9 bb f0 ff ff       	jmp    804896d <_vfprintf_r+0x2c9>
 80498b2:	f6 44 24 4c 40       	testb  $0x40,0x4c(%esp)
 80498b7:	0f 84 97 05 00 00    	je     8049e54 <_vfprintf_r+0x17b0>
 80498bd:	8b 8c 24 8c 05 00 00 	mov    0x58c(%esp),%ecx
 80498c4:	8b 09                	mov    (%ecx),%ecx
 80498c6:	89 4c 24 3c          	mov    %ecx,0x3c(%esp)
 80498ca:	81 e1 ff ff 00 00    	and    $0xffff,%ecx
 80498d0:	8b 84 24 8c 05 00 00 	mov    0x58c(%esp),%eax
 80498d7:	83 c0 04             	add    $0x4,%eax
 80498da:	89 84 24 8c 05 00 00 	mov    %eax,0x58c(%esp)
 80498e1:	b0 01                	mov    $0x1,%al
 80498e3:	e9 bc f5 ff ff       	jmp    8048ea4 <_vfprintf_r+0x800>
 80498e8:	8b 5c 24 7c          	mov    0x7c(%esp),%ebx
 80498ec:	4b                   	dec    %ebx
 80498ed:	85 db                	test   %ebx,%ebx
 80498ef:	0f 8e b6 fc ff ff    	jle    80495ab <_vfprintf_r+0xf07>
 80498f5:	83 fb 10             	cmp    $0x10,%ebx
 80498f8:	0f 8e f6 02 00 00    	jle    8049bf4 <_vfprintf_r+0x1550>
 80498fe:	89 74 24 58          	mov    %esi,0x58(%esp)
 8049902:	89 de                	mov    %ebx,%esi
 8049904:	8b 9c 24 80 05 00 00 	mov    0x580(%esp),%ebx
 804990b:	eb 12                	jmp    804991f <_vfprintf_r+0x127b>
 804990d:	8d 76 00             	lea    0x0(%esi),%esi
 8049910:	83 c5 08             	add    $0x8,%ebp
 8049913:	83 ee 10             	sub    $0x10,%esi
 8049916:	83 fe 10             	cmp    $0x10,%esi
 8049919:	0f 8e cf 02 00 00    	jle    8049bee <_vfprintf_r+0x154a>
 804991f:	c7 45 00 70 06 05 08 	movl   $0x8050670,0x0(%ebp)
 8049926:	c7 45 04 10 00 00 00 	movl   $0x10,0x4(%ebp)
 804992d:	83 84 24 cc 00 00 00 	addl   $0x10,0xcc(%esp)
 8049934:	10 
 8049935:	41                   	inc    %ecx
 8049936:	89 8c 24 c8 00 00 00 	mov    %ecx,0xc8(%esp)
 804993d:	83 f9 07             	cmp    $0x7,%ecx
 8049940:	7e ce                	jle    8049910 <_vfprintf_r+0x126c>
 8049942:	8d 84 24 c4 00 00 00 	lea    0xc4(%esp),%eax
 8049949:	89 44 24 08          	mov    %eax,0x8(%esp)
 804994d:	89 7c 24 04          	mov    %edi,0x4(%esp)
 8049951:	89 1c 24             	mov    %ebx,(%esp)
 8049954:	e8 f3 47 00 00       	call   804e14c <__sprint_r>
 8049959:	85 c0                	test   %eax,%eax
 804995b:	0f 85 fb f3 ff ff    	jne    8048d5c <_vfprintf_r+0x6b8>
 8049961:	8d ac 24 60 01 00 00 	lea    0x160(%esp),%ebp
 8049968:	8b 8c 24 c8 00 00 00 	mov    0xc8(%esp),%ecx
 804996f:	eb a2                	jmp    8049913 <_vfprintf_r+0x126f>
 8049971:	f6 44 24 4c 40       	testb  $0x40,0x4c(%esp)
 8049976:	0f 84 4c 05 00 00    	je     8049ec8 <_vfprintf_r+0x1824>
 804997c:	8b 8c 24 8c 05 00 00 	mov    0x58c(%esp),%ecx
 8049983:	8b 09                	mov    (%ecx),%ecx
 8049985:	89 4c 24 40          	mov    %ecx,0x40(%esp)
 8049989:	81 e1 ff ff 00 00    	and    $0xffff,%ecx
 804998f:	8b 84 24 8c 05 00 00 	mov    0x58c(%esp),%eax
 8049996:	83 c0 04             	add    $0x4,%eax
 8049999:	89 84 24 8c 05 00 00 	mov    %eax,0x58c(%esp)
 80499a0:	31 c0                	xor    %eax,%eax
 80499a2:	e9 fd f4 ff ff       	jmp    8048ea4 <_vfprintf_r+0x800>
 80499a7:	3c 30                	cmp    $0x30,%al
 80499a9:	0f 84 dc 07 00 00    	je     804a18b <_vfprintf_r+0x1ae7>
 80499af:	ff 4c 24 64          	decl   0x64(%esp)
 80499b3:	c6 42 ff 30          	movb   $0x30,-0x1(%edx)
 80499b7:	8b 54 24 44          	mov    0x44(%esp),%edx
 80499bb:	2b 54 24 64          	sub    0x64(%esp),%edx
 80499bf:	89 54 24 58          	mov    %edx,0x58(%esp)
 80499c3:	e9 38 f5 ff ff       	jmp    8048f00 <_vfprintf_r+0x85c>
 80499c8:	8d 84 24 f8 00 00 00 	lea    0xf8(%esp),%eax
 80499cf:	89 74 24 50          	mov    %esi,0x50(%esp)
 80499d3:	89 c6                	mov    %eax,%esi
 80499d5:	8d 76 00             	lea    0x0(%esi),%esi
 80499d8:	4e                   	dec    %esi
 80499d9:	b8 cd cc cc cc       	mov    $0xcccccccd,%eax
 80499de:	f7 e1                	mul    %ecx
 80499e0:	c1 ea 03             	shr    $0x3,%edx
 80499e3:	8d 04 92             	lea    (%edx,%edx,4),%eax
 80499e6:	d1 e0                	shl    %eax
 80499e8:	29 c1                	sub    %eax,%ecx
 80499ea:	83 c1 30             	add    $0x30,%ecx
 80499ed:	88 0e                	mov    %cl,(%esi)
 80499ef:	89 d1                	mov    %edx,%ecx
 80499f1:	85 d2                	test   %edx,%edx
 80499f3:	75 e3                	jne    80499d8 <_vfprintf_r+0x1334>
 80499f5:	89 74 24 64          	mov    %esi,0x64(%esp)
 80499f9:	8b 74 24 50          	mov    0x50(%esp),%esi
 80499fd:	8b 54 24 44          	mov    0x44(%esp),%edx
 8049a01:	2b 54 24 64          	sub    0x64(%esp),%edx
 8049a05:	89 54 24 58          	mov    %edx,0x58(%esp)
 8049a09:	e9 f2 f4 ff ff       	jmp    8048f00 <_vfprintf_r+0x85c>
 8049a0e:	8d 9c 24 c4 00 00 00 	lea    0xc4(%esp),%ebx
 8049a15:	89 5c 24 08          	mov    %ebx,0x8(%esp)
 8049a19:	89 7c 24 04          	mov    %edi,0x4(%esp)
 8049a1d:	8b 8c 24 80 05 00 00 	mov    0x580(%esp),%ecx
 8049a24:	89 0c 24             	mov    %ecx,(%esp)
 8049a27:	e8 20 47 00 00       	call   804e14c <__sprint_r>
 8049a2c:	85 c0                	test   %eax,%eax
 8049a2e:	0f 85 28 f3 ff ff    	jne    8048d5c <_vfprintf_r+0x6b8>
 8049a34:	8d ac 24 60 01 00 00 	lea    0x160(%esp),%ebp
 8049a3b:	8b 54 24 64          	mov    0x64(%esp),%edx
 8049a3f:	03 94 24 80 00 00 00 	add    0x80(%esp),%edx
 8049a46:	8b 84 24 a8 00 00 00 	mov    0xa8(%esp),%eax
 8049a4d:	3b 44 24 7c          	cmp    0x7c(%esp),%eax
 8049a51:	0f 8c e2 00 00 00    	jl     8049b39 <_vfprintf_r+0x1495>
 8049a57:	f6 44 24 4c 01       	testb  $0x1,0x4c(%esp)
 8049a5c:	0f 85 d7 00 00 00    	jne    8049b39 <_vfprintf_r+0x1495>
 8049a62:	8b 4c 24 58          	mov    0x58(%esp),%ecx
 8049a66:	29 d1                	sub    %edx,%ecx
 8049a68:	8b 5c 24 7c          	mov    0x7c(%esp),%ebx
 8049a6c:	29 c3                	sub    %eax,%ebx
 8049a6e:	89 d8                	mov    %ebx,%eax
 8049a70:	39 cb                	cmp    %ecx,%ebx
 8049a72:	7e 02                	jle    8049a76 <_vfprintf_r+0x13d2>
 8049a74:	89 cb                	mov    %ecx,%ebx
 8049a76:	85 db                	test   %ebx,%ebx
 8049a78:	7e 28                	jle    8049aa2 <_vfprintf_r+0x13fe>
 8049a7a:	89 55 00             	mov    %edx,0x0(%ebp)
 8049a7d:	89 5d 04             	mov    %ebx,0x4(%ebp)
 8049a80:	01 9c 24 cc 00 00 00 	add    %ebx,0xcc(%esp)
 8049a87:	8b 8c 24 c8 00 00 00 	mov    0xc8(%esp),%ecx
 8049a8e:	41                   	inc    %ecx
 8049a8f:	89 8c 24 c8 00 00 00 	mov    %ecx,0xc8(%esp)
 8049a96:	83 f9 07             	cmp    $0x7,%ecx
 8049a99:	0f 8f 6d 08 00 00    	jg     804a30c <_vfprintf_r+0x1c68>
 8049a9f:	83 c5 08             	add    $0x8,%ebp
 8049aa2:	85 db                	test   %ebx,%ebx
 8049aa4:	0f 88 5b 08 00 00    	js     804a305 <_vfprintf_r+0x1c61>
 8049aaa:	29 d8                	sub    %ebx,%eax
 8049aac:	89 c3                	mov    %eax,%ebx
 8049aae:	85 c0                	test   %eax,%eax
 8049ab0:	0f 8e 32 f0 ff ff    	jle    8048ae8 <_vfprintf_r+0x444>
 8049ab6:	8b 8c 24 c8 00 00 00 	mov    0xc8(%esp),%ecx
 8049abd:	83 f8 10             	cmp    $0x10,%eax
 8049ac0:	0f 8e 7c fc ff ff    	jle    8049742 <_vfprintf_r+0x109e>
 8049ac6:	89 74 24 58          	mov    %esi,0x58(%esp)
 8049aca:	89 c6                	mov    %eax,%esi
 8049acc:	8b 9c 24 80 05 00 00 	mov    0x580(%esp),%ebx
 8049ad3:	eb 12                	jmp    8049ae7 <_vfprintf_r+0x1443>
 8049ad5:	8d 76 00             	lea    0x0(%esi),%esi
 8049ad8:	83 c5 08             	add    $0x8,%ebp
 8049adb:	83 ee 10             	sub    $0x10,%esi
 8049ade:	83 fe 10             	cmp    $0x10,%esi
 8049ae1:	0f 8e 55 fc ff ff    	jle    804973c <_vfprintf_r+0x1098>
 8049ae7:	c7 45 00 70 06 05 08 	movl   $0x8050670,0x0(%ebp)
 8049aee:	c7 45 04 10 00 00 00 	movl   $0x10,0x4(%ebp)
 8049af5:	83 84 24 cc 00 00 00 	addl   $0x10,0xcc(%esp)
 8049afc:	10 
 8049afd:	41                   	inc    %ecx
 8049afe:	89 8c 24 c8 00 00 00 	mov    %ecx,0xc8(%esp)
 8049b05:	83 f9 07             	cmp    $0x7,%ecx
 8049b08:	7e ce                	jle    8049ad8 <_vfprintf_r+0x1434>
 8049b0a:	8d 84 24 c4 00 00 00 	lea    0xc4(%esp),%eax
 8049b11:	89 44 24 08          	mov    %eax,0x8(%esp)
 8049b15:	89 7c 24 04          	mov    %edi,0x4(%esp)
 8049b19:	89 1c 24             	mov    %ebx,(%esp)
 8049b1c:	e8 2b 46 00 00       	call   804e14c <__sprint_r>
 8049b21:	85 c0                	test   %eax,%eax
 8049b23:	0f 85 33 f2 ff ff    	jne    8048d5c <_vfprintf_r+0x6b8>
 8049b29:	8d ac 24 60 01 00 00 	lea    0x160(%esp),%ebp
 8049b30:	8b 8c 24 c8 00 00 00 	mov    0xc8(%esp),%ecx
 8049b37:	eb a2                	jmp    8049adb <_vfprintf_r+0x1437>
 8049b39:	8b 5c 24 78          	mov    0x78(%esp),%ebx
 8049b3d:	89 5d 00             	mov    %ebx,0x0(%ebp)
 8049b40:	8b 8c 24 84 00 00 00 	mov    0x84(%esp),%ecx
 8049b47:	89 4d 04             	mov    %ecx,0x4(%ebp)
 8049b4a:	01 8c 24 cc 00 00 00 	add    %ecx,0xcc(%esp)
 8049b51:	8b 8c 24 c8 00 00 00 	mov    0xc8(%esp),%ecx
 8049b58:	41                   	inc    %ecx
 8049b59:	89 8c 24 c8 00 00 00 	mov    %ecx,0xc8(%esp)
 8049b60:	83 f9 07             	cmp    $0x7,%ecx
 8049b63:	0f 8f 0e 07 00 00    	jg     804a277 <_vfprintf_r+0x1bd3>
 8049b69:	83 c5 08             	add    $0x8,%ebp
 8049b6c:	e9 f1 fe ff ff       	jmp    8049a62 <_vfprintf_r+0x13be>
 8049b71:	f6 44 24 4c 01       	testb  $0x1,0x4c(%esp)
 8049b76:	0f 85 93 f9 ff ff    	jne    804950f <_vfprintf_r+0xe6b>
 8049b7c:	89 45 00             	mov    %eax,0x0(%ebp)
 8049b7f:	c7 45 04 01 00 00 00 	movl   $0x1,0x4(%ebp)
 8049b86:	ff 84 24 cc 00 00 00 	incl   0xcc(%esp)
 8049b8d:	8b 8c 24 c8 00 00 00 	mov    0xc8(%esp),%ecx
 8049b94:	41                   	inc    %ecx
 8049b95:	89 8c 24 c8 00 00 00 	mov    %ecx,0xc8(%esp)
 8049b9c:	83 f9 07             	cmp    $0x7,%ecx
 8049b9f:	0f 8e 03 fa ff ff    	jle    80495a8 <_vfprintf_r+0xf04>
 8049ba5:	8d 94 24 c4 00 00 00 	lea    0xc4(%esp),%edx
 8049bac:	89 54 24 08          	mov    %edx,0x8(%esp)
 8049bb0:	e9 97 04 00 00       	jmp    804a04c <_vfprintf_r+0x19a8>
 8049bb5:	8d 94 24 c4 00 00 00 	lea    0xc4(%esp),%edx
 8049bbc:	89 54 24 08          	mov    %edx,0x8(%esp)
 8049bc0:	89 7c 24 04          	mov    %edi,0x4(%esp)
 8049bc4:	8b 8c 24 80 05 00 00 	mov    0x580(%esp),%ecx
 8049bcb:	89 0c 24             	mov    %ecx,(%esp)
 8049bce:	e8 79 45 00 00       	call   804e14c <__sprint_r>
 8049bd3:	85 c0                	test   %eax,%eax
 8049bd5:	0f 85 81 f1 ff ff    	jne    8048d5c <_vfprintf_r+0x6b8>
 8049bdb:	8d ac 24 60 01 00 00 	lea    0x160(%esp),%ebp
 8049be2:	8b 8c 24 c8 00 00 00 	mov    0xc8(%esp),%ecx
 8049be9:	e9 4d f9 ff ff       	jmp    804953b <_vfprintf_r+0xe97>
 8049bee:	89 f3                	mov    %esi,%ebx
 8049bf0:	8b 74 24 58          	mov    0x58(%esp),%esi
 8049bf4:	c7 45 00 70 06 05 08 	movl   $0x8050670,0x0(%ebp)
 8049bfb:	89 5d 04             	mov    %ebx,0x4(%ebp)
 8049bfe:	01 9c 24 cc 00 00 00 	add    %ebx,0xcc(%esp)
 8049c05:	41                   	inc    %ecx
 8049c06:	89 8c 24 c8 00 00 00 	mov    %ecx,0xc8(%esp)
 8049c0d:	83 f9 07             	cmp    $0x7,%ecx
 8049c10:	0f 8e 92 f9 ff ff    	jle    80495a8 <_vfprintf_r+0xf04>
 8049c16:	eb 8d                	jmp    8049ba5 <_vfprintf_r+0x1501>
 8049c18:	8d 94 24 c4 00 00 00 	lea    0xc4(%esp),%edx
 8049c1f:	89 54 24 08          	mov    %edx,0x8(%esp)
 8049c23:	89 7c 24 04          	mov    %edi,0x4(%esp)
 8049c27:	8b 8c 24 80 05 00 00 	mov    0x580(%esp),%ecx
 8049c2e:	89 0c 24             	mov    %ecx,(%esp)
 8049c31:	e8 16 45 00 00       	call   804e14c <__sprint_r>
 8049c36:	85 c0                	test   %eax,%eax
 8049c38:	0f 85 1e f1 ff ff    	jne    8048d5c <_vfprintf_r+0x6b8>
 8049c3e:	8d ac 24 60 01 00 00 	lea    0x160(%esp),%ebp
 8049c45:	8b 8c 24 c8 00 00 00 	mov    0xc8(%esp),%ecx
 8049c4c:	e9 16 f9 ff ff       	jmp    8049567 <_vfprintf_r+0xec3>
 8049c51:	8d 94 24 c4 00 00 00 	lea    0xc4(%esp),%edx
 8049c58:	89 54 24 08          	mov    %edx,0x8(%esp)
 8049c5c:	89 7c 24 04          	mov    %edi,0x4(%esp)
 8049c60:	8b 8c 24 80 05 00 00 	mov    0x580(%esp),%ecx
 8049c67:	89 0c 24             	mov    %ecx,(%esp)
 8049c6a:	e8 dd 44 00 00       	call   804e14c <__sprint_r>
 8049c6f:	85 c0                	test   %eax,%eax
 8049c71:	0f 85 e5 f0 ff ff    	jne    8048d5c <_vfprintf_r+0x6b8>
 8049c77:	8d ac 24 60 01 00 00 	lea    0x160(%esp),%ebp
 8049c7e:	e9 6e ed ff ff       	jmp    80489f1 <_vfprintf_r+0x34d>
 8049c83:	f7 d9                	neg    %ecx
 8049c85:	c6 84 24 a5 00 00 00 	movb   $0x2d,0xa5(%esp)
 8049c8c:	2d 
 8049c8d:	c6 44 24 54 2d       	movb   $0x2d,0x54(%esp)
 8049c92:	b0 01                	mov    $0x1,%al
 8049c94:	e9 18 f2 ff ff       	jmp    8048eb1 <_vfprintf_r+0x80d>
 8049c99:	dd 84 24 88 00 00 00 	fldl   0x88(%esp)
 8049ca0:	dd 1c 24             	fstpl  (%esp)
 8049ca3:	e8 08 42 00 00       	call   804deb0 <__fpclassifyd>
 8049ca8:	85 c0                	test   %eax,%eax
 8049caa:	0f 84 ca 03 00 00    	je     804a07a <_vfprintf_r+0x19d6>
 8049cb0:	83 fb ff             	cmp    $0xffffffff,%ebx
 8049cb3:	0f 84 9d 08 00 00    	je     804a556 <_vfprintf_r+0x1eb2>
 8049cb9:	83 7c 24 70 67       	cmpl   $0x67,0x70(%esp)
 8049cbe:	0f 84 40 08 00 00    	je     804a504 <_vfprintf_r+0x1e60>
 8049cc4:	83 7c 24 70 47       	cmpl   $0x47,0x70(%esp)
 8049cc9:	0f 84 35 08 00 00    	je     804a504 <_vfprintf_r+0x1e60>
 8049ccf:	8b 4c 24 4c          	mov    0x4c(%esp),%ecx
 8049cd3:	80 cd 01             	or     $0x1,%ch
 8049cd6:	89 4c 24 68          	mov    %ecx,0x68(%esp)
 8049cda:	8b 94 24 8c 00 00 00 	mov    0x8c(%esp),%edx
 8049ce1:	dd 84 24 88 00 00 00 	fldl   0x88(%esp)
 8049ce8:	85 d2                	test   %edx,%edx
 8049cea:	0f 88 70 08 00 00    	js     804a560 <_vfprintf_r+0x1ebc>
 8049cf0:	c6 44 24 54 00       	movb   $0x0,0x54(%esp)
 8049cf5:	83 7c 24 70 66       	cmpl   $0x66,0x70(%esp)
 8049cfa:	0f 84 65 07 00 00    	je     804a465 <_vfprintf_r+0x1dc1>
 8049d00:	83 7c 24 70 46       	cmpl   $0x46,0x70(%esp)
 8049d05:	0f 84 5a 07 00 00    	je     804a465 <_vfprintf_r+0x1dc1>
 8049d0b:	83 7c 24 70 65       	cmpl   $0x65,0x70(%esp)
 8049d10:	0f 84 84 08 00 00    	je     804a59a <_vfprintf_r+0x1ef6>
 8049d16:	83 7c 24 70 45       	cmpl   $0x45,0x70(%esp)
 8049d1b:	0f 84 79 08 00 00    	je     804a59a <_vfprintf_r+0x1ef6>
 8049d21:	89 d9                	mov    %ebx,%ecx
 8049d23:	8d 84 24 b0 00 00 00 	lea    0xb0(%esp),%eax
 8049d2a:	89 44 24 1c          	mov    %eax,0x1c(%esp)
 8049d2e:	8d 84 24 ac 00 00 00 	lea    0xac(%esp),%eax
 8049d35:	89 44 24 18          	mov    %eax,0x18(%esp)
 8049d39:	8d 84 24 a8 00 00 00 	lea    0xa8(%esp),%eax
 8049d40:	89 44 24 14          	mov    %eax,0x14(%esp)
 8049d44:	89 4c 24 10          	mov    %ecx,0x10(%esp)
 8049d48:	c7 44 24 0c 02 00 00 	movl   $0x2,0xc(%esp)
 8049d4f:	00 
 8049d50:	dd 54 24 04          	fstl   0x4(%esp)
 8049d54:	8b 84 24 80 05 00 00 	mov    0x580(%esp),%eax
 8049d5b:	89 04 24             	mov    %eax,(%esp)
 8049d5e:	89 4c 24 34          	mov    %ecx,0x34(%esp)
 8049d62:	dd 5c 24 20          	fstpl  0x20(%esp)
 8049d66:	e8 85 0e 00 00       	call   804abf0 <_dtoa_r>
 8049d6b:	89 44 24 64          	mov    %eax,0x64(%esp)
 8049d6f:	83 7c 24 70 67       	cmpl   $0x67,0x70(%esp)
 8049d74:	8b 4c 24 34          	mov    0x34(%esp),%ecx
 8049d78:	dd 44 24 20          	fldl   0x20(%esp)
 8049d7c:	74 07                	je     8049d85 <_vfprintf_r+0x16e1>
 8049d7e:	83 7c 24 70 47       	cmpl   $0x47,0x70(%esp)
 8049d83:	75 0b                	jne    8049d90 <_vfprintf_r+0x16ec>
 8049d85:	f6 44 24 4c 01       	testb  $0x1,0x4c(%esp)
 8049d8a:	0f 84 12 08 00 00    	je     804a5a2 <_vfprintf_r+0x1efe>
 8049d90:	8b 54 24 64          	mov    0x64(%esp),%edx
 8049d94:	01 ca                	add    %ecx,%edx
 8049d96:	83 7c 24 70 46       	cmpl   $0x46,0x70(%esp)
 8049d9b:	0f 84 16 07 00 00    	je     804a4b7 <_vfprintf_r+0x1e13>
 8049da1:	d9 ee                	fldz   
 8049da3:	d9 c9                	fxch   %st(1)
 8049da5:	da e9                	fucompp 
 8049da7:	df e0                	fnstsw %ax
 8049da9:	80 e4 45             	and    $0x45,%ah
 8049dac:	80 fc 40             	cmp    $0x40,%ah
 8049daf:	74 1e                	je     8049dcf <_vfprintf_r+0x172b>
 8049db1:	8b 84 24 b0 00 00 00 	mov    0xb0(%esp),%eax
 8049db8:	39 c2                	cmp    %eax,%edx
 8049dba:	0f 86 a3 09 00 00    	jbe    804a763 <_vfprintf_r+0x20bf>
 8049dc0:	c6 00 30             	movb   $0x30,(%eax)
 8049dc3:	40                   	inc    %eax
 8049dc4:	89 84 24 b0 00 00 00 	mov    %eax,0xb0(%esp)
 8049dcb:	39 d0                	cmp    %edx,%eax
 8049dcd:	75 f1                	jne    8049dc0 <_vfprintf_r+0x171c>
 8049dcf:	2b 54 24 64          	sub    0x64(%esp),%edx
 8049dd3:	89 54 24 7c          	mov    %edx,0x7c(%esp)
 8049dd7:	83 7c 24 70 67       	cmpl   $0x67,0x70(%esp)
 8049ddc:	0f 84 a8 05 00 00    	je     804a38a <_vfprintf_r+0x1ce6>
 8049de2:	83 7c 24 70 47       	cmpl   $0x47,0x70(%esp)
 8049de7:	0f 84 9d 05 00 00    	je     804a38a <_vfprintf_r+0x1ce6>
 8049ded:	83 7c 24 70 66       	cmpl   $0x66,0x70(%esp)
 8049df2:	0f 85 5f 09 00 00    	jne    804a757 <_vfprintf_r+0x20b3>
 8049df8:	8b 84 24 a8 00 00 00 	mov    0xa8(%esp),%eax
 8049dff:	85 c0                	test   %eax,%eax
 8049e01:	0f 8e a1 08 00 00    	jle    804a6a8 <_vfprintf_r+0x2004>
 8049e07:	85 db                	test   %ebx,%ebx
 8049e09:	0f 85 76 08 00 00    	jne    804a685 <_vfprintf_r+0x1fe1>
 8049e0f:	f6 44 24 4c 01       	testb  $0x1,0x4c(%esp)
 8049e14:	0f 85 6b 08 00 00    	jne    804a685 <_vfprintf_r+0x1fe1>
 8049e1a:	89 44 24 50          	mov    %eax,0x50(%esp)
 8049e1e:	89 44 24 58          	mov    %eax,0x58(%esp)
 8049e22:	89 84 24 80 00 00 00 	mov    %eax,0x80(%esp)
 8049e29:	80 7c 24 54 00       	cmpb   $0x0,0x54(%esp)
 8049e2e:	0f 85 22 05 00 00    	jne    804a356 <_vfprintf_r+0x1cb2>
 8049e34:	8a 8c 24 a5 00 00 00 	mov    0xa5(%esp),%cl
 8049e3b:	88 4c 24 54          	mov    %cl,0x54(%esp)
 8049e3f:	8b 5c 24 68          	mov    0x68(%esp),%ebx
 8049e43:	89 5c 24 4c          	mov    %ebx,0x4c(%esp)
 8049e47:	c7 44 24 74 00 00 00 	movl   $0x0,0x74(%esp)
 8049e4e:	00 
 8049e4f:	e9 cb f0 ff ff       	jmp    8048f1f <_vfprintf_r+0x87b>
 8049e54:	8b 94 24 8c 05 00 00 	mov    0x58c(%esp),%edx
 8049e5b:	8b 0a                	mov    (%edx),%ecx
 8049e5d:	83 c2 04             	add    $0x4,%edx
 8049e60:	89 94 24 8c 05 00 00 	mov    %edx,0x58c(%esp)
 8049e67:	b0 01                	mov    $0x1,%al
 8049e69:	e9 36 f0 ff ff       	jmp    8048ea4 <_vfprintf_r+0x800>
 8049e6e:	dd 01                	fldl   (%ecx)
 8049e70:	dd 9c 24 88 00 00 00 	fstpl  0x88(%esp)
 8049e77:	83 c1 08             	add    $0x8,%ecx
 8049e7a:	89 8c 24 8c 05 00 00 	mov    %ecx,0x58c(%esp)
 8049e81:	e9 1c f2 ff ff       	jmp    80490a2 <_vfprintf_r+0x9fe>
 8049e86:	8b 8c 24 8c 05 00 00 	mov    0x58c(%esp),%ecx
 8049e8d:	8b 01                	mov    (%ecx),%eax
 8049e8f:	f6 44 24 4c 40       	testb  $0x40,0x4c(%esp)
 8049e94:	0f 84 64 02 00 00    	je     804a0fe <_vfprintf_r+0x1a5a>
 8049e9a:	8b 5c 24 5c          	mov    0x5c(%esp),%ebx
 8049e9e:	66 89 18             	mov    %bx,(%eax)
 8049ea1:	83 c1 04             	add    $0x4,%ecx
 8049ea4:	89 8c 24 8c 05 00 00 	mov    %ecx,0x58c(%esp)
 8049eab:	e9 f0 e8 ff ff       	jmp    80487a0 <_vfprintf_r+0xfc>
 8049eb0:	8b 94 24 8c 05 00 00 	mov    0x58c(%esp),%edx
 8049eb7:	8b 0a                	mov    (%edx),%ecx
 8049eb9:	83 c2 04             	add    $0x4,%edx
 8049ebc:	89 94 24 8c 05 00 00 	mov    %edx,0x58c(%esp)
 8049ec3:	e9 f4 f0 ff ff       	jmp    8048fbc <_vfprintf_r+0x918>
 8049ec8:	8b 94 24 8c 05 00 00 	mov    0x58c(%esp),%edx
 8049ecf:	8b 0a                	mov    (%edx),%ecx
 8049ed1:	83 c2 04             	add    $0x4,%edx
 8049ed4:	89 94 24 8c 05 00 00 	mov    %edx,0x58c(%esp)
 8049edb:	31 c0                	xor    %eax,%eax
 8049edd:	e9 c2 ef ff ff       	jmp    8048ea4 <_vfprintf_r+0x800>
 8049ee2:	89 f3                	mov    %esi,%ebx
 8049ee4:	8b 74 24 54          	mov    0x54(%esp),%esi
 8049ee8:	c7 45 00 70 06 05 08 	movl   $0x8050670,0x0(%ebp)
 8049eef:	89 5d 04             	mov    %ebx,0x4(%ebp)
 8049ef2:	01 9c 24 cc 00 00 00 	add    %ebx,0xcc(%esp)
 8049ef9:	41                   	inc    %ecx
 8049efa:	89 8c 24 c8 00 00 00 	mov    %ecx,0xc8(%esp)
 8049f01:	83 f9 07             	cmp    $0x7,%ecx
 8049f04:	0f 8f 04 fb ff ff    	jg     8049a0e <_vfprintf_r+0x136a>
 8049f0a:	83 c5 08             	add    $0x8,%ebp
 8049f0d:	e9 29 fb ff ff       	jmp    8049a3b <_vfprintf_r+0x1397>
 8049f12:	8d 84 24 c4 00 00 00 	lea    0xc4(%esp),%eax
 8049f19:	89 44 24 08          	mov    %eax,0x8(%esp)
 8049f1d:	89 7c 24 04          	mov    %edi,0x4(%esp)
 8049f21:	8b 8c 24 80 05 00 00 	mov    0x580(%esp),%ecx
 8049f28:	89 0c 24             	mov    %ecx,(%esp)
 8049f2b:	e8 1c 42 00 00       	call   804e14c <__sprint_r>
 8049f30:	85 c0                	test   %eax,%eax
 8049f32:	0f 85 24 ee ff ff    	jne    8048d5c <_vfprintf_r+0x6b8>
 8049f38:	8d ac 24 60 01 00 00 	lea    0x160(%esp),%ebp
 8049f3f:	e9 20 f4 ff ff       	jmp    8049364 <_vfprintf_r+0xcc0>
 8049f44:	c7 45 00 f7 04 05 08 	movl   $0x80504f7,0x0(%ebp)
 8049f4b:	c7 45 04 01 00 00 00 	movl   $0x1,0x4(%ebp)
 8049f52:	ff 84 24 cc 00 00 00 	incl   0xcc(%esp)
 8049f59:	8b 8c 24 c8 00 00 00 	mov    0xc8(%esp),%ecx
 8049f60:	41                   	inc    %ecx
 8049f61:	89 8c 24 c8 00 00 00 	mov    %ecx,0xc8(%esp)
 8049f68:	83 f9 07             	cmp    $0x7,%ecx
 8049f6b:	0f 8f af 01 00 00    	jg     804a120 <_vfprintf_r+0x1a7c>
 8049f71:	83 c5 08             	add    $0x8,%ebp
 8049f74:	85 db                	test   %ebx,%ebx
 8049f76:	75 13                	jne    8049f8b <_vfprintf_r+0x18e7>
 8049f78:	8b 54 24 7c          	mov    0x7c(%esp),%edx
 8049f7c:	85 d2                	test   %edx,%edx
 8049f7e:	75 0b                	jne    8049f8b <_vfprintf_r+0x18e7>
 8049f80:	f6 44 24 4c 01       	testb  $0x1,0x4c(%esp)
 8049f85:	0f 84 5d eb ff ff    	je     8048ae8 <_vfprintf_r+0x444>
 8049f8b:	8b 4c 24 78          	mov    0x78(%esp),%ecx
 8049f8f:	89 4d 00             	mov    %ecx,0x0(%ebp)
 8049f92:	8b 84 24 84 00 00 00 	mov    0x84(%esp),%eax
 8049f99:	89 45 04             	mov    %eax,0x4(%ebp)
 8049f9c:	01 84 24 cc 00 00 00 	add    %eax,0xcc(%esp)
 8049fa3:	8b 8c 24 c8 00 00 00 	mov    0xc8(%esp),%ecx
 8049faa:	41                   	inc    %ecx
 8049fab:	89 8c 24 c8 00 00 00 	mov    %ecx,0xc8(%esp)
 8049fb2:	83 f9 07             	cmp    $0x7,%ecx
 8049fb5:	0f 8f 5b 05 00 00    	jg     804a516 <_vfprintf_r+0x1e72>
 8049fbb:	83 c5 08             	add    $0x8,%ebp
 8049fbe:	f7 db                	neg    %ebx
 8049fc0:	85 db                	test   %ebx,%ebx
 8049fc2:	0f 8e 39 02 00 00    	jle    804a201 <_vfprintf_r+0x1b5d>
 8049fc8:	83 fb 10             	cmp    $0x10,%ebx
 8049fcb:	0f 8e 7f 02 00 00    	jle    804a250 <_vfprintf_r+0x1bac>
 8049fd1:	89 74 24 58          	mov    %esi,0x58(%esp)
 8049fd5:	89 de                	mov    %ebx,%esi
 8049fd7:	8b 9c 24 80 05 00 00 	mov    0x580(%esp),%ebx
 8049fde:	eb 0f                	jmp    8049fef <_vfprintf_r+0x194b>
 8049fe0:	83 c5 08             	add    $0x8,%ebp
 8049fe3:	83 ee 10             	sub    $0x10,%esi
 8049fe6:	83 fe 10             	cmp    $0x10,%esi
 8049fe9:	0f 8e 5b 02 00 00    	jle    804a24a <_vfprintf_r+0x1ba6>
 8049fef:	c7 45 00 70 06 05 08 	movl   $0x8050670,0x0(%ebp)
 8049ff6:	c7 45 04 10 00 00 00 	movl   $0x10,0x4(%ebp)
 8049ffd:	83 84 24 cc 00 00 00 	addl   $0x10,0xcc(%esp)
 804a004:	10 
 804a005:	41                   	inc    %ecx
 804a006:	89 8c 24 c8 00 00 00 	mov    %ecx,0xc8(%esp)
 804a00d:	83 f9 07             	cmp    $0x7,%ecx
 804a010:	7e ce                	jle    8049fe0 <_vfprintf_r+0x193c>
 804a012:	8d 84 24 c4 00 00 00 	lea    0xc4(%esp),%eax
 804a019:	89 44 24 08          	mov    %eax,0x8(%esp)
 804a01d:	89 7c 24 04          	mov    %edi,0x4(%esp)
 804a021:	89 1c 24             	mov    %ebx,(%esp)
 804a024:	e8 23 41 00 00       	call   804e14c <__sprint_r>
 804a029:	85 c0                	test   %eax,%eax
 804a02b:	0f 85 2b ed ff ff    	jne    8048d5c <_vfprintf_r+0x6b8>
 804a031:	8d ac 24 60 01 00 00 	lea    0x160(%esp),%ebp
 804a038:	8b 8c 24 c8 00 00 00 	mov    0xc8(%esp),%ecx
 804a03f:	eb a2                	jmp    8049fe3 <_vfprintf_r+0x193f>
 804a041:	8d 84 24 c4 00 00 00 	lea    0xc4(%esp),%eax
 804a048:	89 44 24 08          	mov    %eax,0x8(%esp)
 804a04c:	89 7c 24 04          	mov    %edi,0x4(%esp)
 804a050:	8b 8c 24 80 05 00 00 	mov    0x580(%esp),%ecx
 804a057:	89 0c 24             	mov    %ecx,(%esp)
 804a05a:	e8 ed 40 00 00       	call   804e14c <__sprint_r>
 804a05f:	85 c0                	test   %eax,%eax
 804a061:	0f 85 f5 ec ff ff    	jne    8048d5c <_vfprintf_r+0x6b8>
 804a067:	8d ac 24 60 01 00 00 	lea    0x160(%esp),%ebp
 804a06e:	8b 8c 24 c8 00 00 00 	mov    0xc8(%esp),%ecx
 804a075:	e9 31 f5 ff ff       	jmp    80495ab <_vfprintf_r+0xf07>
 804a07a:	83 7c 24 70 47       	cmpl   $0x47,0x70(%esp)
 804a07f:	0f 8f c4 02 00 00    	jg     804a349 <_vfprintf_r+0x1ca5>
 804a085:	c7 44 24 64 c6 04 05 	movl   $0x80504c6,0x64(%esp)
 804a08c:	08 
 804a08d:	81 64 24 4c 7f ff ff 	andl   $0xffffff7f,0x4c(%esp)
 804a094:	ff 
 804a095:	8a 8c 24 a5 00 00 00 	mov    0xa5(%esp),%cl
 804a09c:	88 4c 24 54          	mov    %cl,0x54(%esp)
 804a0a0:	c7 44 24 50 03 00 00 	movl   $0x3,0x50(%esp)
 804a0a7:	00 
 804a0a8:	c7 44 24 58 03 00 00 	movl   $0x3,0x58(%esp)
 804a0af:	00 
 804a0b0:	c7 44 24 74 00 00 00 	movl   $0x0,0x74(%esp)
 804a0b7:	00 
 804a0b8:	c7 84 24 80 00 00 00 	movl   $0x0,0x80(%esp)
 804a0bf:	00 00 00 00 
 804a0c3:	e9 57 ee ff ff       	jmp    8048f1f <_vfprintf_r+0x87b>
 804a0c8:	89 5c 24 50          	mov    %ebx,0x50(%esp)
 804a0cc:	8a 9c 24 a5 00 00 00 	mov    0xa5(%esp),%bl
 804a0d3:	88 5c 24 54          	mov    %bl,0x54(%esp)
 804a0d7:	8b 4c 24 50          	mov    0x50(%esp),%ecx
 804a0db:	89 4c 24 58          	mov    %ecx,0x58(%esp)
 804a0df:	89 94 24 8c 05 00 00 	mov    %edx,0x58c(%esp)
 804a0e6:	c7 44 24 74 00 00 00 	movl   $0x0,0x74(%esp)
 804a0ed:	00 
 804a0ee:	c7 84 24 80 00 00 00 	movl   $0x0,0x80(%esp)
 804a0f5:	00 00 00 00 
 804a0f9:	e9 21 ee ff ff       	jmp    8048f1f <_vfprintf_r+0x87b>
 804a0fe:	8b 5c 24 5c          	mov    0x5c(%esp),%ebx
 804a102:	89 18                	mov    %ebx,(%eax)
 804a104:	83 c1 04             	add    $0x4,%ecx
 804a107:	89 8c 24 8c 05 00 00 	mov    %ecx,0x58c(%esp)
 804a10e:	e9 8d e6 ff ff       	jmp    80487a0 <_vfprintf_r+0xfc>
 804a113:	c7 44 24 64 be 04 05 	movl   $0x80504be,0x64(%esp)
 804a11a:	08 
 804a11b:	e9 ce ef ff ff       	jmp    80490ee <_vfprintf_r+0xa4a>
 804a120:	8d 9c 24 c4 00 00 00 	lea    0xc4(%esp),%ebx
 804a127:	89 5c 24 08          	mov    %ebx,0x8(%esp)
 804a12b:	89 7c 24 04          	mov    %edi,0x4(%esp)
 804a12f:	8b 8c 24 80 05 00 00 	mov    0x580(%esp),%ecx
 804a136:	89 0c 24             	mov    %ecx,(%esp)
 804a139:	e8 0e 40 00 00       	call   804e14c <__sprint_r>
 804a13e:	85 c0                	test   %eax,%eax
 804a140:	0f 85 16 ec ff ff    	jne    8048d5c <_vfprintf_r+0x6b8>
 804a146:	8b 9c 24 a8 00 00 00 	mov    0xa8(%esp),%ebx
 804a14d:	8d ac 24 60 01 00 00 	lea    0x160(%esp),%ebp
 804a154:	e9 1b fe ff ff       	jmp    8049f74 <_vfprintf_r+0x18d0>
 804a159:	8d 94 24 c4 00 00 00 	lea    0xc4(%esp),%edx
 804a160:	89 54 24 08          	mov    %edx,0x8(%esp)
 804a164:	89 7c 24 04          	mov    %edi,0x4(%esp)
 804a168:	8b 8c 24 80 05 00 00 	mov    0x580(%esp),%ecx
 804a16f:	89 0c 24             	mov    %ecx,(%esp)
 804a172:	e8 d5 3f 00 00       	call   804e14c <__sprint_r>
 804a177:	85 c0                	test   %eax,%eax
 804a179:	0f 85 dd eb ff ff    	jne    8048d5c <_vfprintf_r+0x6b8>
 804a17f:	8d ac 24 60 01 00 00 	lea    0x160(%esp),%ebp
 804a186:	e9 24 f2 ff ff       	jmp    80493af <_vfprintf_r+0xd0b>
 804a18b:	8b 44 24 44          	mov    0x44(%esp),%eax
 804a18f:	2b 44 24 64          	sub    0x64(%esp),%eax
 804a193:	89 44 24 58          	mov    %eax,0x58(%esp)
 804a197:	e9 64 ed ff ff       	jmp    8048f00 <_vfprintf_r+0x85c>
 804a19c:	8b 44 24 64          	mov    0x64(%esp),%eax
 804a1a0:	89 04 24             	mov    %eax,(%esp)
 804a1a3:	89 54 24 34          	mov    %edx,0x34(%esp)
 804a1a7:	e8 24 3f 00 00       	call   804e0d0 <strlen>
 804a1ac:	89 44 24 58          	mov    %eax,0x58(%esp)
 804a1b0:	89 44 24 50          	mov    %eax,0x50(%esp)
 804a1b4:	85 c0                	test   %eax,%eax
 804a1b6:	8b 54 24 34          	mov    0x34(%esp),%edx
 804a1ba:	0f 89 7c ec ff ff    	jns    8048e3c <_vfprintf_r+0x798>
 804a1c0:	c7 44 24 50 00 00 00 	movl   $0x0,0x50(%esp)
 804a1c7:	00 
 804a1c8:	e9 6f ec ff ff       	jmp    8048e3c <_vfprintf_r+0x798>
 804a1cd:	8d 94 24 c4 00 00 00 	lea    0xc4(%esp),%edx
 804a1d4:	89 54 24 08          	mov    %edx,0x8(%esp)
 804a1d8:	89 7c 24 04          	mov    %edi,0x4(%esp)
 804a1dc:	8b 8c 24 80 05 00 00 	mov    0x580(%esp),%ecx
 804a1e3:	89 0c 24             	mov    %ecx,(%esp)
 804a1e6:	e8 61 3f 00 00       	call   804e14c <__sprint_r>
 804a1eb:	85 c0                	test   %eax,%eax
 804a1ed:	0f 85 69 eb ff ff    	jne    8048d5c <_vfprintf_r+0x6b8>
 804a1f3:	8d ac 24 60 01 00 00 	lea    0x160(%esp),%ebp
 804a1fa:	8b 8c 24 c8 00 00 00 	mov    0xc8(%esp),%ecx
 804a201:	8b 44 24 64          	mov    0x64(%esp),%eax
 804a205:	89 45 00             	mov    %eax,0x0(%ebp)
 804a208:	8b 5c 24 7c          	mov    0x7c(%esp),%ebx
 804a20c:	e9 ab f3 ff ff       	jmp    80495bc <_vfprintf_r+0xf18>
 804a211:	31 db                	xor    %ebx,%ebx
 804a213:	e9 ca f5 ff ff       	jmp    80497e2 <_vfprintf_r+0x113e>
 804a218:	8d 94 24 c4 00 00 00 	lea    0xc4(%esp),%edx
 804a21f:	89 54 24 08          	mov    %edx,0x8(%esp)
 804a223:	89 7c 24 04          	mov    %edi,0x4(%esp)
 804a227:	8b 8c 24 80 05 00 00 	mov    0x580(%esp),%ecx
 804a22e:	89 0c 24             	mov    %ecx,(%esp)
 804a231:	e8 16 3f 00 00       	call   804e14c <__sprint_r>
 804a236:	85 c0                	test   %eax,%eax
 804a238:	0f 85 1e eb ff ff    	jne    8048d5c <_vfprintf_r+0x6b8>
 804a23e:	8d ac 24 60 01 00 00 	lea    0x160(%esp),%ebp
 804a245:	e9 90 f5 ff ff       	jmp    80497da <_vfprintf_r+0x1136>
 804a24a:	89 f3                	mov    %esi,%ebx
 804a24c:	8b 74 24 58          	mov    0x58(%esp),%esi
 804a250:	c7 45 00 70 06 05 08 	movl   $0x8050670,0x0(%ebp)
 804a257:	89 5d 04             	mov    %ebx,0x4(%ebp)
 804a25a:	01 9c 24 cc 00 00 00 	add    %ebx,0xcc(%esp)
 804a261:	41                   	inc    %ecx
 804a262:	89 8c 24 c8 00 00 00 	mov    %ecx,0xc8(%esp)
 804a269:	83 f9 07             	cmp    $0x7,%ecx
 804a26c:	0f 8f 5b ff ff ff    	jg     804a1cd <_vfprintf_r+0x1b29>
 804a272:	83 c5 08             	add    $0x8,%ebp
 804a275:	eb 8a                	jmp    804a201 <_vfprintf_r+0x1b5d>
 804a277:	8d 9c 24 c4 00 00 00 	lea    0xc4(%esp),%ebx
 804a27e:	89 5c 24 08          	mov    %ebx,0x8(%esp)
 804a282:	89 7c 24 04          	mov    %edi,0x4(%esp)
 804a286:	8b 8c 24 80 05 00 00 	mov    0x580(%esp),%ecx
 804a28d:	89 0c 24             	mov    %ecx,(%esp)
 804a290:	89 54 24 34          	mov    %edx,0x34(%esp)
 804a294:	e8 b3 3e 00 00       	call   804e14c <__sprint_r>
 804a299:	85 c0                	test   %eax,%eax
 804a29b:	8b 54 24 34          	mov    0x34(%esp),%edx
 804a29f:	0f 85 b7 ea ff ff    	jne    8048d5c <_vfprintf_r+0x6b8>
 804a2a5:	8b 84 24 a8 00 00 00 	mov    0xa8(%esp),%eax
 804a2ac:	8d ac 24 60 01 00 00 	lea    0x160(%esp),%ebp
 804a2b3:	e9 aa f7 ff ff       	jmp    8049a62 <_vfprintf_r+0x13be>
 804a2b8:	89 5c 24 58          	mov    %ebx,0x58(%esp)
 804a2bc:	83 fb 06             	cmp    $0x6,%ebx
 804a2bf:	76 08                	jbe    804a2c9 <_vfprintf_r+0x1c25>
 804a2c1:	c7 44 24 58 06 00 00 	movl   $0x6,0x58(%esp)
 804a2c8:	00 
 804a2c9:	8b 44 24 58          	mov    0x58(%esp),%eax
 804a2cd:	89 44 24 50          	mov    %eax,0x50(%esp)
 804a2d1:	85 c0                	test   %eax,%eax
 804a2d3:	0f 88 7f 03 00 00    	js     804a658 <_vfprintf_r+0x1fb4>
 804a2d9:	89 94 24 8c 05 00 00 	mov    %edx,0x58c(%esp)
 804a2e0:	c6 44 24 54 00       	movb   $0x0,0x54(%esp)
 804a2e5:	c7 44 24 74 00 00 00 	movl   $0x0,0x74(%esp)
 804a2ec:	00 
 804a2ed:	c7 84 24 80 00 00 00 	movl   $0x0,0x80(%esp)
 804a2f4:	00 00 00 00 
 804a2f8:	c7 44 24 64 f0 04 05 	movl   $0x80504f0,0x64(%esp)
 804a2ff:	08 
 804a300:	e9 7b e5 ff ff       	jmp    8048880 <_vfprintf_r+0x1dc>
 804a305:	31 db                	xor    %ebx,%ebx
 804a307:	e9 9e f7 ff ff       	jmp    8049aaa <_vfprintf_r+0x1406>
 804a30c:	8d 84 24 c4 00 00 00 	lea    0xc4(%esp),%eax
 804a313:	89 44 24 08          	mov    %eax,0x8(%esp)
 804a317:	89 7c 24 04          	mov    %edi,0x4(%esp)
 804a31b:	8b 8c 24 80 05 00 00 	mov    0x580(%esp),%ecx
 804a322:	89 0c 24             	mov    %ecx,(%esp)
 804a325:	e8 22 3e 00 00       	call   804e14c <__sprint_r>
 804a32a:	85 c0                	test   %eax,%eax
 804a32c:	0f 85 2a ea ff ff    	jne    8048d5c <_vfprintf_r+0x6b8>
 804a332:	8b 44 24 7c          	mov    0x7c(%esp),%eax
 804a336:	2b 84 24 a8 00 00 00 	sub    0xa8(%esp),%eax
 804a33d:	8d ac 24 60 01 00 00 	lea    0x160(%esp),%ebp
 804a344:	e9 59 f7 ff ff       	jmp    8049aa2 <_vfprintf_r+0x13fe>
 804a349:	c7 44 24 64 ca 04 05 	movl   $0x80504ca,0x64(%esp)
 804a350:	08 
 804a351:	e9 37 fd ff ff       	jmp    804a08d <_vfprintf_r+0x19e9>
 804a356:	c6 84 24 a5 00 00 00 	movb   $0x2d,0xa5(%esp)
 804a35d:	2d 
 804a35e:	8b 4c 24 68          	mov    0x68(%esp),%ecx
 804a362:	89 4c 24 4c          	mov    %ecx,0x4c(%esp)
 804a366:	c6 44 24 54 2d       	movb   $0x2d,0x54(%esp)
 804a36b:	c7 44 24 74 00 00 00 	movl   $0x0,0x74(%esp)
 804a372:	00 
 804a373:	e9 b2 eb ff ff       	jmp    8048f2a <_vfprintf_r+0x886>
 804a378:	c6 84 24 a5 00 00 00 	movb   $0x2d,0xa5(%esp)
 804a37f:	2d 
 804a380:	c6 44 24 54 2d       	movb   $0x2d,0x54(%esp)
 804a385:	e9 51 ed ff ff       	jmp    80490db <_vfprintf_r+0xa37>
 804a38a:	8b 84 24 a8 00 00 00 	mov    0xa8(%esp),%eax
 804a391:	89 c1                	mov    %eax,%ecx
 804a393:	83 f8 fd             	cmp    $0xfffffffd,%eax
 804a396:	7c 08                	jl     804a3a0 <_vfprintf_r+0x1cfc>
 804a398:	39 c3                	cmp    %eax,%ebx
 804a39a:	0f 8d 93 00 00 00    	jge    804a433 <_vfprintf_r+0x1d8f>
 804a3a0:	83 6c 24 70 02       	subl   $0x2,0x70(%esp)
 804a3a5:	49                   	dec    %ecx
 804a3a6:	89 8c 24 a8 00 00 00 	mov    %ecx,0xa8(%esp)
 804a3ad:	8a 54 24 70          	mov    0x70(%esp),%dl
 804a3b1:	88 94 24 b6 00 00 00 	mov    %dl,0xb6(%esp)
 804a3b8:	85 c9                	test   %ecx,%ecx
 804a3ba:	0f 88 58 03 00 00    	js     804a718 <_vfprintf_r+0x2074>
 804a3c0:	c6 84 24 b7 00 00 00 	movb   $0x2b,0xb7(%esp)
 804a3c7:	2b 
 804a3c8:	83 f9 09             	cmp    $0x9,%ecx
 804a3cb:	0f 8f df 01 00 00    	jg     804a5b0 <_vfprintf_r+0x1f0c>
 804a3d1:	c6 84 24 b8 00 00 00 	movb   $0x30,0xb8(%esp)
 804a3d8:	30 
 804a3d9:	83 c1 30             	add    $0x30,%ecx
 804a3dc:	88 8c 24 b9 00 00 00 	mov    %cl,0xb9(%esp)
 804a3e3:	8d 84 24 ba 00 00 00 	lea    0xba(%esp),%eax
 804a3ea:	8d 94 24 b6 00 00 00 	lea    0xb6(%esp),%edx
 804a3f1:	29 d0                	sub    %edx,%eax
 804a3f3:	89 84 24 90 00 00 00 	mov    %eax,0x90(%esp)
 804a3fa:	8b 54 24 7c          	mov    0x7c(%esp),%edx
 804a3fe:	01 c2                	add    %eax,%edx
 804a400:	89 54 24 58          	mov    %edx,0x58(%esp)
 804a404:	83 7c 24 7c 01       	cmpl   $0x1,0x7c(%esp)
 804a409:	0f 8e 24 03 00 00    	jle    804a733 <_vfprintf_r+0x208f>
 804a40f:	ff 44 24 58          	incl   0x58(%esp)
 804a413:	8b 44 24 58          	mov    0x58(%esp),%eax
 804a417:	89 44 24 50          	mov    %eax,0x50(%esp)
 804a41b:	85 c0                	test   %eax,%eax
 804a41d:	0f 88 27 03 00 00    	js     804a74a <_vfprintf_r+0x20a6>
 804a423:	c7 84 24 80 00 00 00 	movl   $0x0,0x80(%esp)
 804a42a:	00 00 00 00 
 804a42e:	e9 f6 f9 ff ff       	jmp    8049e29 <_vfprintf_r+0x1785>
 804a433:	3b 44 24 7c          	cmp    0x7c(%esp),%eax
 804a437:	0f 8c 2f 01 00 00    	jl     804a56c <_vfprintf_r+0x1ec8>
 804a43d:	f6 44 24 4c 01       	testb  $0x1,0x4c(%esp)
 804a442:	0f 85 1d 02 00 00    	jne    804a665 <_vfprintf_r+0x1fc1>
 804a448:	89 44 24 50          	mov    %eax,0x50(%esp)
 804a44c:	85 c0                	test   %eax,%eax
 804a44e:	0f 88 22 03 00 00    	js     804a776 <_vfprintf_r+0x20d2>
 804a454:	89 4c 24 58          	mov    %ecx,0x58(%esp)
 804a458:	c7 44 24 70 67 00 00 	movl   $0x67,0x70(%esp)
 804a45f:	00 
 804a460:	e9 bd f9 ff ff       	jmp    8049e22 <_vfprintf_r+0x177e>
 804a465:	8d 84 24 b0 00 00 00 	lea    0xb0(%esp),%eax
 804a46c:	89 44 24 1c          	mov    %eax,0x1c(%esp)
 804a470:	8d 84 24 ac 00 00 00 	lea    0xac(%esp),%eax
 804a477:	89 44 24 18          	mov    %eax,0x18(%esp)
 804a47b:	8d 84 24 a8 00 00 00 	lea    0xa8(%esp),%eax
 804a482:	89 44 24 14          	mov    %eax,0x14(%esp)
 804a486:	89 5c 24 10          	mov    %ebx,0x10(%esp)
 804a48a:	c7 44 24 0c 03 00 00 	movl   $0x3,0xc(%esp)
 804a491:	00 
 804a492:	dd 54 24 04          	fstl   0x4(%esp)
 804a496:	8b 8c 24 80 05 00 00 	mov    0x580(%esp),%ecx
 804a49d:	89 0c 24             	mov    %ecx,(%esp)
 804a4a0:	dd 5c 24 20          	fstpl  0x20(%esp)
 804a4a4:	e8 47 07 00 00       	call   804abf0 <_dtoa_r>
 804a4a9:	89 44 24 64          	mov    %eax,0x64(%esp)
 804a4ad:	89 c2                	mov    %eax,%edx
 804a4af:	01 da                	add    %ebx,%edx
 804a4b1:	89 d9                	mov    %ebx,%ecx
 804a4b3:	dd 44 24 20          	fldl   0x20(%esp)
 804a4b7:	8b 44 24 64          	mov    0x64(%esp),%eax
 804a4bb:	80 38 30             	cmpb   $0x30,(%eax)
 804a4be:	0f 84 69 01 00 00    	je     804a62d <_vfprintf_r+0x1f89>
 804a4c4:	8b 84 24 a8 00 00 00 	mov    0xa8(%esp),%eax
 804a4cb:	01 c2                	add    %eax,%edx
 804a4cd:	e9 cf f8 ff ff       	jmp    8049da1 <_vfprintf_r+0x16fd>
 804a4d2:	89 5c 24 50          	mov    %ebx,0x50(%esp)
 804a4d6:	8a 8c 24 a5 00 00 00 	mov    0xa5(%esp),%cl
 804a4dd:	88 4c 24 54          	mov    %cl,0x54(%esp)
 804a4e1:	89 5c 24 58          	mov    %ebx,0x58(%esp)
 804a4e5:	89 94 24 8c 05 00 00 	mov    %edx,0x58c(%esp)
 804a4ec:	c7 44 24 74 00 00 00 	movl   $0x0,0x74(%esp)
 804a4f3:	00 
 804a4f4:	c7 84 24 80 00 00 00 	movl   $0x0,0x80(%esp)
 804a4fb:	00 00 00 00 
 804a4ff:	e9 1b ea ff ff       	jmp    8048f1f <_vfprintf_r+0x87b>
 804a504:	85 db                	test   %ebx,%ebx
 804a506:	0f 85 c3 f7 ff ff    	jne    8049ccf <_vfprintf_r+0x162b>
 804a50c:	bb 01 00 00 00       	mov    $0x1,%ebx
 804a511:	e9 b9 f7 ff ff       	jmp    8049ccf <_vfprintf_r+0x162b>
 804a516:	8d 94 24 c4 00 00 00 	lea    0xc4(%esp),%edx
 804a51d:	89 54 24 08          	mov    %edx,0x8(%esp)
 804a521:	89 7c 24 04          	mov    %edi,0x4(%esp)
 804a525:	8b 8c 24 80 05 00 00 	mov    0x580(%esp),%ecx
 804a52c:	89 0c 24             	mov    %ecx,(%esp)
 804a52f:	e8 18 3c 00 00       	call   804e14c <__sprint_r>
 804a534:	85 c0                	test   %eax,%eax
 804a536:	0f 85 20 e8 ff ff    	jne    8048d5c <_vfprintf_r+0x6b8>
 804a53c:	8b 9c 24 a8 00 00 00 	mov    0xa8(%esp),%ebx
 804a543:	8d ac 24 60 01 00 00 	lea    0x160(%esp),%ebp
 804a54a:	8b 8c 24 c8 00 00 00 	mov    0xc8(%esp),%ecx
 804a551:	e9 68 fa ff ff       	jmp    8049fbe <_vfprintf_r+0x191a>
 804a556:	bb 06 00 00 00       	mov    $0x6,%ebx
 804a55b:	e9 6f f7 ff ff       	jmp    8049ccf <_vfprintf_r+0x162b>
 804a560:	d9 e0                	fchs   
 804a562:	c6 44 24 54 2d       	movb   $0x2d,0x54(%esp)
 804a567:	e9 89 f7 ff ff       	jmp    8049cf5 <_vfprintf_r+0x1651>
 804a56c:	85 c0                	test   %eax,%eax
 804a56e:	0f 8e b3 01 00 00    	jle    804a727 <_vfprintf_r+0x2083>
 804a574:	ba 01 00 00 00       	mov    $0x1,%edx
 804a579:	03 54 24 7c          	add    0x7c(%esp),%edx
 804a57d:	89 54 24 58          	mov    %edx,0x58(%esp)
 804a581:	89 54 24 50          	mov    %edx,0x50(%esp)
 804a585:	85 d2                	test   %edx,%edx
 804a587:	0f 88 eb 00 00 00    	js     804a678 <_vfprintf_r+0x1fd4>
 804a58d:	c7 44 24 70 67 00 00 	movl   $0x67,0x70(%esp)
 804a594:	00 
 804a595:	e9 88 f8 ff ff       	jmp    8049e22 <_vfprintf_r+0x177e>
 804a59a:	8d 4b 01             	lea    0x1(%ebx),%ecx
 804a59d:	e9 81 f7 ff ff       	jmp    8049d23 <_vfprintf_r+0x167f>
 804a5a2:	dd d8                	fstp   %st(0)
 804a5a4:	8b 94 24 b0 00 00 00 	mov    0xb0(%esp),%edx
 804a5ab:	e9 1f f8 ff ff       	jmp    8049dcf <_vfprintf_r+0x172b>
 804a5b0:	8d 9c 24 c4 00 00 00 	lea    0xc4(%esp),%ebx
 804a5b7:	89 74 24 58          	mov    %esi,0x58(%esp)
 804a5bb:	4b                   	dec    %ebx
 804a5bc:	89 c8                	mov    %ecx,%eax
 804a5be:	be 0a 00 00 00       	mov    $0xa,%esi
 804a5c3:	99                   	cltd   
 804a5c4:	f7 fe                	idiv   %esi
 804a5c6:	89 54 24 50          	mov    %edx,0x50(%esp)
 804a5ca:	8a 54 24 50          	mov    0x50(%esp),%dl
 804a5ce:	83 c2 30             	add    $0x30,%edx
 804a5d1:	88 13                	mov    %dl,(%ebx)
 804a5d3:	b8 67 66 66 66       	mov    $0x66666667,%eax
 804a5d8:	f7 e9                	imul   %ecx
 804a5da:	c1 fa 02             	sar    $0x2,%edx
 804a5dd:	c1 f9 1f             	sar    $0x1f,%ecx
 804a5e0:	29 ca                	sub    %ecx,%edx
 804a5e2:	89 d1                	mov    %edx,%ecx
 804a5e4:	83 fa 09             	cmp    $0x9,%edx
 804a5e7:	7f d2                	jg     804a5bb <_vfprintf_r+0x1f17>
 804a5e9:	8b 74 24 58          	mov    0x58(%esp),%esi
 804a5ed:	8d 43 ff             	lea    -0x1(%ebx),%eax
 804a5f0:	83 c1 30             	add    $0x30,%ecx
 804a5f3:	88 4b ff             	mov    %cl,-0x1(%ebx)
 804a5f6:	3b 44 24 48          	cmp    0x48(%esp),%eax
 804a5fa:	0f 83 6a 01 00 00    	jae    804a76a <_vfprintf_r+0x20c6>
 804a600:	8d 94 24 b8 00 00 00 	lea    0xb8(%esp),%edx
 804a607:	eb 05                	jmp    804a60e <_vfprintf_r+0x1f6a>
 804a609:	8d 76 00             	lea    0x0(%esi),%esi
 804a60c:	8a 08                	mov    (%eax),%cl
 804a60e:	88 0a                	mov    %cl,(%edx)
 804a610:	42                   	inc    %edx
 804a611:	40                   	inc    %eax
 804a612:	3b 44 24 48          	cmp    0x48(%esp),%eax
 804a616:	75 f4                	jne    804a60c <_vfprintf_r+0x1f68>
 804a618:	8d 84 24 60 05 00 00 	lea    0x560(%esp),%eax
 804a61f:	29 d8                	sub    %ebx,%eax
 804a621:	8d 84 04 1d fc ff ff 	lea    -0x3e3(%esp,%eax,1),%eax
 804a628:	e9 bd fd ff ff       	jmp    804a3ea <_vfprintf_r+0x1d46>
 804a62d:	d9 ee                	fldz   
 804a62f:	d9 c9                	fxch   %st(1)
 804a631:	dd e1                	fucom  %st(1)
 804a633:	df e0                	fnstsw %ax
 804a635:	dd d9                	fstp   %st(1)
 804a637:	80 e4 45             	and    $0x45,%ah
 804a63a:	80 f4 40             	xor    $0x40,%ah
 804a63d:	0f 84 81 fe ff ff    	je     804a4c4 <_vfprintf_r+0x1e20>
 804a643:	b8 01 00 00 00       	mov    $0x1,%eax
 804a648:	29 c8                	sub    %ecx,%eax
 804a64a:	89 84 24 a8 00 00 00 	mov    %eax,0xa8(%esp)
 804a651:	01 c2                	add    %eax,%edx
 804a653:	e9 49 f7 ff ff       	jmp    8049da1 <_vfprintf_r+0x16fd>
 804a658:	c7 44 24 50 00 00 00 	movl   $0x0,0x50(%esp)
 804a65f:	00 
 804a660:	e9 74 fc ff ff       	jmp    804a2d9 <_vfprintf_r+0x1c35>
 804a665:	8d 50 01             	lea    0x1(%eax),%edx
 804a668:	89 54 24 58          	mov    %edx,0x58(%esp)
 804a66c:	89 54 24 50          	mov    %edx,0x50(%esp)
 804a670:	85 d2                	test   %edx,%edx
 804a672:	0f 89 15 ff ff ff    	jns    804a58d <_vfprintf_r+0x1ee9>
 804a678:	c7 44 24 50 00 00 00 	movl   $0x0,0x50(%esp)
 804a67f:	00 
 804a680:	e9 08 ff ff ff       	jmp    804a58d <_vfprintf_r+0x1ee9>
 804a685:	8d 5c 03 01          	lea    0x1(%ebx,%eax,1),%ebx
 804a689:	89 5c 24 58          	mov    %ebx,0x58(%esp)
 804a68d:	89 5c 24 50          	mov    %ebx,0x50(%esp)
 804a691:	85 db                	test   %ebx,%ebx
 804a693:	0f 89 89 f7 ff ff    	jns    8049e22 <_vfprintf_r+0x177e>
 804a699:	c7 44 24 50 00 00 00 	movl   $0x0,0x50(%esp)
 804a6a0:	00 
 804a6a1:	e9 7c f7 ff ff       	jmp    8049e22 <_vfprintf_r+0x177e>
 804a6a6:	66 90                	xchg   %ax,%ax
 804a6a8:	85 db                	test   %ebx,%ebx
 804a6aa:	75 29                	jne    804a6d5 <_vfprintf_r+0x2031>
 804a6ac:	f6 44 24 4c 01       	testb  $0x1,0x4c(%esp)
 804a6b1:	75 22                	jne    804a6d5 <_vfprintf_r+0x2031>
 804a6b3:	c7 44 24 50 01 00 00 	movl   $0x1,0x50(%esp)
 804a6ba:	00 
 804a6bb:	c7 44 24 58 01 00 00 	movl   $0x1,0x58(%esp)
 804a6c2:	00 
 804a6c3:	e9 5a f7 ff ff       	jmp    8049e22 <_vfprintf_r+0x177e>
 804a6c8:	c7 44 24 5c ff ff ff 	movl   $0xffffffff,0x5c(%esp)
 804a6cf:	ff 
 804a6d0:	e9 4c e6 ff ff       	jmp    8048d21 <_vfprintf_r+0x67d>
 804a6d5:	83 c3 02             	add    $0x2,%ebx
 804a6d8:	89 5c 24 58          	mov    %ebx,0x58(%esp)
 804a6dc:	89 5c 24 50          	mov    %ebx,0x50(%esp)
 804a6e0:	85 db                	test   %ebx,%ebx
 804a6e2:	0f 89 3a f7 ff ff    	jns    8049e22 <_vfprintf_r+0x177e>
 804a6e8:	eb af                	jmp    804a699 <_vfprintf_r+0x1ff5>
 804a6ea:	66 90                	xchg   %ax,%ax
 804a6ec:	8b 84 24 8c 05 00 00 	mov    0x58c(%esp),%eax
 804a6f3:	83 c0 04             	add    $0x4,%eax
 804a6f6:	8b 94 24 8c 05 00 00 	mov    0x58c(%esp),%edx
 804a6fd:	8b 1a                	mov    (%edx),%ebx
 804a6ff:	85 db                	test   %ebx,%ebx
 804a701:	0f 89 64 e8 ff ff    	jns    8048f6b <_vfprintf_r+0x8c7>
 804a707:	89 84 24 8c 05 00 00 	mov    %eax,0x58c(%esp)
 804a70e:	bb ff ff ff ff       	mov    $0xffffffff,%ebx
 804a713:	e9 02 e1 ff ff       	jmp    804881a <_vfprintf_r+0x176>
 804a718:	f7 d9                	neg    %ecx
 804a71a:	c6 84 24 b7 00 00 00 	movb   $0x2d,0xb7(%esp)
 804a721:	2d 
 804a722:	e9 a1 fc ff ff       	jmp    804a3c8 <_vfprintf_r+0x1d24>
 804a727:	ba 02 00 00 00       	mov    $0x2,%edx
 804a72c:	29 c2                	sub    %eax,%edx
 804a72e:	e9 46 fe ff ff       	jmp    804a579 <_vfprintf_r+0x1ed5>
 804a733:	f6 44 24 4c 01       	testb  $0x1,0x4c(%esp)
 804a738:	0f 85 d1 fc ff ff    	jne    804a40f <_vfprintf_r+0x1d6b>
 804a73e:	89 54 24 50          	mov    %edx,0x50(%esp)
 804a742:	85 d2                	test   %edx,%edx
 804a744:	0f 89 d9 fc ff ff    	jns    804a423 <_vfprintf_r+0x1d7f>
 804a74a:	c7 44 24 50 00 00 00 	movl   $0x0,0x50(%esp)
 804a751:	00 
 804a752:	e9 cc fc ff ff       	jmp    804a423 <_vfprintf_r+0x1d7f>
 804a757:	8b 8c 24 a8 00 00 00 	mov    0xa8(%esp),%ecx
 804a75e:	e9 42 fc ff ff       	jmp    804a3a5 <_vfprintf_r+0x1d01>
 804a763:	89 c2                	mov    %eax,%edx
 804a765:	e9 65 f6 ff ff       	jmp    8049dcf <_vfprintf_r+0x172b>
 804a76a:	8d 84 24 b8 00 00 00 	lea    0xb8(%esp),%eax
 804a771:	e9 74 fc ff ff       	jmp    804a3ea <_vfprintf_r+0x1d46>
 804a776:	c7 44 24 50 00 00 00 	movl   $0x0,0x50(%esp)
 804a77d:	00 
 804a77e:	e9 d1 fc ff ff       	jmp    804a454 <_vfprintf_r+0x1db0>
 804a783:	90                   	nop

0804a784 <vfprintf>:
 804a784:	83 ec 1c             	sub    $0x1c,%esp
 804a787:	8b 44 24 28          	mov    0x28(%esp),%eax
 804a78b:	89 44 24 0c          	mov    %eax,0xc(%esp)
 804a78f:	8b 44 24 24          	mov    0x24(%esp),%eax
 804a793:	89 44 24 08          	mov    %eax,0x8(%esp)
 804a797:	8b 44 24 20          	mov    0x20(%esp),%eax
 804a79b:	89 44 24 04          	mov    %eax,0x4(%esp)
 804a79f:	a1 20 20 05 08       	mov    0x8052020,%eax
 804a7a4:	89 04 24             	mov    %eax,(%esp)
 804a7a7:	e8 f8 de ff ff       	call   80486a4 <_vfprintf_r>
 804a7ac:	83 c4 1c             	add    $0x1c,%esp
 804a7af:	c3                   	ret    

0804a7b0 <__swsetup_r>:
 804a7b0:	53                   	push   %ebx
 804a7b1:	83 ec 18             	sub    $0x18,%esp
 804a7b4:	8b 5c 24 24          	mov    0x24(%esp),%ebx
 804a7b8:	a1 20 20 05 08       	mov    0x8052020,%eax
 804a7bd:	85 c0                	test   %eax,%eax
 804a7bf:	74 0b                	je     804a7cc <__swsetup_r+0x1c>
 804a7c1:	8b 50 38             	mov    0x38(%eax),%edx
 804a7c4:	85 d2                	test   %edx,%edx
 804a7c6:	0f 84 9c 00 00 00    	je     804a868 <__swsetup_r+0xb8>
 804a7cc:	8b 43 0c             	mov    0xc(%ebx),%eax
 804a7cf:	a8 08                	test   $0x8,%al
 804a7d1:	74 25                	je     804a7f8 <__swsetup_r+0x48>
 804a7d3:	8b 53 10             	mov    0x10(%ebx),%edx
 804a7d6:	85 d2                	test   %edx,%edx
 804a7d8:	74 38                	je     804a812 <__swsetup_r+0x62>
 804a7da:	a8 01                	test   $0x1,%al
 804a7dc:	75 5e                	jne    804a83c <__swsetup_r+0x8c>
 804a7de:	a8 02                	test   $0x2,%al
 804a7e0:	0f 85 92 00 00 00    	jne    804a878 <__swsetup_r+0xc8>
 804a7e6:	8b 43 14             	mov    0x14(%ebx),%eax
 804a7e9:	89 43 08             	mov    %eax,0x8(%ebx)
 804a7ec:	85 d2                	test   %edx,%edx
 804a7ee:	74 5f                	je     804a84f <__swsetup_r+0x9f>
 804a7f0:	31 c0                	xor    %eax,%eax
 804a7f2:	83 c4 18             	add    $0x18,%esp
 804a7f5:	5b                   	pop    %ebx
 804a7f6:	c3                   	ret    
 804a7f7:	90                   	nop
 804a7f8:	a8 10                	test   $0x10,%al
 804a7fa:	0f 84 bc 00 00 00    	je     804a8bc <__swsetup_r+0x10c>
 804a800:	a8 04                	test   $0x4,%al
 804a802:	75 7c                	jne    804a880 <__swsetup_r+0xd0>
 804a804:	8b 53 10             	mov    0x10(%ebx),%edx
 804a807:	83 c8 08             	or     $0x8,%eax
 804a80a:	66 89 43 0c          	mov    %ax,0xc(%ebx)
 804a80e:	85 d2                	test   %edx,%edx
 804a810:	75 c8                	jne    804a7da <__swsetup_r+0x2a>
 804a812:	89 c1                	mov    %eax,%ecx
 804a814:	81 e1 80 02 00 00    	and    $0x280,%ecx
 804a81a:	66 81 f9 00 02       	cmp    $0x200,%cx
 804a81f:	74 b9                	je     804a7da <__swsetup_r+0x2a>
 804a821:	89 5c 24 04          	mov    %ebx,0x4(%esp)
 804a825:	8b 54 24 20          	mov    0x20(%esp),%edx
 804a829:	89 14 24             	mov    %edx,(%esp)
 804a82c:	e8 8b 20 00 00       	call   804c8bc <__smakebuf_r>
 804a831:	8b 43 0c             	mov    0xc(%ebx),%eax
 804a834:	8b 53 10             	mov    0x10(%ebx),%edx
 804a837:	eb a1                	jmp    804a7da <__swsetup_r+0x2a>
 804a839:	8d 76 00             	lea    0x0(%esi),%esi
 804a83c:	c7 43 08 00 00 00 00 	movl   $0x0,0x8(%ebx)
 804a843:	8b 43 14             	mov    0x14(%ebx),%eax
 804a846:	f7 d8                	neg    %eax
 804a848:	89 43 18             	mov    %eax,0x18(%ebx)
 804a84b:	85 d2                	test   %edx,%edx
 804a84d:	75 a1                	jne    804a7f0 <__swsetup_r+0x40>
 804a84f:	8b 53 0c             	mov    0xc(%ebx),%edx
 804a852:	31 c0                	xor    %eax,%eax
 804a854:	f6 c2 80             	test   $0x80,%dl
 804a857:	74 99                	je     804a7f2 <__swsetup_r+0x42>
 804a859:	83 ca 40             	or     $0x40,%edx
 804a85c:	66 89 53 0c          	mov    %dx,0xc(%ebx)
 804a860:	b8 ff ff ff ff       	mov    $0xffffffff,%eax
 804a865:	eb 8b                	jmp    804a7f2 <__swsetup_r+0x42>
 804a867:	90                   	nop
 804a868:	89 04 24             	mov    %eax,(%esp)
 804a86b:	e8 d4 19 00 00       	call   804c244 <__sinit>
 804a870:	e9 57 ff ff ff       	jmp    804a7cc <__swsetup_r+0x1c>
 804a875:	8d 76 00             	lea    0x0(%esi),%esi
 804a878:	31 c0                	xor    %eax,%eax
 804a87a:	e9 6a ff ff ff       	jmp    804a7e9 <__swsetup_r+0x39>
 804a87f:	90                   	nop
 804a880:	8b 53 30             	mov    0x30(%ebx),%edx
 804a883:	85 d2                	test   %edx,%edx
 804a885:	74 21                	je     804a8a8 <__swsetup_r+0xf8>
 804a887:	8d 4b 40             	lea    0x40(%ebx),%ecx
 804a88a:	39 ca                	cmp    %ecx,%edx
 804a88c:	74 13                	je     804a8a1 <__swsetup_r+0xf1>
 804a88e:	89 54 24 04          	mov    %edx,0x4(%esp)
 804a892:	8b 44 24 20          	mov    0x20(%esp),%eax
 804a896:	89 04 24             	mov    %eax,(%esp)
 804a899:	e8 46 1c 00 00       	call   804c4e4 <_free_r>
 804a89e:	8b 43 0c             	mov    0xc(%ebx),%eax
 804a8a1:	c7 43 30 00 00 00 00 	movl   $0x0,0x30(%ebx)
 804a8a8:	83 e0 db             	and    $0xffffffdb,%eax
 804a8ab:	c7 43 04 00 00 00 00 	movl   $0x0,0x4(%ebx)
 804a8b2:	8b 53 10             	mov    0x10(%ebx),%edx
 804a8b5:	89 13                	mov    %edx,(%ebx)
 804a8b7:	e9 4b ff ff ff       	jmp    804a807 <__swsetup_r+0x57>
 804a8bc:	8b 54 24 20          	mov    0x20(%esp),%edx
 804a8c0:	c7 02 09 00 00 00    	movl   $0x9,(%edx)
 804a8c6:	83 c8 40             	or     $0x40,%eax
 804a8c9:	66 89 43 0c          	mov    %ax,0xc(%ebx)
 804a8cd:	b8 ff ff ff ff       	mov    $0xffffffff,%eax
 804a8d2:	e9 1b ff ff ff       	jmp    804a7f2 <__swsetup_r+0x42>
 804a8d7:	90                   	nop

0804a8d8 <__call_exitprocs>:
 804a8d8:	55                   	push   %ebp
 804a8d9:	57                   	push   %edi
 804a8da:	56                   	push   %esi
 804a8db:	53                   	push   %ebx
 804a8dc:	83 ec 3c             	sub    $0x3c,%esp
 804a8df:	8b 6c 24 54          	mov    0x54(%esp),%ebp
 804a8e3:	a1 b8 04 05 08       	mov    0x80504b8,%eax
 804a8e8:	05 48 01 00 00       	add    $0x148,%eax
 804a8ed:	89 44 24 2c          	mov    %eax,0x2c(%esp)
 804a8f1:	8b 15 b8 04 05 08    	mov    0x80504b8,%edx
 804a8f7:	8b ba 48 01 00 00    	mov    0x148(%edx),%edi
 804a8fd:	8b 44 24 2c          	mov    0x2c(%esp),%eax
 804a901:	89 44 24 28          	mov    %eax,0x28(%esp)
 804a905:	85 ff                	test   %edi,%edi
 804a907:	0f 84 b0 00 00 00    	je     804a9bd <__call_exitprocs+0xe5>
 804a90d:	8b 5f 04             	mov    0x4(%edi),%ebx
 804a910:	4b                   	dec    %ebx
 804a911:	0f 88 9d 00 00 00    	js     804a9b4 <__call_exitprocs+0xdc>
 804a917:	8d 97 88 00 00 00    	lea    0x88(%edi),%edx
 804a91d:	89 54 24 24          	mov    %edx,0x24(%esp)
 804a921:	8d 34 9a             	lea    (%edx,%ebx,4),%esi
 804a924:	eb 13                	jmp    804a939 <__call_exitprocs+0x61>
 804a926:	66 90                	xchg   %ax,%ax
 804a928:	39 ae 80 00 00 00    	cmp    %ebp,0x80(%esi)
 804a92e:	74 0d                	je     804a93d <__call_exitprocs+0x65>
 804a930:	4b                   	dec    %ebx
 804a931:	83 ee 04             	sub    $0x4,%esi
 804a934:	83 fb ff             	cmp    $0xffffffff,%ebx
 804a937:	74 7b                	je     804a9b4 <__call_exitprocs+0xdc>
 804a939:	85 ed                	test   %ebp,%ebp
 804a93b:	75 eb                	jne    804a928 <__call_exitprocs+0x50>
 804a93d:	89 f2                	mov    %esi,%edx
 804a93f:	2b 54 24 24          	sub    0x24(%esp),%edx
 804a943:	8b 44 3a 08          	mov    0x8(%edx,%edi,1),%eax
 804a947:	8b 4f 04             	mov    0x4(%edi),%ecx
 804a94a:	49                   	dec    %ecx
 804a94b:	39 d9                	cmp    %ebx,%ecx
 804a94d:	74 7d                	je     804a9cc <__call_exitprocs+0xf4>
 804a94f:	c7 44 3a 08 00 00 00 	movl   $0x0,0x8(%edx,%edi,1)
 804a956:	00 
 804a957:	85 c0                	test   %eax,%eax
 804a959:	74 d5                	je     804a930 <__call_exitprocs+0x58>
 804a95b:	8b 57 04             	mov    0x4(%edi),%edx
 804a95e:	89 54 24 18          	mov    %edx,0x18(%esp)
 804a962:	ba 01 00 00 00       	mov    $0x1,%edx
 804a967:	88 d9                	mov    %bl,%cl
 804a969:	d3 e2                	shl    %cl,%edx
 804a96b:	89 54 24 1c          	mov    %edx,0x1c(%esp)
 804a96f:	85 97 88 01 00 00    	test   %edx,0x188(%edi)
 804a975:	74 51                	je     804a9c8 <__call_exitprocs+0xf0>
 804a977:	8b 4c 24 1c          	mov    0x1c(%esp),%ecx
 804a97b:	85 8f 8c 01 00 00    	test   %ecx,0x18c(%edi)
 804a981:	8b 0e                	mov    (%esi),%ecx
 804a983:	75 4f                	jne    804a9d4 <__call_exitprocs+0xfc>
 804a985:	89 4c 24 04          	mov    %ecx,0x4(%esp)
 804a989:	8b 54 24 50          	mov    0x50(%esp),%edx
 804a98d:	89 14 24             	mov    %edx,(%esp)
 804a990:	ff d0                	call   *%eax
 804a992:	8b 44 24 18          	mov    0x18(%esp),%eax
 804a996:	39 47 04             	cmp    %eax,0x4(%edi)
 804a999:	0f 85 52 ff ff ff    	jne    804a8f1 <__call_exitprocs+0x19>
 804a99f:	8b 54 24 28          	mov    0x28(%esp),%edx
 804a9a3:	39 3a                	cmp    %edi,(%edx)
 804a9a5:	0f 85 46 ff ff ff    	jne    804a8f1 <__call_exitprocs+0x19>
 804a9ab:	4b                   	dec    %ebx
 804a9ac:	83 ee 04             	sub    $0x4,%esi
 804a9af:	83 fb ff             	cmp    $0xffffffff,%ebx
 804a9b2:	75 85                	jne    804a939 <__call_exitprocs+0x61>
 804a9b4:	b9 00 00 00 00       	mov    $0x0,%ecx
 804a9b9:	85 c9                	test   %ecx,%ecx
 804a9bb:	75 1e                	jne    804a9db <__call_exitprocs+0x103>
 804a9bd:	83 c4 3c             	add    $0x3c,%esp
 804a9c0:	5b                   	pop    %ebx
 804a9c1:	5e                   	pop    %esi
 804a9c2:	5f                   	pop    %edi
 804a9c3:	5d                   	pop    %ebp
 804a9c4:	c3                   	ret    
 804a9c5:	8d 76 00             	lea    0x0(%esi),%esi
 804a9c8:	ff d0                	call   *%eax
 804a9ca:	eb c6                	jmp    804a992 <__call_exitprocs+0xba>
 804a9cc:	89 5f 04             	mov    %ebx,0x4(%edi)
 804a9cf:	eb 86                	jmp    804a957 <__call_exitprocs+0x7f>
 804a9d1:	8d 76 00             	lea    0x0(%esi),%esi
 804a9d4:	89 0c 24             	mov    %ecx,(%esp)
 804a9d7:	ff d0                	call   *%eax
 804a9d9:	eb b7                	jmp    804a992 <__call_exitprocs+0xba>
 804a9db:	8b 47 04             	mov    0x4(%edi),%eax
 804a9de:	85 c0                	test   %eax,%eax
 804a9e0:	8b 07                	mov    (%edi),%eax
 804a9e2:	75 1f                	jne    804aa03 <__call_exitprocs+0x12b>
 804a9e4:	85 c0                	test   %eax,%eax
 804a9e6:	74 19                	je     804aa01 <__call_exitprocs+0x129>
 804a9e8:	8b 54 24 28          	mov    0x28(%esp),%edx
 804a9ec:	89 02                	mov    %eax,(%edx)
 804a9ee:	89 3c 24             	mov    %edi,(%esp)
 804a9f1:	e8 0a 56 fb f7       	call   0 <_.xy-0x4>
 804a9f6:	8b 44 24 28          	mov    0x28(%esp),%eax
 804a9fa:	8b 38                	mov    (%eax),%edi
 804a9fc:	e9 04 ff ff ff       	jmp    804a905 <__call_exitprocs+0x2d>
 804aa01:	31 c0                	xor    %eax,%eax
 804aa03:	89 7c 24 28          	mov    %edi,0x28(%esp)
 804aa07:	89 c7                	mov    %eax,%edi
 804aa09:	e9 f7 fe ff ff       	jmp    804a905 <__call_exitprocs+0x2d>
 804aa0e:	66 90                	xchg   %ax,%ax

0804aa10 <quorem>:
 804aa10:	55                   	push   %ebp
 804aa11:	57                   	push   %edi
 804aa12:	56                   	push   %esi
 804aa13:	53                   	push   %ebx
 804aa14:	83 ec 4c             	sub    $0x4c,%esp
 804aa17:	89 44 24 24          	mov    %eax,0x24(%esp)
 804aa1b:	89 54 24 28          	mov    %edx,0x28(%esp)
 804aa1f:	8b 42 10             	mov    0x10(%edx),%eax
 804aa22:	8b 54 24 24          	mov    0x24(%esp),%edx
 804aa26:	3b 42 10             	cmp    0x10(%edx),%eax
 804aa29:	0f 8f b5 01 00 00    	jg     804abe4 <quorem+0x1d4>
 804aa2f:	8b 6c 24 28          	mov    0x28(%esp),%ebp
 804aa33:	83 c5 14             	add    $0x14,%ebp
 804aa36:	8d 78 ff             	lea    -0x1(%eax),%edi
 804aa39:	83 c0 03             	add    $0x3,%eax
 804aa3c:	8b 54 24 28          	mov    0x28(%esp),%edx
 804aa40:	8d 54 82 04          	lea    0x4(%edx,%eax,4),%edx
 804aa44:	89 54 24 2c          	mov    %edx,0x2c(%esp)
 804aa48:	8b 54 24 24          	mov    0x24(%esp),%edx
 804aa4c:	83 c2 14             	add    $0x14,%edx
 804aa4f:	89 54 24 30          	mov    %edx,0x30(%esp)
 804aa53:	8b 54 24 28          	mov    0x28(%esp),%edx
 804aa57:	8b 54 82 04          	mov    0x4(%edx,%eax,4),%edx
 804aa5b:	89 d1                	mov    %edx,%ecx
 804aa5d:	41                   	inc    %ecx
 804aa5e:	8b 54 24 24          	mov    0x24(%esp),%edx
 804aa62:	8b 44 82 04          	mov    0x4(%edx,%eax,4),%eax
 804aa66:	31 d2                	xor    %edx,%edx
 804aa68:	f7 f1                	div    %ecx
 804aa6a:	89 44 24 20          	mov    %eax,0x20(%esp)
 804aa6e:	89 44 24 34          	mov    %eax,0x34(%esp)
 804aa72:	85 c0                	test   %eax,%eax
 804aa74:	0f 84 b7 00 00 00    	je     804ab31 <quorem+0x121>
 804aa7a:	89 eb                	mov    %ebp,%ebx
 804aa7c:	8b 4c 24 30          	mov    0x30(%esp),%ecx
 804aa80:	31 d2                	xor    %edx,%edx
 804aa82:	31 c0                	xor    %eax,%eax
 804aa84:	89 6c 24 38          	mov    %ebp,0x38(%esp)
 804aa88:	89 d5                	mov    %edx,%ebp
 804aa8a:	89 7c 24 3c          	mov    %edi,0x3c(%esp)
 804aa8e:	89 c7                	mov    %eax,%edi
 804aa90:	8b 13                	mov    (%ebx),%edx
 804aa92:	83 c3 04             	add    $0x4,%ebx
 804aa95:	0f b7 f2             	movzwl %dx,%esi
 804aa98:	0f af 74 24 20       	imul   0x20(%esp),%esi
 804aa9d:	01 ee                	add    %ebp,%esi
 804aa9f:	89 f0                	mov    %esi,%eax
 804aaa1:	c1 e8 10             	shr    $0x10,%eax
 804aaa4:	c1 ea 10             	shr    $0x10,%edx
 804aaa7:	0f af 54 24 20       	imul   0x20(%esp),%edx
 804aaac:	01 c2                	add    %eax,%edx
 804aaae:	89 d5                	mov    %edx,%ebp
 804aab0:	c1 ed 10             	shr    $0x10,%ebp
 804aab3:	0f b7 01             	movzwl (%ecx),%eax
 804aab6:	01 f8                	add    %edi,%eax
 804aab8:	81 e6 ff ff 00 00    	and    $0xffff,%esi
 804aabe:	29 f0                	sub    %esi,%eax
 804aac0:	8b 31                	mov    (%ecx),%esi
 804aac2:	c1 ee 10             	shr    $0x10,%esi
 804aac5:	81 e2 ff ff 00 00    	and    $0xffff,%edx
 804aacb:	29 d6                	sub    %edx,%esi
 804aacd:	89 c2                	mov    %eax,%edx
 804aacf:	c1 fa 10             	sar    $0x10,%edx
 804aad2:	01 f2                	add    %esi,%edx
 804aad4:	89 d7                	mov    %edx,%edi
 804aad6:	c1 ff 10             	sar    $0x10,%edi
 804aad9:	c1 e2 10             	shl    $0x10,%edx
 804aadc:	25 ff ff 00 00       	and    $0xffff,%eax
 804aae1:	09 c2                	or     %eax,%edx
 804aae3:	89 11                	mov    %edx,(%ecx)
 804aae5:	83 c1 04             	add    $0x4,%ecx
 804aae8:	39 5c 24 2c          	cmp    %ebx,0x2c(%esp)
 804aaec:	73 a2                	jae    804aa90 <quorem+0x80>
 804aaee:	8b 6c 24 38          	mov    0x38(%esp),%ebp
 804aaf2:	8b 7c 24 3c          	mov    0x3c(%esp),%edi
 804aaf6:	8d 47 04             	lea    0x4(%edi),%eax
 804aaf9:	8b 54 24 24          	mov    0x24(%esp),%edx
 804aafd:	8b 74 82 04          	mov    0x4(%edx,%eax,4),%esi
 804ab01:	85 f6                	test   %esi,%esi
 804ab03:	75 2c                	jne    804ab31 <quorem+0x121>
 804ab05:	8d 04 82             	lea    (%edx,%eax,4),%eax
 804ab08:	39 44 24 30          	cmp    %eax,0x30(%esp)
 804ab0c:	73 1c                	jae    804ab2a <quorem+0x11a>
 804ab0e:	8b 18                	mov    (%eax),%ebx
 804ab10:	85 db                	test   %ebx,%ebx
 804ab12:	75 16                	jne    804ab2a <quorem+0x11a>
 804ab14:	8b 54 24 30          	mov    0x30(%esp),%edx
 804ab18:	eb 08                	jmp    804ab22 <quorem+0x112>
 804ab1a:	66 90                	xchg   %ax,%ax
 804ab1c:	8b 08                	mov    (%eax),%ecx
 804ab1e:	85 c9                	test   %ecx,%ecx
 804ab20:	75 08                	jne    804ab2a <quorem+0x11a>
 804ab22:	4f                   	dec    %edi
 804ab23:	83 e8 04             	sub    $0x4,%eax
 804ab26:	39 c2                	cmp    %eax,%edx
 804ab28:	72 f2                	jb     804ab1c <quorem+0x10c>
 804ab2a:	8b 44 24 24          	mov    0x24(%esp),%eax
 804ab2e:	89 78 10             	mov    %edi,0x10(%eax)
 804ab31:	8b 54 24 28          	mov    0x28(%esp),%edx
 804ab35:	89 54 24 04          	mov    %edx,0x4(%esp)
 804ab39:	8b 44 24 24          	mov    0x24(%esp),%eax
 804ab3d:	89 04 24             	mov    %eax,(%esp)
 804ab40:	e8 93 2d 00 00       	call   804d8d8 <__mcmp>
 804ab45:	85 c0                	test   %eax,%eax
 804ab47:	0f 88 88 00 00 00    	js     804abd5 <quorem+0x1c5>
 804ab4d:	8b 54 24 20          	mov    0x20(%esp),%edx
 804ab51:	42                   	inc    %edx
 804ab52:	89 54 24 34          	mov    %edx,0x34(%esp)
 804ab56:	8b 54 24 30          	mov    0x30(%esp),%edx
 804ab5a:	31 db                	xor    %ebx,%ebx
 804ab5c:	8b 74 24 2c          	mov    0x2c(%esp),%esi
 804ab60:	8b 4d 00             	mov    0x0(%ebp),%ecx
 804ab63:	83 c5 04             	add    $0x4,%ebp
 804ab66:	0f b7 02             	movzwl (%edx),%eax
 804ab69:	01 d8                	add    %ebx,%eax
 804ab6b:	0f b7 d9             	movzwl %cx,%ebx
 804ab6e:	29 d8                	sub    %ebx,%eax
 804ab70:	8b 1a                	mov    (%edx),%ebx
 804ab72:	c1 eb 10             	shr    $0x10,%ebx
 804ab75:	c1 e9 10             	shr    $0x10,%ecx
 804ab78:	29 cb                	sub    %ecx,%ebx
 804ab7a:	89 c1                	mov    %eax,%ecx
 804ab7c:	c1 f9 10             	sar    $0x10,%ecx
 804ab7f:	01 d9                	add    %ebx,%ecx
 804ab81:	89 cb                	mov    %ecx,%ebx
 804ab83:	c1 fb 10             	sar    $0x10,%ebx
 804ab86:	c1 e1 10             	shl    $0x10,%ecx
 804ab89:	25 ff ff 00 00       	and    $0xffff,%eax
 804ab8e:	09 c1                	or     %eax,%ecx
 804ab90:	89 0a                	mov    %ecx,(%edx)
 804ab92:	83 c2 04             	add    $0x4,%edx
 804ab95:	39 ee                	cmp    %ebp,%esi
 804ab97:	73 c7                	jae    804ab60 <quorem+0x150>
 804ab99:	8d 47 04             	lea    0x4(%edi),%eax
 804ab9c:	8b 54 24 24          	mov    0x24(%esp),%edx
 804aba0:	8b 74 82 04          	mov    0x4(%edx,%eax,4),%esi
 804aba4:	85 f6                	test   %esi,%esi
 804aba6:	75 2d                	jne    804abd5 <quorem+0x1c5>
 804aba8:	8d 04 82             	lea    (%edx,%eax,4),%eax
 804abab:	39 44 24 30          	cmp    %eax,0x30(%esp)
 804abaf:	73 1d                	jae    804abce <quorem+0x1be>
 804abb1:	8b 18                	mov    (%eax),%ebx
 804abb3:	85 db                	test   %ebx,%ebx
 804abb5:	75 17                	jne    804abce <quorem+0x1be>
 804abb7:	8b 54 24 30          	mov    0x30(%esp),%edx
 804abbb:	eb 09                	jmp    804abc6 <quorem+0x1b6>
 804abbd:	8d 76 00             	lea    0x0(%esi),%esi
 804abc0:	8b 08                	mov    (%eax),%ecx
 804abc2:	85 c9                	test   %ecx,%ecx
 804abc4:	75 08                	jne    804abce <quorem+0x1be>
 804abc6:	4f                   	dec    %edi
 804abc7:	83 e8 04             	sub    $0x4,%eax
 804abca:	39 c2                	cmp    %eax,%edx
 804abcc:	72 f2                	jb     804abc0 <quorem+0x1b0>
 804abce:	8b 44 24 24          	mov    0x24(%esp),%eax
 804abd2:	89 78 10             	mov    %edi,0x10(%eax)
 804abd5:	8b 44 24 34          	mov    0x34(%esp),%eax
 804abd9:	83 c4 4c             	add    $0x4c,%esp
 804abdc:	5b                   	pop    %ebx
 804abdd:	5e                   	pop    %esi
 804abde:	5f                   	pop    %edi
 804abdf:	5d                   	pop    %ebp
 804abe0:	c3                   	ret    
 804abe1:	8d 76 00             	lea    0x0(%esi),%esi
 804abe4:	31 c0                	xor    %eax,%eax
 804abe6:	83 c4 4c             	add    $0x4c,%esp
 804abe9:	5b                   	pop    %ebx
 804abea:	5e                   	pop    %esi
 804abeb:	5f                   	pop    %edi
 804abec:	5d                   	pop    %ebp
 804abed:	c3                   	ret    
 804abee:	66 90                	xchg   %ax,%ax

0804abf0 <_dtoa_r>:
 804abf0:	55                   	push   %ebp
 804abf1:	57                   	push   %edi
 804abf2:	56                   	push   %esi
 804abf3:	53                   	push   %ebx
 804abf4:	81 ec 9c 00 00 00    	sub    $0x9c,%esp
 804abfa:	8b ac 24 b0 00 00 00 	mov    0xb0(%esp),%ebp
 804ac01:	8b 9c 24 c8 00 00 00 	mov    0xc8(%esp),%ebx
 804ac08:	dd 84 24 b4 00 00 00 	fldl   0xb4(%esp)
 804ac0f:	dd 5c 24 30          	fstpl  0x30(%esp)
 804ac13:	8b 45 40             	mov    0x40(%ebp),%eax
 804ac16:	85 c0                	test   %eax,%eax
 804ac18:	74 23                	je     804ac3d <_dtoa_r+0x4d>
 804ac1a:	8b 4d 44             	mov    0x44(%ebp),%ecx
 804ac1d:	89 48 04             	mov    %ecx,0x4(%eax)
 804ac20:	ba 01 00 00 00       	mov    $0x1,%edx
 804ac25:	d3 e2                	shl    %cl,%edx
 804ac27:	89 50 08             	mov    %edx,0x8(%eax)
 804ac2a:	89 44 24 04          	mov    %eax,0x4(%esp)
 804ac2e:	89 2c 24             	mov    %ebp,(%esp)
 804ac31:	e8 1e 26 00 00       	call   804d254 <_Bfree>
 804ac36:	c7 45 40 00 00 00 00 	movl   $0x0,0x40(%ebp)
 804ac3d:	8b 7c 24 34          	mov    0x34(%esp),%edi
 804ac41:	85 ff                	test   %edi,%edi
 804ac43:	0f 88 bb 00 00 00    	js     804ad04 <_dtoa_r+0x114>
 804ac49:	c7 03 00 00 00 00    	movl   $0x0,(%ebx)
 804ac4f:	89 f8                	mov    %edi,%eax
 804ac51:	25 00 00 f0 7f       	and    $0x7ff00000,%eax
 804ac56:	3d 00 00 f0 7f       	cmp    $0x7ff00000,%eax
 804ac5b:	74 5b                	je     804acb8 <_dtoa_r+0xc8>
 804ac5d:	dd 44 24 30          	fldl   0x30(%esp)
 804ac61:	dd 5c 24 28          	fstpl  0x28(%esp)
 804ac65:	d9 ee                	fldz   
 804ac67:	dd 44 24 28          	fldl   0x28(%esp)
 804ac6b:	da e9                	fucompp 
 804ac6d:	df e0                	fnstsw %ax
 804ac6f:	80 e4 45             	and    $0x45,%ah
 804ac72:	80 f4 40             	xor    $0x40,%ah
 804ac75:	0f 85 a1 00 00 00    	jne    804ad1c <_dtoa_r+0x12c>
 804ac7b:	8b 84 24 c4 00 00 00 	mov    0xc4(%esp),%eax
 804ac82:	c7 00 01 00 00 00    	movl   $0x1,(%eax)
 804ac88:	8b ac 24 cc 00 00 00 	mov    0xcc(%esp),%ebp
 804ac8f:	85 ed                	test   %ebp,%ebp
 804ac91:	0f 84 bd 04 00 00    	je     804b154 <_dtoa_r+0x564>
 804ac97:	8b 94 24 cc 00 00 00 	mov    0xcc(%esp),%edx
 804ac9e:	c7 02 f8 04 05 08    	movl   $0x80504f8,(%edx)
 804aca4:	be f7 04 05 08       	mov    $0x80504f7,%esi
 804aca9:	89 f0                	mov    %esi,%eax
 804acab:	81 c4 9c 00 00 00    	add    $0x9c,%esp
 804acb1:	5b                   	pop    %ebx
 804acb2:	5e                   	pop    %esi
 804acb3:	5f                   	pop    %edi
 804acb4:	5d                   	pop    %ebp
 804acb5:	c3                   	ret    
 804acb6:	66 90                	xchg   %ax,%ax
 804acb8:	8b 84 24 c4 00 00 00 	mov    0xc4(%esp),%eax
 804acbf:	c7 00 0f 27 00 00    	movl   $0x270f,(%eax)
 804acc5:	8b 44 24 30          	mov    0x30(%esp),%eax
 804acc9:	85 c0                	test   %eax,%eax
 804accb:	0f 84 37 04 00 00    	je     804b108 <_dtoa_r+0x518>
 804acd1:	be 89 06 05 08       	mov    $0x8050689,%esi
 804acd6:	8b 84 24 cc 00 00 00 	mov    0xcc(%esp),%eax
 804acdd:	85 c0                	test   %eax,%eax
 804acdf:	74 c8                	je     804aca9 <_dtoa_r+0xb9>
 804ace1:	80 7e 03 00          	cmpb   $0x0,0x3(%esi)
 804ace5:	0f 85 35 04 00 00    	jne    804b120 <_dtoa_r+0x530>
 804aceb:	8d 46 03             	lea    0x3(%esi),%eax
 804acee:	8b 94 24 cc 00 00 00 	mov    0xcc(%esp),%edx
 804acf5:	89 02                	mov    %eax,(%edx)
 804acf7:	89 f0                	mov    %esi,%eax
 804acf9:	81 c4 9c 00 00 00    	add    $0x9c,%esp
 804acff:	5b                   	pop    %ebx
 804ad00:	5e                   	pop    %esi
 804ad01:	5f                   	pop    %edi
 804ad02:	5d                   	pop    %ebp
 804ad03:	c3                   	ret    
 804ad04:	c7 03 01 00 00 00    	movl   $0x1,(%ebx)
 804ad0a:	81 e7 ff ff ff 7f    	and    $0x7fffffff,%edi
 804ad10:	89 7c 24 34          	mov    %edi,0x34(%esp)
 804ad14:	e9 36 ff ff ff       	jmp    804ac4f <_dtoa_r+0x5f>
 804ad19:	8d 76 00             	lea    0x0(%esi),%esi
 804ad1c:	8d 84 24 88 00 00 00 	lea    0x88(%esp),%eax
 804ad23:	89 44 24 10          	mov    %eax,0x10(%esp)
 804ad27:	8d 84 24 8c 00 00 00 	lea    0x8c(%esp),%eax
 804ad2e:	89 44 24 0c          	mov    %eax,0xc(%esp)
 804ad32:	dd 44 24 28          	fldl   0x28(%esp)
 804ad36:	dd 5c 24 04          	fstpl  0x4(%esp)
 804ad3a:	89 2c 24             	mov    %ebp,(%esp)
 804ad3d:	e8 d6 2e 00 00       	call   804dc18 <__d2b>
 804ad42:	89 44 24 54          	mov    %eax,0x54(%esp)
 804ad46:	89 fe                	mov    %edi,%esi
 804ad48:	c1 ee 14             	shr    $0x14,%esi
 804ad4b:	81 e6 ff 07 00 00    	and    $0x7ff,%esi
 804ad51:	0f 85 d1 03 00 00    	jne    804b128 <_dtoa_r+0x538>
 804ad57:	8b 9c 24 88 00 00 00 	mov    0x88(%esp),%ebx
 804ad5e:	8b b4 24 8c 00 00 00 	mov    0x8c(%esp),%esi
 804ad65:	01 de                	add    %ebx,%esi
 804ad67:	81 fe ef fb ff ff    	cmp    $0xfffffbef,%esi
 804ad6d:	0f 8c 59 09 00 00    	jl     804b6cc <_dtoa_r+0xadc>
 804ad73:	b9 0e fc ff ff       	mov    $0xfffffc0e,%ecx
 804ad78:	29 f1                	sub    %esi,%ecx
 804ad7a:	89 f8                	mov    %edi,%eax
 804ad7c:	d3 e0                	shl    %cl,%eax
 804ad7e:	8d 8e 12 04 00 00    	lea    0x412(%esi),%ecx
 804ad84:	8b 54 24 30          	mov    0x30(%esp),%edx
 804ad88:	d3 ea                	shr    %cl,%edx
 804ad8a:	09 d0                	or     %edx,%eax
 804ad8c:	31 d2                	xor    %edx,%edx
 804ad8e:	89 44 24 70          	mov    %eax,0x70(%esp)
 804ad92:	89 54 24 74          	mov    %edx,0x74(%esp)
 804ad96:	df 6c 24 70          	fildll 0x70(%esp)
 804ad9a:	dd 5c 24 28          	fstpl  0x28(%esp)
 804ad9e:	81 6c 24 2c 00 00 f0 	subl   $0x1f00000,0x2c(%esp)
 804ada5:	01 
 804ada6:	4e                   	dec    %esi
 804ada7:	c7 44 24 4c 01 00 00 	movl   $0x1,0x4c(%esp)
 804adae:	00 
 804adaf:	dd 44 24 28          	fldl   0x28(%esp)
 804adb3:	d8 25 90 06 05 08    	fsubs  0x8050690
 804adb9:	dc 0d a8 06 05 08    	fmull  0x80506a8
 804adbf:	dc 05 b0 06 05 08    	faddl  0x80506b0
 804adc5:	dd 05 b8 06 05 08    	fldl   0x80506b8
 804adcb:	56                   	push   %esi
 804adcc:	da 0c 24             	fimull (%esp)
 804adcf:	5f                   	pop    %edi
 804add0:	de c1                	faddp  %st,%st(1)
 804add2:	d9 7c 24 7e          	fnstcw 0x7e(%esp)
 804add6:	66 8b 44 24 7e       	mov    0x7e(%esp),%ax
 804addb:	b4 0c                	mov    $0xc,%ah
 804addd:	66 89 44 24 7c       	mov    %ax,0x7c(%esp)
 804ade2:	d9 6c 24 7c          	fldcw  0x7c(%esp)
 804ade6:	db 54 24 44          	fistl  0x44(%esp)
 804adea:	d9 6c 24 7e          	fldcw  0x7e(%esp)
 804adee:	d9 ee                	fldz   
 804adf0:	dd e9                	fucomp %st(1)
 804adf2:	df e0                	fnstsw %ax
 804adf4:	f6 c4 45             	test   $0x45,%ah
 804adf7:	0f 84 a3 05 00 00    	je     804b3a0 <_dtoa_r+0x7b0>
 804adfd:	dd d8                	fstp   %st(0)
 804adff:	83 7c 24 44 16       	cmpl   $0x16,0x44(%esp)
 804ae04:	0f 87 56 05 00 00    	ja     804b360 <_dtoa_r+0x770>
 804ae0a:	8b 44 24 44          	mov    0x44(%esp),%eax
 804ae0e:	dd 04 c5 60 07 05 08 	fldl   0x8050760(,%eax,8)
 804ae15:	dd 44 24 30          	fldl   0x30(%esp)
 804ae19:	d9 c9                	fxch   %st(1)
 804ae1b:	da e9                	fucompp 
 804ae1d:	df e0                	fnstsw %ax
 804ae1f:	f6 c4 45             	test   $0x45,%ah
 804ae22:	0f 85 b8 08 00 00    	jne    804b6e0 <_dtoa_r+0xaf0>
 804ae28:	ff 4c 24 44          	decl   0x44(%esp)
 804ae2c:	c7 44 24 5c 00 00 00 	movl   $0x0,0x5c(%esp)
 804ae33:	00 
 804ae34:	29 f3                	sub    %esi,%ebx
 804ae36:	89 d8                	mov    %ebx,%eax
 804ae38:	48                   	dec    %eax
 804ae39:	0f 88 4d 05 00 00    	js     804b38c <_dtoa_r+0x79c>
 804ae3f:	89 44 24 28          	mov    %eax,0x28(%esp)
 804ae43:	c7 44 24 48 00 00 00 	movl   $0x0,0x48(%esp)
 804ae4a:	00 
 804ae4b:	8b 5c 24 44          	mov    0x44(%esp),%ebx
 804ae4f:	85 db                	test   %ebx,%ebx
 804ae51:	0f 88 19 05 00 00    	js     804b370 <_dtoa_r+0x780>
 804ae57:	8b 44 24 44          	mov    0x44(%esp),%eax
 804ae5b:	01 44 24 28          	add    %eax,0x28(%esp)
 804ae5f:	89 44 24 50          	mov    %eax,0x50(%esp)
 804ae63:	c7 44 24 38 00 00 00 	movl   $0x0,0x38(%esp)
 804ae6a:	00 
 804ae6b:	83 bc 24 bc 00 00 00 	cmpl   $0x9,0xbc(%esp)
 804ae72:	09 
 804ae73:	0f 87 e7 02 00 00    	ja     804b160 <_dtoa_r+0x570>
 804ae79:	83 bc 24 bc 00 00 00 	cmpl   $0x5,0xbc(%esp)
 804ae80:	05 
 804ae81:	0f 8e 5d 10 00 00    	jle    804bee4 <_dtoa_r+0x12f4>
 804ae87:	83 ac 24 bc 00 00 00 	subl   $0x4,0xbc(%esp)
 804ae8e:	04 
 804ae8f:	31 ff                	xor    %edi,%edi
 804ae91:	83 bc 24 bc 00 00 00 	cmpl   $0x3,0xbc(%esp)
 804ae98:	03 
 804ae99:	0f 84 89 0c 00 00    	je     804bb28 <_dtoa_r+0xf38>
 804ae9f:	0f 8f 5b 09 00 00    	jg     804b800 <_dtoa_r+0xc10>
 804aea5:	83 bc 24 bc 00 00 00 	cmpl   $0x2,0xbc(%esp)
 804aeac:	02 
 804aead:	0f 85 b8 02 00 00    	jne    804b16b <_dtoa_r+0x57b>
 804aeb3:	c7 44 24 58 00 00 00 	movl   $0x0,0x58(%esp)
 804aeba:	00 
 804aebb:	8b 8c 24 c0 00 00 00 	mov    0xc0(%esp),%ecx
 804aec2:	85 c9                	test   %ecx,%ecx
 804aec4:	0f 8e 9b 0c 00 00    	jle    804bb65 <_dtoa_r+0xf75>
 804aeca:	8b 9c 24 c0 00 00 00 	mov    0xc0(%esp),%ebx
 804aed1:	89 5c 24 68          	mov    %ebx,0x68(%esp)
 804aed5:	89 5c 24 40          	mov    %ebx,0x40(%esp)
 804aed9:	c7 45 44 00 00 00 00 	movl   $0x0,0x44(%ebp)
 804aee0:	83 fb 17             	cmp    $0x17,%ebx
 804aee3:	0f 86 05 10 00 00    	jbe    804beee <_dtoa_r+0x12fe>
 804aee9:	b9 01 00 00 00       	mov    $0x1,%ecx
 804aeee:	b8 04 00 00 00       	mov    $0x4,%eax
 804aef3:	90                   	nop
 804aef4:	89 ca                	mov    %ecx,%edx
 804aef6:	d1 e0                	shl    %eax
 804aef8:	8d 49 01             	lea    0x1(%ecx),%ecx
 804aefb:	8d 70 14             	lea    0x14(%eax),%esi
 804aefe:	39 de                	cmp    %ebx,%esi
 804af00:	76 f2                	jbe    804aef4 <_dtoa_r+0x304>
 804af02:	89 55 44             	mov    %edx,0x44(%ebp)
 804af05:	89 54 24 04          	mov    %edx,0x4(%esp)
 804af09:	89 2c 24             	mov    %ebp,(%esp)
 804af0c:	e8 b7 22 00 00       	call   804d1c8 <_Balloc>
 804af11:	89 c6                	mov    %eax,%esi
 804af13:	89 45 40             	mov    %eax,0x40(%ebp)
 804af16:	83 fb 0e             	cmp    $0xe,%ebx
 804af19:	0f 87 9d 02 00 00    	ja     804b1bc <_dtoa_r+0x5cc>
 804af1f:	85 ff                	test   %edi,%edi
 804af21:	0f 84 95 02 00 00    	je     804b1bc <_dtoa_r+0x5cc>
 804af27:	8b 44 24 44          	mov    0x44(%esp),%eax
 804af2b:	8b 54 24 44          	mov    0x44(%esp),%edx
 804af2f:	85 d2                	test   %edx,%edx
 804af31:	0f 8e f5 0c 00 00    	jle    804bc2c <_dtoa_r+0x103c>
 804af37:	83 e0 0f             	and    $0xf,%eax
 804af3a:	dd 04 c5 60 07 05 08 	fldl   0x8050760(,%eax,8)
 804af41:	8b 44 24 44          	mov    0x44(%esp),%eax
 804af45:	c1 f8 04             	sar    $0x4,%eax
 804af48:	a8 10                	test   $0x10,%al
 804af4a:	0f 84 07 0c 00 00    	je     804bb57 <_dtoa_r+0xf67>
 804af50:	83 e0 0f             	and    $0xf,%eax
 804af53:	dd 44 24 30          	fldl   0x30(%esp)
 804af57:	dc 35 40 07 05 08    	fdivl  0x8050740
 804af5d:	ba 03 00 00 00       	mov    $0x3,%edx
 804af62:	85 c0                	test   %eax,%eax
 804af64:	74 17                	je     804af7d <_dtoa_r+0x38d>
 804af66:	31 c9                	xor    %ecx,%ecx
 804af68:	a8 01                	test   $0x1,%al
 804af6a:	74 0c                	je     804af78 <_dtoa_r+0x388>
 804af6c:	d9 c9                	fxch   %st(1)
 804af6e:	42                   	inc    %edx
 804af6f:	dc 0c cd 20 07 05 08 	fmull  0x8050720(,%ecx,8)
 804af76:	d9 c9                	fxch   %st(1)
 804af78:	41                   	inc    %ecx
 804af79:	d1 f8                	sar    %eax
 804af7b:	75 eb                	jne    804af68 <_dtoa_r+0x378>
 804af7d:	de f1                	fdivp  %st,%st(1)
 804af7f:	8b 7c 24 5c          	mov    0x5c(%esp),%edi
 804af83:	85 ff                	test   %edi,%edi
 804af85:	74 0f                	je     804af96 <_dtoa_r+0x3a6>
 804af87:	d9 e8                	fld1   
 804af89:	dd e9                	fucomp %st(1)
 804af8b:	df e0                	fnstsw %ax
 804af8d:	f6 c4 45             	test   $0x45,%ah
 804af90:	0f 84 78 0e 00 00    	je     804be0e <_dtoa_r+0x121e>
 804af96:	d9 c0                	fld    %st(0)
 804af98:	52                   	push   %edx
 804af99:	da 0c 24             	fimull (%esp)
 804af9c:	58                   	pop    %eax
 804af9d:	d8 05 9c 06 05 08    	fadds  0x805069c
 804afa3:	dd 5c 24 60          	fstpl  0x60(%esp)
 804afa7:	81 6c 24 64 00 00 40 	subl   $0x3400000,0x64(%esp)
 804afae:	03 
 804afaf:	8b 44 24 40          	mov    0x40(%esp),%eax
 804afb3:	85 c0                	test   %eax,%eax
 804afb5:	0f 84 19 0b 00 00    	je     804bad4 <_dtoa_r+0xee4>
 804afbb:	8b 5c 24 44          	mov    0x44(%esp),%ebx
 804afbf:	8b 4c 24 40          	mov    0x40(%esp),%ecx
 804afc3:	8b 44 24 58          	mov    0x58(%esp),%eax
 804afc7:	85 c0                	test   %eax,%eax
 804afc9:	0f 84 4c 0d 00 00    	je     804bd1b <_dtoa_r+0x112b>
 804afcf:	dd 44 24 60          	fldl   0x60(%esp)
 804afd3:	d9 05 a4 06 05 08    	flds   0x80506a4
 804afd9:	dc 34 cd 58 07 05 08 	fdivl  0x8050758(,%ecx,8)
 804afe0:	de e1                	fsubp  %st,%st(1)
 804afe2:	d9 c9                	fxch   %st(1)
 804afe4:	d9 7c 24 7e          	fnstcw 0x7e(%esp)
 804afe8:	66 8b 44 24 7e       	mov    0x7e(%esp),%ax
 804afed:	b4 0c                	mov    $0xc,%ah
 804afef:	66 89 44 24 7c       	mov    %ax,0x7c(%esp)
 804aff4:	d9 6c 24 7c          	fldcw  0x7c(%esp)
 804aff8:	db 54 24 78          	fistl  0x78(%esp)
 804affc:	d9 6c 24 7e          	fldcw  0x7e(%esp)
 804b000:	8b 54 24 78          	mov    0x78(%esp),%edx
 804b004:	52                   	push   %edx
 804b005:	da 24 24             	fisubl (%esp)
 804b008:	d9 c9                	fxch   %st(1)
 804b00a:	58                   	pop    %eax
 804b00b:	83 c2 30             	add    $0x30,%edx
 804b00e:	88 16                	mov    %dl,(%esi)
 804b010:	8d 7e 01             	lea    0x1(%esi),%edi
 804b013:	dd e1                	fucom  %st(1)
 804b015:	df e0                	fnstsw %ax
 804b017:	f6 c4 45             	test   $0x45,%ah
 804b01a:	0f 84 85 00 00 00    	je     804b0a5 <_dtoa_r+0x4b5>
 804b020:	d9 c1                	fld    %st(1)
 804b022:	d8 2d 94 06 05 08    	fsubrs 0x8050694
 804b028:	d9 c9                	fxch   %st(1)
 804b02a:	dd e1                	fucom  %st(1)
 804b02c:	df e0                	fnstsw %ax
 804b02e:	dd d9                	fstp   %st(1)
 804b030:	f6 c4 45             	test   $0x45,%ah
 804b033:	0f 84 3d 0e 00 00    	je     804be76 <_dtoa_r+0x1286>
 804b039:	83 f9 01             	cmp    $0x1,%ecx
 804b03c:	0f 8e 6a 01 00 00    	jle    804b1ac <_dtoa_r+0x5bc>
 804b042:	01 f1                	add    %esi,%ecx
 804b044:	d9 05 98 06 05 08    	flds   0x8050698
 804b04a:	eb 25                	jmp    804b071 <_dtoa_r+0x481>
 804b04c:	d9 c1                	fld    %st(1)
 804b04e:	d8 2d 94 06 05 08    	fsubrs 0x8050694
 804b054:	d9 c9                	fxch   %st(1)
 804b056:	dd e1                	fucom  %st(1)
 804b058:	df e0                	fnstsw %ax
 804b05a:	dd d9                	fstp   %st(1)
 804b05c:	f6 c4 45             	test   $0x45,%ah
 804b05f:	0f 84 17 0e 00 00    	je     804be7c <_dtoa_r+0x128c>
 804b065:	39 cf                	cmp    %ecx,%edi
 804b067:	0f 84 45 01 00 00    	je     804b1b2 <_dtoa_r+0x5c2>
 804b06d:	d9 c9                	fxch   %st(1)
 804b06f:	d9 ca                	fxch   %st(2)
 804b071:	dc c9                	fmul   %st,%st(1)
 804b073:	dc ca                	fmul   %st,%st(2)
 804b075:	d9 ca                	fxch   %st(2)
 804b077:	d9 6c 24 7c          	fldcw  0x7c(%esp)
 804b07b:	db 54 24 78          	fistl  0x78(%esp)
 804b07f:	d9 6c 24 7e          	fldcw  0x7e(%esp)
 804b083:	8b 54 24 78          	mov    0x78(%esp),%edx
 804b087:	52                   	push   %edx
 804b088:	da 24 24             	fisubl (%esp)
 804b08b:	d9 c9                	fxch   %st(1)
 804b08d:	58                   	pop    %eax
 804b08e:	83 c2 30             	add    $0x30,%edx
 804b091:	88 17                	mov    %dl,(%edi)
 804b093:	47                   	inc    %edi
 804b094:	dd e1                	fucom  %st(1)
 804b096:	df e0                	fnstsw %ax
 804b098:	f6 c4 45             	test   $0x45,%ah
 804b09b:	75 af                	jne    804b04c <_dtoa_r+0x45c>
 804b09d:	dd d8                	fstp   %st(0)
 804b09f:	dd d8                	fstp   %st(0)
 804b0a1:	dd d8                	fstp   %st(0)
 804b0a3:	eb 04                	jmp    804b0a9 <_dtoa_r+0x4b9>
 804b0a5:	dd d8                	fstp   %st(0)
 804b0a7:	dd d8                	fstp   %st(0)
 804b0a9:	89 5c 24 44          	mov    %ebx,0x44(%esp)
 804b0ad:	eb 11                	jmp    804b0c0 <_dtoa_r+0x4d0>
 804b0af:	dd d8                	fstp   %st(0)
 804b0b1:	dd d8                	fstp   %st(0)
 804b0b3:	dd d8                	fstp   %st(0)
 804b0b5:	eb 09                	jmp    804b0c0 <_dtoa_r+0x4d0>
 804b0b7:	90                   	nop
 804b0b8:	dd d8                	fstp   %st(0)
 804b0ba:	dd d8                	fstp   %st(0)
 804b0bc:	dd d8                	fstp   %st(0)
 804b0be:	66 90                	xchg   %ax,%ax
 804b0c0:	8b 44 24 54          	mov    0x54(%esp),%eax
 804b0c4:	89 44 24 04          	mov    %eax,0x4(%esp)
 804b0c8:	89 2c 24             	mov    %ebp,(%esp)
 804b0cb:	e8 84 21 00 00       	call   804d254 <_Bfree>
 804b0d0:	c6 07 00             	movb   $0x0,(%edi)
 804b0d3:	8b 44 24 44          	mov    0x44(%esp),%eax
 804b0d7:	40                   	inc    %eax
 804b0d8:	8b 94 24 c4 00 00 00 	mov    0xc4(%esp),%edx
 804b0df:	89 02                	mov    %eax,(%edx)
 804b0e1:	8b ac 24 cc 00 00 00 	mov    0xcc(%esp),%ebp
 804b0e8:	85 ed                	test   %ebp,%ebp
 804b0ea:	0f 84 b9 fb ff ff    	je     804aca9 <_dtoa_r+0xb9>
 804b0f0:	8b 84 24 cc 00 00 00 	mov    0xcc(%esp),%eax
 804b0f7:	89 38                	mov    %edi,(%eax)
 804b0f9:	89 f0                	mov    %esi,%eax
 804b0fb:	81 c4 9c 00 00 00    	add    $0x9c,%esp
 804b101:	5b                   	pop    %ebx
 804b102:	5e                   	pop    %esi
 804b103:	5f                   	pop    %edi
 804b104:	5d                   	pop    %ebp
 804b105:	c3                   	ret    
 804b106:	66 90                	xchg   %ax,%ax
 804b108:	81 e7 ff ff 0f 00    	and    $0xfffff,%edi
 804b10e:	0f 85 bd fb ff ff    	jne    804acd1 <_dtoa_r+0xe1>
 804b114:	be 80 06 05 08       	mov    $0x8050680,%esi
 804b119:	e9 b8 fb ff ff       	jmp    804acd6 <_dtoa_r+0xe6>
 804b11e:	66 90                	xchg   %ax,%ax
 804b120:	8d 46 08             	lea    0x8(%esi),%eax
 804b123:	e9 c6 fb ff ff       	jmp    804acee <_dtoa_r+0xfe>
 804b128:	8b 44 24 2c          	mov    0x2c(%esp),%eax
 804b12c:	25 ff ff 0f 00       	and    $0xfffff,%eax
 804b131:	0d 00 00 f0 3f       	or     $0x3ff00000,%eax
 804b136:	89 44 24 2c          	mov    %eax,0x2c(%esp)
 804b13a:	81 ee ff 03 00 00    	sub    $0x3ff,%esi
 804b140:	8b 9c 24 88 00 00 00 	mov    0x88(%esp),%ebx
 804b147:	c7 44 24 4c 00 00 00 	movl   $0x0,0x4c(%esp)
 804b14e:	00 
 804b14f:	e9 5b fc ff ff       	jmp    804adaf <_dtoa_r+0x1bf>
 804b154:	be f7 04 05 08       	mov    $0x80504f7,%esi
 804b159:	e9 4b fb ff ff       	jmp    804aca9 <_dtoa_r+0xb9>
 804b15e:	66 90                	xchg   %ax,%ax
 804b160:	c7 84 24 bc 00 00 00 	movl   $0x0,0xbc(%esp)
 804b167:	00 00 00 00 
 804b16b:	c7 45 44 00 00 00 00 	movl   $0x0,0x44(%ebp)
 804b172:	c7 44 24 04 00 00 00 	movl   $0x0,0x4(%esp)
 804b179:	00 
 804b17a:	89 2c 24             	mov    %ebp,(%esp)
 804b17d:	e8 46 20 00 00       	call   804d1c8 <_Balloc>
 804b182:	89 c6                	mov    %eax,%esi
 804b184:	89 45 40             	mov    %eax,0x40(%ebp)
 804b187:	c7 84 24 c0 00 00 00 	movl   $0x0,0xc0(%esp)
 804b18e:	00 00 00 00 
 804b192:	c7 44 24 40 ff ff ff 	movl   $0xffffffff,0x40(%esp)
 804b199:	ff 
 804b19a:	c7 44 24 68 ff ff ff 	movl   $0xffffffff,0x68(%esp)
 804b1a1:	ff 
 804b1a2:	c7 44 24 58 01 00 00 	movl   $0x1,0x58(%esp)
 804b1a9:	00 
 804b1aa:	eb 10                	jmp    804b1bc <_dtoa_r+0x5cc>
 804b1ac:	dd d8                	fstp   %st(0)
 804b1ae:	dd d8                	fstp   %st(0)
 804b1b0:	eb 0a                	jmp    804b1bc <_dtoa_r+0x5cc>
 804b1b2:	dd d8                	fstp   %st(0)
 804b1b4:	dd d8                	fstp   %st(0)
 804b1b6:	dd d8                	fstp   %st(0)
 804b1b8:	eb 02                	jmp    804b1bc <_dtoa_r+0x5cc>
 804b1ba:	dd d8                	fstp   %st(0)
 804b1bc:	8b 84 24 8c 00 00 00 	mov    0x8c(%esp),%eax
 804b1c3:	85 c0                	test   %eax,%eax
 804b1c5:	0f 88 31 01 00 00    	js     804b2fc <_dtoa_r+0x70c>
 804b1cb:	83 7c 24 44 0e       	cmpl   $0xe,0x44(%esp)
 804b1d0:	0f 8f 26 01 00 00    	jg     804b2fc <_dtoa_r+0x70c>
 804b1d6:	8b 44 24 44          	mov    0x44(%esp),%eax
 804b1da:	dd 04 c5 60 07 05 08 	fldl   0x8050760(,%eax,8)
 804b1e1:	8b 84 24 c0 00 00 00 	mov    0xc0(%esp),%eax
 804b1e8:	85 c0                	test   %eax,%eax
 804b1ea:	0f 88 9f 06 00 00    	js     804b88f <_dtoa_r+0xc9f>
 804b1f0:	dd 44 24 30          	fldl   0x30(%esp)
 804b1f4:	d9 c0                	fld    %st(0)
 804b1f6:	d8 f2                	fdiv   %st(2),%st
 804b1f8:	d9 7c 24 7e          	fnstcw 0x7e(%esp)
 804b1fc:	66 8b 44 24 7e       	mov    0x7e(%esp),%ax
 804b201:	b4 0c                	mov    $0xc,%ah
 804b203:	66 89 44 24 7c       	mov    %ax,0x7c(%esp)
 804b208:	d9 6c 24 7c          	fldcw  0x7c(%esp)
 804b20c:	db 5c 24 78          	fistpl 0x78(%esp)
 804b210:	d9 6c 24 7e          	fldcw  0x7e(%esp)
 804b214:	8b 4c 24 78          	mov    0x78(%esp),%ecx
 804b218:	d9 c1                	fld    %st(1)
 804b21a:	51                   	push   %ecx
 804b21b:	da 0c 24             	fimull (%esp)
 804b21e:	58                   	pop    %eax
 804b21f:	de e9                	fsubrp %st,%st(1)
 804b221:	8d 41 30             	lea    0x30(%ecx),%eax
 804b224:	88 06                	mov    %al,(%esi)
 804b226:	8d 7e 01             	lea    0x1(%esi),%edi
 804b229:	83 7c 24 40 01       	cmpl   $0x1,0x40(%esp)
 804b22e:	74 70                	je     804b2a0 <_dtoa_r+0x6b0>
 804b230:	d9 05 98 06 05 08    	flds   0x8050698
 804b236:	dc c9                	fmul   %st,%st(1)
 804b238:	d9 ee                	fldz   
 804b23a:	d9 ca                	fxch   %st(2)
 804b23c:	dd e2                	fucom  %st(2)
 804b23e:	df e0                	fnstsw %ax
 804b240:	dd da                	fstp   %st(2)
 804b242:	80 e4 45             	and    $0x45,%ah
 804b245:	80 fc 40             	cmp    $0x40,%ah
 804b248:	0f 84 61 fe ff ff    	je     804b0af <_dtoa_r+0x4bf>
 804b24e:	8d 56 02             	lea    0x2(%esi),%edx
 804b251:	8b 5c 24 40          	mov    0x40(%esp),%ebx
 804b255:	01 f3                	add    %esi,%ebx
 804b257:	eb 1c                	jmp    804b275 <_dtoa_r+0x685>
 804b259:	8d 76 00             	lea    0x0(%esi),%esi
 804b25c:	dc c9                	fmul   %st,%st(1)
 804b25e:	42                   	inc    %edx
 804b25f:	d9 ee                	fldz   
 804b261:	d9 ca                	fxch   %st(2)
 804b263:	dd e2                	fucom  %st(2)
 804b265:	df e0                	fnstsw %ax
 804b267:	dd da                	fstp   %st(2)
 804b269:	80 e4 45             	and    $0x45,%ah
 804b26c:	80 fc 40             	cmp    $0x40,%ah
 804b26f:	0f 84 43 fe ff ff    	je     804b0b8 <_dtoa_r+0x4c8>
 804b275:	d9 c1                	fld    %st(1)
 804b277:	d8 f3                	fdiv   %st(3),%st
 804b279:	d9 6c 24 7c          	fldcw  0x7c(%esp)
 804b27d:	db 5c 24 78          	fistpl 0x78(%esp)
 804b281:	d9 6c 24 7e          	fldcw  0x7e(%esp)
 804b285:	8b 4c 24 78          	mov    0x78(%esp),%ecx
 804b289:	d9 c2                	fld    %st(2)
 804b28b:	51                   	push   %ecx
 804b28c:	da 0c 24             	fimull (%esp)
 804b28f:	5f                   	pop    %edi
 804b290:	de ea                	fsubrp %st,%st(2)
 804b292:	89 d7                	mov    %edx,%edi
 804b294:	8d 41 30             	lea    0x30(%ecx),%eax
 804b297:	88 42 ff             	mov    %al,-0x1(%edx)
 804b29a:	39 da                	cmp    %ebx,%edx
 804b29c:	75 be                	jne    804b25c <_dtoa_r+0x66c>
 804b29e:	dd d8                	fstp   %st(0)
 804b2a0:	d8 c0                	fadd   %st(0),%st
 804b2a2:	dd e1                	fucom  %st(1)
 804b2a4:	df e0                	fnstsw %ax
 804b2a6:	f6 c4 45             	test   $0x45,%ah
 804b2a9:	74 1d                	je     804b2c8 <_dtoa_r+0x6d8>
 804b2ab:	d9 c9                	fxch   %st(1)
 804b2ad:	da e9                	fucompp 
 804b2af:	df e0                	fnstsw %ax
 804b2b1:	80 e4 45             	and    $0x45,%ah
 804b2b4:	80 f4 40             	xor    $0x40,%ah
 804b2b7:	0f 85 03 fe ff ff    	jne    804b0c0 <_dtoa_r+0x4d0>
 804b2bd:	83 e1 01             	and    $0x1,%ecx
 804b2c0:	0f 84 fa fd ff ff    	je     804b0c0 <_dtoa_r+0x4d0>
 804b2c6:	eb 04                	jmp    804b2cc <_dtoa_r+0x6dc>
 804b2c8:	dd d8                	fstp   %st(0)
 804b2ca:	dd d8                	fstp   %st(0)
 804b2cc:	8a 57 ff             	mov    -0x1(%edi),%dl
 804b2cf:	eb 08                	jmp    804b2d9 <_dtoa_r+0x6e9>
 804b2d1:	8d 76 00             	lea    0x0(%esi),%esi
 804b2d4:	8a 50 ff             	mov    -0x1(%eax),%dl
 804b2d7:	89 c7                	mov    %eax,%edi
 804b2d9:	8d 47 ff             	lea    -0x1(%edi),%eax
 804b2dc:	80 fa 39             	cmp    $0x39,%dl
 804b2df:	0f 85 fa 0a 00 00    	jne    804bddf <_dtoa_r+0x11ef>
 804b2e5:	39 c6                	cmp    %eax,%esi
 804b2e7:	75 eb                	jne    804b2d4 <_dtoa_r+0x6e4>
 804b2e9:	ff 44 24 44          	incl   0x44(%esp)
 804b2ed:	c6 06 30             	movb   $0x30,(%esi)
 804b2f0:	89 f0                	mov    %esi,%eax
 804b2f2:	b2 31                	mov    $0x31,%dl
 804b2f4:	88 10                	mov    %dl,(%eax)
 804b2f6:	e9 c5 fd ff ff       	jmp    804b0c0 <_dtoa_r+0x4d0>
 804b2fb:	90                   	nop
 804b2fc:	8b 4c 24 58          	mov    0x58(%esp),%ecx
 804b300:	85 c9                	test   %ecx,%ecx
 804b302:	0f 84 b8 00 00 00    	je     804b3c0 <_dtoa_r+0x7d0>
 804b308:	83 bc 24 bc 00 00 00 	cmpl   $0x1,0xbc(%esp)
 804b30f:	01 
 804b310:	0f 8e ff 05 00 00    	jle    804b915 <_dtoa_r+0xd25>
 804b316:	8b 44 24 40          	mov    0x40(%esp),%eax
 804b31a:	48                   	dec    %eax
 804b31b:	39 44 24 38          	cmp    %eax,0x38(%esp)
 804b31f:	0f 8c 1d 08 00 00    	jl     804bb42 <_dtoa_r+0xf52>
 804b325:	8b 7c 24 38          	mov    0x38(%esp),%edi
 804b329:	29 c7                	sub    %eax,%edi
 804b32b:	8b 5c 24 48          	mov    0x48(%esp),%ebx
 804b32f:	8b 44 24 40          	mov    0x40(%esp),%eax
 804b333:	85 c0                	test   %eax,%eax
 804b335:	0f 88 8f 0a 00 00    	js     804bdca <_dtoa_r+0x11da>
 804b33b:	8b 44 24 40          	mov    0x40(%esp),%eax
 804b33f:	01 44 24 48          	add    %eax,0x48(%esp)
 804b343:	01 44 24 28          	add    %eax,0x28(%esp)
 804b347:	c7 44 24 04 01 00 00 	movl   $0x1,0x4(%esp)
 804b34e:	00 
 804b34f:	89 2c 24             	mov    %ebp,(%esp)
 804b352:	e8 c1 21 00 00       	call   804d518 <__i2b>
 804b357:	89 44 24 4c          	mov    %eax,0x4c(%esp)
 804b35b:	eb 73                	jmp    804b3d0 <_dtoa_r+0x7e0>
 804b35d:	8d 76 00             	lea    0x0(%esi),%esi
 804b360:	c7 44 24 5c 01 00 00 	movl   $0x1,0x5c(%esp)
 804b367:	00 
 804b368:	e9 c7 fa ff ff       	jmp    804ae34 <_dtoa_r+0x244>
 804b36d:	8d 76 00             	lea    0x0(%esi),%esi
 804b370:	8b 54 24 44          	mov    0x44(%esp),%edx
 804b374:	29 54 24 48          	sub    %edx,0x48(%esp)
 804b378:	f7 da                	neg    %edx
 804b37a:	89 54 24 38          	mov    %edx,0x38(%esp)
 804b37e:	c7 44 24 50 00 00 00 	movl   $0x0,0x50(%esp)
 804b385:	00 
 804b386:	e9 e0 fa ff ff       	jmp    804ae6b <_dtoa_r+0x27b>
 804b38b:	90                   	nop
 804b38c:	f7 d8                	neg    %eax
 804b38e:	89 44 24 48          	mov    %eax,0x48(%esp)
 804b392:	c7 44 24 28 00 00 00 	movl   $0x0,0x28(%esp)
 804b399:	00 
 804b39a:	e9 ac fa ff ff       	jmp    804ae4b <_dtoa_r+0x25b>
 804b39f:	90                   	nop
 804b3a0:	db 44 24 44          	fildl  0x44(%esp)
 804b3a4:	da e9                	fucompp 
 804b3a6:	df e0                	fnstsw %ax
 804b3a8:	80 e4 45             	and    $0x45,%ah
 804b3ab:	80 fc 40             	cmp    $0x40,%ah
 804b3ae:	0f 84 4b fa ff ff    	je     804adff <_dtoa_r+0x20f>
 804b3b4:	ff 4c 24 44          	decl   0x44(%esp)
 804b3b8:	e9 42 fa ff ff       	jmp    804adff <_dtoa_r+0x20f>
 804b3bd:	8d 76 00             	lea    0x0(%esi),%esi
 804b3c0:	8b 7c 24 38          	mov    0x38(%esp),%edi
 804b3c4:	8b 5c 24 48          	mov    0x48(%esp),%ebx
 804b3c8:	c7 44 24 4c 00 00 00 	movl   $0x0,0x4c(%esp)
 804b3cf:	00 
 804b3d0:	85 db                	test   %ebx,%ebx
 804b3d2:	74 1e                	je     804b3f2 <_dtoa_r+0x802>
 804b3d4:	8b 44 24 28          	mov    0x28(%esp),%eax
 804b3d8:	85 c0                	test   %eax,%eax
 804b3da:	7e 16                	jle    804b3f2 <_dtoa_r+0x802>
 804b3dc:	8b 44 24 28          	mov    0x28(%esp),%eax
 804b3e0:	39 d8                	cmp    %ebx,%eax
 804b3e2:	0f 8f a0 04 00 00    	jg     804b888 <_dtoa_r+0xc98>
 804b3e8:	29 44 24 48          	sub    %eax,0x48(%esp)
 804b3ec:	29 c3                	sub    %eax,%ebx
 804b3ee:	29 44 24 28          	sub    %eax,0x28(%esp)
 804b3f2:	8b 44 24 38          	mov    0x38(%esp),%eax
 804b3f6:	85 c0                	test   %eax,%eax
 804b3f8:	7e 68                	jle    804b462 <_dtoa_r+0x872>
 804b3fa:	8b 4c 24 58          	mov    0x58(%esp),%ecx
 804b3fe:	85 c9                	test   %ecx,%ecx
 804b400:	0f 84 12 07 00 00    	je     804bb18 <_dtoa_r+0xf28>
 804b406:	85 ff                	test   %edi,%edi
 804b408:	7e 4c                	jle    804b456 <_dtoa_r+0x866>
 804b40a:	89 7c 24 08          	mov    %edi,0x8(%esp)
 804b40e:	8b 44 24 4c          	mov    0x4c(%esp),%eax
 804b412:	89 44 24 04          	mov    %eax,0x4(%esp)
 804b416:	89 2c 24             	mov    %ebp,(%esp)
 804b419:	e8 e6 22 00 00       	call   804d704 <__pow5mult>
 804b41e:	89 44 24 4c          	mov    %eax,0x4c(%esp)
 804b422:	8b 44 24 54          	mov    0x54(%esp),%eax
 804b426:	89 44 24 08          	mov    %eax,0x8(%esp)
 804b42a:	8b 44 24 4c          	mov    0x4c(%esp),%eax
 804b42e:	89 44 24 04          	mov    %eax,0x4(%esp)
 804b432:	89 2c 24             	mov    %ebp,(%esp)
 804b435:	e8 0a 21 00 00       	call   804d544 <__multiply>
 804b43a:	8b 54 24 54          	mov    0x54(%esp),%edx
 804b43e:	89 54 24 04          	mov    %edx,0x4(%esp)
 804b442:	89 2c 24             	mov    %ebp,(%esp)
 804b445:	89 44 24 24          	mov    %eax,0x24(%esp)
 804b449:	e8 06 1e 00 00       	call   804d254 <_Bfree>
 804b44e:	8b 44 24 24          	mov    0x24(%esp),%eax
 804b452:	89 44 24 54          	mov    %eax,0x54(%esp)
 804b456:	8b 44 24 38          	mov    0x38(%esp),%eax
 804b45a:	29 f8                	sub    %edi,%eax
 804b45c:	0f 85 96 04 00 00    	jne    804b8f8 <_dtoa_r+0xd08>
 804b462:	c7 44 24 04 01 00 00 	movl   $0x1,0x4(%esp)
 804b469:	00 
 804b46a:	89 2c 24             	mov    %ebp,(%esp)
 804b46d:	e8 a6 20 00 00       	call   804d518 <__i2b>
 804b472:	89 44 24 38          	mov    %eax,0x38(%esp)
 804b476:	8b 54 24 50          	mov    0x50(%esp),%edx
 804b47a:	85 d2                	test   %edx,%edx
 804b47c:	7e 18                	jle    804b496 <_dtoa_r+0x8a6>
 804b47e:	8b 54 24 50          	mov    0x50(%esp),%edx
 804b482:	89 54 24 08          	mov    %edx,0x8(%esp)
 804b486:	89 44 24 04          	mov    %eax,0x4(%esp)
 804b48a:	89 2c 24             	mov    %ebp,(%esp)
 804b48d:	e8 72 22 00 00       	call   804d704 <__pow5mult>
 804b492:	89 44 24 38          	mov    %eax,0x38(%esp)
 804b496:	83 bc 24 bc 00 00 00 	cmpl   $0x1,0xbc(%esp)
 804b49d:	01 
 804b49e:	0f 8e ac 03 00 00    	jle    804b850 <_dtoa_r+0xc60>
 804b4a4:	31 ff                	xor    %edi,%edi
 804b4a6:	8b 44 24 50          	mov    0x50(%esp),%eax
 804b4aa:	85 c0                	test   %eax,%eax
 804b4ac:	0f 85 22 05 00 00    	jne    804b9d4 <_dtoa_r+0xde4>
 804b4b2:	ba 01 00 00 00       	mov    $0x1,%edx
 804b4b7:	8b 44 24 28          	mov    0x28(%esp),%eax
 804b4bb:	01 d0                	add    %edx,%eax
 804b4bd:	83 e0 1f             	and    $0x1f,%eax
 804b4c0:	0f 84 f2 01 00 00    	je     804b6b8 <_dtoa_r+0xac8>
 804b4c6:	ba 20 00 00 00       	mov    $0x20,%edx
 804b4cb:	29 c2                	sub    %eax,%edx
 804b4cd:	83 fa 04             	cmp    $0x4,%edx
 804b4d0:	0f 8e fc 09 00 00    	jle    804bed2 <_dtoa_r+0x12e2>
 804b4d6:	ba 1c 00 00 00       	mov    $0x1c,%edx
 804b4db:	29 c2                	sub    %eax,%edx
 804b4dd:	01 54 24 48          	add    %edx,0x48(%esp)
 804b4e1:	01 d3                	add    %edx,%ebx
 804b4e3:	01 54 24 28          	add    %edx,0x28(%esp)
 804b4e7:	8b 4c 24 48          	mov    0x48(%esp),%ecx
 804b4eb:	85 c9                	test   %ecx,%ecx
 804b4ed:	7e 1c                	jle    804b50b <_dtoa_r+0x91b>
 804b4ef:	8b 54 24 48          	mov    0x48(%esp),%edx
 804b4f3:	89 54 24 08          	mov    %edx,0x8(%esp)
 804b4f7:	8b 44 24 54          	mov    0x54(%esp),%eax
 804b4fb:	89 44 24 04          	mov    %eax,0x4(%esp)
 804b4ff:	89 2c 24             	mov    %ebp,(%esp)
 804b502:	e8 d9 22 00 00       	call   804d7e0 <__lshift>
 804b507:	89 44 24 54          	mov    %eax,0x54(%esp)
 804b50b:	8b 54 24 28          	mov    0x28(%esp),%edx
 804b50f:	85 d2                	test   %edx,%edx
 804b511:	7e 1c                	jle    804b52f <_dtoa_r+0x93f>
 804b513:	8b 54 24 28          	mov    0x28(%esp),%edx
 804b517:	89 54 24 08          	mov    %edx,0x8(%esp)
 804b51b:	8b 44 24 38          	mov    0x38(%esp),%eax
 804b51f:	89 44 24 04          	mov    %eax,0x4(%esp)
 804b523:	89 2c 24             	mov    %ebp,(%esp)
 804b526:	e8 b5 22 00 00       	call   804d7e0 <__lshift>
 804b52b:	89 44 24 38          	mov    %eax,0x38(%esp)
 804b52f:	8b 44 24 5c          	mov    0x5c(%esp),%eax
 804b533:	85 c0                	test   %eax,%eax
 804b535:	0f 85 b9 04 00 00    	jne    804b9f4 <_dtoa_r+0xe04>
 804b53b:	8b 44 24 40          	mov    0x40(%esp),%eax
 804b53f:	85 c0                	test   %eax,%eax
 804b541:	0f 8e 0d 05 00 00    	jle    804ba54 <_dtoa_r+0xe64>
 804b547:	8b 44 24 58          	mov    0x58(%esp),%eax
 804b54b:	85 c0                	test   %eax,%eax
 804b54d:	0f 84 9d 01 00 00    	je     804b6f0 <_dtoa_r+0xb00>
 804b553:	85 db                	test   %ebx,%ebx
 804b555:	7e 18                	jle    804b56f <_dtoa_r+0x97f>
 804b557:	89 5c 24 08          	mov    %ebx,0x8(%esp)
 804b55b:	8b 44 24 4c          	mov    0x4c(%esp),%eax
 804b55f:	89 44 24 04          	mov    %eax,0x4(%esp)
 804b563:	89 2c 24             	mov    %ebp,(%esp)
 804b566:	e8 75 22 00 00       	call   804d7e0 <__lshift>
 804b56b:	89 44 24 4c          	mov    %eax,0x4c(%esp)
 804b56f:	85 ff                	test   %edi,%edi
 804b571:	0f 85 fb 06 00 00    	jne    804bc72 <_dtoa_r+0x1082>
 804b577:	8b 44 24 4c          	mov    0x4c(%esp),%eax
 804b57b:	89 44 24 28          	mov    %eax,0x28(%esp)
 804b57f:	8d 5e 01             	lea    0x1(%esi),%ebx
 804b582:	8b 54 24 40          	mov    0x40(%esp),%edx
 804b586:	01 f2                	add    %esi,%edx
 804b588:	89 54 24 50          	mov    %edx,0x50(%esp)
 804b58c:	8b 4c 24 4c          	mov    0x4c(%esp),%ecx
 804b590:	8b 44 24 30          	mov    0x30(%esp),%eax
 804b594:	83 e0 01             	and    $0x1,%eax
 804b597:	89 44 24 4c          	mov    %eax,0x4c(%esp)
 804b59b:	89 cf                	mov    %ecx,%edi
 804b59d:	89 74 24 58          	mov    %esi,0x58(%esp)
 804b5a1:	8b 74 24 54          	mov    0x54(%esp),%esi
 804b5a5:	8d 76 00             	lea    0x0(%esi),%esi
 804b5a8:	8d 53 ff             	lea    -0x1(%ebx),%edx
 804b5ab:	89 54 24 48          	mov    %edx,0x48(%esp)
 804b5af:	8b 54 24 38          	mov    0x38(%esp),%edx
 804b5b3:	89 f0                	mov    %esi,%eax
 804b5b5:	e8 56 f4 ff ff       	call   804aa10 <quorem>
 804b5ba:	89 44 24 3c          	mov    %eax,0x3c(%esp)
 804b5be:	83 c0 30             	add    $0x30,%eax
 804b5c1:	89 44 24 30          	mov    %eax,0x30(%esp)
 804b5c5:	89 7c 24 04          	mov    %edi,0x4(%esp)
 804b5c9:	89 34 24             	mov    %esi,(%esp)
 804b5cc:	e8 07 23 00 00       	call   804d8d8 <__mcmp>
 804b5d1:	89 44 24 40          	mov    %eax,0x40(%esp)
 804b5d5:	8b 44 24 28          	mov    0x28(%esp),%eax
 804b5d9:	89 44 24 08          	mov    %eax,0x8(%esp)
 804b5dd:	8b 44 24 38          	mov    0x38(%esp),%eax
 804b5e1:	89 44 24 04          	mov    %eax,0x4(%esp)
 804b5e5:	89 2c 24             	mov    %ebp,(%esp)
 804b5e8:	e8 33 23 00 00       	call   804d920 <__mdiff>
 804b5ed:	89 c2                	mov    %eax,%edx
 804b5ef:	8b 40 0c             	mov    0xc(%eax),%eax
 804b5f2:	85 c0                	test   %eax,%eax
 804b5f4:	89 54 24 04          	mov    %edx,0x4(%esp)
 804b5f8:	0f 84 36 03 00 00    	je     804b934 <_dtoa_r+0xd44>
 804b5fe:	89 2c 24             	mov    %ebp,(%esp)
 804b601:	e8 4e 1c 00 00       	call   804d254 <_Bfree>
 804b606:	b8 01 00 00 00       	mov    $0x1,%eax
 804b60b:	83 7c 24 40 00       	cmpl   $0x0,0x40(%esp)
 804b610:	0f 8c 74 05 00 00    	jl     804bb8a <_dtoa_r+0xf9a>
 804b616:	75 17                	jne    804b62f <_dtoa_r+0xa3f>
 804b618:	8b 8c 24 bc 00 00 00 	mov    0xbc(%esp),%ecx
 804b61f:	85 c9                	test   %ecx,%ecx
 804b621:	75 0c                	jne    804b62f <_dtoa_r+0xa3f>
 804b623:	8b 54 24 4c          	mov    0x4c(%esp),%edx
 804b627:	85 d2                	test   %edx,%edx
 804b629:	0f 84 5b 05 00 00    	je     804bb8a <_dtoa_r+0xf9a>
 804b62f:	85 c0                	test   %eax,%eax
 804b631:	0f 8f 93 06 00 00    	jg     804bcca <_dtoa_r+0x10da>
 804b637:	8a 54 24 30          	mov    0x30(%esp),%dl
 804b63b:	88 53 ff             	mov    %dl,-0x1(%ebx)
 804b63e:	3b 5c 24 50          	cmp    0x50(%esp),%ebx
 804b642:	0f 84 a1 06 00 00    	je     804bce9 <_dtoa_r+0x10f9>
 804b648:	c7 44 24 0c 00 00 00 	movl   $0x0,0xc(%esp)
 804b64f:	00 
 804b650:	c7 44 24 08 0a 00 00 	movl   $0xa,0x8(%esp)
 804b657:	00 
 804b658:	89 74 24 04          	mov    %esi,0x4(%esp)
 804b65c:	89 2c 24             	mov    %ebp,(%esp)
 804b65f:	e8 0c 1c 00 00       	call   804d270 <__multadd>
 804b664:	89 c6                	mov    %eax,%esi
 804b666:	3b 7c 24 28          	cmp    0x28(%esp),%edi
 804b66a:	c7 44 24 0c 00 00 00 	movl   $0x0,0xc(%esp)
 804b671:	00 
 804b672:	c7 44 24 08 0a 00 00 	movl   $0xa,0x8(%esp)
 804b679:	00 
 804b67a:	89 7c 24 04          	mov    %edi,0x4(%esp)
 804b67e:	89 2c 24             	mov    %ebp,(%esp)
 804b681:	0f 84 39 03 00 00    	je     804b9c0 <_dtoa_r+0xdd0>
 804b687:	e8 e4 1b 00 00       	call   804d270 <__multadd>
 804b68c:	89 c7                	mov    %eax,%edi
 804b68e:	c7 44 24 0c 00 00 00 	movl   $0x0,0xc(%esp)
 804b695:	00 
 804b696:	c7 44 24 08 0a 00 00 	movl   $0xa,0x8(%esp)
 804b69d:	00 
 804b69e:	8b 44 24 28          	mov    0x28(%esp),%eax
 804b6a2:	89 44 24 04          	mov    %eax,0x4(%esp)
 804b6a6:	89 2c 24             	mov    %ebp,(%esp)
 804b6a9:	e8 c2 1b 00 00       	call   804d270 <__multadd>
 804b6ae:	89 44 24 28          	mov    %eax,0x28(%esp)
 804b6b2:	43                   	inc    %ebx
 804b6b3:	e9 f0 fe ff ff       	jmp    804b5a8 <_dtoa_r+0x9b8>
 804b6b8:	ba 1c 00 00 00       	mov    $0x1c,%edx
 804b6bd:	01 54 24 48          	add    %edx,0x48(%esp)
 804b6c1:	01 d3                	add    %edx,%ebx
 804b6c3:	01 54 24 28          	add    %edx,0x28(%esp)
 804b6c7:	e9 1b fe ff ff       	jmp    804b4e7 <_dtoa_r+0x8f7>
 804b6cc:	b9 ee fb ff ff       	mov    $0xfffffbee,%ecx
 804b6d1:	29 f1                	sub    %esi,%ecx
 804b6d3:	8b 44 24 30          	mov    0x30(%esp),%eax
 804b6d7:	d3 e0                	shl    %cl,%eax
 804b6d9:	e9 ae f6 ff ff       	jmp    804ad8c <_dtoa_r+0x19c>
 804b6de:	66 90                	xchg   %ax,%ax
 804b6e0:	c7 44 24 5c 00 00 00 	movl   $0x0,0x5c(%esp)
 804b6e7:	00 
 804b6e8:	e9 47 f7 ff ff       	jmp    804ae34 <_dtoa_r+0x244>
 804b6ed:	8d 76 00             	lea    0x0(%esi),%esi
 804b6f0:	bb 01 00 00 00       	mov    $0x1,%ebx
 804b6f5:	8b 7c 24 54          	mov    0x54(%esp),%edi
 804b6f9:	eb 20                	jmp    804b71b <_dtoa_r+0xb2b>
 804b6fb:	90                   	nop
 804b6fc:	c7 44 24 0c 00 00 00 	movl   $0x0,0xc(%esp)
 804b703:	00 
 804b704:	c7 44 24 08 0a 00 00 	movl   $0xa,0x8(%esp)
 804b70b:	00 
 804b70c:	89 7c 24 04          	mov    %edi,0x4(%esp)
 804b710:	89 2c 24             	mov    %ebp,(%esp)
 804b713:	e8 58 1b 00 00       	call   804d270 <__multadd>
 804b718:	89 c7                	mov    %eax,%edi
 804b71a:	43                   	inc    %ebx
 804b71b:	8b 54 24 38          	mov    0x38(%esp),%edx
 804b71f:	89 f8                	mov    %edi,%eax
 804b721:	e8 ea f2 ff ff       	call   804aa10 <quorem>
 804b726:	83 c0 30             	add    $0x30,%eax
 804b729:	88 44 1e ff          	mov    %al,-0x1(%esi,%ebx,1)
 804b72d:	3b 5c 24 40          	cmp    0x40(%esp),%ebx
 804b731:	7c c9                	jl     804b6fc <_dtoa_r+0xb0c>
 804b733:	89 44 24 30          	mov    %eax,0x30(%esp)
 804b737:	89 7c 24 54          	mov    %edi,0x54(%esp)
 804b73b:	8b 5c 24 40          	mov    0x40(%esp),%ebx
 804b73f:	85 db                	test   %ebx,%ebx
 804b741:	0f 8e 8e 06 00 00    	jle    804bdd5 <_dtoa_r+0x11e5>
 804b747:	8d 3c 1e             	lea    (%esi,%ebx,1),%edi
 804b74a:	31 c9                	xor    %ecx,%ecx
 804b74c:	c7 44 24 08 01 00 00 	movl   $0x1,0x8(%esp)
 804b753:	00 
 804b754:	8b 44 24 54          	mov    0x54(%esp),%eax
 804b758:	89 44 24 04          	mov    %eax,0x4(%esp)
 804b75c:	89 2c 24             	mov    %ebp,(%esp)
 804b75f:	89 4c 24 24          	mov    %ecx,0x24(%esp)
 804b763:	e8 78 20 00 00       	call   804d7e0 <__lshift>
 804b768:	89 44 24 54          	mov    %eax,0x54(%esp)
 804b76c:	8b 44 24 38          	mov    0x38(%esp),%eax
 804b770:	89 44 24 04          	mov    %eax,0x4(%esp)
 804b774:	8b 44 24 54          	mov    0x54(%esp),%eax
 804b778:	89 04 24             	mov    %eax,(%esp)
 804b77b:	e8 58 21 00 00       	call   804d8d8 <__mcmp>
 804b780:	83 f8 00             	cmp    $0x0,%eax
 804b783:	8b 4c 24 24          	mov    0x24(%esp),%ecx
 804b787:	0f 8e 81 04 00 00    	jle    804bc0e <_dtoa_r+0x101e>
 804b78d:	8a 57 ff             	mov    -0x1(%edi),%dl
 804b790:	eb 07                	jmp    804b799 <_dtoa_r+0xba9>
 804b792:	66 90                	xchg   %ax,%ax
 804b794:	8a 50 ff             	mov    -0x1(%eax),%dl
 804b797:	89 c7                	mov    %eax,%edi
 804b799:	8d 47 ff             	lea    -0x1(%edi),%eax
 804b79c:	80 fa 39             	cmp    $0x39,%dl
 804b79f:	0f 85 c5 04 00 00    	jne    804bc6a <_dtoa_r+0x107a>
 804b7a5:	39 c6                	cmp    %eax,%esi
 804b7a7:	75 eb                	jne    804b794 <_dtoa_r+0xba4>
 804b7a9:	ff 44 24 44          	incl   0x44(%esp)
 804b7ad:	c6 06 31             	movb   $0x31,(%esi)
 804b7b0:	8b 44 24 38          	mov    0x38(%esp),%eax
 804b7b4:	89 44 24 04          	mov    %eax,0x4(%esp)
 804b7b8:	89 2c 24             	mov    %ebp,(%esp)
 804b7bb:	89 4c 24 24          	mov    %ecx,0x24(%esp)
 804b7bf:	e8 90 1a 00 00       	call   804d254 <_Bfree>
 804b7c4:	8b 44 24 4c          	mov    0x4c(%esp),%eax
 804b7c8:	85 c0                	test   %eax,%eax
 804b7ca:	8b 4c 24 24          	mov    0x24(%esp),%ecx
 804b7ce:	0f 84 ec f8 ff ff    	je     804b0c0 <_dtoa_r+0x4d0>
 804b7d4:	85 c9                	test   %ecx,%ecx
 804b7d6:	74 12                	je     804b7ea <_dtoa_r+0xbfa>
 804b7d8:	3b 4c 24 4c          	cmp    0x4c(%esp),%ecx
 804b7dc:	74 0c                	je     804b7ea <_dtoa_r+0xbfa>
 804b7de:	89 4c 24 04          	mov    %ecx,0x4(%esp)
 804b7e2:	89 2c 24             	mov    %ebp,(%esp)
 804b7e5:	e8 6a 1a 00 00       	call   804d254 <_Bfree>
 804b7ea:	8b 44 24 4c          	mov    0x4c(%esp),%eax
 804b7ee:	89 44 24 04          	mov    %eax,0x4(%esp)
 804b7f2:	89 2c 24             	mov    %ebp,(%esp)
 804b7f5:	e8 5a 1a 00 00       	call   804d254 <_Bfree>
 804b7fa:	e9 c1 f8 ff ff       	jmp    804b0c0 <_dtoa_r+0x4d0>
 804b7ff:	90                   	nop
 804b800:	83 bc 24 bc 00 00 00 	cmpl   $0x4,0xbc(%esp)
 804b807:	04 
 804b808:	0f 84 27 03 00 00    	je     804bb35 <_dtoa_r+0xf45>
 804b80e:	83 bc 24 bc 00 00 00 	cmpl   $0x5,0xbc(%esp)
 804b815:	05 
 804b816:	0f 85 4f f9 ff ff    	jne    804b16b <_dtoa_r+0x57b>
 804b81c:	c7 44 24 58 01 00 00 	movl   $0x1,0x58(%esp)
 804b823:	00 
 804b824:	8b 84 24 c0 00 00 00 	mov    0xc0(%esp),%eax
 804b82b:	03 44 24 44          	add    0x44(%esp),%eax
 804b82f:	89 44 24 68          	mov    %eax,0x68(%esp)
 804b833:	89 c3                	mov    %eax,%ebx
 804b835:	43                   	inc    %ebx
 804b836:	89 5c 24 40          	mov    %ebx,0x40(%esp)
 804b83a:	85 db                	test   %ebx,%ebx
 804b83c:	0f 8f 97 f6 ff ff    	jg     804aed9 <_dtoa_r+0x2e9>
 804b842:	c7 45 44 00 00 00 00 	movl   $0x0,0x44(%ebp)
 804b849:	31 d2                	xor    %edx,%edx
 804b84b:	e9 b5 f6 ff ff       	jmp    804af05 <_dtoa_r+0x315>
 804b850:	8b 44 24 30          	mov    0x30(%esp),%eax
 804b854:	85 c0                	test   %eax,%eax
 804b856:	0f 85 48 fc ff ff    	jne    804b4a4 <_dtoa_r+0x8b4>
 804b85c:	8b 44 24 34          	mov    0x34(%esp),%eax
 804b860:	a9 ff ff 0f 00       	test   $0xfffff,%eax
 804b865:	0f 85 39 fc ff ff    	jne    804b4a4 <_dtoa_r+0x8b4>
 804b86b:	a9 00 00 f0 7f       	test   $0x7ff00000,%eax
 804b870:	0f 84 2e fc ff ff    	je     804b4a4 <_dtoa_r+0x8b4>
 804b876:	ff 44 24 48          	incl   0x48(%esp)
 804b87a:	ff 44 24 28          	incl   0x28(%esp)
 804b87e:	bf 01 00 00 00       	mov    $0x1,%edi
 804b883:	e9 1e fc ff ff       	jmp    804b4a6 <_dtoa_r+0x8b6>
 804b888:	89 d8                	mov    %ebx,%eax
 804b88a:	e9 59 fb ff ff       	jmp    804b3e8 <_dtoa_r+0x7f8>
 804b88f:	83 7c 24 40 00       	cmpl   $0x0,0x40(%esp)
 804b894:	0f 8f 56 f9 ff ff    	jg     804b1f0 <_dtoa_r+0x600>
 804b89a:	0f 85 60 02 00 00    	jne    804bb00 <_dtoa_r+0xf10>
 804b8a0:	d8 0d a0 06 05 08    	fmuls  0x80506a0
 804b8a6:	dd 44 24 30          	fldl   0x30(%esp)
 804b8aa:	d9 c9                	fxch   %st(1)
 804b8ac:	da e9                	fucompp 
 804b8ae:	df e0                	fnstsw %ax
 804b8b0:	c7 44 24 38 00 00 00 	movl   $0x0,0x38(%esp)
 804b8b7:	00 
 804b8b8:	c7 44 24 4c 00 00 00 	movl   $0x0,0x4c(%esp)
 804b8bf:	00 
 804b8c0:	f6 c4 05             	test   $0x5,%ah
 804b8c3:	0f 85 e1 01 00 00    	jne    804baaa <_dtoa_r+0xeba>
 804b8c9:	8b 94 24 c0 00 00 00 	mov    0xc0(%esp),%edx
 804b8d0:	f7 d2                	not    %edx
 804b8d2:	89 54 24 44          	mov    %edx,0x44(%esp)
 804b8d6:	89 f7                	mov    %esi,%edi
 804b8d8:	8b 44 24 38          	mov    0x38(%esp),%eax
 804b8dc:	89 44 24 04          	mov    %eax,0x4(%esp)
 804b8e0:	89 2c 24             	mov    %ebp,(%esp)
 804b8e3:	e8 6c 19 00 00       	call   804d254 <_Bfree>
 804b8e8:	83 7c 24 4c 00       	cmpl   $0x0,0x4c(%esp)
 804b8ed:	0f 85 f7 fe ff ff    	jne    804b7ea <_dtoa_r+0xbfa>
 804b8f3:	e9 c8 f7 ff ff       	jmp    804b0c0 <_dtoa_r+0x4d0>
 804b8f8:	89 44 24 08          	mov    %eax,0x8(%esp)
 804b8fc:	8b 44 24 54          	mov    0x54(%esp),%eax
 804b900:	89 44 24 04          	mov    %eax,0x4(%esp)
 804b904:	89 2c 24             	mov    %ebp,(%esp)
 804b907:	e8 f8 1d 00 00       	call   804d704 <__pow5mult>
 804b90c:	89 44 24 54          	mov    %eax,0x54(%esp)
 804b910:	e9 4d fb ff ff       	jmp    804b462 <_dtoa_r+0x872>
 804b915:	8b 54 24 4c          	mov    0x4c(%esp),%edx
 804b919:	85 d2                	test   %edx,%edx
 804b91b:	0f 84 c6 04 00 00    	je     804bde7 <_dtoa_r+0x11f7>
 804b921:	05 33 04 00 00       	add    $0x433,%eax
 804b926:	8b 7c 24 38          	mov    0x38(%esp),%edi
 804b92a:	8b 5c 24 48          	mov    0x48(%esp),%ebx
 804b92e:	e9 0c fa ff ff       	jmp    804b33f <_dtoa_r+0x74f>
 804b933:	90                   	nop
 804b934:	89 34 24             	mov    %esi,(%esp)
 804b937:	89 54 24 24          	mov    %edx,0x24(%esp)
 804b93b:	e8 98 1f 00 00       	call   804d8d8 <__mcmp>
 804b940:	8b 54 24 24          	mov    0x24(%esp),%edx
 804b944:	89 54 24 04          	mov    %edx,0x4(%esp)
 804b948:	89 2c 24             	mov    %ebp,(%esp)
 804b94b:	89 44 24 24          	mov    %eax,0x24(%esp)
 804b94f:	e8 00 19 00 00       	call   804d254 <_Bfree>
 804b954:	8b 44 24 24          	mov    0x24(%esp),%eax
 804b958:	85 c0                	test   %eax,%eax
 804b95a:	0f 85 ab fc ff ff    	jne    804b60b <_dtoa_r+0xa1b>
 804b960:	8b 8c 24 bc 00 00 00 	mov    0xbc(%esp),%ecx
 804b967:	85 c9                	test   %ecx,%ecx
 804b969:	0f 85 9c fc ff ff    	jne    804b60b <_dtoa_r+0xa1b>
 804b96f:	8b 54 24 4c          	mov    0x4c(%esp),%edx
 804b973:	85 d2                	test   %edx,%edx
 804b975:	0f 85 90 fc ff ff    	jne    804b60b <_dtoa_r+0xa1b>
 804b97b:	89 74 24 54          	mov    %esi,0x54(%esp)
 804b97f:	89 f9                	mov    %edi,%ecx
 804b981:	8b 7c 24 3c          	mov    0x3c(%esp),%edi
 804b985:	8b 74 24 58          	mov    0x58(%esp),%esi
 804b989:	83 7c 24 30 39       	cmpl   $0x39,0x30(%esp)
 804b98e:	0f 84 61 02 00 00    	je     804bbf5 <_dtoa_r+0x1005>
 804b994:	8b 5c 24 40          	mov    0x40(%esp),%ebx
 804b998:	85 db                	test   %ebx,%ebx
 804b99a:	7e 07                	jle    804b9a3 <_dtoa_r+0xdb3>
 804b99c:	8d 57 31             	lea    0x31(%edi),%edx
 804b99f:	89 54 24 30          	mov    %edx,0x30(%esp)
 804b9a3:	8a 44 24 30          	mov    0x30(%esp),%al
 804b9a7:	8b 54 24 48          	mov    0x48(%esp),%edx
 804b9ab:	88 02                	mov    %al,(%edx)
 804b9ad:	89 d7                	mov    %edx,%edi
 804b9af:	47                   	inc    %edi
 804b9b0:	8b 44 24 28          	mov    0x28(%esp),%eax
 804b9b4:	89 44 24 4c          	mov    %eax,0x4c(%esp)
 804b9b8:	e9 f3 fd ff ff       	jmp    804b7b0 <_dtoa_r+0xbc0>
 804b9bd:	8d 76 00             	lea    0x0(%esi),%esi
 804b9c0:	e8 ab 18 00 00       	call   804d270 <__multadd>
 804b9c5:	89 c7                	mov    %eax,%edi
 804b9c7:	89 44 24 28          	mov    %eax,0x28(%esp)
 804b9cb:	43                   	inc    %ebx
 804b9cc:	e9 d7 fb ff ff       	jmp    804b5a8 <_dtoa_r+0x9b8>
 804b9d1:	8d 76 00             	lea    0x0(%esi),%esi
 804b9d4:	8b 54 24 38          	mov    0x38(%esp),%edx
 804b9d8:	8b 42 10             	mov    0x10(%edx),%eax
 804b9db:	8b 44 82 10          	mov    0x10(%edx,%eax,4),%eax
 804b9df:	89 04 24             	mov    %eax,(%esp)
 804b9e2:	e8 61 1a 00 00       	call   804d448 <__hi0bits>
 804b9e7:	ba 20 00 00 00       	mov    $0x20,%edx
 804b9ec:	29 c2                	sub    %eax,%edx
 804b9ee:	e9 c4 fa ff ff       	jmp    804b4b7 <_dtoa_r+0x8c7>
 804b9f3:	90                   	nop
 804b9f4:	8b 44 24 38          	mov    0x38(%esp),%eax
 804b9f8:	89 44 24 04          	mov    %eax,0x4(%esp)
 804b9fc:	8b 44 24 54          	mov    0x54(%esp),%eax
 804ba00:	89 04 24             	mov    %eax,(%esp)
 804ba03:	e8 d0 1e 00 00       	call   804d8d8 <__mcmp>
 804ba08:	85 c0                	test   %eax,%eax
 804ba0a:	0f 89 2b fb ff ff    	jns    804b53b <_dtoa_r+0x94b>
 804ba10:	ff 4c 24 44          	decl   0x44(%esp)
 804ba14:	c7 44 24 0c 00 00 00 	movl   $0x0,0xc(%esp)
 804ba1b:	00 
 804ba1c:	c7 44 24 08 0a 00 00 	movl   $0xa,0x8(%esp)
 804ba23:	00 
 804ba24:	8b 44 24 54          	mov    0x54(%esp),%eax
 804ba28:	89 44 24 04          	mov    %eax,0x4(%esp)
 804ba2c:	89 2c 24             	mov    %ebp,(%esp)
 804ba2f:	e8 3c 18 00 00       	call   804d270 <__multadd>
 804ba34:	89 44 24 54          	mov    %eax,0x54(%esp)
 804ba38:	8b 44 24 58          	mov    0x58(%esp),%eax
 804ba3c:	85 c0                	test   %eax,%eax
 804ba3e:	0f 85 5d 04 00 00    	jne    804bea1 <_dtoa_r+0x12b1>
 804ba44:	8b 54 24 68          	mov    0x68(%esp),%edx
 804ba48:	89 54 24 40          	mov    %edx,0x40(%esp)
 804ba4c:	e9 ea fa ff ff       	jmp    804b53b <_dtoa_r+0x94b>
 804ba51:	8d 76 00             	lea    0x0(%esi),%esi
 804ba54:	83 bc 24 bc 00 00 00 	cmpl   $0x2,0xbc(%esp)
 804ba5b:	02 
 804ba5c:	0f 8e e5 fa ff ff    	jle    804b547 <_dtoa_r+0x957>
 804ba62:	8b 44 24 40          	mov    0x40(%esp),%eax
 804ba66:	85 c0                	test   %eax,%eax
 804ba68:	0f 85 5b fe ff ff    	jne    804b8c9 <_dtoa_r+0xcd9>
 804ba6e:	c7 44 24 0c 00 00 00 	movl   $0x0,0xc(%esp)
 804ba75:	00 
 804ba76:	c7 44 24 08 05 00 00 	movl   $0x5,0x8(%esp)
 804ba7d:	00 
 804ba7e:	8b 44 24 38          	mov    0x38(%esp),%eax
 804ba82:	89 44 24 04          	mov    %eax,0x4(%esp)
 804ba86:	89 2c 24             	mov    %ebp,(%esp)
 804ba89:	e8 e2 17 00 00       	call   804d270 <__multadd>
 804ba8e:	89 44 24 38          	mov    %eax,0x38(%esp)
 804ba92:	89 44 24 04          	mov    %eax,0x4(%esp)
 804ba96:	8b 44 24 54          	mov    0x54(%esp),%eax
 804ba9a:	89 04 24             	mov    %eax,(%esp)
 804ba9d:	e8 36 1e 00 00       	call   804d8d8 <__mcmp>
 804baa2:	85 c0                	test   %eax,%eax
 804baa4:	0f 8e 1f fe ff ff    	jle    804b8c9 <_dtoa_r+0xcd9>
 804baaa:	c6 06 31             	movb   $0x31,(%esi)
 804baad:	8d 7e 01             	lea    0x1(%esi),%edi
 804bab0:	ff 44 24 44          	incl   0x44(%esp)
 804bab4:	e9 1f fe ff ff       	jmp    804b8d8 <_dtoa_r+0xce8>
 804bab9:	d9 c0                	fld    %st(0)
 804babb:	52                   	push   %edx
 804babc:	da 0c 24             	fimull (%esp)
 804babf:	5f                   	pop    %edi
 804bac0:	d8 05 9c 06 05 08    	fadds  0x805069c
 804bac6:	dd 5c 24 60          	fstpl  0x60(%esp)
 804baca:	81 6c 24 64 00 00 40 	subl   $0x3400000,0x64(%esp)
 804bad1:	03 
 804bad2:	66 90                	xchg   %ax,%ax
 804bad4:	d8 25 a0 06 05 08    	fsubs  0x80506a0
 804bada:	dd 44 24 60          	fldl   0x60(%esp)
 804bade:	d9 c9                	fxch   %st(1)
 804bae0:	dd e1                	fucom  %st(1)
 804bae2:	df e0                	fnstsw %ax
 804bae4:	f6 c4 45             	test   $0x45,%ah
 804bae7:	0f 84 15 02 00 00    	je     804bd02 <_dtoa_r+0x1112>
 804baed:	d9 c9                	fxch   %st(1)
 804baef:	d9 e0                	fchs   
 804baf1:	da e9                	fucompp 
 804baf3:	df e0                	fnstsw %ax
 804baf5:	f6 c4 45             	test   $0x45,%ah
 804baf8:	0f 85 be f6 ff ff    	jne    804b1bc <_dtoa_r+0x5cc>
 804bafe:	eb 02                	jmp    804bb02 <_dtoa_r+0xf12>
 804bb00:	dd d8                	fstp   %st(0)
 804bb02:	c7 44 24 38 00 00 00 	movl   $0x0,0x38(%esp)
 804bb09:	00 
 804bb0a:	c7 44 24 4c 00 00 00 	movl   $0x0,0x4c(%esp)
 804bb11:	00 
 804bb12:	e9 b2 fd ff ff       	jmp    804b8c9 <_dtoa_r+0xcd9>
 804bb17:	90                   	nop
 804bb18:	8b 54 24 38          	mov    0x38(%esp),%edx
 804bb1c:	89 54 24 08          	mov    %edx,0x8(%esp)
 804bb20:	e9 d7 fd ff ff       	jmp    804b8fc <_dtoa_r+0xd0c>
 804bb25:	8d 76 00             	lea    0x0(%esi),%esi
 804bb28:	c7 44 24 58 00 00 00 	movl   $0x0,0x58(%esp)
 804bb2f:	00 
 804bb30:	e9 ef fc ff ff       	jmp    804b824 <_dtoa_r+0xc34>
 804bb35:	c7 44 24 58 01 00 00 	movl   $0x1,0x58(%esp)
 804bb3c:	00 
 804bb3d:	e9 79 f3 ff ff       	jmp    804aebb <_dtoa_r+0x2cb>
 804bb42:	89 c2                	mov    %eax,%edx
 804bb44:	2b 54 24 38          	sub    0x38(%esp),%edx
 804bb48:	01 54 24 50          	add    %edx,0x50(%esp)
 804bb4c:	89 44 24 38          	mov    %eax,0x38(%esp)
 804bb50:	31 ff                	xor    %edi,%edi
 804bb52:	e9 d4 f7 ff ff       	jmp    804b32b <_dtoa_r+0x73b>
 804bb57:	dd 44 24 30          	fldl   0x30(%esp)
 804bb5b:	ba 02 00 00 00       	mov    $0x2,%edx
 804bb60:	e9 fd f3 ff ff       	jmp    804af62 <_dtoa_r+0x372>
 804bb65:	bb 01 00 00 00       	mov    $0x1,%ebx
 804bb6a:	c7 44 24 68 01 00 00 	movl   $0x1,0x68(%esp)
 804bb71:	00 
 804bb72:	c7 44 24 40 01 00 00 	movl   $0x1,0x40(%esp)
 804bb79:	00 
 804bb7a:	c7 84 24 c0 00 00 00 	movl   $0x1,0xc0(%esp)
 804bb81:	01 00 00 00 
 804bb85:	e9 b8 fc ff ff       	jmp    804b842 <_dtoa_r+0xc52>
 804bb8a:	89 74 24 54          	mov    %esi,0x54(%esp)
 804bb8e:	89 f9                	mov    %edi,%ecx
 804bb90:	8b 7c 24 3c          	mov    0x3c(%esp),%edi
 804bb94:	8b 74 24 58          	mov    0x58(%esp),%esi
 804bb98:	8b 5c 24 30          	mov    0x30(%esp),%ebx
 804bb9c:	85 c0                	test   %eax,%eax
 804bb9e:	0f 8e ff fd ff ff    	jle    804b9a3 <_dtoa_r+0xdb3>
 804bba4:	c7 44 24 08 01 00 00 	movl   $0x1,0x8(%esp)
 804bbab:	00 
 804bbac:	8b 44 24 54          	mov    0x54(%esp),%eax
 804bbb0:	89 44 24 04          	mov    %eax,0x4(%esp)
 804bbb4:	89 2c 24             	mov    %ebp,(%esp)
 804bbb7:	89 4c 24 24          	mov    %ecx,0x24(%esp)
 804bbbb:	e8 20 1c 00 00       	call   804d7e0 <__lshift>
 804bbc0:	89 44 24 54          	mov    %eax,0x54(%esp)
 804bbc4:	8b 44 24 38          	mov    0x38(%esp),%eax
 804bbc8:	89 44 24 04          	mov    %eax,0x4(%esp)
 804bbcc:	8b 44 24 54          	mov    0x54(%esp),%eax
 804bbd0:	89 04 24             	mov    %eax,(%esp)
 804bbd3:	e8 00 1d 00 00       	call   804d8d8 <__mcmp>
 804bbd8:	83 f8 00             	cmp    $0x0,%eax
 804bbdb:	8b 4c 24 24          	mov    0x24(%esp),%ecx
 804bbdf:	0f 8e a6 02 00 00    	jle    804be8b <_dtoa_r+0x129b>
 804bbe5:	8d 57 31             	lea    0x31(%edi),%edx
 804bbe8:	89 54 24 30          	mov    %edx,0x30(%esp)
 804bbec:	83 fb 39             	cmp    $0x39,%ebx
 804bbef:	0f 85 ae fd ff ff    	jne    804b9a3 <_dtoa_r+0xdb3>
 804bbf5:	8b 54 24 48          	mov    0x48(%esp),%edx
 804bbf9:	c6 02 39             	movb   $0x39,(%edx)
 804bbfc:	89 d7                	mov    %edx,%edi
 804bbfe:	47                   	inc    %edi
 804bbff:	8b 44 24 28          	mov    0x28(%esp),%eax
 804bc03:	89 44 24 4c          	mov    %eax,0x4c(%esp)
 804bc07:	b2 39                	mov    $0x39,%dl
 804bc09:	e9 8b fb ff ff       	jmp    804b799 <_dtoa_r+0xba9>
 804bc0e:	75 0e                	jne    804bc1e <_dtoa_r+0x102e>
 804bc10:	f6 44 24 30 01       	testb  $0x1,0x30(%esp)
 804bc15:	74 07                	je     804bc1e <_dtoa_r+0x102e>
 804bc17:	e9 71 fb ff ff       	jmp    804b78d <_dtoa_r+0xb9d>
 804bc1c:	89 c7                	mov    %eax,%edi
 804bc1e:	8d 47 ff             	lea    -0x1(%edi),%eax
 804bc21:	80 7f ff 30          	cmpb   $0x30,-0x1(%edi)
 804bc25:	74 f5                	je     804bc1c <_dtoa_r+0x102c>
 804bc27:	e9 84 fb ff ff       	jmp    804b7b0 <_dtoa_r+0xbc0>
 804bc2c:	f7 d8                	neg    %eax
 804bc2e:	0f 84 cc 01 00 00    	je     804be00 <_dtoa_r+0x1210>
 804bc34:	89 c2                	mov    %eax,%edx
 804bc36:	83 e2 0f             	and    $0xf,%edx
 804bc39:	dd 44 24 30          	fldl   0x30(%esp)
 804bc3d:	dc 0c d5 60 07 05 08 	fmull  0x8050760(,%edx,8)
 804bc44:	ba 02 00 00 00       	mov    $0x2,%edx
 804bc49:	c1 f8 04             	sar    $0x4,%eax
 804bc4c:	0f 84 2d f3 ff ff    	je     804af7f <_dtoa_r+0x38f>
 804bc52:	31 c9                	xor    %ecx,%ecx
 804bc54:	a8 01                	test   $0x1,%al
 804bc56:	74 08                	je     804bc60 <_dtoa_r+0x1070>
 804bc58:	42                   	inc    %edx
 804bc59:	dc 0c cd 20 07 05 08 	fmull  0x8050720(,%ecx,8)
 804bc60:	41                   	inc    %ecx
 804bc61:	d1 f8                	sar    %eax
 804bc63:	75 ef                	jne    804bc54 <_dtoa_r+0x1064>
 804bc65:	e9 15 f3 ff ff       	jmp    804af7f <_dtoa_r+0x38f>
 804bc6a:	42                   	inc    %edx
 804bc6b:	88 10                	mov    %dl,(%eax)
 804bc6d:	e9 3e fb ff ff       	jmp    804b7b0 <_dtoa_r+0xbc0>
 804bc72:	8b 54 24 4c          	mov    0x4c(%esp),%edx
 804bc76:	8b 42 04             	mov    0x4(%edx),%eax
 804bc79:	89 44 24 04          	mov    %eax,0x4(%esp)
 804bc7d:	89 2c 24             	mov    %ebp,(%esp)
 804bc80:	e8 43 15 00 00       	call   804d1c8 <_Balloc>
 804bc85:	89 c3                	mov    %eax,%ebx
 804bc87:	8b 54 24 4c          	mov    0x4c(%esp),%edx
 804bc8b:	8b 42 10             	mov    0x10(%edx),%eax
 804bc8e:	8d 04 85 08 00 00 00 	lea    0x8(,%eax,4),%eax
 804bc95:	89 44 24 08          	mov    %eax,0x8(%esp)
 804bc99:	89 d0                	mov    %edx,%eax
 804bc9b:	83 c0 0c             	add    $0xc,%eax
 804bc9e:	89 44 24 04          	mov    %eax,0x4(%esp)
 804bca2:	8d 43 0c             	lea    0xc(%ebx),%eax
 804bca5:	89 04 24             	mov    %eax,(%esp)
 804bca8:	e8 cb 14 00 00       	call   804d178 <memcpy>
 804bcad:	c7 44 24 08 01 00 00 	movl   $0x1,0x8(%esp)
 804bcb4:	00 
 804bcb5:	89 5c 24 04          	mov    %ebx,0x4(%esp)
 804bcb9:	89 2c 24             	mov    %ebp,(%esp)
 804bcbc:	e8 1f 1b 00 00       	call   804d7e0 <__lshift>
 804bcc1:	89 44 24 28          	mov    %eax,0x28(%esp)
 804bcc5:	e9 b5 f8 ff ff       	jmp    804b57f <_dtoa_r+0x98f>
 804bcca:	89 74 24 54          	mov    %esi,0x54(%esp)
 804bcce:	89 f9                	mov    %edi,%ecx
 804bcd0:	8b 74 24 58          	mov    0x58(%esp),%esi
 804bcd4:	83 7c 24 30 39       	cmpl   $0x39,0x30(%esp)
 804bcd9:	0f 84 16 ff ff ff    	je     804bbf5 <_dtoa_r+0x1005>
 804bcdf:	8a 44 24 30          	mov    0x30(%esp),%al
 804bce3:	40                   	inc    %eax
 804bce4:	e9 be fc ff ff       	jmp    804b9a7 <_dtoa_r+0xdb7>
 804bce9:	89 74 24 54          	mov    %esi,0x54(%esp)
 804bced:	89 f9                	mov    %edi,%ecx
 804bcef:	89 df                	mov    %ebx,%edi
 804bcf1:	8b 74 24 58          	mov    0x58(%esp),%esi
 804bcf5:	8b 44 24 28          	mov    0x28(%esp),%eax
 804bcf9:	89 44 24 4c          	mov    %eax,0x4c(%esp)
 804bcfd:	e9 4a fa ff ff       	jmp    804b74c <_dtoa_r+0xb5c>
 804bd02:	dd d8                	fstp   %st(0)
 804bd04:	dd d8                	fstp   %st(0)
 804bd06:	c7 44 24 38 00 00 00 	movl   $0x0,0x38(%esp)
 804bd0d:	00 
 804bd0e:	c7 44 24 4c 00 00 00 	movl   $0x0,0x4c(%esp)
 804bd15:	00 
 804bd16:	e9 8f fd ff ff       	jmp    804baaa <_dtoa_r+0xeba>
 804bd1b:	8d 41 ff             	lea    -0x1(%ecx),%eax
 804bd1e:	89 44 24 6c          	mov    %eax,0x6c(%esp)
 804bd22:	dd 44 24 60          	fldl   0x60(%esp)
 804bd26:	dc 0c c5 60 07 05 08 	fmull  0x8050760(,%eax,8)
 804bd2d:	d9 c9                	fxch   %st(1)
 804bd2f:	d9 7c 24 7e          	fnstcw 0x7e(%esp)
 804bd33:	66 8b 44 24 7e       	mov    0x7e(%esp),%ax
 804bd38:	b4 0c                	mov    $0xc,%ah
 804bd3a:	66 89 44 24 7c       	mov    %ax,0x7c(%esp)
 804bd3f:	d9 6c 24 7c          	fldcw  0x7c(%esp)
 804bd43:	db 54 24 78          	fistl  0x78(%esp)
 804bd47:	d9 6c 24 7e          	fldcw  0x7e(%esp)
 804bd4b:	8b 44 24 78          	mov    0x78(%esp),%eax
 804bd4f:	50                   	push   %eax
 804bd50:	da 24 24             	fisubl (%esp)
 804bd53:	5a                   	pop    %edx
 804bd54:	83 c0 30             	add    $0x30,%eax
 804bd57:	88 06                	mov    %al,(%esi)
 804bd59:	8d 7e 01             	lea    0x1(%esi),%edi
 804bd5c:	83 f9 01             	cmp    $0x1,%ecx
 804bd5f:	74 3c                	je     804bd9d <_dtoa_r+0x11ad>
 804bd61:	01 f1                	add    %esi,%ecx
 804bd63:	89 f8                	mov    %edi,%eax
 804bd65:	d9 05 98 06 05 08    	flds   0x8050698
 804bd6b:	eb 05                	jmp    804bd72 <_dtoa_r+0x1182>
 804bd6d:	8d 76 00             	lea    0x0(%esi),%esi
 804bd70:	d9 c9                	fxch   %st(1)
 804bd72:	dc c9                	fmul   %st,%st(1)
 804bd74:	d9 c9                	fxch   %st(1)
 804bd76:	d9 6c 24 7c          	fldcw  0x7c(%esp)
 804bd7a:	db 54 24 78          	fistl  0x78(%esp)
 804bd7e:	d9 6c 24 7e          	fldcw  0x7e(%esp)
 804bd82:	8b 54 24 78          	mov    0x78(%esp),%edx
 804bd86:	52                   	push   %edx
 804bd87:	da 24 24             	fisubl (%esp)
 804bd8a:	83 c4 04             	add    $0x4,%esp
 804bd8d:	83 c2 30             	add    $0x30,%edx
 804bd90:	88 10                	mov    %dl,(%eax)
 804bd92:	40                   	inc    %eax
 804bd93:	39 c8                	cmp    %ecx,%eax
 804bd95:	75 d9                	jne    804bd70 <_dtoa_r+0x1180>
 804bd97:	dd d9                	fstp   %st(1)
 804bd99:	03 7c 24 6c          	add    0x6c(%esp),%edi
 804bd9d:	d9 05 a4 06 05 08    	flds   0x80506a4
 804bda3:	d9 c2                	fld    %st(2)
 804bda5:	d8 c1                	fadd   %st(1),%st
 804bda7:	d9 ca                	fxch   %st(2)
 804bda9:	dd e2                	fucom  %st(2)
 804bdab:	df e0                	fnstsw %ax
 804bdad:	dd da                	fstp   %st(2)
 804bdaf:	f6 c4 45             	test   $0x45,%ah
 804bdb2:	0f 85 9c 00 00 00    	jne    804be54 <_dtoa_r+0x1264>
 804bdb8:	dd d8                	fstp   %st(0)
 804bdba:	dd d8                	fstp   %st(0)
 804bdbc:	dd d8                	fstp   %st(0)
 804bdbe:	8a 57 ff             	mov    -0x1(%edi),%dl
 804bdc1:	89 5c 24 44          	mov    %ebx,0x44(%esp)
 804bdc5:	e9 0f f5 ff ff       	jmp    804b2d9 <_dtoa_r+0x6e9>
 804bdca:	2b 5c 24 40          	sub    0x40(%esp),%ebx
 804bdce:	31 c0                	xor    %eax,%eax
 804bdd0:	e9 6a f5 ff ff       	jmp    804b33f <_dtoa_r+0x74f>
 804bdd5:	bb 01 00 00 00       	mov    $0x1,%ebx
 804bdda:	e9 68 f9 ff ff       	jmp    804b747 <_dtoa_r+0xb57>
 804bddf:	42                   	inc    %edx
 804bde0:	88 10                	mov    %dl,(%eax)
 804bde2:	e9 d9 f2 ff ff       	jmp    804b0c0 <_dtoa_r+0x4d0>
 804bde7:	b8 36 00 00 00       	mov    $0x36,%eax
 804bdec:	2b 84 24 88 00 00 00 	sub    0x88(%esp),%eax
 804bdf3:	8b 7c 24 38          	mov    0x38(%esp),%edi
 804bdf7:	8b 5c 24 48          	mov    0x48(%esp),%ebx
 804bdfb:	e9 3f f5 ff ff       	jmp    804b33f <_dtoa_r+0x74f>
 804be00:	dd 44 24 30          	fldl   0x30(%esp)
 804be04:	ba 02 00 00 00       	mov    $0x2,%edx
 804be09:	e9 71 f1 ff ff       	jmp    804af7f <_dtoa_r+0x38f>
 804be0e:	8b 5c 24 40          	mov    0x40(%esp),%ebx
 804be12:	85 db                	test   %ebx,%ebx
 804be14:	0f 84 9f fc ff ff    	je     804bab9 <_dtoa_r+0xec9>
 804be1a:	8b 4c 24 68          	mov    0x68(%esp),%ecx
 804be1e:	85 c9                	test   %ecx,%ecx
 804be20:	0f 8e 94 f3 ff ff    	jle    804b1ba <_dtoa_r+0x5ca>
 804be26:	8b 5c 24 44          	mov    0x44(%esp),%ebx
 804be2a:	4b                   	dec    %ebx
 804be2b:	d8 0d 98 06 05 08    	fmuls  0x8050698
 804be31:	42                   	inc    %edx
 804be32:	d9 c0                	fld    %st(0)
 804be34:	52                   	push   %edx
 804be35:	da 0c 24             	fimull (%esp)
 804be38:	58                   	pop    %eax
 804be39:	d8 05 9c 06 05 08    	fadds  0x805069c
 804be3f:	dd 5c 24 60          	fstpl  0x60(%esp)
 804be43:	81 6c 24 64 00 00 40 	subl   $0x3400000,0x64(%esp)
 804be4a:	03 
 804be4b:	8b 4c 24 68          	mov    0x68(%esp),%ecx
 804be4f:	e9 6f f1 ff ff       	jmp    804afc3 <_dtoa_r+0x3d3>
 804be54:	de e2                	fsubp  %st,%st(2)
 804be56:	d9 c9                	fxch   %st(1)
 804be58:	da e9                	fucompp 
 804be5a:	df e0                	fnstsw %ax
 804be5c:	f6 c4 45             	test   $0x45,%ah
 804be5f:	74 07                	je     804be68 <_dtoa_r+0x1278>
 804be61:	e9 56 f3 ff ff       	jmp    804b1bc <_dtoa_r+0x5cc>
 804be66:	89 c7                	mov    %eax,%edi
 804be68:	8d 47 ff             	lea    -0x1(%edi),%eax
 804be6b:	80 7f ff 30          	cmpb   $0x30,-0x1(%edi)
 804be6f:	74 f5                	je     804be66 <_dtoa_r+0x1276>
 804be71:	e9 33 f2 ff ff       	jmp    804b0a9 <_dtoa_r+0x4b9>
 804be76:	dd d8                	fstp   %st(0)
 804be78:	dd d8                	fstp   %st(0)
 804be7a:	eb 06                	jmp    804be82 <_dtoa_r+0x1292>
 804be7c:	dd d8                	fstp   %st(0)
 804be7e:	dd d8                	fstp   %st(0)
 804be80:	dd d8                	fstp   %st(0)
 804be82:	89 5c 24 44          	mov    %ebx,0x44(%esp)
 804be86:	e9 4e f4 ff ff       	jmp    804b2d9 <_dtoa_r+0x6e9>
 804be8b:	0f 85 12 fb ff ff    	jne    804b9a3 <_dtoa_r+0xdb3>
 804be91:	f6 44 24 30 01       	testb  $0x1,0x30(%esp)
 804be96:	0f 84 07 fb ff ff    	je     804b9a3 <_dtoa_r+0xdb3>
 804be9c:	e9 44 fd ff ff       	jmp    804bbe5 <_dtoa_r+0xff5>
 804bea1:	c7 44 24 0c 00 00 00 	movl   $0x0,0xc(%esp)
 804bea8:	00 
 804bea9:	c7 44 24 08 0a 00 00 	movl   $0xa,0x8(%esp)
 804beb0:	00 
 804beb1:	8b 44 24 4c          	mov    0x4c(%esp),%eax
 804beb5:	89 44 24 04          	mov    %eax,0x4(%esp)
 804beb9:	89 2c 24             	mov    %ebp,(%esp)
 804bebc:	e8 af 13 00 00       	call   804d270 <__multadd>
 804bec1:	89 44 24 4c          	mov    %eax,0x4c(%esp)
 804bec5:	8b 54 24 68          	mov    0x68(%esp),%edx
 804bec9:	89 54 24 40          	mov    %edx,0x40(%esp)
 804becd:	e9 69 f6 ff ff       	jmp    804b53b <_dtoa_r+0x94b>
 804bed2:	0f 84 0f f6 ff ff    	je     804b4e7 <_dtoa_r+0x8f7>
 804bed8:	ba 3c 00 00 00       	mov    $0x3c,%edx
 804bedd:	29 c2                	sub    %eax,%edx
 804bedf:	e9 d9 f7 ff ff       	jmp    804b6bd <_dtoa_r+0xacd>
 804bee4:	bf 01 00 00 00       	mov    $0x1,%edi
 804bee9:	e9 a3 ef ff ff       	jmp    804ae91 <_dtoa_r+0x2a1>
 804beee:	31 d2                	xor    %edx,%edx
 804bef0:	e9 10 f0 ff ff       	jmp    804af05 <_dtoa_r+0x315>
 804bef5:	66 90                	xchg   %ax,%ax
 804bef7:	90                   	nop

0804bef8 <__sflush_r>:
 804bef8:	55                   	push   %ebp
 804bef9:	57                   	push   %edi
 804befa:	56                   	push   %esi
 804befb:	53                   	push   %ebx
 804befc:	83 ec 1c             	sub    $0x1c,%esp
 804beff:	8b 7c 24 30          	mov    0x30(%esp),%edi
 804bf03:	8b 74 24 34          	mov    0x34(%esp),%esi
 804bf07:	8b 46 0c             	mov    0xc(%esi),%eax
 804bf0a:	a8 08                	test   $0x8,%al
 804bf0c:	0f 85 b6 00 00 00    	jne    804bfc8 <__sflush_r+0xd0>
 804bf12:	89 c1                	mov    %eax,%ecx
 804bf14:	80 cd 08             	or     $0x8,%ch
 804bf17:	66 89 4e 0c          	mov    %cx,0xc(%esi)
 804bf1b:	8b 6e 04             	mov    0x4(%esi),%ebp
 804bf1e:	85 ed                	test   %ebp,%ebp
 804bf20:	0f 8e fa 00 00 00    	jle    804c020 <__sflush_r+0x128>
 804bf26:	8b 56 28             	mov    0x28(%esi),%edx
 804bf29:	85 d2                	test   %edx,%edx
 804bf2b:	0f 84 8b 00 00 00    	je     804bfbc <__sflush_r+0xc4>
 804bf31:	8b 1f                	mov    (%edi),%ebx
 804bf33:	c7 07 00 00 00 00    	movl   $0x0,(%edi)
 804bf39:	f6 c4 10             	test   $0x10,%ah
 804bf3c:	0f 84 ee 00 00 00    	je     804c030 <__sflush_r+0x138>
 804bf42:	8b 46 50             	mov    0x50(%esi),%eax
 804bf45:	83 e1 04             	and    $0x4,%ecx
 804bf48:	74 0d                	je     804bf57 <__sflush_r+0x5f>
 804bf4a:	2b 46 04             	sub    0x4(%esi),%eax
 804bf4d:	8b 4e 30             	mov    0x30(%esi),%ecx
 804bf50:	85 c9                	test   %ecx,%ecx
 804bf52:	74 03                	je     804bf57 <__sflush_r+0x5f>
 804bf54:	2b 46 3c             	sub    0x3c(%esi),%eax
 804bf57:	c7 44 24 0c 00 00 00 	movl   $0x0,0xc(%esp)
 804bf5e:	00 
 804bf5f:	89 44 24 08          	mov    %eax,0x8(%esp)
 804bf63:	8b 46 1c             	mov    0x1c(%esi),%eax
 804bf66:	89 44 24 04          	mov    %eax,0x4(%esp)
 804bf6a:	89 3c 24             	mov    %edi,(%esp)
 804bf6d:	ff d2                	call   *%edx
 804bf6f:	83 f8 ff             	cmp    $0xffffffff,%eax
 804bf72:	0f 84 e4 00 00 00    	je     804c05c <__sflush_r+0x164>
 804bf78:	8b 56 0c             	mov    0xc(%esi),%edx
 804bf7b:	89 d1                	mov    %edx,%ecx
 804bf7d:	80 e5 f7             	and    $0xf7,%ch
 804bf80:	66 89 4e 0c          	mov    %cx,0xc(%esi)
 804bf84:	c7 46 04 00 00 00 00 	movl   $0x0,0x4(%esi)
 804bf8b:	8b 4e 10             	mov    0x10(%esi),%ecx
 804bf8e:	89 0e                	mov    %ecx,(%esi)
 804bf90:	80 e6 10             	and    $0x10,%dh
 804bf93:	0f 85 0c 01 00 00    	jne    804c0a5 <__sflush_r+0x1ad>
 804bf99:	89 1f                	mov    %ebx,(%edi)
 804bf9b:	8b 46 30             	mov    0x30(%esi),%eax
 804bf9e:	85 c0                	test   %eax,%eax
 804bfa0:	74 1a                	je     804bfbc <__sflush_r+0xc4>
 804bfa2:	8d 56 40             	lea    0x40(%esi),%edx
 804bfa5:	39 d0                	cmp    %edx,%eax
 804bfa7:	74 0c                	je     804bfb5 <__sflush_r+0xbd>
 804bfa9:	89 44 24 04          	mov    %eax,0x4(%esp)
 804bfad:	89 3c 24             	mov    %edi,(%esp)
 804bfb0:	e8 2f 05 00 00       	call   804c4e4 <_free_r>
 804bfb5:	c7 46 30 00 00 00 00 	movl   $0x0,0x30(%esi)
 804bfbc:	31 c0                	xor    %eax,%eax
 804bfbe:	83 c4 1c             	add    $0x1c,%esp
 804bfc1:	5b                   	pop    %ebx
 804bfc2:	5e                   	pop    %esi
 804bfc3:	5f                   	pop    %edi
 804bfc4:	5d                   	pop    %ebp
 804bfc5:	c3                   	ret    
 804bfc6:	66 90                	xchg   %ax,%ax
 804bfc8:	8b 6e 10             	mov    0x10(%esi),%ebp
 804bfcb:	85 ed                	test   %ebp,%ebp
 804bfcd:	74 ed                	je     804bfbc <__sflush_r+0xc4>
 804bfcf:	8b 1e                	mov    (%esi),%ebx
 804bfd1:	29 eb                	sub    %ebp,%ebx
 804bfd3:	89 2e                	mov    %ebp,(%esi)
 804bfd5:	a8 03                	test   $0x3,%al
 804bfd7:	75 43                	jne    804c01c <__sflush_r+0x124>
 804bfd9:	8b 46 14             	mov    0x14(%esi),%eax
 804bfdc:	89 46 08             	mov    %eax,0x8(%esi)
 804bfdf:	85 db                	test   %ebx,%ebx
 804bfe1:	7f 0d                	jg     804bff0 <__sflush_r+0xf8>
 804bfe3:	eb d7                	jmp    804bfbc <__sflush_r+0xc4>
 804bfe5:	8d 76 00             	lea    0x0(%esi),%esi
 804bfe8:	01 c5                	add    %eax,%ebp
 804bfea:	29 c3                	sub    %eax,%ebx
 804bfec:	85 db                	test   %ebx,%ebx
 804bfee:	7e cc                	jle    804bfbc <__sflush_r+0xc4>
 804bff0:	89 5c 24 0c          	mov    %ebx,0xc(%esp)
 804bff4:	89 6c 24 08          	mov    %ebp,0x8(%esp)
 804bff8:	8b 46 1c             	mov    0x1c(%esi),%eax
 804bffb:	89 44 24 04          	mov    %eax,0x4(%esp)
 804bfff:	89 3c 24             	mov    %edi,(%esp)
 804c002:	ff 56 24             	call   *0x24(%esi)
 804c005:	85 c0                	test   %eax,%eax
 804c007:	7f df                	jg     804bfe8 <__sflush_r+0xf0>
 804c009:	66 83 4e 0c 40       	orw    $0x40,0xc(%esi)
 804c00e:	b8 ff ff ff ff       	mov    $0xffffffff,%eax
 804c013:	83 c4 1c             	add    $0x1c,%esp
 804c016:	5b                   	pop    %ebx
 804c017:	5e                   	pop    %esi
 804c018:	5f                   	pop    %edi
 804c019:	5d                   	pop    %ebp
 804c01a:	c3                   	ret    
 804c01b:	90                   	nop
 804c01c:	31 c0                	xor    %eax,%eax
 804c01e:	eb bc                	jmp    804bfdc <__sflush_r+0xe4>
 804c020:	8b 5e 3c             	mov    0x3c(%esi),%ebx
 804c023:	85 db                	test   %ebx,%ebx
 804c025:	0f 8f fb fe ff ff    	jg     804bf26 <__sflush_r+0x2e>
 804c02b:	eb 8f                	jmp    804bfbc <__sflush_r+0xc4>
 804c02d:	8d 76 00             	lea    0x0(%esi),%esi
 804c030:	c7 44 24 0c 01 00 00 	movl   $0x1,0xc(%esp)
 804c037:	00 
 804c038:	c7 44 24 08 00 00 00 	movl   $0x0,0x8(%esp)
 804c03f:	00 
 804c040:	8b 46 1c             	mov    0x1c(%esi),%eax
 804c043:	89 44 24 04          	mov    %eax,0x4(%esp)
 804c047:	89 3c 24             	mov    %edi,(%esp)
 804c04a:	ff d2                	call   *%edx
 804c04c:	83 f8 ff             	cmp    $0xffffffff,%eax
 804c04f:	74 37                	je     804c088 <__sflush_r+0x190>
 804c051:	8b 4e 0c             	mov    0xc(%esi),%ecx
 804c054:	8b 56 28             	mov    0x28(%esi),%edx
 804c057:	e9 e9 fe ff ff       	jmp    804bf45 <__sflush_r+0x4d>
 804c05c:	8b 17                	mov    (%edi),%edx
 804c05e:	85 d2                	test   %edx,%edx
 804c060:	0f 84 12 ff ff ff    	je     804bf78 <__sflush_r+0x80>
 804c066:	83 fa 1d             	cmp    $0x1d,%edx
 804c069:	74 05                	je     804c070 <__sflush_r+0x178>
 804c06b:	83 fa 16             	cmp    $0x16,%edx
 804c06e:	75 99                	jne    804c009 <__sflush_r+0x111>
 804c070:	66 81 66 0c ff f7    	andw   $0xf7ff,0xc(%esi)
 804c076:	c7 46 04 00 00 00 00 	movl   $0x0,0x4(%esi)
 804c07d:	8b 46 10             	mov    0x10(%esi),%eax
 804c080:	89 06                	mov    %eax,(%esi)
 804c082:	e9 12 ff ff ff       	jmp    804bf99 <__sflush_r+0xa1>
 804c087:	90                   	nop
 804c088:	8b 17                	mov    (%edi),%edx
 804c08a:	85 d2                	test   %edx,%edx
 804c08c:	74 c3                	je     804c051 <__sflush_r+0x159>
 804c08e:	83 fa 1d             	cmp    $0x1d,%edx
 804c091:	74 09                	je     804c09c <__sflush_r+0x1a4>
 804c093:	83 fa 16             	cmp    $0x16,%edx
 804c096:	0f 85 6d ff ff ff    	jne    804c009 <__sflush_r+0x111>
 804c09c:	89 1f                	mov    %ebx,(%edi)
 804c09e:	31 c0                	xor    %eax,%eax
 804c0a0:	e9 19 ff ff ff       	jmp    804bfbe <__sflush_r+0xc6>
 804c0a5:	89 46 50             	mov    %eax,0x50(%esi)
 804c0a8:	e9 ec fe ff ff       	jmp    804bf99 <__sflush_r+0xa1>
 804c0ad:	8d 76 00             	lea    0x0(%esi),%esi

0804c0b0 <_fflush_r>:
 804c0b0:	56                   	push   %esi
 804c0b1:	53                   	push   %ebx
 804c0b2:	83 ec 14             	sub    $0x14,%esp
 804c0b5:	8b 5c 24 20          	mov    0x20(%esp),%ebx
 804c0b9:	8b 74 24 24          	mov    0x24(%esp),%esi
 804c0bd:	85 db                	test   %ebx,%ebx
 804c0bf:	74 07                	je     804c0c8 <_fflush_r+0x18>
 804c0c1:	8b 43 38             	mov    0x38(%ebx),%eax
 804c0c4:	85 c0                	test   %eax,%eax
 804c0c6:	74 24                	je     804c0ec <_fflush_r+0x3c>
 804c0c8:	66 83 7e 0c 00       	cmpw   $0x0,0xc(%esi)
 804c0cd:	75 09                	jne    804c0d8 <_fflush_r+0x28>
 804c0cf:	31 c0                	xor    %eax,%eax
 804c0d1:	83 c4 14             	add    $0x14,%esp
 804c0d4:	5b                   	pop    %ebx
 804c0d5:	5e                   	pop    %esi
 804c0d6:	c3                   	ret    
 804c0d7:	90                   	nop
 804c0d8:	89 74 24 24          	mov    %esi,0x24(%esp)
 804c0dc:	89 5c 24 20          	mov    %ebx,0x20(%esp)
 804c0e0:	83 c4 14             	add    $0x14,%esp
 804c0e3:	5b                   	pop    %ebx
 804c0e4:	5e                   	pop    %esi
 804c0e5:	e9 0e fe ff ff       	jmp    804bef8 <__sflush_r>
 804c0ea:	66 90                	xchg   %ax,%ax
 804c0ec:	89 1c 24             	mov    %ebx,(%esp)
 804c0ef:	e8 50 01 00 00       	call   804c244 <__sinit>
 804c0f4:	eb d2                	jmp    804c0c8 <_fflush_r+0x18>
 804c0f6:	66 90                	xchg   %ax,%ax

0804c0f8 <fflush>:
 804c0f8:	83 ec 1c             	sub    $0x1c,%esp
 804c0fb:	8b 44 24 20          	mov    0x20(%esp),%eax
 804c0ff:	85 c0                	test   %eax,%eax
 804c101:	74 15                	je     804c118 <fflush+0x20>
 804c103:	89 44 24 04          	mov    %eax,0x4(%esp)
 804c107:	a1 20 20 05 08       	mov    0x8052020,%eax
 804c10c:	89 04 24             	mov    %eax,(%esp)
 804c10f:	e8 9c ff ff ff       	call   804c0b0 <_fflush_r>
 804c114:	83 c4 1c             	add    $0x1c,%esp
 804c117:	c3                   	ret    
 804c118:	c7 44 24 04 b0 c0 04 	movl   $0x804c0b0,0x4(%esp)
 804c11f:	08 
 804c120:	a1 b8 04 05 08       	mov    0x80504b8,%eax
 804c125:	89 04 24             	mov    %eax,(%esp)
 804c128:	e8 73 06 00 00       	call   804c7a0 <_fwalk_reent>
 804c12d:	83 c4 1c             	add    $0x1c,%esp
 804c130:	c3                   	ret    
 804c131:	66 90                	xchg   %ax,%ax
 804c133:	90                   	nop

0804c134 <__fp_lock>:
 804c134:	31 c0                	xor    %eax,%eax
 804c136:	c3                   	ret    
 804c137:	90                   	nop

0804c138 <__fp_unlock>:
 804c138:	31 c0                	xor    %eax,%eax
 804c13a:	c3                   	ret    
 804c13b:	90                   	nop

0804c13c <_cleanup_r>:
 804c13c:	83 ec 1c             	sub    $0x1c,%esp
 804c13f:	c7 44 24 04 04 f3 04 	movl   $0x804f304,0x4(%esp)
 804c146:	08 
 804c147:	8b 44 24 20          	mov    0x20(%esp),%eax
 804c14b:	89 04 24             	mov    %eax,(%esp)
 804c14e:	e8 e9 05 00 00       	call   804c73c <_fwalk>
 804c153:	83 c4 1c             	add    $0x1c,%esp
 804c156:	c3                   	ret    
 804c157:	90                   	nop

0804c158 <std.isra.0>:
 804c158:	53                   	push   %ebx
 804c159:	83 ec 18             	sub    $0x18,%esp
 804c15c:	89 c3                	mov    %eax,%ebx
 804c15e:	c7 00 00 00 00 00    	movl   $0x0,(%eax)
 804c164:	c7 40 04 00 00 00 00 	movl   $0x0,0x4(%eax)
 804c16b:	c7 40 08 00 00 00 00 	movl   $0x0,0x8(%eax)
 804c172:	66 89 50 0c          	mov    %dx,0xc(%eax)
 804c176:	c7 40 64 00 00 00 00 	movl   $0x0,0x64(%eax)
 804c17d:	66 89 48 0e          	mov    %cx,0xe(%eax)
 804c181:	c7 40 10 00 00 00 00 	movl   $0x0,0x10(%eax)
 804c188:	c7 40 14 00 00 00 00 	movl   $0x0,0x14(%eax)
 804c18f:	c7 40 18 00 00 00 00 	movl   $0x0,0x18(%eax)
 804c196:	c7 44 24 08 08 00 00 	movl   $0x8,0x8(%esp)
 804c19d:	00 
 804c19e:	c7 44 24 04 00 00 00 	movl   $0x0,0x4(%esp)
 804c1a5:	00 
 804c1a6:	8d 40 5c             	lea    0x5c(%eax),%eax
 804c1a9:	89 04 24             	mov    %eax,(%esp)
 804c1ac:	e8 13 c4 ff ff       	call   80485c4 <memset>
 804c1b1:	89 5b 1c             	mov    %ebx,0x1c(%ebx)
 804c1b4:	c7 43 20 64 df 04 08 	movl   $0x804df64,0x20(%ebx)
 804c1bb:	c7 43 24 ac df 04 08 	movl   $0x804dfac,0x24(%ebx)
 804c1c2:	c7 43 28 18 e0 04 08 	movl   $0x804e018,0x28(%ebx)
 804c1c9:	c7 43 2c 64 e0 04 08 	movl   $0x804e064,0x2c(%ebx)
 804c1d0:	83 c4 18             	add    $0x18,%esp
 804c1d3:	5b                   	pop    %ebx
 804c1d4:	c3                   	ret    
 804c1d5:	8d 76 00             	lea    0x0(%esi),%esi

0804c1d8 <__sfmoreglue>:
 804c1d8:	57                   	push   %edi
 804c1d9:	56                   	push   %esi
 804c1da:	53                   	push   %ebx
 804c1db:	83 ec 10             	sub    $0x10,%esp
 804c1de:	8b 74 24 24          	mov    0x24(%esp),%esi
 804c1e2:	8d 04 76             	lea    (%esi,%esi,2),%eax
 804c1e5:	8d 3c 86             	lea    (%esi,%eax,4),%edi
 804c1e8:	c1 e7 03             	shl    $0x3,%edi
 804c1eb:	8d 47 0c             	lea    0xc(%edi),%eax
 804c1ee:	89 44 24 04          	mov    %eax,0x4(%esp)
 804c1f2:	8b 44 24 20          	mov    0x20(%esp),%eax
 804c1f6:	89 04 24             	mov    %eax,(%esp)
 804c1f9:	e8 e2 07 00 00       	call   804c9e0 <_malloc_r>
 804c1fe:	89 c3                	mov    %eax,%ebx
 804c200:	85 c0                	test   %eax,%eax
 804c202:	74 23                	je     804c227 <__sfmoreglue+0x4f>
 804c204:	8d 40 0c             	lea    0xc(%eax),%eax
 804c207:	c7 03 00 00 00 00    	movl   $0x0,(%ebx)
 804c20d:	89 73 04             	mov    %esi,0x4(%ebx)
 804c210:	89 43 08             	mov    %eax,0x8(%ebx)
 804c213:	89 7c 24 08          	mov    %edi,0x8(%esp)
 804c217:	c7 44 24 04 00 00 00 	movl   $0x0,0x4(%esp)
 804c21e:	00 
 804c21f:	89 04 24             	mov    %eax,(%esp)
 804c222:	e8 9d c3 ff ff       	call   80485c4 <memset>
 804c227:	89 d8                	mov    %ebx,%eax
 804c229:	83 c4 10             	add    $0x10,%esp
 804c22c:	5b                   	pop    %ebx
 804c22d:	5e                   	pop    %esi
 804c22e:	5f                   	pop    %edi
 804c22f:	c3                   	ret    

0804c230 <_cleanup>:
 804c230:	83 ec 1c             	sub    $0x1c,%esp
 804c233:	a1 b8 04 05 08       	mov    0x80504b8,%eax
 804c238:	89 04 24             	mov    %eax,(%esp)
 804c23b:	e8 fc fe ff ff       	call   804c13c <_cleanup_r>
 804c240:	83 c4 1c             	add    $0x1c,%esp
 804c243:	c3                   	ret    

0804c244 <__sinit>:
 804c244:	53                   	push   %ebx
 804c245:	83 ec 08             	sub    $0x8,%esp
 804c248:	8b 5c 24 10          	mov    0x10(%esp),%ebx
 804c24c:	8b 43 38             	mov    0x38(%ebx),%eax
 804c24f:	85 c0                	test   %eax,%eax
 804c251:	74 05                	je     804c258 <__sinit+0x14>
 804c253:	83 c4 08             	add    $0x8,%esp
 804c256:	5b                   	pop    %ebx
 804c257:	c3                   	ret    
 804c258:	c7 43 3c 3c c1 04 08 	movl   $0x804c13c,0x3c(%ebx)
 804c25f:	c7 43 38 01 00 00 00 	movl   $0x1,0x38(%ebx)
 804c266:	c7 83 e0 02 00 00 00 	movl   $0x0,0x2e0(%ebx)
 804c26d:	00 00 00 
 804c270:	c7 83 e4 02 00 00 03 	movl   $0x3,0x2e4(%ebx)
 804c277:	00 00 00 
 804c27a:	8d 83 ec 02 00 00    	lea    0x2ec(%ebx),%eax
 804c280:	89 83 e8 02 00 00    	mov    %eax,0x2e8(%ebx)
 804c286:	8b 43 04             	mov    0x4(%ebx),%eax
 804c289:	31 c9                	xor    %ecx,%ecx
 804c28b:	ba 04 00 00 00       	mov    $0x4,%edx
 804c290:	e8 c3 fe ff ff       	call   804c158 <std.isra.0>
 804c295:	8b 43 08             	mov    0x8(%ebx),%eax
 804c298:	b9 01 00 00 00       	mov    $0x1,%ecx
 804c29d:	ba 09 00 00 00       	mov    $0x9,%edx
 804c2a2:	e8 b1 fe ff ff       	call   804c158 <std.isra.0>
 804c2a7:	8b 43 0c             	mov    0xc(%ebx),%eax
 804c2aa:	b9 02 00 00 00       	mov    $0x2,%ecx
 804c2af:	ba 12 00 00 00       	mov    $0x12,%edx
 804c2b4:	83 c4 08             	add    $0x8,%esp
 804c2b7:	5b                   	pop    %ebx
 804c2b8:	e9 9b fe ff ff       	jmp    804c158 <std.isra.0>
 804c2bd:	8d 76 00             	lea    0x0(%esi),%esi

0804c2c0 <__sfp>:
 804c2c0:	56                   	push   %esi
 804c2c1:	53                   	push   %ebx
 804c2c2:	83 ec 14             	sub    $0x14,%esp
 804c2c5:	8b 35 b8 04 05 08    	mov    0x80504b8,%esi
 804c2cb:	8b 56 38             	mov    0x38(%esi),%edx
 804c2ce:	85 d2                	test   %edx,%edx
 804c2d0:	0f 84 b6 00 00 00    	je     804c38c <__sfp+0xcc>
 804c2d6:	81 c6 e0 02 00 00    	add    $0x2e0,%esi
 804c2dc:	8b 5e 08             	mov    0x8(%esi),%ebx
 804c2df:	8b 46 04             	mov    0x4(%esi),%eax
 804c2e2:	48                   	dec    %eax
 804c2e3:	79 14                	jns    804c2f9 <__sfp+0x39>
 804c2e5:	e9 92 00 00 00       	jmp    804c37c <__sfp+0xbc>
 804c2ea:	66 90                	xchg   %ax,%ax
 804c2ec:	83 c3 68             	add    $0x68,%ebx
 804c2ef:	48                   	dec    %eax
 804c2f0:	83 f8 ff             	cmp    $0xffffffff,%eax
 804c2f3:	0f 84 83 00 00 00    	je     804c37c <__sfp+0xbc>
 804c2f9:	66 83 7b 0c 00       	cmpw   $0x0,0xc(%ebx)
 804c2fe:	75 ec                	jne    804c2ec <__sfp+0x2c>
 804c300:	66 c7 43 0e ff ff    	movw   $0xffff,0xe(%ebx)
 804c306:	66 c7 43 0c 01 00    	movw   $0x1,0xc(%ebx)
 804c30c:	c7 43 64 00 00 00 00 	movl   $0x0,0x64(%ebx)
 804c313:	c7 03 00 00 00 00    	movl   $0x0,(%ebx)
 804c319:	c7 43 08 00 00 00 00 	movl   $0x0,0x8(%ebx)
 804c320:	c7 43 04 00 00 00 00 	movl   $0x0,0x4(%ebx)
 804c327:	c7 43 10 00 00 00 00 	movl   $0x0,0x10(%ebx)
 804c32e:	c7 43 14 00 00 00 00 	movl   $0x0,0x14(%ebx)
 804c335:	c7 43 18 00 00 00 00 	movl   $0x0,0x18(%ebx)
 804c33c:	c7 44 24 08 08 00 00 	movl   $0x8,0x8(%esp)
 804c343:	00 
 804c344:	c7 44 24 04 00 00 00 	movl   $0x0,0x4(%esp)
 804c34b:	00 
 804c34c:	8d 43 5c             	lea    0x5c(%ebx),%eax
 804c34f:	89 04 24             	mov    %eax,(%esp)
 804c352:	e8 6d c2 ff ff       	call   80485c4 <memset>
 804c357:	c7 43 30 00 00 00 00 	movl   $0x0,0x30(%ebx)
 804c35e:	c7 43 34 00 00 00 00 	movl   $0x0,0x34(%ebx)
 804c365:	c7 43 44 00 00 00 00 	movl   $0x0,0x44(%ebx)
 804c36c:	c7 43 48 00 00 00 00 	movl   $0x0,0x48(%ebx)
 804c373:	89 d8                	mov    %ebx,%eax
 804c375:	83 c4 14             	add    $0x14,%esp
 804c378:	5b                   	pop    %ebx
 804c379:	5e                   	pop    %esi
 804c37a:	c3                   	ret    
 804c37b:	90                   	nop
 804c37c:	8b 06                	mov    (%esi),%eax
 804c37e:	85 c0                	test   %eax,%eax
 804c380:	74 17                	je     804c399 <__sfp+0xd9>
 804c382:	89 c6                	mov    %eax,%esi
 804c384:	e9 53 ff ff ff       	jmp    804c2dc <__sfp+0x1c>
 804c389:	8d 76 00             	lea    0x0(%esi),%esi
 804c38c:	89 34 24             	mov    %esi,(%esp)
 804c38f:	e8 b0 fe ff ff       	call   804c244 <__sinit>
 804c394:	e9 3d ff ff ff       	jmp    804c2d6 <__sfp+0x16>
 804c399:	c7 44 24 04 04 00 00 	movl   $0x4,0x4(%esp)
 804c3a0:	00 
 804c3a1:	8b 44 24 20          	mov    0x20(%esp),%eax
 804c3a5:	89 04 24             	mov    %eax,(%esp)
 804c3a8:	e8 2b fe ff ff       	call   804c1d8 <__sfmoreglue>
 804c3ad:	89 06                	mov    %eax,(%esi)
 804c3af:	85 c0                	test   %eax,%eax
 804c3b1:	75 cf                	jne    804c382 <__sfp+0xc2>
 804c3b3:	8b 44 24 20          	mov    0x20(%esp),%eax
 804c3b7:	c7 00 0c 00 00 00    	movl   $0xc,(%eax)
 804c3bd:	31 db                	xor    %ebx,%ebx
 804c3bf:	eb b2                	jmp    804c373 <__sfp+0xb3>
 804c3c1:	8d 76 00             	lea    0x0(%esi),%esi

0804c3c4 <__sfp_lock_acquire>:
 804c3c4:	c3                   	ret    
 804c3c5:	8d 76 00             	lea    0x0(%esi),%esi

0804c3c8 <__sfp_lock_release>:
 804c3c8:	c3                   	ret    
 804c3c9:	8d 76 00             	lea    0x0(%esi),%esi

0804c3cc <__sinit_lock_acquire>:
 804c3cc:	c3                   	ret    
 804c3cd:	8d 76 00             	lea    0x0(%esi),%esi

0804c3d0 <__sinit_lock_release>:
 804c3d0:	c3                   	ret    
 804c3d1:	8d 76 00             	lea    0x0(%esi),%esi

0804c3d4 <__fp_lock_all>:
 804c3d4:	83 ec 1c             	sub    $0x1c,%esp
 804c3d7:	c7 44 24 04 34 c1 04 	movl   $0x804c134,0x4(%esp)
 804c3de:	08 
 804c3df:	a1 20 20 05 08       	mov    0x8052020,%eax
 804c3e4:	89 04 24             	mov    %eax,(%esp)
 804c3e7:	e8 50 03 00 00       	call   804c73c <_fwalk>
 804c3ec:	83 c4 1c             	add    $0x1c,%esp
 804c3ef:	c3                   	ret    

0804c3f0 <__fp_unlock_all>:
 804c3f0:	83 ec 1c             	sub    $0x1c,%esp
 804c3f3:	c7 44 24 04 38 c1 04 	movl   $0x804c138,0x4(%esp)
 804c3fa:	08 
 804c3fb:	a1 20 20 05 08       	mov    0x8052020,%eax
 804c400:	89 04 24             	mov    %eax,(%esp)
 804c403:	e8 34 03 00 00       	call   804c73c <_fwalk>
 804c408:	83 c4 1c             	add    $0x1c,%esp
 804c40b:	c3                   	ret    

0804c40c <_malloc_trim_r>:
 804c40c:	57                   	push   %edi
 804c40d:	56                   	push   %esi
 804c40e:	53                   	push   %ebx
 804c40f:	83 ec 10             	sub    $0x10,%esp
 804c412:	8b 74 24 20          	mov    0x20(%esp),%esi
 804c416:	89 34 24             	mov    %esi,(%esp)
 804c419:	e8 a2 0d 00 00       	call   804d1c0 <__malloc_lock>
 804c41e:	a1 48 25 05 08       	mov    0x8052548,%eax
 804c423:	8b 58 04             	mov    0x4(%eax),%ebx
 804c426:	83 e3 fc             	and    $0xfffffffc,%ebx
 804c429:	8d 83 ef 0f 00 00    	lea    0xfef(%ebx),%eax
 804c42f:	2b 44 24 24          	sub    0x24(%esp),%eax
 804c433:	25 00 f0 ff ff       	and    $0xfffff000,%eax
 804c438:	8d b8 00 f0 ff ff    	lea    -0x1000(%eax),%edi
 804c43e:	81 ff ff 0f 00 00    	cmp    $0xfff,%edi
 804c444:	7e 1c                	jle    804c462 <_malloc_trim_r+0x56>
 804c446:	c7 44 24 04 00 00 00 	movl   $0x0,0x4(%esp)
 804c44d:	00 
 804c44e:	89 34 24             	mov    %esi,(%esp)
 804c451:	e8 d6 1a 00 00       	call   804df2c <_sbrk_r>
 804c456:	8b 15 48 25 05 08    	mov    0x8052548,%edx
 804c45c:	01 da                	add    %ebx,%edx
 804c45e:	39 d0                	cmp    %edx,%eax
 804c460:	74 12                	je     804c474 <_malloc_trim_r+0x68>
 804c462:	89 34 24             	mov    %esi,(%esp)
 804c465:	e8 5a 0d 00 00       	call   804d1c4 <__malloc_unlock>
 804c46a:	31 c0                	xor    %eax,%eax
 804c46c:	83 c4 10             	add    $0x10,%esp
 804c46f:	5b                   	pop    %ebx
 804c470:	5e                   	pop    %esi
 804c471:	5f                   	pop    %edi
 804c472:	c3                   	ret    
 804c473:	90                   	nop
 804c474:	89 f8                	mov    %edi,%eax
 804c476:	f7 d8                	neg    %eax
 804c478:	89 44 24 04          	mov    %eax,0x4(%esp)
 804c47c:	89 34 24             	mov    %esi,(%esp)
 804c47f:	e8 a8 1a 00 00       	call   804df2c <_sbrk_r>
 804c484:	40                   	inc    %eax
 804c485:	74 29                	je     804c4b0 <_malloc_trim_r+0xa4>
 804c487:	29 fb                	sub    %edi,%ebx
 804c489:	83 cb 01             	or     $0x1,%ebx
 804c48c:	a1 48 25 05 08       	mov    0x8052548,%eax
 804c491:	89 58 04             	mov    %ebx,0x4(%eax)
 804c494:	29 3d 80 29 05 08    	sub    %edi,0x8052980
 804c49a:	89 34 24             	mov    %esi,(%esp)
 804c49d:	e8 22 0d 00 00       	call   804d1c4 <__malloc_unlock>
 804c4a2:	b8 01 00 00 00       	mov    $0x1,%eax
 804c4a7:	83 c4 10             	add    $0x10,%esp
 804c4aa:	5b                   	pop    %ebx
 804c4ab:	5e                   	pop    %esi
 804c4ac:	5f                   	pop    %edi
 804c4ad:	c3                   	ret    
 804c4ae:	66 90                	xchg   %ax,%ax
 804c4b0:	c7 44 24 04 00 00 00 	movl   $0x0,0x4(%esp)
 804c4b7:	00 
 804c4b8:	89 34 24             	mov    %esi,(%esp)
 804c4bb:	e8 6c 1a 00 00       	call   804df2c <_sbrk_r>
 804c4c0:	8b 15 48 25 05 08    	mov    0x8052548,%edx
 804c4c6:	89 c1                	mov    %eax,%ecx
 804c4c8:	29 d1                	sub    %edx,%ecx
 804c4ca:	83 f9 0f             	cmp    $0xf,%ecx
 804c4cd:	7e 93                	jle    804c462 <_malloc_trim_r+0x56>
 804c4cf:	2b 05 20 25 05 08    	sub    0x8052520,%eax
 804c4d5:	a3 80 29 05 08       	mov    %eax,0x8052980
 804c4da:	83 c9 01             	or     $0x1,%ecx
 804c4dd:	89 4a 04             	mov    %ecx,0x4(%edx)
 804c4e0:	eb 80                	jmp    804c462 <_malloc_trim_r+0x56>
 804c4e2:	66 90                	xchg   %ax,%ax

0804c4e4 <_free_r>:
 804c4e4:	55                   	push   %ebp
 804c4e5:	57                   	push   %edi
 804c4e6:	56                   	push   %esi
 804c4e7:	53                   	push   %ebx
 804c4e8:	83 ec 1c             	sub    $0x1c,%esp
 804c4eb:	8b 74 24 30          	mov    0x30(%esp),%esi
 804c4ef:	8b 7c 24 34          	mov    0x34(%esp),%edi
 804c4f3:	85 ff                	test   %edi,%edi
 804c4f5:	0f 84 f1 00 00 00    	je     804c5ec <_free_r+0x108>
 804c4fb:	89 34 24             	mov    %esi,(%esp)
 804c4fe:	e8 bd 0c 00 00       	call   804d1c0 <__malloc_lock>
 804c503:	8d 5f f8             	lea    -0x8(%edi),%ebx
 804c506:	8b 6f fc             	mov    -0x4(%edi),%ebp
 804c509:	89 e8                	mov    %ebp,%eax
 804c50b:	83 e0 fe             	and    $0xfffffffe,%eax
 804c50e:	8d 14 03             	lea    (%ebx,%eax,1),%edx
 804c511:	8b 4a 04             	mov    0x4(%edx),%ecx
 804c514:	83 e1 fc             	and    $0xfffffffc,%ecx
 804c517:	39 15 48 25 05 08    	cmp    %edx,0x8052548
 804c51d:	0f 84 45 01 00 00    	je     804c668 <_free_r+0x184>
 804c523:	89 4a 04             	mov    %ecx,0x4(%edx)
 804c526:	83 e5 01             	and    $0x1,%ebp
 804c529:	0f 84 95 00 00 00    	je     804c5c4 <_free_r+0xe0>
 804c52f:	31 ff                	xor    %edi,%edi
 804c531:	f6 44 0a 04 01       	testb  $0x1,0x4(%edx,%ecx,1)
 804c536:	75 16                	jne    804c54e <_free_r+0x6a>
 804c538:	01 c8                	add    %ecx,%eax
 804c53a:	8b 4a 08             	mov    0x8(%edx),%ecx
 804c53d:	85 ff                	test   %edi,%edi
 804c53f:	0f 84 eb 00 00 00    	je     804c630 <_free_r+0x14c>
 804c545:	8b 52 0c             	mov    0xc(%edx),%edx
 804c548:	89 51 0c             	mov    %edx,0xc(%ecx)
 804c54b:	89 4a 08             	mov    %ecx,0x8(%edx)
 804c54e:	89 c2                	mov    %eax,%edx
 804c550:	83 ca 01             	or     $0x1,%edx
 804c553:	89 53 04             	mov    %edx,0x4(%ebx)
 804c556:	89 04 03             	mov    %eax,(%ebx,%eax,1)
 804c559:	85 ff                	test   %edi,%edi
 804c55b:	75 57                	jne    804c5b4 <_free_r+0xd0>
 804c55d:	3d ff 01 00 00       	cmp    $0x1ff,%eax
 804c562:	0f 86 8c 00 00 00    	jbe    804c5f4 <_free_r+0x110>
 804c568:	89 c1                	mov    %eax,%ecx
 804c56a:	c1 e9 09             	shr    $0x9,%ecx
 804c56d:	83 f9 04             	cmp    $0x4,%ecx
 804c570:	0f 87 4a 01 00 00    	ja     804c6c0 <_free_r+0x1dc>
 804c576:	89 c1                	mov    %eax,%ecx
 804c578:	c1 e9 06             	shr    $0x6,%ecx
 804c57b:	83 c1 38             	add    $0x38,%ecx
 804c57e:	8d 14 09             	lea    (%ecx,%ecx,1),%edx
 804c581:	8d 3c 95 40 25 05 08 	lea    0x8052540(,%edx,4),%edi
 804c588:	8b 57 08             	mov    0x8(%edi),%edx
 804c58b:	39 fa                	cmp    %edi,%edx
 804c58d:	0f 84 3d 01 00 00    	je     804c6d0 <_free_r+0x1ec>
 804c593:	90                   	nop
 804c594:	8b 4a 04             	mov    0x4(%edx),%ecx
 804c597:	83 e1 fc             	and    $0xfffffffc,%ecx
 804c59a:	39 c8                	cmp    %ecx,%eax
 804c59c:	73 07                	jae    804c5a5 <_free_r+0xc1>
 804c59e:	8b 52 08             	mov    0x8(%edx),%edx
 804c5a1:	39 d7                	cmp    %edx,%edi
 804c5a3:	75 ef                	jne    804c594 <_free_r+0xb0>
 804c5a5:	8b 42 0c             	mov    0xc(%edx),%eax
 804c5a8:	89 43 0c             	mov    %eax,0xc(%ebx)
 804c5ab:	89 53 08             	mov    %edx,0x8(%ebx)
 804c5ae:	89 58 08             	mov    %ebx,0x8(%eax)
 804c5b1:	89 5a 0c             	mov    %ebx,0xc(%edx)
 804c5b4:	89 74 24 30          	mov    %esi,0x30(%esp)
 804c5b8:	83 c4 1c             	add    $0x1c,%esp
 804c5bb:	5b                   	pop    %ebx
 804c5bc:	5e                   	pop    %esi
 804c5bd:	5f                   	pop    %edi
 804c5be:	5d                   	pop    %ebp
 804c5bf:	e9 00 0c 00 00       	jmp    804d1c4 <__malloc_unlock>
 804c5c4:	8b 7f f8             	mov    -0x8(%edi),%edi
 804c5c7:	29 fb                	sub    %edi,%ebx
 804c5c9:	01 f8                	add    %edi,%eax
 804c5cb:	8b 7b 08             	mov    0x8(%ebx),%edi
 804c5ce:	81 ff 48 25 05 08    	cmp    $0x8052548,%edi
 804c5d4:	0f 84 da 00 00 00    	je     804c6b4 <_free_r+0x1d0>
 804c5da:	8b 6b 0c             	mov    0xc(%ebx),%ebp
 804c5dd:	89 6f 0c             	mov    %ebp,0xc(%edi)
 804c5e0:	89 7d 08             	mov    %edi,0x8(%ebp)
 804c5e3:	31 ff                	xor    %edi,%edi
 804c5e5:	e9 47 ff ff ff       	jmp    804c531 <_free_r+0x4d>
 804c5ea:	66 90                	xchg   %ax,%ax
 804c5ec:	83 c4 1c             	add    $0x1c,%esp
 804c5ef:	5b                   	pop    %ebx
 804c5f0:	5e                   	pop    %esi
 804c5f1:	5f                   	pop    %edi
 804c5f2:	5d                   	pop    %ebp
 804c5f3:	c3                   	ret    
 804c5f4:	c1 e8 03             	shr    $0x3,%eax
 804c5f7:	89 c1                	mov    %eax,%ecx
 804c5f9:	c1 f9 02             	sar    $0x2,%ecx
 804c5fc:	ba 01 00 00 00       	mov    $0x1,%edx
 804c601:	d3 e2                	shl    %cl,%edx
 804c603:	09 15 44 25 05 08    	or     %edx,0x8052544
 804c609:	8d 04 c5 40 25 05 08 	lea    0x8052540(,%eax,8),%eax
 804c610:	8b 50 08             	mov    0x8(%eax),%edx
 804c613:	89 43 0c             	mov    %eax,0xc(%ebx)
 804c616:	89 53 08             	mov    %edx,0x8(%ebx)
 804c619:	89 58 08             	mov    %ebx,0x8(%eax)
 804c61c:	89 5a 0c             	mov    %ebx,0xc(%edx)
 804c61f:	89 74 24 30          	mov    %esi,0x30(%esp)
 804c623:	83 c4 1c             	add    $0x1c,%esp
 804c626:	5b                   	pop    %ebx
 804c627:	5e                   	pop    %esi
 804c628:	5f                   	pop    %edi
 804c629:	5d                   	pop    %ebp
 804c62a:	e9 95 0b 00 00       	jmp    804d1c4 <__malloc_unlock>
 804c62f:	90                   	nop
 804c630:	81 f9 48 25 05 08    	cmp    $0x8052548,%ecx
 804c636:	0f 85 09 ff ff ff    	jne    804c545 <_free_r+0x61>
 804c63c:	89 1d 54 25 05 08    	mov    %ebx,0x8052554
 804c642:	89 1d 50 25 05 08    	mov    %ebx,0x8052550
 804c648:	c7 43 0c 48 25 05 08 	movl   $0x8052548,0xc(%ebx)
 804c64f:	c7 43 08 48 25 05 08 	movl   $0x8052548,0x8(%ebx)
 804c656:	89 c2                	mov    %eax,%edx
 804c658:	83 ca 01             	or     $0x1,%edx
 804c65b:	89 53 04             	mov    %edx,0x4(%ebx)
 804c65e:	89 04 03             	mov    %eax,(%ebx,%eax,1)
 804c661:	e9 4e ff ff ff       	jmp    804c5b4 <_free_r+0xd0>
 804c666:	66 90                	xchg   %ax,%ax
 804c668:	01 c8                	add    %ecx,%eax
 804c66a:	83 e5 01             	and    $0x1,%ebp
 804c66d:	75 13                	jne    804c682 <_free_r+0x19e>
 804c66f:	8b 57 f8             	mov    -0x8(%edi),%edx
 804c672:	29 d3                	sub    %edx,%ebx
 804c674:	01 d0                	add    %edx,%eax
 804c676:	8b 53 0c             	mov    0xc(%ebx),%edx
 804c679:	8b 4b 08             	mov    0x8(%ebx),%ecx
 804c67c:	89 51 0c             	mov    %edx,0xc(%ecx)
 804c67f:	89 4a 08             	mov    %ecx,0x8(%edx)
 804c682:	89 c2                	mov    %eax,%edx
 804c684:	83 ca 01             	or     $0x1,%edx
 804c687:	89 53 04             	mov    %edx,0x4(%ebx)
 804c68a:	89 1d 48 25 05 08    	mov    %ebx,0x8052548
 804c690:	3b 05 24 25 05 08    	cmp    0x8052524,%eax
 804c696:	0f 82 18 ff ff ff    	jb     804c5b4 <_free_r+0xd0>
 804c69c:	a1 b0 29 05 08       	mov    0x80529b0,%eax
 804c6a1:	89 44 24 04          	mov    %eax,0x4(%esp)
 804c6a5:	89 34 24             	mov    %esi,(%esp)
 804c6a8:	e8 5f fd ff ff       	call   804c40c <_malloc_trim_r>
 804c6ad:	e9 02 ff ff ff       	jmp    804c5b4 <_free_r+0xd0>
 804c6b2:	66 90                	xchg   %ax,%ax
 804c6b4:	bf 01 00 00 00       	mov    $0x1,%edi
 804c6b9:	e9 73 fe ff ff       	jmp    804c531 <_free_r+0x4d>
 804c6be:	66 90                	xchg   %ax,%ax
 804c6c0:	83 f9 14             	cmp    $0x14,%ecx
 804c6c3:	77 23                	ja     804c6e8 <_free_r+0x204>
 804c6c5:	83 c1 5b             	add    $0x5b,%ecx
 804c6c8:	8d 14 09             	lea    (%ecx,%ecx,1),%edx
 804c6cb:	e9 b1 fe ff ff       	jmp    804c581 <_free_r+0x9d>
 804c6d0:	c1 f9 02             	sar    $0x2,%ecx
 804c6d3:	b8 01 00 00 00       	mov    $0x1,%eax
 804c6d8:	d3 e0                	shl    %cl,%eax
 804c6da:	09 05 44 25 05 08    	or     %eax,0x8052544
 804c6e0:	89 d0                	mov    %edx,%eax
 804c6e2:	e9 c1 fe ff ff       	jmp    804c5a8 <_free_r+0xc4>
 804c6e7:	90                   	nop
 804c6e8:	83 f9 54             	cmp    $0x54,%ecx
 804c6eb:	77 10                	ja     804c6fd <_free_r+0x219>
 804c6ed:	89 c1                	mov    %eax,%ecx
 804c6ef:	c1 e9 0c             	shr    $0xc,%ecx
 804c6f2:	83 c1 6e             	add    $0x6e,%ecx
 804c6f5:	8d 14 09             	lea    (%ecx,%ecx,1),%edx
 804c6f8:	e9 84 fe ff ff       	jmp    804c581 <_free_r+0x9d>
 804c6fd:	81 f9 54 01 00 00    	cmp    $0x154,%ecx
 804c703:	77 10                	ja     804c715 <_free_r+0x231>
 804c705:	89 c1                	mov    %eax,%ecx
 804c707:	c1 e9 0f             	shr    $0xf,%ecx
 804c70a:	83 c1 77             	add    $0x77,%ecx
 804c70d:	8d 14 09             	lea    (%ecx,%ecx,1),%edx
 804c710:	e9 6c fe ff ff       	jmp    804c581 <_free_r+0x9d>
 804c715:	81 f9 54 05 00 00    	cmp    $0x554,%ecx
 804c71b:	77 10                	ja     804c72d <_free_r+0x249>
 804c71d:	89 c1                	mov    %eax,%ecx
 804c71f:	c1 e9 12             	shr    $0x12,%ecx
 804c722:	83 c1 7c             	add    $0x7c,%ecx
 804c725:	8d 14 09             	lea    (%ecx,%ecx,1),%edx
 804c728:	e9 54 fe ff ff       	jmp    804c581 <_free_r+0x9d>
 804c72d:	ba fc 00 00 00       	mov    $0xfc,%edx
 804c732:	b9 7e 00 00 00       	mov    $0x7e,%ecx
 804c737:	e9 45 fe ff ff       	jmp    804c581 <_free_r+0x9d>

0804c73c <_fwalk>:
 804c73c:	55                   	push   %ebp
 804c73d:	57                   	push   %edi
 804c73e:	56                   	push   %esi
 804c73f:	53                   	push   %ebx
 804c740:	83 ec 1c             	sub    $0x1c,%esp
 804c743:	8b 6c 24 30          	mov    0x30(%esp),%ebp
 804c747:	31 ff                	xor    %edi,%edi
 804c749:	81 c5 e0 02 00 00    	add    $0x2e0,%ebp
 804c74f:	74 43                	je     804c794 <_fwalk+0x58>
 804c751:	8d 76 00             	lea    0x0(%esi),%esi
 804c754:	8b 5d 08             	mov    0x8(%ebp),%ebx
 804c757:	8b 75 04             	mov    0x4(%ebp),%esi
 804c75a:	4e                   	dec    %esi
 804c75b:	78 30                	js     804c78d <_fwalk+0x51>
 804c75d:	8d 76 00             	lea    0x0(%esi),%esi
 804c760:	66 8b 43 0c          	mov    0xc(%ebx),%ax
 804c764:	66 85 c0             	test   %ax,%ax
 804c767:	74 1b                	je     804c784 <_fwalk+0x48>
 804c769:	66 83 f8 01          	cmp    $0x1,%ax
 804c76d:	76 15                	jbe    804c784 <_fwalk+0x48>
 804c76f:	66 83 7b 0e ff       	cmpw   $0xffff,0xe(%ebx)
 804c774:	74 0e                	je     804c784 <_fwalk+0x48>
 804c776:	89 1c 24             	mov    %ebx,(%esp)
 804c779:	8b 54 24 34          	mov    0x34(%esp),%edx
 804c77d:	ff d2                	call   *%edx
 804c77f:	09 c7                	or     %eax,%edi
 804c781:	8d 76 00             	lea    0x0(%esi),%esi
 804c784:	83 c3 68             	add    $0x68,%ebx
 804c787:	4e                   	dec    %esi
 804c788:	83 fe ff             	cmp    $0xffffffff,%esi
 804c78b:	75 d3                	jne    804c760 <_fwalk+0x24>
 804c78d:	8b 6d 00             	mov    0x0(%ebp),%ebp
 804c790:	85 ed                	test   %ebp,%ebp
 804c792:	75 c0                	jne    804c754 <_fwalk+0x18>
 804c794:	89 f8                	mov    %edi,%eax
 804c796:	83 c4 1c             	add    $0x1c,%esp
 804c799:	5b                   	pop    %ebx
 804c79a:	5e                   	pop    %esi
 804c79b:	5f                   	pop    %edi
 804c79c:	5d                   	pop    %ebp
 804c79d:	c3                   	ret    
 804c79e:	66 90                	xchg   %ax,%ax

0804c7a0 <_fwalk_reent>:
 804c7a0:	55                   	push   %ebp
 804c7a1:	57                   	push   %edi
 804c7a2:	56                   	push   %esi
 804c7a3:	53                   	push   %ebx
 804c7a4:	83 ec 1c             	sub    $0x1c,%esp
 804c7a7:	8b 6c 24 30          	mov    0x30(%esp),%ebp
 804c7ab:	31 f6                	xor    %esi,%esi
 804c7ad:	81 c5 e0 02 00 00    	add    $0x2e0,%ebp
 804c7b3:	74 4b                	je     804c800 <_fwalk_reent+0x60>
 804c7b5:	8d 76 00             	lea    0x0(%esi),%esi
 804c7b8:	8b 5d 08             	mov    0x8(%ebp),%ebx
 804c7bb:	8b 7d 04             	mov    0x4(%ebp),%edi
 804c7be:	4f                   	dec    %edi
 804c7bf:	78 38                	js     804c7f9 <_fwalk_reent+0x59>
 804c7c1:	8d 76 00             	lea    0x0(%esi),%esi
 804c7c4:	66 8b 43 0c          	mov    0xc(%ebx),%ax
 804c7c8:	66 85 c0             	test   %ax,%ax
 804c7cb:	74 23                	je     804c7f0 <_fwalk_reent+0x50>
 804c7cd:	66 83 f8 01          	cmp    $0x1,%ax
 804c7d1:	76 1d                	jbe    804c7f0 <_fwalk_reent+0x50>
 804c7d3:	66 83 7b 0e ff       	cmpw   $0xffff,0xe(%ebx)
 804c7d8:	74 16                	je     804c7f0 <_fwalk_reent+0x50>
 804c7da:	89 5c 24 04          	mov    %ebx,0x4(%esp)
 804c7de:	8b 54 24 30          	mov    0x30(%esp),%edx
 804c7e2:	89 14 24             	mov    %edx,(%esp)
 804c7e5:	8b 54 24 34          	mov    0x34(%esp),%edx
 804c7e9:	ff d2                	call   *%edx
 804c7eb:	09 c6                	or     %eax,%esi
 804c7ed:	8d 76 00             	lea    0x0(%esi),%esi
 804c7f0:	83 c3 68             	add    $0x68,%ebx
 804c7f3:	4f                   	dec    %edi
 804c7f4:	83 ff ff             	cmp    $0xffffffff,%edi
 804c7f7:	75 cb                	jne    804c7c4 <_fwalk_reent+0x24>
 804c7f9:	8b 6d 00             	mov    0x0(%ebp),%ebp
 804c7fc:	85 ed                	test   %ebp,%ebp
 804c7fe:	75 b8                	jne    804c7b8 <_fwalk_reent+0x18>
 804c800:	89 f0                	mov    %esi,%eax
 804c802:	83 c4 1c             	add    $0x1c,%esp
 804c805:	5b                   	pop    %ebx
 804c806:	5e                   	pop    %esi
 804c807:	5f                   	pop    %edi
 804c808:	5d                   	pop    %ebp
 804c809:	c3                   	ret    
 804c80a:	66 90                	xchg   %ax,%ax

0804c80c <_setlocale_r>:
 804c80c:	53                   	push   %ebx
 804c80d:	83 ec 18             	sub    $0x18,%esp
 804c810:	8b 5c 24 28          	mov    0x28(%esp),%ebx
 804c814:	85 db                	test   %ebx,%ebx
 804c816:	74 14                	je     804c82c <_setlocale_r+0x20>
 804c818:	c7 44 24 04 c0 06 05 	movl   $0x80506c0,0x4(%esp)
 804c81f:	08 
 804c820:	89 1c 24             	mov    %ebx,(%esp)
 804c823:	e8 50 18 00 00       	call   804e078 <strcmp>
 804c828:	85 c0                	test   %eax,%eax
 804c82a:	75 0c                	jne    804c838 <_setlocale_r+0x2c>
 804c82c:	b8 bc 04 05 08       	mov    $0x80504bc,%eax
 804c831:	83 c4 18             	add    $0x18,%esp
 804c834:	5b                   	pop    %ebx
 804c835:	c3                   	ret    
 804c836:	66 90                	xchg   %ax,%ax
 804c838:	c7 44 24 04 bc 04 05 	movl   $0x80504bc,0x4(%esp)
 804c83f:	08 
 804c840:	89 1c 24             	mov    %ebx,(%esp)
 804c843:	e8 30 18 00 00       	call   804e078 <strcmp>
 804c848:	85 c0                	test   %eax,%eax
 804c84a:	74 e0                	je     804c82c <_setlocale_r+0x20>
 804c84c:	c7 44 24 04 f6 04 05 	movl   $0x80504f6,0x4(%esp)
 804c853:	08 
 804c854:	89 1c 24             	mov    %ebx,(%esp)
 804c857:	e8 1c 18 00 00       	call   804e078 <strcmp>
 804c85c:	89 c2                	mov    %eax,%edx
 804c85e:	b8 bc 04 05 08       	mov    $0x80504bc,%eax
 804c863:	85 d2                	test   %edx,%edx
 804c865:	74 ca                	je     804c831 <_setlocale_r+0x25>
 804c867:	31 c0                	xor    %eax,%eax
 804c869:	eb c6                	jmp    804c831 <_setlocale_r+0x25>
 804c86b:	90                   	nop

0804c86c <__locale_charset>:
 804c86c:	b8 a0 24 05 08       	mov    $0x80524a0,%eax
 804c871:	c3                   	ret    
 804c872:	66 90                	xchg   %ax,%ax

0804c874 <__locale_mb_cur_max>:
 804c874:	a1 80 24 05 08       	mov    0x8052480,%eax
 804c879:	c3                   	ret    
 804c87a:	66 90                	xchg   %ax,%ax

0804c87c <__locale_msgcharset>:
 804c87c:	b8 c0 24 05 08       	mov    $0x80524c0,%eax
 804c881:	c3                   	ret    
 804c882:	66 90                	xchg   %ax,%ax

0804c884 <__locale_cjk_lang>:
 804c884:	31 c0                	xor    %eax,%eax
 804c886:	c3                   	ret    
 804c887:	90                   	nop

0804c888 <_localeconv_r>:
 804c888:	b8 e0 24 05 08       	mov    $0x80524e0,%eax
 804c88d:	c3                   	ret    
 804c88e:	66 90                	xchg   %ax,%ax

0804c890 <setlocale>:
 804c890:	83 ec 1c             	sub    $0x1c,%esp
 804c893:	8b 44 24 24          	mov    0x24(%esp),%eax
 804c897:	89 44 24 08          	mov    %eax,0x8(%esp)
 804c89b:	8b 44 24 20          	mov    0x20(%esp),%eax
 804c89f:	89 44 24 04          	mov    %eax,0x4(%esp)
 804c8a3:	a1 20 20 05 08       	mov    0x8052020,%eax
 804c8a8:	89 04 24             	mov    %eax,(%esp)
 804c8ab:	e8 5c ff ff ff       	call   804c80c <_setlocale_r>
 804c8b0:	83 c4 1c             	add    $0x1c,%esp
 804c8b3:	c3                   	ret    

0804c8b4 <localeconv>:
 804c8b4:	b8 e0 24 05 08       	mov    $0x80524e0,%eax
 804c8b9:	c3                   	ret    
 804c8ba:	66 90                	xchg   %ax,%ax

0804c8bc <__smakebuf_r>:
 804c8bc:	55                   	push   %ebp
 804c8bd:	57                   	push   %edi
 804c8be:	56                   	push   %esi
 804c8bf:	53                   	push   %ebx
 804c8c0:	83 ec 5c             	sub    $0x5c,%esp
 804c8c3:	8b 7c 24 70          	mov    0x70(%esp),%edi
 804c8c7:	8b 5c 24 74          	mov    0x74(%esp),%ebx
 804c8cb:	8b 43 0c             	mov    0xc(%ebx),%eax
 804c8ce:	a8 02                	test   $0x2,%al
 804c8d0:	0f 85 b2 00 00 00    	jne    804c988 <__smakebuf_r+0xcc>
 804c8d6:	0f bf 53 0e          	movswl 0xe(%ebx),%edx
 804c8da:	66 85 d2             	test   %dx,%dx
 804c8dd:	78 48                	js     804c927 <__smakebuf_r+0x6b>
 804c8df:	8d 44 24 14          	lea    0x14(%esp),%eax
 804c8e3:	89 44 24 08          	mov    %eax,0x8(%esp)
 804c8e7:	89 54 24 04          	mov    %edx,0x4(%esp)
 804c8eb:	89 3c 24             	mov    %edi,(%esp)
 804c8ee:	e8 91 2b 00 00       	call   804f484 <_fstat_r>
 804c8f3:	85 c0                	test   %eax,%eax
 804c8f5:	78 2d                	js     804c924 <__smakebuf_r+0x68>
 804c8f7:	8b 44 24 18          	mov    0x18(%esp),%eax
 804c8fb:	25 00 f0 00 00       	and    $0xf000,%eax
 804c900:	31 d2                	xor    %edx,%edx
 804c902:	3d 00 20 00 00       	cmp    $0x2000,%eax
 804c907:	0f 94 c2             	sete   %dl
 804c90a:	89 d5                	mov    %edx,%ebp
 804c90c:	3d 00 80 00 00       	cmp    $0x8000,%eax
 804c911:	0f 84 89 00 00 00    	je     804c9a0 <__smakebuf_r+0xe4>
 804c917:	66 81 4b 0c 00 08    	orw    $0x800,0xc(%ebx)
 804c91d:	be 00 04 00 00       	mov    $0x400,%esi
 804c922:	eb 23                	jmp    804c947 <__smakebuf_r+0x8b>
 804c924:	8b 43 0c             	mov    0xc(%ebx),%eax
 804c927:	89 c2                	mov    %eax,%edx
 804c929:	81 e2 80 00 00 00    	and    $0x80,%edx
 804c92f:	66 83 fa 01          	cmp    $0x1,%dx
 804c933:	19 f6                	sbb    %esi,%esi
 804c935:	81 e6 c0 03 00 00    	and    $0x3c0,%esi
 804c93b:	83 c6 40             	add    $0x40,%esi
 804c93e:	80 cc 08             	or     $0x8,%ah
 804c941:	66 89 43 0c          	mov    %ax,0xc(%ebx)
 804c945:	31 ed                	xor    %ebp,%ebp
