
microblaze-elf.x:     file format elf32-microblaze


Disassembly of section .text:

00001400 <_start>:
    1400:	b0000001 	imm	1
    1404:	30207e60 	addik	r1, r0, 32352	// 17e60 <__end>
    1408:	b9f4016c 	brlid	r15, 364	// 1574 <_startmain>
    140c:	80000000 	or	r0, r0, r0
    1410:	10a30000 	addk	r5, r3, r0

00001414 <__exit>:
    1414:	10650000 	addk	r3, r5, r0
    1418:	b8000000 	bri	0		// 1418
    141c:	b60f0008 	rtsd	r15, 8
    1420:	80000000 	or	r0, r0, r0

00001424 <__read>:
    1424:	b60f0008 	rtsd	r15, 8
    1428:	80000000 	or	r0, r0, r0

0000142c <__write>:
    142c:	bc67002c 	blei	r7, 44		// 1458
    1430:	b0000001 	imm	1
    1434:	e8603400 	lwi	r3, r0, 13312	// 13400 <__gp>
    1438:	e0a60000 	lbui	r5, r6, 0
    143c:	f0a30000 	sbi	r5, r3, 0
    1440:	30630001 	addik	r3, r3, 1
    1444:	b0000001 	imm	1
    1448:	f8603400 	swi	r3, r0, 13312	// 13400 <__gp>
    144c:	30c60001 	addik	r6, r6, 1
    1450:	30e7ffff 	addik	r7, r7, -1
    1454:	b808142c 	brai	5164	// 142c <__write>
    1458:	b60f0008 	rtsd	r15, 8
    145c:	80000000 	or	r0, r0, r0

00001460 <__open>:
    1460:	b60f0008 	rtsd	r15, 8
    1464:	80000000 	or	r0, r0, r0

00001468 <__close>:
    1468:	b60f0008 	rtsd	r15, 8
    146c:	80000000 	or	r0, r0, r0

00001470 <_exit>:
    1470:	3021ffe4 	addik	r1, r1, -28
    1474:	f9e10000 	swi	r15, r1, 0
    1478:	b9f4ff9c 	brlid	r15, -100	// 1414 <__exit>
    147c:	80000000 	or	r0, r0, r0

00001480 <read>:
    1480:	3021ffe4 	addik	r1, r1, -28
    1484:	f9e10000 	swi	r15, r1, 0
    1488:	b9f4ff9c 	brlid	r15, -100	// 1424 <__read>
    148c:	80000000 	or	r0, r0, r0
    1490:	e9e10000 	lwi	r15, r1, 0
    1494:	b60f0008 	rtsd	r15, 8
    1498:	3021001c 	addik	r1, r1, 28

0000149c <write>:
    149c:	3021ffe4 	addik	r1, r1, -28
    14a0:	f9e10000 	swi	r15, r1, 0
    14a4:	b9f4ff88 	brlid	r15, -120	// 142c <__write>
    14a8:	80000000 	or	r0, r0, r0
    14ac:	e9e10000 	lwi	r15, r1, 0
    14b0:	b60f0008 	rtsd	r15, 8
    14b4:	3021001c 	addik	r1, r1, 28

000014b8 <open>:
    14b8:	3021ffe4 	addik	r1, r1, -28
    14bc:	f9e10000 	swi	r15, r1, 0
    14c0:	b9f4ffa0 	brlid	r15, -96	// 1460 <__open>
    14c4:	80000000 	or	r0, r0, r0
    14c8:	e9e10000 	lwi	r15, r1, 0
    14cc:	b60f0008 	rtsd	r15, 8
    14d0:	3021001c 	addik	r1, r1, 28

000014d4 <close>:
    14d4:	3021ffe4 	addik	r1, r1, -28
    14d8:	f9e10000 	swi	r15, r1, 0
    14dc:	b9f4ff8c 	brlid	r15, -116	// 1468 <__close>
    14e0:	80000000 	or	r0, r0, r0
    14e4:	e9e10000 	lwi	r15, r1, 0
    14e8:	b60f0008 	rtsd	r15, 8
    14ec:	3021001c 	addik	r1, r1, 28

000014f0 <fstat>:
    14f0:	3021ffe4 	addik	r1, r1, -28
    14f4:	f9e10000 	swi	r15, r1, 0
    14f8:	10a60000 	addk	r5, r6, r0
    14fc:	10c00000 	addk	r6, r0, r0
    1500:	b9f400dc 	brlid	r15, 220	// 15dc <memset>
    1504:	30e0003c 	addik	r7, r0, 60
    1508:	10600000 	addk	r3, r0, r0
    150c:	e9e10000 	lwi	r15, r1, 0
    1510:	b60f0008 	rtsd	r15, 8
    1514:	3021001c 	addik	r1, r1, 28

00001518 <lseek>:
    1518:	b60f0008 	rtsd	r15, 8
    151c:	10660000 	addk	r3, r6, r0

00001520 <sbrk>:
    1520:	b0000001 	imm	1
    1524:	e8603484 	lwi	r3, r0, 13444	// 13484 <sbrk_top>
    1528:	10a32800 	addk	r5, r3, r5
    152c:	b0000001 	imm	1
    1530:	f8a03484 	swi	r5, r0, 13444	// 13484 <sbrk_top>
    1534:	b60f0008 	rtsd	r15, 8
    1538:	80000000 	or	r0, r0, r0

0000153c <isatty>:
    153c:	b60f0008 	rtsd	r15, 8
    1540:	30600001 	addik	r3, r0, 1

00001544 <main>:
    1544:	3021ffe4 	addik	r1, r1, -28
    1548:	f9e10000 	swi	r15, r1, 0
    154c:	b0000001 	imm	1
    1550:	30a02a00 	addik	r5, r0, 10752	// 12a00 <__etext>
    1554:	b0000001 	imm	1
    1558:	e8c03488 	lwi	r6, r0, 13448	// 13488 <data_value>
    155c:	b0000001 	imm	1
    1560:	30e02a2c 	addik	r7, r0, 10796
    1564:	b9f4027c 	brlid	r15, 636	// 17e0 <printf>
    1568:	80000000 	or	r0, r0, r0
    156c:	b9f40038 	brlid	r15, 56	// 15a4 <exit>
    1570:	10a00000 	addk	r5, r0, r0

00001574 <_startmain>:
    1574:	3021ffe4 	addik	r1, r1, -28
    1578:	f9e10000 	swi	r15, r1, 0
    157c:	b0000001 	imm	1
    1580:	30603a10 	addik	r3, r0, 14864	// 13a10 <__edata>
    1584:	10a30000 	addk	r5, r3, r0
    1588:	10c00000 	addk	r6, r0, r0
    158c:	b0000001 	imm	1
    1590:	30e07a58 	addik	r7, r0, 31320	// 17a58 <__ebss>
    1594:	b9f40048 	brlid	r15, 72	// 15dc <memset>
    1598:	14e33800 	rsubk	r7, r3, r7
    159c:	b9f4ffa8 	brlid	r15, -88	// 1544 <main>
    15a0:	80000000 	or	r0, r0, r0

000015a4 <exit>:
    15a4:	3021ffe0 	addik	r1, r1, -32
    15a8:	10c00000 	addk	r6, r0, r0
    15ac:	fa61001c 	swi	r19, r1, 28
    15b0:	f9e10000 	swi	r15, r1, 0
    15b4:	b9f431e4 	brlid	r15, 12772	// 4798 <__call_exitprocs>
    15b8:	12650000 	addk	r19, r5, r0
    15bc:	b0000001 	imm	1
    15c0:	e8a02a3c 	lwi	r5, r0, 10812	// 12a3c <_global_impure_ptr>
    15c4:	e8650028 	lwi	r3, r5, 40
    15c8:	bc03000c 	beqi	r3, 12		// 15d4
    15cc:	99fc1800 	brald	r15, r3
    15d0:	80000000 	or	r0, r0, r0
    15d4:	b9f4fe9c 	brlid	r15, -356	// 1470 <_exit>
    15d8:	10b30000 	addk	r5, r19, r0

000015dc <memset>:
    15dc:	a4850003 	andi	r4, r5, 3
    15e0:	be04018c 	beqid	r4, 396		// 176c
    15e4:	10650000 	addk	r3, r5, r0
    15e8:	3107ffff 	addik	r8, r7, -1
    15ec:	91260060 	sext8	r9, r6
    15f0:	be270018 	bneid	r7, 24		// 1608
    15f4:	10850000 	addk	r4, r5, r0
    15f8:	b8000180 	bri	384		// 1778
    15fc:	be080168 	beqid	r8, 360		// 1764
    1600:	30e8ffff 	addik	r7, r8, -1
    1604:	11070000 	addk	r8, r7, r0
    1608:	f1240000 	sbi	r9, r4, 0
    160c:	30840001 	addik	r4, r4, 1
    1610:	a4e40003 	andi	r7, r4, 3
    1614:	bc27ffe8 	bnei	r7, -24		// 15fc
    1618:	30a00003 	addik	r5, r0, 3
    161c:	14a82803 	cmpu	r5, r8, r5
    1620:	bea50128 	bgeid	r5, 296		// 1748
    1624:	a4a600ff 	andi	r5, r6, 255
    1628:	10e52800 	addk	r7, r5, r5
    162c:	10e73800 	addk	r7, r7, r7
    1630:	10e73800 	addk	r7, r7, r7
    1634:	10e73800 	addk	r7, r7, r7
    1638:	10e73800 	addk	r7, r7, r7
    163c:	10e73800 	addk	r7, r7, r7
    1640:	10e73800 	addk	r7, r7, r7
    1644:	10e73800 	addk	r7, r7, r7
    1648:	80e72800 	or	r7, r7, r5
    164c:	11273800 	addk	r9, r7, r7
    1650:	11294800 	addk	r9, r9, r9
    1654:	11294800 	addk	r9, r9, r9
    1658:	11294800 	addk	r9, r9, r9
    165c:	11294800 	addk	r9, r9, r9
    1660:	11294800 	addk	r9, r9, r9
    1664:	11294800 	addk	r9, r9, r9
    1668:	11294800 	addk	r9, r9, r9
    166c:	11294800 	addk	r9, r9, r9
    1670:	11294800 	addk	r9, r9, r9
    1674:	11294800 	addk	r9, r9, r9
    1678:	11294800 	addk	r9, r9, r9
    167c:	11294800 	addk	r9, r9, r9
    1680:	11294800 	addk	r9, r9, r9
    1684:	30a0000f 	addik	r5, r0, 15
    1688:	11294800 	addk	r9, r9, r9
    168c:	11294800 	addk	r9, r9, r9
    1690:	15682803 	cmpu	r11, r8, r5
    1694:	81293800 	or	r9, r9, r7
    1698:	11480000 	addk	r10, r8, r0
    169c:	beab0068 	bgeid	r11, 104		// 1704
    16a0:	10e40000 	addk	r7, r4, r0
    16a4:	314afff0 	addik	r10, r10, -16
    16a8:	f9270000 	swi	r9, r7, 0
    16ac:	f9270004 	swi	r9, r7, 4
    16b0:	f9270008 	swi	r9, r7, 8
    16b4:	f927000c 	swi	r9, r7, 12
    16b8:	156a2803 	cmpu	r11, r10, r5
    16bc:	be4bffe8 	bltid	r11, -24		// 16a4
    16c0:	30e70010 	addik	r7, r7, 16
    16c4:	30e8fff0 	addik	r7, r8, -16
    16c8:	10a03800 	addk	r5, r0, r7
    16cc:	90a70041 	srl	r5, r7
    16d0:	90a50041 	srl	r5, r5
    16d4:	90a50041 	srl	r5, r5
    16d8:	90a50041 	srl	r5, r5
    16dc:	30a50001 	addik	r5, r5, 1
    16e0:	10a52800 	addk	r5, r5, r5
    16e4:	10a52800 	addk	r5, r5, r5
    16e8:	10a52800 	addk	r5, r5, r5
    16ec:	a508000f 	andi	r8, r8, 15
    16f0:	30e00003 	addik	r7, r0, 3
    16f4:	10a52800 	addk	r5, r5, r5
    16f8:	14e83803 	cmpu	r7, r8, r7
    16fc:	bea7004c 	bgeid	r7, 76		// 1748
    1700:	10842800 	addk	r4, r4, r5
    1704:	11440000 	addk	r10, r4, r0
    1708:	10e80000 	addk	r7, r8, r0
    170c:	30a00003 	addik	r5, r0, 3
    1710:	30e7fffc 	addik	r7, r7, -4
    1714:	f92a0000 	swi	r9, r10, 0
    1718:	15672803 	cmpu	r11, r7, r5
    171c:	be4bfff4 	bltid	r11, -12		// 1710
    1720:	314a0004 	addik	r10, r10, 4
    1724:	30e8fffc 	addik	r7, r8, -4
    1728:	10a03800 	addk	r5, r0, r7
    172c:	90a70041 	srl	r5, r7
    1730:	90a50041 	srl	r5, r5
    1734:	30a50001 	addik	r5, r5, 1
    1738:	10a52800 	addk	r5, r5, r5
    173c:	10a52800 	addk	r5, r5, r5
    1740:	a5080003 	andi	r8, r8, 3
    1744:	10842800 	addk	r4, r4, r5
    1748:	90c60060 	sext8	r6, r6
    174c:	be080018 	beqid	r8, 24		// 1764
    1750:	11244000 	addk	r9, r4, r8
    1754:	f0c40000 	sbi	r6, r4, 0
    1758:	30840001 	addik	r4, r4, 1
    175c:	88e44800 	xor	r7, r4, r9
    1760:	bc27fff4 	bnei	r7, -12		// 1754
    1764:	b60f0008 	rtsd	r15, 8
    1768:	80000000 	or	r0, r0, r0
    176c:	10850000 	addk	r4, r5, r0
    1770:	b810fea8 	brid	-344		// 1618
    1774:	11070000 	addk	r8, r7, r0
    1778:	b60f0008 	rtsd	r15, 8
    177c:	80000000 	or	r0, r0, r0

00001780 <_printf_r>:
    1780:	f8c10008 	swi	r6, r1, 8
    1784:	f8e1000c 	swi	r7, r1, 12
    1788:	f9010010 	swi	r8, r1, 16
    178c:	f9210014 	swi	r9, r1, 20
    1790:	f9410018 	swi	r10, r1, 24
    1794:	3021ffdc 	addik	r1, r1, -36
    1798:	fa610020 	swi	r19, r1, 32
    179c:	f9e10000 	swi	r15, r1, 0
    17a0:	be05001c 	beqid	r5, 28		// 17bc
    17a4:	12650000 	addk	r19, r5, r0
    17a8:	e8650018 	lwi	r3, r5, 24
    17ac:	bc230010 	bnei	r3, 16		// 17bc
    17b0:	b9f457d0 	brlid	r15, 22480	// 6f80 <__sinit>
    17b4:	f8c1001c 	swi	r6, r1, 28
    17b8:	e8c1001c 	lwi	r6, r1, 28
    17bc:	10b30000 	addk	r5, r19, r0
    17c0:	10e60000 	addk	r7, r6, r0
    17c4:	e8d30008 	lwi	r6, r19, 8
    17c8:	b9f40084 	brlid	r15, 132	// 184c <_vfprintf_r>
    17cc:	31010030 	addik	r8, r1, 48
    17d0:	e9e10000 	lwi	r15, r1, 0
    17d4:	ea610020 	lwi	r19, r1, 32
    17d8:	b60f0008 	rtsd	r15, 8
    17dc:	30210024 	addik	r1, r1, 36

000017e0 <printf>:
    17e0:	f8e1000c 	swi	r7, r1, 12
    17e4:	f8a10004 	swi	r5, r1, 4
    17e8:	f8c10008 	swi	r6, r1, 8
    17ec:	f9010010 	swi	r8, r1, 16
    17f0:	f9210014 	swi	r9, r1, 20
    17f4:	f9410018 	swi	r10, r1, 24
    17f8:	3021ffdc 	addik	r1, r1, -36
    17fc:	fa610020 	swi	r19, r1, 32
    1800:	b0000001 	imm	1
    1804:	ea60348c 	lwi	r19, r0, 13452	// 1348c <_impure_ptr>
    1808:	f9e10000 	swi	r15, r1, 0
    180c:	be130020 	beqid	r19, 32		// 182c
    1810:	10e50000 	addk	r7, r5, r0
    1814:	e8730018 	lwi	r3, r19, 24
    1818:	be230018 	bneid	r3, 24		// 1830
    181c:	10b30000 	addk	r5, r19, r0
    1820:	b9f45760 	brlid	r15, 22368	// 6f80 <__sinit>
    1824:	f8e1001c 	swi	r7, r1, 28
    1828:	e8e1001c 	lwi	r7, r1, 28
    182c:	10b30000 	addk	r5, r19, r0
    1830:	e8d30008 	lwi	r6, r19, 8
    1834:	b9f40018 	brlid	r15, 24	// 184c <_vfprintf_r>
    1838:	3101002c 	addik	r8, r1, 44
    183c:	e9e10000 	lwi	r15, r1, 0
    1840:	ea610020 	lwi	r19, r1, 32
    1844:	b60f0008 	rtsd	r15, 8
    1848:	30210024 	addik	r1, r1, 36

0000184c <_vfprintf_r>:
    184c:	3021fa88 	addik	r1, r1, -1400
    1850:	f9e10000 	swi	r15, r1, 0
    1854:	fa61054c 	swi	r19, r1, 1356
    1858:	fb21055c 	swi	r25, r1, 1372
    185c:	fb810568 	swi	r28, r1, 1384
    1860:	fba1056c 	swi	r29, r1, 1388
    1864:	fbe10574 	swi	r31, r1, 1396
    1868:	13250000 	addk	r25, r5, r0
    186c:	13e60000 	addk	r31, r6, r0
    1870:	12670000 	addk	r19, r7, r0
    1874:	f9010588 	swi	r8, r1, 1416
    1878:	fac10550 	swi	r22, r1, 1360
    187c:	fae10554 	swi	r23, r1, 1364
    1880:	fb010558 	swi	r24, r1, 1368
    1884:	fb410560 	swi	r26, r1, 1376
    1888:	fb610564 	swi	r27, r1, 1380
    188c:	b9f460f0 	brlid	r15, 24816	// 797c <_localeconv_r>
    1890:	fbc10570 	swi	r30, r1, 1392
    1894:	e8630000 	lwi	r3, r3, 0
    1898:	33800000 	addik	r28, r0, 0
    189c:	33a00000 	addik	r29, r0, 0
    18a0:	fb810528 	swi	r28, r1, 1320
    18a4:	fba1052c 	swi	r29, r1, 1324
    18a8:	10a30000 	addk	r5, r3, r0
    18ac:	b0000000 	imm	0
    18b0:	b9f492fc 	brlid	r15, -27908	// abac <strlen>
    18b4:	f861051c 	swi	r3, r1, 1308
    18b8:	be190010 	beqid	r25, 16		// 18c8
    18bc:	f8610524 	swi	r3, r1, 1316
    18c0:	e8790018 	lwi	r3, r25, 24
    18c4:	bc030698 	beqi	r3, 1688		// 1f5c
    18c8:	b0000001 	imm	1
    18cc:	30602c60 	addik	r3, r0, 11360	// 12c60 <__sf_fake_stdin>
    18d0:	887f1800 	xor	r3, r31, r3
    18d4:	bc0306a0 	beqi	r3, 1696		// 1f74
    18d8:	b0000001 	imm	1
    18dc:	30602c40 	addik	r3, r0, 11328	// 12c40 <__sf_fake_stdout>
    18e0:	887f1800 	xor	r3, r31, r3
    18e4:	bc0317d4 	beqi	r3, 6100		// 30b8
    18e8:	b0000001 	imm	1
    18ec:	30602c20 	addik	r3, r0, 11296	// 12c20 <__sf_fake_stderr>
    18f0:	887f1800 	xor	r3, r31, r3
    18f4:	bc031994 	beqi	r3, 6548		// 3288
    18f8:	e47f000c 	lhui	r3, r31, 12
    18fc:	90630061 	sext16	r3, r3
    1900:	a4832000 	andi	r4, r3, 8192
    1904:	90840061 	sext16	r4, r4
    1908:	be240020 	bneid	r4, 32		// 1928
    190c:	a4830008 	andi	r4, r3, 8
    1910:	e89f0064 	lwi	r4, r31, 100
    1914:	a0632000 	ori	r3, r3, 8192
    1918:	f47f000c 	shi	r3, r31, 12
    191c:	a484dfff 	andi	r4, r4, -8193
    1920:	f89f0064 	swi	r4, r31, 100
    1924:	a4830008 	andi	r4, r3, 8
    1928:	90840061 	sext16	r4, r4
    192c:	be0404c8 	beqid	r4, 1224		// 1df4
    1930:	10b90000 	addk	r5, r25, r0
    1934:	e89f0010 	lwi	r4, r31, 16
    1938:	be0404bc 	beqid	r4, 1212		// 1df4
    193c:	a483001a 	andi	r4, r3, 26
    1940:	a884000a 	xori	r4, r4, 10
    1944:	be0404d8 	beqid	r4, 1240		// 1e1c
    1948:	13a00000 	addk	r29, r0, r0
    194c:	338104b4 	addik	r28, r1, 1204
    1950:	fba10514 	swi	r29, r1, 1300
    1954:	fba10534 	swi	r29, r1, 1332
    1958:	fba10530 	swi	r29, r1, 1328
    195c:	fba10508 	swi	r29, r1, 1288
    1960:	13530000 	addk	r26, r19, r0
    1964:	33a104b3 	addik	r29, r1, 1203
    1968:	31610024 	addik	r11, r1, 36
    196c:	fb8104e0 	swi	r28, r1, 1248
    1970:	179de000 	rsubk	r28, r29, r28
    1974:	fba104e4 	swi	r29, r1, 1252
    1978:	f96104b4 	swi	r11, r1, 1204
    197c:	f80104bc 	swi	r0, r1, 1212
    1980:	f80104b8 	swi	r0, r1, 1208
    1984:	fb810540 	swi	r28, r1, 1344
    1988:	fb21050c 	swi	r25, r1, 1292
    198c:	e07a0000 	lbui	r3, r26, 0
    1990:	a8830025 	xori	r4, r3, 37
    1994:	a48400ff 	andi	r4, r4, 255
    1998:	be040084 	beqid	r4, 132		// 1a1c
    199c:	133a0000 	addk	r25, r26, r0
    19a0:	a46300ff 	andi	r3, r3, 255
    19a4:	be230020 	bneid	r3, 32		// 19c4
    19a8:	33390001 	addik	r25, r25, 1
    19ac:	3339ffff 	addik	r25, r25, -1
    19b0:	b8100070 	brid	112		// 1a20
    19b4:	e0790000 	lbui	r3, r25, 0
    19b8:	be030024 	beqid	r3, 36		// 19dc
    19bc:	171ac800 	rsubk	r24, r26, r25
    19c0:	33390001 	addik	r25, r25, 1
    19c4:	e0790000 	lbui	r3, r25, 0
    19c8:	a8830025 	xori	r4, r3, 37
    19cc:	a48400ff 	andi	r4, r4, 255
    19d0:	be24ffe8 	bneid	r4, -24		// 19b8
    19d4:	a46300ff 	andi	r3, r3, 255
    19d8:	171ac800 	rsubk	r24, r26, r25
    19dc:	be180040 	beqid	r24, 64		// 1a1c
    19e0:	ea6104b8 	lwi	r19, r1, 1208
    19e4:	e88104bc 	lwi	r4, r1, 1212
    19e8:	30600007 	addik	r3, r0, 7
    19ec:	fb4b0000 	swi	r26, r11, 0
    19f0:	fb0b0004 	swi	r24, r11, 4
    19f4:	32730001 	addik	r19, r19, 1
    19f8:	1084c000 	addk	r4, r4, r24
    19fc:	fa6104b8 	swi	r19, r1, 1208
    1a00:	16731801 	cmp	r19, r19, r3
    1a04:	be530534 	bltid	r19, 1332		// 1f38
    1a08:	f88104bc 	swi	r4, r1, 1212
    1a0c:	316b0008 	addik	r11, r11, 8
    1a10:	eba10508 	lwi	r29, r1, 1288
    1a14:	13bdc000 	addk	r29, r29, r24
    1a18:	fba10508 	swi	r29, r1, 1288
    1a1c:	e0790000 	lbui	r3, r25, 0
    1a20:	be0304a0 	beqid	r3, 1184		// 1ec0
    1a24:	13800000 	addk	r28, r0, r0
    1a28:	e3190001 	lbui	r24, r25, 1
    1a2c:	b0000001 	imm	1
    1a30:	30c02a88 	addik	r6, r0, 10888
    1a34:	fb8104fc 	swi	r28, r1, 1276
    1a38:	33590001 	addik	r26, r25, 1
    1a3c:	f00104de 	sbi	r0, r1, 1246
    1a40:	93180060 	sext8	r24, r24
    1a44:	33c0ffff 	addik	r30, r0, -1
    1a48:	fb8104e8 	swi	r28, r1, 1256
    1a4c:	30a00058 	addik	r5, r0, 88
    1a50:	335a0001 	addik	r26, r26, 1
    1a54:	3078ffe0 	addik	r3, r24, -32
    1a58:	14832803 	cmpu	r4, r3, r5
    1a5c:	bc44069c 	blti	r4, 1692		// 20f8
    1a60:	10631800 	addk	r3, r3, r3
    1a64:	10631800 	addk	r3, r3, r3
    1a68:	c8633000 	lw	r3, r3, r6
    1a6c:	98081800 	bra	r3
    1a70:	eb8104e8 	lwi	r28, r1, 1256
    1a74:	a39c0010 	ori	r28, r28, 16
    1a78:	fb8104e8 	swi	r28, r1, 1256
    1a7c:	eba104e8 	lwi	r29, r1, 1256
    1a80:	a49d0020 	andi	r4, r29, 32
    1a84:	be040520 	beqid	r4, 1312		// 1fa4
    1a88:	a4bd0010 	andi	r5, r29, 16
    1a8c:	eb810588 	lwi	r28, r1, 1416
    1a90:	30600001 	addik	r3, r0, 1
    1a94:	eadc0000 	lwi	r22, r28, 0
    1a98:	eafc0004 	lwi	r23, r28, 4
    1a9c:	8096b800 	or	r4, r22, r23
    1aa0:	339c0008 	addik	r28, r28, 8
    1aa4:	14a40000 	rsubk	r5, r4, r0
    1aa8:	80852000 	or	r4, r5, r4
    1aac:	fb810588 	swi	r28, r1, 1416
    1ab0:	13602000 	addk	r27, r0, r4
    1ab4:	93640041 	srl	r27, r4
    1ab8:	937b0041 	srl	r27, r27
    1abc:	937b0041 	srl	r27, r27
    1ac0:	937b0041 	srl	r27, r27
    1ac4:	937b0041 	srl	r27, r27
    1ac8:	937b0041 	srl	r27, r27
    1acc:	937b0041 	srl	r27, r27
    1ad0:	937b0041 	srl	r27, r27
    1ad4:	937b0041 	srl	r27, r27
    1ad8:	937b0041 	srl	r27, r27
    1adc:	937b0041 	srl	r27, r27
    1ae0:	937b0041 	srl	r27, r27
    1ae4:	937b0041 	srl	r27, r27
    1ae8:	937b0041 	srl	r27, r27
    1aec:	937b0041 	srl	r27, r27
    1af0:	937b0041 	srl	r27, r27
    1af4:	937b0041 	srl	r27, r27
    1af8:	937b0041 	srl	r27, r27
    1afc:	937b0041 	srl	r27, r27
    1b00:	937b0041 	srl	r27, r27
    1b04:	937b0041 	srl	r27, r27
    1b08:	937b0041 	srl	r27, r27
    1b0c:	937b0041 	srl	r27, r27
    1b10:	937b0041 	srl	r27, r27
    1b14:	937b0041 	srl	r27, r27
    1b18:	937b0041 	srl	r27, r27
    1b1c:	937b0041 	srl	r27, r27
    1b20:	937b0041 	srl	r27, r27
    1b24:	937b0041 	srl	r27, r27
    1b28:	937b0041 	srl	r27, r27
    1b2c:	937b0041 	srl	r27, r27
    1b30:	f00104de 	sbi	r0, r1, 1246
    1b34:	be5e0010 	bltid	r30, 16		// 1b44
    1b38:	eba104e8 	lwi	r29, r1, 1256
    1b3c:	a7bdff7f 	andi	r29, r29, -129
    1b40:	fba104e8 	swi	r29, r1, 1256
    1b44:	149e0000 	rsubk	r4, r30, r0
    1b48:	8084f000 	or	r4, r4, r30
    1b4c:	be44000c 	bltid	r4, 12		// 1b58
    1b50:	a8830001 	xori	r4, r3, 1
    1b54:	bc1b0f28 	beqi	r27, 3880		// 2a7c
    1b58:	be241190 	bneid	r4, 4496		// 2ce8
    1b5c:	a8630002 	xori	r3, r3, 2
    1b60:	be36001c 	bneid	r22, 28		// 1b7c
    1b64:	126b0000 	addk	r19, r11, r0
    1b68:	31200009 	addik	r9, r0, 9
    1b6c:	14774803 	cmpu	r3, r23, r9
    1b70:	bea30ab4 	bgeid	r3, 2740		// 2624
    1b74:	eb810540 	lwi	r28, r1, 1344
    1b78:	126b0000 	addk	r19, r11, r0
    1b7c:	332104b4 	addik	r25, r1, 1204
    1b80:	10b60000 	addk	r5, r22, r0
    1b84:	10d70000 	addk	r6, r23, r0
    1b88:	30e00000 	addik	r7, r0, 0
    1b8c:	3100000a 	addik	r8, r0, 10
    1b90:	b0000000 	imm	0
    1b94:	b9f4d314 	brlid	r15, -11500	// eea8 <__umoddi3>
    1b98:	3339ffff 	addik	r25, r25, -1
    1b9c:	10b60000 	addk	r5, r22, r0
    1ba0:	10d70000 	addk	r6, r23, r0
    1ba4:	30840030 	addik	r4, r4, 48
    1ba8:	30e00000 	addik	r7, r0, 0
    1bac:	3100000a 	addik	r8, r0, 10
    1bb0:	b0000000 	imm	0
    1bb4:	b9f4c3f0 	brlid	r15, -15376	// dfa4 <__udivdi3>
    1bb8:	f0990000 	sbi	r4, r25, 0
    1bbc:	12c30000 	addk	r22, r3, r0
    1bc0:	80762000 	or	r3, r22, r4
    1bc4:	be23ffbc 	bneid	r3, -68		// 1b80
    1bc8:	12e40000 	addk	r23, r4, r0
    1bcc:	11730000 	addk	r11, r19, r0
    1bd0:	eba104e0 	lwi	r29, r1, 1248
    1bd4:	17b9e800 	rsubk	r29, r25, r29
    1bd8:	fba10500 	swi	r29, r1, 1280
    1bdc:	eba10500 	lwi	r29, r1, 1280
    1be0:	147ee801 	cmp	r3, r30, r29
    1be4:	be430ecc 	bltid	r3, 3788		// 2ab0
    1be8:	fba104ec 	swi	r29, r1, 1260
    1bec:	e06104de 	lbui	r3, r1, 1246
    1bf0:	10800000 	addk	r4, r0, r0
    1bf4:	fbc10518 	swi	r30, r1, 1304
    1bf8:	f8810520 	swi	r4, r1, 1312
    1bfc:	90630060 	sext8	r3, r3
    1c00:	be030558 	beqid	r3, 1368		// 2158
    1c04:	e88104e8 	lwi	r4, r1, 1256
    1c08:	eba104ec 	lwi	r29, r1, 1260
    1c0c:	33bd0001 	addik	r29, r29, 1
    1c10:	b8100544 	brid	1348		// 2154
    1c14:	fba104ec 	swi	r29, r1, 1260
    1c18:	eb8104e8 	lwi	r28, r1, 1256
    1c1c:	a39c0010 	ori	r28, r28, 16
    1c20:	fb8104e8 	swi	r28, r1, 1256
    1c24:	eba104e8 	lwi	r29, r1, 1256
    1c28:	a49d0020 	andi	r4, r29, 32
    1c2c:	be240368 	bneid	r4, 872		// 1f94
    1c30:	eb810588 	lwi	r28, r1, 1416
    1c34:	eba104e8 	lwi	r29, r1, 1256
    1c38:	a4bd0010 	andi	r5, r29, 16
    1c3c:	be051b78 	beqid	r5, 7032		// 37b4
    1c40:	10640000 	addk	r3, r4, r0
    1c44:	eafc0000 	lwi	r23, r28, 0
    1c48:	12c40000 	addk	r22, r4, r0
    1c4c:	14970000 	rsubk	r4, r23, r0
    1c50:	339c0004 	addik	r28, r28, 4
    1c54:	8084b800 	or	r4, r4, r23
    1c58:	fb810588 	swi	r28, r1, 1416
    1c5c:	13602000 	addk	r27, r0, r4
    1c60:	93640041 	srl	r27, r4
    1c64:	937b0041 	srl	r27, r27
    1c68:	937b0041 	srl	r27, r27
    1c6c:	937b0041 	srl	r27, r27
    1c70:	937b0041 	srl	r27, r27
    1c74:	937b0041 	srl	r27, r27
    1c78:	937b0041 	srl	r27, r27
    1c7c:	937b0041 	srl	r27, r27
    1c80:	937b0041 	srl	r27, r27
    1c84:	937b0041 	srl	r27, r27
    1c88:	937b0041 	srl	r27, r27
    1c8c:	937b0041 	srl	r27, r27
    1c90:	937b0041 	srl	r27, r27
    1c94:	937b0041 	srl	r27, r27
    1c98:	937b0041 	srl	r27, r27
    1c9c:	937b0041 	srl	r27, r27
    1ca0:	937b0041 	srl	r27, r27
    1ca4:	937b0041 	srl	r27, r27
    1ca8:	937b0041 	srl	r27, r27
    1cac:	937b0041 	srl	r27, r27
    1cb0:	937b0041 	srl	r27, r27
    1cb4:	937b0041 	srl	r27, r27
    1cb8:	937b0041 	srl	r27, r27
    1cbc:	937b0041 	srl	r27, r27
    1cc0:	937b0041 	srl	r27, r27
    1cc4:	937b0041 	srl	r27, r27
    1cc8:	937b0041 	srl	r27, r27
    1ccc:	937b0041 	srl	r27, r27
    1cd0:	937b0041 	srl	r27, r27
    1cd4:	937b0041 	srl	r27, r27
    1cd8:	937b0041 	srl	r27, r27
    1cdc:	b810fe58 	brid	-424		// 1b34
    1ce0:	f00104de 	sbi	r0, r1, 1246
    1ce4:	eb8104e8 	lwi	r28, r1, 1256
    1ce8:	a39c0010 	ori	r28, r28, 16
    1cec:	fb8104e8 	swi	r28, r1, 1256
    1cf0:	eba104e8 	lwi	r29, r1, 1256
    1cf4:	a47d0020 	andi	r3, r29, 32
    1cf8:	be230284 	bneid	r3, 644		// 1f7c
    1cfc:	eb810588 	lwi	r28, r1, 1416
    1d00:	eba104e8 	lwi	r29, r1, 1256
    1d04:	a47d0010 	andi	r3, r29, 16
    1d08:	be0319d4 	beqid	r3, 6612		// 36dc
    1d0c:	a47d0040 	andi	r3, r29, 64
    1d10:	eb810588 	lwi	r28, r1, 1416
    1d14:	eafc0000 	lwi	r23, r28, 0
    1d18:	02d7b800 	add	r22, r23, r23
    1d1c:	0ac00000 	addc	r22, r0, r0
    1d20:	bc160008 	beqi	r22, 8		// 1d28
    1d24:	22c0ffff 	addi	r22, r0, -1
    1d28:	10760000 	addk	r3, r22, r0
    1d2c:	339c0004 	addik	r28, r28, 4
    1d30:	fb810588 	swi	r28, r1, 1416
    1d34:	bc431634 	blti	r3, 5684		// 3368
    1d38:	8076b800 	or	r3, r22, r23
    1d3c:	14830000 	rsubk	r4, r3, r0
    1d40:	80641800 	or	r3, r4, r3
    1d44:	13601800 	addk	r27, r0, r3
    1d48:	93630041 	srl	r27, r3
    1d4c:	937b0041 	srl	r27, r27
    1d50:	937b0041 	srl	r27, r27
    1d54:	937b0041 	srl	r27, r27
    1d58:	937b0041 	srl	r27, r27
    1d5c:	937b0041 	srl	r27, r27
    1d60:	937b0041 	srl	r27, r27
    1d64:	937b0041 	srl	r27, r27
    1d68:	937b0041 	srl	r27, r27
    1d6c:	937b0041 	srl	r27, r27
    1d70:	937b0041 	srl	r27, r27
    1d74:	937b0041 	srl	r27, r27
    1d78:	937b0041 	srl	r27, r27
    1d7c:	937b0041 	srl	r27, r27
    1d80:	937b0041 	srl	r27, r27
    1d84:	937b0041 	srl	r27, r27
    1d88:	937b0041 	srl	r27, r27
    1d8c:	937b0041 	srl	r27, r27
    1d90:	937b0041 	srl	r27, r27
    1d94:	937b0041 	srl	r27, r27
    1d98:	937b0041 	srl	r27, r27
    1d9c:	937b0041 	srl	r27, r27
    1da0:	937b0041 	srl	r27, r27
    1da4:	937b0041 	srl	r27, r27
    1da8:	937b0041 	srl	r27, r27
    1dac:	937b0041 	srl	r27, r27
    1db0:	937b0041 	srl	r27, r27
    1db4:	937b0041 	srl	r27, r27
    1db8:	937b0041 	srl	r27, r27
    1dbc:	937b0041 	srl	r27, r27
    1dc0:	937b0041 	srl	r27, r27
    1dc4:	b810fd70 	brid	-656		// 1b34
    1dc8:	30600001 	addik	r3, r0, 1
    1dcc:	eba104fc 	lwi	r29, r1, 1276
    1dd0:	f8610588 	swi	r3, r1, 1416
    1dd4:	17bd0000 	rsubk	r29, r29, r0
    1dd8:	fba104fc 	swi	r29, r1, 1276
    1ddc:	eb8104e8 	lwi	r28, r1, 1256
    1de0:	e31a0000 	lbui	r24, r26, 0
    1de4:	a39c0004 	ori	r28, r28, 4
    1de8:	fb8104e8 	swi	r28, r1, 1256
    1dec:	b810fc64 	brid	-924		// 1a50
    1df0:	93180060 	sext8	r24, r24
    1df4:	b9f427c4 	brlid	r15, 10180	// 45b8 <__swsetup_r>
    1df8:	10df0000 	addk	r6, r31, r0
    1dfc:	be2300fc 	bneid	r3, 252		// 1ef8
    1e00:	33a0ffff 	addik	r29, r0, -1
    1e04:	e47f000c 	lhui	r3, r31, 12
    1e08:	90630061 	sext16	r3, r3
    1e0c:	a483001a 	andi	r4, r3, 26
    1e10:	a884000a 	xori	r4, r4, 10
    1e14:	be24fb38 	bneid	r4, -1224		// 194c
    1e18:	13a00000 	addk	r29, r0, r0
    1e1c:	e53f000e 	lhui	r9, r31, 14
    1e20:	90a90061 	sext16	r5, r9
    1e24:	be45fb28 	bltid	r5, -1240		// 194c
    1e28:	13a00000 	addk	r29, r0, r0
    1e2c:	eaff0064 	lwi	r23, r31, 100
    1e30:	eadf0020 	lwi	r22, r31, 32
    1e34:	e99f0028 	lwi	r12, r31, 40
    1e38:	10b90000 	addk	r5, r25, r0
    1e3c:	10f30000 	addk	r7, r19, r0
    1e40:	e9010588 	lwi	r8, r1, 1416
    1e44:	31610024 	addik	r11, r1, 36
    1e48:	31400400 	addik	r10, r0, 1024
    1e4c:	a463fffd 	andi	r3, r3, -3
    1e50:	30c10424 	addik	r6, r1, 1060
    1e54:	f4610430 	shi	r3, r1, 1072
    1e58:	fae10488 	swi	r23, r1, 1160
    1e5c:	f5210432 	shi	r9, r1, 1074
    1e60:	fac10444 	swi	r22, r1, 1092
    1e64:	f981044c 	swi	r12, r1, 1100
    1e68:	f9610424 	swi	r11, r1, 1060
    1e6c:	f9610434 	swi	r11, r1, 1076
    1e70:	f941042c 	swi	r10, r1, 1068
    1e74:	f9410438 	swi	r10, r1, 1080
    1e78:	b9f4f9d4 	brlid	r15, -1580	// 184c <_vfprintf_r>
    1e7c:	f881043c 	swi	r4, r1, 1084
    1e80:	be43001c 	bltid	r3, 28		// 1e9c
    1e84:	f8610508 	swi	r3, r1, 1288
    1e88:	10b90000 	addk	r5, r25, r0
    1e8c:	b9f44e7c 	brlid	r15, 20092	// 6d08 <_fflush_r>
    1e90:	30c10424 	addik	r6, r1, 1060
    1e94:	be23255c 	bneid	r3, 9564		// 43f0
    1e98:	3380ffff 	addik	r28, r0, -1
    1e9c:	e4610430 	lhui	r3, r1, 1072
    1ea0:	a4630040 	andi	r3, r3, 64
    1ea4:	90630061 	sext16	r3, r3
    1ea8:	be030058 	beqid	r3, 88		// 1f00
    1eac:	e8610508 	lwi	r3, r1, 1288
    1eb0:	e47f000c 	lhui	r3, r31, 12
    1eb4:	a0630040 	ori	r3, r3, 64
    1eb8:	b8100044 	brid	68		// 1efc
    1ebc:	f47f000c 	shi	r3, r31, 12
    1ec0:	e86104bc 	lwi	r3, r1, 1212
    1ec4:	be03001c 	beqid	r3, 28		// 1ee0
    1ec8:	eb21050c 	lwi	r25, r1, 1292
    1ecc:	10b90000 	addk	r5, r25, r0
    1ed0:	10df0000 	addk	r6, r31, r0
    1ed4:	b0000000 	imm	0
    1ed8:	b9f48d34 	brlid	r15, -29388	// ac0c <__sprint_r>
    1edc:	30e104b4 	addik	r7, r1, 1204
    1ee0:	e47f000c 	lhui	r3, r31, 12
    1ee4:	a4630040 	andi	r3, r3, 64
    1ee8:	90630061 	sext16	r3, r3
    1eec:	be030014 	beqid	r3, 20		// 1f00
    1ef0:	e8610508 	lwi	r3, r1, 1288
    1ef4:	33a0ffff 	addik	r29, r0, -1
    1ef8:	fba10508 	swi	r29, r1, 1288
    1efc:	e8610508 	lwi	r3, r1, 1288
    1f00:	e9e10000 	lwi	r15, r1, 0
    1f04:	ea61054c 	lwi	r19, r1, 1356
    1f08:	eac10550 	lwi	r22, r1, 1360
    1f0c:	eae10554 	lwi	r23, r1, 1364
    1f10:	eb010558 	lwi	r24, r1, 1368
    1f14:	eb21055c 	lwi	r25, r1, 1372
    1f18:	eb410560 	lwi	r26, r1, 1376
    1f1c:	eb610564 	lwi	r27, r1, 1380
    1f20:	eb810568 	lwi	r28, r1, 1384
    1f24:	eba1056c 	lwi	r29, r1, 1388
    1f28:	ebc10570 	lwi	r30, r1, 1392
    1f2c:	ebe10574 	lwi	r31, r1, 1396
    1f30:	b60f0008 	rtsd	r15, 8
    1f34:	30210578 	addik	r1, r1, 1400
    1f38:	e8a1050c 	lwi	r5, r1, 1292
    1f3c:	10df0000 	addk	r6, r31, r0
    1f40:	b0000000 	imm	0
    1f44:	b9f48cc8 	brlid	r15, -29496	// ac0c <__sprint_r>
    1f48:	30e104b4 	addik	r7, r1, 1204
    1f4c:	be23ff94 	bneid	r3, -108		// 1ee0
    1f50:	31610024 	addik	r11, r1, 36
    1f54:	b810fac0 	brid	-1344		// 1a14
    1f58:	eba10508 	lwi	r29, r1, 1288
    1f5c:	b9f45024 	brlid	r15, 20516	// 6f80 <__sinit>
    1f60:	10b90000 	addk	r5, r25, r0
    1f64:	b0000001 	imm	1
    1f68:	30602c60 	addik	r3, r0, 11360	// 12c60 <__sf_fake_stdin>
    1f6c:	887f1800 	xor	r3, r31, r3
    1f70:	bc23f968 	bnei	r3, -1688		// 18d8
    1f74:	b810f984 	brid	-1660		// 18f8
    1f78:	ebf90004 	lwi	r31, r25, 4
    1f7c:	e87c0000 	lwi	r3, r28, 0
    1f80:	eafc0004 	lwi	r23, r28, 4
    1f84:	339c0008 	addik	r28, r28, 8
    1f88:	12c30000 	addk	r22, r3, r0
    1f8c:	b810fda8 	brid	-600		// 1d34
    1f90:	fb810588 	swi	r28, r1, 1416
    1f94:	eadc0000 	lwi	r22, r28, 0
    1f98:	eafc0004 	lwi	r23, r28, 4
    1f9c:	b810fb00 	brid	-1280		// 1a9c
    1fa0:	10600000 	addk	r3, r0, r0
    1fa4:	be05178c 	beqid	r5, 6028		// 3730
    1fa8:	eb810588 	lwi	r28, r1, 1416
    1fac:	30600001 	addik	r3, r0, 1
    1fb0:	b810fc98 	brid	-872		// 1c48
    1fb4:	eafc0000 	lwi	r23, r28, 0
    1fb8:	b0000001 	imm	1
    1fbc:	33802a68 	addik	r28, r0, 10856
    1fc0:	fb810534 	swi	r28, r1, 1332
    1fc4:	eb8104e8 	lwi	r28, r1, 1256
    1fc8:	a47c0020 	andi	r3, r28, 32
    1fcc:	be03033c 	beqid	r3, 828		// 2308
    1fd0:	a49c0010 	andi	r4, r28, 16
    1fd4:	eba10588 	lwi	r29, r1, 1416
    1fd8:	eadd0000 	lwi	r22, r29, 0
    1fdc:	eafd0004 	lwi	r23, r29, 4
    1fe0:	33bd0008 	addik	r29, r29, 8
    1fe4:	fba10588 	swi	r29, r1, 1416
    1fe8:	eba104e8 	lwi	r29, r1, 1256
    1fec:	a47d0001 	andi	r3, r29, 1
    1ff0:	bc231080 	bnei	r3, 4224		// 3070
    1ff4:	8076b800 	or	r3, r22, r23
    1ff8:	14830000 	rsubk	r4, r3, r0
    1ffc:	80641800 	or	r3, r4, r3
    2000:	13601800 	addk	r27, r0, r3
    2004:	93630041 	srl	r27, r3
    2008:	937b0041 	srl	r27, r27
    200c:	937b0041 	srl	r27, r27
    2010:	937b0041 	srl	r27, r27
    2014:	937b0041 	srl	r27, r27
    2018:	937b0041 	srl	r27, r27
    201c:	937b0041 	srl	r27, r27
    2020:	937b0041 	srl	r27, r27
    2024:	937b0041 	srl	r27, r27
    2028:	937b0041 	srl	r27, r27
    202c:	937b0041 	srl	r27, r27
    2030:	937b0041 	srl	r27, r27
    2034:	937b0041 	srl	r27, r27
    2038:	937b0041 	srl	r27, r27
    203c:	937b0041 	srl	r27, r27
    2040:	937b0041 	srl	r27, r27
    2044:	937b0041 	srl	r27, r27
    2048:	937b0041 	srl	r27, r27
    204c:	937b0041 	srl	r27, r27
    2050:	937b0041 	srl	r27, r27
    2054:	937b0041 	srl	r27, r27
    2058:	937b0041 	srl	r27, r27
    205c:	937b0041 	srl	r27, r27
    2060:	937b0041 	srl	r27, r27
    2064:	937b0041 	srl	r27, r27
    2068:	937b0041 	srl	r27, r27
    206c:	937b0041 	srl	r27, r27
    2070:	937b0041 	srl	r27, r27
    2074:	937b0041 	srl	r27, r27
    2078:	937b0041 	srl	r27, r27
    207c:	937b0041 	srl	r27, r27
    2080:	f00104de 	sbi	r0, r1, 1246
    2084:	b810fab0 	brid	-1360		// 1b34
    2088:	30600002 	addik	r3, r0, 2
    208c:	e31a0000 	lbui	r24, r26, 0
    2090:	93180060 	sext8	r24, r24
    2094:	a878002a 	xori	r3, r24, 42
    2098:	be032360 	beqid	r3, 9056		// 43f8
    209c:	309a0001 	addik	r4, r26, 1
    20a0:	3078ffd0 	addik	r3, r24, -48
    20a4:	31000009 	addik	r8, r0, 9
    20a8:	14e34003 	cmpu	r7, r3, r8
    20ac:	be47003c 	bltid	r7, 60		// 20e8
    20b0:	13c00000 	addk	r30, r0, r0
    20b4:	10fef000 	addk	r7, r30, r30
    20b8:	e3040000 	lbui	r24, r4, 0
    20bc:	10e73800 	addk	r7, r7, r7
    20c0:	13c7f000 	addk	r30, r7, r30
    20c4:	13def000 	addk	r30, r30, r30
    20c8:	93180060 	sext8	r24, r24
    20cc:	13c3f000 	addk	r30, r3, r30
    20d0:	33a00009 	addik	r29, r0, 9
    20d4:	3078ffd0 	addik	r3, r24, -48
    20d8:	14e3e803 	cmpu	r7, r3, r29
    20dc:	bea7ffd8 	bgeid	r7, -40		// 20b4
    20e0:	30840001 	addik	r4, r4, 1
    20e4:	bc5e1ab8 	blti	r30, 6840		// 3b9c
    20e8:	13440000 	addk	r26, r4, r0
    20ec:	3078ffe0 	addik	r3, r24, -32
    20f0:	14832803 	cmpu	r4, r3, r5
    20f4:	bca4f96c 	bgei	r4, -1684		// 1a60
    20f8:	be18fdc8 	beqid	r24, -568		// 1ec0
    20fc:	31200001 	addik	r9, r0, 1
    2100:	f92104ec 	swi	r9, r1, 1260
    2104:	f301048c 	sbi	r24, r1, 1164
    2108:	f00104de 	sbi	r0, r1, 1246
    210c:	f9210500 	swi	r9, r1, 1280
    2110:	b8100038 	brid	56		// 2148
    2114:	3321048c 	addik	r25, r1, 1164
    2118:	eb810588 	lwi	r28, r1, 1416
    211c:	33a00001 	addik	r29, r0, 1
    2120:	fba104ec 	swi	r29, r1, 1260
    2124:	eba10588 	lwi	r29, r1, 1416
    2128:	e39c0003 	lbui	r28, r28, 3
    212c:	e88104ec 	lwi	r4, r1, 1260
    2130:	33bd0004 	addik	r29, r29, 4
    2134:	f381048c 	sbi	r28, r1, 1164
    2138:	f00104de 	sbi	r0, r1, 1246
    213c:	fba10588 	swi	r29, r1, 1416
    2140:	f8810500 	swi	r4, r1, 1280
    2144:	3321048c 	addik	r25, r1, 1164
    2148:	10800000 	addk	r4, r0, r0
    214c:	f8810518 	swi	r4, r1, 1304
    2150:	f8810520 	swi	r4, r1, 1312
    2154:	e88104e8 	lwi	r4, r1, 1256
    2158:	a4840002 	andi	r4, r4, 2
    215c:	be040014 	beqid	r4, 20		// 2170
    2160:	f88104f4 	swi	r4, r1, 1268
    2164:	e92104ec 	lwi	r9, r1, 1260
    2168:	31290002 	addik	r9, r9, 2
    216c:	f92104ec 	swi	r9, r1, 1260
    2170:	eb8104e8 	lwi	r28, r1, 1256
    2174:	a79c0084 	andi	r28, r28, 132
    2178:	be3c04dc 	bneid	r28, 1244		// 2654
    217c:	fb810510 	swi	r28, r1, 1296
    2180:	eba104fc 	lwi	r29, r1, 1276
    2184:	e88104ec 	lwi	r4, r1, 1260
    2188:	1764e800 	rsubk	r27, r4, r29
    218c:	be7b04c8 	bleid	r27, 1224		// 2654
    2190:	31200010 	addik	r9, r0, 16	// 10 <_.d1>
    2194:	147b4801 	cmp	r3, r27, r9
    2198:	e88104bc 	lwi	r4, r1, 1212
    219c:	b0000001 	imm	1
    21a0:	33c02bec 	addik	r30, r0, 11244	// 12bec <blanks.4013>
    21a4:	bea300a8 	bgeid	r3, 168		// 224c
    21a8:	ea6104b8 	lwi	r19, r1, 1208
    21ac:	fac10538 	swi	r22, r1, 1336
    21b0:	fae1053c 	swi	r23, r1, 1340
    21b4:	13a90000 	addk	r29, r9, r0
    21b8:	12de0000 	addk	r22, r30, r0
    21bc:	33800007 	addik	r28, r0, 7
    21c0:	13db0000 	addk	r30, r27, r0
    21c4:	13790000 	addk	r27, r25, r0
    21c8:	13380000 	addk	r25, r24, r0
    21cc:	b8100018 	brid	24		// 21e4
    21d0:	eb01050c 	lwi	r24, r1, 1292
    21d4:	33defff0 	addik	r30, r30, -16
    21d8:	147ee801 	cmp	r3, r30, r29
    21dc:	bea30058 	bgeid	r3, 88		// 2234
    21e0:	316b0008 	addik	r11, r11, 8
    21e4:	facb0000 	swi	r22, r11, 0
    21e8:	fbab0004 	swi	r29, r11, 4
    21ec:	32730001 	addik	r19, r19, 1
    21f0:	30840010 	addik	r4, r4, 16
    21f4:	f88104bc 	swi	r4, r1, 1212
    21f8:	1473e001 	cmp	r3, r19, r28
    21fc:	bea3ffd8 	bgeid	r3, -40		// 21d4
    2200:	fa6104b8 	swi	r19, r1, 1208
    2204:	10b80000 	addk	r5, r24, r0
    2208:	10df0000 	addk	r6, r31, r0
    220c:	b0000000 	imm	0
    2210:	b9f489fc 	brlid	r15, -30212	// ac0c <__sprint_r>
    2214:	30e104b4 	addik	r7, r1, 1204
    2218:	be23fcc8 	bneid	r3, -824		// 1ee0
    221c:	33defff0 	addik	r30, r30, -16
    2220:	147ee801 	cmp	r3, r30, r29
    2224:	31610024 	addik	r11, r1, 36
    2228:	e88104bc 	lwi	r4, r1, 1212
    222c:	be43ffb8 	bltid	r3, -72		// 21e4
    2230:	ea6104b8 	lwi	r19, r1, 1208
    2234:	13190000 	addk	r24, r25, r0
    2238:	133b0000 	addk	r25, r27, r0
    223c:	137e0000 	addk	r27, r30, r0
    2240:	13d60000 	addk	r30, r22, r0
    2244:	eac10538 	lwi	r22, r1, 1336
    2248:	eae1053c 	lwi	r23, r1, 1340
    224c:	fbcb0000 	swi	r30, r11, 0
    2250:	fb6b0004 	swi	r27, r11, 4
    2254:	32730001 	addik	r19, r19, 1
    2258:	1084d800 	addk	r4, r4, r27
    225c:	30600007 	addik	r3, r0, 7
    2260:	fa6104b8 	swi	r19, r1, 1208
    2264:	16731801 	cmp	r19, r19, r3
    2268:	be5303d0 	bltid	r19, 976		// 2638
    226c:	f88104bc 	swi	r4, r1, 1212
    2270:	b81003e8 	brid	1000		// 2658
    2274:	316b0008 	addik	r11, r11, 8
    2278:	e06104de 	lbui	r3, r1, 1246
    227c:	be231190 	bneid	r3, 4496		// 340c
    2280:	33a00020 	addik	r29, r0, 32
    2284:	f3a104de 	sbi	r29, r1, 1246
    2288:	e31a0000 	lbui	r24, r26, 0
    228c:	b810f7c4 	brid	-2108		// 1a50
    2290:	93180060 	sext8	r24, r24
    2294:	eb8104e8 	lwi	r28, r1, 1256
    2298:	e31a0000 	lbui	r24, r26, 0
    229c:	a39c0001 	ori	r28, r28, 1
    22a0:	fb8104e8 	swi	r28, r1, 1256
    22a4:	b810f7ac 	brid	-2132		// 1a50
    22a8:	93180060 	sext8	r24, r24
    22ac:	eba10588 	lwi	r29, r1, 1416
    22b0:	eb810588 	lwi	r28, r1, 1416
    22b4:	ebbd0000 	lwi	r29, r29, 0
    22b8:	307c0004 	addik	r3, r28, 4
    22bc:	be5dfb10 	bltid	r29, -1264		// 1dcc
    22c0:	fba104fc 	swi	r29, r1, 1276
    22c4:	e31a0000 	lbui	r24, r26, 0
    22c8:	f8610588 	swi	r3, r1, 1416
    22cc:	b810f784 	brid	-2172		// 1a50
    22d0:	93180060 	sext8	r24, r24
    22d4:	33a0002b 	addik	r29, r0, 43
    22d8:	f3a104de 	sbi	r29, r1, 1246
    22dc:	e31a0000 	lbui	r24, r26, 0
    22e0:	b810f770 	brid	-2192		// 1a50
    22e4:	93180060 	sext8	r24, r24
    22e8:	b0000001 	imm	1
    22ec:	33a02a54 	addik	r29, r0, 10836
    22f0:	eb8104e8 	lwi	r28, r1, 1256
    22f4:	a47c0020 	andi	r3, r28, 32
    22f8:	be23fcdc 	bneid	r3, -804		// 1fd4
    22fc:	fba10534 	swi	r29, r1, 1332
    2300:	eb8104e8 	lwi	r28, r1, 1256
    2304:	a49c0010 	andi	r4, r28, 16
    2308:	be041408 	beqid	r4, 5128		// 3710
    230c:	eba10588 	lwi	r29, r1, 1416
    2310:	12c30000 	addk	r22, r3, r0
    2314:	eafd0000 	lwi	r23, r29, 0
    2318:	33bd0004 	addik	r29, r29, 4
    231c:	b810fccc 	brid	-820		// 1fe8
    2320:	fba10588 	swi	r29, r1, 1416
    2324:	eb810588 	lwi	r28, r1, 1416
    2328:	eba104e8 	lwi	r29, r1, 1256
    232c:	30600030 	addik	r3, r0, 48
    2330:	eafc0000 	lwi	r23, r28, 0
    2334:	339c0004 	addik	r28, r28, 4
    2338:	fb810588 	swi	r28, r1, 1416
    233c:	b0000001 	imm	1
    2340:	33802a68 	addik	r28, r0, 10856
    2344:	f06104dc 	sbi	r3, r1, 1244
    2348:	14770000 	rsubk	r3, r23, r0
    234c:	8063b800 	or	r3, r3, r23
    2350:	a3bd0002 	ori	r29, r29, 2
    2354:	30800078 	addik	r4, r0, 120
    2358:	13601800 	addk	r27, r0, r3
    235c:	93630041 	srl	r27, r3
    2360:	937b0041 	srl	r27, r27
    2364:	937b0041 	srl	r27, r27
    2368:	937b0041 	srl	r27, r27
    236c:	937b0041 	srl	r27, r27
    2370:	937b0041 	srl	r27, r27
    2374:	937b0041 	srl	r27, r27
    2378:	937b0041 	srl	r27, r27
    237c:	937b0041 	srl	r27, r27
    2380:	937b0041 	srl	r27, r27
    2384:	937b0041 	srl	r27, r27
    2388:	937b0041 	srl	r27, r27
    238c:	937b0041 	srl	r27, r27
    2390:	937b0041 	srl	r27, r27
    2394:	937b0041 	srl	r27, r27
    2398:	937b0041 	srl	r27, r27
    239c:	937b0041 	srl	r27, r27
    23a0:	937b0041 	srl	r27, r27
    23a4:	937b0041 	srl	r27, r27
    23a8:	937b0041 	srl	r27, r27
    23ac:	937b0041 	srl	r27, r27
    23b0:	937b0041 	srl	r27, r27
    23b4:	937b0041 	srl	r27, r27
    23b8:	937b0041 	srl	r27, r27
    23bc:	937b0041 	srl	r27, r27
    23c0:	937b0041 	srl	r27, r27
    23c4:	937b0041 	srl	r27, r27
    23c8:	937b0041 	srl	r27, r27
    23cc:	937b0041 	srl	r27, r27
    23d0:	937b0041 	srl	r27, r27
    23d4:	937b0041 	srl	r27, r27
    23d8:	fba104e8 	swi	r29, r1, 1256
    23dc:	12c00000 	addk	r22, r0, r0
    23e0:	f08104dd 	sbi	r4, r1, 1245
    23e4:	fb810534 	swi	r28, r1, 1332
    23e8:	30600002 	addik	r3, r0, 2
    23ec:	33000078 	addik	r24, r0, 120
    23f0:	b810f744 	brid	-2236		// 1b34
    23f4:	f00104de 	sbi	r0, r1, 1246
    23f8:	eb8104e8 	lwi	r28, r1, 1256
    23fc:	e31a0000 	lbui	r24, r26, 0
    2400:	a39c0020 	ori	r28, r28, 32
    2404:	fb8104e8 	swi	r28, r1, 1256
    2408:	b810f648 	brid	-2488		// 1a50
    240c:	93180060 	sext8	r24, r24
    2410:	eb8104e8 	lwi	r28, r1, 1256
    2414:	a47c0020 	andi	r3, r28, 32
    2418:	be03136c 	beqid	r3, 4972		// 3784
    241c:	eba10588 	lwi	r29, r1, 1416
    2420:	e8a10508 	lwi	r5, r1, 1288
    2424:	00852800 	add	r4, r5, r5
    2428:	08800000 	addc	r4, r0, r0
    242c:	bc040008 	beqi	r4, 8		// 2434
    2430:	2080ffff 	addi	r4, r0, -1
    2434:	e87d0000 	lwi	r3, r29, 0
    2438:	33bd0004 	addik	r29, r29, 4
    243c:	fba10588 	swi	r29, r1, 1416
    2440:	f8830000 	swi	r4, r3, 0
    2444:	f8a30004 	swi	r5, r3, 4
    2448:	b810f548 	brid	-2744		// 1990
    244c:	e07a0000 	lbui	r3, r26, 0
    2450:	eba10588 	lwi	r29, r1, 1416
    2454:	f00104de 	sbi	r0, r1, 1246
    2458:	eb3d0000 	lwi	r25, r29, 0
    245c:	be191950 	beqid	r25, 6480		// 3dac
    2460:	327d0004 	addik	r19, r29, 4
    2464:	be5e17ec 	bltid	r30, 6124		// 3c50
    2468:	10b90000 	addk	r5, r25, r0
    246c:	10fe0000 	addk	r7, r30, r0
    2470:	10c00000 	addk	r6, r0, r0
    2474:	b9f46364 	brlid	r15, 25444	// 87d8 <memchr>
    2478:	f9610548 	swi	r11, r1, 1352
    247c:	be031c18 	beqid	r3, 7192		// 4094
    2480:	e9610548 	lwi	r11, r1, 1352
    2484:	14791800 	rsubk	r3, r25, r3
    2488:	f8610500 	swi	r3, r1, 1280
    248c:	1463f001 	cmp	r3, r3, r30
    2490:	bea31504 	bgeid	r3, 5380		// 3994
    2494:	10800000 	addk	r4, r0, r0
    2498:	e06104de 	lbui	r3, r1, 1246
    249c:	13800000 	addk	r28, r0, r0
    24a0:	fbc104ec 	swi	r30, r1, 1260
    24a4:	fb810518 	swi	r28, r1, 1304
    24a8:	fbc10500 	swi	r30, r1, 1280
    24ac:	90630060 	sext8	r3, r3
    24b0:	fa610588 	swi	r19, r1, 1416
    24b4:	b810f74c 	brid	-2228		// 1c00
    24b8:	fb810520 	swi	r28, r1, 1312
    24bc:	eba104e8 	lwi	r29, r1, 1256
    24c0:	e31a0000 	lbui	r24, r26, 0
    24c4:	a3bd0040 	ori	r29, r29, 64
    24c8:	fba104e8 	swi	r29, r1, 1256
    24cc:	b810f584 	brid	-2684		// 1a50
    24d0:	93180060 	sext8	r24, r24
    24d4:	e31a0000 	lbui	r24, r26, 0
    24d8:	93180060 	sext8	r24, r24
    24dc:	a878006c 	xori	r3, r24, 108
    24e0:	be0316fc 	beqid	r3, 5884		// 3bdc
    24e4:	eba104e8 	lwi	r29, r1, 1256
    24e8:	a3bd0010 	ori	r29, r29, 16
    24ec:	b810f564 	brid	-2716		// 1a50
    24f0:	fba104e8 	swi	r29, r1, 1256
    24f4:	eb8104e8 	lwi	r28, r1, 1256
    24f8:	a47c0008 	andi	r3, r28, 8
    24fc:	be0311cc 	beqid	r3, 4556		// 36c8
    2500:	eb810588 	lwi	r28, r1, 1416
    2504:	eba10588 	lwi	r29, r1, 1416
    2508:	ea7d0000 	lwi	r19, r29, 0
    250c:	eb7d0004 	lwi	r27, r29, 4
    2510:	33bd0008 	addik	r29, r29, 8
    2514:	fba10588 	swi	r29, r1, 1416
    2518:	10d30000 	addk	r6, r19, r0
    251c:	10fb0000 	addk	r7, r27, r0
    2520:	10b30000 	addk	r5, r19, r0
    2524:	f9610548 	swi	r11, r1, 1352
    2528:	f8c10528 	swi	r6, r1, 1320
    252c:	f8e1052c 	swi	r7, r1, 1324
    2530:	b0000000 	imm	0
    2534:	b9f48244 	brlid	r15, -32188	// a778 <__fpclassifyd>
    2538:	10db0000 	addk	r6, r27, r0
    253c:	a8630001 	xori	r3, r3, 1
    2540:	be230ed8 	bneid	r3, 3800		// 3418
    2544:	e9610548 	lwi	r11, r1, 1352
    2548:	10db0000 	addk	r6, r27, r0
    254c:	10e00000 	addk	r7, r0, r0
    2550:	11000000 	addk	r8, r0, r0
    2554:	b0000000 	imm	0
    2558:	b9f4ece4 	brlid	r15, -4892	// 1123c <__ltdf2>
    255c:	10b30000 	addk	r5, r19, r0
    2560:	be4318fc 	bltid	r3, 6396		// 3e5c
    2564:	e9610548 	lwi	r11, r1, 1352
    2568:	e06104de 	lbui	r3, r1, 1246
    256c:	90630060 	sext8	r3, r3
    2570:	30800047 	addik	r4, r0, 71
    2574:	14982001 	cmp	r4, r24, r4
    2578:	b0000001 	imm	1
    257c:	33202a48 	addik	r25, r0, 10824
    2580:	bc44000c 	blti	r4, 12		// 258c
    2584:	b0000001 	imm	1
    2588:	33202a44 	addik	r25, r0, 10820
    258c:	eba104e8 	lwi	r29, r1, 1256
    2590:	31200003 	addik	r9, r0, 3
    2594:	13800000 	addk	r28, r0, r0
    2598:	a7bdff7f 	andi	r29, r29, -129
    259c:	f92104ec 	swi	r9, r1, 1260
    25a0:	fb810518 	swi	r28, r1, 1304
    25a4:	fba104e8 	swi	r29, r1, 1256
    25a8:	f9210500 	swi	r9, r1, 1280
    25ac:	b810f654 	brid	-2476		// 1c00
    25b0:	fb810520 	swi	r28, r1, 1312
    25b4:	eb8104e8 	lwi	r28, r1, 1256
    25b8:	e31a0000 	lbui	r24, r26, 0
    25bc:	a39c0008 	ori	r28, r28, 8
    25c0:	fb8104e8 	swi	r28, r1, 1256
    25c4:	b810f48c 	brid	-2932		// 1a50
    25c8:	93180060 	sext8	r24, r24
    25cc:	eb8104e8 	lwi	r28, r1, 1256
    25d0:	e31a0000 	lbui	r24, r26, 0
    25d4:	a39c0080 	ori	r28, r28, 128
    25d8:	fb8104e8 	swi	r28, r1, 1256
    25dc:	b810f474 	brid	-2956		// 1a50
    25e0:	93180060 	sext8	r24, r24
    25e4:	10800000 	addk	r4, r0, r0
    25e8:	3078ffd0 	addik	r3, r24, -48
    25ec:	10e42000 	addk	r7, r4, r4
    25f0:	e31a0000 	lbui	r24, r26, 0
    25f4:	10e73800 	addk	r7, r7, r7
    25f8:	10872000 	addk	r4, r7, r4
    25fc:	10842000 	addk	r4, r4, r4
    2600:	93180060 	sext8	r24, r24
    2604:	10841800 	addk	r4, r4, r3
    2608:	33a00009 	addik	r29, r0, 9
    260c:	3078ffd0 	addik	r3, r24, -48
    2610:	14e3e803 	cmpu	r7, r3, r29
    2614:	bea7ffd8 	bgeid	r7, -40		// 25ec
    2618:	335a0001 	addik	r26, r26, 1
    261c:	b810f438 	brid	-3016		// 1a54
    2620:	f88104fc 	swi	r4, r1, 1276
    2624:	30770030 	addik	r3, r23, 48
    2628:	f06104b3 	sbi	r3, r1, 1203
    262c:	fb810500 	swi	r28, r1, 1280
    2630:	b810f5ac 	brid	-2644		// 1bdc
    2634:	332104b3 	addik	r25, r1, 1203
    2638:	e8a1050c 	lwi	r5, r1, 1292
    263c:	10df0000 	addk	r6, r31, r0
    2640:	b0000000 	imm	0
    2644:	b9f485c8 	brlid	r15, -31288	// ac0c <__sprint_r>
    2648:	30e104b4 	addik	r7, r1, 1204
    264c:	be23f894 	bneid	r3, -1900		// 1ee0
    2650:	31610024 	addik	r11, r1, 36
    2654:	e88104bc 	lwi	r4, r1, 1212
    2658:	e06104de 	lbui	r3, r1, 1246
    265c:	be030040 	beqid	r3, 64		// 269c
    2660:	e90104f4 	lwi	r8, r1, 1268
    2664:	ea6104b8 	lwi	r19, r1, 1208
    2668:	306104de 	addik	r3, r1, 1246
    266c:	f86b0000 	swi	r3, r11, 0
    2670:	30600001 	addik	r3, r0, 1
    2674:	f86b0004 	swi	r3, r11, 4
    2678:	12731800 	addk	r19, r19, r3
    267c:	10841800 	addk	r4, r4, r3
    2680:	30600007 	addik	r3, r0, 7
    2684:	fa6104b8 	swi	r19, r1, 1208
    2688:	16731801 	cmp	r19, r19, r3
    268c:	be53071c 	bltid	r19, 1820		// 2da8
    2690:	f88104bc 	swi	r4, r1, 1212
    2694:	316b0008 	addik	r11, r11, 8
    2698:	e90104f4 	lwi	r8, r1, 1268
    269c:	be080040 	beqid	r8, 64		// 26dc
    26a0:	e9210510 	lwi	r9, r1, 1296
    26a4:	ea6104b8 	lwi	r19, r1, 1208
    26a8:	306104dc 	addik	r3, r1, 1244
    26ac:	f86b0000 	swi	r3, r11, 0
    26b0:	30600002 	addik	r3, r0, 2
    26b4:	f86b0004 	swi	r3, r11, 4
    26b8:	32730001 	addik	r19, r19, 1
    26bc:	10841800 	addk	r4, r4, r3
    26c0:	30600007 	addik	r3, r0, 7
    26c4:	fa6104b8 	swi	r19, r1, 1208
    26c8:	16731801 	cmp	r19, r19, r3
    26cc:	be5306fc 	bltid	r19, 1788		// 2dc8
    26d0:	f88104bc 	swi	r4, r1, 1212
    26d4:	316b0008 	addik	r11, r11, 8
    26d8:	e9210510 	lwi	r9, r1, 1296
    26dc:	ab890080 	xori	r28, r9, 128
    26e0:	be1c03d8 	beqid	r28, 984		// 2ab8
    26e4:	eb8104fc 	lwi	r28, r1, 1276
    26e8:	eb810518 	lwi	r28, r1, 1304
    26ec:	eba10500 	lwi	r29, r1, 1280
    26f0:	17dde000 	rsubk	r30, r29, r28
    26f4:	be7e00e0 	bleid	r30, 224		// 27d4
    26f8:	eb8104e8 	lwi	r28, r1, 1256
    26fc:	33a00010 	addik	r29, r0, 16	// 10 <_.d1>
    2700:	147ee801 	cmp	r3, r30, r29
    2704:	b0000001 	imm	1
    2708:	33802bfc 	addik	r28, r0, 11260	// 12bfc <zeroes.4014>
    270c:	bea3009c 	bgeid	r3, 156		// 27a8
    2710:	ea6104b8 	lwi	r19, r1, 1208
    2714:	fac104f4 	swi	r22, r1, 1268
    2718:	fae104f8 	swi	r23, r1, 1272
    271c:	33600007 	addik	r27, r0, 7
    2720:	12dc0000 	addk	r22, r28, r0
    2724:	13990000 	addk	r28, r25, r0
    2728:	13380000 	addk	r25, r24, r0
    272c:	b8100018 	brid	24		// 2744
    2730:	eb01050c 	lwi	r24, r1, 1292
    2734:	33defff0 	addik	r30, r30, -16
    2738:	147ee801 	cmp	r3, r30, r29
    273c:	bea30058 	bgeid	r3, 88		// 2794
    2740:	316b0008 	addik	r11, r11, 8
    2744:	facb0000 	swi	r22, r11, 0
    2748:	fbab0004 	swi	r29, r11, 4
    274c:	32730001 	addik	r19, r19, 1
    2750:	30840010 	addik	r4, r4, 16
    2754:	f88104bc 	swi	r4, r1, 1212
    2758:	1473d801 	cmp	r3, r19, r27
    275c:	bea3ffd8 	bgeid	r3, -40		// 2734
    2760:	fa6104b8 	swi	r19, r1, 1208
    2764:	10b80000 	addk	r5, r24, r0
    2768:	10df0000 	addk	r6, r31, r0
    276c:	b0000000 	imm	0
    2770:	b9f4849c 	brlid	r15, -31588	// ac0c <__sprint_r>
    2774:	30e104b4 	addik	r7, r1, 1204
    2778:	be23f768 	bneid	r3, -2200		// 1ee0
    277c:	33defff0 	addik	r30, r30, -16
    2780:	147ee801 	cmp	r3, r30, r29
    2784:	31610024 	addik	r11, r1, 36
    2788:	e88104bc 	lwi	r4, r1, 1212
    278c:	be43ffb8 	bltid	r3, -72		// 2744
    2790:	ea6104b8 	lwi	r19, r1, 1208
    2794:	13190000 	addk	r24, r25, r0
    2798:	133c0000 	addk	r25, r28, r0
    279c:	13960000 	addk	r28, r22, r0
    27a0:	eac104f4 	lwi	r22, r1, 1268
    27a4:	eae104f8 	lwi	r23, r1, 1272
    27a8:	fb8b0000 	swi	r28, r11, 0
    27ac:	fbcb0004 	swi	r30, r11, 4
    27b0:	32730001 	addik	r19, r19, 1
    27b4:	1084f000 	addk	r4, r4, r30
    27b8:	30600007 	addik	r3, r0, 7
    27bc:	fa6104b8 	swi	r19, r1, 1208
    27c0:	16731801 	cmp	r19, r19, r3
    27c4:	be5305c4 	bltid	r19, 1476		// 2d88
    27c8:	f88104bc 	swi	r4, r1, 1212
    27cc:	316b0008 	addik	r11, r11, 8
    27d0:	eb8104e8 	lwi	r28, r1, 1256
    27d4:	a47c0100 	andi	r3, r28, 256
    27d8:	be23014c 	bneid	r3, 332		// 2924
    27dc:	30600065 	addik	r3, r0, 101
    27e0:	ea6104b8 	lwi	r19, r1, 1208
    27e4:	eba10500 	lwi	r29, r1, 1280
    27e8:	fb2b0000 	swi	r25, r11, 0
    27ec:	32730001 	addik	r19, r19, 1
    27f0:	fbab0004 	swi	r29, r11, 4
    27f4:	1084e800 	addk	r4, r4, r29
    27f8:	30600007 	addik	r3, r0, 7
    27fc:	fa6104b8 	swi	r19, r1, 1208
    2800:	16731801 	cmp	r19, r19, r3
    2804:	be53049c 	bltid	r19, 1180		// 2ca0
    2808:	f88104bc 	swi	r4, r1, 1212
    280c:	316b0008 	addik	r11, r11, 8
    2810:	eb8104e8 	lwi	r28, r1, 1256
    2814:	a47c0004 	andi	r3, r28, 4
    2818:	be0300e4 	beqid	r3, 228		// 28fc
    281c:	e86104ec 	lwi	r3, r1, 1260
    2820:	eba104fc 	lwi	r29, r1, 1276
    2824:	e92104ec 	lwi	r9, r1, 1260
    2828:	1709e800 	rsubk	r24, r9, r29
    282c:	be7800d4 	bleid	r24, 212		// 2900
    2830:	eb8104fc 	lwi	r28, r1, 1276
    2834:	33200010 	addik	r25, r0, 16	// 10 <_.d1>
    2838:	1478c801 	cmp	r3, r24, r25
    283c:	b0000001 	imm	1
    2840:	33c02bec 	addik	r30, r0, 11244	// 12bec <blanks.4013>
    2844:	bea30074 	bgeid	r3, 116		// 28b8
    2848:	ea6104b8 	lwi	r19, r1, 1208
    284c:	33600007 	addik	r27, r0, 7
    2850:	b8100018 	brid	24		// 2868
    2854:	eb81050c 	lwi	r28, r1, 1292
    2858:	3318fff0 	addik	r24, r24, -16
    285c:	1478c801 	cmp	r3, r24, r25
    2860:	bea30058 	bgeid	r3, 88		// 28b8
    2864:	316b0008 	addik	r11, r11, 8
    2868:	fbcb0000 	swi	r30, r11, 0
    286c:	fb2b0004 	swi	r25, r11, 4
    2870:	32730001 	addik	r19, r19, 1
    2874:	30840010 	addik	r4, r4, 16
    2878:	f88104bc 	swi	r4, r1, 1212
    287c:	1473d801 	cmp	r3, r19, r27
    2880:	bea3ffd8 	bgeid	r3, -40		// 2858
    2884:	fa6104b8 	swi	r19, r1, 1208
    2888:	10bc0000 	addk	r5, r28, r0
    288c:	10df0000 	addk	r6, r31, r0
    2890:	b0000000 	imm	0
    2894:	b9f48378 	brlid	r15, -31880	// ac0c <__sprint_r>
    2898:	30e104b4 	addik	r7, r1, 1204
    289c:	be23f644 	bneid	r3, -2492		// 1ee0
    28a0:	3318fff0 	addik	r24, r24, -16
    28a4:	1478c801 	cmp	r3, r24, r25
    28a8:	31610024 	addik	r11, r1, 36
    28ac:	e88104bc 	lwi	r4, r1, 1212
    28b0:	be43ffb8 	bltid	r3, -72		// 2868
    28b4:	ea6104b8 	lwi	r19, r1, 1208
    28b8:	fbcb0000 	swi	r30, r11, 0
    28bc:	fb0b0004 	swi	r24, r11, 4
    28c0:	32730001 	addik	r19, r19, 1
    28c4:	10982000 	addk	r4, r24, r4
    28c8:	30600007 	addik	r3, r0, 7
    28cc:	fa6104b8 	swi	r19, r1, 1208
    28d0:	16731801 	cmp	r19, r19, r3
    28d4:	beb30024 	bgeid	r19, 36		// 28f8
    28d8:	f88104bc 	swi	r4, r1, 1212
    28dc:	e8a1050c 	lwi	r5, r1, 1292
    28e0:	10df0000 	addk	r6, r31, r0
    28e4:	b0000000 	imm	0
    28e8:	b9f48324 	brlid	r15, -31964	// ac0c <__sprint_r>
    28ec:	30e104b4 	addik	r7, r1, 1204
    28f0:	be23f5f0 	bneid	r3, -2576		// 1ee0
    28f4:	e88104bc 	lwi	r4, r1, 1212
    28f8:	e86104ec 	lwi	r3, r1, 1260
    28fc:	eb8104fc 	lwi	r28, r1, 1276
    2900:	14bc1801 	cmp	r5, r28, r3
    2904:	bc4504e4 	blti	r5, 1252		// 2de8
    2908:	eba10508 	lwi	r29, r1, 1288
    290c:	13bd1800 	addk	r29, r29, r3
    2910:	be2403b0 	bneid	r4, 944		// 2cc0
    2914:	fba10508 	swi	r29, r1, 1288
    2918:	f80104b8 	swi	r0, r1, 1208
    291c:	b810f070 	brid	-3984		// 198c
    2920:	31610024 	addik	r11, r1, 36
    2924:	17181801 	cmp	r24, r24, r3
    2928:	beb80278 	bgeid	r24, 632		// 2ba0
    292c:	eba10514 	lwi	r29, r1, 1300
    2930:	e9010528 	lwi	r8, r1, 1320
    2934:	e921052c 	lwi	r9, r1, 1324
    2938:	f8810544 	swi	r4, r1, 1348
    293c:	f9610548 	swi	r11, r1, 1352
    2940:	10a80000 	addk	r5, r8, r0
    2944:	10e00000 	addk	r7, r0, r0
    2948:	11000000 	addk	r8, r0, r0
    294c:	b0000000 	imm	0
    2950:	b9f4e70c 	brlid	r15, -6388	// 1105c <__eqdf2>
    2954:	10c90000 	addk	r6, r9, r0
    2958:	e8810544 	lwi	r4, r1, 1348
    295c:	be23051c 	bneid	r3, 1308		// 2e78
    2960:	e9610548 	lwi	r11, r1, 1352
    2964:	30600001 	addik	r3, r0, 1
    2968:	ea6104b8 	lwi	r19, r1, 1208
    296c:	f86b0004 	swi	r3, r11, 4
    2970:	b0000001 	imm	1
    2974:	30602a84 	addik	r3, r0, 10884
    2978:	32730001 	addik	r19, r19, 1
    297c:	30840001 	addik	r4, r4, 1
    2980:	f86b0000 	swi	r3, r11, 0
    2984:	30600007 	addik	r3, r0, 7
    2988:	fa6104b8 	swi	r19, r1, 1208
    298c:	16731801 	cmp	r19, r19, r3
    2990:	be530ed4 	bltid	r19, 3796		// 3864
    2994:	f88104bc 	swi	r4, r1, 1212
    2998:	316b0008 	addik	r11, r11, 8
    299c:	e86104d8 	lwi	r3, r1, 1240
    29a0:	e9210514 	lwi	r9, r1, 1300
    29a4:	14691801 	cmp	r3, r9, r3
    29a8:	be43001c 	bltid	r3, 28		// 29c4
    29ac:	ea6104b8 	lwi	r19, r1, 1208
    29b0:	eb8104e8 	lwi	r28, r1, 1256
    29b4:	a47c0001 	andi	r3, r28, 1
    29b8:	be03fe60 	beqid	r3, -416		// 2818
    29bc:	a47c0004 	andi	r3, r28, 4
    29c0:	ea6104b8 	lwi	r19, r1, 1208
    29c4:	eb810524 	lwi	r28, r1, 1316
    29c8:	eba1051c 	lwi	r29, r1, 1308
    29cc:	32730001 	addik	r19, r19, 1
    29d0:	fb8b0004 	swi	r28, r11, 4
    29d4:	fbab0000 	swi	r29, r11, 0
    29d8:	1084e000 	addk	r4, r4, r28
    29dc:	30600007 	addik	r3, r0, 7
    29e0:	fa6104b8 	swi	r19, r1, 1208
    29e4:	16731801 	cmp	r19, r19, r3
    29e8:	be531210 	bltid	r19, 4624		// 3bf8
    29ec:	f88104bc 	swi	r4, r1, 1212
    29f0:	316b0008 	addik	r11, r11, 8
    29f4:	eba10514 	lwi	r29, r1, 1300
    29f8:	331dffff 	addik	r24, r29, -1
    29fc:	be78fe14 	bleid	r24, -492		// 2810
    2a00:	33200010 	addik	r25, r0, 16	// 10 <_.d1>
    2a04:	1478c801 	cmp	r3, r24, r25
    2a08:	b0000001 	imm	1
    2a0c:	33802bfc 	addik	r28, r0, 11260	// 12bfc <zeroes.4014>
    2a10:	bea30694 	bgeid	r3, 1684		// 30a4
    2a14:	ea6104b8 	lwi	r19, r1, 1208
    2a18:	33600007 	addik	r27, r0, 7
    2a1c:	b8100018 	brid	24		// 2a34
    2a20:	eba1050c 	lwi	r29, r1, 1292
    2a24:	316b0008 	addik	r11, r11, 8
    2a28:	3318fff0 	addik	r24, r24, -16
    2a2c:	1478c801 	cmp	r3, r24, r25
    2a30:	bca30674 	bgei	r3, 1652		// 30a4
    2a34:	fb8b0000 	swi	r28, r11, 0
    2a38:	fb2b0004 	swi	r25, r11, 4
    2a3c:	32730001 	addik	r19, r19, 1
    2a40:	30840010 	addik	r4, r4, 16
    2a44:	f88104bc 	swi	r4, r1, 1212
    2a48:	1473d801 	cmp	r3, r19, r27
    2a4c:	bea3ffd8 	bgeid	r3, -40		// 2a24
    2a50:	fa6104b8 	swi	r19, r1, 1208
    2a54:	10bd0000 	addk	r5, r29, r0
    2a58:	10df0000 	addk	r6, r31, r0
    2a5c:	b0000000 	imm	0
    2a60:	b9f481ac 	brlid	r15, -32340	// ac0c <__sprint_r>
    2a64:	30e104b4 	addik	r7, r1, 1204
    2a68:	be23f478 	bneid	r3, -2952		// 1ee0
    2a6c:	31610024 	addik	r11, r1, 36
    2a70:	e88104bc 	lwi	r4, r1, 1212
    2a74:	b810ffb4 	brid	-76		// 2a28
    2a78:	ea6104b8 	lwi	r19, r1, 1208
    2a7c:	be230260 	bneid	r3, 608		// 2cdc
    2a80:	eb8104e8 	lwi	r28, r1, 1256
    2a84:	a49c0001 	andi	r4, r28, 1
    2a88:	be04055c 	beqid	r4, 1372		// 2fe4
    2a8c:	eb810540 	lwi	r28, r1, 1344
    2a90:	33a00030 	addik	r29, r0, 48
    2a94:	f3a104b3 	sbi	r29, r1, 1203
    2a98:	fb810500 	swi	r28, r1, 1280
    2a9c:	eba10500 	lwi	r29, r1, 1280
    2aa0:	332104b3 	addik	r25, r1, 1203
    2aa4:	147ee801 	cmp	r3, r30, r29
    2aa8:	bea3f144 	bgeid	r3, -3772		// 1bec
    2aac:	fba104ec 	swi	r29, r1, 1260
    2ab0:	b810f13c 	brid	-3780		// 1bec
    2ab4:	fbc104ec 	swi	r30, r1, 1260
    2ab8:	e92104ec 	lwi	r9, r1, 1260
    2abc:	17a9e000 	rsubk	r29, r9, r28
    2ac0:	be7dfc28 	bleid	r29, -984		// 26e8
    2ac4:	31000010 	addik	r8, r0, 16	// 10 <_.d1>
    2ac8:	147d4001 	cmp	r3, r29, r8
    2acc:	b0000001 	imm	1
    2ad0:	33802bfc 	addik	r28, r0, 11260	// 12bfc <zeroes.4014>
    2ad4:	bea300a0 	bgeid	r3, 160		// 2b74
    2ad8:	ea6104b8 	lwi	r19, r1, 1208
    2adc:	fac104f4 	swi	r22, r1, 1268
    2ae0:	fae104f8 	swi	r23, r1, 1272
    2ae4:	13c80000 	addk	r30, r8, r0
    2ae8:	12dc0000 	addk	r22, r28, r0
    2aec:	33600007 	addik	r27, r0, 7
    2af0:	13990000 	addk	r28, r25, r0
    2af4:	13380000 	addk	r25, r24, r0
    2af8:	b8100018 	brid	24		// 2b10
    2afc:	eb01050c 	lwi	r24, r1, 1292
    2b00:	33bdfff0 	addik	r29, r29, -16
    2b04:	147df001 	cmp	r3, r29, r30
    2b08:	bea30058 	bgeid	r3, 88		// 2b60
    2b0c:	316b0008 	addik	r11, r11, 8
    2b10:	facb0000 	swi	r22, r11, 0
    2b14:	fbcb0004 	swi	r30, r11, 4
    2b18:	32730001 	addik	r19, r19, 1
    2b1c:	30840010 	addik	r4, r4, 16
    2b20:	f88104bc 	swi	r4, r1, 1212
    2b24:	1473d801 	cmp	r3, r19, r27
    2b28:	bea3ffd8 	bgeid	r3, -40		// 2b00
    2b2c:	fa6104b8 	swi	r19, r1, 1208
    2b30:	10b80000 	addk	r5, r24, r0
    2b34:	10df0000 	addk	r6, r31, r0
    2b38:	b0000000 	imm	0
    2b3c:	b9f480d0 	brlid	r15, -32560	// ac0c <__sprint_r>
    2b40:	30e104b4 	addik	r7, r1, 1204
    2b44:	be23f39c 	bneid	r3, -3172		// 1ee0
    2b48:	33bdfff0 	addik	r29, r29, -16
    2b4c:	147df001 	cmp	r3, r29, r30
    2b50:	31610024 	addik	r11, r1, 36
    2b54:	e88104bc 	lwi	r4, r1, 1212
    2b58:	be43ffb8 	bltid	r3, -72		// 2b10
    2b5c:	ea6104b8 	lwi	r19, r1, 1208
    2b60:	13190000 	addk	r24, r25, r0
    2b64:	133c0000 	addk	r25, r28, r0
    2b68:	13960000 	addk	r28, r22, r0
    2b6c:	eac104f4 	lwi	r22, r1, 1268
    2b70:	eae104f8 	lwi	r23, r1, 1272
    2b74:	fb8b0000 	swi	r28, r11, 0
    2b78:	fbab0004 	swi	r29, r11, 4
    2b7c:	32730001 	addik	r19, r19, 1
    2b80:	1084e800 	addk	r4, r4, r29
    2b84:	30600007 	addik	r3, r0, 7
    2b88:	fa6104b8 	swi	r19, r1, 1208
    2b8c:	16731801 	cmp	r19, r19, r3
    2b90:	be5307b8 	bltid	r19, 1976		// 3348
    2b94:	f88104bc 	swi	r4, r1, 1212
    2b98:	b810fb50 	brid	-1200		// 26e8
    2b9c:	316b0008 	addik	r11, r11, 8
    2ba0:	30600001 	addik	r3, r0, 1
    2ba4:	14bd1801 	cmp	r5, r29, r3
    2ba8:	bea506e8 	bgeid	r5, 1768		// 3290
    2bac:	ea6104b8 	lwi	r19, r1, 1208
    2bb0:	30600001 	addik	r3, r0, 1
    2bb4:	f86b0004 	swi	r3, r11, 4
    2bb8:	12731800 	addk	r19, r19, r3
    2bbc:	fb2b0000 	swi	r25, r11, 0
    2bc0:	10841800 	addk	r4, r4, r3
    2bc4:	30600007 	addik	r3, r0, 7
    2bc8:	f88104bc 	swi	r4, r1, 1212
    2bcc:	14731801 	cmp	r3, r19, r3
    2bd0:	be430754 	bltid	r3, 1876		// 3324
    2bd4:	fa6104b8 	swi	r19, r1, 1208
    2bd8:	316b0008 	addik	r11, r11, 8
    2bdc:	eb810524 	lwi	r28, r1, 1316
    2be0:	eba1051c 	lwi	r29, r1, 1308
    2be4:	32730001 	addik	r19, r19, 1
    2be8:	fb8b0004 	swi	r28, r11, 4
    2bec:	fbab0000 	swi	r29, r11, 0
    2bf0:	1084e000 	addk	r4, r4, r28
    2bf4:	30600007 	addik	r3, r0, 7
    2bf8:	f88104bc 	swi	r4, r1, 1212
    2bfc:	14731801 	cmp	r3, r19, r3
    2c00:	be430700 	bltid	r3, 1792		// 3300
    2c04:	fa6104b8 	swi	r19, r1, 1208
    2c08:	330b0008 	addik	r24, r11, 8
    2c0c:	e9010528 	lwi	r8, r1, 1320
    2c10:	e921052c 	lwi	r9, r1, 1324
    2c14:	f8810544 	swi	r4, r1, 1348
    2c18:	10a80000 	addk	r5, r8, r0
    2c1c:	10e00000 	addk	r7, r0, r0
    2c20:	11000000 	addk	r8, r0, r0
    2c24:	b0000000 	imm	0
    2c28:	b9f4e4a8 	brlid	r15, -7000	// 110d0 <__nedf2>
    2c2c:	10c90000 	addk	r6, r9, r0
    2c30:	be0303c0 	beqid	r3, 960		// 2ff0
    2c34:	e8810544 	lwi	r4, r1, 1348
    2c38:	e9210514 	lwi	r9, r1, 1300
    2c3c:	33390001 	addik	r25, r25, 1
    2c40:	fb380000 	swi	r25, r24, 0
    2c44:	3069ffff 	addik	r3, r9, -1
    2c48:	f8780004 	swi	r3, r24, 4
    2c4c:	32730001 	addik	r19, r19, 1
    2c50:	10841800 	addk	r4, r4, r3
    2c54:	30600007 	addik	r3, r0, 7
    2c58:	f88104bc 	swi	r4, r1, 1212
    2c5c:	14731801 	cmp	r3, r19, r3
    2c60:	be430668 	bltid	r3, 1640		// 32c8
    2c64:	fa6104b8 	swi	r19, r1, 1208
    2c68:	33180008 	addik	r24, r24, 8
    2c6c:	eba10530 	lwi	r29, r1, 1328
    2c70:	306104c8 	addik	r3, r1, 1224
    2c74:	f8780000 	swi	r3, r24, 0
    2c78:	fbb80004 	swi	r29, r24, 4
    2c7c:	32730001 	addik	r19, r19, 1
    2c80:	1084e800 	addk	r4, r4, r29
    2c84:	30600007 	addik	r3, r0, 7
    2c88:	fa6104b8 	swi	r19, r1, 1208
    2c8c:	16731801 	cmp	r19, r19, r3
    2c90:	be530010 	bltid	r19, 16		// 2ca0
    2c94:	f88104bc 	swi	r4, r1, 1212
    2c98:	b810fb78 	brid	-1160		// 2810
    2c9c:	31780008 	addik	r11, r24, 8
    2ca0:	e8a1050c 	lwi	r5, r1, 1292
    2ca4:	10df0000 	addk	r6, r31, r0
    2ca8:	b9f47f64 	brlid	r15, 32612	// ac0c <__sprint_r>
    2cac:	30e104b4 	addik	r7, r1, 1204
    2cb0:	be23f230 	bneid	r3, -3536		// 1ee0
    2cb4:	31610024 	addik	r11, r1, 36
    2cb8:	b810fb58 	brid	-1192		// 2810
    2cbc:	e88104bc 	lwi	r4, r1, 1212
    2cc0:	e8a1050c 	lwi	r5, r1, 1292
    2cc4:	10df0000 	addk	r6, r31, r0
    2cc8:	b9f47f44 	brlid	r15, 32580	// ac0c <__sprint_r>
    2ccc:	30e104b4 	addik	r7, r1, 1204
    2cd0:	bc03fc48 	beqi	r3, -952		// 2918
    2cd4:	b810f210 	brid	-3568		// 1ee4
    2cd8:	e47f000c 	lhui	r3, r31, 12
    2cdc:	fb610500 	swi	r27, r1, 1280
    2ce0:	b810eefc 	brid	-4356		// 1bdc
    2ce4:	332104b4 	addik	r25, r1, 1204
    2ce8:	be030108 	beqid	r3, 264		// 2df0
    2cec:	332104b4 	addik	r25, r1, 1204
    2cf0:	30c00000 	addik	r6, r0, 0
    2cf4:	30e00007 	addik	r7, r0, 7
    2cf8:	84b73800 	and	r5, r23, r7
    2cfc:	91160021 	src	r8, r22
    2d00:	91080021 	src	r8, r8
    2d04:	91080021 	src	r8, r8
    2d08:	91080021 	src	r8, r8
    2d0c:	b000e000 	imm	-8192
    2d10:	a5080000 	andi	r8, r8, 0
    2d14:	1060b000 	addk	r3, r0, r22
    2d18:	90760041 	srl	r3, r22
    2d1c:	90630041 	srl	r3, r3
    2d20:	90630041 	srl	r3, r3
    2d24:	12c30000 	addk	r22, r3, r0
    2d28:	30650030 	addik	r3, r5, 48
    2d2c:	1080b800 	addk	r4, r0, r23
    2d30:	90970041 	srl	r4, r23
    2d34:	90840041 	srl	r4, r4
    2d38:	90840041 	srl	r4, r4
    2d3c:	3339ffff 	addik	r25, r25, -1
    2d40:	90630060 	sext8	r3, r3
    2d44:	82e82000 	or	r23, r8, r4
    2d48:	8096b800 	or	r4, r22, r23
    2d4c:	be24ffac 	bneid	r4, -84		// 2cf8
    2d50:	f0790000 	sbi	r3, r25, 0
    2d54:	eb8104e8 	lwi	r28, r1, 1256
    2d58:	a49c0001 	andi	r4, r28, 1
    2d5c:	be04ee74 	beqid	r4, -4492		// 1bd0
    2d60:	10b90000 	addk	r5, r25, r0
    2d64:	a8630030 	xori	r3, r3, 48
    2d68:	be030100 	beqid	r3, 256		// 2e68
    2d6c:	e90104e0 	lwi	r8, r1, 1248
    2d70:	3339ffff 	addik	r25, r25, -1
    2d74:	30c00030 	addik	r6, r0, 48
    2d78:	15194000 	rsubk	r8, r25, r8
    2d7c:	f0c5ffff 	sbi	r6, r5, -1
    2d80:	b810ee5c 	brid	-4516		// 1bdc
    2d84:	f9010500 	swi	r8, r1, 1280
    2d88:	e8a1050c 	lwi	r5, r1, 1292
    2d8c:	10df0000 	addk	r6, r31, r0
    2d90:	b9f47e7c 	brlid	r15, 32380	// ac0c <__sprint_r>
    2d94:	30e104b4 	addik	r7, r1, 1204
    2d98:	be23f148 	bneid	r3, -3768		// 1ee0
    2d9c:	31610024 	addik	r11, r1, 36
    2da0:	b810fa30 	brid	-1488		// 27d0
    2da4:	e88104bc 	lwi	r4, r1, 1212
    2da8:	e8a1050c 	lwi	r5, r1, 1292
    2dac:	10df0000 	addk	r6, r31, r0
    2db0:	b9f47e5c 	brlid	r15, 32348	// ac0c <__sprint_r>
    2db4:	30e104b4 	addik	r7, r1, 1204
    2db8:	be23f128 	bneid	r3, -3800		// 1ee0
    2dbc:	31610024 	addik	r11, r1, 36
    2dc0:	b810f8d8 	brid	-1832		// 2698
    2dc4:	e88104bc 	lwi	r4, r1, 1212
    2dc8:	e8a1050c 	lwi	r5, r1, 1292
    2dcc:	10df0000 	addk	r6, r31, r0
    2dd0:	b9f47e3c 	brlid	r15, 32316	// ac0c <__sprint_r>
    2dd4:	30e104b4 	addik	r7, r1, 1204
    2dd8:	be23f108 	bneid	r3, -3832		// 1ee0
    2ddc:	31610024 	addik	r11, r1, 36
    2de0:	b810f8f8 	brid	-1800		// 26d8
    2de4:	e88104bc 	lwi	r4, r1, 1212
    2de8:	b810fb20 	brid	-1248		// 2908
    2dec:	107c0000 	addk	r3, r28, r0
    2df0:	e9210534 	lwi	r9, r1, 1332
    2df4:	30c00000 	addik	r6, r0, 0
    2df8:	30e0000f 	addik	r7, r0, 15
    2dfc:	84b73800 	and	r5, r23, r7
    2e00:	1060b000 	addk	r3, r0, r22
    2e04:	90760041 	srl	r3, r22
    2e08:	90630041 	srl	r3, r3
    2e0c:	90630041 	srl	r3, r3
    2e10:	90630041 	srl	r3, r3
    2e14:	91160021 	src	r8, r22
    2e18:	91080021 	src	r8, r8
    2e1c:	91080021 	src	r8, r8
    2e20:	91080021 	src	r8, r8
    2e24:	91080021 	src	r8, r8
    2e28:	b000f000 	imm	-4096
    2e2c:	a5080000 	andi	r8, r8, 0
    2e30:	12c30000 	addk	r22, r3, r0
    2e34:	10692800 	addk	r3, r9, r5
    2e38:	e0630000 	lbui	r3, r3, 0
    2e3c:	1080b800 	addk	r4, r0, r23
    2e40:	90970041 	srl	r4, r23
    2e44:	90840041 	srl	r4, r4
    2e48:	90840041 	srl	r4, r4
    2e4c:	90840041 	srl	r4, r4
    2e50:	3339ffff 	addik	r25, r25, -1
    2e54:	82e82000 	or	r23, r8, r4
    2e58:	f0790000 	sbi	r3, r25, 0
    2e5c:	8076b800 	or	r3, r22, r23
    2e60:	be23ffa0 	bneid	r3, -96		// 2e00
    2e64:	84b73800 	and	r5, r23, r7
    2e68:	e88104e0 	lwi	r4, r1, 1248
    2e6c:	14992000 	rsubk	r4, r25, r4
    2e70:	b810ed6c 	brid	-4756		// 1bdc
    2e74:	f8810500 	swi	r4, r1, 1280
    2e78:	eb0104d8 	lwi	r24, r1, 1240
    2e7c:	be780a08 	bleid	r24, 2568		// 3884
    2e80:	e9210514 	lwi	r9, r1, 1300
    2e84:	eb810520 	lwi	r28, r1, 1312
    2e88:	13d94800 	addk	r30, r25, r9
    2e8c:	1719f000 	rsubk	r24, r25, r30
    2e90:	1478e001 	cmp	r3, r24, r28
    2e94:	bc430d14 	blti	r3, 3348		// 3ba8
    2e98:	be780030 	bleid	r24, 48		// 2ec8
    2e9c:	ea6104b8 	lwi	r19, r1, 1208
    2ea0:	1084c000 	addk	r4, r4, r24
    2ea4:	fb2b0000 	swi	r25, r11, 0
    2ea8:	fb0b0004 	swi	r24, r11, 4
    2eac:	32730001 	addik	r19, r19, 1
    2eb0:	30600007 	addik	r3, r0, 7
    2eb4:	fa6104b8 	swi	r19, r1, 1208
    2eb8:	16731801 	cmp	r19, r19, r3
    2ebc:	be530e54 	bltid	r19, 3668		// 3d10
    2ec0:	f88104bc 	swi	r4, r1, 1212
    2ec4:	316b0008 	addik	r11, r11, 8
    2ec8:	eba10520 	lwi	r29, r1, 1312
    2ecc:	a8b8ffff 	xori	r5, r24, -1
    2ed0:	10602800 	addk	r3, r0, r5
    2ed4:	90650001 	sra	r3, r5
    2ed8:	90630001 	sra	r3, r3
    2edc:	90630001 	sra	r3, r3
    2ee0:	90630001 	sra	r3, r3
    2ee4:	90630001 	sra	r3, r3
    2ee8:	90630001 	sra	r3, r3
    2eec:	90630001 	sra	r3, r3
    2ef0:	90630001 	sra	r3, r3
    2ef4:	90630001 	sra	r3, r3
    2ef8:	90630001 	sra	r3, r3
    2efc:	90630001 	sra	r3, r3
    2f00:	90630001 	sra	r3, r3
    2f04:	90630001 	sra	r3, r3
    2f08:	90630001 	sra	r3, r3
    2f0c:	90630001 	sra	r3, r3
    2f10:	90630001 	sra	r3, r3
    2f14:	90630001 	sra	r3, r3
    2f18:	90630001 	sra	r3, r3
    2f1c:	90630001 	sra	r3, r3
    2f20:	90630001 	sra	r3, r3
    2f24:	90630001 	sra	r3, r3
    2f28:	90630001 	sra	r3, r3
    2f2c:	90630001 	sra	r3, r3
    2f30:	90630001 	sra	r3, r3
    2f34:	90630001 	sra	r3, r3
    2f38:	90630001 	sra	r3, r3
    2f3c:	90630001 	sra	r3, r3
    2f40:	90630001 	sra	r3, r3
    2f44:	90630001 	sra	r3, r3
    2f48:	90630001 	sra	r3, r3
    2f4c:	90630001 	sra	r3, r3
    2f50:	87181800 	and	r24, r24, r3
    2f54:	1718e800 	rsubk	r24, r24, r29
    2f58:	be780184 	bleid	r24, 388		// 30dc
    2f5c:	33600010 	addik	r27, r0, 16	// 10 <_.d1>
    2f60:	1478d801 	cmp	r3, r24, r27
    2f64:	b0000001 	imm	1
    2f68:	33802bfc 	addik	r28, r0, 11260	// 12bfc <zeroes.4014>
    2f6c:	bea307ec 	bgeid	r3, 2028		// 3758
    2f70:	ea6104b8 	lwi	r19, r1, 1208
    2f74:	fac10500 	swi	r22, r1, 1280
    2f78:	fae10504 	swi	r23, r1, 1284
    2f7c:	33a00007 	addik	r29, r0, 7
    2f80:	12dc0000 	addk	r22, r28, r0
    2f84:	13980000 	addk	r28, r24, r0
    2f88:	b8100018 	brid	24		// 2fa0
    2f8c:	eb01050c 	lwi	r24, r1, 1292
    2f90:	316b0008 	addik	r11, r11, 8
    2f94:	339cfff0 	addik	r28, r28, -16
    2f98:	147cd801 	cmp	r3, r28, r27
    2f9c:	bca307ac 	bgei	r3, 1964		// 3748
    2fa0:	facb0000 	swi	r22, r11, 0
    2fa4:	fb6b0004 	swi	r27, r11, 4
    2fa8:	32730001 	addik	r19, r19, 1
    2fac:	30840010 	addik	r4, r4, 16
    2fb0:	f88104bc 	swi	r4, r1, 1212
    2fb4:	1473e801 	cmp	r3, r19, r29
    2fb8:	bea3ffd8 	bgeid	r3, -40		// 2f90
    2fbc:	fa6104b8 	swi	r19, r1, 1208
    2fc0:	10b80000 	addk	r5, r24, r0
    2fc4:	10df0000 	addk	r6, r31, r0
    2fc8:	b9f47c44 	brlid	r15, 31812	// ac0c <__sprint_r>
    2fcc:	30e104b4 	addik	r7, r1, 1204
    2fd0:	be23ef10 	bneid	r3, -4336		// 1ee0
    2fd4:	31610024 	addik	r11, r1, 36
    2fd8:	e88104bc 	lwi	r4, r1, 1212
    2fdc:	b810ffb8 	brid	-72		// 2f94
    2fe0:	ea6104b8 	lwi	r19, r1, 1208
    2fe4:	f8610500 	swi	r3, r1, 1280
    2fe8:	b810ebf4 	brid	-5132		// 1bdc
    2fec:	332104b4 	addik	r25, r1, 1204
    2ff0:	eb810514 	lwi	r28, r1, 1300
    2ff4:	333cffff 	addik	r25, r28, -1
    2ff8:	be79fc74 	bleid	r25, -908		// 2c6c
    2ffc:	33600010 	addik	r27, r0, 16	// 10 <_.d1>
    3000:	1479d801 	cmp	r3, r25, r27
    3004:	b0000001 	imm	1
    3008:	33802bfc 	addik	r28, r0, 11260	// 12bfc <zeroes.4014>
    300c:	bea302e0 	bgeid	r3, 736		// 32ec
    3010:	33a00007 	addik	r29, r0, 7
    3014:	b8100018 	brid	24		// 302c
    3018:	ebc1050c 	lwi	r30, r1, 1292
    301c:	33180008 	addik	r24, r24, 8
    3020:	3339fff0 	addik	r25, r25, -16
    3024:	1479d801 	cmp	r3, r25, r27
    3028:	bca302c4 	bgei	r3, 708		// 32ec
    302c:	fb980000 	swi	r28, r24, 0
    3030:	fb780004 	swi	r27, r24, 4
    3034:	32730001 	addik	r19, r19, 1
    3038:	30840010 	addik	r4, r4, 16
    303c:	f88104bc 	swi	r4, r1, 1212
    3040:	1473e801 	cmp	r3, r19, r29
    3044:	bea3ffd8 	bgeid	r3, -40		// 301c
    3048:	fa6104b8 	swi	r19, r1, 1208
    304c:	10be0000 	addk	r5, r30, r0
    3050:	10df0000 	addk	r6, r31, r0
    3054:	b9f47bb8 	brlid	r15, 31672	// ac0c <__sprint_r>
    3058:	30e104b4 	addik	r7, r1, 1204
    305c:	be23ee84 	bneid	r3, -4476		// 1ee0
    3060:	33010024 	addik	r24, r1, 36
    3064:	e88104bc 	lwi	r4, r1, 1212
    3068:	b810ffb8 	brid	-72		// 3020
    306c:	ea6104b8 	lwi	r19, r1, 1208
    3070:	8376b800 	or	r27, r22, r23
    3074:	be1beabc 	beqid	r27, -5444		// 1b30
    3078:	30600002 	addik	r3, r0, 2
    307c:	eb8104e8 	lwi	r28, r1, 1256
    3080:	30600030 	addik	r3, r0, 48
    3084:	f06104dc 	sbi	r3, r1, 1244
    3088:	a39c0002 	ori	r28, r28, 2
    308c:	f30104dd 	sbi	r24, r1, 1245
    3090:	fb8104e8 	swi	r28, r1, 1256
    3094:	33600001 	addik	r27, r0, 1
    3098:	30600002 	addik	r3, r0, 2
    309c:	b810ea98 	brid	-5480		// 1b34
    30a0:	f00104de 	sbi	r0, r1, 1246
    30a4:	fb8b0000 	swi	r28, r11, 0
    30a8:	fb0b0004 	swi	r24, r11, 4
    30ac:	32730001 	addik	r19, r19, 1
    30b0:	b810f748 	brid	-2232		// 27f8
    30b4:	1084c000 	addk	r4, r4, r24
    30b8:	b810e840 	brid	-6080		// 18f8
    30bc:	ebf90008 	lwi	r31, r25, 8
    30c0:	e8a1050c 	lwi	r5, r1, 1292
    30c4:	10df0000 	addk	r6, r31, r0
    30c8:	b9f47b44 	brlid	r15, 31556	// ac0c <__sprint_r>
    30cc:	30e104b4 	addik	r7, r1, 1204
    30d0:	be23ee10 	bneid	r3, -4592		// 1ee0
    30d4:	e88104bc 	lwi	r4, r1, 1212
    30d8:	31610024 	addik	r11, r1, 36
    30dc:	e86104d8 	lwi	r3, r1, 1240
    30e0:	eb810514 	lwi	r28, r1, 1300
    30e4:	e9210520 	lwi	r9, r1, 1312
    30e8:	14bc1801 	cmp	r5, r28, r3
    30ec:	be450018 	bltid	r5, 24		// 3104
    30f0:	13394800 	addk	r25, r25, r9
    30f4:	eba104e8 	lwi	r29, r1, 1256
    30f8:	a4bd0001 	andi	r5, r29, 1
    30fc:	be050040 	beqid	r5, 64		// 313c
    3100:	e9210514 	lwi	r9, r1, 1300
    3104:	ea6104b8 	lwi	r19, r1, 1208
    3108:	eba10524 	lwi	r29, r1, 1316
    310c:	eb81051c 	lwi	r28, r1, 1308
    3110:	32730001 	addik	r19, r19, 1
    3114:	fbab0004 	swi	r29, r11, 4
    3118:	fb8b0000 	swi	r28, r11, 0
    311c:	1084e800 	addk	r4, r4, r29
    3120:	30a00007 	addik	r5, r0, 7
    3124:	fa6104b8 	swi	r19, r1, 1208
    3128:	16732801 	cmp	r19, r19, r5
    312c:	be530c30 	bltid	r19, 3120		// 3d5c
    3130:	f88104bc 	swi	r4, r1, 1212
    3134:	316b0008 	addik	r11, r11, 8
    3138:	e9210514 	lwi	r9, r1, 1300
    313c:	17d9f000 	rsubk	r30, r25, r30
    3140:	14634800 	rsubk	r3, r3, r9
    3144:	14a3f001 	cmp	r5, r3, r30
    3148:	be450a68 	bltid	r5, 2664		// 3bb0
    314c:	13630000 	addk	r27, r3, r0
    3150:	be7b0030 	bleid	r27, 48		// 3180
    3154:	ea6104b8 	lwi	r19, r1, 1208
    3158:	1084d800 	addk	r4, r4, r27
    315c:	fb2b0000 	swi	r25, r11, 0
    3160:	fb6b0004 	swi	r27, r11, 4
    3164:	32730001 	addik	r19, r19, 1
    3168:	30a00007 	addik	r5, r0, 7
    316c:	fa6104b8 	swi	r19, r1, 1208
    3170:	16732801 	cmp	r19, r19, r5
    3174:	be530c0c 	bltid	r19, 3084		// 3d80
    3178:	f88104bc 	swi	r4, r1, 1212
    317c:	316b0008 	addik	r11, r11, 8
    3180:	a8bbffff 	xori	r5, r27, -1
    3184:	13002800 	addk	r24, r0, r5
    3188:	93050001 	sra	r24, r5
    318c:	93180001 	sra	r24, r24
    3190:	93180001 	sra	r24, r24
    3194:	93180001 	sra	r24, r24
    3198:	93180001 	sra	r24, r24
    319c:	93180001 	sra	r24, r24
    31a0:	93180001 	sra	r24, r24
    31a4:	93180001 	sra	r24, r24
    31a8:	93180001 	sra	r24, r24
    31ac:	93180001 	sra	r24, r24
    31b0:	93180001 	sra	r24, r24
    31b4:	93180001 	sra	r24, r24
    31b8:	93180001 	sra	r24, r24
    31bc:	93180001 	sra	r24, r24
    31c0:	93180001 	sra	r24, r24
    31c4:	93180001 	sra	r24, r24
    31c8:	93180001 	sra	r24, r24
    31cc:	93180001 	sra	r24, r24
    31d0:	93180001 	sra	r24, r24
    31d4:	93180001 	sra	r24, r24
    31d8:	93180001 	sra	r24, r24
    31dc:	93180001 	sra	r24, r24
    31e0:	93180001 	sra	r24, r24
    31e4:	93180001 	sra	r24, r24
    31e8:	93180001 	sra	r24, r24
    31ec:	93180001 	sra	r24, r24
    31f0:	93180001 	sra	r24, r24
    31f4:	93180001 	sra	r24, r24
    31f8:	93180001 	sra	r24, r24
    31fc:	93180001 	sra	r24, r24
    3200:	93180001 	sra	r24, r24
    3204:	871bc000 	and	r24, r27, r24
    3208:	17181800 	rsubk	r24, r24, r3
    320c:	be78f604 	bleid	r24, -2556		// 2810
    3210:	33200010 	addik	r25, r0, 16	// 10 <_.d1>
    3214:	1478c801 	cmp	r3, r24, r25
    3218:	b0000001 	imm	1
    321c:	33802bfc 	addik	r28, r0, 11260	// 12bfc <zeroes.4014>
    3220:	bea3fe84 	bgeid	r3, -380		// 30a4
    3224:	ea6104b8 	lwi	r19, r1, 1208
    3228:	33600007 	addik	r27, r0, 7
    322c:	b8100018 	brid	24		// 3244
    3230:	eba1050c 	lwi	r29, r1, 1292
    3234:	316b0008 	addik	r11, r11, 8
    3238:	3318fff0 	addik	r24, r24, -16
    323c:	1478c801 	cmp	r3, r24, r25
    3240:	bca3fe64 	bgei	r3, -412		// 30a4
    3244:	fb8b0000 	swi	r28, r11, 0
    3248:	fb2b0004 	swi	r25, r11, 4
    324c:	32730001 	addik	r19, r19, 1
    3250:	30840010 	addik	r4, r4, 16
    3254:	f88104bc 	swi	r4, r1, 1212
    3258:	1473d801 	cmp	r3, r19, r27
    325c:	bea3ffd8 	bgeid	r3, -40		// 3234
    3260:	fa6104b8 	swi	r19, r1, 1208
    3264:	10bd0000 	addk	r5, r29, r0
    3268:	10df0000 	addk	r6, r31, r0
    326c:	b9f479a0 	brlid	r15, 31136	// ac0c <__sprint_r>
    3270:	30e104b4 	addik	r7, r1, 1204
    3274:	be23ec6c 	bneid	r3, -5012		// 1ee0
    3278:	31610024 	addik	r11, r1, 36
    327c:	e88104bc 	lwi	r4, r1, 1212
    3280:	b810ffb8 	brid	-72		// 3238
    3284:	ea6104b8 	lwi	r19, r1, 1208
    3288:	b810e670 	brid	-6544		// 18f8
    328c:	ebf9000c 	lwi	r31, r25, 12
    3290:	eb8104e8 	lwi	r28, r1, 1256
    3294:	84bc1800 	and	r5, r28, r3
    3298:	bc25f918 	bnei	r5, -1768		// 2bb0
    329c:	f86b0004 	swi	r3, r11, 4
    32a0:	fb2b0000 	swi	r25, r11, 0
    32a4:	32730001 	addik	r19, r19, 1
    32a8:	30840001 	addik	r4, r4, 1
    32ac:	30600007 	addik	r3, r0, 7
    32b0:	f88104bc 	swi	r4, r1, 1212
    32b4:	14731801 	cmp	r3, r19, r3
    32b8:	be430010 	bltid	r3, 16		// 32c8
    32bc:	fa6104b8 	swi	r19, r1, 1208
    32c0:	b810f9ac 	brid	-1620		// 2c6c
    32c4:	330b0008 	addik	r24, r11, 8
    32c8:	e8a1050c 	lwi	r5, r1, 1292
    32cc:	10df0000 	addk	r6, r31, r0
    32d0:	b9f4793c 	brlid	r15, 31036	// ac0c <__sprint_r>
    32d4:	30e104b4 	addik	r7, r1, 1204
    32d8:	be23ec08 	bneid	r3, -5112		// 1ee0
    32dc:	33010024 	addik	r24, r1, 36
    32e0:	e88104bc 	lwi	r4, r1, 1212
    32e4:	b810f988 	brid	-1656		// 2c6c
    32e8:	ea6104b8 	lwi	r19, r1, 1208
    32ec:	fb980000 	swi	r28, r24, 0
    32f0:	fb380004 	swi	r25, r24, 4
    32f4:	32730001 	addik	r19, r19, 1
    32f8:	b810f95c 	brid	-1700		// 2c54
    32fc:	1084c800 	addk	r4, r4, r25
    3300:	e8a1050c 	lwi	r5, r1, 1292
    3304:	10df0000 	addk	r6, r31, r0
    3308:	b9f47904 	brlid	r15, 30980	// ac0c <__sprint_r>
    330c:	30e104b4 	addik	r7, r1, 1204
    3310:	be23ebd0 	bneid	r3, -5168		// 1ee0
    3314:	33010024 	addik	r24, r1, 36
    3318:	e88104bc 	lwi	r4, r1, 1212
    331c:	b810f8f0 	brid	-1808		// 2c0c
    3320:	ea6104b8 	lwi	r19, r1, 1208
    3324:	e8a1050c 	lwi	r5, r1, 1292
    3328:	10df0000 	addk	r6, r31, r0
    332c:	b9f478e0 	brlid	r15, 30944	// ac0c <__sprint_r>
    3330:	30e104b4 	addik	r7, r1, 1204
    3334:	be23ebac 	bneid	r3, -5204		// 1ee0
    3338:	31610024 	addik	r11, r1, 36
    333c:	e88104bc 	lwi	r4, r1, 1212
    3340:	b810f89c 	brid	-1892		// 2bdc
    3344:	ea6104b8 	lwi	r19, r1, 1208
    3348:	e8a1050c 	lwi	r5, r1, 1292
    334c:	10df0000 	addk	r6, r31, r0
    3350:	b9f478bc 	brlid	r15, 30908	// ac0c <__sprint_r>
    3354:	30e104b4 	addik	r7, r1, 1204
    3358:	be23eb88 	bneid	r3, -5240		// 1ee0
    335c:	31610024 	addik	r11, r1, 36
    3360:	b810f388 	brid	-3192		// 26e8
    3364:	e88104bc 	lwi	r4, r1, 1212
    3368:	06f70000 	rsub	r23, r23, r0
    336c:	0ed60000 	rsubc	r22, r22, r0
    3370:	8076b800 	or	r3, r22, r23
    3374:	14830000 	rsubk	r4, r3, r0
    3378:	80641800 	or	r3, r4, r3
    337c:	3080002d 	addik	r4, r0, 45
    3380:	13601800 	addk	r27, r0, r3
    3384:	93630041 	srl	r27, r3
    3388:	937b0041 	srl	r27, r27
    338c:	937b0041 	srl	r27, r27
    3390:	937b0041 	srl	r27, r27
    3394:	937b0041 	srl	r27, r27
    3398:	937b0041 	srl	r27, r27
    339c:	937b0041 	srl	r27, r27
    33a0:	937b0041 	srl	r27, r27
    33a4:	937b0041 	srl	r27, r27
    33a8:	937b0041 	srl	r27, r27
    33ac:	937b0041 	srl	r27, r27
    33b0:	937b0041 	srl	r27, r27
    33b4:	937b0041 	srl	r27, r27
    33b8:	937b0041 	srl	r27, r27
    33bc:	937b0041 	srl	r27, r27
    33c0:	937b0041 	srl	r27, r27
    33c4:	937b0041 	srl	r27, r27
    33c8:	937b0041 	srl	r27, r27
    33cc:	937b0041 	srl	r27, r27
    33d0:	937b0041 	srl	r27, r27
    33d4:	937b0041 	srl	r27, r27
    33d8:	937b0041 	srl	r27, r27
    33dc:	937b0041 	srl	r27, r27
    33e0:	937b0041 	srl	r27, r27
    33e4:	937b0041 	srl	r27, r27
    33e8:	937b0041 	srl	r27, r27
    33ec:	937b0041 	srl	r27, r27
    33f0:	937b0041 	srl	r27, r27
    33f4:	937b0041 	srl	r27, r27
    33f8:	937b0041 	srl	r27, r27
    33fc:	937b0041 	srl	r27, r27
    3400:	f08104de 	sbi	r4, r1, 1246
    3404:	b810e730 	brid	-6352		// 1b34
    3408:	30600001 	addik	r3, r0, 1
    340c:	e31a0000 	lbui	r24, r26, 0
    3410:	b810e640 	brid	-6592		// 1a50
    3414:	93180060 	sext8	r24, r24
    3418:	10db0000 	addk	r6, r27, r0
    341c:	10b30000 	addk	r5, r19, r0
    3420:	b9f47358 	brlid	r15, 29528	// a778 <__fpclassifyd>
    3424:	f9610548 	swi	r11, r1, 1352
    3428:	be030728 	beqid	r3, 1832		// 3b50
    342c:	e9610548 	lwi	r11, r1, 1352
    3430:	a87effff 	xori	r3, r30, -1
    3434:	be030cc0 	beqid	r3, 3264		// 40f4
    3438:	a478ffdf 	andi	r3, r24, -33
    343c:	a8830047 	xori	r4, r3, 71
    3440:	be240014 	bneid	r4, 20		// 3454
    3444:	f8810500 	swi	r4, r1, 1280
    3448:	be3e0010 	bneid	r30, 16		// 3458
    344c:	eb8104e8 	lwi	r28, r1, 1256
    3450:	33c00001 	addik	r30, r0, 1
    3454:	eb8104e8 	lwi	r28, r1, 1256
    3458:	13a00000 	addk	r29, r0, r0
    345c:	fba10518 	swi	r29, r1, 1304
    3460:	a39c0100 	ori	r28, r28, 256
    3464:	be530c7c 	bltid	r19, 3196		// 40e0
    3468:	fb8104f4 	swi	r28, r1, 1268
    346c:	a8830046 	xori	r4, r3, 70
    3470:	14a40000 	rsubk	r5, r4, r0
    3474:	80852000 	or	r4, r5, r4
    3478:	a884ffff 	xori	r4, r4, -1
    347c:	11802000 	addk	r12, r0, r4
    3480:	91840041 	srl	r12, r4
    3484:	918c0041 	srl	r12, r12
    3488:	918c0041 	srl	r12, r12
    348c:	918c0041 	srl	r12, r12
    3490:	918c0041 	srl	r12, r12
    3494:	918c0041 	srl	r12, r12
    3498:	918c0041 	srl	r12, r12
    349c:	918c0041 	srl	r12, r12
    34a0:	918c0041 	srl	r12, r12
    34a4:	918c0041 	srl	r12, r12
    34a8:	918c0041 	srl	r12, r12
    34ac:	918c0041 	srl	r12, r12
    34b0:	918c0041 	srl	r12, r12
    34b4:	918c0041 	srl	r12, r12
    34b8:	918c0041 	srl	r12, r12
    34bc:	918c0041 	srl	r12, r12
    34c0:	918c0041 	srl	r12, r12
    34c4:	918c0041 	srl	r12, r12
    34c8:	918c0041 	srl	r12, r12
    34cc:	918c0041 	srl	r12, r12
    34d0:	918c0041 	srl	r12, r12
    34d4:	918c0041 	srl	r12, r12
    34d8:	918c0041 	srl	r12, r12
    34dc:	918c0041 	srl	r12, r12
    34e0:	918c0041 	srl	r12, r12
    34e4:	918c0041 	srl	r12, r12
    34e8:	918c0041 	srl	r12, r12
    34ec:	918c0041 	srl	r12, r12
    34f0:	918c0041 	srl	r12, r12
    34f4:	918c0041 	srl	r12, r12
    34f8:	918c0041 	srl	r12, r12
    34fc:	be2c0980 	bneid	r12, 2432		// 3e7c
    3500:	31000003 	addik	r8, r0, 3
    3504:	a8630045 	xori	r3, r3, 69
    3508:	be230974 	bneid	r3, 2420		// 3e7c
    350c:	31000002 	addik	r8, r0, 2
    3510:	309e0001 	addik	r4, r30, 1
    3514:	11240000 	addk	r9, r4, r0
    3518:	306104d4 	addik	r3, r1, 1236
    351c:	10d30000 	addk	r6, r19, r0
    3520:	e8a1050c 	lwi	r5, r1, 1292
    3524:	10fb0000 	addk	r7, r27, r0
    3528:	f861001c 	swi	r3, r1, 28
    352c:	306104d0 	addik	r3, r1, 1232
    3530:	f8610020 	swi	r3, r1, 32
    3534:	314104d8 	addik	r10, r1, 1240
    3538:	f8810544 	swi	r4, r1, 1348
    353c:	b9f419cc 	brlid	r15, 6604	// 4f08 <_dtoa_r>
    3540:	f9610548 	swi	r11, r1, 1352
    3544:	e8810544 	lwi	r4, r1, 1348
    3548:	13230000 	addk	r25, r3, r0
    354c:	e9610548 	lwi	r11, r1, 1352
    3550:	10832000 	addk	r4, r3, r4
    3554:	fa6104ec 	swi	r19, r1, 1260
    3558:	fb6104f0 	swi	r27, r1, 1264
    355c:	eb8104ec 	lwi	r28, r1, 1260
    3560:	eba104f0 	lwi	r29, r1, 1264
    3564:	f8810544 	swi	r4, r1, 1348
    3568:	f9610548 	swi	r11, r1, 1352
    356c:	10bc0000 	addk	r5, r28, r0
    3570:	10e00000 	addk	r7, r0, r0
    3574:	11000000 	addk	r8, r0, r0
    3578:	b0000000 	imm	0
    357c:	b9f4dae0 	brlid	r15, -9504	// 1105c <__eqdf2>
    3580:	10dd0000 	addk	r6, r29, r0
    3584:	e8810544 	lwi	r4, r1, 1348
    3588:	be03003c 	beqid	r3, 60		// 35c4
    358c:	e9610548 	lwi	r11, r1, 1352
    3590:	e86104d0 	lwi	r3, r1, 1232
    3594:	14a41803 	cmpu	r5, r4, r3
    3598:	bea50fdc 	bgeid	r5, 4060		// 4574
    359c:	eba10518 	lwi	r29, r1, 1304
    35a0:	eb810500 	lwi	r28, r1, 1280
    35a4:	30a00030 	addik	r5, r0, 48
    35a8:	f0a30000 	sbi	r5, r3, 0
    35ac:	30630001 	addik	r3, r3, 1
    35b0:	88a32000 	xor	r5, r3, r4
    35b4:	be25fff0 	bneid	r5, -16		// 35a4
    35b8:	f86104d0 	swi	r3, r1, 1232
    35bc:	fba10518 	swi	r29, r1, 1304
    35c0:	fb810500 	swi	r28, r1, 1280
    35c4:	eb810500 	lwi	r28, r1, 1280
    35c8:	14992000 	rsubk	r4, r25, r4
    35cc:	be1c0980 	beqid	r28, 2432		// 3f4c
    35d0:	f8810514 	swi	r4, r1, 1300
    35d4:	30600065 	addik	r3, r0, 101
    35d8:	14781801 	cmp	r3, r24, r3
    35dc:	bea30fa0 	bgeid	r3, 4000		// 457c
    35e0:	a8780066 	xori	r3, r24, 102
    35e4:	be030bc8 	beqid	r3, 3016		// 41ac
    35e8:	e86104d8 	lwi	r3, r1, 1240
    35ec:	eba10514 	lwi	r29, r1, 1300
    35f0:	149d1801 	cmp	r4, r29, r3
    35f4:	be440b10 	bltid	r4, 2832		// 4104
    35f8:	eb8104e8 	lwi	r28, r1, 1256
    35fc:	a49c0001 	andi	r4, r28, 1
    3600:	be240c84 	bneid	r4, 3204		// 4284
    3604:	33a30001 	addik	r29, r3, 1
    3608:	a8a3ffff 	xori	r5, r3, -1
    360c:	10802800 	addk	r4, r0, r5
    3610:	90850001 	sra	r4, r5
    3614:	90840001 	sra	r4, r4
    3618:	90840001 	sra	r4, r4
    361c:	90840001 	sra	r4, r4
    3620:	90840001 	sra	r4, r4
    3624:	90840001 	sra	r4, r4
    3628:	90840001 	sra	r4, r4
    362c:	90840001 	sra	r4, r4
    3630:	90840001 	sra	r4, r4
    3634:	90840001 	sra	r4, r4
    3638:	90840001 	sra	r4, r4
    363c:	90840001 	sra	r4, r4
    3640:	90840001 	sra	r4, r4
    3644:	90840001 	sra	r4, r4
    3648:	90840001 	sra	r4, r4
    364c:	90840001 	sra	r4, r4
    3650:	90840001 	sra	r4, r4
    3654:	90840001 	sra	r4, r4
    3658:	90840001 	sra	r4, r4
    365c:	90840001 	sra	r4, r4
    3660:	90840001 	sra	r4, r4
    3664:	90840001 	sra	r4, r4
    3668:	90840001 	sra	r4, r4
    366c:	90840001 	sra	r4, r4
    3670:	90840001 	sra	r4, r4
    3674:	90840001 	sra	r4, r4
    3678:	90840001 	sra	r4, r4
    367c:	90840001 	sra	r4, r4
    3680:	90840001 	sra	r4, r4
    3684:	90840001 	sra	r4, r4
    3688:	90840001 	sra	r4, r4
    368c:	84832000 	and	r4, r3, r4
    3690:	f8610500 	swi	r3, r1, 1280
    3694:	f88104ec 	swi	r4, r1, 1260
    3698:	33000067 	addik	r24, r0, 103
    369c:	f8610520 	swi	r3, r1, 1312
    36a0:	eba10518 	lwi	r29, r1, 1304
    36a4:	be1d07c8 	beqid	r29, 1992		// 3e6c
    36a8:	eb8104f4 	lwi	r28, r1, 1268
    36ac:	e88104f4 	lwi	r4, r1, 1268
    36b0:	3060002d 	addik	r3, r0, 45
    36b4:	11000000 	addk	r8, r0, r0
    36b8:	f06104de 	sbi	r3, r1, 1246
    36bc:	f88104e8 	swi	r4, r1, 1256
    36c0:	b810e548 	brid	-6840		// 1c08
    36c4:	f9010518 	swi	r8, r1, 1304
    36c8:	ea7c0000 	lwi	r19, r28, 0
    36cc:	eb7c0004 	lwi	r27, r28, 4
    36d0:	339c0008 	addik	r28, r28, 8
    36d4:	b810ee44 	brid	-4540		// 2518
    36d8:	fb810588 	swi	r28, r1, 1416
    36dc:	be03044c 	beqid	r3, 1100		// 3b28
    36e0:	eb810588 	lwi	r28, r1, 1416
    36e4:	eadc0000 	lwi	r22, r28, 0
    36e8:	339c0004 	addik	r28, r28, 4
    36ec:	fb810588 	swi	r28, r1, 1416
    36f0:	92d60061 	sext16	r22, r22
    36f4:	12e0b000 	addk	r23, r0, r22
    36f8:	02d7b800 	add	r22, r23, r23
    36fc:	0ac00000 	addc	r22, r0, r0
    3700:	bc160008 	beqi	r22, 8		// 3708
    3704:	22c0ffff 	addi	r22, r0, -1
    3708:	b810e62c 	brid	-6612		// 1d34
    370c:	10760000 	addk	r3, r22, r0
    3710:	eb8104e8 	lwi	r28, r1, 1256
    3714:	a47c0040 	andi	r3, r28, 64
    3718:	bc0303f8 	beqi	r3, 1016		// 3b10
    371c:	12c40000 	addk	r22, r4, r0
    3720:	e6fd0002 	lhui	r23, r29, 2
    3724:	33bd0004 	addik	r29, r29, 4
    3728:	b810e8c0 	brid	-5952		// 1fe8
    372c:	fba10588 	swi	r29, r1, 1416
    3730:	eba104e8 	lwi	r29, r1, 1256
    3734:	a49d0040 	andi	r4, r29, 64
    3738:	bc0403c8 	beqi	r4, 968		// 3b00
    373c:	30600001 	addik	r3, r0, 1
    3740:	b8100088 	brid	136		// 37c8
    3744:	e6fc0002 	lhui	r23, r28, 2
    3748:	131c0000 	addk	r24, r28, r0
    374c:	13960000 	addk	r28, r22, r0
    3750:	eac10500 	lwi	r22, r1, 1280
    3754:	eae10504 	lwi	r23, r1, 1284
    3758:	fb8b0000 	swi	r28, r11, 0
    375c:	fb0b0004 	swi	r24, r11, 4
    3760:	32730001 	addik	r19, r19, 1
    3764:	1084c000 	addk	r4, r4, r24
    3768:	30600007 	addik	r3, r0, 7
    376c:	fa6104b8 	swi	r19, r1, 1208
    3770:	16731801 	cmp	r19, r19, r3
    3774:	be53f94c 	bltid	r19, -1716		// 30c0
    3778:	f88104bc 	swi	r4, r1, 1212
    377c:	b810f960 	brid	-1696		// 30dc
    3780:	316b0008 	addik	r11, r11, 8
    3784:	a47c0010 	andi	r3, r28, 16
    3788:	bc230360 	bnei	r3, 864		// 3ae8
    378c:	eba104e8 	lwi	r29, r1, 1256
    3790:	a47d0040 	andi	r3, r29, 64
    3794:	be0308e8 	beqid	r3, 2280		// 407c
    3798:	eb810588 	lwi	r28, r1, 1416
    379c:	e87c0000 	lwi	r3, r28, 0
    37a0:	eba10508 	lwi	r29, r1, 1288
    37a4:	339c0004 	addik	r28, r28, 4
    37a8:	fb810588 	swi	r28, r1, 1416
    37ac:	b810e1e0 	brid	-7712		// 198c
    37b0:	f7a30000 	shi	r29, r3, 0
    37b4:	a49d0040 	andi	r4, r29, 64
    37b8:	be040288 	beqid	r4, 648		// 3a40
    37bc:	eb810588 	lwi	r28, r1, 1416
    37c0:	10650000 	addk	r3, r5, r0
    37c4:	e6fc0002 	lhui	r23, r28, 2
    37c8:	14970000 	rsubk	r4, r23, r0
    37cc:	339c0004 	addik	r28, r28, 4
    37d0:	8084b800 	or	r4, r4, r23
    37d4:	fb810588 	swi	r28, r1, 1416
    37d8:	12c50000 	addk	r22, r5, r0
    37dc:	13602000 	addk	r27, r0, r4
    37e0:	93640041 	srl	r27, r4
    37e4:	937b0041 	srl	r27, r27
    37e8:	937b0041 	srl	r27, r27
    37ec:	937b0041 	srl	r27, r27
    37f0:	937b0041 	srl	r27, r27
    37f4:	937b0041 	srl	r27, r27
    37f8:	937b0041 	srl	r27, r27
    37fc:	937b0041 	srl	r27, r27
    3800:	937b0041 	srl	r27, r27
    3804:	937b0041 	srl	r27, r27
    3808:	937b0041 	srl	r27, r27
    380c:	937b0041 	srl	r27, r27
    3810:	937b0041 	srl	r27, r27
    3814:	937b0041 	srl	r27, r27
    3818:	937b0041 	srl	r27, r27
    381c:	937b0041 	srl	r27, r27
    3820:	937b0041 	srl	r27, r27
    3824:	937b0041 	srl	r27, r27
    3828:	937b0041 	srl	r27, r27
    382c:	937b0041 	srl	r27, r27
    3830:	937b0041 	srl	r27, r27
    3834:	937b0041 	srl	r27, r27
    3838:	937b0041 	srl	r27, r27
    383c:	937b0041 	srl	r27, r27
    3840:	937b0041 	srl	r27, r27
    3844:	937b0041 	srl	r27, r27
    3848:	937b0041 	srl	r27, r27
    384c:	937b0041 	srl	r27, r27
    3850:	937b0041 	srl	r27, r27
    3854:	937b0041 	srl	r27, r27
    3858:	937b0041 	srl	r27, r27
    385c:	b810e2d8 	brid	-7464		// 1b34
    3860:	f00104de 	sbi	r0, r1, 1246
    3864:	e8a1050c 	lwi	r5, r1, 1292
    3868:	10df0000 	addk	r6, r31, r0
    386c:	b9f473a0 	brlid	r15, 29600	// ac0c <__sprint_r>
    3870:	30e104b4 	addik	r7, r1, 1204
    3874:	be23e66c 	bneid	r3, -6548		// 1ee0
    3878:	31610024 	addik	r11, r1, 36
    387c:	b810f120 	brid	-3808		// 299c
    3880:	e88104bc 	lwi	r4, r1, 1212
    3884:	30600001 	addik	r3, r0, 1
    3888:	ea6104b8 	lwi	r19, r1, 1208
    388c:	f86b0004 	swi	r3, r11, 4
    3890:	b0000001 	imm	1
    3894:	30602a84 	addik	r3, r0, 10884
    3898:	32730001 	addik	r19, r19, 1
    389c:	30840001 	addik	r4, r4, 1
    38a0:	f86b0000 	swi	r3, r11, 0
    38a4:	30600007 	addik	r3, r0, 7
    38a8:	fa6104b8 	swi	r19, r1, 1208
    38ac:	16731801 	cmp	r19, r19, r3
    38b0:	be530308 	bltid	r19, 776		// 3bb8
    38b4:	f88104bc 	swi	r4, r1, 1212
    38b8:	316b0008 	addik	r11, r11, 8
    38bc:	be380028 	bneid	r24, 40		// 38e4
    38c0:	ea6104b8 	lwi	r19, r1, 1208
    38c4:	e9210514 	lwi	r9, r1, 1300
    38c8:	be290020 	bneid	r9, 32		// 38e8
    38cc:	eb810524 	lwi	r28, r1, 1316
    38d0:	eb8104e8 	lwi	r28, r1, 1256
    38d4:	a47c0001 	andi	r3, r28, 1
    38d8:	be03ef40 	beqid	r3, -4288		// 2818
    38dc:	a47c0004 	andi	r3, r28, 4
    38e0:	ea6104b8 	lwi	r19, r1, 1208
    38e4:	eb810524 	lwi	r28, r1, 1316
    38e8:	eba1051c 	lwi	r29, r1, 1308
    38ec:	32730001 	addik	r19, r19, 1
    38f0:	fb8b0004 	swi	r28, r11, 4
    38f4:	fbab0000 	swi	r29, r11, 0
    38f8:	1084e000 	addk	r4, r4, r28
    38fc:	30600007 	addik	r3, r0, 7
    3900:	f88104bc 	swi	r4, r1, 1212
    3904:	14731801 	cmp	r3, r19, r3
    3908:	be4307b0 	bltid	r3, 1968		// 40b8
    390c:	fa6104b8 	swi	r19, r1, 1208
    3910:	316b0008 	addik	r11, r11, 8
    3914:	17180000 	rsubk	r24, r24, r0
    3918:	be780324 	bleid	r24, 804		// 3c3c
    391c:	eba10514 	lwi	r29, r1, 1300
    3920:	33600010 	addik	r27, r0, 16	// 10 <_.d1>
    3924:	1478d801 	cmp	r3, r24, r27
    3928:	b0000001 	imm	1
    392c:	33802bfc 	addik	r28, r0, 11260	// 12bfc <zeroes.4014>
    3930:	bea30400 	bgeid	r3, 1024		// 3d30
    3934:	33a00007 	addik	r29, r0, 7
    3938:	b8100018 	brid	24		// 3950
    393c:	ebc1050c 	lwi	r30, r1, 1292
    3940:	316b0008 	addik	r11, r11, 8
    3944:	3318fff0 	addik	r24, r24, -16
    3948:	1478d801 	cmp	r3, r24, r27
    394c:	bca303e4 	bgei	r3, 996		// 3d30
    3950:	fb8b0000 	swi	r28, r11, 0
    3954:	fb6b0004 	swi	r27, r11, 4
    3958:	32730001 	addik	r19, r19, 1
    395c:	30840010 	addik	r4, r4, 16
    3960:	f88104bc 	swi	r4, r1, 1212
    3964:	1473e801 	cmp	r3, r19, r29
    3968:	bea3ffd8 	bgeid	r3, -40		// 3940
    396c:	fa6104b8 	swi	r19, r1, 1208
    3970:	10be0000 	addk	r5, r30, r0
    3974:	10df0000 	addk	r6, r31, r0
    3978:	b9f47294 	brlid	r15, 29332	// ac0c <__sprint_r>
    397c:	30e104b4 	addik	r7, r1, 1204
    3980:	be23e560 	bneid	r3, -6816		// 1ee0
    3984:	31610024 	addik	r11, r1, 36
    3988:	e88104bc 	lwi	r4, r1, 1212
    398c:	b810ffb8 	brid	-72		// 3944
    3990:	ea6104b8 	lwi	r19, r1, 1208
    3994:	eba10500 	lwi	r29, r1, 1280
    3998:	f8810518 	swi	r4, r1, 1304
    399c:	a87dffff 	xori	r3, r29, -1
    39a0:	10801800 	addk	r4, r0, r3
    39a4:	90830001 	sra	r4, r3
    39a8:	90840001 	sra	r4, r4
    39ac:	90840001 	sra	r4, r4
    39b0:	90840001 	sra	r4, r4
    39b4:	90840001 	sra	r4, r4
    39b8:	90840001 	sra	r4, r4
    39bc:	90840001 	sra	r4, r4
    39c0:	90840001 	sra	r4, r4
    39c4:	90840001 	sra	r4, r4
    39c8:	90840001 	sra	r4, r4
    39cc:	90840001 	sra	r4, r4
    39d0:	90840001 	sra	r4, r4
    39d4:	90840001 	sra	r4, r4
    39d8:	90840001 	sra	r4, r4
    39dc:	90840001 	sra	r4, r4
    39e0:	90840001 	sra	r4, r4
    39e4:	90840001 	sra	r4, r4
    39e8:	90840001 	sra	r4, r4
    39ec:	90840001 	sra	r4, r4
    39f0:	90840001 	sra	r4, r4
    39f4:	90840001 	sra	r4, r4
    39f8:	90840001 	sra	r4, r4
    39fc:	90840001 	sra	r4, r4
    3a00:	90840001 	sra	r4, r4
    3a04:	90840001 	sra	r4, r4
    3a08:	90840001 	sra	r4, r4
    3a0c:	90840001 	sra	r4, r4
    3a10:	90840001 	sra	r4, r4
    3a14:	90840001 	sra	r4, r4
    3a18:	90840001 	sra	r4, r4
    3a1c:	90840001 	sra	r4, r4
    3a20:	e9010518 	lwi	r8, r1, 1304
    3a24:	e06104de 	lbui	r3, r1, 1246
    3a28:	849d2000 	and	r4, r29, r4
    3a2c:	f88104ec 	swi	r4, r1, 1260
    3a30:	90630060 	sext8	r3, r3
    3a34:	fa610588 	swi	r19, r1, 1416
    3a38:	b810e1c8 	brid	-7736		// 1c00
    3a3c:	f9010520 	swi	r8, r1, 1312
    3a40:	eba10588 	lwi	r29, r1, 1416
    3a44:	10640000 	addk	r3, r4, r0
    3a48:	eafd0000 	lwi	r23, r29, 0
    3a4c:	12c40000 	addk	r22, r4, r0
    3a50:	14970000 	rsubk	r4, r23, r0
    3a54:	33bd0004 	addik	r29, r29, 4
    3a58:	8084b800 	or	r4, r4, r23
    3a5c:	fba10588 	swi	r29, r1, 1416
    3a60:	13602000 	addk	r27, r0, r4
    3a64:	93640041 	srl	r27, r4
    3a68:	937b0041 	srl	r27, r27
    3a6c:	937b0041 	srl	r27, r27
    3a70:	937b0041 	srl	r27, r27
    3a74:	937b0041 	srl	r27, r27
    3a78:	937b0041 	srl	r27, r27
    3a7c:	937b0041 	srl	r27, r27
    3a80:	937b0041 	srl	r27, r27
    3a84:	937b0041 	srl	r27, r27
    3a88:	937b0041 	srl	r27, r27
    3a8c:	937b0041 	srl	r27, r27
    3a90:	937b0041 	srl	r27, r27
    3a94:	937b0041 	srl	r27, r27
    3a98:	937b0041 	srl	r27, r27
    3a9c:	937b0041 	srl	r27, r27
    3aa0:	937b0041 	srl	r27, r27
    3aa4:	937b0041 	srl	r27, r27
    3aa8:	937b0041 	srl	r27, r27
    3aac:	937b0041 	srl	r27, r27
    3ab0:	937b0041 	srl	r27, r27
    3ab4:	937b0041 	srl	r27, r27
    3ab8:	937b0041 	srl	r27, r27
    3abc:	937b0041 	srl	r27, r27
    3ac0:	937b0041 	srl	r27, r27
    3ac4:	937b0041 	srl	r27, r27
    3ac8:	937b0041 	srl	r27, r27
    3acc:	937b0041 	srl	r27, r27
    3ad0:	937b0041 	srl	r27, r27
    3ad4:	937b0041 	srl	r27, r27
    3ad8:	937b0041 	srl	r27, r27
    3adc:	937b0041 	srl	r27, r27
    3ae0:	b810e054 	brid	-8108		// 1b34
    3ae4:	f00104de 	sbi	r0, r1, 1246
    3ae8:	eb810508 	lwi	r28, r1, 1288
    3aec:	e87d0000 	lwi	r3, r29, 0
    3af0:	33bd0004 	addik	r29, r29, 4
    3af4:	fba10588 	swi	r29, r1, 1416
    3af8:	b810de94 	brid	-8556		// 198c
    3afc:	fb830000 	swi	r28, r3, 0
    3b00:	eba10588 	lwi	r29, r1, 1416
    3b04:	30600001 	addik	r3, r0, 1
    3b08:	b810ff44 	brid	-188		// 3a4c
    3b0c:	eafd0000 	lwi	r23, r29, 0
    3b10:	eb810588 	lwi	r28, r1, 1416
    3b14:	12c30000 	addk	r22, r3, r0
    3b18:	eafc0000 	lwi	r23, r28, 0
    3b1c:	339c0004 	addik	r28, r28, 4
    3b20:	b810e4c8 	brid	-6968		// 1fe8
    3b24:	fb810588 	swi	r28, r1, 1416
    3b28:	eba10588 	lwi	r29, r1, 1416
    3b2c:	eafd0000 	lwi	r23, r29, 0
    3b30:	02d7b800 	add	r22, r23, r23
    3b34:	0ac00000 	addc	r22, r0, r0
    3b38:	bc160008 	beqi	r22, 8		// 3b40
    3b3c:	22c0ffff 	addi	r22, r0, -1
    3b40:	33bd0004 	addik	r29, r29, 4
    3b44:	10760000 	addk	r3, r22, r0
    3b48:	b810e1ec 	brid	-7700		// 1d34
    3b4c:	fba10588 	swi	r29, r1, 1416
    3b50:	30600047 	addik	r3, r0, 71
    3b54:	14781801 	cmp	r3, r24, r3
    3b58:	b0000001 	imm	1
    3b5c:	33202a50 	addik	r25, r0, 10832
    3b60:	be430010 	bltid	r3, 16		// 3b70
    3b64:	eb8104e8 	lwi	r28, r1, 1256
    3b68:	b0000001 	imm	1
    3b6c:	33202a4c 	addik	r25, r0, 10828
    3b70:	e06104de 	lbui	r3, r1, 1246
    3b74:	30800003 	addik	r4, r0, 3
    3b78:	11000000 	addk	r8, r0, r0
    3b7c:	a79cff7f 	andi	r28, r28, -129
    3b80:	f88104ec 	swi	r4, r1, 1260
    3b84:	f9010518 	swi	r8, r1, 1304
    3b88:	fb8104e8 	swi	r28, r1, 1256
    3b8c:	90630060 	sext8	r3, r3
    3b90:	f8810500 	swi	r4, r1, 1280
    3b94:	b810e06c 	brid	-8084		// 1c00
    3b98:	f9010520 	swi	r8, r1, 1312
    3b9c:	33c0ffff 	addik	r30, r0, -1
    3ba0:	b810e54c 	brid	-6836		// 20ec
    3ba4:	13440000 	addk	r26, r4, r0
    3ba8:	b810f2f0 	brid	-3344		// 2e98
    3bac:	131c0000 	addk	r24, r28, r0
    3bb0:	b810f5a0 	brid	-2656		// 3150
    3bb4:	137e0000 	addk	r27, r30, r0
    3bb8:	e8a1050c 	lwi	r5, r1, 1292
    3bbc:	10df0000 	addk	r6, r31, r0
    3bc0:	b9f4704c 	brlid	r15, 28748	// ac0c <__sprint_r>
    3bc4:	30e104b4 	addik	r7, r1, 1204
    3bc8:	be23e318 	bneid	r3, -7400		// 1ee0
    3bcc:	eb0104d8 	lwi	r24, r1, 1240
    3bd0:	31610024 	addik	r11, r1, 36
    3bd4:	b810fce8 	brid	-792		// 38bc
    3bd8:	e88104bc 	lwi	r4, r1, 1212
    3bdc:	eb8104e8 	lwi	r28, r1, 1256
    3be0:	e31a0001 	lbui	r24, r26, 1
    3be4:	335a0001 	addik	r26, r26, 1
    3be8:	a39c0020 	ori	r28, r28, 32
    3bec:	fb8104e8 	swi	r28, r1, 1256
    3bf0:	b810de60 	brid	-8608		// 1a50
    3bf4:	93180060 	sext8	r24, r24
    3bf8:	e8a1050c 	lwi	r5, r1, 1292
    3bfc:	10df0000 	addk	r6, r31, r0
    3c00:	b9f4700c 	brlid	r15, 28684	// ac0c <__sprint_r>
    3c04:	30e104b4 	addik	r7, r1, 1204
    3c08:	be23e2d8 	bneid	r3, -7464		// 1ee0
    3c0c:	31610024 	addik	r11, r1, 36
    3c10:	b810ede4 	brid	-4636		// 29f4
    3c14:	e88104bc 	lwi	r4, r1, 1212
    3c18:	e8a1050c 	lwi	r5, r1, 1292
    3c1c:	10df0000 	addk	r6, r31, r0
    3c20:	b9f46fec 	brlid	r15, 28652	// ac0c <__sprint_r>
    3c24:	30e104b4 	addik	r7, r1, 1204
    3c28:	be23e2b8 	bneid	r3, -7496		// 1ee0
    3c2c:	e88104bc 	lwi	r4, r1, 1212
    3c30:	ea6104b8 	lwi	r19, r1, 1208
    3c34:	31610024 	addik	r11, r1, 36
    3c38:	eba10514 	lwi	r29, r1, 1300
    3c3c:	fb2b0000 	swi	r25, r11, 0
    3c40:	32730001 	addik	r19, r19, 1
    3c44:	fbab0004 	swi	r29, r11, 4
    3c48:	b810ebb0 	brid	-5200		// 27f8
    3c4c:	1084e800 	addk	r4, r4, r29
    3c50:	11200000 	addk	r9, r0, r0
    3c54:	f9610548 	swi	r11, r1, 1352
    3c58:	f9210518 	swi	r9, r1, 1304
    3c5c:	b9f46f50 	brlid	r15, 28496	// abac <strlen>
    3c60:	fa610588 	swi	r19, r1, 1416
    3c64:	f8610500 	swi	r3, r1, 1280
    3c68:	eba10500 	lwi	r29, r1, 1280
    3c6c:	a863ffff 	xori	r3, r3, -1
    3c70:	10801800 	addk	r4, r0, r3
    3c74:	90830001 	sra	r4, r3
    3c78:	90840001 	sra	r4, r4
    3c7c:	90840001 	sra	r4, r4
    3c80:	90840001 	sra	r4, r4
    3c84:	90840001 	sra	r4, r4
    3c88:	90840001 	sra	r4, r4
    3c8c:	90840001 	sra	r4, r4
    3c90:	90840001 	sra	r4, r4
    3c94:	90840001 	sra	r4, r4
    3c98:	90840001 	sra	r4, r4
    3c9c:	90840001 	sra	r4, r4
    3ca0:	90840001 	sra	r4, r4
    3ca4:	90840001 	sra	r4, r4
    3ca8:	90840001 	sra	r4, r4
    3cac:	90840001 	sra	r4, r4
    3cb0:	90840001 	sra	r4, r4
    3cb4:	90840001 	sra	r4, r4
    3cb8:	90840001 	sra	r4, r4
    3cbc:	90840001 	sra	r4, r4
    3cc0:	90840001 	sra	r4, r4
    3cc4:	90840001 	sra	r4, r4
    3cc8:	90840001 	sra	r4, r4
    3ccc:	90840001 	sra	r4, r4
    3cd0:	90840001 	sra	r4, r4
    3cd4:	90840001 	sra	r4, r4
    3cd8:	90840001 	sra	r4, r4
    3cdc:	90840001 	sra	r4, r4
    3ce0:	90840001 	sra	r4, r4
    3ce4:	90840001 	sra	r4, r4
    3ce8:	90840001 	sra	r4, r4
    3cec:	90840001 	sra	r4, r4
    3cf0:	eb810518 	lwi	r28, r1, 1304
    3cf4:	e06104de 	lbui	r3, r1, 1246
    3cf8:	849d2000 	and	r4, r29, r4
    3cfc:	fb810520 	swi	r28, r1, 1312
    3d00:	90630060 	sext8	r3, r3
    3d04:	f88104ec 	swi	r4, r1, 1260
    3d08:	b810def8 	brid	-8456		// 1c00
    3d0c:	e9610548 	lwi	r11, r1, 1352
    3d10:	e8a1050c 	lwi	r5, r1, 1292
    3d14:	10df0000 	addk	r6, r31, r0
    3d18:	b9f46ef4 	brlid	r15, 28404	// ac0c <__sprint_r>
    3d1c:	30e104b4 	addik	r7, r1, 1204
    3d20:	be23e1c0 	bneid	r3, -7744		// 1ee0
    3d24:	31610024 	addik	r11, r1, 36
    3d28:	b810f1a0 	brid	-3680		// 2ec8
    3d2c:	e88104bc 	lwi	r4, r1, 1212
    3d30:	fb8b0000 	swi	r28, r11, 0
    3d34:	fb0b0004 	swi	r24, r11, 4
    3d38:	32730001 	addik	r19, r19, 1
    3d3c:	1084c000 	addk	r4, r4, r24
    3d40:	30600007 	addik	r3, r0, 7
    3d44:	f88104bc 	swi	r4, r1, 1212
    3d48:	14731801 	cmp	r3, r19, r3
    3d4c:	be43fecc 	bltid	r3, -308		// 3c18
    3d50:	fa6104b8 	swi	r19, r1, 1208
    3d54:	b810fee4 	brid	-284		// 3c38
    3d58:	316b0008 	addik	r11, r11, 8
    3d5c:	e8a1050c 	lwi	r5, r1, 1292
    3d60:	10df0000 	addk	r6, r31, r0
    3d64:	b9f46ea8 	brlid	r15, 28328	// ac0c <__sprint_r>
    3d68:	30e104b4 	addik	r7, r1, 1204
    3d6c:	be23e174 	bneid	r3, -7820		// 1ee0
    3d70:	e86104d8 	lwi	r3, r1, 1240
    3d74:	31610024 	addik	r11, r1, 36
    3d78:	b810f3c0 	brid	-3136		// 3138
    3d7c:	e88104bc 	lwi	r4, r1, 1212
    3d80:	e8a1050c 	lwi	r5, r1, 1292
    3d84:	10df0000 	addk	r6, r31, r0
    3d88:	b9f46e84 	brlid	r15, 28292	// ac0c <__sprint_r>
    3d8c:	30e104b4 	addik	r7, r1, 1204
    3d90:	be23e150 	bneid	r3, -7856		// 1ee0
    3d94:	e86104d8 	lwi	r3, r1, 1240
    3d98:	eb810514 	lwi	r28, r1, 1300
    3d9c:	31610024 	addik	r11, r1, 36
    3da0:	e88104bc 	lwi	r4, r1, 1212
    3da4:	b810f3dc 	brid	-3108		// 3180
    3da8:	1463e000 	rsubk	r3, r3, r28
    3dac:	30600006 	addik	r3, r0, 6
    3db0:	149e1803 	cmpu	r4, r30, r3
    3db4:	be440568 	bltid	r4, 1384		// 431c
    3db8:	fbc10500 	swi	r30, r1, 1280
    3dbc:	e9010500 	lwi	r8, r1, 1280
    3dc0:	a888ffff 	xori	r4, r8, -1
    3dc4:	10602000 	addk	r3, r0, r4
    3dc8:	90640001 	sra	r3, r4
    3dcc:	90630001 	sra	r3, r3
    3dd0:	90630001 	sra	r3, r3
    3dd4:	90630001 	sra	r3, r3
    3dd8:	90630001 	sra	r3, r3
    3ddc:	90630001 	sra	r3, r3
    3de0:	90630001 	sra	r3, r3
    3de4:	90630001 	sra	r3, r3
    3de8:	90630001 	sra	r3, r3
    3dec:	90630001 	sra	r3, r3
    3df0:	90630001 	sra	r3, r3
    3df4:	90630001 	sra	r3, r3
    3df8:	90630001 	sra	r3, r3
    3dfc:	90630001 	sra	r3, r3
    3e00:	90630001 	sra	r3, r3
    3e04:	90630001 	sra	r3, r3
    3e08:	90630001 	sra	r3, r3
    3e0c:	90630001 	sra	r3, r3
    3e10:	90630001 	sra	r3, r3
    3e14:	90630001 	sra	r3, r3
    3e18:	90630001 	sra	r3, r3
    3e1c:	90630001 	sra	r3, r3
    3e20:	90630001 	sra	r3, r3
    3e24:	90630001 	sra	r3, r3
    3e28:	90630001 	sra	r3, r3
    3e2c:	90630001 	sra	r3, r3
    3e30:	90630001 	sra	r3, r3
    3e34:	90630001 	sra	r3, r3
    3e38:	90630001 	sra	r3, r3
    3e3c:	90630001 	sra	r3, r3
    3e40:	90630001 	sra	r3, r3
    3e44:	84681800 	and	r3, r8, r3
    3e48:	f86104ec 	swi	r3, r1, 1260
    3e4c:	b0000001 	imm	1
    3e50:	33202a7c 	addik	r25, r0, 10876
    3e54:	b810e2f4 	brid	-7436		// 2148
    3e58:	fa610588 	swi	r19, r1, 1416
    3e5c:	30e0002d 	addik	r7, r0, 45
    3e60:	f0e104de 	sbi	r7, r1, 1246
    3e64:	b810e70c 	brid	-6388		// 2570
    3e68:	3060002d 	addik	r3, r0, 45
    3e6c:	e06104de 	lbui	r3, r1, 1246
    3e70:	fb8104e8 	swi	r28, r1, 1256
    3e74:	b810dd8c 	brid	-8820		// 1c00
    3e78:	90630060 	sext8	r3, r3
    3e7c:	306104d4 	addik	r3, r1, 1236
    3e80:	10d30000 	addk	r6, r19, r0
    3e84:	e8a1050c 	lwi	r5, r1, 1292
    3e88:	10fb0000 	addk	r7, r27, r0
    3e8c:	113e0000 	addk	r9, r30, r0
    3e90:	f861001c 	swi	r3, r1, 28
    3e94:	306104d0 	addik	r3, r1, 1232
    3e98:	f8610020 	swi	r3, r1, 32
    3e9c:	314104d8 	addik	r10, r1, 1240
    3ea0:	f9610548 	swi	r11, r1, 1352
    3ea4:	b9f41064 	brlid	r15, 4196	// 4f08 <_dtoa_r>
    3ea8:	f9810544 	swi	r12, r1, 1348
    3eac:	eb810500 	lwi	r28, r1, 1280
    3eb0:	13230000 	addk	r25, r3, r0
    3eb4:	e9610548 	lwi	r11, r1, 1352
    3eb8:	be3c0018 	bneid	r28, 24		// 3ed0
    3ebc:	e9810544 	lwi	r12, r1, 1348
    3ec0:	eba104e8 	lwi	r29, r1, 1256
    3ec4:	a47d0001 	andi	r3, r29, 1
    3ec8:	be03007c 	beqid	r3, 124		// 3f44
    3ecc:	e86104d0 	lwi	r3, r1, 1232
    3ed0:	be0cf684 	beqid	r12, -2428		// 3554
    3ed4:	1099f000 	addk	r4, r25, r30
    3ed8:	e0790000 	lbui	r3, r25, 0
    3edc:	90630060 	sext8	r3, r3
    3ee0:	a8630030 	xori	r3, r3, 48
    3ee4:	bc030010 	beqi	r3, 16		// 3ef4
    3ee8:	e86104d8 	lwi	r3, r1, 1240
    3eec:	b810f668 	brid	-2456		// 3554
    3ef0:	10841800 	addk	r4, r4, r3
    3ef4:	fa6104ec 	swi	r19, r1, 1260
    3ef8:	fb6104f0 	swi	r27, r1, 1264
    3efc:	eb8104ec 	lwi	r28, r1, 1260
    3f00:	eba104f0 	lwi	r29, r1, 1264
    3f04:	f8810544 	swi	r4, r1, 1348
    3f08:	f9610548 	swi	r11, r1, 1352
    3f0c:	10bc0000 	addk	r5, r28, r0
    3f10:	10e00000 	addk	r7, r0, r0
    3f14:	11000000 	addk	r8, r0, r0
    3f18:	b0000000 	imm	0
    3f1c:	b9f4d1b4 	brlid	r15, -11852	// 110d0 <__nedf2>
    3f20:	10dd0000 	addk	r6, r29, r0
    3f24:	e8810544 	lwi	r4, r1, 1348
    3f28:	be03ffc0 	beqid	r3, -64		// 3ee8
    3f2c:	e9610548 	lwi	r11, r1, 1352
    3f30:	33a00001 	addik	r29, r0, 1
    3f34:	147ee800 	rsubk	r3, r30, r29
    3f38:	f86104d8 	swi	r3, r1, 1240
    3f3c:	b810f618 	brid	-2536		// 3554
    3f40:	10841800 	addk	r4, r4, r3
    3f44:	14791800 	rsubk	r3, r25, r3
    3f48:	f8610514 	swi	r3, r1, 1300
    3f4c:	ea6104d8 	lwi	r19, r1, 1240
    3f50:	3080fffd 	addik	r4, r0, -3
    3f54:	14849801 	cmp	r4, r4, r19
    3f58:	be440014 	bltid	r4, 20		// 3f6c
    3f5c:	10730000 	addk	r3, r19, r0
    3f60:	17d3f001 	cmp	r30, r19, r30
    3f64:	bebef68c 	bgeid	r30, -2420		// 35f0
    3f68:	eba10514 	lwi	r29, r1, 1300
    3f6c:	3318fffe 	addik	r24, r24, -2
    3f70:	3273ffff 	addik	r19, r19, -1
    3f74:	fa6104d8 	swi	r19, r1, 1240
    3f78:	be530468 	bltid	r19, 1128		// 43e0
    3f7c:	f30104c8 	sbi	r24, r1, 1224
    3f80:	3060002b 	addik	r3, r0, 43
    3f84:	f06104c9 	sbi	r3, r1, 1225
    3f88:	30800009 	addik	r4, r0, 9
    3f8c:	14732001 	cmp	r3, r19, r4
    3f90:	be430244 	bltid	r3, 580		// 41d4
    3f94:	338104c7 	addik	r28, r1, 1223
    3f98:	32730030 	addik	r19, r19, 48
    3f9c:	30c00030 	addik	r6, r0, 48
    3fa0:	f0c104ca 	sbi	r6, r1, 1226
    3fa4:	f26104cb 	sbi	r19, r1, 1227
    3fa8:	308104cc 	addik	r4, r1, 1228
    3fac:	306104c8 	addik	r3, r1, 1224
    3fb0:	14632000 	rsubk	r3, r3, r4
    3fb4:	f8610530 	swi	r3, r1, 1328
    3fb8:	e9210514 	lwi	r9, r1, 1300
    3fbc:	eb810530 	lwi	r28, r1, 1328
    3fc0:	30600001 	addik	r3, r0, 1
    3fc4:	14691801 	cmp	r3, r9, r3
    3fc8:	1389e000 	addk	r28, r9, r28
    3fcc:	bea30460 	bgeid	r3, 1120		// 442c
    3fd0:	fb810500 	swi	r28, r1, 1280
    3fd4:	e8810500 	lwi	r4, r1, 1280
    3fd8:	11200000 	addk	r9, r0, r0
    3fdc:	f9210520 	swi	r9, r1, 1312
    3fe0:	30840001 	addik	r4, r4, 1
    3fe4:	f8810500 	swi	r4, r1, 1280
    3fe8:	eb810500 	lwi	r28, r1, 1280
    3fec:	a884ffff 	xori	r4, r4, -1
    3ff0:	10602000 	addk	r3, r0, r4
    3ff4:	90640001 	sra	r3, r4
    3ff8:	90630001 	sra	r3, r3
    3ffc:	90630001 	sra	r3, r3
    4000:	90630001 	sra	r3, r3
    4004:	90630001 	sra	r3, r3
    4008:	90630001 	sra	r3, r3
    400c:	90630001 	sra	r3, r3
    4010:	90630001 	sra	r3, r3
    4014:	90630001 	sra	r3, r3
    4018:	90630001 	sra	r3, r3
    401c:	90630001 	sra	r3, r3
    4020:	90630001 	sra	r3, r3
    4024:	90630001 	sra	r3, r3
    4028:	90630001 	sra	r3, r3
    402c:	90630001 	sra	r3, r3
    4030:	90630001 	sra	r3, r3
    4034:	90630001 	sra	r3, r3
    4038:	90630001 	sra	r3, r3
    403c:	90630001 	sra	r3, r3
    4040:	90630001 	sra	r3, r3
    4044:	90630001 	sra	r3, r3
    4048:	90630001 	sra	r3, r3
    404c:	90630001 	sra	r3, r3
    4050:	90630001 	sra	r3, r3
    4054:	90630001 	sra	r3, r3
    4058:	90630001 	sra	r3, r3
    405c:	90630001 	sra	r3, r3
    4060:	90630001 	sra	r3, r3
    4064:	90630001 	sra	r3, r3
    4068:	90630001 	sra	r3, r3
    406c:	90630001 	sra	r3, r3
    4070:	847c1800 	and	r3, r28, r3
    4074:	b810f62c 	brid	-2516		// 36a0
    4078:	f86104ec 	swi	r3, r1, 1260
    407c:	e87c0000 	lwi	r3, r28, 0
    4080:	eba10508 	lwi	r29, r1, 1288
    4084:	339c0004 	addik	r28, r28, 4
    4088:	fb810588 	swi	r28, r1, 1416
    408c:	b810d900 	brid	-9984		// 198c
    4090:	fba30000 	swi	r29, r3, 0
    4094:	f8610518 	swi	r3, r1, 1304
    4098:	e9210518 	lwi	r9, r1, 1304
    409c:	e06104de 	lbui	r3, r1, 1246
    40a0:	fbc104ec 	swi	r30, r1, 1260
    40a4:	fbc10500 	swi	r30, r1, 1280
    40a8:	90630060 	sext8	r3, r3
    40ac:	fa610588 	swi	r19, r1, 1416
    40b0:	b810db50 	brid	-9392		// 1c00
    40b4:	f9210520 	swi	r9, r1, 1312
    40b8:	e8a1050c 	lwi	r5, r1, 1292
    40bc:	10df0000 	addk	r6, r31, r0
    40c0:	b9f46b4c 	brlid	r15, 27468	// ac0c <__sprint_r>
    40c4:	30e104b4 	addik	r7, r1, 1204
    40c8:	be23de18 	bneid	r3, -8680		// 1ee0
    40cc:	eb0104d8 	lwi	r24, r1, 1240
    40d0:	31610024 	addik	r11, r1, 36
    40d4:	e88104bc 	lwi	r4, r1, 1212
    40d8:	b810f83c 	brid	-1988		// 3914
    40dc:	ea6104b8 	lwi	r19, r1, 1208
    40e0:	3080002d 	addik	r4, r0, 45
    40e4:	b0008000 	imm	-32768
    40e8:	32730000 	addik	r19, r19, 0
    40ec:	b810f380 	brid	-3200		// 346c
    40f0:	f8810518 	swi	r4, r1, 1304
    40f4:	aba30047 	xori	r29, r3, 71
    40f8:	33c00006 	addik	r30, r0, 6
    40fc:	b810f358 	brid	-3240		// 3454
    4100:	fba10500 	swi	r29, r1, 1280
    4104:	be63031c 	bleid	r3, 796		// 4420
    4108:	33600001 	addik	r27, r0, 1
    410c:	e9210514 	lwi	r9, r1, 1300
    4110:	33000067 	addik	r24, r0, 103
    4114:	137b4800 	addk	r27, r27, r9
    4118:	a8bbffff 	xori	r5, r27, -1
    411c:	10802800 	addk	r4, r0, r5
    4120:	90850001 	sra	r4, r5
    4124:	90840001 	sra	r4, r4
    4128:	90840001 	sra	r4, r4
    412c:	90840001 	sra	r4, r4
    4130:	90840001 	sra	r4, r4
    4134:	90840001 	sra	r4, r4
    4138:	90840001 	sra	r4, r4
    413c:	90840001 	sra	r4, r4
    4140:	90840001 	sra	r4, r4
    4144:	90840001 	sra	r4, r4
    4148:	90840001 	sra	r4, r4
    414c:	90840001 	sra	r4, r4
    4150:	90840001 	sra	r4, r4
    4154:	90840001 	sra	r4, r4
    4158:	90840001 	sra	r4, r4
    415c:	90840001 	sra	r4, r4
    4160:	90840001 	sra	r4, r4
    4164:	90840001 	sra	r4, r4
    4168:	90840001 	sra	r4, r4
    416c:	90840001 	sra	r4, r4
    4170:	90840001 	sra	r4, r4
    4174:	90840001 	sra	r4, r4
    4178:	90840001 	sra	r4, r4
    417c:	90840001 	sra	r4, r4
    4180:	90840001 	sra	r4, r4
    4184:	90840001 	sra	r4, r4
    4188:	90840001 	sra	r4, r4
    418c:	90840001 	sra	r4, r4
    4190:	90840001 	sra	r4, r4
    4194:	90840001 	sra	r4, r4
    4198:	90840001 	sra	r4, r4
    419c:	849b2000 	and	r4, r27, r4
    41a0:	fb610500 	swi	r27, r1, 1280
    41a4:	b810f4f8 	brid	-2824		// 369c
    41a8:	f88104ec 	swi	r4, r1, 1260
    41ac:	bc630214 	blei	r3, 532		// 43c0
    41b0:	be3e0178 	bneid	r30, 376		// 4328
    41b4:	337e0001 	addik	r27, r30, 1
    41b8:	eba104e8 	lwi	r29, r1, 1256
    41bc:	a49d0001 	andi	r4, r29, 1
    41c0:	be24016c 	bneid	r4, 364		// 432c
    41c4:	1363d800 	addk	r27, r3, r27
    41c8:	f86104ec 	swi	r3, r1, 1260
    41cc:	b810f4d0 	brid	-2864		// 369c
    41d0:	f8610500 	swi	r3, r1, 1280
    41d4:	137c0000 	addk	r27, r28, r0
    41d8:	13cb0000 	addk	r30, r11, r0
    41dc:	eba10518 	lwi	r29, r1, 1304
    41e0:	10b30000 	addk	r5, r19, r0
    41e4:	30c0000a 	addik	r6, r0, 10
    41e8:	b0000000 	imm	0
    41ec:	b9f4d714 	brlid	r15, -10476	// 11900 <__modsi3>
    41f0:	337bffff 	addik	r27, r27, -1
    41f4:	10b30000 	addk	r5, r19, r0
    41f8:	30630030 	addik	r3, r3, 48
    41fc:	30c0000a 	addik	r6, r0, 10
    4200:	b0000000 	imm	0
    4204:	b9f4d660 	brlid	r15, -10656	// 11864 <__divsi3>
    4208:	f07b0000 	sbi	r3, r27, 0
    420c:	30a00009 	addik	r5, r0, 9
    4210:	12630000 	addk	r19, r3, r0
    4214:	14632801 	cmp	r3, r3, r5
    4218:	be43ffcc 	bltid	r3, -52		// 41e4
    421c:	10b30000 	addk	r5, r19, r0
    4220:	30d30030 	addik	r6, r19, 48
    4224:	30bbffff 	addik	r5, r27, -1
    4228:	90c60060 	sext8	r6, r6
    422c:	fba10518 	swi	r29, r1, 1304
    4230:	f0dbffff 	sbi	r6, r27, -1
    4234:	179c2803 	cmpu	r28, r28, r5
    4238:	bebc0330 	bgeid	r28, 816		// 4568
    423c:	117e0000 	addk	r11, r30, r0
    4240:	30e104ca 	addik	r7, r1, 1226
    4244:	306104c8 	addik	r3, r1, 1224
    4248:	151b3800 	rsubk	r8, r27, r7
    424c:	10870000 	addk	r4, r7, r0
    4250:	b8100014 	brid	20		// 4264
    4254:	11034000 	addk	r8, r3, r8
    4258:	e0c50001 	lbui	r6, r5, 1
    425c:	30a50001 	addik	r5, r5, 1
    4260:	90c60060 	sext8	r6, r6
    4264:	f0c40000 	sbi	r6, r4, 0
    4268:	30840001 	addik	r4, r4, 1
    426c:	88c44000 	xor	r6, r4, r8
    4270:	bc26ffe8 	bnei	r6, -24		// 4258
    4274:	149b1800 	rsubk	r4, r27, r3
    4278:	fba10518 	swi	r29, r1, 1304
    427c:	b810fd34 	brid	-716		// 3fb0
    4280:	10872000 	addk	r4, r7, r4
    4284:	a8bdffff 	xori	r5, r29, -1
    4288:	10802800 	addk	r4, r0, r5
    428c:	90850001 	sra	r4, r5
    4290:	90840001 	sra	r4, r4
    4294:	90840001 	sra	r4, r4
    4298:	90840001 	sra	r4, r4
    429c:	90840001 	sra	r4, r4
    42a0:	90840001 	sra	r4, r4
    42a4:	90840001 	sra	r4, r4
    42a8:	90840001 	sra	r4, r4
    42ac:	90840001 	sra	r4, r4
    42b0:	90840001 	sra	r4, r4
    42b4:	90840001 	sra	r4, r4
    42b8:	90840001 	sra	r4, r4
    42bc:	90840001 	sra	r4, r4
    42c0:	90840001 	sra	r4, r4
    42c4:	90840001 	sra	r4, r4
    42c8:	90840001 	sra	r4, r4
    42cc:	90840001 	sra	r4, r4
    42d0:	90840001 	sra	r4, r4
    42d4:	90840001 	sra	r4, r4
    42d8:	90840001 	sra	r4, r4
    42dc:	90840001 	sra	r4, r4
    42e0:	90840001 	sra	r4, r4
    42e4:	90840001 	sra	r4, r4
    42e8:	90840001 	sra	r4, r4
    42ec:	90840001 	sra	r4, r4
    42f0:	90840001 	sra	r4, r4
    42f4:	90840001 	sra	r4, r4
    42f8:	90840001 	sra	r4, r4
    42fc:	90840001 	sra	r4, r4
    4300:	90840001 	sra	r4, r4
    4304:	90840001 	sra	r4, r4
    4308:	849d2000 	and	r4, r29, r4
    430c:	fba10500 	swi	r29, r1, 1280
    4310:	33000067 	addik	r24, r0, 103
    4314:	b810f388 	brid	-3192		// 369c
    4318:	f88104ec 	swi	r4, r1, 1260
    431c:	f8610500 	swi	r3, r1, 1280
    4320:	b810fb2c 	brid	-1236		// 3e4c
    4324:	f86104ec 	swi	r3, r1, 1260
    4328:	1363d800 	addk	r27, r3, r27
    432c:	a8bbffff 	xori	r5, r27, -1
    4330:	10802800 	addk	r4, r0, r5
    4334:	90850001 	sra	r4, r5
    4338:	90840001 	sra	r4, r4
    433c:	90840001 	sra	r4, r4
    4340:	90840001 	sra	r4, r4
    4344:	90840001 	sra	r4, r4
    4348:	90840001 	sra	r4, r4
    434c:	90840001 	sra	r4, r4
    4350:	90840001 	sra	r4, r4
    4354:	90840001 	sra	r4, r4
    4358:	90840001 	sra	r4, r4
    435c:	90840001 	sra	r4, r4
    4360:	90840001 	sra	r4, r4
    4364:	90840001 	sra	r4, r4
    4368:	90840001 	sra	r4, r4
    436c:	90840001 	sra	r4, r4
    4370:	90840001 	sra	r4, r4
    4374:	90840001 	sra	r4, r4
    4378:	90840001 	sra	r4, r4
    437c:	90840001 	sra	r4, r4
    4380:	90840001 	sra	r4, r4
    4384:	90840001 	sra	r4, r4
    4388:	90840001 	sra	r4, r4
    438c:	90840001 	sra	r4, r4
    4390:	90840001 	sra	r4, r4
    4394:	90840001 	sra	r4, r4
    4398:	90840001 	sra	r4, r4
    439c:	90840001 	sra	r4, r4
    43a0:	90840001 	sra	r4, r4
    43a4:	90840001 	sra	r4, r4
    43a8:	90840001 	sra	r4, r4
    43ac:	90840001 	sra	r4, r4
    43b0:	849b2000 	and	r4, r27, r4
    43b4:	fb610500 	swi	r27, r1, 1280
    43b8:	b810f2e4 	brid	-3356		// 369c
    43bc:	f88104ec 	swi	r4, r1, 1260
    43c0:	be3e0110 	bneid	r30, 272		// 44d0
    43c4:	eb8104e8 	lwi	r28, r1, 1256
    43c8:	a49c0001 	andi	r4, r28, 1
    43cc:	be240104 	bneid	r4, 260		// 44d0
    43d0:	33800001 	addik	r28, r0, 1
    43d4:	fb8104ec 	swi	r28, r1, 1260
    43d8:	b810f2c4 	brid	-3388		// 369c
    43dc:	fb810500 	swi	r28, r1, 1280
    43e0:	33a0002d 	addik	r29, r0, 45
    43e4:	16730000 	rsubk	r19, r19, r0
    43e8:	b810fba0 	brid	-1120		// 3f88
    43ec:	f3a104c9 	sbi	r29, r1, 1225
    43f0:	b810daac 	brid	-9556		// 1e9c
    43f4:	fb810508 	swi	r28, r1, 1288
    43f8:	eb810588 	lwi	r28, r1, 1416
    43fc:	e31a0001 	lbui	r24, r26, 1
    4400:	13440000 	addk	r26, r4, r0
    4404:	ebdc0000 	lwi	r30, r28, 0
    4408:	307c0004 	addik	r3, r28, 4
    440c:	f8610588 	swi	r3, r1, 1416
    4410:	bebed640 	bgeid	r30, -10688		// 1a50
    4414:	93180060 	sext8	r24, r24
    4418:	b810d638 	brid	-10696		// 1a50
    441c:	33c0ffff 	addik	r30, r0, -1
    4420:	30800002 	addik	r4, r0, 2
    4424:	b810fce8 	brid	-792		// 410c
    4428:	17632000 	rsubk	r27, r3, r4
    442c:	eba104e8 	lwi	r29, r1, 1256
    4430:	a47d0001 	andi	r3, r29, 1
    4434:	be23fba4 	bneid	r3, -1116		// 3fd8
    4438:	e8810500 	lwi	r4, r1, 1280
    443c:	a8bcffff 	xori	r5, r28, -1
    4440:	10802800 	addk	r4, r0, r5
    4444:	90850001 	sra	r4, r5
    4448:	90840001 	sra	r4, r4
    444c:	90840001 	sra	r4, r4
    4450:	90840001 	sra	r4, r4
    4454:	90840001 	sra	r4, r4
    4458:	90840001 	sra	r4, r4
    445c:	90840001 	sra	r4, r4
    4460:	90840001 	sra	r4, r4
    4464:	90840001 	sra	r4, r4
    4468:	90840001 	sra	r4, r4
    446c:	90840001 	sra	r4, r4
    4470:	90840001 	sra	r4, r4
    4474:	90840001 	sra	r4, r4
    4478:	90840001 	sra	r4, r4
    447c:	90840001 	sra	r4, r4
    4480:	90840001 	sra	r4, r4
    4484:	90840001 	sra	r4, r4
    4488:	90840001 	sra	r4, r4
    448c:	90840001 	sra	r4, r4
    4490:	90840001 	sra	r4, r4
    4494:	90840001 	sra	r4, r4
    4498:	90840001 	sra	r4, r4
    449c:	90840001 	sra	r4, r4
    44a0:	90840001 	sra	r4, r4
    44a4:	90840001 	sra	r4, r4
    44a8:	90840001 	sra	r4, r4
    44ac:	90840001 	sra	r4, r4
    44b0:	90840001 	sra	r4, r4
    44b4:	90840001 	sra	r4, r4
    44b8:	90840001 	sra	r4, r4
    44bc:	90840001 	sra	r4, r4
    44c0:	849c2000 	and	r4, r28, r4
    44c4:	f8610520 	swi	r3, r1, 1312
    44c8:	b810f1d8 	brid	-3624		// 36a0
    44cc:	f88104ec 	swi	r4, r1, 1260
    44d0:	33de0002 	addik	r30, r30, 2
    44d4:	a8beffff 	xori	r5, r30, -1
    44d8:	10802800 	addk	r4, r0, r5
    44dc:	90850001 	sra	r4, r5
    44e0:	90840001 	sra	r4, r4
    44e4:	90840001 	sra	r4, r4
    44e8:	90840001 	sra	r4, r4
    44ec:	90840001 	sra	r4, r4
    44f0:	90840001 	sra	r4, r4
    44f4:	90840001 	sra	r4, r4
    44f8:	90840001 	sra	r4, r4
    44fc:	90840001 	sra	r4, r4
    4500:	90840001 	sra	r4, r4
    4504:	90840001 	sra	r4, r4
    4508:	90840001 	sra	r4, r4
    450c:	90840001 	sra	r4, r4
    4510:	90840001 	sra	r4, r4
    4514:	90840001 	sra	r4, r4
    4518:	90840001 	sra	r4, r4
    451c:	90840001 	sra	r4, r4
    4520:	90840001 	sra	r4, r4
    4524:	90840001 	sra	r4, r4
    4528:	90840001 	sra	r4, r4
    452c:	90840001 	sra	r4, r4
    4530:	90840001 	sra	r4, r4
    4534:	90840001 	sra	r4, r4
    4538:	90840001 	sra	r4, r4
    453c:	90840001 	sra	r4, r4
    4540:	90840001 	sra	r4, r4
    4544:	90840001 	sra	r4, r4
    4548:	90840001 	sra	r4, r4
    454c:	90840001 	sra	r4, r4
    4550:	90840001 	sra	r4, r4
    4554:	90840001 	sra	r4, r4
    4558:	849e2000 	and	r4, r30, r4
    455c:	fbc10500 	swi	r30, r1, 1280
    4560:	b810f13c 	brid	-3780		// 369c
    4564:	f88104ec 	swi	r4, r1, 1260
    4568:	308104ca 	addik	r4, r1, 1226
    456c:	b810fa44 	brid	-1468		// 3fb0
    4570:	306104c8 	addik	r3, r1, 1224
    4574:	b810f050 	brid	-4016		// 35c4
    4578:	10830000 	addk	r4, r3, r0
    457c:	b810f9f4 	brid	-1548		// 3f70
    4580:	ea6104d8 	lwi	r19, r1, 1240

00004584 <vfprintf>:
    4584:	10850000 	addk	r4, r5, r0
    4588:	10660000 	addk	r3, r6, r0
    458c:	11070000 	addk	r8, r7, r0
    4590:	b0000001 	imm	1
    4594:	e8a0348c 	lwi	r5, r0, 13452	// 1348c <_impure_ptr>
    4598:	10c40000 	addk	r6, r4, r0
    459c:	3021ffe4 	addik	r1, r1, -28
    45a0:	f9e10000 	swi	r15, r1, 0
    45a4:	b9f4d2a8 	brlid	r15, -11608	// 184c <_vfprintf_r>
    45a8:	10e30000 	addk	r7, r3, r0
    45ac:	e9e10000 	lwi	r15, r1, 0
    45b0:	b60f0008 	rtsd	r15, 8
    45b4:	3021001c 	addik	r1, r1, 28

000045b8 <__swsetup_r>:
    45b8:	b0000001 	imm	1
    45bc:	e860348c 	lwi	r3, r0, 13452	// 1348c <_impure_ptr>
    45c0:	3021ffdc 	addik	r1, r1, -36
    45c4:	fa61001c 	swi	r19, r1, 28
    45c8:	fac10020 	swi	r22, r1, 32
    45cc:	f9e10000 	swi	r15, r1, 0
    45d0:	12c50000 	addk	r22, r5, r0
    45d4:	be030010 	beqid	r3, 16		// 45e4
    45d8:	12660000 	addk	r19, r6, r0
    45dc:	e8830018 	lwi	r4, r3, 24
    45e0:	bc04011c 	beqi	r4, 284		// 46fc
    45e4:	b0000001 	imm	1
    45e8:	30602c60 	addik	r3, r0, 11360	// 12c60 <__sf_fake_stdin>
    45ec:	88731800 	xor	r3, r19, r3
    45f0:	bc030124 	beqi	r3, 292		// 4714
    45f4:	b0000001 	imm	1
    45f8:	30602c40 	addik	r3, r0, 11328	// 12c40 <__sf_fake_stdout>
    45fc:	88731800 	xor	r3, r19, r3
    4600:	bc030160 	beqi	r3, 352		// 4760
    4604:	b0000001 	imm	1
    4608:	30602c20 	addik	r3, r0, 11296	// 12c20 <__sf_fake_stderr>
    460c:	88731800 	xor	r3, r19, r3
    4610:	bc030160 	beqi	r3, 352		// 4770
    4614:	e473000c 	lhui	r3, r19, 12
    4618:	90630061 	sext16	r3, r3
    461c:	a4830008 	andi	r4, r3, 8
    4620:	90840061 	sext16	r4, r4
    4624:	be040048 	beqid	r4, 72		// 466c
    4628:	a4830010 	andi	r4, r3, 16
    462c:	e8930010 	lwi	r4, r19, 16
    4630:	be040064 	beqid	r4, 100		// 4694
    4634:	a4a30280 	andi	r5, r3, 640
    4638:	a4a30001 	andi	r5, r3, 1
    463c:	bc05007c 	beqi	r5, 124		// 46b8
    4640:	e8730014 	lwi	r3, r19, 20
    4644:	f8130008 	swi	r0, r19, 8
    4648:	14630000 	rsubk	r3, r3, r0
    464c:	f8730018 	swi	r3, r19, 24
    4650:	be040084 	beqid	r4, 132		// 46d4
    4654:	10600000 	addk	r3, r0, r0
    4658:	e9e10000 	lwi	r15, r1, 0
    465c:	ea61001c 	lwi	r19, r1, 28
    4660:	eac10020 	lwi	r22, r1, 32
    4664:	b60f0008 	rtsd	r15, 8
    4668:	30210024 	addik	r1, r1, 36
    466c:	90840061 	sext16	r4, r4
    4670:	be040110 	beqid	r4, 272		// 4780
    4674:	a4830004 	andi	r4, r3, 4
    4678:	90840061 	sext16	r4, r4
    467c:	bc2400a8 	bnei	r4, 168		// 4724
    4680:	e8930010 	lwi	r4, r19, 16
    4684:	a0630008 	ori	r3, r3, 8
    4688:	be24ffb0 	bneid	r4, -80		// 4638
    468c:	f473000c 	shi	r3, r19, 12
    4690:	a4a30280 	andi	r5, r3, 640
    4694:	a8a50200 	xori	r5, r5, 512
    4698:	be05ffa0 	beqid	r5, -96		// 4638
    469c:	10b60000 	addk	r5, r22, r0
    46a0:	b9f43328 	brlid	r15, 13096	// 79c8 <__smakebuf_r>
    46a4:	10d30000 	addk	r6, r19, r0
    46a8:	e473000c 	lhui	r3, r19, 12
    46ac:	e8930010 	lwi	r4, r19, 16
    46b0:	b810ff88 	brid	-120		// 4638
    46b4:	90630061 	sext16	r3, r3
    46b8:	a4630002 	andi	r3, r3, 2
    46bc:	90630061 	sext16	r3, r3
    46c0:	bc230008 	bnei	r3, 8		// 46c8
    46c4:	e8b30014 	lwi	r5, r19, 20
    46c8:	f8b30008 	swi	r5, r19, 8
    46cc:	be24ff8c 	bneid	r4, -116		// 4658
    46d0:	10600000 	addk	r3, r0, r0
    46d4:	e493000c 	lhui	r4, r19, 12
    46d8:	90840061 	sext16	r4, r4
    46dc:	a4a40080 	andi	r5, r4, 128
    46e0:	90a50061 	sext16	r5, r5
    46e4:	be05ff78 	beqid	r5, -136		// 465c
    46e8:	e9e10000 	lwi	r15, r1, 0
    46ec:	a0840040 	ori	r4, r4, 64
    46f0:	f493000c 	shi	r4, r19, 12
    46f4:	b810ff64 	brid	-156		// 4658
    46f8:	3060ffff 	addik	r3, r0, -1
    46fc:	b9f42884 	brlid	r15, 10372	// 6f80 <__sinit>
    4700:	10a30000 	addk	r5, r3, r0
    4704:	b0000001 	imm	1
    4708:	30602c60 	addik	r3, r0, 11360	// 12c60 <__sf_fake_stdin>
    470c:	88731800 	xor	r3, r19, r3
    4710:	bc23fee4 	bnei	r3, -284		// 45f4
    4714:	b0000001 	imm	1
    4718:	e860348c 	lwi	r3, r0, 13452	// 1348c <_impure_ptr>
    471c:	b810fef8 	brid	-264		// 4614
    4720:	ea630004 	lwi	r19, r3, 4
    4724:	e8d30034 	lwi	r6, r19, 52
    4728:	bc060024 	beqi	r6, 36		// 474c
    472c:	30930044 	addik	r4, r19, 68
    4730:	88862000 	xor	r4, r6, r4
    4734:	bc040014 	beqi	r4, 20		// 4748
    4738:	b9f42bcc 	brlid	r15, 11212	// 7304 <_free_r>
    473c:	10b60000 	addk	r5, r22, r0
    4740:	e473000c 	lhui	r3, r19, 12
    4744:	90630061 	sext16	r3, r3
    4748:	f8130034 	swi	r0, r19, 52
    474c:	e8930010 	lwi	r4, r19, 16
    4750:	a463ffdb 	andi	r3, r3, -37
    4754:	f8130004 	swi	r0, r19, 4
    4758:	b810ff2c 	brid	-212		// 4684
    475c:	f8930000 	swi	r4, r19, 0
    4760:	b0000001 	imm	1
    4764:	e860348c 	lwi	r3, r0, 13452	// 1348c <_impure_ptr>
    4768:	b810feac 	brid	-340		// 4614
    476c:	ea630008 	lwi	r19, r3, 8
    4770:	b0000001 	imm	1
    4774:	e860348c 	lwi	r3, r0, 13452	// 1348c <_impure_ptr>
    4778:	b810fe9c 	brid	-356		// 4614
    477c:	ea63000c 	lwi	r19, r3, 12
    4780:	30800009 	addik	r4, r0, 9
    4784:	a0630040 	ori	r3, r3, 64
    4788:	f8960000 	swi	r4, r22, 0
    478c:	f473000c 	shi	r3, r19, 12
    4790:	b810fec8 	brid	-312		// 4658
    4794:	3060ffff 	addik	r3, r0, -1

00004798 <__call_exitprocs>:
    4798:	3021ffb8 	addik	r1, r1, -72
    479c:	b0000001 	imm	1
    47a0:	e8602a3c 	lwi	r3, r0, 10812	// 12a3c <_global_impure_ptr>
    47a4:	fb010028 	swi	r24, r1, 40
    47a8:	fb810038 	swi	r28, r1, 56
    47ac:	13060000 	addk	r24, r6, r0
    47b0:	13850000 	addk	r28, r5, r0
    47b4:	fb410030 	swi	r26, r1, 48
    47b8:	fba1003c 	swi	r29, r1, 60
    47bc:	f9e10000 	swi	r15, r1, 0
    47c0:	fa61001c 	swi	r19, r1, 28
    47c4:	fac10020 	swi	r22, r1, 32
    47c8:	fae10024 	swi	r23, r1, 36
    47cc:	fb21002c 	swi	r25, r1, 44
    47d0:	fb610034 	swi	r27, r1, 52
    47d4:	fbc10040 	swi	r30, r1, 64
    47d8:	fbe10044 	swi	r31, r1, 68
    47dc:	33a30048 	addik	r29, r3, 72
    47e0:	33400001 	addik	r26, r0, 1
    47e4:	b0000001 	imm	1
    47e8:	e8602a3c 	lwi	r3, r0, 10812	// 12a3c <_global_impure_ptr>
    47ec:	137d0000 	addk	r27, r29, r0
    47f0:	ebe30048 	lwi	r31, r3, 72
    47f4:	be1f0068 	beqid	r31, 104		// 485c
    47f8:	e9e10000 	lwi	r15, r1, 0
    47fc:	e87f0004 	lwi	r3, r31, 4
    4800:	3263ffff 	addik	r19, r3, -1
    4804:	be53004c 	bltid	r19, 76		// 4850
    4808:	eb3f0088 	lwi	r25, r31, 136
    480c:	30630001 	addik	r3, r3, 1
    4810:	12d39800 	addk	r22, r19, r19
    4814:	10631800 	addk	r3, r3, r3
    4818:	12d6b000 	addk	r22, r22, r22
    481c:	10631800 	addk	r3, r3, r3
    4820:	12d9b000 	addk	r22, r25, r22
    4824:	12ff1800 	addk	r23, r31, r3
    4828:	bc180068 	beqi	r24, 104		// 4890
    482c:	bc190010 	beqi	r25, 16		// 483c
    4830:	e8760080 	lwi	r3, r22, 128
    4834:	8863c000 	xor	r3, r3, r24
    4838:	bc030058 	beqi	r3, 88		// 4890
    483c:	3273ffff 	addik	r19, r19, -1
    4840:	a873ffff 	xori	r3, r19, -1
    4844:	32d6fffc 	addik	r22, r22, -4
    4848:	be23ffe0 	bneid	r3, -32		// 4828
    484c:	32f7fffc 	addik	r23, r23, -4
    4850:	30607c30 	addik	r3, r0, 31792	// 7c30 <free>
    4854:	be2300e8 	bneid	r3, 232		// 493c
    4858:	e9e10000 	lwi	r15, r1, 0
    485c:	ea61001c 	lwi	r19, r1, 28
    4860:	eac10020 	lwi	r22, r1, 32
    4864:	eae10024 	lwi	r23, r1, 36
    4868:	eb010028 	lwi	r24, r1, 40
    486c:	eb21002c 	lwi	r25, r1, 44
    4870:	eb410030 	lwi	r26, r1, 48
    4874:	eb610034 	lwi	r27, r1, 52
    4878:	eb810038 	lwi	r28, r1, 56
    487c:	eba1003c 	lwi	r29, r1, 60
    4880:	ebc10040 	lwi	r30, r1, 64
    4884:	ebe10044 	lwi	r31, r1, 68
    4888:	b60f0008 	rtsd	r15, 8
    488c:	30210048 	addik	r1, r1, 72
    4890:	e89f0004 	lwi	r4, r31, 4
    4894:	3084ffff 	addik	r4, r4, -1
    4898:	88a49800 	xor	r5, r4, r19
    489c:	be050088 	beqid	r5, 136		// 4924
    48a0:	e8770000 	lwi	r3, r23, 0
    48a4:	f8170000 	swi	r0, r23, 0
    48a8:	bc03ff94 	beqi	r3, -108		// 483c
    48ac:	be190068 	beqid	r25, 104		// 4914
    48b0:	ebdf0004 	lwi	r30, r31, 4
    48b4:	e8b90100 	lwi	r5, r25, 256
    48b8:	a653001f 	andi	r18, r19, 31
    48bc:	1080d000 	addk	r4, r0, r26
    48c0:	be120014 	beqid	r18, 20		// 48d4
    48c4:	10840000 	addk	r4, r4, r0
    48c8:	3252ffff 	addik	r18, r18, -1
    48cc:	be32fffc 	bneid	r18, -4		// 48c8
    48d0:	10842000 	addk	r4, r4, r4
    48d4:	84a42800 	and	r5, r4, r5
    48d8:	bc05003c 	beqi	r5, 60		// 4914
    48dc:	e8b90104 	lwi	r5, r25, 260
    48e0:	84842800 	and	r4, r4, r5
    48e4:	be240048 	bneid	r4, 72		// 492c
    48e8:	10bc0000 	addk	r5, r28, r0
    48ec:	99fc1800 	brald	r15, r3
    48f0:	e8d60000 	lwi	r6, r22, 0
    48f4:	e87f0004 	lwi	r3, r31, 4
    48f8:	8903f000 	xor	r8, r3, r30
    48fc:	bc28fee8 	bnei	r8, -280		// 47e4
    4900:	e87b0000 	lwi	r3, r27, 0
    4904:	8863f800 	xor	r3, r3, r31
    4908:	be03ff38 	beqid	r3, -200		// 4840
    490c:	3273ffff 	addik	r19, r19, -1
    4910:	b800fed4 	bri	-300		// 47e4
    4914:	99fc1800 	brald	r15, r3
    4918:	80000000 	or	r0, r0, r0
    491c:	b810ffdc 	brid	-36		// 48f8
    4920:	e87f0004 	lwi	r3, r31, 4
    4924:	b810ff84 	brid	-124		// 48a8
    4928:	f89f0004 	swi	r4, r31, 4
    492c:	99fc1800 	brald	r15, r3
    4930:	e8b60000 	lwi	r5, r22, 0
    4934:	b810ffc4 	brid	-60		// 48f8
    4938:	e87f0004 	lwi	r3, r31, 4
    493c:	e87f0004 	lwi	r3, r31, 4
    4940:	bc23002c 	bnei	r3, 44		// 496c
    4944:	e87f0000 	lwi	r3, r31, 0
    4948:	bc030028 	beqi	r3, 40		// 4970
    494c:	be190010 	beqid	r25, 16		// 495c
    4950:	f87b0000 	swi	r3, r27, 0
    4954:	b9f432dc 	brlid	r15, 13020	// 7c30 <free>
    4958:	10b90000 	addk	r5, r25, r0
    495c:	b9f432d4 	brlid	r15, 13012	// 7c30 <free>
    4960:	10bf0000 	addk	r5, r31, r0
    4964:	b810fe90 	brid	-368		// 47f4
    4968:	ebfb0000 	lwi	r31, r27, 0
    496c:	e87f0000 	lwi	r3, r31, 0
    4970:	137f0000 	addk	r27, r31, r0
    4974:	b810fe80 	brid	-384		// 47f4
    4978:	13e30000 	addk	r31, r3, r0

0000497c <quorem>:
    497c:	3021ffb4 	addik	r1, r1, -76
    4980:	fae10028 	swi	r23, r1, 40
    4984:	fba10040 	swi	r29, r1, 64
    4988:	fbc10044 	swi	r30, r1, 68
    498c:	f9e10000 	swi	r15, r1, 0
    4990:	fa610020 	swi	r19, r1, 32
    4994:	fac10024 	swi	r22, r1, 36
    4998:	fb01002c 	swi	r24, r1, 44
    499c:	fb210030 	swi	r25, r1, 48
    49a0:	fb410034 	swi	r26, r1, 52
    49a4:	fb610038 	swi	r27, r1, 56
    49a8:	fb81003c 	swi	r28, r1, 60
    49ac:	fbe10048 	swi	r31, r1, 72
    49b0:	e8650010 	lwi	r3, r5, 16
    49b4:	eb260010 	lwi	r25, r6, 16
    49b8:	12e50000 	addk	r23, r5, r0
    49bc:	13a60000 	addk	r29, r6, r0
    49c0:	14791801 	cmp	r3, r25, r3
    49c4:	be430508 	bltid	r3, 1288		// 4ecc
    49c8:	13c00000 	addk	r30, r0, r0
    49cc:	33190004 	addik	r24, r25, 4
    49d0:	1318c000 	addk	r24, r24, r24
    49d4:	1318c000 	addk	r24, r24, r24
    49d8:	c8d83000 	lw	r6, r24, r6
    49dc:	c8b82800 	lw	r5, r24, r5
    49e0:	3339ffff 	addik	r25, r25, -1
    49e4:	b0000000 	imm	0
    49e8:	b9f4d008 	brlid	r15, -12280	// 119f0 <__udivsi3>
    49ec:	30c60001 	addik	r6, r6, 1
    49f0:	131dc000 	addk	r24, r29, r24
    49f4:	12c30000 	addk	r22, r3, r0
    49f8:	327d0014 	addik	r19, r29, 20
    49fc:	be0302c0 	beqid	r3, 704		// 4cbc
    4a00:	33570014 	addik	r26, r23, 20
    4a04:	13930000 	addk	r28, r19, r0
    4a08:	137a0000 	addk	r27, r26, r0
    4a0c:	10fe0000 	addk	r7, r30, r0
    4a10:	ebfc0000 	lwi	r31, r28, 0
    4a14:	10d60000 	addk	r6, r22, r0
    4a18:	b0000000 	imm	0
    4a1c:	a4bfffff 	andi	r5, r31, -1
    4a20:	b0000000 	imm	0
    4a24:	b9f4cf74 	brlid	r15, -12428	// 11998 <__mulsi3>
    4a28:	f8e1001c 	swi	r7, r1, 28
    4a2c:	10d60000 	addk	r6, r22, r0
    4a30:	10a0f800 	addk	r5, r0, r31
    4a34:	90bf0041 	srl	r5, r31
    4a38:	90a50041 	srl	r5, r5
    4a3c:	90a50041 	srl	r5, r5
    4a40:	90a50041 	srl	r5, r5
    4a44:	90a50041 	srl	r5, r5
    4a48:	90a50041 	srl	r5, r5
    4a4c:	90a50041 	srl	r5, r5
    4a50:	90a50041 	srl	r5, r5
    4a54:	90a50041 	srl	r5, r5
    4a58:	90a50041 	srl	r5, r5
    4a5c:	90a50041 	srl	r5, r5
    4a60:	90a50041 	srl	r5, r5
    4a64:	90a50041 	srl	r5, r5
    4a68:	90a50041 	srl	r5, r5
    4a6c:	90a50041 	srl	r5, r5
    4a70:	90a50041 	srl	r5, r5
    4a74:	b0000000 	imm	0
    4a78:	b9f4cf20 	brlid	r15, -12512	// 11998 <__mulsi3>
    4a7c:	13de1800 	addk	r30, r30, r3
    4a80:	e8bb0000 	lwi	r5, r27, 0
    4a84:	e8e1001c 	lwi	r7, r1, 28
    4a88:	1080f000 	addk	r4, r0, r30
    4a8c:	909e0041 	srl	r4, r30
    4a90:	90840041 	srl	r4, r4
    4a94:	90840041 	srl	r4, r4
    4a98:	90840041 	srl	r4, r4
    4a9c:	90840041 	srl	r4, r4
    4aa0:	90840041 	srl	r4, r4
    4aa4:	90840041 	srl	r4, r4
    4aa8:	90840041 	srl	r4, r4
    4aac:	90840041 	srl	r4, r4
    4ab0:	90840041 	srl	r4, r4
    4ab4:	90840041 	srl	r4, r4
    4ab8:	90840041 	srl	r4, r4
    4abc:	90840041 	srl	r4, r4
    4ac0:	90840041 	srl	r4, r4
    4ac4:	90840041 	srl	r4, r4
    4ac8:	90840041 	srl	r4, r4
    4acc:	10641800 	addk	r3, r4, r3
    4ad0:	b0000000 	imm	0
    4ad4:	a485ffff 	andi	r4, r5, -1
    4ad8:	10e43800 	addk	r7, r4, r7
    4adc:	b0000000 	imm	0
    4ae0:	a7deffff 	andi	r30, r30, -1
    4ae4:	b0000000 	imm	0
    4ae8:	a483ffff 	andi	r4, r3, -1
    4aec:	17de3800 	rsubk	r30, r30, r7
    4af0:	10c02800 	addk	r6, r0, r5
    4af4:	90c50041 	srl	r6, r5
    4af8:	90c60041 	srl	r6, r6
    4afc:	90c60041 	srl	r6, r6
    4b00:	90c60041 	srl	r6, r6
    4b04:	90c60041 	srl	r6, r6
    4b08:	90c60041 	srl	r6, r6
    4b0c:	90c60041 	srl	r6, r6
    4b10:	90c60041 	srl	r6, r6
    4b14:	90c60041 	srl	r6, r6
    4b18:	90c60041 	srl	r6, r6
    4b1c:	90c60041 	srl	r6, r6
    4b20:	90c60041 	srl	r6, r6
    4b24:	90c60041 	srl	r6, r6
    4b28:	90c60041 	srl	r6, r6
    4b2c:	90c60041 	srl	r6, r6
    4b30:	90c60041 	srl	r6, r6
    4b34:	14843000 	rsubk	r4, r4, r6
    4b38:	10a0f000 	addk	r5, r0, r30
    4b3c:	90be0001 	sra	r5, r30
    4b40:	90a50001 	sra	r5, r5
    4b44:	90a50001 	sra	r5, r5
    4b48:	90a50001 	sra	r5, r5
    4b4c:	90a50001 	sra	r5, r5
    4b50:	90a50001 	sra	r5, r5
    4b54:	90a50001 	sra	r5, r5
    4b58:	90a50001 	sra	r5, r5
    4b5c:	90a50001 	sra	r5, r5
    4b60:	90a50001 	sra	r5, r5
    4b64:	90a50001 	sra	r5, r5
    4b68:	90a50001 	sra	r5, r5
    4b6c:	90a50001 	sra	r5, r5
    4b70:	90a50001 	sra	r5, r5
    4b74:	90a50001 	sra	r5, r5
    4b78:	90a50001 	sra	r5, r5
    4b7c:	10842800 	addk	r4, r4, r5
    4b80:	10a42000 	addk	r5, r4, r4
    4b84:	10a52800 	addk	r5, r5, r5
    4b88:	10a52800 	addk	r5, r5, r5
    4b8c:	10a52800 	addk	r5, r5, r5
    4b90:	10a52800 	addk	r5, r5, r5
    4b94:	10a52800 	addk	r5, r5, r5
    4b98:	10a52800 	addk	r5, r5, r5
    4b9c:	10a52800 	addk	r5, r5, r5
    4ba0:	10a52800 	addk	r5, r5, r5
    4ba4:	10a52800 	addk	r5, r5, r5
    4ba8:	10a52800 	addk	r5, r5, r5
    4bac:	10a52800 	addk	r5, r5, r5
    4bb0:	10a52800 	addk	r5, r5, r5
    4bb4:	10a52800 	addk	r5, r5, r5
    4bb8:	10a52800 	addk	r5, r5, r5
    4bbc:	b0000000 	imm	0
    4bc0:	a7deffff 	andi	r30, r30, -1
    4bc4:	10a52800 	addk	r5, r5, r5
    4bc8:	80a5f000 	or	r5, r5, r30
    4bcc:	339c0004 	addik	r28, r28, 4
    4bd0:	f8bb0000 	swi	r5, r27, 0
    4bd4:	14bcc003 	cmpu	r5, r28, r24
    4bd8:	13c01800 	addk	r30, r0, r3
    4bdc:	93c30041 	srl	r30, r3
    4be0:	93de0041 	srl	r30, r30
    4be4:	93de0041 	srl	r30, r30
    4be8:	93de0041 	srl	r30, r30
    4bec:	93de0041 	srl	r30, r30
    4bf0:	93de0041 	srl	r30, r30
    4bf4:	93de0041 	srl	r30, r30
    4bf8:	93de0041 	srl	r30, r30
    4bfc:	93de0041 	srl	r30, r30
    4c00:	93de0041 	srl	r30, r30
    4c04:	93de0041 	srl	r30, r30
    4c08:	93de0041 	srl	r30, r30
    4c0c:	93de0041 	srl	r30, r30
    4c10:	93de0041 	srl	r30, r30
    4c14:	93de0041 	srl	r30, r30
    4c18:	93de0041 	srl	r30, r30
    4c1c:	10e02000 	addk	r7, r0, r4
    4c20:	90e40001 	sra	r7, r4
    4c24:	90e70001 	sra	r7, r7
    4c28:	90e70001 	sra	r7, r7
    4c2c:	90e70001 	sra	r7, r7
    4c30:	90e70001 	sra	r7, r7
    4c34:	90e70001 	sra	r7, r7
    4c38:	90e70001 	sra	r7, r7
    4c3c:	90e70001 	sra	r7, r7
    4c40:	90e70001 	sra	r7, r7
    4c44:	90e70001 	sra	r7, r7
    4c48:	90e70001 	sra	r7, r7
    4c4c:	90e70001 	sra	r7, r7
    4c50:	90e70001 	sra	r7, r7
    4c54:	90e70001 	sra	r7, r7
    4c58:	90e70001 	sra	r7, r7
    4c5c:	90e70001 	sra	r7, r7
    4c60:	bea5fdb0 	bgeid	r5, -592		// 4a10
    4c64:	337b0004 	addik	r27, r27, 4
    4c68:	30790005 	addik	r3, r25, 5
    4c6c:	10631800 	addk	r3, r3, r3
    4c70:	10631800 	addk	r3, r3, r3
    4c74:	c883b800 	lw	r4, r3, r23
    4c78:	be240044 	bneid	r4, 68		// 4cbc
    4c7c:	10b71800 	addk	r5, r23, r3
    4c80:	3065fffc 	addik	r3, r5, -4
    4c84:	1483d003 	cmpu	r4, r3, r26
    4c88:	bca40030 	bgei	r4, 48		// 4cb8
    4c8c:	e885fffc 	lwi	r4, r5, -4
    4c90:	be04001c 	beqid	r4, 28		// 4cac
    4c94:	3063fffc 	addik	r3, r3, -4
    4c98:	b8100024 	brid	36		// 4cbc
    4c9c:	fb370010 	swi	r25, r23, 16
    4ca0:	e8830000 	lwi	r4, r3, 0
    4ca4:	be240014 	bneid	r4, 20		// 4cb8
    4ca8:	3063fffc 	addik	r3, r3, -4
    4cac:	1483d003 	cmpu	r4, r3, r26
    4cb0:	be44fff0 	bltid	r4, -16		// 4ca0
    4cb4:	3339ffff 	addik	r25, r25, -1
    4cb8:	fb370010 	swi	r25, r23, 16
    4cbc:	10b70000 	addk	r5, r23, r0
    4cc0:	b9f44d88 	brlid	r15, 19848	// 9a48 <__mcmp>
    4cc4:	10dd0000 	addk	r6, r29, r0
    4cc8:	be430200 	bltid	r3, 512		// 4ec8
    4ccc:	10c00000 	addk	r6, r0, r0
    4cd0:	109a0000 	addk	r4, r26, r0
    4cd4:	32d60001 	addik	r22, r22, 1
    4cd8:	e8a40000 	lwi	r5, r4, 0
    4cdc:	e8730000 	lwi	r3, r19, 0
    4ce0:	32730004 	addik	r19, r19, 4
    4ce4:	b0000000 	imm	0
    4ce8:	a505ffff 	andi	r8, r5, -1
    4cec:	b0000000 	imm	0
    4cf0:	a4e3ffff 	andi	r7, r3, -1
    4cf4:	11083000 	addk	r8, r8, r6
    4cf8:	15074000 	rsubk	r8, r7, r8
    4cfc:	10e02800 	addk	r7, r0, r5
    4d00:	90e50041 	srl	r7, r5
    4d04:	90e70041 	srl	r7, r7
    4d08:	90e70041 	srl	r7, r7
    4d0c:	90e70041 	srl	r7, r7
    4d10:	90e70041 	srl	r7, r7
    4d14:	90e70041 	srl	r7, r7
    4d18:	90e70041 	srl	r7, r7
    4d1c:	90e70041 	srl	r7, r7
    4d20:	90e70041 	srl	r7, r7
    4d24:	90e70041 	srl	r7, r7
    4d28:	90e70041 	srl	r7, r7
    4d2c:	90e70041 	srl	r7, r7
    4d30:	90e70041 	srl	r7, r7
    4d34:	90e70041 	srl	r7, r7
    4d38:	90e70041 	srl	r7, r7
    4d3c:	90e70041 	srl	r7, r7
    4d40:	10a01800 	addk	r5, r0, r3
    4d44:	90a30041 	srl	r5, r3
    4d48:	90a50041 	srl	r5, r5
    4d4c:	90a50041 	srl	r5, r5
    4d50:	90a50041 	srl	r5, r5
    4d54:	90a50041 	srl	r5, r5
    4d58:	90a50041 	srl	r5, r5
    4d5c:	90a50041 	srl	r5, r5
    4d60:	90a50041 	srl	r5, r5
    4d64:	90a50041 	srl	r5, r5
    4d68:	90a50041 	srl	r5, r5
    4d6c:	90a50041 	srl	r5, r5
    4d70:	90a50041 	srl	r5, r5
    4d74:	90a50041 	srl	r5, r5
    4d78:	90a50041 	srl	r5, r5
    4d7c:	90a50041 	srl	r5, r5
    4d80:	90a50041 	srl	r5, r5
    4d84:	14e53800 	rsubk	r7, r5, r7
    4d88:	10604000 	addk	r3, r0, r8
    4d8c:	90680001 	sra	r3, r8
    4d90:	90630001 	sra	r3, r3
    4d94:	90630001 	sra	r3, r3
    4d98:	90630001 	sra	r3, r3
    4d9c:	90630001 	sra	r3, r3
    4da0:	90630001 	sra	r3, r3
    4da4:	90630001 	sra	r3, r3
    4da8:	90630001 	sra	r3, r3
    4dac:	90630001 	sra	r3, r3
    4db0:	90630001 	sra	r3, r3
    4db4:	90630001 	sra	r3, r3
    4db8:	90630001 	sra	r3, r3
    4dbc:	90630001 	sra	r3, r3
    4dc0:	90630001 	sra	r3, r3
    4dc4:	90630001 	sra	r3, r3
    4dc8:	90630001 	sra	r3, r3
    4dcc:	10e71800 	addk	r7, r7, r3
    4dd0:	11273800 	addk	r9, r7, r7
    4dd4:	11294800 	addk	r9, r9, r9
    4dd8:	11294800 	addk	r9, r9, r9
    4ddc:	11294800 	addk	r9, r9, r9
    4de0:	11294800 	addk	r9, r9, r9
    4de4:	11294800 	addk	r9, r9, r9
    4de8:	11294800 	addk	r9, r9, r9
    4dec:	11294800 	addk	r9, r9, r9
    4df0:	11294800 	addk	r9, r9, r9
    4df4:	11294800 	addk	r9, r9, r9
    4df8:	11294800 	addk	r9, r9, r9
    4dfc:	11294800 	addk	r9, r9, r9
    4e00:	11294800 	addk	r9, r9, r9
    4e04:	11294800 	addk	r9, r9, r9
    4e08:	11294800 	addk	r9, r9, r9
    4e0c:	11294800 	addk	r9, r9, r9
    4e10:	b0000000 	imm	0
    4e14:	a508ffff 	andi	r8, r8, -1
    4e18:	81294000 	or	r9, r9, r8
    4e1c:	f9240000 	swi	r9, r4, 0
    4e20:	1473c003 	cmpu	r3, r19, r24
    4e24:	10c03800 	addk	r6, r0, r7
    4e28:	90c70001 	sra	r6, r7
    4e2c:	90c60001 	sra	r6, r6
    4e30:	90c60001 	sra	r6, r6
    4e34:	90c60001 	sra	r6, r6
    4e38:	90c60001 	sra	r6, r6
    4e3c:	90c60001 	sra	r6, r6
    4e40:	90c60001 	sra	r6, r6
    4e44:	90c60001 	sra	r6, r6
    4e48:	90c60001 	sra	r6, r6
    4e4c:	90c60001 	sra	r6, r6
    4e50:	90c60001 	sra	r6, r6
    4e54:	90c60001 	sra	r6, r6
    4e58:	90c60001 	sra	r6, r6
    4e5c:	90c60001 	sra	r6, r6
    4e60:	90c60001 	sra	r6, r6
    4e64:	90c60001 	sra	r6, r6
    4e68:	bea3fe70 	bgeid	r3, -400		// 4cd8
    4e6c:	30840004 	addik	r4, r4, 4
    4e70:	30790005 	addik	r3, r25, 5
    4e74:	10631800 	addk	r3, r3, r3
    4e78:	10631800 	addk	r3, r3, r3
    4e7c:	c883b800 	lw	r4, r3, r23
    4e80:	be240048 	bneid	r4, 72		// 4ec8
    4e84:	10771800 	addk	r3, r23, r3
    4e88:	3083fffc 	addik	r4, r3, -4
    4e8c:	14a4d003 	cmpu	r5, r4, r26
    4e90:	bca50034 	bgei	r5, 52		// 4ec4
    4e94:	e863fffc 	lwi	r3, r3, -4
    4e98:	be030020 	beqid	r3, 32		// 4eb8
    4e9c:	3084fffc 	addik	r4, r4, -4
    4ea0:	30840004 	addik	r4, r4, 4
    4ea4:	b8100024 	brid	36		// 4ec8
    4ea8:	fb370010 	swi	r25, r23, 16
    4eac:	e8640000 	lwi	r3, r4, 0
    4eb0:	bc230014 	bnei	r3, 20		// 4ec4
    4eb4:	3084fffc 	addik	r4, r4, -4
    4eb8:	1464d003 	cmpu	r3, r4, r26
    4ebc:	be43fff0 	bltid	r3, -16		// 4eac
    4ec0:	3339ffff 	addik	r25, r25, -1
    4ec4:	fb370010 	swi	r25, r23, 16
    4ec8:	13d60000 	addk	r30, r22, r0
    4ecc:	107e0000 	addk	r3, r30, r0
    4ed0:	e9e10000 	lwi	r15, r1, 0
    4ed4:	ea610020 	lwi	r19, r1, 32
    4ed8:	eac10024 	lwi	r22, r1, 36
    4edc:	eae10028 	lwi	r23, r1, 40
    4ee0:	eb01002c 	lwi	r24, r1, 44
    4ee4:	eb210030 	lwi	r25, r1, 48
    4ee8:	eb410034 	lwi	r26, r1, 52
    4eec:	eb610038 	lwi	r27, r1, 56
    4ef0:	eb81003c 	lwi	r28, r1, 60
    4ef4:	eba10040 	lwi	r29, r1, 64
    4ef8:	ebc10044 	lwi	r30, r1, 68
    4efc:	ebe10048 	lwi	r31, r1, 72
    4f00:	b60f0008 	rtsd	r15, 8
    4f04:	3021004c 	addik	r1, r1, 76

00004f08 <_dtoa_r>:
    4f08:	3021ff5c 	addik	r1, r1, -164
    4f0c:	fa610078 	swi	r19, r1, 120
    4f10:	fac1007c 	swi	r22, r1, 124
    4f14:	fae10080 	swi	r23, r1, 128
    4f18:	fb210088 	swi	r25, r1, 136
    4f1c:	fbc1009c 	swi	r30, r1, 156
    4f20:	f9e10000 	swi	r15, r1, 0
    4f24:	fb010084 	swi	r24, r1, 132
    4f28:	fb41008c 	swi	r26, r1, 140
    4f2c:	fb610090 	swi	r27, r1, 144
    4f30:	fb810094 	swi	r28, r1, 148
    4f34:	fba10098 	swi	r29, r1, 152
    4f38:	fbe100a0 	swi	r31, r1, 160
    4f3c:	eb050024 	lwi	r24, r5, 36
    4f40:	f92100b8 	swi	r9, r1, 184
    4f44:	f94100bc 	swi	r10, r1, 188
    4f48:	12650000 	addk	r19, r5, r0
    4f4c:	13c80000 	addk	r30, r8, r0
    4f50:	eb2100c0 	lwi	r25, r1, 192
    4f54:	12c60000 	addk	r22, r6, r0
    4f58:	be180f10 	beqid	r24, 3856		// 5e68
    4f5c:	12e70000 	addk	r23, r7, r0
    4f60:	e8780000 	lwi	r3, r24, 0
    4f64:	be030040 	beqid	r3, 64		// 4fa4
    4f68:	10c30000 	addk	r6, r3, r0
    4f6c:	e8980004 	lwi	r4, r24, 4
    4f70:	31000001 	addik	r8, r0, 1
    4f74:	a644001f 	andi	r18, r4, 31
    4f78:	10e04000 	addk	r7, r0, r8
    4f7c:	be120014 	beqid	r18, 20		// 4f90
    4f80:	10e70000 	addk	r7, r7, r0
    4f84:	3252ffff 	addik	r18, r18, -1
    4f88:	be32fffc 	bneid	r18, -4		// 4f84
    4f8c:	10e73800 	addk	r7, r7, r7
    4f90:	f8830004 	swi	r4, r3, 4
    4f94:	b9f43bd0 	brlid	r15, 15312	// 8b64 <_Bfree>
    4f98:	f8e30008 	swi	r7, r3, 8
    4f9c:	e8730024 	lwi	r3, r19, 36
    4fa0:	f8030000 	swi	r0, r3, 0
    4fa4:	be5600f8 	bltid	r22, 248		// 509c
    4fa8:	13960000 	addk	r28, r22, r0
    4fac:	f8190000 	swi	r0, r25, 0
    4fb0:	b0007ff0 	imm	32752
    4fb4:	a47c0000 	andi	r3, r28, 0
    4fb8:	b0007ff0 	imm	32752
    4fbc:	a8630000 	xori	r3, r3, 0
    4fc0:	be030080 	beqid	r3, 128		// 5040
    4fc4:	10b60000 	addk	r5, r22, r0
    4fc8:	10d70000 	addk	r6, r23, r0
    4fcc:	10e00000 	addk	r7, r0, r0
    4fd0:	11000000 	addk	r8, r0, r0
    4fd4:	b0000000 	imm	0
    4fd8:	b9f4c084 	brlid	r15, -16252	// 1105c <__eqdf2>
    4fdc:	13370000 	addk	r25, r23, r0
    4fe0:	be2300d4 	bneid	r3, 212		// 50b4
    4fe4:	e88100bc 	lwi	r4, r1, 188
    4fe8:	e8a100c4 	lwi	r5, r1, 196
    4fec:	30600001 	addik	r3, r0, 1
    4ff0:	f8640000 	swi	r3, r4, 0
    4ff4:	b0000001 	imm	1
    4ff8:	30602c1c 	addik	r3, r0, 11292
    4ffc:	be05000c 	beqid	r5, 12		// 5008
    5000:	30830001 	addik	r4, r3, 1
    5004:	f8850000 	swi	r4, r5, 0
    5008:	e9e10000 	lwi	r15, r1, 0
    500c:	ea610078 	lwi	r19, r1, 120
    5010:	eac1007c 	lwi	r22, r1, 124
    5014:	eae10080 	lwi	r23, r1, 128
    5018:	eb010084 	lwi	r24, r1, 132
    501c:	eb210088 	lwi	r25, r1, 136
    5020:	eb41008c 	lwi	r26, r1, 140
    5024:	eb610090 	lwi	r27, r1, 144
    5028:	eb810094 	lwi	r28, r1, 148
    502c:	eba10098 	lwi	r29, r1, 152
    5030:	ebc1009c 	lwi	r30, r1, 156
    5034:	ebe100a0 	lwi	r31, r1, 160
    5038:	b60f0008 	rtsd	r15, 8
    503c:	302100a4 	addik	r1, r1, 164
    5040:	e88100bc 	lwi	r4, r1, 188
    5044:	3060270f 	addik	r3, r0, 9999
    5048:	f8640000 	swi	r3, r4, 0
    504c:	b0000001 	imm	1
    5050:	30602c18 	addik	r3, r0, 11288
    5054:	be370024 	bneid	r23, 36		// 5078
    5058:	e8a100c4 	lwi	r5, r1, 196
    505c:	b000000f 	imm	15
    5060:	a79cffff 	andi	r28, r28, -1
    5064:	b0000001 	imm	1
    5068:	30602c0c 	addik	r3, r0, 11276
    506c:	bc1c000c 	beqi	r28, 12		// 5078
    5070:	b0000001 	imm	1
    5074:	30602c18 	addik	r3, r0, 11288
    5078:	be05ff94 	beqid	r5, -108		// 500c
    507c:	e9e10000 	lwi	r15, r1, 0
    5080:	e0a30003 	lbui	r5, r3, 3
    5084:	be05000c 	beqid	r5, 12		// 5090
    5088:	30830003 	addik	r4, r3, 3
    508c:	30830008 	addik	r4, r3, 8
    5090:	e8c100c4 	lwi	r6, r1, 196
    5094:	b810ff74 	brid	-140		// 5008
    5098:	f8860000 	swi	r4, r6, 0
    509c:	b0007fff 	imm	32767
    50a0:	a796ffff 	andi	r28, r22, -1
    50a4:	30600001 	addik	r3, r0, 1
    50a8:	f8790000 	swi	r3, r25, 0
    50ac:	b810ff04 	brid	-252		// 4fb0
    50b0:	12dc0000 	addk	r22, r28, r0
    50b4:	10b30000 	addk	r5, r19, r0
    50b8:	10d60000 	addk	r6, r22, r0
    50bc:	10f70000 	addk	r7, r23, r0
    50c0:	3101001c 	addik	r8, r1, 28
    50c4:	b9f45160 	brlid	r15, 20832	// a224 <__d2b>
    50c8:	31210020 	addik	r9, r1, 32
    50cc:	1340e000 	addk	r26, r0, r28
    50d0:	935c0041 	srl	r26, r28
    50d4:	935a0041 	srl	r26, r26
    50d8:	935a0041 	srl	r26, r26
    50dc:	935a0041 	srl	r26, r26
    50e0:	935a0041 	srl	r26, r26
    50e4:	935a0041 	srl	r26, r26
    50e8:	935a0041 	srl	r26, r26
    50ec:	935a0041 	srl	r26, r26
    50f0:	935a0041 	srl	r26, r26
    50f4:	935a0041 	srl	r26, r26
    50f8:	935a0041 	srl	r26, r26
    50fc:	935a0041 	srl	r26, r26
    5100:	935a0041 	srl	r26, r26
    5104:	935a0041 	srl	r26, r26
    5108:	935a0041 	srl	r26, r26
    510c:	935a0041 	srl	r26, r26
    5110:	935a0041 	srl	r26, r26
    5114:	935a0041 	srl	r26, r26
    5118:	935a0041 	srl	r26, r26
    511c:	935a0041 	srl	r26, r26
    5120:	a75a07ff 	andi	r26, r26, 2047
    5124:	be1a06bc 	beqid	r26, 1724		// 57e0
    5128:	13a30000 	addk	r29, r3, r0
    512c:	eb610020 	lwi	r27, r1, 32
    5130:	b000000f 	imm	15
    5134:	a476ffff 	andi	r3, r22, -1
    5138:	10c00000 	addk	r6, r0, r0
    513c:	b0003ff0 	imm	16368
    5140:	a3030000 	ori	r24, r3, 0
    5144:	335afc01 	addik	r26, r26, -1023
    5148:	f8c1005c 	swi	r6, r1, 92
    514c:	10b80000 	addk	r5, r24, r0
    5150:	b0003ff8 	imm	16376
    5154:	30e00000 	addik	r7, r0, 0
    5158:	31000000 	addik	r8, r0, 0
    515c:	b0000000 	imm	0
    5160:	b9f4b460 	brlid	r15, -19360	// 105c0 <__subdf3>
    5164:	10d90000 	addk	r6, r25, r0
    5168:	10a40000 	addk	r5, r4, r0
    516c:	b0003fd2 	imm	16338
    5170:	30e087a7 	addik	r7, r0, -30809
    5174:	b000636f 	imm	25455
    5178:	31004361 	addik	r8, r0, 17249
    517c:	10c50000 	addk	r6, r5, r0
    5180:	b0000000 	imm	0
    5184:	b9f4b4ac 	brlid	r15, -19284	// 10630 <__muldf3>
    5188:	10a30000 	addk	r5, r3, r0
    518c:	10a40000 	addk	r5, r4, r0
    5190:	b0003fc6 	imm	16326
    5194:	30e08a28 	addik	r7, r0, -30168
    5198:	b0008b60 	imm	-29856
    519c:	3100c8b3 	addik	r8, r0, -14157
    51a0:	10c50000 	addk	r6, r5, r0
    51a4:	b0000000 	imm	0
    51a8:	b9f4b3b4 	brlid	r15, -19532	// 1055c <__adddf3>
    51ac:	10a30000 	addk	r5, r3, r0
    51b0:	10ba0000 	addk	r5, r26, r0
    51b4:	13030000 	addk	r24, r3, r0
    51b8:	b0000000 	imm	0
    51bc:	b9f4c0f4 	brlid	r15, -16140	// 112b0 <__floatsidf>
    51c0:	13240000 	addk	r25, r4, r0
    51c4:	10a40000 	addk	r5, r4, r0
    51c8:	b0003fd3 	imm	16339
    51cc:	30e04413 	addik	r7, r0, 17427
    51d0:	b000509f 	imm	20639
    51d4:	310079fb 	addik	r8, r0, 31227
    51d8:	10c50000 	addk	r6, r5, r0
    51dc:	b0000000 	imm	0
    51e0:	b9f4b450 	brlid	r15, -19376	// 10630 <__muldf3>
    51e4:	10a30000 	addk	r5, r3, r0
    51e8:	11030000 	addk	r8, r3, r0
    51ec:	10b80000 	addk	r5, r24, r0
    51f0:	10d90000 	addk	r6, r25, r0
    51f4:	10e80000 	addk	r7, r8, r0
    51f8:	b0000000 	imm	0
    51fc:	b9f4b360 	brlid	r15, -19616	// 1055c <__adddf3>
    5200:	11040000 	addk	r8, r4, r0
    5204:	13030000 	addk	r24, r3, r0
    5208:	10c40000 	addk	r6, r4, r0
    520c:	13240000 	addk	r25, r4, r0
    5210:	b0000000 	imm	0
    5214:	b9f4c254 	brlid	r15, -15788	// 11468 <__fixdfsi>
    5218:	10b80000 	addk	r5, r24, r0
    521c:	10b80000 	addk	r5, r24, r0
    5220:	10d90000 	addk	r6, r25, r0
    5224:	10e00000 	addk	r7, r0, r0
    5228:	11000000 	addk	r8, r0, r0
    522c:	b0000000 	imm	0
    5230:	b9f4c00c 	brlid	r15, -16372	// 1123c <__ltdf2>
    5234:	f8610024 	swi	r3, r1, 36
    5238:	bc430c80 	blti	r3, 3200		// 5eb8
    523c:	e8810024 	lwi	r4, r1, 36
    5240:	30600016 	addik	r3, r0, 22
    5244:	30a00001 	addik	r5, r0, 1
    5248:	14641803 	cmpu	r3, r4, r3
    524c:	be430054 	bltid	r3, 84		// 52a0
    5250:	f8a10040 	swi	r5, r1, 64
    5254:	10642000 	addk	r3, r4, r4
    5258:	b0000001 	imm	1
    525c:	30802ce4 	addik	r4, r0, 11492	// 12ce4 <__mprec_tens>
    5260:	10631800 	addk	r3, r3, r3
    5264:	10631800 	addk	r3, r3, r3
    5268:	10641800 	addk	r3, r4, r3
    526c:	e8a30000 	lwi	r5, r3, 0
    5270:	e8c30004 	lwi	r6, r3, 4
    5274:	10f60000 	addk	r7, r22, r0
    5278:	b0000000 	imm	0
    527c:	b9f4bec8 	brlid	r15, -16696	// 11144 <__gtdf2>
    5280:	11170000 	addk	r8, r23, r0
    5284:	be630c74 	bleid	r3, 3188		// 5ef8
    5288:	10800000 	addk	r4, r0, r0
    528c:	e8c10024 	lwi	r6, r1, 36
    5290:	10600000 	addk	r3, r0, r0
    5294:	f8610040 	swi	r3, r1, 64
    5298:	30c6ffff 	addik	r6, r6, -1
    529c:	f8c10024 	swi	r6, r1, 36
    52a0:	17fad800 	rsubk	r31, r26, r27
    52a4:	33ffffff 	addik	r31, r31, -1
    52a8:	be5f0c00 	bltid	r31, 3072		// 5ea8
    52ac:	10a00000 	addk	r5, r0, r0
    52b0:	f8a10034 	swi	r5, r1, 52
    52b4:	e8c10024 	lwi	r6, r1, 36
    52b8:	be460bd0 	bltid	r6, 3024		// 5e88
    52bc:	10600000 	addk	r3, r0, r0
    52c0:	13ff3000 	addk	r31, r31, r6
    52c4:	f8c1004c 	swi	r6, r1, 76
    52c8:	f8610044 	swi	r3, r1, 68
    52cc:	30600009 	addik	r3, r0, 9
    52d0:	147e1803 	cmpu	r3, r30, r3
    52d4:	be430594 	bltid	r3, 1428		// 5868
    52d8:	30800005 	addik	r4, r0, 5
    52dc:	149e2001 	cmp	r4, r30, r4
    52e0:	bea40010 	bgeid	r4, 16		// 52f0
    52e4:	30600001 	addik	r3, r0, 1
    52e8:	33defffc 	addik	r30, r30, -4
    52ec:	10600000 	addk	r3, r0, r0
    52f0:	a89e0003 	xori	r4, r30, 3
    52f4:	bc240c0c 	bnei	r4, 3084		// 5f00
    52f8:	f8810048 	swi	r4, r1, 72
    52fc:	e88100b8 	lwi	r4, r1, 184
    5300:	e8a10024 	lwi	r5, r1, 36
    5304:	10842800 	addk	r4, r4, r5
    5308:	30c40001 	addik	r6, r4, 1
    530c:	f8810050 	swi	r4, r1, 80
    5310:	3080000e 	addik	r4, r0, 14
    5314:	be661420 	bleid	r6, 5152		// 6734
    5318:	14862003 	cmpu	r4, r6, r4
    531c:	a884ffff 	xori	r4, r4, -1
    5320:	13202000 	addk	r25, r0, r4
    5324:	93240041 	srl	r25, r4
    5328:	93390041 	srl	r25, r25
    532c:	93390041 	srl	r25, r25
    5330:	93390041 	srl	r25, r25
    5334:	93390041 	srl	r25, r25
    5338:	93390041 	srl	r25, r25
    533c:	93390041 	srl	r25, r25
    5340:	93390041 	srl	r25, r25
    5344:	93390041 	srl	r25, r25
    5348:	93390041 	srl	r25, r25
    534c:	93390041 	srl	r25, r25
    5350:	93390041 	srl	r25, r25
    5354:	93390041 	srl	r25, r25
    5358:	93390041 	srl	r25, r25
    535c:	93390041 	srl	r25, r25
    5360:	93390041 	srl	r25, r25
    5364:	93390041 	srl	r25, r25
    5368:	93390041 	srl	r25, r25
    536c:	93390041 	srl	r25, r25
    5370:	93390041 	srl	r25, r25
    5374:	93390041 	srl	r25, r25
    5378:	93390041 	srl	r25, r25
    537c:	93390041 	srl	r25, r25
    5380:	93390041 	srl	r25, r25
    5384:	93390041 	srl	r25, r25
    5388:	93390041 	srl	r25, r25
    538c:	93390041 	srl	r25, r25
    5390:	93390041 	srl	r25, r25
    5394:	93390041 	srl	r25, r25
    5398:	93390041 	srl	r25, r25
    539c:	93390041 	srl	r25, r25
    53a0:	f8c1002c 	swi	r6, r1, 44
    53a4:	8723c800 	and	r25, r3, r25
    53a8:	eb130024 	lwi	r24, r19, 36
    53ac:	30600017 	addik	r3, r0, 23
    53b0:	14661803 	cmpu	r3, r6, r3
    53b4:	bea3002c 	bgeid	r3, 44		// 53e0
    53b8:	f8180004 	swi	r0, r24, 4
    53bc:	30800001 	addik	r4, r0, 1
    53c0:	30600004 	addik	r3, r0, 4	// 4 <_.xy>
    53c4:	10631800 	addk	r3, r3, r3
    53c8:	30a30014 	addik	r5, r3, 20
    53cc:	14a53003 	cmpu	r5, r5, r6
    53d0:	10e40000 	addk	r7, r4, r0
    53d4:	bea5fff0 	bgeid	r5, -16		// 53c4
    53d8:	30840001 	addik	r4, r4, 1
    53dc:	f8f80004 	swi	r7, r24, 4
    53e0:	10b30000 	addk	r5, r19, r0
    53e4:	b9f4368c 	brlid	r15, 13964	// 8a70 <_Balloc>
    53e8:	e8d80004 	lwi	r6, r24, 4
    53ec:	e8930024 	lwi	r4, r19, 36
    53f0:	f8780000 	swi	r3, r24, 0
    53f4:	e8840000 	lwi	r4, r4, 0
    53f8:	be1904b4 	beqid	r25, 1204		// 58ac
    53fc:	f8810030 	swi	r4, r1, 48
    5400:	e8c10024 	lwi	r6, r1, 36
    5404:	fac10054 	swi	r22, r1, 84
    5408:	fae10058 	swi	r23, r1, 88
    540c:	be660db4 	bleid	r6, 3508		// 61c0
    5410:	a466000f 	andi	r3, r6, 15
    5414:	10631800 	addk	r3, r3, r3
    5418:	10631800 	addk	r3, r3, r3
    541c:	10631800 	addk	r3, r3, r3
    5420:	12e03000 	addk	r23, r0, r6
    5424:	92e60001 	sra	r23, r6
    5428:	92f70001 	sra	r23, r23
    542c:	92f70001 	sra	r23, r23
    5430:	92f70001 	sra	r23, r23
    5434:	a4970010 	andi	r4, r23, 16
    5438:	b0000001 	imm	1
    543c:	eb032ce4 	lwi	r24, r3, 11492
    5440:	b0000001 	imm	1
    5444:	eb232ce8 	lwi	r25, r3, 11496
    5448:	bc040bac 	beqi	r4, 2988		// 5ff4
    544c:	b0000001 	imm	1
    5450:	e8e02cdc 	lwi	r7, r0, 11484
    5454:	b0000001 	imm	1
    5458:	e9002ce0 	lwi	r8, r0, 11488
    545c:	e8a10054 	lwi	r5, r1, 84
    5460:	e8c10058 	lwi	r6, r1, 88
    5464:	a6f7000f 	andi	r23, r23, 15
    5468:	b0000000 	imm	0
    546c:	b9f4b898 	brlid	r15, -18280	// 10d04 <__divdf3>
    5470:	32c00003 	addik	r22, r0, 3
    5474:	f8610038 	swi	r3, r1, 56
    5478:	f881003c 	swi	r4, r1, 60
    547c:	bc170048 	beqi	r23, 72		// 54c4
    5480:	13400000 	addk	r26, r0, r0
    5484:	a4770001 	andi	r3, r23, 1
    5488:	be030034 	beqid	r3, 52		// 54bc
    548c:	92f70001 	sra	r23, r23
    5490:	10b80000 	addk	r5, r24, r0
    5494:	10d90000 	addk	r6, r25, r0
    5498:	b0000001 	imm	1
    549c:	e8fa2cbc 	lwi	r7, r26, 11452
    54a0:	b0000001 	imm	1
    54a4:	e91a2cc0 	lwi	r8, r26, 11456
    54a8:	b0000000 	imm	0
    54ac:	b9f4b184 	brlid	r15, -20092	// 10630 <__muldf3>
    54b0:	32d60001 	addik	r22, r22, 1
    54b4:	13030000 	addk	r24, r3, r0
    54b8:	13240000 	addk	r25, r4, r0
    54bc:	be37ffc8 	bneid	r23, -56		// 5484
    54c0:	335a0008 	addik	r26, r26, 8
    54c4:	e8a10038 	lwi	r5, r1, 56
    54c8:	e8c1003c 	lwi	r6, r1, 60
    54cc:	10f80000 	addk	r7, r24, r0
    54d0:	b0000000 	imm	0
    54d4:	b9f4b830 	brlid	r15, -18384	// 10d04 <__divdf3>
    54d8:	11190000 	addk	r8, r25, r0
    54dc:	f8610038 	swi	r3, r1, 56
    54e0:	f881003c 	swi	r4, r1, 60
    54e4:	e8a10040 	lwi	r5, r1, 64
    54e8:	bc05002c 	beqi	r5, 44		// 5514
    54ec:	b0003ff0 	imm	16368
    54f0:	30e00000 	addik	r7, r0, 0
    54f4:	31000000 	addik	r8, r0, 0
    54f8:	e8a10038 	lwi	r5, r1, 56
    54fc:	e8c1003c 	lwi	r6, r1, 60
    5500:	b0000000 	imm	0
    5504:	b9f4bd38 	brlid	r15, -17096	// 1123c <__ltdf2>
    5508:	80000000 	or	r0, r0, r0
    550c:	be4312e4 	bltid	r3, 4836		// 67f0
    5510:	e8c1002c 	lwi	r6, r1, 44
    5514:	b0000000 	imm	0
    5518:	b9f4bd98 	brlid	r15, -17000	// 112b0 <__floatsidf>
    551c:	10b60000 	addk	r5, r22, r0
    5520:	10a40000 	addk	r5, r4, r0
    5524:	e8e10038 	lwi	r7, r1, 56
    5528:	e901003c 	lwi	r8, r1, 60
    552c:	10c50000 	addk	r6, r5, r0
    5530:	b0000000 	imm	0
    5534:	b9f4b0fc 	brlid	r15, -20228	// 10630 <__muldf3>
    5538:	10a30000 	addk	r5, r3, r0
    553c:	10a40000 	addk	r5, r4, r0
    5540:	b000401c 	imm	16412
    5544:	30e00000 	addik	r7, r0, 0
    5548:	31000000 	addik	r8, r0, 0
    554c:	10c50000 	addk	r6, r5, r0
    5550:	b0000000 	imm	0
    5554:	b9f4b008 	brlid	r15, -20472	// 1055c <__adddf3>
    5558:	10a30000 	addk	r5, r3, r0
    555c:	13430000 	addk	r26, r3, r0
    5560:	e8a1002c 	lwi	r5, r1, 44
    5564:	b000fcc0 	imm	-832
    5568:	335a0000 	addik	r26, r26, 0
    556c:	be050b18 	beqid	r5, 2840		// 6084
    5570:	13640000 	addk	r27, r4, r0
    5574:	e8c10024 	lwi	r6, r1, 36
    5578:	eb21002c 	lwi	r25, r1, 44
    557c:	f8c10068 	swi	r6, r1, 104
    5580:	e8610048 	lwi	r3, r1, 72
    5584:	be030d00 	beqid	r3, 3328		// 6284
    5588:	3079ffff 	addik	r3, r25, -1
    558c:	b0000001 	imm	1
    5590:	30802ce4 	addik	r4, r0, 11492	// 12ce4 <__mprec_tens>
    5594:	10631800 	addk	r3, r3, r3
    5598:	10631800 	addk	r3, r3, r3
    559c:	10631800 	addk	r3, r3, r3
    55a0:	10641800 	addk	r3, r4, r3
    55a4:	b0003fe0 	imm	16352
    55a8:	30a00000 	addik	r5, r0, 0
    55ac:	30c00000 	addik	r6, r0, 0
    55b0:	e8e30000 	lwi	r7, r3, 0
    55b4:	e9030004 	lwi	r8, r3, 4
    55b8:	e8810030 	lwi	r4, r1, 48
    55bc:	12fb0000 	addk	r23, r27, r0
    55c0:	b0000000 	imm	0
    55c4:	b9f4b740 	brlid	r15, -18624	// 10d04 <__divdf3>
    55c8:	33640001 	addik	r27, r4, 1
    55cc:	10a40000 	addk	r5, r4, r0
    55d0:	11170000 	addk	r8, r23, r0
    55d4:	10fa0000 	addk	r7, r26, r0
    55d8:	10c50000 	addk	r6, r5, r0
    55dc:	10a30000 	addk	r5, r3, r0
    55e0:	b0000000 	imm	0
    55e4:	b9f4afdc 	brlid	r15, -20516	// 105c0 <__subdf3>
    55e8:	139b0000 	addk	r28, r27, r0
    55ec:	e8a10038 	lwi	r5, r1, 56
    55f0:	e8c1003c 	lwi	r6, r1, 60
    55f4:	f8610060 	swi	r3, r1, 96
    55f8:	f8810064 	swi	r4, r1, 100
    55fc:	b0000000 	imm	0
    5600:	b9f4be68 	brlid	r15, -16792	// 11468 <__fixdfsi>
    5604:	80000000 	or	r0, r0, r0
    5608:	10a30000 	addk	r5, r3, r0
    560c:	b0000000 	imm	0
    5610:	b9f4bca0 	brlid	r15, -17248	// 112b0 <__floatsidf>
    5614:	13030000 	addk	r24, r3, r0
    5618:	11030000 	addk	r8, r3, r0
    561c:	e8a10038 	lwi	r5, r1, 56
    5620:	e8c1003c 	lwi	r6, r1, 60
    5624:	33180030 	addik	r24, r24, 48
    5628:	10e80000 	addk	r7, r8, r0
    562c:	11040000 	addk	r8, r4, r0
    5630:	b0000000 	imm	0
    5634:	b9f4af8c 	brlid	r15, -20596	// 105c0 <__subdf3>
    5638:	93180060 	sext8	r24, r24
    563c:	e8a10030 	lwi	r5, r1, 48
    5640:	12c30000 	addk	r22, r3, r0
    5644:	11040000 	addk	r8, r4, r0
    5648:	f3050000 	sbi	r24, r5, 0
    564c:	10f60000 	addk	r7, r22, r0
    5650:	e8a10060 	lwi	r5, r1, 96
    5654:	e8c10064 	lwi	r6, r1, 100
    5658:	b0000000 	imm	0
    565c:	b9f4bae8 	brlid	r15, -17688	// 11144 <__gtdf2>
    5660:	12e40000 	addk	r23, r4, r0
    5664:	be8312ac 	bgtid	r3, 4780		// 6910
    5668:	10f60000 	addk	r7, r22, r0
    566c:	b0003ff0 	imm	16368
    5670:	30a00000 	addik	r5, r0, 0
    5674:	30c00000 	addik	r6, r0, 0
    5678:	b0000000 	imm	0
    567c:	b9f4af44 	brlid	r15, -20668	// 105c0 <__subdf3>
    5680:	11170000 	addk	r8, r23, r0
    5684:	11030000 	addk	r8, r3, r0
    5688:	e8a10060 	lwi	r5, r1, 96
    568c:	e8c10064 	lwi	r6, r1, 100
    5690:	10e80000 	addk	r7, r8, r0
    5694:	b0000000 	imm	0
    5698:	b9f4baac 	brlid	r15, -17748	// 11144 <__gtdf2>
    569c:	11040000 	addk	r8, r4, r0
    56a0:	be83048c 	bgtid	r3, 1164		// 5b2c
    56a4:	107b0000 	addk	r3, r27, r0
    56a8:	30600001 	addik	r3, r0, 1
    56ac:	14791801 	cmp	r3, r25, r3
    56b0:	bea30b00 	bgeid	r3, 2816		// 61b0
    56b4:	e8c10030 	lwi	r6, r1, 48
    56b8:	fbe10038 	swi	r31, r1, 56
    56bc:	13fb0000 	addk	r31, r27, r0
    56c0:	eb410060 	lwi	r26, r1, 96
    56c4:	eb610064 	lwi	r27, r1, 100
    56c8:	b810003c 	brid	60		// 5704
    56cc:	1326c800 	addk	r25, r6, r25
    56d0:	b0000000 	imm	0
    56d4:	b9f4aeec 	brlid	r15, -20756	// 105c0 <__subdf3>
    56d8:	80000000 	or	r0, r0, r0
    56dc:	10a40000 	addk	r5, r4, r0
    56e0:	10fa0000 	addk	r7, r26, r0
    56e4:	111b0000 	addk	r8, r27, r0
    56e8:	10c50000 	addk	r6, r5, r0
    56ec:	b0000000 	imm	0
    56f0:	b9f4bb4c 	brlid	r15, -17588	// 1123c <__ltdf2>
    56f4:	10a30000 	addk	r5, r3, r0
    56f8:	be431254 	bltid	r3, 4692		// 694c
    56fc:	889fc800 	xor	r4, r31, r25
    5700:	bc040aac 	beqi	r4, 2732		// 61ac
    5704:	10ba0000 	addk	r5, r26, r0
    5708:	b0004024 	imm	16420
    570c:	30e00000 	addik	r7, r0, 0
    5710:	31000000 	addik	r8, r0, 0
    5714:	b0000000 	imm	0
    5718:	b9f4af18 	brlid	r15, -20712	// 10630 <__muldf3>
    571c:	10db0000 	addk	r6, r27, r0
    5720:	b0004024 	imm	16420
    5724:	30e00000 	addik	r7, r0, 0
    5728:	31000000 	addik	r8, r0, 0
    572c:	10b60000 	addk	r5, r22, r0
    5730:	10d70000 	addk	r6, r23, r0
    5734:	13430000 	addk	r26, r3, r0
    5738:	b0000000 	imm	0
    573c:	b9f4aef4 	brlid	r15, -20748	// 10630 <__muldf3>
    5740:	13640000 	addk	r27, r4, r0
    5744:	12c30000 	addk	r22, r3, r0
    5748:	10c40000 	addk	r6, r4, r0
    574c:	12e40000 	addk	r23, r4, r0
    5750:	b0000000 	imm	0
    5754:	b9f4bd14 	brlid	r15, -17132	// 11468 <__fixdfsi>
    5758:	10b60000 	addk	r5, r22, r0
    575c:	10a30000 	addk	r5, r3, r0
    5760:	b0000000 	imm	0
    5764:	b9f4bb4c 	brlid	r15, -17588	// 112b0 <__floatsidf>
    5768:	13030000 	addk	r24, r3, r0
    576c:	11030000 	addk	r8, r3, r0
    5770:	10b60000 	addk	r5, r22, r0
    5774:	10d70000 	addk	r6, r23, r0
    5778:	10e80000 	addk	r7, r8, r0
    577c:	11040000 	addk	r8, r4, r0
    5780:	33180030 	addik	r24, r24, 48
    5784:	b0000000 	imm	0
    5788:	b9f4ae38 	brlid	r15, -20936	// 105c0 <__subdf3>
    578c:	93180060 	sext8	r24, r24
    5790:	12c30000 	addk	r22, r3, r0
    5794:	10c40000 	addk	r6, r4, r0
    5798:	10fa0000 	addk	r7, r26, r0
    579c:	10b60000 	addk	r5, r22, r0
    57a0:	111b0000 	addk	r8, r27, r0
    57a4:	12e40000 	addk	r23, r4, r0
    57a8:	b0000000 	imm	0
    57ac:	b9f4ba90 	brlid	r15, -17776	// 1123c <__ltdf2>
    57b0:	f31f0000 	sbi	r24, r31, 0
    57b4:	33ff0001 	addik	r31, r31, 1
    57b8:	b0003ff0 	imm	16368
    57bc:	30a00000 	addik	r5, r0, 0
    57c0:	30c00000 	addik	r6, r0, 0
    57c4:	10f60000 	addk	r7, r22, r0
    57c8:	bea3ff08 	bgeid	r3, -248		// 56d0
    57cc:	11170000 	addk	r8, r23, r0
    57d0:	e8610068 	lwi	r3, r1, 104
    57d4:	137f0000 	addk	r27, r31, r0
    57d8:	b810065c 	brid	1628		// 5e34
    57dc:	f8610024 	swi	r3, r1, 36
    57e0:	eb610020 	lwi	r27, r1, 32
    57e4:	eb41001c 	lwi	r26, r1, 28
    57e8:	3060fbef 	addik	r3, r0, -1041
    57ec:	135bd000 	addk	r26, r27, r26
    57f0:	1463d001 	cmp	r3, r3, r26
    57f4:	be4307c8 	bltid	r3, 1992		// 5fbc
    57f8:	3080fc0e 	addik	r4, r0, -1010
    57fc:	147a2000 	rsubk	r3, r26, r4
    5800:	309a0412 	addik	r4, r26, 1042
    5804:	a643001f 	andi	r18, r3, 31
    5808:	10a0e000 	addk	r5, r0, r28
    580c:	be120014 	beqid	r18, 20		// 5820
    5810:	10a50000 	addk	r5, r5, r0
    5814:	3252ffff 	addik	r18, r18, -1
    5818:	be32fffc 	bneid	r18, -4		// 5814
    581c:	10a52800 	addk	r5, r5, r5
    5820:	a644001f 	andi	r18, r4, 31
    5824:	1060b800 	addk	r3, r0, r23
    5828:	be120014 	beqid	r18, 20		// 583c
    582c:	10630000 	addk	r3, r3, r0
    5830:	3252ffff 	addik	r18, r18, -1
    5834:	be32fffc 	bneid	r18, -4		// 5830
    5838:	90630041 	srl	r3, r3
    583c:	80a51800 	or	r5, r5, r3
    5840:	30c00001 	addik	r6, r0, 1
    5844:	b0000000 	imm	0
    5848:	b9f4bd4c 	brlid	r15, -17076	// 11594 <__floatunsidf>
    584c:	f8c1005c 	swi	r6, r1, 92
    5850:	13030000 	addk	r24, r3, r0
    5854:	335affff 	addik	r26, r26, -1
    5858:	b000fe10 	imm	-496
    585c:	33180000 	addik	r24, r24, 0
    5860:	b810f8ec 	brid	-1812		// 514c
    5864:	13240000 	addk	r25, r4, r0
    5868:	13c00000 	addk	r30, r0, r0
    586c:	eb130024 	lwi	r24, r19, 36
    5870:	10b30000 	addk	r5, r19, r0
    5874:	10c00000 	addk	r6, r0, r0
    5878:	b9f431f8 	brlid	r15, 12792	// 8a70 <_Balloc>
    587c:	f8d80004 	swi	r6, r24, 4
    5880:	e8930024 	lwi	r4, r19, 36
    5884:	f8780000 	swi	r3, r24, 0
    5888:	30a0ffff 	addik	r5, r0, -1
    588c:	e8840000 	lwi	r4, r4, 0
    5890:	30c00001 	addik	r6, r0, 1
    5894:	10600000 	addk	r3, r0, r0
    5898:	f8a1002c 	swi	r5, r1, 44
    589c:	f8810030 	swi	r4, r1, 48
    58a0:	f8c10048 	swi	r6, r1, 72
    58a4:	f86100b8 	swi	r3, r1, 184
    58a8:	f8a10050 	swi	r5, r1, 80
    58ac:	e861001c 	lwi	r3, r1, 28
    58b0:	be4302b4 	bltid	r3, 692		// 5b64
    58b4:	e8a10024 	lwi	r5, r1, 36
    58b8:	3080000e 	addik	r4, r0, 14
    58bc:	14852001 	cmp	r4, r5, r4
    58c0:	be4402a8 	bltid	r4, 680		// 5b68
    58c4:	e8c10048 	lwi	r6, r1, 72
    58c8:	10652800 	addk	r3, r5, r5
    58cc:	e8c1002c 	lwi	r6, r1, 44
    58d0:	10631800 	addk	r3, r3, r3
    58d4:	10631800 	addk	r3, r3, r3
    58d8:	b0000001 	imm	1
    58dc:	eb032ce4 	lwi	r24, r3, 11492
    58e0:	b0000001 	imm	1
    58e4:	eb232ce8 	lwi	r25, r3, 11496
    58e8:	be860018 	bgtid	r6, 24		// 5900
    58ec:	10f80000 	addk	r7, r24, r0
    58f0:	e86100b8 	lwi	r3, r1, 184
    58f4:	be430b9c 	bltid	r3, 2972		// 6490
    58f8:	e861002c 	lwi	r3, r1, 44
    58fc:	10f80000 	addk	r7, r24, r0
    5900:	11190000 	addk	r8, r25, r0
    5904:	10b60000 	addk	r5, r22, r0
    5908:	b0000000 	imm	0
    590c:	b9f4b3f8 	brlid	r15, -19464	// 10d04 <__divdf3>
    5910:	10d70000 	addk	r6, r23, r0
    5914:	10a40000 	addk	r5, r4, r0
    5918:	10c50000 	addk	r6, r5, r0
    591c:	b0000000 	imm	0
    5920:	b9f4bb48 	brlid	r15, -17592	// 11468 <__fixdfsi>
    5924:	10a30000 	addk	r5, r3, r0
    5928:	10a30000 	addk	r5, r3, r0
    592c:	e8810030 	lwi	r4, r1, 48
    5930:	13430000 	addk	r26, r3, r0
    5934:	b0000000 	imm	0
    5938:	b9f4b978 	brlid	r15, -18056	// 112b0 <__floatsidf>
    593c:	33840001 	addik	r28, r4, 1
    5940:	10a40000 	addk	r5, r4, r0
    5944:	10f80000 	addk	r7, r24, r0
    5948:	11190000 	addk	r8, r25, r0
    594c:	10c50000 	addk	r6, r5, r0
    5950:	10a30000 	addk	r5, r3, r0
    5954:	b0000000 	imm	0
    5958:	b9f4acd8 	brlid	r15, -21288	// 10630 <__muldf3>
    595c:	137c0000 	addk	r27, r28, r0
    5960:	11030000 	addk	r8, r3, r0
    5964:	10b60000 	addk	r5, r22, r0
    5968:	10d70000 	addk	r6, r23, r0
    596c:	10e80000 	addk	r7, r8, r0
    5970:	b0000000 	imm	0
    5974:	b9f4ac4c 	brlid	r15, -21428	// 105c0 <__subdf3>
    5978:	11040000 	addk	r8, r4, r0
    597c:	e8c10030 	lwi	r6, r1, 48
    5980:	10a40000 	addk	r5, r4, r0
    5984:	10830000 	addk	r4, r3, r0
    5988:	307a0030 	addik	r3, r26, 48
    598c:	f0660000 	sbi	r3, r6, 0
    5990:	e8c1002c 	lwi	r6, r1, 44
    5994:	11440000 	addk	r10, r4, r0
    5998:	a8660001 	xori	r3, r6, 1
    599c:	be03012c 	beqid	r3, 300		// 5ac8
    59a0:	11650000 	addk	r11, r5, r0
    59a4:	10c50000 	addk	r6, r5, r0
    59a8:	b0004024 	imm	16420
    59ac:	30e00000 	addik	r7, r0, 0
    59b0:	31000000 	addik	r8, r0, 0
    59b4:	b0000000 	imm	0
    59b8:	b9f4ac78 	brlid	r15, -21384	// 10630 <__muldf3>
    59bc:	10a40000 	addk	r5, r4, r0
    59c0:	12c30000 	addk	r22, r3, r0
    59c4:	10c40000 	addk	r6, r4, r0
    59c8:	12e40000 	addk	r23, r4, r0
    59cc:	10e00000 	addk	r7, r0, r0
    59d0:	11000000 	addk	r8, r0, r0
    59d4:	b0000000 	imm	0
    59d8:	b9f4b684 	brlid	r15, -18812	// 1105c <__eqdf2>
    59dc:	10b60000 	addk	r5, r22, r0
    59e0:	be030454 	beqid	r3, 1108		// 5e34
    59e4:	ebc1002c 	lwi	r30, r1, 44
    59e8:	b8100038 	brid	56		// 5a20
    59ec:	ebe10030 	lwi	r31, r1, 48
    59f0:	b0000000 	imm	0
    59f4:	b9f4ac3c 	brlid	r15, -21444	// 10630 <__muldf3>
    59f8:	80000000 	or	r0, r0, r0
    59fc:	12c30000 	addk	r22, r3, r0
    5a00:	10c40000 	addk	r6, r4, r0
    5a04:	12e40000 	addk	r23, r4, r0
    5a08:	10e00000 	addk	r7, r0, r0
    5a0c:	11000000 	addk	r8, r0, r0
    5a10:	b0000000 	imm	0
    5a14:	b9f4b648 	brlid	r15, -18872	// 1105c <__eqdf2>
    5a18:	10b60000 	addk	r5, r22, r0
    5a1c:	bc030418 	beqi	r3, 1048		// 5e34
    5a20:	10f80000 	addk	r7, r24, r0
    5a24:	11190000 	addk	r8, r25, r0
    5a28:	10b60000 	addk	r5, r22, r0
    5a2c:	b0000000 	imm	0
    5a30:	b9f4b2d4 	brlid	r15, -19756	// 10d04 <__divdf3>
    5a34:	10d70000 	addk	r6, r23, r0
    5a38:	10a40000 	addk	r5, r4, r0
    5a3c:	10c50000 	addk	r6, r5, r0
    5a40:	b0000000 	imm	0
    5a44:	b9f4ba24 	brlid	r15, -17884	// 11468 <__fixdfsi>
    5a48:	10a30000 	addk	r5, r3, r0
    5a4c:	10a30000 	addk	r5, r3, r0
    5a50:	b0000000 	imm	0
    5a54:	b9f4b85c 	brlid	r15, -18340	// 112b0 <__floatsidf>
    5a58:	13430000 	addk	r26, r3, r0
    5a5c:	10a40000 	addk	r5, r4, r0
    5a60:	10f80000 	addk	r7, r24, r0
    5a64:	11190000 	addk	r8, r25, r0
    5a68:	10c50000 	addk	r6, r5, r0
    5a6c:	b0000000 	imm	0
    5a70:	b9f4abc0 	brlid	r15, -21568	// 10630 <__muldf3>
    5a74:	10a30000 	addk	r5, r3, r0
    5a78:	11030000 	addk	r8, r3, r0
    5a7c:	10b60000 	addk	r5, r22, r0
    5a80:	10d70000 	addk	r6, r23, r0
    5a84:	10e80000 	addk	r7, r8, r0
    5a88:	b0000000 	imm	0
    5a8c:	b9f4ab34 	brlid	r15, -21708	// 105c0 <__subdf3>
    5a90:	11040000 	addk	r8, r4, r0
    5a94:	11430000 	addk	r10, r3, r0
    5a98:	307a0030 	addik	r3, r26, 48
    5a9c:	f07b0000 	sbi	r3, r27, 0
    5aa0:	337b0001 	addik	r27, r27, 1
    5aa4:	147fd800 	rsubk	r3, r31, r27
    5aa8:	887e1800 	xor	r3, r30, r3
    5aac:	11640000 	addk	r11, r4, r0
    5ab0:	b0004024 	imm	16420
    5ab4:	30e00000 	addik	r7, r0, 0
    5ab8:	31000000 	addik	r8, r0, 0
    5abc:	10aa0000 	addk	r5, r10, r0
    5ac0:	be23ff30 	bneid	r3, -208		// 59f0
    5ac4:	10c40000 	addk	r6, r4, r0
    5ac8:	10aa0000 	addk	r5, r10, r0
    5acc:	10cb0000 	addk	r6, r11, r0
    5ad0:	10ea0000 	addk	r7, r10, r0
    5ad4:	b0000000 	imm	0
    5ad8:	b9f4aa84 	brlid	r15, -21884	// 1055c <__adddf3>
    5adc:	110b0000 	addk	r8, r11, r0
    5ae0:	12c30000 	addk	r22, r3, r0
    5ae4:	10b80000 	addk	r5, r24, r0
    5ae8:	10d90000 	addk	r6, r25, r0
    5aec:	10f60000 	addk	r7, r22, r0
    5af0:	11040000 	addk	r8, r4, r0
    5af4:	b0000000 	imm	0
    5af8:	b9f4b744 	brlid	r15, -18620	// 1123c <__ltdf2>
    5afc:	12e40000 	addk	r23, r4, r0
    5b00:	bea30ee4 	bgeid	r3, 3812		// 69e4
    5b04:	10b80000 	addk	r5, r24, r0
    5b08:	e31bffff 	lbui	r24, r27, -1
    5b0c:	e8810024 	lwi	r4, r1, 36
    5b10:	93180060 	sext8	r24, r24
    5b14:	f8810068 	swi	r4, r1, 104
    5b18:	b8100014 	brid	20		// 5b2c
    5b1c:	107b0000 	addk	r3, r27, r0
    5b20:	e303fffe 	lbui	r24, r3, -2
    5b24:	10640000 	addk	r3, r4, r0
    5b28:	93180060 	sext8	r24, r24
    5b2c:	a8b80039 	xori	r5, r24, 57
    5b30:	13630000 	addk	r27, r3, r0
    5b34:	88dc1800 	xor	r6, r28, r3
    5b38:	be250e1c 	bneid	r5, 3612		// 6954
    5b3c:	3083ffff 	addik	r4, r3, -1
    5b40:	be26ffe0 	bneid	r6, -32		// 5b20
    5b44:	e8c10068 	lwi	r6, r1, 104
    5b48:	30600030 	addik	r3, r0, 48
    5b4c:	f0640000 	sbi	r3, r4, 0
    5b50:	30c60001 	addik	r6, r6, 1
    5b54:	30600031 	addik	r3, r0, 49
    5b58:	f8c10024 	swi	r6, r1, 36
    5b5c:	b81002d8 	brid	728		// 5e34
    5b60:	f0640000 	sbi	r3, r4, 0
    5b64:	e8c10048 	lwi	r6, r1, 72
    5b68:	be060480 	beqid	r6, 1152		// 5fe8
    5b6c:	eb010044 	lwi	r24, r1, 68
    5b70:	30800001 	addik	r4, r0, 1
    5b74:	149e2001 	cmp	r4, r30, r4
    5b78:	bea40da4 	bgeid	r4, 3492		// 691c
    5b7c:	e8c1002c 	lwi	r6, r1, 44
    5b80:	e8810044 	lwi	r4, r1, 68
    5b84:	3306ffff 	addik	r24, r6, -1
    5b88:	14782001 	cmp	r3, r24, r4
    5b8c:	be430c48 	bltid	r3, 3144		// 67d4
    5b90:	e8a10044 	lwi	r5, r1, 68
    5b94:	17182000 	rsubk	r24, r24, r4
    5b98:	e861002c 	lwi	r3, r1, 44
    5b9c:	be430da4 	bltid	r3, 3492		// 6940
    5ba0:	e8810034 	lwi	r4, r1, 52
    5ba4:	eb210034 	lwi	r25, r1, 52
    5ba8:	e8810034 	lwi	r4, r1, 52
    5bac:	10b30000 	addk	r5, r19, r0
    5bb0:	30c00001 	addik	r6, r0, 1
    5bb4:	10841800 	addk	r4, r4, r3
    5bb8:	f8810034 	swi	r4, r1, 52
    5bbc:	b9f435d8 	brlid	r15, 13784	// 9194 <__i2b>
    5bc0:	13ff1800 	addk	r31, r31, r3
    5bc4:	13830000 	addk	r28, r3, r0
    5bc8:	be7f0030 	bleid	r31, 48		// 5bf8
    5bcc:	e8c10044 	lwi	r6, r1, 68
    5bd0:	be790028 	bleid	r25, 40		// 5bf8
    5bd4:	149fc801 	cmp	r4, r31, r25
    5bd8:	be440d60 	bltid	r4, 3424		// 6938
    5bdc:	107f0000 	addk	r3, r31, r0
    5be0:	e8a10034 	lwi	r5, r1, 52
    5be4:	1723c800 	rsubk	r25, r3, r25
    5be8:	17e3f800 	rsubk	r31, r3, r31
    5bec:	14a32800 	rsubk	r5, r3, r5
    5bf0:	f8a10034 	swi	r5, r1, 52
    5bf4:	e8c10044 	lwi	r6, r1, 68
    5bf8:	be660058 	bleid	r6, 88		// 5c50
    5bfc:	e8610048 	lwi	r3, r1, 72
    5c00:	be030bc0 	beqid	r3, 3008		// 67c0
    5c04:	10dd0000 	addk	r6, r29, r0
    5c08:	be780038 	bleid	r24, 56		// 5c40
    5c0c:	10dc0000 	addk	r6, r28, r0
    5c10:	10b30000 	addk	r5, r19, r0
    5c14:	b9f43b44 	brlid	r15, 15172	// 9758 <__pow5mult>
    5c18:	10f80000 	addk	r7, r24, r0
    5c1c:	10b30000 	addk	r5, r19, r0
    5c20:	10c30000 	addk	r6, r3, r0
    5c24:	10fd0000 	addk	r7, r29, r0
    5c28:	b9f435a0 	brlid	r15, 13728	// 91c8 <__multiply>
    5c2c:	13830000 	addk	r28, r3, r0
    5c30:	10dd0000 	addk	r6, r29, r0
    5c34:	10b30000 	addk	r5, r19, r0
    5c38:	b9f42f2c 	brlid	r15, 12076	// 8b64 <_Bfree>
    5c3c:	13a30000 	addk	r29, r3, r0
    5c40:	e8810044 	lwi	r4, r1, 68
    5c44:	14f82000 	rsubk	r7, r24, r4
    5c48:	be270c5c 	bneid	r7, 3164		// 68a4
    5c4c:	10dd0000 	addk	r6, r29, r0
    5c50:	10b30000 	addk	r5, r19, r0
    5c54:	b9f43540 	brlid	r15, 13632	// 9194 <__i2b>
    5c58:	30c00001 	addik	r6, r0, 1
    5c5c:	e8a1004c 	lwi	r5, r1, 76
    5c60:	be65001c 	bleid	r5, 28		// 5c7c
    5c64:	13030000 	addk	r24, r3, r0
    5c68:	10b30000 	addk	r5, r19, r0
    5c6c:	10c30000 	addk	r6, r3, r0
    5c70:	b9f43ae8 	brlid	r15, 15080	// 9758 <__pow5mult>
    5c74:	e8e1004c 	lwi	r7, r1, 76
    5c78:	13030000 	addk	r24, r3, r0
    5c7c:	30600001 	addik	r3, r0, 1
    5c80:	149e1801 	cmp	r4, r30, r3
    5c84:	bea4085c 	bgeid	r4, 2140		// 64e0
    5c88:	13600000 	addk	r27, r0, r0
    5c8c:	e881004c 	lwi	r4, r1, 76
    5c90:	be2407dc 	bneid	r4, 2012		// 646c
    5c94:	30600001 	addik	r3, r0, 1
    5c98:	1063f800 	addk	r3, r3, r31
    5c9c:	a463001f 	andi	r3, r3, 31
    5ca0:	be03046c 	beqid	r3, 1132		// 610c
    5ca4:	30c00020 	addik	r6, r0, 32
    5ca8:	14833000 	rsubk	r4, r3, r6
    5cac:	30a00004 	addik	r5, r0, 4	// 4 <_.xy>
    5cb0:	14a42801 	cmp	r5, r4, r5
    5cb4:	bea50de0 	bgeid	r5, 3552		// 6a94
    5cb8:	e8a10034 	lwi	r5, r1, 52
    5cbc:	3080001c 	addik	r4, r0, 28	// 1c <_.d4>
    5cc0:	14632000 	rsubk	r3, r3, r4
    5cc4:	10a51800 	addk	r5, r5, r3
    5cc8:	f8a10034 	swi	r5, r1, 52
    5ccc:	13391800 	addk	r25, r25, r3
    5cd0:	13ff1800 	addk	r31, r31, r3
    5cd4:	e8a10034 	lwi	r5, r1, 52
    5cd8:	be650018 	bleid	r5, 24		// 5cf0
    5cdc:	10dd0000 	addk	r6, r29, r0
    5ce0:	10b30000 	addk	r5, r19, r0
    5ce4:	b9f43bb4 	brlid	r15, 15284	// 9898 <__lshift>
    5ce8:	e8e10034 	lwi	r7, r1, 52
    5cec:	13a30000 	addk	r29, r3, r0
    5cf0:	be7f0018 	bleid	r31, 24		// 5d08
    5cf4:	10d80000 	addk	r6, r24, r0
    5cf8:	10b30000 	addk	r5, r19, r0
    5cfc:	b9f43b9c 	brlid	r15, 15260	// 9898 <__lshift>
    5d00:	10ff0000 	addk	r7, r31, r0
    5d04:	13030000 	addk	r24, r3, r0
    5d08:	e8c10040 	lwi	r6, r1, 64
    5d0c:	be260700 	bneid	r6, 1792		// 640c
    5d10:	10bd0000 	addk	r5, r29, r0
    5d14:	30600002 	addik	r3, r0, 2
    5d18:	147e1801 	cmp	r3, r30, r3
    5d1c:	be43040c 	bltid	r3, 1036		// 6128
    5d20:	e861002c 	lwi	r3, r1, 44
    5d24:	e8610048 	lwi	r3, r1, 72
    5d28:	bc23082c 	bnei	r3, 2092		// 6554
    5d2c:	12c00000 	addk	r22, r0, r0
    5d30:	eae1002c 	lwi	r23, r1, 44
    5d34:	b8100014 	brid	20		// 5d48
    5d38:	eb210030 	lwi	r25, r1, 48
    5d3c:	b9f42ea8 	brlid	r15, 11944	// 8be4 <__multadd>
    5d40:	80000000 	or	r0, r0, r0
    5d44:	13a30000 	addk	r29, r3, r0
    5d48:	10bd0000 	addk	r5, r29, r0
    5d4c:	b9f4ec30 	brlid	r15, -5072	// 497c <quorem>
    5d50:	10d80000 	addk	r6, r24, r0
    5d54:	30630030 	addik	r3, r3, 48
    5d58:	d076c800 	sb	r3, r22, r25
    5d5c:	32d60001 	addik	r22, r22, 1
    5d60:	1497b001 	cmp	r4, r23, r22
    5d64:	10b30000 	addk	r5, r19, r0
    5d68:	10dd0000 	addk	r6, r29, r0
    5d6c:	30e0000a 	addik	r7, r0, 10
    5d70:	be44ffcc 	bltid	r4, -52		// 5d3c
    5d74:	11000000 	addk	r8, r0, r0
    5d78:	12e30000 	addk	r23, r3, r0
    5d7c:	e861002c 	lwi	r3, r1, 44
    5d80:	bc630ce8 	blei	r3, 3304		// 6a68
    5d84:	e8a10030 	lwi	r5, r1, 48
    5d88:	12c00000 	addk	r22, r0, r0
    5d8c:	13651800 	addk	r27, r5, r3
    5d90:	10dd0000 	addk	r6, r29, r0
    5d94:	10b30000 	addk	r5, r19, r0
    5d98:	b9f43b00 	brlid	r15, 15104	// 9898 <__lshift>
    5d9c:	30e00001 	addik	r7, r0, 1
    5da0:	10a30000 	addk	r5, r3, r0
    5da4:	10d80000 	addk	r6, r24, r0
    5da8:	b9f43ca0 	brlid	r15, 15520	// 9a48 <__mcmp>
    5dac:	13a30000 	addk	r29, r3, r0
    5db0:	bc630bbc 	blei	r3, 3004		// 696c
    5db4:	e09bffff 	lbui	r4, r27, -1
    5db8:	90840060 	sext8	r4, r4
    5dbc:	e8a10030 	lwi	r5, r1, 48
    5dc0:	107b0000 	addk	r3, r27, r0
    5dc4:	b8100014 	brid	20		// 5dd8
    5dc8:	31050001 	addik	r8, r5, 1
    5dcc:	e083fffe 	lbui	r4, r3, -2
    5dd0:	10660000 	addk	r3, r6, r0
    5dd4:	90840060 	sext8	r4, r4
    5dd8:	a8a40039 	xori	r5, r4, 57
    5ddc:	13630000 	addk	r27, r3, r0
    5de0:	88e34000 	xor	r7, r3, r8
    5de4:	be250c38 	bneid	r5, 3128		// 6a1c
    5de8:	30c3ffff 	addik	r6, r3, -1
    5dec:	be27ffe0 	bneid	r7, -32		// 5dcc
    5df0:	30800031 	addik	r4, r0, 49
    5df4:	e8610024 	lwi	r3, r1, 36
    5df8:	30630001 	addik	r3, r3, 1
    5dfc:	f8610024 	swi	r3, r1, 36
    5e00:	f0860000 	sbi	r4, r6, 0
    5e04:	10b30000 	addk	r5, r19, r0
    5e08:	b9f42d5c 	brlid	r15, 11612	// 8b64 <_Bfree>
    5e0c:	10d80000 	addk	r6, r24, r0
    5e10:	be1c0024 	beqid	r28, 36		// 5e34
    5e14:	8876e000 	xor	r3, r22, r28
    5e18:	14830000 	rsubk	r4, r3, r0
    5e1c:	80641800 	or	r3, r4, r3
    5e20:	be430368 	bltid	r3, 872		// 6188
    5e24:	14760000 	rsubk	r3, r22, r0
    5e28:	10b30000 	addk	r5, r19, r0
    5e2c:	b9f42d38 	brlid	r15, 11576	// 8b64 <_Bfree>
    5e30:	10dc0000 	addk	r6, r28, r0
    5e34:	10b30000 	addk	r5, r19, r0
    5e38:	b9f42d2c 	brlid	r15, 11564	// 8b64 <_Bfree>
    5e3c:	10dd0000 	addk	r6, r29, r0
    5e40:	e8810024 	lwi	r4, r1, 36
    5e44:	e8a100bc 	lwi	r5, r1, 188
    5e48:	e8c100c4 	lwi	r6, r1, 196
    5e4c:	f01b0000 	sbi	r0, r27, 0
    5e50:	30640001 	addik	r3, r4, 1
    5e54:	be060350 	beqid	r6, 848		// 61a4
    5e58:	f8650000 	swi	r3, r5, 0
    5e5c:	fb660000 	swi	r27, r6, 0
    5e60:	b810f1a8 	brid	-3672		// 5008
    5e64:	e8610030 	lwi	r3, r1, 48
    5e68:	b9f41da0 	brlid	r15, 7584	// 7c08 <malloc>
    5e6c:	30a00010 	addik	r5, r0, 16	// 10 <_.d1>
    5e70:	f8730024 	swi	r3, r19, 36
    5e74:	fb030004 	swi	r24, r3, 4
    5e78:	fb030008 	swi	r24, r3, 8
    5e7c:	fb030000 	swi	r24, r3, 0
    5e80:	b810f124 	brid	-3804		// 4fa4
    5e84:	fb03000c 	swi	r24, r3, 12
    5e88:	e8810034 	lwi	r4, r1, 52
    5e8c:	e8a10024 	lwi	r5, r1, 36
    5e90:	f861004c 	swi	r3, r1, 76
    5e94:	14852000 	rsubk	r4, r5, r4
    5e98:	14c50000 	rsubk	r6, r5, r0
    5e9c:	f8810034 	swi	r4, r1, 52
    5ea0:	b810f42c 	brid	-3028		// 52cc
    5ea4:	f8c10044 	swi	r6, r1, 68
    5ea8:	17ff0000 	rsubk	r31, r31, r0
    5eac:	fbe10034 	swi	r31, r1, 52
    5eb0:	b810f404 	brid	-3068		// 52b4
    5eb4:	13e00000 	addk	r31, r0, r0
    5eb8:	b0000000 	imm	0
    5ebc:	b9f4b3f4 	brlid	r15, -19468	// 112b0 <__floatsidf>
    5ec0:	e8a10024 	lwi	r5, r1, 36
    5ec4:	10a40000 	addk	r5, r4, r0
    5ec8:	10f80000 	addk	r7, r24, r0
    5ecc:	11190000 	addk	r8, r25, r0
    5ed0:	10c50000 	addk	r6, r5, r0
    5ed4:	b0000000 	imm	0
    5ed8:	b9f4b1f8 	brlid	r15, -19976	// 110d0 <__nedf2>
    5edc:	10a30000 	addk	r5, r3, r0
    5ee0:	be03f360 	beqid	r3, -3232		// 5240
    5ee4:	e8810024 	lwi	r4, r1, 36
    5ee8:	e8610024 	lwi	r3, r1, 36
    5eec:	3063ffff 	addik	r3, r3, -1
    5ef0:	b810f34c 	brid	-3252		// 523c
    5ef4:	f8610024 	swi	r3, r1, 36
    5ef8:	b810f3a8 	brid	-3160		// 52a0
    5efc:	f8810040 	swi	r4, r1, 64
    5f00:	30800003 	addik	r4, r0, 3
    5f04:	149e2001 	cmp	r4, r30, r4
    5f08:	be440104 	bltid	r4, 260		// 600c
    5f0c:	a89e0002 	xori	r4, r30, 2
    5f10:	bc24f95c 	bnei	r4, -1700		// 586c
    5f14:	f8810048 	swi	r4, r1, 72
    5f18:	e8c100b8 	lwi	r6, r1, 184
    5f1c:	be6607f8 	bleid	r6, 2040		// 6714
    5f20:	3080000e 	addik	r4, r0, 14
    5f24:	14862003 	cmpu	r4, r6, r4
    5f28:	a884ffff 	xori	r4, r4, -1
    5f2c:	13202000 	addk	r25, r0, r4
    5f30:	93240041 	srl	r25, r4
    5f34:	93390041 	srl	r25, r25
    5f38:	93390041 	srl	r25, r25
    5f3c:	93390041 	srl	r25, r25
    5f40:	93390041 	srl	r25, r25
    5f44:	93390041 	srl	r25, r25
    5f48:	93390041 	srl	r25, r25
    5f4c:	93390041 	srl	r25, r25
    5f50:	93390041 	srl	r25, r25
    5f54:	93390041 	srl	r25, r25
    5f58:	93390041 	srl	r25, r25
    5f5c:	93390041 	srl	r25, r25
    5f60:	93390041 	srl	r25, r25
    5f64:	93390041 	srl	r25, r25
    5f68:	93390041 	srl	r25, r25
    5f6c:	93390041 	srl	r25, r25
    5f70:	93390041 	srl	r25, r25
    5f74:	93390041 	srl	r25, r25
    5f78:	93390041 	srl	r25, r25
    5f7c:	93390041 	srl	r25, r25
    5f80:	93390041 	srl	r25, r25
    5f84:	93390041 	srl	r25, r25
    5f88:	93390041 	srl	r25, r25
    5f8c:	93390041 	srl	r25, r25
    5f90:	93390041 	srl	r25, r25
    5f94:	93390041 	srl	r25, r25
    5f98:	93390041 	srl	r25, r25
    5f9c:	93390041 	srl	r25, r25
    5fa0:	93390041 	srl	r25, r25
    5fa4:	93390041 	srl	r25, r25
    5fa8:	93390041 	srl	r25, r25
    5fac:	f8c10050 	swi	r6, r1, 80
    5fb0:	8723c800 	and	r25, r3, r25
    5fb4:	b810f3f4 	brid	-3084		// 53a8
    5fb8:	f8c1002c 	swi	r6, r1, 44
    5fbc:	30a0fbee 	addik	r5, r0, -1042
    5fc0:	147a2800 	rsubk	r3, r26, r5
    5fc4:	a643001f 	andi	r18, r3, 31
    5fc8:	10a0b800 	addk	r5, r0, r23
    5fcc:	be120014 	beqid	r18, 20		// 5fe0
    5fd0:	10a50000 	addk	r5, r5, r0
    5fd4:	3252ffff 	addik	r18, r18, -1
    5fd8:	be32fffc 	bneid	r18, -4		// 5fd4
    5fdc:	10a52800 	addk	r5, r5, r5
    5fe0:	b810f864 	brid	-1948		// 5844
    5fe4:	30c00001 	addik	r6, r0, 1
    5fe8:	eb210034 	lwi	r25, r1, 52
    5fec:	b810fbdc 	brid	-1060		// 5bc8
    5ff0:	eb810048 	lwi	r28, r1, 72
    5ff4:	e8810054 	lwi	r4, r1, 84
    5ff8:	e8a10058 	lwi	r5, r1, 88
    5ffc:	f8810038 	swi	r4, r1, 56
    6000:	f8a1003c 	swi	r5, r1, 60
    6004:	b810f478 	brid	-2952		// 547c
    6008:	32c00002 	addik	r22, r0, 2
    600c:	a89e0004 	xori	r4, r30, 4
    6010:	be0406fc 	beqid	r4, 1788		// 670c
    6014:	30800001 	addik	r4, r0, 1
    6018:	a89e0005 	xori	r4, r30, 5
    601c:	be24f850 	bneid	r4, -1968		// 586c
    6020:	30a00001 	addik	r5, r0, 1
    6024:	b810f2d8 	brid	-3368		// 52fc
    6028:	f8a10048 	swi	r5, r1, 72
    602c:	b0000000 	imm	0
    6030:	b9f4b280 	brlid	r15, -19840	// 112b0 <__floatsidf>
    6034:	10b60000 	addk	r5, r22, r0
    6038:	10a40000 	addk	r5, r4, r0
    603c:	e8e10038 	lwi	r7, r1, 56
    6040:	e901003c 	lwi	r8, r1, 60
    6044:	10c50000 	addk	r6, r5, r0
    6048:	b0000000 	imm	0
    604c:	b9f4a5e4 	brlid	r15, -23068	// 10630 <__muldf3>
    6050:	10a30000 	addk	r5, r3, r0
    6054:	10a40000 	addk	r5, r4, r0
    6058:	b000401c 	imm	16412
    605c:	30e00000 	addik	r7, r0, 0
    6060:	31000000 	addik	r8, r0, 0
    6064:	10c50000 	addk	r6, r5, r0
    6068:	b0000000 	imm	0
    606c:	b9f4a4f0 	brlid	r15, -23312	// 1055c <__adddf3>
    6070:	10a30000 	addk	r5, r3, r0
    6074:	13430000 	addk	r26, r3, r0
    6078:	13640000 	addk	r27, r4, r0
    607c:	b000fcc0 	imm	-832
    6080:	335a0000 	addik	r26, r26, 0
    6084:	b0004014 	imm	16404
    6088:	30e00000 	addik	r7, r0, 0
    608c:	31000000 	addik	r8, r0, 0
    6090:	e8a10038 	lwi	r5, r1, 56
    6094:	e8c1003c 	lwi	r6, r1, 60
    6098:	b0000000 	imm	0
    609c:	b9f4a524 	brlid	r15, -23260	// 105c0 <__subdf3>
    60a0:	80000000 	or	r0, r0, r0
    60a4:	13030000 	addk	r24, r3, r0
    60a8:	10c40000 	addk	r6, r4, r0
    60ac:	10fa0000 	addk	r7, r26, r0
    60b0:	10b80000 	addk	r5, r24, r0
    60b4:	111b0000 	addk	r8, r27, r0
    60b8:	b0000000 	imm	0
    60bc:	b9f4b088 	brlid	r15, -20344	// 11144 <__gtdf2>
    60c0:	13240000 	addk	r25, r4, r0
    60c4:	be83033c 	bgtid	r3, 828		// 6400
    60c8:	10b80000 	addk	r5, r24, r0
    60cc:	b0008000 	imm	-32768
    60d0:	311a0000 	addik	r8, r26, 0
    60d4:	10e80000 	addk	r7, r8, r0
    60d8:	10d90000 	addk	r6, r25, r0
    60dc:	b0000000 	imm	0
    60e0:	b9f4b15c 	brlid	r15, -20132	// 1123c <__ltdf2>
    60e4:	111b0000 	addk	r8, r27, r0
    60e8:	bca300c8 	bgei	r3, 200		// 61b0
    60ec:	13000000 	addk	r24, r0, r0
    60f0:	13980000 	addk	r28, r24, r0
    60f4:	e86100b8 	lwi	r3, r1, 184
    60f8:	eb610030 	lwi	r27, r1, 48
    60fc:	12c00000 	addk	r22, r0, r0
    6100:	a863ffff 	xori	r3, r3, -1
    6104:	b810fd00 	brid	-768		// 5e04
    6108:	f8610024 	swi	r3, r1, 36
    610c:	3060001c 	addik	r3, r0, 28	// 1c <_.d4>
    6110:	e8810034 	lwi	r4, r1, 52
    6114:	13391800 	addk	r25, r25, r3
    6118:	13ff1800 	addk	r31, r31, r3
    611c:	10841800 	addk	r4, r4, r3
    6120:	b810fbb4 	brid	-1100		// 5cd4
    6124:	f8810034 	swi	r4, r1, 52
    6128:	be83fc00 	bgtid	r3, -1024		// 5d28
    612c:	e8610048 	lwi	r3, r1, 72
    6130:	e8c1002c 	lwi	r6, r1, 44
    6134:	be26ffc0 	bneid	r6, -64		// 60f4
    6138:	10d80000 	addk	r6, r24, r0
    613c:	10b30000 	addk	r5, r19, r0
    6140:	e901002c 	lwi	r8, r1, 44
    6144:	b9f42aa0 	brlid	r15, 10912	// 8be4 <__multadd>
    6148:	30e00005 	addik	r7, r0, 5
    614c:	10bd0000 	addk	r5, r29, r0
    6150:	10c30000 	addk	r6, r3, r0
    6154:	b9f438f4 	brlid	r15, 14580	// 9a48 <__mcmp>
    6158:	13030000 	addk	r24, r3, r0
    615c:	be63ff9c 	bleid	r3, -100		// 60f8
    6160:	e86100b8 	lwi	r3, r1, 184
    6164:	e8c10024 	lwi	r6, r1, 36
    6168:	e8810030 	lwi	r4, r1, 48
    616c:	30a00031 	addik	r5, r0, 49
    6170:	30c60001 	addik	r6, r6, 1
    6174:	f0a40000 	sbi	r5, r4, 0
    6178:	33640001 	addik	r27, r4, 1
    617c:	f8c10024 	swi	r6, r1, 36
    6180:	b810fc84 	brid	-892		// 5e04
    6184:	12c00000 	addk	r22, r0, r0
    6188:	80761800 	or	r3, r22, r3
    618c:	bea3fc9c 	bgeid	r3, -868		// 5e28
    6190:	10b30000 	addk	r5, r19, r0
    6194:	b9f429d0 	brlid	r15, 10704	// 8b64 <_Bfree>
    6198:	10d60000 	addk	r6, r22, r0
    619c:	b810fc90 	brid	-880		// 5e2c
    61a0:	10b30000 	addk	r5, r19, r0
    61a4:	b810ee64 	brid	-4508		// 5008
    61a8:	e8610030 	lwi	r3, r1, 48
    61ac:	ebe10038 	lwi	r31, r1, 56
    61b0:	eac10054 	lwi	r22, r1, 84
    61b4:	eae10058 	lwi	r23, r1, 88
    61b8:	b810f6f8 	brid	-2312		// 58b0
    61bc:	e861001c 	lwi	r3, r1, 28
    61c0:	e8a10024 	lwi	r5, r1, 36
    61c4:	14650000 	rsubk	r3, r5, r0
    61c8:	be0306c4 	beqid	r3, 1732		// 688c
    61cc:	a483000f 	andi	r4, r3, 15
    61d0:	b0000001 	imm	1
    61d4:	30a02ce4 	addik	r5, r0, 11492	// 12ce4 <__mprec_tens>
    61d8:	10842000 	addk	r4, r4, r4
    61dc:	10842000 	addk	r4, r4, r4
    61e0:	10842000 	addk	r4, r4, r4
    61e4:	10852000 	addk	r4, r5, r4
    61e8:	e8e40000 	lwi	r7, r4, 0
    61ec:	e9040004 	lwi	r8, r4, 4
    61f0:	e8a10054 	lwi	r5, r1, 84
    61f4:	e8c10058 	lwi	r6, r1, 88
    61f8:	12e01800 	addk	r23, r0, r3
    61fc:	92e30001 	sra	r23, r3
    6200:	92f70001 	sra	r23, r23
    6204:	92f70001 	sra	r23, r23
    6208:	92f70001 	sra	r23, r23
    620c:	b0000000 	imm	0
    6210:	b9f4a420 	brlid	r15, -23520	// 10630 <__muldf3>
    6214:	80000000 	or	r0, r0, r0
    6218:	f8610038 	swi	r3, r1, 56
    621c:	f881003c 	swi	r4, r1, 60
    6220:	be170850 	beqid	r23, 2128		// 6a70
    6224:	10a40000 	addk	r5, r4, r0
    6228:	10830000 	addk	r4, r3, r0
    622c:	13000000 	addk	r24, r0, r0
    6230:	32c00002 	addik	r22, r0, 2
    6234:	a4770001 	andi	r3, r23, 1
    6238:	be030034 	beqid	r3, 52		// 626c
    623c:	92f70001 	sra	r23, r23
    6240:	10c50000 	addk	r6, r5, r0
    6244:	b0000001 	imm	1
    6248:	e8f82cbc 	lwi	r7, r24, 11452
    624c:	b0000001 	imm	1
    6250:	e9182cc0 	lwi	r8, r24, 11456
    6254:	10a40000 	addk	r5, r4, r0
    6258:	b0000000 	imm	0
    625c:	b9f4a3d4 	brlid	r15, -23596	// 10630 <__muldf3>
    6260:	32d60001 	addik	r22, r22, 1
    6264:	10a40000 	addk	r5, r4, r0
    6268:	10830000 	addk	r4, r3, r0
    626c:	be37ffc8 	bneid	r23, -56		// 6234
    6270:	33180008 	addik	r24, r24, 8
    6274:	f8810038 	swi	r4, r1, 56
    6278:	f8a1003c 	swi	r5, r1, 60
    627c:	b810f26c 	brid	-3476		// 54e8
    6280:	e8a10040 	lwi	r5, r1, 64
    6284:	f8610060 	swi	r3, r1, 96
    6288:	b0000001 	imm	1
    628c:	30802ce4 	addik	r4, r0, 11492	// 12ce4 <__mprec_tens>
    6290:	10631800 	addk	r3, r3, r3
    6294:	10631800 	addk	r3, r3, r3
    6298:	10631800 	addk	r3, r3, r3
    629c:	10641800 	addk	r3, r4, r3
    62a0:	10fa0000 	addk	r7, r26, r0
    62a4:	111b0000 	addk	r8, r27, r0
    62a8:	e8a30000 	lwi	r5, r3, 0
    62ac:	e8c30004 	lwi	r6, r3, 4
    62b0:	e8610030 	lwi	r3, r1, 48
    62b4:	b0000000 	imm	0
    62b8:	b9f4a378 	brlid	r15, -23688	// 10630 <__muldf3>
    62bc:	33830001 	addik	r28, r3, 1
    62c0:	e8a10038 	lwi	r5, r1, 56
    62c4:	e8c1003c 	lwi	r6, r1, 60
    62c8:	f861006c 	swi	r3, r1, 108
    62cc:	f8810070 	swi	r4, r1, 112
    62d0:	b0000000 	imm	0
    62d4:	b9f4b194 	brlid	r15, -20076	// 11468 <__fixdfsi>
    62d8:	137c0000 	addk	r27, r28, r0
    62dc:	10a30000 	addk	r5, r3, r0
    62e0:	e8810030 	lwi	r4, r1, 48
    62e4:	13430000 	addk	r26, r3, r0
    62e8:	b0000000 	imm	0
    62ec:	b9f4afc4 	brlid	r15, -20540	// 112b0 <__floatsidf>
    62f0:	1304c800 	addk	r24, r4, r25
    62f4:	11030000 	addk	r8, r3, r0
    62f8:	e8a10038 	lwi	r5, r1, 56
    62fc:	e8c1003c 	lwi	r6, r1, 60
    6300:	335a0030 	addik	r26, r26, 48
    6304:	10e80000 	addk	r7, r8, r0
    6308:	b0000000 	imm	0
    630c:	b9f4a2b4 	brlid	r15, -23884	// 105c0 <__subdf3>
    6310:	11040000 	addk	r8, r4, r0
    6314:	e8a10030 	lwi	r5, r1, 48
    6318:	12c30000 	addk	r22, r3, r0
    631c:	a8790001 	xori	r3, r25, 1
    6320:	f3450000 	sbi	r26, r5, 0
    6324:	12e40000 	addk	r23, r4, r0
    6328:	be03008c 	beqid	r3, 140		// 63b4
    632c:	133c0000 	addk	r25, r28, r0
    6330:	b0004024 	imm	16420
    6334:	30e00000 	addik	r7, r0, 0
    6338:	31000000 	addik	r8, r0, 0
    633c:	10b60000 	addk	r5, r22, r0
    6340:	b0000000 	imm	0
    6344:	b9f4a2ec 	brlid	r15, -23828	// 10630 <__muldf3>
    6348:	10d70000 	addk	r6, r23, r0
    634c:	12c30000 	addk	r22, r3, r0
    6350:	10c40000 	addk	r6, r4, r0
    6354:	12e40000 	addk	r23, r4, r0
    6358:	b0000000 	imm	0
    635c:	b9f4b10c 	brlid	r15, -20212	// 11468 <__fixdfsi>
    6360:	10b60000 	addk	r5, r22, r0
    6364:	10a30000 	addk	r5, r3, r0
    6368:	b0000000 	imm	0
    636c:	b9f4af44 	brlid	r15, -20668	// 112b0 <__floatsidf>
    6370:	13430000 	addk	r26, r3, r0
    6374:	11030000 	addk	r8, r3, r0
    6378:	10b60000 	addk	r5, r22, r0
    637c:	10d70000 	addk	r6, r23, r0
    6380:	10e80000 	addk	r7, r8, r0
    6384:	11040000 	addk	r8, r4, r0
    6388:	b0000000 	imm	0
    638c:	b9f4a234 	brlid	r15, -24012	// 105c0 <__subdf3>
    6390:	335a0030 	addik	r26, r26, 48
    6394:	f3590000 	sbi	r26, r25, 0
    6398:	33390001 	addik	r25, r25, 1
    639c:	12c30000 	addk	r22, r3, r0
    63a0:	8879c000 	xor	r3, r25, r24
    63a4:	be23ff8c 	bneid	r3, -116		// 6330
    63a8:	12e40000 	addk	r23, r4, r0
    63ac:	e8610060 	lwi	r3, r1, 96
    63b0:	137c1800 	addk	r27, r28, r3
    63b4:	b0003fe0 	imm	16352
    63b8:	30e00000 	addik	r7, r0, 0
    63bc:	31000000 	addik	r8, r0, 0
    63c0:	e8a1006c 	lwi	r5, r1, 108
    63c4:	e8c10070 	lwi	r6, r1, 112
    63c8:	b0000000 	imm	0
    63cc:	b9f4a190 	brlid	r15, -24176	// 1055c <__adddf3>
    63d0:	80000000 	or	r0, r0, r0
    63d4:	10a40000 	addk	r5, r4, r0
    63d8:	10f60000 	addk	r7, r22, r0
    63dc:	11170000 	addk	r8, r23, r0
    63e0:	10c50000 	addk	r6, r5, r0
    63e4:	b0000000 	imm	0
    63e8:	b9f4ae54 	brlid	r15, -20908	// 1123c <__ltdf2>
    63ec:	10a30000 	addk	r5, r3, r0
    63f0:	bca304c4 	bgei	r3, 1220		// 68b4
    63f4:	e31bffff 	lbui	r24, r27, -1
    63f8:	b810f720 	brid	-2272		// 5b18
    63fc:	93180060 	sext8	r24, r24
    6400:	13000000 	addk	r24, r0, r0
    6404:	b810fd60 	brid	-672		// 6164
    6408:	13980000 	addk	r28, r24, r0
    640c:	b9f4363c 	brlid	r15, 13884	// 9a48 <__mcmp>
    6410:	10d80000 	addk	r6, r24, r0
    6414:	bea3f904 	bgeid	r3, -1788		// 5d18
    6418:	30600002 	addik	r3, r0, 2
    641c:	10dd0000 	addk	r6, r29, r0
    6420:	10b30000 	addk	r5, r19, r0
    6424:	30e0000a 	addik	r7, r0, 10
    6428:	b9f427bc 	brlid	r15, 10172	// 8be4 <__multadd>
    642c:	11000000 	addk	r8, r0, r0
    6430:	13a30000 	addk	r29, r3, r0
    6434:	e8610024 	lwi	r3, r1, 36
    6438:	e8810048 	lwi	r4, r1, 72
    643c:	3063ffff 	addik	r3, r3, -1
    6440:	be2400dc 	bneid	r4, 220		// 651c
    6444:	f8610024 	swi	r3, r1, 36
    6448:	e8610050 	lwi	r3, r1, 80
    644c:	be830018 	bgtid	r3, 24		// 6464
    6450:	e8810050 	lwi	r4, r1, 80
    6454:	30600002 	addik	r3, r0, 2
    6458:	147e1801 	cmp	r3, r30, r3
    645c:	be43064c 	bltid	r3, 1612		// 6aa8
    6460:	e8a10050 	lwi	r5, r1, 80
    6464:	b810f8c8 	brid	-1848		// 5d2c
    6468:	f881002c 	swi	r4, r1, 44
    646c:	e8780010 	lwi	r3, r24, 16
    6470:	30630004 	addik	r3, r3, 4
    6474:	10631800 	addk	r3, r3, r3
    6478:	10631800 	addk	r3, r3, r3
    647c:	b9f42ad0 	brlid	r15, 10960	// 8f4c <__hi0bits>
    6480:	c8a3c000 	lw	r5, r3, r24
    6484:	30a00020 	addik	r5, r0, 32
    6488:	b810f810 	brid	-2032		// 5c98
    648c:	14632800 	rsubk	r3, r3, r5
    6490:	be23fc5c 	bneid	r3, -932		// 60ec
    6494:	10b80000 	addk	r5, r24, r0
    6498:	b0004014 	imm	16404
    649c:	30e00000 	addik	r7, r0, 0
    64a0:	31000000 	addik	r8, r0, 0
    64a4:	b0000000 	imm	0
    64a8:	b9f4a188 	brlid	r15, -24184	// 10630 <__muldf3>
    64ac:	10d90000 	addk	r6, r25, r0
    64b0:	10a40000 	addk	r5, r4, r0
    64b4:	10f60000 	addk	r7, r22, r0
    64b8:	11170000 	addk	r8, r23, r0
    64bc:	10c50000 	addk	r6, r5, r0
    64c0:	b0000000 	imm	0
    64c4:	b9f4acfc 	brlid	r15, -21252	// 111c0 <__gedf2>
    64c8:	10a30000 	addk	r5, r3, r0
    64cc:	eb01002c 	lwi	r24, r1, 44
    64d0:	bea3fc24 	bgeid	r3, -988		// 60f4
    64d4:	13980000 	addk	r28, r24, r0
    64d8:	b810fc90 	brid	-880		// 6168
    64dc:	e8c10024 	lwi	r6, r1, 36
    64e0:	be37f7b0 	bneid	r23, -2128		// 5c90
    64e4:	e881004c 	lwi	r4, r1, 76
    64e8:	b000000f 	imm	15
    64ec:	a4b6ffff 	andi	r5, r22, -1
    64f0:	bc25f7a0 	bnei	r5, -2144		// 5c90
    64f4:	b0007ff0 	imm	32752
    64f8:	a4960000 	andi	r4, r22, 0
    64fc:	be04f794 	beqid	r4, -2156		// 5c90
    6500:	e881004c 	lwi	r4, r1, 76
    6504:	e8c10034 	lwi	r6, r1, 52
    6508:	13630000 	addk	r27, r3, r0
    650c:	13ff1800 	addk	r31, r31, r3
    6510:	10c61800 	addk	r6, r6, r3
    6514:	b810f778 	brid	-2184		// 5c8c
    6518:	f8c10034 	swi	r6, r1, 52
    651c:	10b30000 	addk	r5, r19, r0
    6520:	10dc0000 	addk	r6, r28, r0
    6524:	30e0000a 	addik	r7, r0, 10
    6528:	b9f426bc 	brlid	r15, 9916	// 8be4 <__multadd>
    652c:	11000000 	addk	r8, r0, r0
    6530:	e8a10050 	lwi	r5, r1, 80
    6534:	be850018 	bgtid	r5, 24		// 654c
    6538:	13830000 	addk	r28, r3, r0
    653c:	30600002 	addik	r3, r0, 2
    6540:	147e1801 	cmp	r3, r30, r3
    6544:	be430548 	bltid	r3, 1352		// 6a8c
    6548:	e8810050 	lwi	r4, r1, 80
    654c:	e8c10050 	lwi	r6, r1, 80
    6550:	f8c1002c 	swi	r6, r1, 44
    6554:	be790018 	bleid	r25, 24		// 656c
    6558:	10dc0000 	addk	r6, r28, r0
    655c:	10b30000 	addk	r5, r19, r0
    6560:	b9f43338 	brlid	r15, 13112	// 9898 <__lshift>
    6564:	10f90000 	addk	r7, r25, r0
    6568:	13830000 	addk	r28, r3, r0
    656c:	be3b0434 	bneid	r27, 1076		// 69a0
    6570:	135c0000 	addk	r26, r28, r0
    6574:	eb210030 	lwi	r25, r1, 48
    6578:	e881002c 	lwi	r4, r1, 44
    657c:	12dc0000 	addk	r22, r28, r0
    6580:	3079ffff 	addik	r3, r25, -1
    6584:	10632000 	addk	r3, r3, r4
    6588:	a4970001 	andi	r4, r23, 1
    658c:	f861002c 	swi	r3, r1, 44
    6590:	f8810028 	swi	r4, r1, 40
    6594:	10bd0000 	addk	r5, r29, r0
    6598:	10d80000 	addk	r6, r24, r0
    659c:	b9f4e3e0 	brlid	r15, -7200	// 497c <quorem>
    65a0:	33600001 	addik	r27, r0, 1
    65a4:	10bd0000 	addk	r5, r29, r0
    65a8:	10d60000 	addk	r6, r22, r0
    65ac:	13e30000 	addk	r31, r3, r0
    65b0:	b9f43498 	brlid	r15, 13464	// 9a48 <__mcmp>
    65b4:	32e30030 	addik	r23, r3, 48
    65b8:	10b30000 	addk	r5, r19, r0
    65bc:	10d80000 	addk	r6, r24, r0
    65c0:	10fa0000 	addk	r7, r26, r0
    65c4:	b9f43564 	brlid	r15, 13668	// 9b28 <__mdiff>
    65c8:	13830000 	addk	r28, r3, r0
    65cc:	10830000 	addk	r4, r3, r0
    65d0:	e863000c 	lwi	r3, r3, 12
    65d4:	be03010c 	beqid	r3, 268		// 66e0
    65d8:	10c40000 	addk	r6, r4, r0
    65dc:	10b30000 	addk	r5, r19, r0
    65e0:	b9f42584 	brlid	r15, 9604	// 8b64 <_Bfree>
    65e4:	10c40000 	addk	r6, r4, r0
    65e8:	807bf000 	or	r3, r27, r30
    65ec:	be230010 	bneid	r3, 16		// 65fc
    65f0:	e8810028 	lwi	r4, r1, 40
    65f4:	be0400d8 	beqid	r4, 216		// 66cc
    65f8:	a8770039 	xori	r3, r23, 57
    65fc:	bc5c0088 	blti	r28, 136		// 6684
    6600:	839cf000 	or	r28, r28, r30
    6604:	be3c000c 	bneid	r28, 12		// 6610
    6608:	e8810028 	lwi	r4, r1, 40
    660c:	bc040078 	beqi	r4, 120		// 6684
    6610:	be9b042c 	bgtid	r27, 1068		// 6a3c
    6614:	e881002c 	lwi	r4, r1, 44
    6618:	33990001 	addik	r28, r25, 1
    661c:	f2f90000 	sbi	r23, r25, 0
    6620:	8b392000 	xor	r25, r25, r4
    6624:	be19043c 	beqid	r25, 1084		// 6a60
    6628:	137c0000 	addk	r27, r28, r0
    662c:	10dd0000 	addk	r6, r29, r0
    6630:	10b30000 	addk	r5, r19, r0
    6634:	30e0000a 	addik	r7, r0, 10
    6638:	b9f425ac 	brlid	r15, 9644	// 8be4 <__multadd>
    663c:	11000000 	addk	r8, r0, r0
    6640:	8916d000 	xor	r8, r22, r26
    6644:	13a30000 	addk	r29, r3, r0
    6648:	10b30000 	addk	r5, r19, r0
    664c:	10d60000 	addk	r6, r22, r0
    6650:	be0800a8 	beqid	r8, 168		// 66f8
    6654:	30e0000a 	addik	r7, r0, 10
    6658:	b9f4258c 	brlid	r15, 9612	// 8be4 <__multadd>
    665c:	11000000 	addk	r8, r0, r0
    6660:	10da0000 	addk	r6, r26, r0
    6664:	10b30000 	addk	r5, r19, r0
    6668:	30e0000a 	addik	r7, r0, 10
    666c:	11000000 	addk	r8, r0, r0
    6670:	b9f42574 	brlid	r15, 9588	// 8be4 <__multadd>
    6674:	12c30000 	addk	r22, r3, r0
    6678:	13430000 	addk	r26, r3, r0
    667c:	b810ff18 	brid	-232		// 6594
    6680:	133c0000 	addk	r25, r28, r0
    6684:	be7b0038 	bleid	r27, 56		// 66bc
    6688:	13970000 	addk	r28, r23, r0
    668c:	10dd0000 	addk	r6, r29, r0
    6690:	10b30000 	addk	r5, r19, r0
    6694:	b9f43204 	brlid	r15, 12804	// 9898 <__lshift>
    6698:	30e00001 	addik	r7, r0, 1
    669c:	10a30000 	addk	r5, r3, r0
    66a0:	10d80000 	addk	r6, r24, r0
    66a4:	b9f433a4 	brlid	r15, 13220	// 9a48 <__mcmp>
    66a8:	13a30000 	addk	r29, r3, r0
    66ac:	bc6303cc 	blei	r3, 972		// 6a78
    66b0:	ab9c0039 	xori	r28, r28, 57
    66b4:	be1c0394 	beqid	r28, 916		// 6a48
    66b8:	32ff0031 	addik	r23, r31, 49
    66bc:	f2f90000 	sbi	r23, r25, 0
    66c0:	33790001 	addik	r27, r25, 1
    66c4:	b810f740 	brid	-2240		// 5e04
    66c8:	139a0000 	addk	r28, r26, r0
    66cc:	be030380 	beqid	r3, 896		// 6a4c
    66d0:	30a00039 	addik	r5, r0, 57
    66d4:	bc7cffe8 	blei	r28, -24		// 66bc
    66d8:	b810ffe4 	brid	-28		// 66bc
    66dc:	32ff0031 	addik	r23, r31, 49
    66e0:	10bd0000 	addk	r5, r29, r0
    66e4:	b9f43364 	brlid	r15, 13156	// 9a48 <__mcmp>
    66e8:	f8810074 	swi	r4, r1, 116
    66ec:	13630000 	addk	r27, r3, r0
    66f0:	b810feec 	brid	-276		// 65dc
    66f4:	e8810074 	lwi	r4, r1, 116
    66f8:	b9f424ec 	brlid	r15, 9452	// 8be4 <__multadd>
    66fc:	133c0000 	addk	r25, r28, r0
    6700:	12c30000 	addk	r22, r3, r0
    6704:	b810fe90 	brid	-368		// 6594
    6708:	13430000 	addk	r26, r3, r0
    670c:	b810f80c 	brid	-2036		// 5f18
    6710:	f8810048 	swi	r4, r1, 72
    6714:	33200001 	addik	r25, r0, 1
    6718:	fb210050 	swi	r25, r1, 80
    671c:	fb21002c 	swi	r25, r1, 44
    6720:	fb2100b8 	swi	r25, r1, 184
    6724:	eb130024 	lwi	r24, r19, 36
    6728:	87391800 	and	r25, r25, r3
    672c:	b810ecb4 	brid	-4940		// 53e0
    6730:	f8180004 	swi	r0, r24, 4
    6734:	a884ffff 	xori	r4, r4, -1
    6738:	13202000 	addk	r25, r0, r4
    673c:	93240041 	srl	r25, r4
    6740:	93390041 	srl	r25, r25
    6744:	93390041 	srl	r25, r25
    6748:	93390041 	srl	r25, r25
    674c:	93390041 	srl	r25, r25
    6750:	93390041 	srl	r25, r25
    6754:	93390041 	srl	r25, r25
    6758:	93390041 	srl	r25, r25
    675c:	93390041 	srl	r25, r25
    6760:	93390041 	srl	r25, r25
    6764:	93390041 	srl	r25, r25
    6768:	93390041 	srl	r25, r25
    676c:	93390041 	srl	r25, r25
    6770:	93390041 	srl	r25, r25
    6774:	93390041 	srl	r25, r25
    6778:	93390041 	srl	r25, r25
    677c:	93390041 	srl	r25, r25
    6780:	93390041 	srl	r25, r25
    6784:	93390041 	srl	r25, r25
    6788:	93390041 	srl	r25, r25
    678c:	93390041 	srl	r25, r25
    6790:	93390041 	srl	r25, r25
    6794:	93390041 	srl	r25, r25
    6798:	93390041 	srl	r25, r25
    679c:	93390041 	srl	r25, r25
    67a0:	93390041 	srl	r25, r25
    67a4:	93390041 	srl	r25, r25
    67a8:	93390041 	srl	r25, r25
    67ac:	93390041 	srl	r25, r25
    67b0:	93390041 	srl	r25, r25
    67b4:	93390041 	srl	r25, r25
    67b8:	b810ff6c 	brid	-148		// 6724
    67bc:	f8c1002c 	swi	r6, r1, 44
    67c0:	10b30000 	addk	r5, r19, r0
    67c4:	b9f42f94 	brlid	r15, 12180	// 9758 <__pow5mult>
    67c8:	e8e10044 	lwi	r7, r1, 68
    67cc:	b810f484 	brid	-2940		// 5c50
    67d0:	13a30000 	addk	r29, r3, r0
    67d4:	e8c1004c 	lwi	r6, r1, 76
    67d8:	fb010044 	swi	r24, r1, 68
    67dc:	1465c000 	rsubk	r3, r5, r24
    67e0:	10c61800 	addk	r6, r6, r3
    67e4:	f8c1004c 	swi	r6, r1, 76
    67e8:	b810f3b0 	brid	-3152		// 5b98
    67ec:	13000000 	addk	r24, r0, r0
    67f0:	be06f83c 	beqid	r6, -1988		// 602c
    67f4:	e8610050 	lwi	r3, r1, 80
    67f8:	be63f9b8 	bleid	r3, -1608		// 61b0
    67fc:	e8810024 	lwi	r4, r1, 36
    6800:	e8a10038 	lwi	r5, r1, 56
    6804:	e8c1003c 	lwi	r6, r1, 60
    6808:	b0004024 	imm	16420
    680c:	30e00000 	addik	r7, r0, 0
    6810:	31000000 	addik	r8, r0, 0
    6814:	3084ffff 	addik	r4, r4, -1
    6818:	b0000000 	imm	0
    681c:	b9f49e14 	brlid	r15, -25068	// 10630 <__muldf3>
    6820:	f8810068 	swi	r4, r1, 104
    6824:	f8610038 	swi	r3, r1, 56
    6828:	f881003c 	swi	r4, r1, 60
    682c:	b0000000 	imm	0
    6830:	b9f4aa80 	brlid	r15, -21888	// 112b0 <__floatsidf>
    6834:	30b60001 	addik	r5, r22, 1
    6838:	11030000 	addk	r8, r3, r0
    683c:	e8a10038 	lwi	r5, r1, 56
    6840:	e8c1003c 	lwi	r6, r1, 60
    6844:	10e80000 	addk	r7, r8, r0
    6848:	b0000000 	imm	0
    684c:	b9f49de4 	brlid	r15, -25116	// 10630 <__muldf3>
    6850:	11040000 	addk	r8, r4, r0
    6854:	10a40000 	addk	r5, r4, r0
    6858:	b000401c 	imm	16412
    685c:	30e00000 	addik	r7, r0, 0
    6860:	31000000 	addik	r8, r0, 0
    6864:	eb210050 	lwi	r25, r1, 80
    6868:	10c50000 	addk	r6, r5, r0
    686c:	b0000000 	imm	0
    6870:	b9f49cec 	brlid	r15, -25364	// 1055c <__adddf3>
    6874:	10a30000 	addk	r5, r3, r0
    6878:	13430000 	addk	r26, r3, r0
    687c:	b000fcc0 	imm	-832
    6880:	335a0000 	addik	r26, r26, 0
    6884:	b810ecfc 	brid	-4868		// 5580
    6888:	13640000 	addk	r27, r4, r0
    688c:	e8810054 	lwi	r4, r1, 84
    6890:	e8a10058 	lwi	r5, r1, 88
    6894:	f8810038 	swi	r4, r1, 56
    6898:	f8a1003c 	swi	r5, r1, 60
    689c:	b810ec48 	brid	-5048		// 54e4
    68a0:	32c00002 	addik	r22, r0, 2
    68a4:	b9f42eb4 	brlid	r15, 11956	// 9758 <__pow5mult>
    68a8:	10b30000 	addk	r5, r19, r0
    68ac:	b810f3a4 	brid	-3164		// 5c50
    68b0:	13a30000 	addk	r29, r3, r0
    68b4:	b0003fe0 	imm	16352
    68b8:	30a00000 	addik	r5, r0, 0
    68bc:	30c00000 	addik	r6, r0, 0
    68c0:	e8e1006c 	lwi	r7, r1, 108
    68c4:	e9010070 	lwi	r8, r1, 112
    68c8:	b0000000 	imm	0
    68cc:	b9f49cf4 	brlid	r15, -25356	// 105c0 <__subdf3>
    68d0:	80000000 	or	r0, r0, r0
    68d4:	10a40000 	addk	r5, r4, r0
    68d8:	10f60000 	addk	r7, r22, r0
    68dc:	11170000 	addk	r8, r23, r0
    68e0:	10c50000 	addk	r6, r5, r0
    68e4:	b0000000 	imm	0
    68e8:	b9f4a85c 	brlid	r15, -22436	// 11144 <__gtdf2>
    68ec:	10a30000 	addk	r5, r3, r0
    68f0:	bc83000c 	bgti	r3, 12		// 68fc
    68f4:	b800f8bc 	bri	-1860		// 61b0
    68f8:	13640000 	addk	r27, r4, r0
    68fc:	e07bffff 	lbui	r3, r27, -1
    6900:	90630060 	sext8	r3, r3
    6904:	a8630030 	xori	r3, r3, 48
    6908:	be03fff0 	beqid	r3, -16		// 68f8
    690c:	309bffff 	addik	r4, r27, -1
    6910:	e8c10068 	lwi	r6, r1, 104
    6914:	b810f520 	brid	-2784		// 5e34
    6918:	f8c10024 	swi	r6, r1, 36
    691c:	e881005c 	lwi	r4, r1, 92
    6920:	be040108 	beqid	r4, 264		// 6a28
    6924:	30a00036 	addik	r5, r0, 54
    6928:	30630433 	addik	r3, r3, 1075
    692c:	eb010044 	lwi	r24, r1, 68
    6930:	b810f278 	brid	-3464		// 5ba8
    6934:	eb210034 	lwi	r25, r1, 52
    6938:	b810f2a8 	brid	-3416		// 5be0
    693c:	10790000 	addk	r3, r25, r0
    6940:	17232000 	rsubk	r25, r3, r4
    6944:	b810f264 	brid	-3484		// 5ba8
    6948:	10600000 	addk	r3, r0, r0
    694c:	b810f1cc 	brid	-3636		// 5b18
    6950:	137f0000 	addk	r27, r31, r0
    6954:	e8a10068 	lwi	r5, r1, 104
    6958:	30780001 	addik	r3, r24, 1
    695c:	90630060 	sext8	r3, r3
    6960:	f8a10024 	swi	r5, r1, 36
    6964:	b810f4d0 	brid	-2864		// 5e34
    6968:	f0640000 	sbi	r3, r4, 0
    696c:	be230018 	bneid	r3, 24		// 6984
    6970:	a6f70001 	andi	r23, r23, 1
    6974:	bc170010 	beqi	r23, 16		// 6984
    6978:	b810f440 	brid	-3008		// 5db8
    697c:	e09bffff 	lbui	r4, r27, -1
    6980:	13640000 	addk	r27, r4, r0
    6984:	e07bffff 	lbui	r3, r27, -1
    6988:	90630060 	sext8	r3, r3
    698c:	a8630030 	xori	r3, r3, 48
    6990:	be03fff0 	beqid	r3, -16		// 6980
    6994:	309bffff 	addik	r4, r27, -1
    6998:	b810f470 	brid	-2960		// 5e08
    699c:	10b30000 	addk	r5, r19, r0
    69a0:	10b30000 	addk	r5, r19, r0
    69a4:	b9f420cc 	brlid	r15, 8396	// 8a70 <_Balloc>
    69a8:	e8dc0004 	lwi	r6, r28, 4
    69ac:	e8fc0010 	lwi	r7, r28, 16
    69b0:	13230000 	addk	r25, r3, r0
    69b4:	30dc000c 	addik	r6, r28, 12
    69b8:	30e70002 	addik	r7, r7, 2
    69bc:	10e73800 	addk	r7, r7, r7
    69c0:	30a3000c 	addik	r5, r3, 12
    69c4:	b9f41f70 	brlid	r15, 8048	// 8934 <memcpy>
    69c8:	10e73800 	addk	r7, r7, r7
    69cc:	10b30000 	addk	r5, r19, r0
    69d0:	10d90000 	addk	r6, r25, r0
    69d4:	b9f42ec4 	brlid	r15, 11972	// 9898 <__lshift>
    69d8:	30e00001 	addik	r7, r0, 1
    69dc:	b810fb98 	brid	-1128		// 6574
    69e0:	13430000 	addk	r26, r3, r0
    69e4:	10d90000 	addk	r6, r25, r0
    69e8:	10f60000 	addk	r7, r22, r0
    69ec:	b0000000 	imm	0
    69f0:	b9f4a66c 	brlid	r15, -22932	// 1105c <__eqdf2>
    69f4:	11170000 	addk	r8, r23, r0
    69f8:	be23f440 	bneid	r3, -3008		// 5e38
    69fc:	10b30000 	addk	r5, r19, r0
    6a00:	a75a0001 	andi	r26, r26, 1
    6a04:	bc1af434 	beqi	r26, -3020		// 5e38
    6a08:	e31bffff 	lbui	r24, r27, -1
    6a0c:	e8a10024 	lwi	r5, r1, 36
    6a10:	93180060 	sext8	r24, r24
    6a14:	b810f104 	brid	-3836		// 5b18
    6a18:	f8a10068 	swi	r5, r1, 104
    6a1c:	30840001 	addik	r4, r4, 1
    6a20:	b810f3e4 	brid	-3100		// 5e04
    6a24:	f0860000 	sbi	r4, r6, 0
    6a28:	e8610020 	lwi	r3, r1, 32
    6a2c:	eb010044 	lwi	r24, r1, 68
    6a30:	eb210034 	lwi	r25, r1, 52
    6a34:	b810f174 	brid	-3724		// 5ba8
    6a38:	14632800 	rsubk	r3, r3, r5
    6a3c:	a8770039 	xori	r3, r23, 57
    6a40:	be23fc7c 	bneid	r3, -900		// 66bc
    6a44:	32f70001 	addik	r23, r23, 1
    6a48:	30a00039 	addik	r5, r0, 57
    6a4c:	f0b90000 	sbi	r5, r25, 0
    6a50:	33790001 	addik	r27, r25, 1
    6a54:	139a0000 	addk	r28, r26, r0
    6a58:	b810f364 	brid	-3228		// 5dbc
    6a5c:	30800039 	addik	r4, r0, 57
    6a60:	b810f330 	brid	-3280		// 5d90
    6a64:	139a0000 	addk	r28, r26, r0
    6a68:	b810f31c 	brid	-3300		// 5d84
    6a6c:	30600001 	addik	r3, r0, 1
    6a70:	b810ea74 	brid	-5516		// 54e4
    6a74:	32c00002 	addik	r22, r0, 2
    6a78:	be23fc44 	bneid	r3, -956		// 66bc
    6a7c:	a4770001 	andi	r3, r23, 1
    6a80:	bc03fc3c 	beqi	r3, -964		// 66bc
    6a84:	b810fc30 	brid	-976		// 66b4
    6a88:	ab9c0039 	xori	r28, r28, 57
    6a8c:	b810f6a4 	brid	-2396		// 6130
    6a90:	f881002c 	swi	r4, r1, 44
    6a94:	a8840004 	xori	r4, r4, 4
    6a98:	be04f240 	beqid	r4, -3520		// 5cd8
    6a9c:	30c0003c 	addik	r6, r0, 60
    6aa0:	b810f670 	brid	-2448		// 6110
    6aa4:	14633000 	rsubk	r3, r3, r6
    6aa8:	b810f688 	brid	-2424		// 6130
    6aac:	f8a1002c 	swi	r5, r1, 44

00006ab0 <__sflush_r>:
    6ab0:	3021ffd4 	addik	r1, r1, -44
    6ab4:	fac10020 	swi	r22, r1, 32
    6ab8:	fb010028 	swi	r24, r1, 40
    6abc:	f9e10000 	swi	r15, r1, 0
    6ac0:	fa61001c 	swi	r19, r1, 28
    6ac4:	fae10024 	swi	r23, r1, 36
    6ac8:	e486000c 	lhui	r4, r6, 12
    6acc:	12c60000 	addk	r22, r6, r0
    6ad0:	90840061 	sext16	r4, r4
    6ad4:	a4640008 	andi	r3, r4, 8
    6ad8:	90630061 	sext16	r3, r3
    6adc:	be2300a8 	bneid	r3, 168		// 6b84
    6ae0:	13050000 	addk	r24, r5, r0
    6ae4:	e8660004 	lwi	r3, r6, 4
    6ae8:	a0a40800 	ori	r5, r4, 2048
    6aec:	be63018c 	bleid	r3, 396		// 6c78
    6af0:	f4a6000c 	shi	r5, r6, 12
    6af4:	e876002c 	lwi	r3, r22, 44
    6af8:	be030160 	beqid	r3, 352		// 6c58
    6afc:	a4841000 	andi	r4, r4, 4096
    6b00:	ea780000 	lwi	r19, r24, 0
    6b04:	90e40061 	sext16	r7, r4
    6b08:	be070184 	beqid	r7, 388		// 6c8c
    6b0c:	f8180000 	swi	r0, r24, 0
    6b10:	e8f60054 	lwi	r7, r22, 84
    6b14:	a4a50004 	andi	r5, r5, 4
    6b18:	90a50061 	sext16	r5, r5
    6b1c:	be050024 	beqid	r5, 36		// 6b40
    6b20:	10b80000 	addk	r5, r24, r0
    6b24:	e8b60004 	lwi	r5, r22, 4
    6b28:	e8960034 	lwi	r4, r22, 52
    6b2c:	be040010 	beqid	r4, 16		// 6b3c
    6b30:	14e53800 	rsubk	r7, r5, r7
    6b34:	e8960040 	lwi	r4, r22, 64
    6b38:	14e43800 	rsubk	r7, r4, r7
    6b3c:	10b80000 	addk	r5, r24, r0
    6b40:	e8d60020 	lwi	r6, r22, 32
    6b44:	99fc1800 	brald	r15, r3
    6b48:	11000000 	addk	r8, r0, r0
    6b4c:	a883ffff 	xori	r4, r3, -1
    6b50:	bc040168 	beqi	r4, 360		// 6cb8
    6b54:	e496000c 	lhui	r4, r22, 12
    6b58:	e8b60010 	lwi	r5, r22, 16
    6b5c:	f8160004 	swi	r0, r22, 4
    6b60:	90840061 	sext16	r4, r4
    6b64:	a4c4f7ff 	andi	r6, r4, -2049
    6b68:	a4841000 	andi	r4, r4, 4096
    6b6c:	f4d6000c 	shi	r6, r22, 12
    6b70:	90840061 	sext16	r4, r4
    6b74:	be0400c0 	beqid	r4, 192		// 6c34
    6b78:	f8b60000 	swi	r5, r22, 0
    6b7c:	b81000b8 	brid	184		// 6c34
    6b80:	f8760054 	swi	r3, r22, 84
    6b84:	eae60010 	lwi	r23, r6, 16
    6b88:	be1700d0 	beqid	r23, 208		// 6c58
    6b8c:	a4840003 	andi	r4, r4, 3
    6b90:	ea660000 	lwi	r19, r6, 0
    6b94:	fae60000 	swi	r23, r6, 0
    6b98:	16779800 	rsubk	r19, r23, r19
    6b9c:	be24000c 	bneid	r4, 12		// 6ba8
    6ba0:	10600000 	addk	r3, r0, r0
    6ba4:	e8660014 	lwi	r3, r6, 20
    6ba8:	be930018 	bgtid	r19, 24		// 6bc0
    6bac:	f8760008 	swi	r3, r22, 8
    6bb0:	b81000ac 	brid	172		// 6c5c
    6bb4:	10600000 	addk	r3, r0, r0
    6bb8:	be7300a0 	bleid	r19, 160		// 6c58
    6bbc:	12f71800 	addk	r23, r23, r3
    6bc0:	11130000 	addk	r8, r19, r0
    6bc4:	10f70000 	addk	r7, r23, r0
    6bc8:	e8760028 	lwi	r3, r22, 40
    6bcc:	10b80000 	addk	r5, r24, r0
    6bd0:	99fc1800 	brald	r15, r3
    6bd4:	e8d60020 	lwi	r6, r22, 32
    6bd8:	be83ffe0 	bgtid	r3, -32		// 6bb8
    6bdc:	16639800 	rsubk	r19, r3, r19
    6be0:	e496000c 	lhui	r4, r22, 12
    6be4:	3060ffff 	addik	r3, r0, -1
    6be8:	a0840040 	ori	r4, r4, 64
    6bec:	f496000c 	shi	r4, r22, 12
    6bf0:	e9e10000 	lwi	r15, r1, 0
    6bf4:	ea61001c 	lwi	r19, r1, 28
    6bf8:	eac10020 	lwi	r22, r1, 32
    6bfc:	eae10024 	lwi	r23, r1, 36
    6c00:	eb010028 	lwi	r24, r1, 40
    6c04:	b60f0008 	rtsd	r15, 8
    6c08:	3021002c 	addik	r1, r1, 44
    6c0c:	a864001d 	xori	r3, r4, 29
    6c10:	be03000c 	beqid	r3, 12		// 6c1c
    6c14:	a8840016 	xori	r4, r4, 22
    6c18:	bc24ffc8 	bnei	r4, -56		// 6be0
    6c1c:	e496000c 	lhui	r4, r22, 12
    6c20:	e8760010 	lwi	r3, r22, 16
    6c24:	f8160004 	swi	r0, r22, 4
    6c28:	a484f7ff 	andi	r4, r4, -2049
    6c2c:	f496000c 	shi	r4, r22, 12
    6c30:	f8760000 	swi	r3, r22, 0
    6c34:	e8d60034 	lwi	r6, r22, 52
    6c38:	be060020 	beqid	r6, 32		// 6c58
    6c3c:	fa780000 	swi	r19, r24, 0
    6c40:	30760044 	addik	r3, r22, 68
    6c44:	88661800 	xor	r3, r6, r3
    6c48:	bc03000c 	beqi	r3, 12		// 6c54
    6c4c:	b9f406b8 	brlid	r15, 1720	// 7304 <_free_r>
    6c50:	10b80000 	addk	r5, r24, r0
    6c54:	f8160034 	swi	r0, r22, 52
    6c58:	10600000 	addk	r3, r0, r0
    6c5c:	e9e10000 	lwi	r15, r1, 0
    6c60:	ea61001c 	lwi	r19, r1, 28
    6c64:	eac10020 	lwi	r22, r1, 32
    6c68:	eae10024 	lwi	r23, r1, 36
    6c6c:	eb010028 	lwi	r24, r1, 40
    6c70:	b60f0008 	rtsd	r15, 8
    6c74:	3021002c 	addik	r1, r1, 44
    6c78:	e8660040 	lwi	r3, r6, 64
    6c7c:	be83fe78 	bgtid	r3, -392		// 6af4
    6c80:	10600000 	addk	r3, r0, r0
    6c84:	b810ffdc 	brid	-36		// 6c60
    6c88:	e9e10000 	lwi	r15, r1, 0
    6c8c:	10b80000 	addk	r5, r24, r0
    6c90:	e8d60020 	lwi	r6, r22, 32
    6c94:	99fc1800 	brald	r15, r3
    6c98:	31000001 	addik	r8, r0, 1
    6c9c:	10e30000 	addk	r7, r3, r0
    6ca0:	a863ffff 	xori	r3, r3, -1
    6ca4:	bc030030 	beqi	r3, 48		// 6cd4
    6ca8:	e4b6000c 	lhui	r5, r22, 12
    6cac:	e876002c 	lwi	r3, r22, 44
    6cb0:	b810fe64 	brid	-412		// 6b14
    6cb4:	90a50061 	sext16	r5, r5
    6cb8:	e8980000 	lwi	r4, r24, 0
    6cbc:	bc24ff50 	bnei	r4, -176		// 6c0c
    6cc0:	e4d6000c 	lhui	r6, r22, 12
    6cc4:	f8960004 	swi	r4, r22, 4
    6cc8:	e8b60010 	lwi	r5, r22, 16
    6ccc:	b810fe98 	brid	-360		// 6b64
    6cd0:	90860061 	sext16	r4, r6
    6cd4:	e8780000 	lwi	r3, r24, 0
    6cd8:	be03ffd0 	beqid	r3, -48		// 6ca8
    6cdc:	a8830016 	xori	r4, r3, 22
    6ce0:	14a40000 	rsubk	r5, r4, r0
    6ce4:	80852000 	or	r4, r5, r4
    6ce8:	bca40014 	bgei	r4, 20		// 6cfc
    6cec:	a863001d 	xori	r3, r3, 29
    6cf0:	14830000 	rsubk	r4, r3, r0
    6cf4:	80641800 	or	r3, r4, r3
    6cf8:	bc43fee8 	blti	r3, -280		// 6be0
    6cfc:	fa780000 	swi	r19, r24, 0
    6d00:	b810ff5c 	brid	-164		// 6c5c
    6d04:	10600000 	addk	r3, r0, r0

00006d08 <_fflush_r>:
    6d08:	e8660010 	lwi	r3, r6, 16
    6d0c:	bc0300b8 	beqi	r3, 184		// 6dc4
    6d10:	3021ffdc 	addik	r1, r1, -36
    6d14:	fa610020 	swi	r19, r1, 32
    6d18:	f9e10000 	swi	r15, r1, 0
    6d1c:	be050010 	beqid	r5, 16		// 6d2c
    6d20:	12650000 	addk	r19, r5, r0
    6d24:	e8650018 	lwi	r3, r5, 24
    6d28:	bc030068 	beqi	r3, 104		// 6d90
    6d2c:	b0000001 	imm	1
    6d30:	30602c60 	addik	r3, r0, 11360	// 12c60 <__sf_fake_stdin>
    6d34:	88661800 	xor	r3, r6, r3
    6d38:	bc030074 	beqi	r3, 116		// 6dac
    6d3c:	b0000001 	imm	1
    6d40:	30602c40 	addik	r3, r0, 11328	// 12c40 <__sf_fake_stdout>
    6d44:	88661800 	xor	r3, r6, r3
    6d48:	bc03006c 	beqi	r3, 108		// 6db4
    6d4c:	b0000001 	imm	1
    6d50:	30602c20 	addik	r3, r0, 11296	// 12c20 <__sf_fake_stderr>
    6d54:	88661800 	xor	r3, r6, r3
    6d58:	bc030064 	beqi	r3, 100		// 6dbc
    6d5c:	e466000c 	lhui	r3, r6, 12
    6d60:	be230018 	bneid	r3, 24		// 6d78
    6d64:	e9e10000 	lwi	r15, r1, 0
    6d68:	ea610020 	lwi	r19, r1, 32
    6d6c:	10600000 	addk	r3, r0, r0
    6d70:	b60f0008 	rtsd	r15, 8
    6d74:	30210024 	addik	r1, r1, 36
    6d78:	b9f4fd38 	brlid	r15, -712	// 6ab0 <__sflush_r>
    6d7c:	10b30000 	addk	r5, r19, r0
    6d80:	e9e10000 	lwi	r15, r1, 0
    6d84:	ea610020 	lwi	r19, r1, 32
    6d88:	b60f0008 	rtsd	r15, 8
    6d8c:	30210024 	addik	r1, r1, 36
    6d90:	b9f401f0 	brlid	r15, 496	// 6f80 <__sinit>
    6d94:	f8c1001c 	swi	r6, r1, 28
    6d98:	e8c1001c 	lwi	r6, r1, 28
    6d9c:	b0000001 	imm	1
    6da0:	30602c60 	addik	r3, r0, 11360	// 12c60 <__sf_fake_stdin>
    6da4:	88661800 	xor	r3, r6, r3
    6da8:	bc23ff94 	bnei	r3, -108		// 6d3c
    6dac:	b810ffb0 	brid	-80		// 6d5c
    6db0:	e8d30004 	lwi	r6, r19, 4
    6db4:	b810ffa8 	brid	-88		// 6d5c
    6db8:	e8d30008 	lwi	r6, r19, 8
    6dbc:	b810ffa0 	brid	-96		// 6d5c
    6dc0:	e8d3000c 	lwi	r6, r19, 12
    6dc4:	b60f0008 	rtsd	r15, 8
    6dc8:	10600000 	addk	r3, r0, r0

00006dcc <fflush>:
    6dcc:	3021ffe4 	addik	r1, r1, -28
    6dd0:	f9e10000 	swi	r15, r1, 0
    6dd4:	be050024 	beqid	r5, 36		// 6df8
    6dd8:	10c50000 	addk	r6, r5, r0
    6ddc:	b0000001 	imm	1
    6de0:	e8a0348c 	lwi	r5, r0, 13452	// 1348c <_impure_ptr>
    6de4:	b9f4ff24 	brlid	r15, -220	// 6d08 <_fflush_r>
    6de8:	80000000 	or	r0, r0, r0
    6dec:	e9e10000 	lwi	r15, r1, 0
    6df0:	b60f0008 	rtsd	r15, 8
    6df4:	3021001c 	addik	r1, r1, 28
    6df8:	b0000001 	imm	1
    6dfc:	e8a02a3c 	lwi	r5, r0, 10812	// 12a3c <_global_impure_ptr>
    6e00:	30c06d08 	addik	r6, r0, 27912	// 6d08 <_fflush_r>
    6e04:	b9f409e8 	brlid	r15, 2536	// 77ec <_fwalk_reent>
    6e08:	80000000 	or	r0, r0, r0
    6e0c:	e9e10000 	lwi	r15, r1, 0
    6e10:	b60f0008 	rtsd	r15, 8

00006e14 <std.isra.0>:
    6e14:	3021001c 	addik	r1, r1, 28

00006e18 <__fp_lock>:
    6e18:	b60f0008 	rtsd	r15, 8
    6e1c:	10600000 	addk	r3, r0, r0
    6e20:	b60f0008 	rtsd	r15, 8
    6e24:	10600000 	addk	r3, r0, r0

00006e28 <_cleanup_r>:
    6e28:	b0000000 	imm	0
    6e2c:	30c0c638 	addik	r6, r0, -14792	// c638 <fclose>
    6e30:	3021ffe4 	addik	r1, r1, -28
    6e34:	f9e10000 	swi	r15, r1, 0
    6e38:	b9f408e8 	brlid	r15, 2280	// 7720 <_fwalk>
    6e3c:	80000000 	or	r0, r0, r0
    6e40:	e9e10000 	lwi	r15, r1, 0
    6e44:	b60f0008 	rtsd	r15, 8
    6e48:	3021001c 	addik	r1, r1, 28
    6e4c:	3021ffe0 	addik	r1, r1, -32
    6e50:	f9e10000 	swi	r15, r1, 0
    6e54:	fa61001c 	swi	r19, r1, 28
    6e58:	f4c5000c 	shi	r6, r5, 12
    6e5c:	12650000 	addk	r19, r5, r0
    6e60:	f4e5000e 	shi	r7, r5, 14
    6e64:	f8050000 	swi	r0, r5, 0
    6e68:	f8050004 	swi	r0, r5, 4
    6e6c:	f8050008 	swi	r0, r5, 8
    6e70:	f8050064 	swi	r0, r5, 100
    6e74:	f8050010 	swi	r0, r5, 16
    6e78:	f8050014 	swi	r0, r5, 20
    6e7c:	f8050018 	swi	r0, r5, 24
    6e80:	10c00000 	addk	r6, r0, r0
    6e84:	30a5005c 	addik	r5, r5, 92
    6e88:	b9f4a754 	brlid	r15, -22700	// 15dc <memset>
    6e8c:	30e00008 	addik	r7, r0, 8	// 8 <_.z>
    6e90:	b0000000 	imm	0
    6e94:	3060a970 	addik	r3, r0, -22160	// a970 <__sread>
    6e98:	fa730020 	swi	r19, r19, 32
    6e9c:	f8730024 	swi	r3, r19, 36
    6ea0:	b0000000 	imm	0
    6ea4:	3060a9d0 	addik	r3, r0, -22064	// a9d0 <__swrite>
    6ea8:	f8730028 	swi	r3, r19, 40
    6eac:	b0000000 	imm	0
    6eb0:	3060aa64 	addik	r3, r0, -21916	// aa64 <__sseek>
    6eb4:	f873002c 	swi	r3, r19, 44
    6eb8:	b0000000 	imm	0
    6ebc:	3060aac4 	addik	r3, r0, -21820	// aac4 <__sclose>
    6ec0:	f8730030 	swi	r3, r19, 48
    6ec4:	e9e10000 	lwi	r15, r1, 0
    6ec8:	ea61001c 	lwi	r19, r1, 28
    6ecc:	b60f0008 	rtsd	r15, 8
    6ed0:	30210020 	addik	r1, r1, 32

00006ed4 <__sfmoreglue>:
    6ed4:	10663000 	addk	r3, r6, r6
    6ed8:	10633000 	addk	r3, r3, r6
    6edc:	10e31800 	addk	r7, r3, r3
    6ee0:	10e73800 	addk	r7, r7, r7
    6ee4:	10e73800 	addk	r7, r7, r7
    6ee8:	10e73800 	addk	r7, r7, r7
    6eec:	10e33800 	addk	r7, r3, r7
    6ef0:	3021ffd8 	addik	r1, r1, -40
    6ef4:	10e63800 	addk	r7, r6, r7
    6ef8:	fae10024 	swi	r23, r1, 36
    6efc:	12e73800 	addk	r23, r7, r7
    6f00:	fac10020 	swi	r22, r1, 32
    6f04:	12c60000 	addk	r22, r6, r0
    6f08:	fa61001c 	swi	r19, r1, 28
    6f0c:	f9e10000 	swi	r15, r1, 0
    6f10:	b9f40d48 	brlid	r15, 3400	// 7c58 <_malloc_r>
    6f14:	30d7000c 	addik	r6, r23, 12
    6f18:	be030028 	beqid	r3, 40		// 6f40
    6f1c:	12630000 	addk	r19, r3, r0
    6f20:	3063000c 	addik	r3, r3, 12
    6f24:	10a30000 	addk	r5, r3, r0
    6f28:	10f70000 	addk	r7, r23, r0
    6f2c:	f8130000 	swi	r0, r19, 0
    6f30:	fad30004 	swi	r22, r19, 4
    6f34:	f8730008 	swi	r3, r19, 8
    6f38:	b9f4a6a4 	brlid	r15, -22876	// 15dc <memset>
    6f3c:	10c00000 	addk	r6, r0, r0
    6f40:	10730000 	addk	r3, r19, r0
    6f44:	e9e10000 	lwi	r15, r1, 0
    6f48:	ea61001c 	lwi	r19, r1, 28
    6f4c:	eac10020 	lwi	r22, r1, 32
    6f50:	eae10024 	lwi	r23, r1, 36
    6f54:	b60f0008 	rtsd	r15, 8
    6f58:	30210028 	addik	r1, r1, 40

00006f5c <_cleanup>:
    6f5c:	b0000001 	imm	1
    6f60:	e8a02a3c 	lwi	r5, r0, 10812	// 12a3c <_global_impure_ptr>
    6f64:	3021ffe4 	addik	r1, r1, -28
    6f68:	f9e10000 	swi	r15, r1, 0
    6f6c:	b9f4febc 	brlid	r15, -324	// 6e28 <_cleanup_r>
    6f70:	80000000 	or	r0, r0, r0
    6f74:	e9e10000 	lwi	r15, r1, 0
    6f78:	b60f0008 	rtsd	r15, 8
    6f7c:	3021001c 	addik	r1, r1, 28

00006f80 <__sinit>:
    6f80:	3021ffd8 	addik	r1, r1, -40
    6f84:	fa61001c 	swi	r19, r1, 28
    6f88:	f9e10000 	swi	r15, r1, 0
    6f8c:	fac10020 	swi	r22, r1, 32
    6f90:	fae10024 	swi	r23, r1, 36
    6f94:	eac50018 	lwi	r22, r5, 24
    6f98:	be360074 	bneid	r22, 116		// 700c
    6f9c:	12650000 	addk	r19, r5, r0
    6fa0:	30606e28 	addik	r3, r0, 28200	// 6e28 <_cleanup_r>
    6fa4:	32e00001 	addik	r23, r0, 1
    6fa8:	fae50018 	swi	r23, r5, 24
    6fac:	f8650028 	swi	r3, r5, 40
    6fb0:	fac500d8 	swi	r22, r5, 216
    6fb4:	fac500dc 	swi	r22, r5, 220
    6fb8:	b9f4006c 	brlid	r15, 108	// 7024 <__sfp>
    6fbc:	fac500e0 	swi	r22, r5, 224
    6fc0:	10b30000 	addk	r5, r19, r0
    6fc4:	b9f40060 	brlid	r15, 96	// 7024 <__sfp>
    6fc8:	f8730004 	swi	r3, r19, 4
    6fcc:	10b30000 	addk	r5, r19, r0
    6fd0:	b9f40054 	brlid	r15, 84	// 7024 <__sfp>
    6fd4:	f8730008 	swi	r3, r19, 8
    6fd8:	e8b30004 	lwi	r5, r19, 4
    6fdc:	10f60000 	addk	r7, r22, r0
    6fe0:	f873000c 	swi	r3, r19, 12
    6fe4:	b9f4fe68 	brlid	r15, -408
    6fe8:	30c00004 	addik	r6, r0, 4	// 4 <_.xy>
    6fec:	e8b30008 	lwi	r5, r19, 8
    6ff0:	10f70000 	addk	r7, r23, r0
    6ff4:	b9f4fe58 	brlid	r15, -424
    6ff8:	30c00009 	addik	r6, r0, 9
    6ffc:	e8b3000c 	lwi	r5, r19, 12
    7000:	30c00012 	addik	r6, r0, 18
    7004:	b9f4fe48 	brlid	r15, -440
    7008:	30e00002 	addik	r7, r0, 2
    700c:	e9e10000 	lwi	r15, r1, 0
    7010:	ea61001c 	lwi	r19, r1, 28
    7014:	eac10020 	lwi	r22, r1, 32
    7018:	eae10024 	lwi	r23, r1, 36
    701c:	b60f0008 	rtsd	r15, 8
    7020:	30210028 	addik	r1, r1, 40

00007024 <__sfp>:
    7024:	3021ffd8 	addik	r1, r1, -40
    7028:	fac10020 	swi	r22, r1, 32
    702c:	b0000001 	imm	1
    7030:	eac02a3c 	lwi	r22, r0, 10812	// 12a3c <_global_impure_ptr>
    7034:	fae10024 	swi	r23, r1, 36
    7038:	f9e10000 	swi	r15, r1, 0
    703c:	fa61001c 	swi	r19, r1, 28
    7040:	e8760018 	lwi	r3, r22, 24
    7044:	be0300b4 	beqid	r3, 180		// 70f8
    7048:	12e50000 	addk	r23, r5, r0
    704c:	32d600d8 	addik	r22, r22, 216
    7050:	e8760004 	lwi	r3, r22, 4
    7054:	3063ffff 	addik	r3, r3, -1
    7058:	bea3001c 	bgeid	r3, 28		// 7074
    705c:	ea760008 	lwi	r19, r22, 8
    7060:	b810008c 	brid	140		// 70ec
    7064:	e8760000 	lwi	r3, r22, 0
    7068:	a883ffff 	xori	r4, r3, -1
    706c:	be04007c 	beqid	r4, 124		// 70e8
    7070:	32730068 	addik	r19, r19, 104
    7074:	e493000c 	lhui	r4, r19, 12
    7078:	be24fff0 	bneid	r4, -16		// 7068
    707c:	3063ffff 	addik	r3, r3, -1
    7080:	3060ffff 	addik	r3, r0, -1
    7084:	f473000e 	shi	r3, r19, 14
    7088:	30600001 	addik	r3, r0, 1
    708c:	f473000c 	shi	r3, r19, 12
    7090:	f8130064 	swi	r0, r19, 100
    7094:	f8130000 	swi	r0, r19, 0
    7098:	f8130008 	swi	r0, r19, 8
    709c:	f8130004 	swi	r0, r19, 4
    70a0:	f8130010 	swi	r0, r19, 16
    70a4:	f8130014 	swi	r0, r19, 20
    70a8:	f8130018 	swi	r0, r19, 24
    70ac:	30b3005c 	addik	r5, r19, 92
    70b0:	10c00000 	addk	r6, r0, r0
    70b4:	b9f4a528 	brlid	r15, -23256	// 15dc <memset>
    70b8:	30e00008 	addik	r7, r0, 8	// 8 <_.z>
    70bc:	f8130034 	swi	r0, r19, 52
    70c0:	f8130038 	swi	r0, r19, 56
    70c4:	f8130048 	swi	r0, r19, 72
    70c8:	f813004c 	swi	r0, r19, 76
    70cc:	10730000 	addk	r3, r19, r0
    70d0:	e9e10000 	lwi	r15, r1, 0
    70d4:	ea61001c 	lwi	r19, r1, 28
    70d8:	eac10020 	lwi	r22, r1, 32
    70dc:	eae10024 	lwi	r23, r1, 36
    70e0:	b60f0008 	rtsd	r15, 8
    70e4:	30210028 	addik	r1, r1, 40
    70e8:	e8760000 	lwi	r3, r22, 0
    70ec:	bc03001c 	beqi	r3, 28		// 7108
    70f0:	b810ff60 	brid	-160		// 7050
    70f4:	12c30000 	addk	r22, r3, r0
    70f8:	b9f4fe88 	brlid	r15, -376	// 6f80 <__sinit>
    70fc:	10b60000 	addk	r5, r22, r0
    7100:	b810ff50 	brid	-176		// 7050
    7104:	32d600d8 	addik	r22, r22, 216
    7108:	10b70000 	addk	r5, r23, r0
    710c:	b9f4fdc8 	brlid	r15, -568	// 6ed4 <__sfmoreglue>
    7110:	30c00004 	addik	r6, r0, 4	// 4 <_.xy>
    7114:	be23ffdc 	bneid	r3, -36		// 70f0
    7118:	f8760000 	swi	r3, r22, 0
    711c:	3080000c 	addik	r4, r0, 12	// c <_.frame>
    7120:	f8970000 	swi	r4, r23, 0
    7124:	b810ffa8 	brid	-88		// 70cc
    7128:	12630000 	addk	r19, r3, r0

0000712c <__sfp_lock_acquire>:
    712c:	b60f0008 	rtsd	r15, 8
    7130:	80000000 	or	r0, r0, r0

00007134 <__sfp_lock_release>:
    7134:	b60f0008 	rtsd	r15, 8
    7138:	80000000 	or	r0, r0, r0

0000713c <__sinit_lock_acquire>:
    713c:	b60f0008 	rtsd	r15, 8
    7140:	80000000 	or	r0, r0, r0

00007144 <__sinit_lock_release>:
    7144:	b60f0008 	rtsd	r15, 8
    7148:	80000000 	or	r0, r0, r0

0000714c <__fp_lock_all>:
    714c:	b0000001 	imm	1
    7150:	e8a0348c 	lwi	r5, r0, 13452	// 1348c <_impure_ptr>
    7154:	30c06e18 	addik	r6, r0, 28184	// 6e18 <__fp_lock>
    7158:	3021ffe4 	addik	r1, r1, -28
    715c:	f9e10000 	swi	r15, r1, 0
    7160:	b9f405c0 	brlid	r15, 1472	// 7720 <_fwalk>
    7164:	80000000 	or	r0, r0, r0
    7168:	e9e10000 	lwi	r15, r1, 0
    716c:	b60f0008 	rtsd	r15, 8
    7170:	3021001c 	addik	r1, r1, 28

00007174 <__fp_unlock_all>:
    7174:	b0000001 	imm	1
    7178:	e8a0348c 	lwi	r5, r0, 13452	// 1348c <_impure_ptr>
    717c:	30c06e20 	addik	r6, r0, 28192
    7180:	3021ffe4 	addik	r1, r1, -28
    7184:	f9e10000 	swi	r15, r1, 0
    7188:	b9f40598 	brlid	r15, 1432	// 7720 <_fwalk>
    718c:	80000000 	or	r0, r0, r0
    7190:	e9e10000 	lwi	r15, r1, 0
    7194:	b60f0008 	rtsd	r15, 8
    7198:	3021001c 	addik	r1, r1, 28

0000719c <_malloc_trim_r>:
    719c:	3021ffd8 	addik	r1, r1, -40
    71a0:	fa61001c 	swi	r19, r1, 28
    71a4:	fac10020 	swi	r22, r1, 32
    71a8:	fae10024 	swi	r23, r1, 36
    71ac:	f9e10000 	swi	r15, r1, 0
    71b0:	12e60000 	addk	r23, r6, r0
    71b4:	b9f418ac 	brlid	r15, 6316	// 8a60 <__malloc_lock>
    71b8:	12650000 	addk	r19, r5, r0
    71bc:	b0000001 	imm	1
    71c0:	e860360c 	lwi	r3, r0, 13836
    71c4:	eac30004 	lwi	r22, r3, 4
    71c8:	a6d6fffc 	andi	r22, r22, -4
    71cc:	3076006f 	addik	r3, r22, 111
    71d0:	16f71800 	rsubk	r23, r23, r3
    71d4:	1060b800 	addk	r3, r0, r23
    71d8:	90770041 	srl	r3, r23
    71dc:	90630041 	srl	r3, r3
    71e0:	90630041 	srl	r3, r3
    71e4:	90630041 	srl	r3, r3
    71e8:	90630041 	srl	r3, r3
    71ec:	90630041 	srl	r3, r3
    71f0:	90630041 	srl	r3, r3
    71f4:	3063ffff 	addik	r3, r3, -1
    71f8:	10631800 	addk	r3, r3, r3
    71fc:	10631800 	addk	r3, r3, r3
    7200:	10631800 	addk	r3, r3, r3
    7204:	10631800 	addk	r3, r3, r3
    7208:	10631800 	addk	r3, r3, r3
    720c:	10631800 	addk	r3, r3, r3
    7210:	12e31800 	addk	r23, r3, r3
    7214:	3060007f 	addik	r3, r0, 127
    7218:	14771801 	cmp	r3, r23, r3
    721c:	bea30028 	bgeid	r3, 40		// 7244
    7220:	10b30000 	addk	r5, r19, r0
    7224:	b9f436f0 	brlid	r15, 14064	// a914 <_sbrk_r>
    7228:	10c00000 	addk	r6, r0, r0
    722c:	b0000001 	imm	1
    7230:	e880360c 	lwi	r4, r0, 13836
    7234:	1084b000 	addk	r4, r4, r22
    7238:	88632000 	xor	r3, r3, r4
    723c:	be03002c 	beqid	r3, 44		// 7268
    7240:	10b30000 	addk	r5, r19, r0
    7244:	b9f41824 	brlid	r15, 6180	// 8a68 <__malloc_unlock>
    7248:	10b30000 	addk	r5, r19, r0
    724c:	e9e10000 	lwi	r15, r1, 0
    7250:	ea61001c 	lwi	r19, r1, 28
    7254:	eac10020 	lwi	r22, r1, 32
    7258:	eae10024 	lwi	r23, r1, 36
    725c:	10600000 	addk	r3, r0, r0
    7260:	b60f0008 	rtsd	r15, 8
    7264:	30210028 	addik	r1, r1, 40
    7268:	b9f436ac 	brlid	r15, 13996	// a914 <_sbrk_r>
    726c:	14d70000 	rsubk	r6, r23, r0
    7270:	a8c3ffff 	xori	r6, r3, -1
    7274:	be060050 	beqid	r6, 80		// 72c4
    7278:	16d7b000 	rsubk	r22, r23, r22
    727c:	b0000001 	imm	1
    7280:	e8603a1c 	lwi	r3, r0, 14876	// 13a1c <__malloc_current_mallinfo>
    7284:	10b30000 	addk	r5, r19, r0
    7288:	16f71800 	rsubk	r23, r23, r3
    728c:	b0000001 	imm	1
    7290:	e860360c 	lwi	r3, r0, 13836
    7294:	a2d60001 	ori	r22, r22, 1
    7298:	b0000001 	imm	1
    729c:	fae03a1c 	swi	r23, r0, 14876	// 13a1c <__malloc_current_mallinfo>
    72a0:	b9f417c8 	brlid	r15, 6088	// 8a68 <__malloc_unlock>
    72a4:	fac30004 	swi	r22, r3, 4
    72a8:	e9e10000 	lwi	r15, r1, 0
    72ac:	ea61001c 	lwi	r19, r1, 28
    72b0:	eac10020 	lwi	r22, r1, 32
    72b4:	eae10024 	lwi	r23, r1, 36
    72b8:	30600001 	addik	r3, r0, 1
    72bc:	b60f0008 	rtsd	r15, 8
    72c0:	30210028 	addik	r1, r1, 40
    72c4:	b9f43650 	brlid	r15, 13904	// a914 <_sbrk_r>
    72c8:	10b30000 	addk	r5, r19, r0
    72cc:	b0000001 	imm	1
    72d0:	e880360c 	lwi	r4, r0, 13836
    72d4:	30c0000f 	addik	r6, r0, 15
    72d8:	14a41800 	rsubk	r5, r4, r3
    72dc:	14c53001 	cmp	r6, r5, r6
    72e0:	bca6ff64 	bgei	r6, -156		// 7244
    72e4:	a0a50001 	ori	r5, r5, 1
    72e8:	f8a40004 	swi	r5, r4, 4
    72ec:	b0000001 	imm	1
    72f0:	e88035fc 	lwi	r4, r0, 13820	// 135fc <__malloc_sbrk_base>
    72f4:	14641800 	rsubk	r3, r4, r3
    72f8:	b0000001 	imm	1
    72fc:	f8603a1c 	swi	r3, r0, 14876	// 13a1c <__malloc_current_mallinfo>
    7300:	b800ff44 	bri	-188		// 7244

00007304 <_free_r>:
    7304:	3021ffdc 	addik	r1, r1, -36
    7308:	fa61001c 	swi	r19, r1, 28
    730c:	f9e10000 	swi	r15, r1, 0
    7310:	fac10020 	swi	r22, r1, 32
    7314:	be06017c 	beqid	r6, 380		// 7490
    7318:	12660000 	addk	r19, r6, r0
    731c:	b9f41744 	brlid	r15, 5956	// 8a60 <__malloc_lock>
    7320:	12c50000 	addk	r22, r5, r0
    7324:	e913fffc 	lwi	r8, r19, -4
    7328:	30f3fff8 	addik	r7, r19, -8
    732c:	b0000001 	imm	1
    7330:	e8a0360c 	lwi	r5, r0, 13836
    7334:	a468fffe 	andi	r3, r8, -2
    7338:	10871800 	addk	r4, r7, r3
    733c:	e8c40004 	lwi	r6, r4, 4
    7340:	88a52000 	xor	r5, r5, r4
    7344:	b0000001 	imm	1
    7348:	3120360c 	addik	r9, r0, 13836
    734c:	be0501d8 	beqid	r5, 472		// 7524
    7350:	a4c6fffc 	andi	r6, r6, -4
    7354:	f8c40004 	swi	r6, r4, 4
    7358:	a5080001 	andi	r8, r8, 1
    735c:	be28002c 	bneid	r8, 44		// 7388
    7360:	10a00000 	addk	r5, r0, r0
    7364:	e953fff8 	lwi	r10, r19, -8
    7368:	14ea3800 	rsubk	r7, r10, r7
    736c:	e9070008 	lwi	r8, r7, 8
    7370:	10635000 	addk	r3, r3, r10
    7374:	89484800 	xor	r10, r8, r9
    7378:	bc0a0208 	beqi	r10, 520		// 7580
    737c:	e947000c 	lwi	r10, r7, 12
    7380:	f948000c 	swi	r10, r8, 12
    7384:	f90a0008 	swi	r8, r10, 8
    7388:	11043000 	addk	r8, r4, r6
    738c:	e9080004 	lwi	r8, r8, 4
    7390:	a5080001 	andi	r8, r8, 1
    7394:	bc28002c 	bnei	r8, 44		// 73c0
    7398:	10633000 	addk	r3, r3, r6
    739c:	be250018 	bneid	r5, 24		// 73b4
    73a0:	e8c40008 	lwi	r6, r4, 8
    73a4:	89264800 	xor	r9, r6, r9
    73a8:	b0000001 	imm	1
    73ac:	3100360c 	addik	r8, r0, 13836
    73b0:	bc0901d8 	beqi	r9, 472		// 7588
    73b4:	e884000c 	lwi	r4, r4, 12
    73b8:	f886000c 	swi	r4, r6, 12
    73bc:	f8c40008 	swi	r6, r4, 8
    73c0:	a0830001 	ori	r4, r3, 1
    73c4:	f8870004 	swi	r4, r7, 4
    73c8:	be2500c0 	bneid	r5, 192		// 7488
    73cc:	d8633800 	sw	r3, r3, r7
    73d0:	308001ff 	addik	r4, r0, 511
    73d4:	14832003 	cmpu	r4, r3, r4
    73d8:	bca400cc 	bgei	r4, 204		// 74a4
    73dc:	30a00004 	addik	r5, r0, 4	// 4 <_.xy>
    73e0:	10801800 	addk	r4, r0, r3
    73e4:	90830041 	srl	r4, r3
    73e8:	90840041 	srl	r4, r4
    73ec:	90840041 	srl	r4, r4
    73f0:	90840041 	srl	r4, r4
    73f4:	90840041 	srl	r4, r4
    73f8:	90840041 	srl	r4, r4
    73fc:	90840041 	srl	r4, r4
    7400:	90840041 	srl	r4, r4
    7404:	90840041 	srl	r4, r4
    7408:	14a42803 	cmpu	r5, r4, r5
    740c:	be4501a4 	bltid	r5, 420		// 75b0
    7410:	30a00014 	addik	r5, r0, 20	// 14 <_.d2>
    7414:	10c01800 	addk	r6, r0, r3
    7418:	90c30041 	srl	r6, r3
    741c:	90c60041 	srl	r6, r6
    7420:	90c60041 	srl	r6, r6
    7424:	90c60041 	srl	r6, r6
    7428:	90c60041 	srl	r6, r6
    742c:	90c60041 	srl	r6, r6
    7430:	30c60038 	addik	r6, r6, 56
    7434:	11063000 	addk	r8, r6, r6
    7438:	b0000001 	imm	1
    743c:	30a03604 	addik	r5, r0, 13828	// 13604 <__malloc_av_>
    7440:	11084000 	addk	r8, r8, r8
    7444:	11084000 	addk	r8, r8, r8
    7448:	11082800 	addk	r8, r8, r5
    744c:	e8880008 	lwi	r4, r8, 8
    7450:	88a44000 	xor	r5, r4, r8
    7454:	bc050174 	beqi	r5, 372		// 75c8
    7458:	e8c40004 	lwi	r6, r4, 4
    745c:	a4c6fffc 	andi	r6, r6, -4
    7460:	14c61803 	cmpu	r6, r6, r3
    7464:	bca60010 	bgei	r6, 16		// 7474
    7468:	e8840008 	lwi	r4, r4, 8
    746c:	88c82000 	xor	r6, r8, r4
    7470:	bc26ffe8 	bnei	r6, -24		// 7458
    7474:	e864000c 	lwi	r3, r4, 12
    7478:	f867000c 	swi	r3, r7, 12
    747c:	f8870008 	swi	r4, r7, 8
    7480:	f8e30008 	swi	r7, r3, 8
    7484:	f8e4000c 	swi	r7, r4, 12
    7488:	b9f415e0 	brlid	r15, 5600	// 8a68 <__malloc_unlock>
    748c:	10b60000 	addk	r5, r22, r0
    7490:	e9e10000 	lwi	r15, r1, 0
    7494:	ea61001c 	lwi	r19, r1, 28
    7498:	eac10020 	lwi	r22, r1, 32
    749c:	b60f0008 	rtsd	r15, 8
    74a0:	30210024 	addik	r1, r1, 36
    74a4:	10801800 	addk	r4, r0, r3
    74a8:	90830041 	srl	r4, r3
    74ac:	90840041 	srl	r4, r4
    74b0:	90840041 	srl	r4, r4
    74b4:	b0000001 	imm	1
    74b8:	30a03604 	addik	r5, r0, 13828	// 13604 <__malloc_av_>
    74bc:	10642000 	addk	r3, r4, r4
    74c0:	10631800 	addk	r3, r3, r3
    74c4:	10631800 	addk	r3, r3, r3
    74c8:	10632800 	addk	r3, r3, r5
    74cc:	11002000 	addk	r8, r0, r4
    74d0:	91040001 	sra	r8, r4
    74d4:	91080001 	sra	r8, r8
    74d8:	30800001 	addik	r4, r0, 1
    74dc:	e8a30008 	lwi	r5, r3, 8
    74e0:	a648001f 	andi	r18, r8, 31
    74e4:	10c02000 	addk	r6, r0, r4
    74e8:	be120014 	beqid	r18, 20		// 74fc
    74ec:	10c60000 	addk	r6, r6, r0
    74f0:	3252ffff 	addik	r18, r18, -1
    74f4:	be32fffc 	bneid	r18, -4		// 74f0
    74f8:	10c63000 	addk	r6, r6, r6
    74fc:	b0000001 	imm	1
    7500:	e8803608 	lwi	r4, r0, 13832
    7504:	f867000c 	swi	r3, r7, 12
    7508:	f8a70008 	swi	r5, r7, 8
    750c:	80862000 	or	r4, r6, r4
    7510:	b0000001 	imm	1
    7514:	f8803608 	swi	r4, r0, 13832
    7518:	f8e30008 	swi	r7, r3, 8
    751c:	b810ff6c 	brid	-148		// 7488
    7520:	f8e5000c 	swi	r7, r5, 12
    7524:	a5080001 	andi	r8, r8, 1
    7528:	be280024 	bneid	r8, 36		// 754c
    752c:	10661800 	addk	r3, r6, r3
    7530:	e8d3fff8 	lwi	r6, r19, -8
    7534:	14e63800 	rsubk	r7, r6, r7
    7538:	e887000c 	lwi	r4, r7, 12
    753c:	e8a70008 	lwi	r5, r7, 8
    7540:	10633000 	addk	r3, r3, r6
    7544:	f885000c 	swi	r4, r5, 12
    7548:	f8a40008 	swi	r5, r4, 8
    754c:	b0000001 	imm	1
    7550:	e8c03600 	lwi	r6, r0, 13824	// 13600 <__malloc_trim_threshold>
    7554:	a0830001 	ori	r4, r3, 1
    7558:	f8870004 	swi	r4, r7, 4
    755c:	b0000001 	imm	1
    7560:	f8e0360c 	swi	r7, r0, 13836
    7564:	14661803 	cmpu	r3, r6, r3
    7568:	bc43ff20 	blti	r3, -224		// 7488
    756c:	b0000001 	imm	1
    7570:	e8c03a4c 	lwi	r6, r0, 14924	// 13a4c <__malloc_top_pad>
    7574:	b9f4fc28 	brlid	r15, -984	// 719c <_malloc_trim_r>
    7578:	10b60000 	addk	r5, r22, r0
    757c:	b800ff0c 	bri	-244		// 7488
    7580:	b810fe08 	brid	-504		// 7388
    7584:	30a00001 	addik	r5, r0, 1
    7588:	b0000001 	imm	1
    758c:	f8e03618 	swi	r7, r0, 13848
    7590:	b0000001 	imm	1
    7594:	f8e03614 	swi	r7, r0, 13844
    7598:	a0830001 	ori	r4, r3, 1
    759c:	f907000c 	swi	r8, r7, 12
    75a0:	f9070008 	swi	r8, r7, 8
    75a4:	f8870004 	swi	r4, r7, 4
    75a8:	b810fee0 	brid	-288		// 7488
    75ac:	d8633800 	sw	r3, r3, r7
    75b0:	14a42803 	cmpu	r5, r4, r5
    75b4:	be45005c 	bltid	r5, 92		// 7610
    75b8:	30a00054 	addik	r5, r0, 84
    75bc:	30c4005b 	addik	r6, r4, 91
    75c0:	b810fe78 	brid	-392		// 7438
    75c4:	11063000 	addk	r8, r6, r6
    75c8:	10603000 	addk	r3, r0, r6
    75cc:	90660001 	sra	r3, r6
    75d0:	90630001 	sra	r3, r3
    75d4:	30c00001 	addik	r6, r0, 1
    75d8:	a643001f 	andi	r18, r3, 31
    75dc:	10a03000 	addk	r5, r0, r6
    75e0:	be120014 	beqid	r18, 20		// 75f4
    75e4:	10a50000 	addk	r5, r5, r0
    75e8:	3252ffff 	addik	r18, r18, -1
    75ec:	be32fffc 	bneid	r18, -4		// 75e8
    75f0:	10a52800 	addk	r5, r5, r5
    75f4:	b0000001 	imm	1
    75f8:	e8603608 	lwi	r3, r0, 13832
    75fc:	80651800 	or	r3, r5, r3
    7600:	b0000001 	imm	1
    7604:	f8603608 	swi	r3, r0, 13832
    7608:	b810fe70 	brid	-400		// 7478
    760c:	10640000 	addk	r3, r4, r0
    7610:	14a42803 	cmpu	r5, r4, r5
    7614:	be450048 	bltid	r5, 72		// 765c
    7618:	30a00154 	addik	r5, r0, 340
    761c:	10c01800 	addk	r6, r0, r3
    7620:	90c30041 	srl	r6, r3
    7624:	90c60041 	srl	r6, r6
    7628:	90c60041 	srl	r6, r6
    762c:	90c60041 	srl	r6, r6
    7630:	90c60041 	srl	r6, r6
    7634:	90c60041 	srl	r6, r6
    7638:	90c60041 	srl	r6, r6
    763c:	90c60041 	srl	r6, r6
    7640:	90c60041 	srl	r6, r6
    7644:	90c60041 	srl	r6, r6
    7648:	90c60041 	srl	r6, r6
    764c:	90c60041 	srl	r6, r6
    7650:	30c6006e 	addik	r6, r6, 110
    7654:	b810fde4 	brid	-540		// 7438
    7658:	11063000 	addk	r8, r6, r6
    765c:	14a42803 	cmpu	r5, r4, r5
    7660:	be450054 	bltid	r5, 84		// 76b4
    7664:	30a00554 	addik	r5, r0, 1364
    7668:	10c01800 	addk	r6, r0, r3
    766c:	90c30041 	srl	r6, r3
    7670:	90c60041 	srl	r6, r6
    7674:	90c60041 	srl	r6, r6
    7678:	90c60041 	srl	r6, r6
    767c:	90c60041 	srl	r6, r6
    7680:	90c60041 	srl	r6, r6
    7684:	90c60041 	srl	r6, r6
    7688:	90c60041 	srl	r6, r6
    768c:	90c60041 	srl	r6, r6
    7690:	90c60041 	srl	r6, r6
    7694:	90c60041 	srl	r6, r6
    7698:	90c60041 	srl	r6, r6
    769c:	90c60041 	srl	r6, r6
    76a0:	90c60041 	srl	r6, r6
    76a4:	90c60041 	srl	r6, r6
    76a8:	30c60077 	addik	r6, r6, 119
    76ac:	b810fd8c 	brid	-628		// 7438
    76b0:	11063000 	addk	r8, r6, r6
    76b4:	14842803 	cmpu	r4, r4, r5
    76b8:	bc44005c 	blti	r4, 92		// 7714
    76bc:	10c01800 	addk	r6, r0, r3
    76c0:	90c30041 	srl	r6, r3
    76c4:	90c60041 	srl	r6, r6
    76c8:	90c60041 	srl	r6, r6
    76cc:	90c60041 	srl	r6, r6
    76d0:	90c60041 	srl	r6, r6
    76d4:	90c60041 	srl	r6, r6
    76d8:	90c60041 	srl	r6, r6
    76dc:	90c60041 	srl	r6, r6
    76e0:	90c60041 	srl	r6, r6
    76e4:	90c60041 	srl	r6, r6
    76e8:	90c60041 	srl	r6, r6
    76ec:	90c60041 	srl	r6, r6
    76f0:	90c60041 	srl	r6, r6
    76f4:	90c60041 	srl	r6, r6
    76f8:	90c60041 	srl	r6, r6
    76fc:	90c60041 	srl	r6, r6
    7700:	90c60041 	srl	r6, r6
    7704:	90c60041 	srl	r6, r6
    7708:	30c6007c 	addik	r6, r6, 124
    770c:	b810fd2c 	brid	-724		// 7438
    7710:	11063000 	addk	r8, r6, r6
    7714:	310000fc 	addik	r8, r0, 252
    7718:	b810fd20 	brid	-736		// 7438
    771c:	30c0007e 	addik	r6, r0, 126

00007720 <_fwalk>:
    7720:	3021ffcc 	addik	r1, r1, -52
    7724:	fb21002c 	swi	r25, r1, 44
    7728:	f9e10000 	swi	r15, r1, 0
    772c:	fa61001c 	swi	r19, r1, 28
    7730:	fac10020 	swi	r22, r1, 32
    7734:	fae10024 	swi	r23, r1, 36
    7738:	fb010028 	swi	r24, r1, 40
    773c:	332500d8 	addik	r25, r5, 216
    7740:	be1900a4 	beqid	r25, 164		// 77e4
    7744:	fb410030 	swi	r26, r1, 48
    7748:	13060000 	addk	r24, r6, r0
    774c:	13400000 	addk	r26, r0, r0
    7750:	32e00001 	addik	r23, r0, 1
    7754:	ead90004 	lwi	r22, r25, 4
    7758:	32d6ffff 	addik	r22, r22, -1
    775c:	be560058 	bltid	r22, 88		// 77b4
    7760:	ea790008 	lwi	r19, r25, 8
    7764:	e493000c 	lhui	r4, r19, 12
    7768:	32d6ffff 	addik	r22, r22, -1
    776c:	b0000000 	imm	0
    7770:	a4e4ffff 	andi	r7, r4, -1
    7774:	90840061 	sext16	r4, r4
    7778:	be040030 	beqid	r4, 48		// 77a8
    777c:	14e7b803 	cmpu	r7, r7, r23
    7780:	bea7002c 	bgeid	r7, 44		// 77ac
    7784:	a896ffff 	xori	r4, r22, -1
    7788:	e493000e 	lhui	r4, r19, 14
    778c:	90840061 	sext16	r4, r4
    7790:	a884ffff 	xori	r4, r4, -1
    7794:	be040014 	beqid	r4, 20		// 77a8
    7798:	10b30000 	addk	r5, r19, r0
    779c:	99fcc000 	brald	r15, r24
    77a0:	80000000 	or	r0, r0, r0
    77a4:	835a1800 	or	r26, r26, r3
    77a8:	a896ffff 	xori	r4, r22, -1
    77ac:	be24ffb8 	bneid	r4, -72		// 7764
    77b0:	32730068 	addik	r19, r19, 104
    77b4:	eb390000 	lwi	r25, r25, 0
    77b8:	bc39ff9c 	bnei	r25, -100		// 7754
    77bc:	107a0000 	addk	r3, r26, r0
    77c0:	e9e10000 	lwi	r15, r1, 0
    77c4:	ea61001c 	lwi	r19, r1, 28
    77c8:	eac10020 	lwi	r22, r1, 32
    77cc:	eae10024 	lwi	r23, r1, 36
    77d0:	eb010028 	lwi	r24, r1, 40
    77d4:	eb21002c 	lwi	r25, r1, 44
    77d8:	eb410030 	lwi	r26, r1, 48
    77dc:	b60f0008 	rtsd	r15, 8
    77e0:	30210034 	addik	r1, r1, 52
    77e4:	b810ffd8 	brid	-40		// 77bc
    77e8:	13590000 	addk	r26, r25, r0

000077ec <_fwalk_reent>:
    77ec:	3021ffc8 	addik	r1, r1, -56
    77f0:	fb21002c 	swi	r25, r1, 44
    77f4:	fb610034 	swi	r27, r1, 52
    77f8:	f9e10000 	swi	r15, r1, 0
    77fc:	fa61001c 	swi	r19, r1, 28
    7800:	fac10020 	swi	r22, r1, 32
    7804:	fae10024 	swi	r23, r1, 36
    7808:	fb010028 	swi	r24, r1, 40
    780c:	fb410030 	swi	r26, r1, 48
    7810:	332500d8 	addik	r25, r5, 216
    7814:	be1900a8 	beqid	r25, 168		// 78bc
    7818:	13650000 	addk	r27, r5, r0
    781c:	13060000 	addk	r24, r6, r0
    7820:	13400000 	addk	r26, r0, r0
    7824:	32e00001 	addik	r23, r0, 1
    7828:	ead90004 	lwi	r22, r25, 4
    782c:	32d6ffff 	addik	r22, r22, -1
    7830:	be560058 	bltid	r22, 88		// 7888
    7834:	ea790008 	lwi	r19, r25, 8
    7838:	e493000c 	lhui	r4, r19, 12
    783c:	32d6ffff 	addik	r22, r22, -1
    7840:	b0000000 	imm	0
    7844:	a4e4ffff 	andi	r7, r4, -1
    7848:	90840061 	sext16	r4, r4
    784c:	be040030 	beqid	r4, 48		// 787c
    7850:	14e7b803 	cmpu	r7, r7, r23
    7854:	bea70028 	bgeid	r7, 40		// 787c
    7858:	10d30000 	addk	r6, r19, r0
    785c:	e493000e 	lhui	r4, r19, 14
    7860:	90840061 	sext16	r4, r4
    7864:	a884ffff 	xori	r4, r4, -1
    7868:	be040014 	beqid	r4, 20		// 787c
    786c:	10bb0000 	addk	r5, r27, r0
    7870:	99fcc000 	brald	r15, r24
    7874:	80000000 	or	r0, r0, r0
    7878:	835a1800 	or	r26, r26, r3
    787c:	a896ffff 	xori	r4, r22, -1
    7880:	be24ffb8 	bneid	r4, -72		// 7838
    7884:	32730068 	addik	r19, r19, 104
    7888:	eb390000 	lwi	r25, r25, 0
    788c:	bc39ff9c 	bnei	r25, -100		// 7828
    7890:	107a0000 	addk	r3, r26, r0
    7894:	e9e10000 	lwi	r15, r1, 0
    7898:	ea61001c 	lwi	r19, r1, 28
    789c:	eac10020 	lwi	r22, r1, 32
    78a0:	eae10024 	lwi	r23, r1, 36
    78a4:	eb010028 	lwi	r24, r1, 40
    78a8:	eb21002c 	lwi	r25, r1, 44
    78ac:	eb410030 	lwi	r26, r1, 48
    78b0:	eb610034 	lwi	r27, r1, 52
    78b4:	b60f0008 	rtsd	r15, 8
    78b8:	30210038 	addik	r1, r1, 56
    78bc:	b810ffd4 	brid	-44		// 7890
    78c0:	13590000 	addk	r26, r25, r0

000078c4 <_setlocale_r>:
    78c4:	3021ffe0 	addik	r1, r1, -32
    78c8:	fa61001c 	swi	r19, r1, 28
    78cc:	f9e10000 	swi	r15, r1, 0
    78d0:	be07001c 	beqid	r7, 28		// 78ec
    78d4:	12670000 	addk	r19, r7, r0
    78d8:	b0000001 	imm	1
    78dc:	30c02c84 	addik	r6, r0, 11396
    78e0:	b9f43204 	brlid	r15, 12804	// aae4 <strcmp>
    78e4:	10a70000 	addk	r5, r7, r0
    78e8:	bc230020 	bnei	r3, 32		// 7908
    78ec:	b0000001 	imm	1
    78f0:	30802c80 	addik	r4, r0, 11392
    78f4:	10640000 	addk	r3, r4, r0
    78f8:	e9e10000 	lwi	r15, r1, 0
    78fc:	ea61001c 	lwi	r19, r1, 28
    7900:	b60f0008 	rtsd	r15, 8
    7904:	30210020 	addik	r1, r1, 32
    7908:	b0000001 	imm	1
    790c:	30c02c80 	addik	r6, r0, 11392
    7910:	b9f431d4 	brlid	r15, 12756	// aae4 <strcmp>
    7914:	10b30000 	addk	r5, r19, r0
    7918:	bc03ffd4 	beqi	r3, -44		// 78ec
    791c:	b0000001 	imm	1
    7920:	30c02c8c 	addik	r6, r0, 11404
    7924:	b9f431c0 	brlid	r15, 12736	// aae4 <strcmp>
    7928:	10b30000 	addk	r5, r19, r0
    792c:	b0000001 	imm	1
    7930:	30802c80 	addik	r4, r0, 11392
    7934:	be03ffc4 	beqid	r3, -60		// 78f8
    7938:	10640000 	addk	r3, r4, r0
    793c:	b810ffb8 	brid	-72		// 78f4
    7940:	10800000 	addk	r4, r0, r0

00007944 <__locale_charset>:
    7944:	b0000001 	imm	1
    7948:	30603584 	addik	r3, r0, 13700	// 13584 <lc_ctype_charset>
    794c:	b60f0008 	rtsd	r15, 8
    7950:	80000000 	or	r0, r0, r0

00007954 <__locale_mb_cur_max>:
    7954:	b0000001 	imm	1
    7958:	e8603580 	lwi	r3, r0, 13696	// 13580 <__mb_cur_max>
    795c:	b60f0008 	rtsd	r15, 8
    7960:	80000000 	or	r0, r0, r0

00007964 <__locale_msgcharset>:
    7964:	b0000001 	imm	1
    7968:	306035a4 	addik	r3, r0, 13732	// 135a4 <lc_message_charset>
    796c:	b60f0008 	rtsd	r15, 8
    7970:	80000000 	or	r0, r0, r0

00007974 <__locale_cjk_lang>:
    7974:	b60f0008 	rtsd	r15, 8
    7978:	10600000 	addk	r3, r0, r0

0000797c <_localeconv_r>:
    797c:	b0000001 	imm	1
    7980:	306035c4 	addik	r3, r0, 13764	// 135c4 <lconv>
    7984:	b60f0008 	rtsd	r15, 8
    7988:	80000000 	or	r0, r0, r0

0000798c <setlocale>:
    798c:	10650000 	addk	r3, r5, r0
    7990:	10e60000 	addk	r7, r6, r0
    7994:	b0000001 	imm	1
    7998:	e8a0348c 	lwi	r5, r0, 13452	// 1348c <_impure_ptr>
    799c:	3021ffe4 	addik	r1, r1, -28
    79a0:	f9e10000 	swi	r15, r1, 0
    79a4:	b9f4ff20 	brlid	r15, -224	// 78c4 <_setlocale_r>
    79a8:	10c30000 	addk	r6, r3, r0
    79ac:	e9e10000 	lwi	r15, r1, 0
    79b0:	b60f0008 	rtsd	r15, 8
    79b4:	3021001c 	addik	r1, r1, 28

000079b8 <localeconv>:
    79b8:	b0000001 	imm	1
    79bc:	306035c4 	addik	r3, r0, 13764	// 135c4 <lconv>
    79c0:	b60f0008 	rtsd	r15, 8
    79c4:	80000000 	or	r0, r0, r0

000079c8 <__smakebuf_r>:
    79c8:	3021ff98 	addik	r1, r1, -104
    79cc:	fa610058 	swi	r19, r1, 88
    79d0:	f9e10000 	swi	r15, r1, 0
    79d4:	fac1005c 	swi	r22, r1, 92
    79d8:	fae10060 	swi	r23, r1, 96
    79dc:	fb010064 	swi	r24, r1, 100
    79e0:	e466000c 	lhui	r3, r6, 12
    79e4:	90630061 	sext16	r3, r3
    79e8:	a4830002 	andi	r4, r3, 2
    79ec:	90840061 	sext16	r4, r4
    79f0:	be240154 	bneid	r4, 340		// 7b44
    79f4:	12660000 	addk	r19, r6, r0
    79f8:	e4c6000e 	lhui	r6, r6, 14
    79fc:	90c60061 	sext16	r6, r6
    7a00:	be4600d8 	bltid	r6, 216		// 7ad8
    7a04:	12c50000 	addk	r22, r5, r0
    7a08:	b9f45028 	brlid	r15, 20520	// ca30 <_fstat_r>
    7a0c:	30e1001c 	addik	r7, r1, 28
    7a10:	be4300c0 	bltid	r3, 192		// 7ad0
    7a14:	e8610020 	lwi	r3, r1, 32
    7a18:	b0000000 	imm	0
    7a1c:	a463f000 	andi	r3, r3, -4096
    7a20:	a8832000 	xori	r4, r3, 8192
    7a24:	14a40000 	rsubk	r5, r4, r0
    7a28:	80852000 	or	r4, r5, r4
    7a2c:	a884ffff 	xori	r4, r4, -1
    7a30:	b0000000 	imm	0
    7a34:	a8638000 	xori	r3, r3, -32768
    7a38:	13002000 	addk	r24, r0, r4
    7a3c:	93040041 	srl	r24, r4
    7a40:	93180041 	srl	r24, r24
    7a44:	93180041 	srl	r24, r24
    7a48:	93180041 	srl	r24, r24
    7a4c:	93180041 	srl	r24, r24
    7a50:	93180041 	srl	r24, r24
    7a54:	93180041 	srl	r24, r24
    7a58:	93180041 	srl	r24, r24
    7a5c:	93180041 	srl	r24, r24
    7a60:	93180041 	srl	r24, r24
    7a64:	93180041 	srl	r24, r24
    7a68:	93180041 	srl	r24, r24
    7a6c:	93180041 	srl	r24, r24
    7a70:	93180041 	srl	r24, r24
    7a74:	93180041 	srl	r24, r24
    7a78:	93180041 	srl	r24, r24
    7a7c:	93180041 	srl	r24, r24
    7a80:	93180041 	srl	r24, r24
    7a84:	93180041 	srl	r24, r24
    7a88:	93180041 	srl	r24, r24
    7a8c:	93180041 	srl	r24, r24
    7a90:	93180041 	srl	r24, r24
    7a94:	93180041 	srl	r24, r24
    7a98:	93180041 	srl	r24, r24
    7a9c:	93180041 	srl	r24, r24
    7aa0:	93180041 	srl	r24, r24
    7aa4:	93180041 	srl	r24, r24
    7aa8:	93180041 	srl	r24, r24
    7aac:	93180041 	srl	r24, r24
    7ab0:	93180041 	srl	r24, r24
    7ab4:	93180041 	srl	r24, r24
    7ab8:	bc0300c4 	beqi	r3, 196		// 7b7c
    7abc:	e473000c 	lhui	r3, r19, 12
    7ac0:	32e00400 	addik	r23, r0, 1024
    7ac4:	a0630800 	ori	r3, r3, 2048
    7ac8:	b810002c 	brid	44		// 7af4
    7acc:	f473000c 	shi	r3, r19, 12
    7ad0:	e473000c 	lhui	r3, r19, 12
    7ad4:	90630061 	sext16	r3, r3
    7ad8:	a4830080 	andi	r4, r3, 128
    7adc:	90840061 	sext16	r4, r4
    7ae0:	be240094 	bneid	r4, 148		// 7b74
    7ae4:	32e00400 	addik	r23, r0, 1024
    7ae8:	a0630800 	ori	r3, r3, 2048
    7aec:	f473000c 	shi	r3, r19, 12
    7af0:	13000000 	addk	r24, r0, r0
    7af4:	10b60000 	addk	r5, r22, r0
    7af8:	b9f40160 	brlid	r15, 352	// 7c58 <_malloc_r>
    7afc:	10d70000 	addk	r6, r23, r0
    7b00:	bc0300d0 	beqi	r3, 208		// 7bd0
    7b04:	e493000c 	lhui	r4, r19, 12
    7b08:	30a06e28 	addik	r5, r0, 28200	// 6e28 <_cleanup_r>
    7b0c:	a0840080 	ori	r4, r4, 128
    7b10:	f8b60028 	swi	r5, r22, 40
    7b14:	f493000c 	shi	r4, r19, 12
    7b18:	f8730000 	swi	r3, r19, 0
    7b1c:	f8730010 	swi	r3, r19, 16
    7b20:	be380088 	bneid	r24, 136		// 7ba8
    7b24:	faf30014 	swi	r23, r19, 20
    7b28:	e9e10000 	lwi	r15, r1, 0
    7b2c:	ea610058 	lwi	r19, r1, 88
    7b30:	eac1005c 	lwi	r22, r1, 92
    7b34:	eae10060 	lwi	r23, r1, 96
    7b38:	eb010064 	lwi	r24, r1, 100
    7b3c:	b60f0008 	rtsd	r15, 8
    7b40:	30210068 	addik	r1, r1, 104
    7b44:	30660047 	addik	r3, r6, 71
    7b48:	f8660000 	swi	r3, r6, 0
    7b4c:	f8660010 	swi	r3, r6, 16
    7b50:	30600001 	addik	r3, r0, 1
    7b54:	f8660014 	swi	r3, r6, 20
    7b58:	e9e10000 	lwi	r15, r1, 0
    7b5c:	ea610058 	lwi	r19, r1, 88
    7b60:	eac1005c 	lwi	r22, r1, 92
    7b64:	eae10060 	lwi	r23, r1, 96
    7b68:	eb010064 	lwi	r24, r1, 100
    7b6c:	b60f0008 	rtsd	r15, 8
    7b70:	30210068 	addik	r1, r1, 104
    7b74:	b810ff74 	brid	-140		// 7ae8
    7b78:	32e00040 	addik	r23, r0, 64	// 40 <_.tmp>
    7b7c:	e893002c 	lwi	r4, r19, 44
    7b80:	b0000000 	imm	0
    7b84:	3060aa64 	addik	r3, r0, -21916	// aa64 <__sseek>
    7b88:	88641800 	xor	r3, r4, r3
    7b8c:	bc23ff30 	bnei	r3, -208		// 7abc
    7b90:	e473000c 	lhui	r3, r19, 12
    7b94:	32e00400 	addik	r23, r0, 1024
    7b98:	faf30050 	swi	r23, r19, 80
    7b9c:	8063b800 	or	r3, r3, r23
    7ba0:	b810ff54 	brid	-172		// 7af4
    7ba4:	f473000c 	shi	r3, r19, 12
    7ba8:	e4d3000e 	lhui	r6, r19, 14
    7bac:	10b60000 	addk	r5, r22, r0
    7bb0:	b9f45454 	brlid	r15, 21588	// d004 <_isatty_r>
    7bb4:	90c60061 	sext16	r6, r6
    7bb8:	be03ff74 	beqid	r3, -140		// 7b2c
    7bbc:	e9e10000 	lwi	r15, r1, 0
    7bc0:	e473000c 	lhui	r3, r19, 12
    7bc4:	a0630001 	ori	r3, r3, 1
    7bc8:	b810ff60 	brid	-160		// 7b28
    7bcc:	f473000c 	shi	r3, r19, 12
    7bd0:	e473000c 	lhui	r3, r19, 12
    7bd4:	90630061 	sext16	r3, r3
    7bd8:	a4830200 	andi	r4, r3, 512
    7bdc:	90840061 	sext16	r4, r4
    7be0:	be24ff4c 	bneid	r4, -180		// 7b2c
    7be4:	e9e10000 	lwi	r15, r1, 0
    7be8:	a0630002 	ori	r3, r3, 2
    7bec:	30930047 	addik	r4, r19, 71
    7bf0:	f473000c 	shi	r3, r19, 12
    7bf4:	30600001 	addik	r3, r0, 1
    7bf8:	f8930000 	swi	r4, r19, 0
    7bfc:	f8930010 	swi	r4, r19, 16
    7c00:	b810ff28 	brid	-216		// 7b28
    7c04:	f8730014 	swi	r3, r19, 20

00007c08 <malloc>:
    7c08:	10c50000 	addk	r6, r5, r0
    7c0c:	b0000001 	imm	1
    7c10:	e8a0348c 	lwi	r5, r0, 13452	// 1348c <_impure_ptr>
    7c14:	3021ffe4 	addik	r1, r1, -28
    7c18:	f9e10000 	swi	r15, r1, 0
    7c1c:	b9f4003c 	brlid	r15, 60	// 7c58 <_malloc_r>
    7c20:	80000000 	or	r0, r0, r0
    7c24:	e9e10000 	lwi	r15, r1, 0
    7c28:	b60f0008 	rtsd	r15, 8
    7c2c:	3021001c 	addik	r1, r1, 28

00007c30 <free>:
    7c30:	10c50000 	addk	r6, r5, r0
    7c34:	b0000001 	imm	1
    7c38:	e8a0348c 	lwi	r5, r0, 13452	// 1348c <_impure_ptr>
    7c3c:	3021ffe4 	addik	r1, r1, -28
    7c40:	f9e10000 	swi	r15, r1, 0
    7c44:	b9f4f6c0 	brlid	r15, -2368	// 7304 <_free_r>
    7c48:	80000000 	or	r0, r0, r0
    7c4c:	e9e10000 	lwi	r15, r1, 0
    7c50:	b60f0008 	rtsd	r15, 8
    7c54:	3021001c 	addik	r1, r1, 28

00007c58 <_malloc_r>:
    7c58:	3021ffc4 	addik	r1, r1, -60
    7c5c:	fac10020 	swi	r22, r1, 32
    7c60:	30600016 	addik	r3, r0, 22
    7c64:	32c6000b 	addik	r22, r6, 11
    7c68:	fae10024 	swi	r23, r1, 36
    7c6c:	f9e10000 	swi	r15, r1, 0
    7c70:	fa61001c 	swi	r19, r1, 28
    7c74:	fb010028 	swi	r24, r1, 40
    7c78:	fb21002c 	swi	r25, r1, 44
    7c7c:	fb410030 	swi	r26, r1, 48
    7c80:	fb610034 	swi	r27, r1, 52
    7c84:	fb810038 	swi	r28, r1, 56
    7c88:	14761803 	cmpu	r3, r22, r3
