	.section .mdebug.abi32
	.previous
	.gnu_attribute 4, 1

 # -G value = 8, Arch = mips1, ISA = 1
 # GNU C (GCC) version 4.7.2 (mips-elf)
 #	compiled by GNU C version 4.2.1 20070719  [FreeBSD], GMP version 5.1.1, MPFR version 3.1.2, MPC version 1.0.1
 # GGC heuristics: --param ggc-min-expand=100 --param ggc-min-heapsize=131072
 # options passed:  -D ___FreeBSD___ -D ARCH="mips-elf" mips-elf.c
 # -mno-synci -auxbase-strip mips-elf.s -g -O -Wall -fno-builtin
 # -fverbose-asm -fomit-frame-pointer
 # options enabled:  -fauto-inc-dec -fbranch-count-reg
 # -fcombine-stack-adjustments -fcommon -fcompare-elim -fcprop-registers
 # -fdebug-types-section -fdefer-pop -fdelayed-branch
 # -fdelete-null-pointer-checks -fdwarf2-cfi-asm -fearly-inlining
 # -feliminate-unused-debug-types -fforward-propagate -ffunction-cse
 # -fgcse-lm -fgnu-runtime -fguess-branch-probability -fident
 # -fif-conversion -fif-conversion2 -finline -finline-atomics
 # -finline-functions-called-once -fipa-profile -fipa-pure-const
 # -fipa-reference -fira-share-save-slots -fira-share-spill-slots -fivopts
 # -fkeep-static-consts -fleading-underscore -fmath-errno -fmerge-constants
 # -fmerge-debug-strings -fmove-loop-invariants -fomit-frame-pointer
 # -fpcc-struct-return -fpeephole -fprefetch-loop-arrays
 # -fsched-critical-path-heuristic -fsched-dep-count-heuristic
 # -fsched-group-heuristic -fsched-interblock -fsched-last-insn-heuristic
 # -fsched-rank-heuristic -fsched-spec -fsched-spec-insn-heuristic
 # -fsched-stalled-insns-dep -fshow-column -fshrink-wrap -fsigned-zeros
 # -fsplit-ivs-in-unroller -fsplit-wide-types -fstrict-volatile-bitfields
 # -ftoplevel-reorder -ftrapping-math -ftree-bit-ccp -ftree-ccp -ftree-ch
 # -ftree-copy-prop -ftree-copyrename -ftree-cselim -ftree-dce
 # -ftree-dominator-opts -ftree-dse -ftree-forwprop -ftree-fre
 # -ftree-loop-if-convert -ftree-loop-im -ftree-loop-ivcanon
 # -ftree-loop-optimize -ftree-parallelize-loops= -ftree-phiprop -ftree-pta
 # -ftree-reassoc -ftree-scev-cprop -ftree-sink -ftree-slp-vectorize
 # -ftree-sra -ftree-ter -ftree-vect-loop-version -funit-at-a-time
 # -fvar-tracking -fvar-tracking-assignments -fverbose-asm
 # -fzero-initialized-in-bss -mcheck-zero-division -mdivide-traps
 # -mdouble-float -meb -mexplicit-relocs -mextern-sdata -mfp-exceptions
 # -mfp32 -mfused-madd -mgp32 -mgpopt -mhard-float -mlocal-sdata -mlong32
 # -mno-mdmx -mno-mips16 -mno-mips3d -mshared

	.text
$Ltext0:
	.cfi_sections	.debug_frame
	.align	2
	.globl	_exit
$LFB0 = .
	.file 1 "mips-elf.c"
	.loc 1 39 0
	.cfi_startproc
	.set	nomips16
	.ent	_exit
	.type	_exit, @function
_exit:
	.frame	$sp,24,$31		# vars= 0, regs= 1/0, args= 16, gp= 0
	.mask	0x80000000,-4
	.fmask	0x00000000,0
	.set	noreorder
	.set	nomacro
$LVL0 = .
	addiu	$sp,$sp,-24	 #,,
$LCFI0 = .
	.cfi_def_cfa_offset 24
	sw	$31,20($sp)	 #,
	.cfi_offset 31, -4
	.loc 1 40 0
	jal	__exit
	nop
	 #
$LVL1 = .
	.set	macro
	.set	reorder
	.end	_exit
	.cfi_endproc
$LFE0:
	.size	_exit, .-_exit
	.align	2
	.globl	read
$LFB1 = .
	.loc 1 44 0
	.cfi_startproc
	.set	nomips16
	.ent	read
	.type	read, @function
read:
	.frame	$sp,24,$31		# vars= 0, regs= 1/0, args= 16, gp= 0
	.mask	0x80000000,-4
	.fmask	0x00000000,0
	.set	noreorder
	.set	nomacro
$LVL2 = .
	addiu	$sp,$sp,-24	 #,,
$LCFI1 = .
	.cfi_def_cfa_offset 24
	sw	$31,20($sp)	 #,
	.cfi_offset 31, -4
	.loc 1 45 0
	jal	__read
	nop
	 #
$LVL3 = .
	.loc 1 46 0
	lw	$31,20($sp)	 #,
	nop
	j	$31	 #
	addiu	$sp,$sp,24	 #,,

$LCFI2 = .
	.cfi_def_cfa_offset 0
	.cfi_restore 31
	.set	macro
	.set	reorder
	.end	read
	.cfi_endproc
$LFE1:
	.size	read, .-read
	.align	2
	.globl	write
$LFB2 = .
	.loc 1 48 0
	.cfi_startproc
	.set	nomips16
	.ent	write
	.type	write, @function
write:
	.frame	$sp,24,$31		# vars= 0, regs= 1/0, args= 16, gp= 0
	.mask	0x80000000,-4
	.fmask	0x00000000,0
	.set	noreorder
	.set	nomacro
$LVL4 = .
	addiu	$sp,$sp,-24	 #,,
$LCFI3 = .
	.cfi_def_cfa_offset 24
	sw	$31,20($sp)	 #,
	.cfi_offset 31, -4
	.loc 1 49 0
	jal	__write
	nop
	 #
$LVL5 = .
	.loc 1 50 0
	lw	$31,20($sp)	 #,
	nop
	j	$31	 #
	addiu	$sp,$sp,24	 #,,

$LCFI4 = .
	.cfi_def_cfa_offset 0
	.cfi_restore 31
	.set	macro
	.set	reorder
	.end	write
	.cfi_endproc
$LFE2:
	.size	write, .-write
	.align	2
	.globl	open
$LFB3 = .
	.loc 1 52 0
	.cfi_startproc
	.set	nomips16
	.ent	open
	.type	open, @function
open:
	.frame	$sp,24,$31		# vars= 0, regs= 1/0, args= 16, gp= 0
	.mask	0x80000000,-4
	.fmask	0x00000000,0
	.set	noreorder
	.set	nomacro
$LVL6 = .
	addiu	$sp,$sp,-24	 #,,
$LCFI5 = .
	.cfi_def_cfa_offset 24
	sw	$31,20($sp)	 #,
	.cfi_offset 31, -4
	.loc 1 53 0
	jal	__open
	nop
	 #
$LVL7 = .
	.loc 1 54 0
	lw	$31,20($sp)	 #,
	nop
	j	$31	 #
	addiu	$sp,$sp,24	 #,,

$LCFI6 = .
	.cfi_def_cfa_offset 0
	.cfi_restore 31
	.set	macro
	.set	reorder
	.end	open
	.cfi_endproc
$LFE3:
	.size	open, .-open
	.align	2
	.globl	close
$LFB4 = .
	.loc 1 56 0
	.cfi_startproc
	.set	nomips16
	.ent	close
	.type	close, @function
close:
	.frame	$sp,24,$31		# vars= 0, regs= 1/0, args= 16, gp= 0
	.mask	0x80000000,-4
	.fmask	0x00000000,0
	.set	noreorder
	.set	nomacro
$LVL8 = .
	addiu	$sp,$sp,-24	 #,,
$LCFI7 = .
	.cfi_def_cfa_offset 24
	sw	$31,20($sp)	 #,
	.cfi_offset 31, -4
	.loc 1 57 0
	jal	__close
	nop
	 #
$LVL9 = .
	.loc 1 58 0
	lw	$31,20($sp)	 #,
	nop
	j	$31	 #
	addiu	$sp,$sp,24	 #,,

$LCFI8 = .
	.cfi_def_cfa_offset 0
	.cfi_restore 31
	.set	macro
	.set	reorder
	.end	close
	.cfi_endproc
$LFE4:
	.size	close, .-close
	.align	2
	.globl	fstat
$LFB5 = .
	.loc 1 63 0
	.cfi_startproc
	.set	nomips16
	.ent	fstat
	.type	fstat, @function
fstat:
	.frame	$sp,24,$31		# vars= 0, regs= 1/0, args= 16, gp= 0
	.mask	0x80000000,-4
	.fmask	0x00000000,0
	.set	noreorder
	.set	nomacro
$LVL10 = .
	addiu	$sp,$sp,-24	 #,,
$LCFI9 = .
	.cfi_def_cfa_offset 24
	sw	$31,20($sp)	 #,
	.cfi_offset 31, -4
	.loc 1 64 0
	move	$4,$5	 #, sb
$LVL11 = .
	move	$5,$0	 #,
$LVL12 = .
	jal	memset	 #
	li	$6,60			# 0x3c	 #,

$LVL13 = .
	.loc 1 66 0
	move	$2,$0	 #,
	lw	$31,20($sp)	 #,
	nop
	j	$31	 #
	addiu	$sp,$sp,24	 #,,

$LCFI10 = .
	.cfi_def_cfa_offset 0
	.cfi_restore 31
	.set	macro
	.set	reorder
	.end	fstat
	.cfi_endproc
$LFE5:
	.size	fstat, .-fstat
	.align	2
	.globl	lseek
$LFB6 = .
	.loc 1 69 0
	.cfi_startproc
	.set	nomips16
	.ent	lseek
	.type	lseek, @function
lseek:
	.frame	$sp,0,$31		# vars= 0, regs= 0/0, args= 0, gp= 0
	.mask	0x00000000,0
	.fmask	0x00000000,0
	.set	noreorder
	.set	nomacro
$LVL14 = .
	.loc 1 71 0
	j	$31
	move	$2,$5	 #, offset

	.set	macro
	.set	reorder
	.end	lseek
	.cfi_endproc
$LFE6:
	.size	lseek, .-lseek
	.align	2
	.globl	sbrk
$LFB7 = .
	.loc 1 77 0
	.cfi_startproc
	.set	nomips16
	.ent	sbrk
	.type	sbrk, @function
sbrk:
	.frame	$sp,0,$31		# vars= 0, regs= 0/0, args= 0, gp= 0
	.mask	0x00000000,0
	.fmask	0x00000000,0
	.set	noreorder
	.set	nomacro
$LVL15 = .
	.loc 1 79 0
	lw	$2,%gp_rel(sbrk_top)($28)	 # old_top, sbrk_top
	nop
$LVL16 = .
	.loc 1 80 0
	addu	$4,$2,$4	 # tmp199, old_top, incr
$LVL17 = .
	.loc 1 82 0
	j	$31
	sw	$4,%gp_rel(sbrk_top)($28)	 # tmp199, sbrk_top

	.set	macro
	.set	reorder
	.end	sbrk
	.cfi_endproc
$LFE7:
	.size	sbrk, .-sbrk
	.align	2
	.globl	isatty
$LFB8 = .
	.loc 1 85 0
	.cfi_startproc
	.set	nomips16
	.ent	isatty
	.type	isatty, @function
isatty:
	.frame	$sp,0,$31		# vars= 0, regs= 0/0, args= 0, gp= 0
	.mask	0x00000000,0
	.fmask	0x00000000,0
	.set	noreorder
	.set	nomacro
$LVL18 = .
	.loc 1 87 0
	j	$31
	li	$2,1			# 0x1	 #,

	.set	macro
	.set	reorder
	.end	isatty
	.cfi_endproc
$LFE8:
	.size	isatty, .-isatty
	.section	.rodata.str1.4,"aMS",@progbits,1
	.align	2
$LC0:
	.ascii	"Hello World! %08lx This architecture is %s\012\000"
	.align	2
$LC1:
	.ascii	"mips-elf\000"
	.text
	.align	2
	.globl	main
$LFB11 = .
	.loc 1 173 0
	.cfi_startproc
	.set	nomips16
	.ent	main
	.type	main, @function
main:
	.frame	$sp,24,$31		# vars= 0, regs= 1/0, args= 16, gp= 0
	.mask	0x80000000,-4
	.fmask	0x00000000,0
	.set	noreorder
	.set	nomacro
	addiu	$sp,$sp,-24	 #,,
$LCFI11 = .
	.cfi_def_cfa_offset 24
	sw	$31,20($sp)	 #,
	.cfi_offset 31, -4
	.loc 1 174 0
	lui	$4,%hi($LC0)	 # tmp197,
	addiu	$4,$4,%lo($LC0)	 #, tmp197,
	lw	$5,%gp_rel(data_value)($28)	 #, data_value
	lui	$6,%hi($LC1)	 # tmp198,
	jal	printf	 #
	addiu	$6,$6,%lo($LC1)	 #, tmp198,

$LVL19 = .
	.loc 1 175 0
	jal	exit	 #
	move	$4,$0	 #,

$LVL20 = .
	.set	macro
	.set	reorder
	.end	main
	.cfi_endproc
$LFE11:
	.size	main, .-main
	.align	2
	.globl	_startmain
$LFB10 = .
	.loc 1 166 0
	.cfi_startproc
	.set	nomips16
	.ent	_startmain
	.type	_startmain, @function
_startmain:
	.frame	$sp,24,$31		# vars= 0, regs= 1/0, args= 16, gp= 0
	.mask	0x80000000,-4
	.fmask	0x00000000,0
	.set	noreorder
	.set	nomacro
	addiu	$sp,$sp,-24	 #,,
$LCFI12 = .
	.cfi_def_cfa_offset 24
	sw	$31,20($sp)	 #,
	.cfi_offset 31, -4
$LBB4 = .
$LBB5 = .
	.loc 1 159 0
	addiu	$4,$28,%gp_rel(_bss_start)	 #,,
	move	$5,$0	 #,
	addiu	$6,$28,%gp_rel(_ebss)	 # tmp199,,
	jal	memset	 #
	subu	$6,$6,$4	 #, tmp199, tmp200

$LVL21 = .
$LBE5 = .
$LBE4 = .
	.loc 1 168 0
	jal	main
	nop
	 #
$LVL22 = .
	.set	macro
	.set	reorder
	.end	_startmain
	.cfi_endproc
$LFE10:
	.size	_startmain, .-_startmain
	.globl	sbrk_top
	.section	.sdata,"aw",@progbits
	.align	2
	.type	sbrk_top, @object
	.size	sbrk_top, 4
sbrk_top:
	.word	_heap

	.comm	bss_value,4,4
	.globl	data_value
	.align	2
	.type	data_value, @object
	.size	data_value, 4
data_value:
	.word	-1414661426
	.text
$Letext0:
	.file 2 "/usr/local/cross2-gcc4/lib/gcc/mips-elf/4.7.2/include/stddef.h"
	.file 3 "/usr/local/cross2-gcc4/lib/gcc/mips-elf/4.7.2/../../../../mips-elf/include/sys/_types.h"
	.file 4 "/usr/local/cross2-gcc4/lib/gcc/mips-elf/4.7.2/../../../../mips-elf/include/sys/types.h"
	.file 5 "/usr/local/cross2-gcc4/lib/gcc/mips-elf/4.7.2/../../../../mips-elf/include/sys/stat.h"
	.file 6 "syscall.h"
	.file 7 "/usr/local/cross2-gcc4/lib/gcc/mips-elf/4.7.2/../../../../mips-elf/include/string.h"
	.file 8 "/usr/local/cross2-gcc4/lib/gcc/mips-elf/4.7.2/../../../../mips-elf/include/stdio.h"
	.file 9 "/usr/local/cross2-gcc4/lib/gcc/mips-elf/4.7.2/../../../../mips-elf/include/stdlib.h"