
mips-elf.x:     file format elf32-bigmips


Disassembly of section .text:

80000000 <_start>:
80000000:	3c1d8001 	lui	sp,0x8001
80000004:	27bdfd80 	addiu	sp,sp,-640
80000008:	3c1c8001 	lui	gp,0x8001
8000000c:	0c00005d 	jal	80000174 <_startmain>
80000010:	279cb000 	addiu	gp,gp,-20480
80000014:	00000000 	nop
80000018:	00402021 	move	a0,v0

8000001c <__exit>:
8000001c:	03ff000d 	break	0x3ff
80000020:	03e00008 	jr	ra
80000024:	00000000 	nop
80000028:	00000000 	nop

8000002c <__read>:
8000002c:	00000385 	0x385
80000030:	03e00008 	jr	ra
80000034:	00000000 	nop
80000038:	00000000 	nop

8000003c <__write>:
8000003c:	00000405 	0x405
80000040:	03e00008 	jr	ra
80000044:	00000000 	nop
80000048:	00000000 	nop

8000004c <__open>:
8000004c:	00000305 	0x305
80000050:	03e00008 	jr	ra
80000054:	00000000 	nop
80000058:	00000000 	nop

8000005c <__close>:
8000005c:	00000505 	0x505
80000060:	03e00008 	jr	ra
80000064:	00000000 	nop
80000068:	00000000 	nop

8000006c <_exit>:
8000006c:	27bdffe8 	addiu	sp,sp,-24
80000070:	afbf0014 	sw	ra,20(sp)
80000074:	0c000007 	jal	8000001c <__exit>
80000078:	00000000 	nop

8000007c <read>:
8000007c:	27bdffe8 	addiu	sp,sp,-24
80000080:	afbf0014 	sw	ra,20(sp)
80000084:	0c00000b 	jal	8000002c <__read>
80000088:	00000000 	nop
8000008c:	8fbf0014 	lw	ra,20(sp)
80000090:	00000000 	nop
80000094:	03e00008 	jr	ra
80000098:	27bd0018 	addiu	sp,sp,24

8000009c <write>:
8000009c:	27bdffe8 	addiu	sp,sp,-24
800000a0:	afbf0014 	sw	ra,20(sp)
800000a4:	0c00000f 	jal	8000003c <__write>
800000a8:	00000000 	nop
800000ac:	8fbf0014 	lw	ra,20(sp)
800000b0:	00000000 	nop
800000b4:	03e00008 	jr	ra
800000b8:	27bd0018 	addiu	sp,sp,24

800000bc <open>:
800000bc:	27bdffe8 	addiu	sp,sp,-24
800000c0:	afbf0014 	sw	ra,20(sp)
800000c4:	0c000013 	jal	8000004c <__open>
800000c8:	00000000 	nop
800000cc:	8fbf0014 	lw	ra,20(sp)
800000d0:	00000000 	nop
800000d4:	03e00008 	jr	ra
800000d8:	27bd0018 	addiu	sp,sp,24

800000dc <close>:
800000dc:	27bdffe8 	addiu	sp,sp,-24
800000e0:	afbf0014 	sw	ra,20(sp)
800000e4:	0c000017 	jal	8000005c <__close>
800000e8:	00000000 	nop
800000ec:	8fbf0014 	lw	ra,20(sp)
800000f0:	00000000 	nop
800000f4:	03e00008 	jr	ra
800000f8:	27bd0018 	addiu	sp,sp,24

800000fc <fstat>:
800000fc:	27bdffe8 	addiu	sp,sp,-24
80000100:	afbf0014 	sw	ra,20(sp)
80000104:	00a02021 	move	a0,a1
80000108:	00002821 	move	a1,zero
8000010c:	0c000076 	jal	800001d8 <memset>
80000110:	2406003c 	li	a2,60
80000114:	00001021 	move	v0,zero
80000118:	8fbf0014 	lw	ra,20(sp)
8000011c:	00000000 	nop
80000120:	03e00008 	jr	ra
80000124:	27bd0018 	addiu	sp,sp,24

80000128 <lseek>:
80000128:	03e00008 	jr	ra
8000012c:	00a01021 	move	v0,a1

80000130 <sbrk>:
80000130:	8f8208a8 	lw	v0,2216(gp)
80000134:	00000000 	nop
80000138:	00442021 	addu	a0,v0,a0
8000013c:	03e00008 	jr	ra
80000140:	af8408a8 	sw	a0,2216(gp)

80000144 <isatty>:
80000144:	03e00008 	jr	ra
80000148:	24020001 	li	v0,1

8000014c <main>:
8000014c:	27bdffe8 	addiu	sp,sp,-24
80000150:	afbf0014 	sw	ra,20(sp)
80000154:	3c048001 	lui	a0,0x8001
80000158:	2484a750 	addiu	a0,a0,-22704
8000015c:	8f8508ac 	lw	a1,2220(gp)
80000160:	3c068001 	lui	a2,0x8001
80000164:	0c0000be 	jal	800002f8 <printf>
80000168:	24c6a77c 	addiu	a2,a2,-22660
8000016c:	0c000066 	jal	80000198 <exit>
80000170:	00002021 	move	a0,zero

80000174 <_startmain>:
80000174:	27bdffe8 	addiu	sp,sp,-24
80000178:	afbf0014 	sw	ra,20(sp)
8000017c:	2784092c 	addiu	a0,gp,2348
80000180:	00002821 	move	a1,zero
80000184:	27864974 	addiu	a2,gp,18804
80000188:	0c000076 	jal	800001d8 <memset>
8000018c:	00c43023 	subu	a2,a2,a0
80000190:	0c000053 	jal	8000014c <main>
80000194:	00000000 	nop

80000198 <exit>:
80000198:	27bdffe8 	addiu	sp,sp,-24
8000019c:	00002821 	move	a1,zero
800001a0:	afb00010 	sw	s0,16(sp)
800001a4:	afbf0014 	sw	ra,20(sp)
800001a8:	0c000987 	jal	8000261c <__call_exitprocs>
800001ac:	00808021 	move	s0,a0
800001b0:	8f8408b0 	lw	a0,2224(gp)
800001b4:	00000000 	nop
800001b8:	8c82003c 	lw	v0,60(a0)
800001bc:	00000000 	nop
800001c0:	10400003 	beqz	v0,800001d0 <exit+0x38>
800001c4:	00000000 	nop
800001c8:	0040f809 	jalr	v0
800001cc:	00000000 	nop
800001d0:	0c00001b 	jal	8000006c <_exit>
800001d4:	02002021 	move	a0,s0

800001d8 <memset>:
800001d8:	2cc30010 	sltiu	v1,a2,16
800001dc:	14600028 	bnez	v1,80000280 <memset+0xa8>
800001e0:	00801021 	move	v0,a0
800001e4:	30880003 	andi	t0,a0,0x3
800001e8:	15000027 	bnez	t0,80000288 <memset+0xb0>
800001ec:	00053e00 	sll	a3,a1,0x18
800001f0:	00801821 	move	v1,a0
800001f4:	30a500ff 	andi	a1,a1,0xff
800001f8:	10a00005 	beqz	a1,80000210 <memset+0x38>
800001fc:	00a04821 	move	t1,a1
80000200:	00052200 	sll	a0,a1,0x8
80000204:	00852025 	or	a0,a0,a1
80000208:	00044c00 	sll	t1,a0,0x10
8000020c:	01244825 	or	t1,t1,a0
80000210:	000620c2 	srl	a0,a2,0x3
80000214:	1080000a 	beqz	a0,80000240 <memset+0x68>
80000218:	30c60007 	andi	a2,a2,0x7
8000021c:	00804021 	move	t0,a0
80000220:	00603821 	move	a3,v1
80000224:	2508ffff 	addiu	t0,t0,-1
80000228:	ace90000 	sw	t1,0(a3)
8000022c:	ace90004 	sw	t1,4(a3)
80000230:	1500fffc 	bnez	t0,80000224 <memset+0x4c>
80000234:	24e70008 	addiu	a3,a3,8
80000238:	000420c0 	sll	a0,a0,0x3
8000023c:	00641821 	addu	v1,v1,a0
80000240:	2cc40004 	sltiu	a0,a2,4
80000244:	14800004 	bnez	a0,80000258 <memset+0x80>
80000248:	00000000 	nop
8000024c:	ac690000 	sw	t1,0(v1)
80000250:	24c6fffc 	addiu	a2,a2,-4
80000254:	24630004 	addiu	v1,v1,4
80000258:	10c00007 	beqz	a2,80000278 <memset+0xa0>
8000025c:	00052e00 	sll	a1,a1,0x18
80000260:	00052e03 	sra	a1,a1,0x18
80000264:	00663021 	addu	a2,v1,a2
80000268:	a0650000 	sb	a1,0(v1)
8000026c:	24630001 	addiu	v1,v1,1
80000270:	1466fffd 	bne	v1,a2,80000268 <memset+0x90>
80000274:	00000000 	nop
80000278:	03e00008 	jr	ra
8000027c:	00000000 	nop
80000280:	08000096 	j	80000258 <memset+0x80>
80000284:	00801821 	move	v1,a0
80000288:	00882023 	subu	a0,a0,t0
8000028c:	00073e03 	sra	a3,a3,0x18
80000290:	24840004 	addiu	a0,a0,4
80000294:	00401821 	move	v1,v0
80000298:	a0670000 	sb	a3,0(v1)
8000029c:	24630001 	addiu	v1,v1,1
800002a0:	1464fffd 	bne	v1,a0,80000298 <memset+0xc0>
800002a4:	00000000 	nop
800002a8:	00084027 	nor	t0,zero,t0
800002ac:	25030005 	addiu	v1,t0,5
800002b0:	24c6fffb 	addiu	a2,a2,-5
800002b4:	00431821 	addu	v1,v0,v1
800002b8:	0800007d 	j	800001f4 <memset+0x1c>
800002bc:	00c83023 	subu	a2,a2,t0

800002c0 <_printf_r>:
800002c0:	27bdffe0 	addiu	sp,sp,-32
800002c4:	afa60028 	sw	a2,40(sp)
800002c8:	afa7002c 	sw	a3,44(sp)
800002cc:	27a20028 	addiu	v0,sp,40
800002d0:	00a03021 	move	a2,a1
800002d4:	8c850008 	lw	a1,8(a0)
800002d8:	00403821 	move	a3,v0
800002dc:	afbf001c 	sw	ra,28(sp)
800002e0:	0c0000ce 	jal	80000338 <_vfprintf_r>
800002e4:	afa20010 	sw	v0,16(sp)
800002e8:	8fbf001c 	lw	ra,28(sp)
800002ec:	00000000 	nop
800002f0:	03e00008 	jr	ra
800002f4:	27bd0020 	addiu	sp,sp,32

800002f8 <printf>:
800002f8:	27bdffe0 	addiu	sp,sp,-32
800002fc:	afa60028 	sw	a2,40(sp)
80000300:	00803021 	move	a2,a0
80000304:	8f8408b4 	lw	a0,2228(gp)
80000308:	afa7002c 	sw	a3,44(sp)
8000030c:	afa50024 	sw	a1,36(sp)
80000310:	27a20024 	addiu	v0,sp,36
80000314:	8c850008 	lw	a1,8(a0)
80000318:	00403821 	move	a3,v0
8000031c:	afbf001c 	sw	ra,28(sp)
80000320:	0c0000ce 	jal	80000338 <_vfprintf_r>
80000324:	afa20010 	sw	v0,16(sp)
80000328:	8fbf001c 	lw	ra,28(sp)
8000032c:	00000000 	nop
80000330:	03e00008 	jr	ra
80000334:	27bd0020 	addiu	sp,sp,32

80000338 <_vfprintf_r>:
80000338:	27bdfaa0 	addiu	sp,sp,-1376
8000033c:	afbf055c 	sw	ra,1372(sp)
80000340:	afb00538 	sw	s0,1336(sp)
80000344:	afa40560 	sw	a0,1376(sp)
80000348:	afa50564 	sw	a1,1380(sp)
8000034c:	00c08021 	move	s0,a2
80000350:	afa7056c 	sw	a3,1388(sp)
80000354:	afbe0558 	sw	s8,1368(sp)
80000358:	afb70554 	sw	s7,1364(sp)
8000035c:	afb60550 	sw	s6,1360(sp)
80000360:	afb5054c 	sw	s5,1356(sp)
80000364:	afb40548 	sw	s4,1352(sp)
80000368:	afb30544 	sw	s3,1348(sp)
8000036c:	afb20540 	sw	s2,1344(sp)
80000370:	0c00130b 	jal	80004c2c <_localeconv_r>
80000374:	afb1053c 	sw	s1,1340(sp)
80000378:	8c420000 	lw	v0,0(v0)
8000037c:	00000000 	nop
80000380:	00402021 	move	a0,v0
80000384:	0c001b66 	jal	80006d98 <strlen>
80000388:	afa20508 	sw	v0,1288(sp)
8000038c:	8fa80560 	lw	t0,1376(sp)
80000390:	afa20514 	sw	v0,1300(sp)
80000394:	00001821 	move	v1,zero
80000398:	00001021 	move	v0,zero
8000039c:	afa3051c 	sw	v1,1308(sp)
800003a0:	11000005 	beqz	t0,800003b8 <_vfprintf_r+0x80>
800003a4:	afa20518 	sw	v0,1304(sp)
800003a8:	8d020038 	lw	v0,56(t0)
800003ac:	00000000 	nop
800003b0:	10400226 	beqz	v0,80000c4c <_vfprintf_r+0x914>
800003b4:	00000000 	nop
800003b8:	8fa80564 	lw	t0,1380(sp)
800003bc:	00000000 	nop
800003c0:	8502000c 	lh	v0,12(t0)
800003c4:	00000000 	nop
800003c8:	30432000 	andi	v1,v0,0x2000
800003cc:	00031c00 	sll	v1,v1,0x10
800003d0:	00031c03 	sra	v1,v1,0x10
800003d4:	14600008 	bnez	v1,800003f8 <_vfprintf_r+0xc0>
800003d8:	30430008 	andi	v1,v0,0x8
800003dc:	8d040064 	lw	a0,100(t0)
800003e0:	2403dfff 	li	v1,-8193
800003e4:	34422000 	ori	v0,v0,0x2000
800003e8:	00831824 	and	v1,a0,v1
800003ec:	a502000c 	sh	v0,12(t0)
800003f0:	ad030064 	sw	v1,100(t0)
800003f4:	30430008 	andi	v1,v0,0x8
800003f8:	00031c00 	sll	v1,v1,0x10
800003fc:	00031c03 	sra	v1,v1,0x10
80000400:	106001ad 	beqz	v1,80000ab8 <_vfprintf_r+0x780>
80000404:	00000000 	nop
80000408:	8fa80564 	lw	t0,1380(sp)
8000040c:	00000000 	nop
80000410:	8d030010 	lw	v1,16(t0)
80000414:	00000000 	nop
80000418:	106001a7 	beqz	v1,80000ab8 <_vfprintf_r+0x780>
8000041c:	3044001a 	andi	a0,v0,0x1a
80000420:	2403000a 	li	v1,10
80000424:	108301b3 	beq	a0,v1,80000af4 <_vfprintf_r+0x7bc>
80000428:	00000000 	nop
8000042c:	27a804b7 	addiu	t0,sp,1207
80000430:	27b504b8 	addiu	s5,sp,1208
80000434:	27a20028 	addiu	v0,sp,40
80000438:	afa804e8 	sw	t0,1256(sp)
8000043c:	02a84023 	subu	t0,s5,t0
80000440:	afa204b8 	sw	v0,1208(sp)
80000444:	afa004c0 	sw	zero,1216(sp)
80000448:	afa004bc 	sw	zero,1212(sp)
8000044c:	afa0050c 	sw	zero,1292(sp)
80000450:	afa00524 	sw	zero,1316(sp)
80000454:	afa00520 	sw	zero,1312(sp)
80000458:	afa004f8 	sw	zero,1272(sp)
8000045c:	00404821 	move	t1,v0
80000460:	afa80530 	sw	t0,1328(sp)
80000464:	82020000 	lb	v0,0(s0)
80000468:	00000000 	nop
8000046c:	10400161 	beqz	v0,800009f4 <_vfprintf_r+0x6bc>
80000470:	24030025 	li	v1,37
80000474:	14430005 	bne	v0,v1,8000048c <_vfprintf_r+0x154>
80000478:	02008821 	move	s1,s0
8000047c:	08000139 	j	800004e4 <_vfprintf_r+0x1ac>
80000480:	00000000 	nop
80000484:	10430006 	beq	v0,v1,800004a0 <_vfprintf_r+0x168>
80000488:	00000000 	nop
8000048c:	26310001 	addiu	s1,s1,1
80000490:	82220000 	lb	v0,0(s1)
80000494:	00000000 	nop
80000498:	1440fffa 	bnez	v0,80000484 <_vfprintf_r+0x14c>
8000049c:	02309023 	subu	s2,s1,s0
800004a0:	12400010 	beqz	s2,800004e4 <_vfprintf_r+0x1ac>
800004a4:	00000000 	nop
800004a8:	8fa204bc 	lw	v0,1212(sp)
800004ac:	8fa304c0 	lw	v1,1216(sp)
800004b0:	24420001 	addiu	v0,v0,1
800004b4:	00721821 	addu	v1,v1,s2
800004b8:	28440008 	slti	a0,v0,8
800004bc:	ad300000 	sw	s0,0(t1)
800004c0:	ad320004 	sw	s2,4(t1)
800004c4:	afa304c0 	sw	v1,1216(sp)
800004c8:	108001d8 	beqz	a0,80000c2c <_vfprintf_r+0x8f4>
800004cc:	afa204bc 	sw	v0,1212(sp)
800004d0:	25290008 	addiu	t1,t1,8
800004d4:	8fa804f8 	lw	t0,1272(sp)
800004d8:	00000000 	nop
800004dc:	01124021 	addu	t0,t0,s2
800004e0:	afa804f8 	sw	t0,1272(sp)
800004e4:	82220000 	lb	v0,0(s1)
800004e8:	00000000 	nop
800004ec:	104001af 	beqz	v0,80000bac <_vfprintf_r+0x874>
800004f0:	26300001 	addiu	s0,s1,1
800004f4:	82330001 	lb	s3,1(s1)
800004f8:	a3a004e2 	sb	zero,1250(sp)
800004fc:	241effff 	li	s8,-1
80000500:	afa004fc 	sw	zero,1276(sp)
80000504:	00009021 	move	s2,zero
80000508:	2406002a 	li	a2,42
8000050c:	2405006c 	li	a1,108
80000510:	2404002b 	li	a0,43
80000514:	24070020 	li	a3,32
80000518:	26100001 	addiu	s0,s0,1
8000051c:	2662ffe0 	addiu	v0,s3,-32
80000520:	2c430059 	sltiu	v1,v0,89
80000524:	1460000b 	bnez	v1,80000554 <_vfprintf_r+0x21c>
80000528:	3c038001 	lui	v1,0x8001
8000052c:	1260019f 	beqz	s3,80000bac <_vfprintf_r+0x874>
80000530:	24030001 	li	v1,1
80000534:	a3b30490 	sb	s3,1168(sp)
80000538:	a3a004e2 	sb	zero,1250(sp)
8000053c:	afa304f0 	sw	v1,1264(sp)
80000540:	24140001 	li	s4,1
80000544:	27b10490 	addiu	s1,sp,1168
80000548:	afa00500 	sw	zero,1280(sp)
8000054c:	08000189 	j	80000624 <_vfprintf_r+0x2ec>
80000550:	afa00510 	sw	zero,1296(sp)
80000554:	00021080 	sll	v0,v0,0x2
80000558:	2463a7d0 	addiu	v1,v1,-22576
8000055c:	00621021 	addu	v0,v1,v0
80000560:	8c420000 	lw	v0,0(v0)
80000564:	00000000 	nop
80000568:	00400008 	jr	v0
8000056c:	00000000 	nop
80000570:	36520010 	ori	s2,s2,0x10
80000574:	32420020 	andi	v0,s2,0x20
80000578:	144001ce 	bnez	v0,80000cb4 <_vfprintf_r+0x97c>
8000057c:	2402fff8 	li	v0,-8
80000580:	32420010 	andi	v0,s2,0x10
80000584:	104005d8 	beqz	v0,80001ce8 <_vfprintf_r+0x19b0>
80000588:	32420040 	andi	v0,s2,0x40
8000058c:	8fa8056c 	lw	t0,1388(sp)
80000590:	00000000 	nop
80000594:	8d140000 	lw	s4,0(t0)
80000598:	25080004 	addiu	t0,t0,4
8000059c:	0000b021 	move	s6,zero
800005a0:	afa8056c 	sw	t0,1388(sp)
800005a4:	24020001 	li	v0,1
800005a8:	02801821 	move	v1,s4
800005ac:	a3a004e2 	sb	zero,1250(sp)
800005b0:	07c00002 	bltz	s8,800005bc <_vfprintf_r+0x284>
800005b4:	2404ff7f 	li	a0,-129
800005b8:	02449024 	and	s2,s2,a0
800005bc:	14600320 	bnez	v1,80001240 <_vfprintf_r+0xf08>
800005c0:	00000000 	nop
800005c4:	17c0031e 	bnez	s8,80001240 <_vfprintf_r+0xf08>
800005c8:	00000000 	nop
800005cc:	14400425 	bnez	v0,80001664 <_vfprintf_r+0x132c>
800005d0:	0000a021 	move	s4,zero
800005d4:	32420001 	andi	v0,s2,0x1
800005d8:	10400005 	beqz	v0,800005f0 <_vfprintf_r+0x2b8>
800005dc:	02a08821 	move	s1,s5
800005e0:	24020030 	li	v0,48
800005e4:	8fb40530 	lw	s4,1328(sp)
800005e8:	a3a204b7 	sb	v0,1207(sp)
800005ec:	27b104b7 	addiu	s1,sp,1207
800005f0:	029e102a 	slt	v0,s4,s8
800005f4:	10400002 	beqz	v0,80000600 <_vfprintf_r+0x2c8>
800005f8:	afb404f0 	sw	s4,1264(sp)
800005fc:	afbe04f0 	sw	s8,1264(sp)
80000600:	83a204e2 	lb	v0,1250(sp)
80000604:	afbe0500 	sw	s8,1280(sp)
80000608:	afa00510 	sw	zero,1296(sp)
8000060c:	10400006 	beqz	v0,80000628 <_vfprintf_r+0x2f0>
80000610:	32570002 	andi	s7,s2,0x2
80000614:	8fa804f0 	lw	t0,1264(sp)
80000618:	00000000 	nop
8000061c:	25080001 	addiu	t0,t0,1
80000620:	afa804f0 	sw	t0,1264(sp)
80000624:	32570002 	andi	s7,s2,0x2
80000628:	12e00005 	beqz	s7,80000640 <_vfprintf_r+0x308>
8000062c:	32480084 	andi	t0,s2,0x84
80000630:	8fa304f0 	lw	v1,1264(sp)
80000634:	00000000 	nop
80000638:	24630002 	addiu	v1,v1,2
8000063c:	afa304f0 	sw	v1,1264(sp)
80000640:	150002a0 	bnez	t0,800010c4 <_vfprintf_r+0xd8c>
80000644:	afa804ec 	sw	t0,1260(sp)
80000648:	8fa804fc 	lw	t0,1276(sp)
8000064c:	8fa304f0 	lw	v1,1264(sp)
80000650:	00000000 	nop
80000654:	0103f023 	subu	s8,t0,v1
80000658:	1bc0029a 	blez	s8,800010c4 <_vfprintf_r+0xd8c>
8000065c:	2bc20011 	slti	v0,s8,17
80000660:	8fa304c0 	lw	v1,1216(sp)
80000664:	1440063f 	bnez	v0,80001f64 <_vfprintf_r+0x1c2c>
80000668:	3c058001 	lui	a1,0x8001
8000066c:	24a5a934 	addiu	a1,a1,-22220
80000670:	afb00528 	sw	s0,1320(sp)
80000674:	afb1052c 	sw	s1,1324(sp)
80000678:	8fa204bc 	lw	v0,1212(sp)
8000067c:	03c08821 	move	s1,s8
80000680:	afa50504 	sw	a1,1284(sp)
80000684:	02e0f021 	move	s8,s7
80000688:	0280b821 	move	s7,s4
8000068c:	8fb00560 	lw	s0,1376(sp)
80000690:	0240a021 	move	s4,s2
80000694:	8fb20564 	lw	s2,1380(sp)
80000698:	080001ac 	j	800006b0 <_vfprintf_r+0x378>
8000069c:	24160010 	li	s6,16
800006a0:	2631fff0 	addiu	s1,s1,-16
800006a4:	2a240011 	slti	a0,s1,17
800006a8:	14800016 	bnez	a0,80000704 <_vfprintf_r+0x3cc>
800006ac:	25290008 	addiu	t1,t1,8
800006b0:	24420001 	addiu	v0,v0,1
800006b4:	3c068001 	lui	a2,0x8001
800006b8:	24630010 	addiu	v1,v1,16
800006bc:	24c6a934 	addiu	a2,a2,-22220
800006c0:	28440008 	slti	a0,v0,8
800006c4:	ad260000 	sw	a2,0(t1)
800006c8:	ad360004 	sw	s6,4(t1)
800006cc:	afa304c0 	sw	v1,1216(sp)
800006d0:	1480fff3 	bnez	a0,800006a0 <_vfprintf_r+0x368>
800006d4:	afa204bc 	sw	v0,1212(sp)
800006d8:	02002021 	move	a0,s0
800006dc:	02402821 	move	a1,s2
800006e0:	0c001b6d 	jal	80006db4 <__sprint_r>
800006e4:	02a03021 	move	a2,s5
800006e8:	14400138 	bnez	v0,80000bcc <_vfprintf_r+0x894>
800006ec:	2631fff0 	addiu	s1,s1,-16
800006f0:	2a240011 	slti	a0,s1,17
800006f4:	8fa304c0 	lw	v1,1216(sp)
800006f8:	8fa204bc 	lw	v0,1212(sp)
800006fc:	1080ffec 	beqz	a0,800006b0 <_vfprintf_r+0x378>
80000700:	27a90028 	addiu	t1,sp,40
80000704:	02809021 	move	s2,s4
80000708:	8fb00528 	lw	s0,1320(sp)
8000070c:	02e0a021 	move	s4,s7
80000710:	03c0b821 	move	s7,s8
80000714:	0220f021 	move	s8,s1
80000718:	8fb1052c 	lw	s1,1324(sp)
8000071c:	24420001 	addiu	v0,v0,1
80000720:	8fa80504 	lw	t0,1284(sp)
80000724:	007e1821 	addu	v1,v1,s8
80000728:	28440008 	slti	a0,v0,8
8000072c:	ad280000 	sw	t0,0(t1)
80000730:	ad3e0004 	sw	s8,4(t1)
80000734:	afa304c0 	sw	v1,1216(sp)
80000738:	10800415 	beqz	a0,80001790 <_vfprintf_r+0x1458>
8000073c:	afa204bc 	sw	v0,1212(sp)
80000740:	83a204e2 	lb	v0,1250(sp)
80000744:	00000000 	nop
80000748:	14400263 	bnez	v0,800010d8 <_vfprintf_r+0xda0>
8000074c:	25290008 	addiu	t1,t1,8
80000750:	12e0000d 	beqz	s7,80000788 <_vfprintf_r+0x450>
80000754:	27a504e0 	addiu	a1,sp,1248
80000758:	8fa204bc 	lw	v0,1212(sp)
8000075c:	00000000 	nop
80000760:	24420001 	addiu	v0,v0,1
80000764:	ad250000 	sw	a1,0(t1)
80000768:	24630002 	addiu	v1,v1,2
8000076c:	24050002 	li	a1,2
80000770:	28440008 	slti	a0,v0,8
80000774:	ad250004 	sw	a1,4(t1)
80000778:	afa304c0 	sw	v1,1216(sp)
8000077c:	1080037a 	beqz	a0,80001568 <_vfprintf_r+0x1230>
80000780:	afa204bc 	sw	v0,1212(sp)
80000784:	25290008 	addiu	t1,t1,8
80000788:	8fa804ec 	lw	t0,1260(sp)
8000078c:	24020080 	li	v0,128
80000790:	11020318 	beq	t0,v0,800013f4 <_vfprintf_r+0x10bc>
80000794:	00000000 	nop
80000798:	8fa80500 	lw	t0,1280(sp)
8000079c:	00000000 	nop
800007a0:	0114b023 	subu	s6,t0,s4
800007a4:	1ac00039 	blez	s6,8000088c <_vfprintf_r+0x554>
800007a8:	2ac20011 	slti	v0,s6,17
800007ac:	14400554 	bnez	v0,80001d00 <_vfprintf_r+0x19c8>
800007b0:	02c02021 	move	a0,s6
800007b4:	3c178001 	lui	s7,0x8001
800007b8:	26f7a944 	addiu	s7,s7,-22204
800007bc:	afb004ec 	sw	s0,1260(sp)
800007c0:	afb30500 	sw	s3,1280(sp)
800007c4:	0240b021 	move	s6,s2
800007c8:	02e09821 	move	s3,s7
800007cc:	8fa204bc 	lw	v0,1212(sp)
800007d0:	0280b821 	move	s7,s4
800007d4:	241e0010 	li	s8,16
800007d8:	0220a021 	move	s4,s1
800007dc:	8fb00560 	lw	s0,1376(sp)
800007e0:	8fb10564 	lw	s1,1380(sp)
800007e4:	080001ff 	j	800007fc <_vfprintf_r+0x4c4>
800007e8:	00809021 	move	s2,a0
800007ec:	2652fff0 	addiu	s2,s2,-16
800007f0:	2a440011 	slti	a0,s2,17
800007f4:	14800014 	bnez	a0,80000848 <_vfprintf_r+0x510>
800007f8:	25290008 	addiu	t1,t1,8
800007fc:	24420001 	addiu	v0,v0,1
80000800:	24630010 	addiu	v1,v1,16
80000804:	28440008 	slti	a0,v0,8
80000808:	ad330000 	sw	s3,0(t1)
8000080c:	ad3e0004 	sw	s8,4(t1)
80000810:	afa304c0 	sw	v1,1216(sp)
80000814:	1480fff5 	bnez	a0,800007ec <_vfprintf_r+0x4b4>
80000818:	afa204bc 	sw	v0,1212(sp)
8000081c:	02002021 	move	a0,s0
80000820:	02202821 	move	a1,s1
80000824:	0c001b6d 	jal	80006db4 <__sprint_r>
80000828:	02a03021 	move	a2,s5
8000082c:	144000e7 	bnez	v0,80000bcc <_vfprintf_r+0x894>
80000830:	2652fff0 	addiu	s2,s2,-16
80000834:	2a440011 	slti	a0,s2,17
80000838:	8fa304c0 	lw	v1,1216(sp)
8000083c:	8fa204bc 	lw	v0,1212(sp)
80000840:	1080ffee 	beqz	a0,800007fc <_vfprintf_r+0x4c4>
80000844:	27a90028 	addiu	t1,sp,40
80000848:	02402021 	move	a0,s2
8000084c:	02808821 	move	s1,s4
80000850:	8fb004ec 	lw	s0,1260(sp)
80000854:	02e0a021 	move	s4,s7
80000858:	0260b821 	move	s7,s3
8000085c:	8fb30500 	lw	s3,1280(sp)
80000860:	02c09021 	move	s2,s6
80000864:	0080b021 	move	s6,a0
80000868:	24420001 	addiu	v0,v0,1
8000086c:	00761821 	addu	v1,v1,s6
80000870:	28440008 	slti	a0,v0,8
80000874:	ad370000 	sw	s7,0(t1)
80000878:	ad360004 	sw	s6,4(t1)
8000087c:	afa304c0 	sw	v1,1216(sp)
80000880:	10800330 	beqz	a0,80001544 <_vfprintf_r+0x120c>
80000884:	afa204bc 	sw	v0,1212(sp)
80000888:	25290008 	addiu	t1,t1,8
8000088c:	32420100 	andi	v0,s2,0x100
80000890:	14400284 	bnez	v0,800012a4 <_vfprintf_r+0xf6c>
80000894:	00000000 	nop
80000898:	8fa204bc 	lw	v0,1212(sp)
8000089c:	00741821 	addu	v1,v1,s4
800008a0:	24420001 	addiu	v0,v0,1
800008a4:	28440008 	slti	a0,v0,8
800008a8:	ad310000 	sw	s1,0(t1)
800008ac:	ad340004 	sw	s4,4(t1)
800008b0:	afa304c0 	sw	v1,1216(sp)
800008b4:	10800251 	beqz	a0,800011fc <_vfprintf_r+0xec4>
800008b8:	afa204bc 	sw	v0,1212(sp)
800008bc:	25290008 	addiu	t1,t1,8
800008c0:	32520004 	andi	s2,s2,0x4
800008c4:	12400039 	beqz	s2,800009ac <_vfprintf_r+0x674>
800008c8:	00000000 	nop
800008cc:	8fa804fc 	lw	t0,1276(sp)
800008d0:	8fa204f0 	lw	v0,1264(sp)
800008d4:	00000000 	nop
800008d8:	01028823 	subu	s1,t0,v0
800008dc:	1a200033 	blez	s1,800009ac <_vfprintf_r+0x674>
800008e0:	2a220011 	slti	v0,s1,17
800008e4:	144005ce 	bnez	v0,80002020 <_vfprintf_r+0x1ce8>
800008e8:	3c058001 	lui	a1,0x8001
800008ec:	24a5a934 	addiu	a1,a1,-22220
800008f0:	8fa204bc 	lw	v0,1212(sp)
800008f4:	afa50504 	sw	a1,1284(sp)
800008f8:	8fb30560 	lw	s3,1376(sp)
800008fc:	8fb40564 	lw	s4,1380(sp)
80000900:	08000246 	j	80000918 <_vfprintf_r+0x5e0>
80000904:	24120010 	li	s2,16
80000908:	2631fff0 	addiu	s1,s1,-16
8000090c:	2a240011 	slti	a0,s1,17
80000910:	14800016 	bnez	a0,8000096c <_vfprintf_r+0x634>
80000914:	25290008 	addiu	t1,t1,8
80000918:	24420001 	addiu	v0,v0,1
8000091c:	3c068001 	lui	a2,0x8001
80000920:	24630010 	addiu	v1,v1,16
80000924:	24c6a934 	addiu	a2,a2,-22220
80000928:	28440008 	slti	a0,v0,8
8000092c:	ad260000 	sw	a2,0(t1)
80000930:	ad320004 	sw	s2,4(t1)
80000934:	afa304c0 	sw	v1,1216(sp)
80000938:	1480fff3 	bnez	a0,80000908 <_vfprintf_r+0x5d0>
8000093c:	afa204bc 	sw	v0,1212(sp)
80000940:	02602021 	move	a0,s3
80000944:	02802821 	move	a1,s4
80000948:	0c001b6d 	jal	80006db4 <__sprint_r>
8000094c:	02a03021 	move	a2,s5
80000950:	1440009e 	bnez	v0,80000bcc <_vfprintf_r+0x894>
80000954:	2631fff0 	addiu	s1,s1,-16
80000958:	2a240011 	slti	a0,s1,17
8000095c:	8fa304c0 	lw	v1,1216(sp)
80000960:	8fa204bc 	lw	v0,1212(sp)
80000964:	1080ffec 	beqz	a0,80000918 <_vfprintf_r+0x5e0>
80000968:	27a90028 	addiu	t1,sp,40
8000096c:	24420001 	addiu	v0,v0,1
80000970:	8fa80504 	lw	t0,1284(sp)
80000974:	02231821 	addu	v1,s1,v1
80000978:	28440008 	slti	a0,v0,8
8000097c:	ad280000 	sw	t0,0(t1)
80000980:	ad310004 	sw	s1,4(t1)
80000984:	afa304c0 	sw	v1,1216(sp)
80000988:	14800008 	bnez	a0,800009ac <_vfprintf_r+0x674>
8000098c:	afa204bc 	sw	v0,1212(sp)
80000990:	8fa40560 	lw	a0,1376(sp)
80000994:	8fa50564 	lw	a1,1380(sp)
80000998:	0c001b6d 	jal	80006db4 <__sprint_r>
8000099c:	02a03021 	move	a2,s5
800009a0:	1440008a 	bnez	v0,80000bcc <_vfprintf_r+0x894>
800009a4:	00000000 	nop
800009a8:	8fa304c0 	lw	v1,1216(sp)
800009ac:	8fa204f0 	lw	v0,1264(sp)
800009b0:	8fa804fc 	lw	t0,1276(sp)
800009b4:	00000000 	nop
800009b8:	0048202a 	slt	a0,v0,t0
800009bc:	10800002 	beqz	a0,800009c8 <_vfprintf_r+0x690>
800009c0:	00000000 	nop
800009c4:	01001021 	move	v0,t0
800009c8:	8fa804f8 	lw	t0,1272(sp)
800009cc:	00000000 	nop
800009d0:	01024021 	addu	t0,t0,v0
800009d4:	14600212 	bnez	v1,80001220 <_vfprintf_r+0xee8>
800009d8:	afa804f8 	sw	t0,1272(sp)
800009dc:	afa004bc 	sw	zero,1212(sp)
800009e0:	27a90028 	addiu	t1,sp,40
800009e4:	82020000 	lb	v0,0(s0)
800009e8:	00000000 	nop
800009ec:	1440fea1 	bnez	v0,80000474 <_vfprintf_r+0x13c>
800009f0:	24030025 	li	v1,37
800009f4:	08000139 	j	800004e4 <_vfprintf_r+0x1ac>
800009f8:	02008821 	move	s1,s0
800009fc:	36520010 	ori	s2,s2,0x10
80000a00:	32420020 	andi	v0,s2,0x20
80000a04:	14400095 	bnez	v0,80000c5c <_vfprintf_r+0x924>
80000a08:	2402fff8 	li	v0,-8
80000a0c:	32420010 	andi	v0,s2,0x10
80000a10:	10400495 	beqz	v0,80001c68 <_vfprintf_r+0x1930>
80000a14:	00000000 	nop
80000a18:	8fa8056c 	lw	t0,1388(sp)
80000a1c:	00000000 	nop
80000a20:	8d140000 	lw	s4,0(t0)
80000a24:	25080004 	addiu	t0,t0,4
80000a28:	0000b021 	move	s6,zero
80000a2c:	afa8056c 	sw	t0,1388(sp)
80000a30:	00001021 	move	v0,zero
80000a34:	02801821 	move	v1,s4
80000a38:	0800016c 	j	800005b0 <_vfprintf_r+0x278>
80000a3c:	a3a004e2 	sb	zero,1250(sp)
80000a40:	36520010 	ori	s2,s2,0x10
80000a44:	32420020 	andi	v0,s2,0x20
80000a48:	14400090 	bnez	v0,80000c8c <_vfprintf_r+0x954>
80000a4c:	2402fff8 	li	v0,-8
80000a50:	32420010 	andi	v0,s2,0x10
80000a54:	1040047b 	beqz	v0,80001c44 <_vfprintf_r+0x190c>
80000a58:	32420040 	andi	v0,s2,0x40
80000a5c:	8fa8056c 	lw	t0,1388(sp)
80000a60:	00000000 	nop
80000a64:	8d140000 	lw	s4,0(t0)
80000a68:	25080004 	addiu	t0,t0,4
80000a6c:	0014b7c3 	sra	s6,s4,0x1f
80000a70:	afa8056c 	sw	t0,1388(sp)
80000a74:	02c01021 	move	v0,s6
80000a78:	044102fc 	bgez	v0,8000166c <_vfprintf_r+0x1334>
80000a7c:	00000000 	nop
80000a80:	0014a023 	negu	s4,s4
80000a84:	0014102b 	sltu	v0,zero,s4
80000a88:	0016b023 	negu	s6,s6
80000a8c:	02c2b023 	subu	s6,s6,v0
80000a90:	2402002d 	li	v0,45
80000a94:	a3a204e2 	sb	v0,1250(sp)
80000a98:	02d41825 	or	v1,s6,s4
80000a9c:	0800016c 	j	800005b0 <_vfprintf_r+0x278>
80000aa0:	24020001 	li	v0,1
80000aa4:	afa2056c 	sw	v0,1388(sp)
80000aa8:	afa804fc 	sw	t0,1276(sp)
80000aac:	82130000 	lb	s3,0(s0)
80000ab0:	08000146 	j	80000518 <_vfprintf_r+0x1e0>
80000ab4:	36520004 	ori	s2,s2,0x4
80000ab8:	8fa40560 	lw	a0,1376(sp)
80000abc:	8fa50564 	lw	a1,1380(sp)
80000ac0:	0c000918 	jal	80002460 <__swsetup_r>
80000ac4:	00000000 	nop
80000ac8:	14400049 	bnez	v0,80000bf0 <_vfprintf_r+0x8b8>
80000acc:	2403000a 	li	v1,10
80000ad0:	8fa80564 	lw	t0,1380(sp)
80000ad4:	00000000 	nop
80000ad8:	8502000c 	lh	v0,12(t0)
80000adc:	00000000 	nop
80000ae0:	3044001a 	andi	a0,v0,0x1a
80000ae4:	1483fe52 	bne	a0,v1,80000430 <_vfprintf_r+0xf8>
80000ae8:	27a804b7 	addiu	t0,sp,1207
80000aec:	8fa80564 	lw	t0,1380(sp)
80000af0:	00000000 	nop
80000af4:	8503000e 	lh	v1,14(t0)
80000af8:	00000000 	nop
80000afc:	0460fe4b 	bltz	v1,8000042c <_vfprintf_r+0xf4>
80000b00:	2404fffd 	li	a0,-3
80000b04:	8d0b0064 	lw	t3,100(t0)
80000b08:	8d0a001c 	lw	t2,28(t0)
80000b0c:	8d090024 	lw	t1,36(t0)
80000b10:	00441024 	and	v0,v0,a0
80000b14:	8fa7056c 	lw	a3,1388(sp)
80000b18:	8fa40560 	lw	a0,1376(sp)
80000b1c:	24080400 	li	t0,1024
80000b20:	a7a20434 	sh	v0,1076(sp)
80000b24:	27a50428 	addiu	a1,sp,1064
80000b28:	27a20028 	addiu	v0,sp,40
80000b2c:	02003021 	move	a2,s0
80000b30:	afab048c 	sw	t3,1164(sp)
80000b34:	a7a30436 	sh	v1,1078(sp)
80000b38:	afaa0444 	sw	t2,1092(sp)
80000b3c:	afa9044c 	sw	t1,1100(sp)
80000b40:	afa20428 	sw	v0,1064(sp)
80000b44:	afa20438 	sw	v0,1080(sp)
80000b48:	afa80430 	sw	t0,1072(sp)
80000b4c:	afa8043c 	sw	t0,1084(sp)
80000b50:	0c0000ce 	jal	80000338 <_vfprintf_r>
80000b54:	afa00440 	sw	zero,1088(sp)
80000b58:	04400006 	bltz	v0,80000b74 <_vfprintf_r+0x83c>
80000b5c:	afa204f8 	sw	v0,1272(sp)
80000b60:	8fa40560 	lw	a0,1376(sp)
80000b64:	0c001087 	jal	8000421c <_fflush_r>
80000b68:	27a50428 	addiu	a1,sp,1064
80000b6c:	1440061a 	bnez	v0,800023d8 <_vfprintf_r+0x20a0>
80000b70:	2408ffff 	li	t0,-1
80000b74:	97a20434 	lhu	v0,1076(sp)
80000b78:	00000000 	nop
80000b7c:	30420040 	andi	v0,v0,0x40
80000b80:	00021400 	sll	v0,v0,0x10
80000b84:	00021403 	sra	v0,v0,0x10
80000b88:	1040001b 	beqz	v0,80000bf8 <_vfprintf_r+0x8c0>
80000b8c:	00000000 	nop
80000b90:	8fa80564 	lw	t0,1380(sp)
80000b94:	00000000 	nop
80000b98:	9502000c 	lhu	v0,12(t0)
80000b9c:	00000000 	nop
80000ba0:	34420040 	ori	v0,v0,0x40
80000ba4:	080002fe 	j	80000bf8 <_vfprintf_r+0x8c0>
80000ba8:	a502000c 	sh	v0,12(t0)
80000bac:	8fa204c0 	lw	v0,1216(sp)
80000bb0:	00000000 	nop
80000bb4:	10400005 	beqz	v0,80000bcc <_vfprintf_r+0x894>
80000bb8:	00000000 	nop
80000bbc:	8fa40560 	lw	a0,1376(sp)
80000bc0:	8fa50564 	lw	a1,1380(sp)
80000bc4:	0c001b6d 	jal	80006db4 <__sprint_r>
80000bc8:	27a604b8 	addiu	a2,sp,1208
80000bcc:	8fa80564 	lw	t0,1380(sp)
80000bd0:	00000000 	nop
80000bd4:	9502000c 	lhu	v0,12(t0)
80000bd8:	00000000 	nop
80000bdc:	30420040 	andi	v0,v0,0x40
80000be0:	00021400 	sll	v0,v0,0x10
80000be4:	00021403 	sra	v0,v0,0x10
80000be8:	10400003 	beqz	v0,80000bf8 <_vfprintf_r+0x8c0>
80000bec:	00000000 	nop
80000bf0:	2408ffff 	li	t0,-1
80000bf4:	afa804f8 	sw	t0,1272(sp)
80000bf8:	8fbf055c 	lw	ra,1372(sp)
80000bfc:	8fa204f8 	lw	v0,1272(sp)
80000c00:	8fbe0558 	lw	s8,1368(sp)
80000c04:	8fb70554 	lw	s7,1364(sp)
80000c08:	8fb60550 	lw	s6,1360(sp)
80000c0c:	8fb5054c 	lw	s5,1356(sp)
80000c10:	8fb40548 	lw	s4,1352(sp)
80000c14:	8fb30544 	lw	s3,1348(sp)
80000c18:	8fb20540 	lw	s2,1344(sp)
80000c1c:	8fb1053c 	lw	s1,1340(sp)
80000c20:	8fb00538 	lw	s0,1336(sp)
80000c24:	03e00008 	jr	ra
80000c28:	27bd0560 	addiu	sp,sp,1376
80000c2c:	8fa40560 	lw	a0,1376(sp)
80000c30:	8fa50564 	lw	a1,1380(sp)
80000c34:	0c001b6d 	jal	80006db4 <__sprint_r>
80000c38:	02a03021 	move	a2,s5
80000c3c:	1440ffe3 	bnez	v0,80000bcc <_vfprintf_r+0x894>
80000c40:	27a90028 	addiu	t1,sp,40
80000c44:	08000135 	j	800004d4 <_vfprintf_r+0x19c>
80000c48:	00000000 	nop
80000c4c:	0c0010f4 	jal	800043d0 <__sinit>
80000c50:	01002021 	move	a0,t0
80000c54:	080000ee 	j	800003b8 <_vfprintf_r+0x80>
80000c58:	00000000 	nop
80000c5c:	8fa8056c 	lw	t0,1388(sp)
80000c60:	00000000 	nop
80000c64:	25030007 	addiu	v1,t0,7
80000c68:	00621024 	and	v0,v1,v0
80000c6c:	8c560000 	lw	s6,0(v0)
80000c70:	8c540004 	lw	s4,4(v0)
80000c74:	24420008 	addiu	v0,v0,8
80000c78:	afa2056c 	sw	v0,1388(sp)
80000c7c:	02d41825 	or	v1,s6,s4
80000c80:	00001021 	move	v0,zero
80000c84:	0800016c 	j	800005b0 <_vfprintf_r+0x278>
80000c88:	a3a004e2 	sb	zero,1250(sp)
80000c8c:	8fa8056c 	lw	t0,1388(sp)
80000c90:	00000000 	nop
80000c94:	25030007 	addiu	v1,t0,7
80000c98:	00621824 	and	v1,v1,v0
80000c9c:	8c620000 	lw	v0,0(v1)
80000ca0:	24680008 	addiu	t0,v1,8
80000ca4:	afa8056c 	sw	t0,1388(sp)
80000ca8:	8c740004 	lw	s4,4(v1)
80000cac:	0800029e 	j	80000a78 <_vfprintf_r+0x740>
80000cb0:	0040b021 	move	s6,v0
80000cb4:	8fa8056c 	lw	t0,1388(sp)
80000cb8:	00000000 	nop
80000cbc:	25030007 	addiu	v1,t0,7
80000cc0:	00621024 	and	v0,v1,v0
80000cc4:	8c560000 	lw	s6,0(v0)
80000cc8:	8c540004 	lw	s4,4(v0)
80000ccc:	24420008 	addiu	v0,v0,8
80000cd0:	afa2056c 	sw	v0,1388(sp)
80000cd4:	02d41825 	or	v1,s6,s4
80000cd8:	24020001 	li	v0,1
80000cdc:	0800016c 	j	800005b0 <_vfprintf_r+0x278>
80000ce0:	a3a004e2 	sb	zero,1250(sp)
80000ce4:	83a204e2 	lb	v0,1250(sp)
80000ce8:	00000000 	nop
80000cec:	144003fb 	bnez	v0,80001cdc <_vfprintf_r+0x19a4>
80000cf0:	00000000 	nop
80000cf4:	a3a704e2 	sb	a3,1250(sp)
80000cf8:	82130000 	lb	s3,0(s0)
80000cfc:	08000147 	j	8000051c <_vfprintf_r+0x1e4>
80000d00:	26100001 	addiu	s0,s0,1
80000d04:	82130000 	lb	s3,0(s0)
80000d08:	08000146 	j	80000518 <_vfprintf_r+0x1e0>
80000d0c:	36520001 	ori	s2,s2,0x1
80000d10:	a3a404e2 	sb	a0,1250(sp)
80000d14:	82130000 	lb	s3,0(s0)
80000d18:	08000147 	j	8000051c <_vfprintf_r+0x1e4>
80000d1c:	26100001 	addiu	s0,s0,1
80000d20:	82130000 	lb	s3,0(s0)
80000d24:	00000000 	nop
80000d28:	126605b5 	beq	s3,a2,80002400 <_vfprintf_r+0x20c8>
80000d2c:	26030001 	addiu	v1,s0,1
80000d30:	2662ffd0 	addiu	v0,s3,-48
80000d34:	2c48000a 	sltiu	t0,v0,10
80000d38:	1100000c 	beqz	t0,80000d6c <_vfprintf_r+0xa34>
80000d3c:	0000f021 	move	s8,zero
80000d40:	001e4040 	sll	t0,s8,0x1
80000d44:	80730000 	lb	s3,0(v1)
80000d48:	001ef0c0 	sll	s8,s8,0x3
80000d4c:	011ef021 	addu	s8,t0,s8
80000d50:	005ef021 	addu	s8,v0,s8
80000d54:	2662ffd0 	addiu	v0,s3,-48
80000d58:	2c48000a 	sltiu	t0,v0,10
80000d5c:	1500fff8 	bnez	t0,80000d40 <_vfprintf_r+0xa08>
80000d60:	24630001 	addiu	v1,v1,1
80000d64:	07c0044a 	bltz	s8,80001e90 <_vfprintf_r+0x1b58>
80000d68:	00000000 	nop
80000d6c:	08000147 	j	8000051c <_vfprintf_r+0x1e4>
80000d70:	00608021 	move	s0,v1
80000d74:	3c088001 	lui	t0,0x8001
80000d78:	2508a79c 	addiu	t0,t0,-22628
80000d7c:	32420020 	andi	v0,s2,0x20
80000d80:	104000ba 	beqz	v0,8000106c <_vfprintf_r+0xd34>
80000d84:	afa80524 	sw	t0,1316(sp)
80000d88:	8fa8056c 	lw	t0,1388(sp)
80000d8c:	2402fff8 	li	v0,-8
80000d90:	25030007 	addiu	v1,t0,7
80000d94:	00621024 	and	v0,v1,v0
80000d98:	24480008 	addiu	t0,v0,8
80000d9c:	8c560000 	lw	s6,0(v0)
80000da0:	8c540004 	lw	s4,4(v0)
80000da4:	afa8056c 	sw	t0,1388(sp)
80000da8:	32420001 	andi	v0,s2,0x1
80000dac:	10400281 	beqz	v0,800017b4 <_vfprintf_r+0x147c>
80000db0:	24020002 	li	v0,2
80000db4:	02d41825 	or	v1,s6,s4
80000db8:	106003b2 	beqz	v1,80001c84 <_vfprintf_r+0x194c>
80000dbc:	00000000 	nop
80000dc0:	24020030 	li	v0,48
80000dc4:	a3a204e0 	sb	v0,1248(sp)
80000dc8:	a3b304e1 	sb	s3,1249(sp)
80000dcc:	36520002 	ori	s2,s2,0x2
80000dd0:	24020002 	li	v0,2
80000dd4:	0800016c 	j	800005b0 <_vfprintf_r+0x278>
80000dd8:	a3a004e2 	sb	zero,1250(sp)
80000ddc:	82130000 	lb	s3,0(s0)
80000de0:	08000146 	j	80000518 <_vfprintf_r+0x1e0>
80000de4:	36520040 	ori	s2,s2,0x40
80000de8:	82130000 	lb	s3,0(s0)
80000dec:	00000000 	nop
80000df0:	12650434 	beq	s3,a1,80001ec4 <_vfprintf_r+0x1b8c>
80000df4:	02001021 	move	v0,s0
80000df8:	08000146 	j	80000518 <_vfprintf_r+0x1e0>
80000dfc:	36520010 	ori	s2,s2,0x10
80000e00:	8fa8056c 	lw	t0,1388(sp)
80000e04:	24030001 	li	v1,1
80000e08:	8d020000 	lw	v0,0(t0)
80000e0c:	25080004 	addiu	t0,t0,4
80000e10:	afa304f0 	sw	v1,1264(sp)
80000e14:	a3a20490 	sb	v0,1168(sp)
80000e18:	a3a004e2 	sb	zero,1250(sp)
80000e1c:	afa8056c 	sw	t0,1388(sp)
80000e20:	24140001 	li	s4,1
80000e24:	27b10490 	addiu	s1,sp,1168
80000e28:	afa00500 	sw	zero,1280(sp)
80000e2c:	08000189 	j	80000624 <_vfprintf_r+0x2ec>
80000e30:	afa00510 	sw	zero,1296(sp)
80000e34:	32420020 	andi	v0,s2,0x20
80000e38:	10400394 	beqz	v0,80001c8c <_vfprintf_r+0x1954>
80000e3c:	32420010 	andi	v0,s2,0x10
80000e40:	8fa8056c 	lw	t0,1388(sp)
80000e44:	00000000 	nop
80000e48:	8d020000 	lw	v0,0(t0)
80000e4c:	8fa804f8 	lw	t0,1272(sp)
80000e50:	00000000 	nop
80000e54:	00081fc3 	sra	v1,t0,0x1f
80000e58:	ac480004 	sw	t0,4(v0)
80000e5c:	8fa8056c 	lw	t0,1388(sp)
80000e60:	ac430000 	sw	v1,0(v0)
80000e64:	25080004 	addiu	t0,t0,4
80000e68:	08000119 	j	80000464 <_vfprintf_r+0x12c>
80000e6c:	afa8056c 	sw	t0,1388(sp)
80000e70:	8fa8056c 	lw	t0,1388(sp)
80000e74:	00000000 	nop
80000e78:	8d080000 	lw	t0,0(t0)
80000e7c:	00000000 	nop
80000e80:	afa804fc 	sw	t0,1276(sp)
80000e84:	8fa8056c 	lw	t0,1388(sp)
80000e88:	00000000 	nop
80000e8c:	25020004 	addiu	v0,t0,4
80000e90:	8fa804fc 	lw	t0,1276(sp)
80000e94:	00000000 	nop
80000e98:	0500ff02 	bltz	t0,80000aa4 <_vfprintf_r+0x76c>
80000e9c:	00084023 	negu	t0,t0
80000ea0:	82130000 	lb	s3,0(s0)
80000ea4:	08000146 	j	80000518 <_vfprintf_r+0x1e0>
80000ea8:	afa2056c 	sw	v0,1388(sp)
80000eac:	00001821 	move	v1,zero
80000eb0:	2662ffd0 	addiu	v0,s3,-48
80000eb4:	00034040 	sll	t0,v1,0x1
80000eb8:	82130000 	lb	s3,0(s0)
80000ebc:	000318c0 	sll	v1,v1,0x3
80000ec0:	01031821 	addu	v1,t0,v1
80000ec4:	00621821 	addu	v1,v1,v0
80000ec8:	2662ffd0 	addiu	v0,s3,-48
80000ecc:	2c48000a 	sltiu	t0,v0,10
80000ed0:	1500fff8 	bnez	t0,80000eb4 <_vfprintf_r+0xb7c>
80000ed4:	26100001 	addiu	s0,s0,1
80000ed8:	08000147 	j	8000051c <_vfprintf_r+0x1e4>
80000edc:	afa304fc 	sw	v1,1276(sp)
80000ee0:	8fa8056c 	lw	t0,1388(sp)
80000ee4:	2402fff8 	li	v0,-8
80000ee8:	25030007 	addiu	v1,t0,7
80000eec:	00621024 	and	v0,v1,v0
80000ef0:	c4400004 	lwc1	$f0,4(v0)
80000ef4:	00000000 	nop
80000ef8:	c4410000 	lwc1	$f1,0(v0)
80000efc:	24420008 	addiu	v0,v0,8
80000f00:	e7a004f4 	swc1	$f0,1268(sp)
80000f04:	c7ac04f4 	lwc1	$f12,1268(sp)
80000f08:	e7a104f0 	swc1	$f1,1264(sp)
80000f0c:	44030000 	mfc1	v1,$f0
80000f10:	afa2056c 	sw	v0,1388(sp)
80000f14:	c7ad04f0 	lwc1	$f13,1264(sp)
80000f18:	44020800 	mfc1	v0,$f1
80000f1c:	afa3051c 	sw	v1,1308(sp)
80000f20:	afa90534 	sw	t1,1332(sp)
80000f24:	0c001ab6 	jal	80006ad8 <__fpclassifyd>
80000f28:	afa20518 	sw	v0,1304(sp)
80000f2c:	24030001 	li	v1,1
80000f30:	8fa90534 	lw	t1,1332(sp)
80000f34:	144302d4 	bne	v0,v1,80001a88 <_vfprintf_r+0x1750>
80000f38:	00000000 	nop
80000f3c:	44800000 	mtc1	zero,$f0
80000f40:	c7a204f4 	lwc1	$f2,1268(sp)
80000f44:	44800800 	mtc1	zero,$f1
80000f48:	c7a304f0 	lwc1	$f3,1264(sp)
80000f4c:	00000000 	nop
80000f50:	4620103c 	c.lt.d	$f2,$f0
80000f54:	00000000 	nop
80000f58:	45010451 	bc1t	800020a0 <_vfprintf_r+0x1d68>
80000f5c:	2402002d 	li	v0,45
80000f60:	83a204e2 	lb	v0,1250(sp)
80000f64:	2a630048 	slti	v1,s3,72
80000f68:	146003c6 	bnez	v1,80001e84 <_vfprintf_r+0x1b4c>
80000f6c:	00000000 	nop
80000f70:	3c118001 	lui	s1,0x8001
80000f74:	2631a790 	addiu	s1,s1,-22640
80000f78:	2403ff7f 	li	v1,-129
80000f7c:	02439024 	and	s2,s2,v1
80000f80:	24030003 	li	v1,3
80000f84:	afa304f0 	sw	v1,1264(sp)
80000f88:	24140003 	li	s4,3
80000f8c:	afa00500 	sw	zero,1280(sp)
80000f90:	08000183 	j	8000060c <_vfprintf_r+0x2d4>
80000f94:	afa00510 	sw	zero,1296(sp)
80000f98:	8fa8056c 	lw	t0,1388(sp)
80000f9c:	24020030 	li	v0,48
80000fa0:	8d140000 	lw	s4,0(t0)
80000fa4:	a3a204e0 	sb	v0,1248(sp)
80000fa8:	24020078 	li	v0,120
80000fac:	a3a204e1 	sb	v0,1249(sp)
80000fb0:	3c028001 	lui	v0,0x8001
80000fb4:	2442a7b0 	addiu	v0,v0,-22608
80000fb8:	25080004 	addiu	t0,t0,4
80000fbc:	afa20524 	sw	v0,1316(sp)
80000fc0:	0000b021 	move	s6,zero
80000fc4:	36520002 	ori	s2,s2,0x2
80000fc8:	afa8056c 	sw	t0,1388(sp)
80000fcc:	24020002 	li	v0,2
80000fd0:	24130078 	li	s3,120
80000fd4:	02801821 	move	v1,s4
80000fd8:	0800016c 	j	800005b0 <_vfprintf_r+0x278>
80000fdc:	a3a004e2 	sb	zero,1250(sp)
80000fe0:	82130000 	lb	s3,0(s0)
80000fe4:	08000146 	j	80000518 <_vfprintf_r+0x1e0>
80000fe8:	36520020 	ori	s2,s2,0x20
80000fec:	8fa8056c 	lw	t0,1388(sp)
80000ff0:	a3a004e2 	sb	zero,1250(sp)
80000ff4:	8d110000 	lw	s1,0(t0)
80000ff8:	00000000 	nop
80000ffc:	12200418 	beqz	s1,80002060 <_vfprintf_r+0x1d28>
80001000:	25160004 	addiu	s6,t0,4
80001004:	07c003bc 	bltz	s8,80001ef8 <_vfprintf_r+0x1bc0>
80001008:	02202021 	move	a0,s1
8000100c:	00002821 	move	a1,zero
80001010:	03c03021 	move	a2,s8
80001014:	0c0015a0 	jal	80005680 <memchr>
80001018:	afa90534 	sw	t1,1332(sp)
8000101c:	8fa90534 	lw	t1,1332(sp)
80001020:	10400021 	beqz	v0,800010a8 <_vfprintf_r+0xd70>
80001024:	00000000 	nop
80001028:	0051a023 	subu	s4,v0,s1
8000102c:	03d4102a 	slt	v0,s8,s4
80001030:	1440001d 	bnez	v0,800010a8 <_vfprintf_r+0xd70>
80001034:	00000000 	nop
80001038:	068003b5 	bltz	s4,80001f10 <_vfprintf_r+0x1bd8>
8000103c:	afb404f0 	sw	s4,1264(sp)
80001040:	83a204e2 	lb	v0,1250(sp)
80001044:	afb6056c 	sw	s6,1388(sp)
80001048:	afa00500 	sw	zero,1280(sp)
8000104c:	08000183 	j	8000060c <_vfprintf_r+0x2d4>
80001050:	afa00510 	sw	zero,1296(sp)
80001054:	3c028001 	lui	v0,0x8001
80001058:	2442a7b0 	addiu	v0,v0,-22608
8000105c:	afa20524 	sw	v0,1316(sp)
80001060:	32420020 	andi	v0,s2,0x20
80001064:	1440ff48 	bnez	v0,80000d88 <_vfprintf_r+0xa50>
80001068:	00000000 	nop
8000106c:	32420010 	andi	v0,s2,0x10
80001070:	104002ec 	beqz	v0,80001c24 <_vfprintf_r+0x18ec>
80001074:	32420040 	andi	v0,s2,0x40
80001078:	8fa8056c 	lw	t0,1388(sp)
8000107c:	0000b021 	move	s6,zero
80001080:	8d140000 	lw	s4,0(t0)
80001084:	25080004 	addiu	t0,t0,4
80001088:	0800036a 	j	80000da8 <_vfprintf_r+0xa70>
8000108c:	afa8056c 	sw	t0,1388(sp)
80001090:	82130000 	lb	s3,0(s0)
80001094:	08000146 	j	80000518 <_vfprintf_r+0x1e0>
80001098:	36520008 	ori	s2,s2,0x8
8000109c:	82130000 	lb	s3,0(s0)
800010a0:	08000146 	j	80000518 <_vfprintf_r+0x1e0>
800010a4:	36520080 	ori	s2,s2,0x80
800010a8:	afbe04f0 	sw	s8,1264(sp)
800010ac:	83a204e2 	lb	v0,1250(sp)
800010b0:	03c0a021 	move	s4,s8
800010b4:	afb6056c 	sw	s6,1388(sp)
800010b8:	afa00500 	sw	zero,1280(sp)
800010bc:	08000183 	j	8000060c <_vfprintf_r+0x2d4>
800010c0:	afa00510 	sw	zero,1296(sp)
800010c4:	8fa304c0 	lw	v1,1216(sp)
800010c8:	83a204e2 	lb	v0,1250(sp)
800010cc:	00000000 	nop
800010d0:	1040fd9f 	beqz	v0,80000750 <_vfprintf_r+0x418>
800010d4:	00000000 	nop
800010d8:	8fa204bc 	lw	v0,1212(sp)
800010dc:	27a504e2 	addiu	a1,sp,1250
800010e0:	24420001 	addiu	v0,v0,1
800010e4:	ad250000 	sw	a1,0(t1)
800010e8:	24630001 	addiu	v1,v1,1
800010ec:	24050001 	li	a1,1
800010f0:	28440008 	slti	a0,v0,8
800010f4:	ad250004 	sw	a1,4(t1)
800010f8:	afa304c0 	sw	v1,1216(sp)
800010fc:	10800123 	beqz	a0,8000158c <_vfprintf_r+0x1254>
80001100:	afa204bc 	sw	v0,1212(sp)
80001104:	080001d4 	j	80000750 <_vfprintf_r+0x418>
80001108:	25290008 	addiu	t1,t1,8
8000110c:	8fa8050c 	lw	t0,1292(sp)
80001110:	00000000 	nop
80001114:	29020002 	slti	v0,t0,2
80001118:	144000f5 	bnez	v0,800014f0 <_vfprintf_r+0x11b8>
8000111c:	32420001 	andi	v0,s2,0x1
80001120:	8fa204bc 	lw	v0,1212(sp)
80001124:	24630001 	addiu	v1,v1,1
80001128:	24420001 	addiu	v0,v0,1
8000112c:	24050001 	li	a1,1
80001130:	28440008 	slti	a0,v0,8
80001134:	ad310000 	sw	s1,0(t1)
80001138:	ad250004 	sw	a1,4(t1)
8000113c:	afa304c0 	sw	v1,1216(sp)
80001140:	1080022a 	beqz	a0,800019ec <_vfprintf_r+0x16b4>
80001144:	afa204bc 	sw	v0,1212(sp)
80001148:	25290008 	addiu	t1,t1,8
8000114c:	8fa80514 	lw	t0,1300(sp)
80001150:	24420001 	addiu	v0,v0,1
80001154:	00681821 	addu	v1,v1,t0
80001158:	8fa80508 	lw	t0,1288(sp)
8000115c:	28440008 	slti	a0,v0,8
80001160:	ad280000 	sw	t0,0(t1)
80001164:	8fa80514 	lw	t0,1300(sp)
80001168:	00000000 	nop
8000116c:	ad280004 	sw	t0,4(t1)
80001170:	afa304c0 	sw	v1,1216(sp)
80001174:	10800227 	beqz	a0,80001a14 <_vfprintf_r+0x16dc>
80001178:	afa204bc 	sw	v0,1212(sp)
8000117c:	25290008 	addiu	t1,t1,8
80001180:	8fa5051c 	lw	a1,1308(sp)
80001184:	44800000 	mtc1	zero,$f0
80001188:	8fa40518 	lw	a0,1304(sp)
8000118c:	44851000 	mtc1	a1,$f2
80001190:	44800800 	mtc1	zero,$f1
80001194:	44841800 	mtc1	a0,$f3
80001198:	8fa8050c 	lw	t0,1292(sp)
8000119c:	46201032 	c.eq.d	$f2,$f0
800011a0:	00000000 	nop
800011a4:	45010186 	bc1t	800017c0 <_vfprintf_r+0x1488>
800011a8:	2504ffff 	addiu	a0,t0,-1
800011ac:	24420001 	addiu	v0,v0,1
800011b0:	26310001 	addiu	s1,s1,1
800011b4:	00641821 	addu	v1,v1,a0
800011b8:	28450008 	slti	a1,v0,8
800011bc:	ad310000 	sw	s1,0(t1)
800011c0:	ad240004 	sw	a0,4(t1)
800011c4:	afa304c0 	sw	v1,1216(sp)
800011c8:	10a000d4 	beqz	a1,8000151c <_vfprintf_r+0x11e4>
800011cc:	afa204bc 	sw	v0,1212(sp)
800011d0:	25290008 	addiu	t1,t1,8
800011d4:	8fa80520 	lw	t0,1312(sp)
800011d8:	24420001 	addiu	v0,v0,1
800011dc:	27a404cc 	addiu	a0,sp,1228
800011e0:	00681821 	addu	v1,v1,t0
800011e4:	28450008 	slti	a1,v0,8
800011e8:	ad240000 	sw	a0,0(t1)
800011ec:	ad280004 	sw	t0,4(t1)
800011f0:	afa304c0 	sw	v1,1216(sp)
800011f4:	14a0fdb1 	bnez	a1,800008bc <_vfprintf_r+0x584>
800011f8:	afa204bc 	sw	v0,1212(sp)
800011fc:	8fa40560 	lw	a0,1376(sp)
80001200:	8fa50564 	lw	a1,1380(sp)
80001204:	0c001b6d 	jal	80006db4 <__sprint_r>
80001208:	02a03021 	move	a2,s5
8000120c:	1440fe6f 	bnez	v0,80000bcc <_vfprintf_r+0x894>
80001210:	27a90028 	addiu	t1,sp,40
80001214:	8fa304c0 	lw	v1,1216(sp)
80001218:	08000231 	j	800008c4 <_vfprintf_r+0x58c>
8000121c:	32520004 	andi	s2,s2,0x4
80001220:	8fa40560 	lw	a0,1376(sp)
80001224:	8fa50564 	lw	a1,1380(sp)
80001228:	0c001b6d 	jal	80006db4 <__sprint_r>
8000122c:	02a03021 	move	a2,s5
80001230:	1440fe66 	bnez	v0,80000bcc <_vfprintf_r+0x894>
80001234:	27a90028 	addiu	t1,sp,40
80001238:	08000279 	j	800009e4 <_vfprintf_r+0x6ac>
8000123c:	afa004bc 	sw	zero,1212(sp)
80001240:	24030001 	li	v1,1
80001244:	104300e8 	beq	v0,v1,800015e8 <_vfprintf_r+0x12b0>
80001248:	24030002 	li	v1,2
8000124c:	104300d8 	beq	v0,v1,800015b0 <_vfprintf_r+0x1278>
80001250:	02a08821 	move	s1,s5
80001254:	00162740 	sll	a0,s6,0x1d
80001258:	001418c2 	srl	v1,s4,0x3
8000125c:	32820007 	andi	v0,s4,0x7
80001260:	0016b0c2 	srl	s6,s6,0x3
80001264:	0083a025 	or	s4,a0,v1
80001268:	2631ffff 	addiu	s1,s1,-1
8000126c:	24420030 	addiu	v0,v0,48
80001270:	02d41825 	or	v1,s6,s4
80001274:	1460fff7 	bnez	v1,80001254 <_vfprintf_r+0xf1c>
80001278:	a2220000 	sb	v0,0(s1)
8000127c:	32430001 	andi	v1,s2,0x1
80001280:	10600006 	beqz	v1,8000129c <_vfprintf_r+0xf64>
80001284:	02202021 	move	a0,s1
80001288:	24030030 	li	v1,48
8000128c:	10430003 	beq	v0,v1,8000129c <_vfprintf_r+0xf64>
80001290:	00000000 	nop
80001294:	2631ffff 	addiu	s1,s1,-1
80001298:	a083ffff 	sb	v1,-1(a0)
8000129c:	0800017c 	j	800005f0 <_vfprintf_r+0x2b8>
800012a0:	02b1a023 	subu	s4,s5,s1
800012a4:	2a730066 	slti	s3,s3,102
800012a8:	1660ff98 	bnez	s3,8000110c <_vfprintf_r+0xdd4>
800012ac:	00000000 	nop
800012b0:	8fa5051c 	lw	a1,1308(sp)
800012b4:	44800000 	mtc1	zero,$f0
800012b8:	8fa40518 	lw	a0,1304(sp)
800012bc:	44851000 	mtc1	a1,$f2
800012c0:	44800800 	mtc1	zero,$f1
800012c4:	44841800 	mtc1	a0,$f3
800012c8:	00000000 	nop
800012cc:	46201032 	c.eq.d	$f2,$f0
800012d0:	00000000 	nop
800012d4:	450000e8 	bc1f	80001678 <_vfprintf_r+0x1340>
800012d8:	3c058001 	lui	a1,0x8001
800012dc:	8fa204bc 	lw	v0,1212(sp)
800012e0:	00000000 	nop
800012e4:	24420001 	addiu	v0,v0,1
800012e8:	24a5a7cc 	addiu	a1,a1,-22580
800012ec:	ad250000 	sw	a1,0(t1)
800012f0:	24630001 	addiu	v1,v1,1
800012f4:	24050001 	li	a1,1
800012f8:	28440008 	slti	a0,v0,8
800012fc:	ad250004 	sw	a1,4(t1)
80001300:	afa304c0 	sw	v1,1216(sp)
80001304:	10800282 	beqz	a0,80001d10 <_vfprintf_r+0x19d8>
80001308:	afa204bc 	sw	v0,1212(sp)
8000130c:	25290008 	addiu	t1,t1,8
80001310:	8fa204dc 	lw	v0,1244(sp)
80001314:	8fa8050c 	lw	t0,1292(sp)
80001318:	00000000 	nop
8000131c:	0048102a 	slt	v0,v0,t0
80001320:	14400003 	bnez	v0,80001330 <_vfprintf_r+0xff8>
80001324:	32420001 	andi	v0,s2,0x1
80001328:	1040fd65 	beqz	v0,800008c0 <_vfprintf_r+0x588>
8000132c:	00000000 	nop
80001330:	8fa80514 	lw	t0,1300(sp)
80001334:	8fa204bc 	lw	v0,1212(sp)
80001338:	00681821 	addu	v1,v1,t0
8000133c:	8fa80508 	lw	t0,1288(sp)
80001340:	24420001 	addiu	v0,v0,1
80001344:	ad280000 	sw	t0,0(t1)
80001348:	8fa80514 	lw	t0,1300(sp)
8000134c:	28440008 	slti	a0,v0,8
80001350:	ad280004 	sw	t0,4(t1)
80001354:	afa304c0 	sw	v1,1216(sp)
80001358:	108002de 	beqz	a0,80001ed4 <_vfprintf_r+0x1b9c>
8000135c:	afa204bc 	sw	v0,1212(sp)
80001360:	25290008 	addiu	t1,t1,8
80001364:	8fa8050c 	lw	t0,1292(sp)
80001368:	00000000 	nop
8000136c:	2511ffff 	addiu	s1,t0,-1
80001370:	1a20fd53 	blez	s1,800008c0 <_vfprintf_r+0x588>
80001374:	2a220011 	slti	v0,s1,17
80001378:	14400132 	bnez	v0,80001844 <_vfprintf_r+0x150c>
8000137c:	3c178001 	lui	s7,0x8001
80001380:	8fa204bc 	lw	v0,1212(sp)
80001384:	26f7a944 	addiu	s7,s7,-22204
80001388:	8fb40560 	lw	s4,1376(sp)
8000138c:	8fb60564 	lw	s6,1380(sp)
80001390:	080004eb 	j	800013ac <_vfprintf_r+0x1074>
80001394:	24130010 	li	s3,16
80001398:	25290008 	addiu	t1,t1,8
8000139c:	2631fff0 	addiu	s1,s1,-16
800013a0:	2a240011 	slti	a0,s1,17
800013a4:	1480012a 	bnez	a0,80001850 <_vfprintf_r+0x1518>
800013a8:	00000000 	nop
800013ac:	24420001 	addiu	v0,v0,1
800013b0:	24630010 	addiu	v1,v1,16
800013b4:	28440008 	slti	a0,v0,8
800013b8:	ad370000 	sw	s7,0(t1)
800013bc:	ad330004 	sw	s3,4(t1)
800013c0:	afa304c0 	sw	v1,1216(sp)
800013c4:	1480fff4 	bnez	a0,80001398 <_vfprintf_r+0x1060>
800013c8:	afa204bc 	sw	v0,1212(sp)
800013cc:	02802021 	move	a0,s4
800013d0:	02c02821 	move	a1,s6
800013d4:	0c001b6d 	jal	80006db4 <__sprint_r>
800013d8:	02a03021 	move	a2,s5
800013dc:	1440fdfb 	bnez	v0,80000bcc <_vfprintf_r+0x894>
800013e0:	27a90028 	addiu	t1,sp,40
800013e4:	8fa304c0 	lw	v1,1216(sp)
800013e8:	8fa204bc 	lw	v0,1212(sp)
800013ec:	080004e8 	j	800013a0 <_vfprintf_r+0x1068>
800013f0:	2631fff0 	addiu	s1,s1,-16
800013f4:	8fa804fc 	lw	t0,1276(sp)
800013f8:	8fa204f0 	lw	v0,1264(sp)
800013fc:	00000000 	nop
80001400:	0102b023 	subu	s6,t0,v0
80001404:	1ac0fce4 	blez	s6,80000798 <_vfprintf_r+0x460>
80001408:	2ac20011 	slti	v0,s6,17
8000140c:	1440038b 	bnez	v0,8000223c <_vfprintf_r+0x1f04>
80001410:	02c02021 	move	a0,s6
80001414:	3c178001 	lui	s7,0x8001
80001418:	26f7a944 	addiu	s7,s7,-22204
8000141c:	afb004ec 	sw	s0,1260(sp)
80001420:	afb30504 	sw	s3,1284(sp)
80001424:	0240b021 	move	s6,s2
80001428:	02e09821 	move	s3,s7
8000142c:	8fa204bc 	lw	v0,1212(sp)
80001430:	0280b821 	move	s7,s4
80001434:	241e0010 	li	s8,16
80001438:	0220a021 	move	s4,s1
8000143c:	8fb00560 	lw	s0,1376(sp)
80001440:	8fb10564 	lw	s1,1380(sp)
80001444:	08000517 	j	8000145c <_vfprintf_r+0x1124>
80001448:	00809021 	move	s2,a0
8000144c:	2652fff0 	addiu	s2,s2,-16
80001450:	2a440011 	slti	a0,s2,17
80001454:	14800014 	bnez	a0,800014a8 <_vfprintf_r+0x1170>
80001458:	25290008 	addiu	t1,t1,8
8000145c:	24420001 	addiu	v0,v0,1
80001460:	24630010 	addiu	v1,v1,16
80001464:	28440008 	slti	a0,v0,8
80001468:	ad330000 	sw	s3,0(t1)
8000146c:	ad3e0004 	sw	s8,4(t1)
80001470:	afa304c0 	sw	v1,1216(sp)
80001474:	1480fff5 	bnez	a0,8000144c <_vfprintf_r+0x1114>
80001478:	afa204bc 	sw	v0,1212(sp)
8000147c:	02002021 	move	a0,s0
80001480:	02202821 	move	a1,s1
80001484:	0c001b6d 	jal	80006db4 <__sprint_r>
80001488:	02a03021 	move	a2,s5
8000148c:	1440fdcf 	bnez	v0,80000bcc <_vfprintf_r+0x894>
80001490:	2652fff0 	addiu	s2,s2,-16
80001494:	2a440011 	slti	a0,s2,17
80001498:	8fa304c0 	lw	v1,1216(sp)
8000149c:	8fa204bc 	lw	v0,1212(sp)
800014a0:	1080ffee 	beqz	a0,8000145c <_vfprintf_r+0x1124>
800014a4:	27a90028 	addiu	t1,sp,40
800014a8:	02402021 	move	a0,s2
800014ac:	02808821 	move	s1,s4
800014b0:	8fb004ec 	lw	s0,1260(sp)
800014b4:	02e0a021 	move	s4,s7
800014b8:	0260b821 	move	s7,s3
800014bc:	8fb30504 	lw	s3,1284(sp)
800014c0:	02c09021 	move	s2,s6
800014c4:	0080b021 	move	s6,a0
800014c8:	24420001 	addiu	v0,v0,1
800014cc:	00761821 	addu	v1,v1,s6
800014d0:	28440008 	slti	a0,v0,8
800014d4:	ad370000 	sw	s7,0(t1)
800014d8:	ad360004 	sw	s6,4(t1)
800014dc:	afa304c0 	sw	v1,1216(sp)
800014e0:	10800160 	beqz	a0,80001a64 <_vfprintf_r+0x172c>
800014e4:	afa204bc 	sw	v0,1212(sp)
800014e8:	080001e6 	j	80000798 <_vfprintf_r+0x460>
800014ec:	25290008 	addiu	t1,t1,8
800014f0:	1440ff0b 	bnez	v0,80001120 <_vfprintf_r+0xde8>
800014f4:	24050001 	li	a1,1
800014f8:	8fa204bc 	lw	v0,1212(sp)
800014fc:	24630001 	addiu	v1,v1,1
80001500:	24420001 	addiu	v0,v0,1
80001504:	28440008 	slti	a0,v0,8
80001508:	ad310000 	sw	s1,0(t1)
8000150c:	ad250004 	sw	a1,4(t1)
80001510:	afa304c0 	sw	v1,1216(sp)
80001514:	1480ff2e 	bnez	a0,800011d0 <_vfprintf_r+0xe98>
80001518:	afa204bc 	sw	v0,1212(sp)
8000151c:	8fa40560 	lw	a0,1376(sp)
80001520:	8fa50564 	lw	a1,1380(sp)
80001524:	0c001b6d 	jal	80006db4 <__sprint_r>
80001528:	02a03021 	move	a2,s5
8000152c:	1440fda7 	bnez	v0,80000bcc <_vfprintf_r+0x894>
80001530:	27a90028 	addiu	t1,sp,40
80001534:	8fa304c0 	lw	v1,1216(sp)
80001538:	8fa204bc 	lw	v0,1212(sp)
8000153c:	08000475 	j	800011d4 <_vfprintf_r+0xe9c>
80001540:	00000000 	nop
80001544:	8fa40560 	lw	a0,1376(sp)
80001548:	8fa50564 	lw	a1,1380(sp)
8000154c:	0c001b6d 	jal	80006db4 <__sprint_r>
80001550:	02a03021 	move	a2,s5
80001554:	1440fd9d 	bnez	v0,80000bcc <_vfprintf_r+0x894>
80001558:	27a90028 	addiu	t1,sp,40
8000155c:	8fa304c0 	lw	v1,1216(sp)
80001560:	08000224 	j	80000890 <_vfprintf_r+0x558>
80001564:	32420100 	andi	v0,s2,0x100
80001568:	8fa40560 	lw	a0,1376(sp)
8000156c:	8fa50564 	lw	a1,1380(sp)
80001570:	0c001b6d 	jal	80006db4 <__sprint_r>
80001574:	02a03021 	move	a2,s5
80001578:	1440fd94 	bnez	v0,80000bcc <_vfprintf_r+0x894>
8000157c:	27a90028 	addiu	t1,sp,40
80001580:	8fa304c0 	lw	v1,1216(sp)
80001584:	080001e2 	j	80000788 <_vfprintf_r+0x450>
80001588:	00000000 	nop
8000158c:	8fa40560 	lw	a0,1376(sp)
80001590:	8fa50564 	lw	a1,1380(sp)
80001594:	0c001b6d 	jal	80006db4 <__sprint_r>
80001598:	02a03021 	move	a2,s5
8000159c:	1440fd8b 	bnez	v0,80000bcc <_vfprintf_r+0x894>
800015a0:	27a90028 	addiu	t1,sp,40
800015a4:	8fa304c0 	lw	v1,1216(sp)
800015a8:	080001d4 	j	80000750 <_vfprintf_r+0x418>
800015ac:	00000000 	nop
800015b0:	8fa40524 	lw	a0,1316(sp)
800015b4:	3283000f 	andi	v1,s4,0xf
800015b8:	00161700 	sll	v0,s6,0x1c
800015bc:	00831821 	addu	v1,a0,v1
800015c0:	0014a102 	srl	s4,s4,0x4
800015c4:	80630000 	lb	v1,0(v1)
800015c8:	0016b102 	srl	s6,s6,0x4
800015cc:	0054a025 	or	s4,v0,s4
800015d0:	2631ffff 	addiu	s1,s1,-1
800015d4:	02d41025 	or	v0,s6,s4
800015d8:	1440fff6 	bnez	v0,800015b4 <_vfprintf_r+0x127c>
800015dc:	a2230000 	sb	v1,0(s1)
800015e0:	0800017c 	j	800005f0 <_vfprintf_r+0x2b8>
800015e4:	02b1a023 	subu	s4,s5,s1
800015e8:	16c00004 	bnez	s6,800015fc <_vfprintf_r+0x12c4>
800015ec:	02a08821 	move	s1,s5
800015f0:	2e82000a 	sltiu	v0,s4,10
800015f4:	14400016 	bnez	v0,80001650 <_vfprintf_r+0x1318>
800015f8:	00000000 	nop
800015fc:	0120b821 	move	s7,t1
80001600:	02c02021 	move	a0,s6
80001604:	02802821 	move	a1,s4
80001608:	2407000a 	li	a3,10
8000160c:	0c00283e 	jal	8000a0f8 <__umoddi3>
80001610:	00003021 	move	a2,zero
80001614:	24630030 	addiu	v1,v1,48
80001618:	2631ffff 	addiu	s1,s1,-1
8000161c:	02802821 	move	a1,s4
80001620:	02c02021 	move	a0,s6
80001624:	a2230000 	sb	v1,0(s1)
80001628:	2407000a 	li	a3,10
8000162c:	0c0026a6 	jal	80009a98 <__udivdi3>
80001630:	00003021 	move	a2,zero
80001634:	0040b021 	move	s6,v0
80001638:	02c31025 	or	v0,s6,v1
8000163c:	1440fff0 	bnez	v0,80001600 <_vfprintf_r+0x12c8>
80001640:	0060a021 	move	s4,v1
80001644:	02e04821 	move	t1,s7
80001648:	0800017c 	j	800005f0 <_vfprintf_r+0x2b8>
8000164c:	02b1a023 	subu	s4,s5,s1
80001650:	26940030 	addiu	s4,s4,48
80001654:	a3b404b7 	sb	s4,1207(sp)
80001658:	8fb40530 	lw	s4,1328(sp)
8000165c:	0800017c 	j	800005f0 <_vfprintf_r+0x2b8>
80001660:	27b104b7 	addiu	s1,sp,1207
80001664:	0800017c 	j	800005f0 <_vfprintf_r+0x2b8>
80001668:	02a08821 	move	s1,s5
8000166c:	24020001 	li	v0,1
80001670:	0800016c 	j	800005b0 <_vfprintf_r+0x278>
80001674:	02d41825 	or	v1,s6,s4
80001678:	8fb304dc 	lw	s3,1244(sp)
8000167c:	00000000 	nop
80001680:	1a6001ac 	blez	s3,80001d34 <_vfprintf_r+0x19fc>
80001684:	24a5a7cc 	addiu	a1,a1,-22580
80001688:	8fa8050c 	lw	t0,1292(sp)
8000168c:	00000000 	nop
80001690:	02289821 	addu	s3,s1,t0
80001694:	8fa80510 	lw	t0,1296(sp)
80001698:	0271a023 	subu	s4,s3,s1
8000169c:	0114102a 	slt	v0,t0,s4
800016a0:	10400002 	beqz	v0,800016ac <_vfprintf_r+0x1374>
800016a4:	00000000 	nop
800016a8:	0100a021 	move	s4,t0
800016ac:	1a80000b 	blez	s4,800016dc <_vfprintf_r+0x13a4>
800016b0:	00000000 	nop
800016b4:	8fa204bc 	lw	v0,1212(sp)
800016b8:	00741821 	addu	v1,v1,s4
800016bc:	24420001 	addiu	v0,v0,1
800016c0:	28440008 	slti	a0,v0,8
800016c4:	ad310000 	sw	s1,0(t1)
800016c8:	ad340004 	sw	s4,4(t1)
800016cc:	afa304c0 	sw	v1,1216(sp)
800016d0:	1080022b 	beqz	a0,80001f80 <_vfprintf_r+0x1c48>
800016d4:	afa204bc 	sw	v0,1212(sp)
800016d8:	25290008 	addiu	t1,t1,8
800016dc:	06800226 	bltz	s4,80001f78 <_vfprintf_r+0x1c40>
800016e0:	00000000 	nop
800016e4:	8fa80510 	lw	t0,1296(sp)
800016e8:	00000000 	nop
800016ec:	0114a023 	subu	s4,t0,s4
800016f0:	1a800071 	blez	s4,800018b8 <_vfprintf_r+0x1580>
800016f4:	2a820011 	slti	v0,s4,17
800016f8:	14400322 	bnez	v0,80002384 <_vfprintf_r+0x204c>
800016fc:	24160010 	li	s6,16
80001700:	3c178001 	lui	s7,0x8001
80001704:	26f7a944 	addiu	s7,s7,-22204
80001708:	02e02021 	move	a0,s7
8000170c:	afb004ec 	sw	s0,1260(sp)
80001710:	0280b821 	move	s7,s4
80001714:	8fa204bc 	lw	v0,1212(sp)
80001718:	0260a021 	move	s4,s3
8000171c:	02409821 	move	s3,s2
80001720:	8fbe0560 	lw	s8,1376(sp)
80001724:	02209021 	move	s2,s1
80001728:	8fb00564 	lw	s0,1380(sp)
8000172c:	080005d2 	j	80001748 <_vfprintf_r+0x1410>
80001730:	00808821 	move	s1,a0
80001734:	25290008 	addiu	t1,t1,8
80001738:	26f7fff0 	addiu	s7,s7,-16
8000173c:	2ae40011 	slti	a0,s7,17
80001740:	1480004d 	bnez	a0,80001878 <_vfprintf_r+0x1540>
80001744:	02202021 	move	a0,s1
80001748:	24420001 	addiu	v0,v0,1
8000174c:	24630010 	addiu	v1,v1,16
80001750:	28440008 	slti	a0,v0,8
80001754:	ad310000 	sw	s1,0(t1)
80001758:	ad360004 	sw	s6,4(t1)
8000175c:	afa304c0 	sw	v1,1216(sp)
80001760:	1480fff4 	bnez	a0,80001734 <_vfprintf_r+0x13fc>
80001764:	afa204bc 	sw	v0,1212(sp)
80001768:	03c02021 	move	a0,s8
8000176c:	02002821 	move	a1,s0
80001770:	0c001b6d 	jal	80006db4 <__sprint_r>
80001774:	02a03021 	move	a2,s5
80001778:	1440fd14 	bnez	v0,80000bcc <_vfprintf_r+0x894>
8000177c:	27a90028 	addiu	t1,sp,40
80001780:	8fa304c0 	lw	v1,1216(sp)
80001784:	8fa204bc 	lw	v0,1212(sp)
80001788:	080005cf 	j	8000173c <_vfprintf_r+0x1404>
8000178c:	26f7fff0 	addiu	s7,s7,-16
80001790:	8fa40560 	lw	a0,1376(sp)
80001794:	8fa50564 	lw	a1,1380(sp)
80001798:	0c001b6d 	jal	80006db4 <__sprint_r>
8000179c:	02a03021 	move	a2,s5
800017a0:	1440fd0a 	bnez	v0,80000bcc <_vfprintf_r+0x894>
800017a4:	27a90028 	addiu	t1,sp,40
800017a8:	8fa304c0 	lw	v1,1216(sp)
800017ac:	08000432 	j	800010c8 <_vfprintf_r+0xd90>
800017b0:	00000000 	nop
800017b4:	02d41825 	or	v1,s6,s4
800017b8:	0800016c 	j	800005b0 <_vfprintf_r+0x278>
800017bc:	a3a004e2 	sb	zero,1250(sp)
800017c0:	2511ffff 	addiu	s1,t0,-1
800017c4:	1a20fe83 	blez	s1,800011d4 <_vfprintf_r+0xe9c>
800017c8:	3c178001 	lui	s7,0x8001
800017cc:	2a240011 	slti	a0,s1,17
800017d0:	1480009a 	bnez	a0,80001a3c <_vfprintf_r+0x1704>
800017d4:	26f7a944 	addiu	s7,s7,-22204
800017d8:	8fb40560 	lw	s4,1376(sp)
800017dc:	8fb60564 	lw	s6,1380(sp)
800017e0:	080005ff 	j	800017fc <_vfprintf_r+0x14c4>
800017e4:	24130010 	li	s3,16
800017e8:	25290008 	addiu	t1,t1,8
800017ec:	2631fff0 	addiu	s1,s1,-16
800017f0:	2a240011 	slti	a0,s1,17
800017f4:	14800091 	bnez	a0,80001a3c <_vfprintf_r+0x1704>
800017f8:	00000000 	nop
800017fc:	24420001 	addiu	v0,v0,1
80001800:	24630010 	addiu	v1,v1,16
80001804:	28440008 	slti	a0,v0,8
80001808:	ad370000 	sw	s7,0(t1)
8000180c:	ad330004 	sw	s3,4(t1)
80001810:	afa304c0 	sw	v1,1216(sp)
80001814:	1480fff4 	bnez	a0,800017e8 <_vfprintf_r+0x14b0>
80001818:	afa204bc 	sw	v0,1212(sp)
8000181c:	02802021 	move	a0,s4
80001820:	02c02821 	move	a1,s6
80001824:	0c001b6d 	jal	80006db4 <__sprint_r>
80001828:	02a03021 	move	a2,s5
8000182c:	1440fce7 	bnez	v0,80000bcc <_vfprintf_r+0x894>
80001830:	27a90028 	addiu	t1,sp,40
80001834:	8fa304c0 	lw	v1,1216(sp)
80001838:	8fa204bc 	lw	v0,1212(sp)
8000183c:	080005fc 	j	800017f0 <_vfprintf_r+0x14b8>
80001840:	2631fff0 	addiu	s1,s1,-16
80001844:	3c178001 	lui	s7,0x8001
80001848:	8fa204bc 	lw	v0,1212(sp)
8000184c:	26f7a944 	addiu	s7,s7,-22204
80001850:	24420001 	addiu	v0,v0,1
80001854:	00711821 	addu	v1,v1,s1
80001858:	28440008 	slti	a0,v0,8
8000185c:	ad370000 	sw	s7,0(t1)
80001860:	ad310004 	sw	s1,4(t1)
80001864:	afa304c0 	sw	v1,1216(sp)
80001868:	1480fc14 	bnez	a0,800008bc <_vfprintf_r+0x584>
8000186c:	afa204bc 	sw	v0,1212(sp)
80001870:	0800047f 	j	800011fc <_vfprintf_r+0xec4>
80001874:	00000000 	nop
80001878:	8fb004ec 	lw	s0,1260(sp)
8000187c:	02408821 	move	s1,s2
80001880:	02609021 	move	s2,s3
80001884:	02809821 	move	s3,s4
80001888:	02e0a021 	move	s4,s7
8000188c:	0080b821 	move	s7,a0
80001890:	24420001 	addiu	v0,v0,1
80001894:	00741821 	addu	v1,v1,s4
80001898:	28440008 	slti	a0,v0,8
8000189c:	ad370000 	sw	s7,0(t1)
800018a0:	ad340004 	sw	s4,4(t1)
800018a4:	afa304c0 	sw	v1,1216(sp)
800018a8:	108001e2 	beqz	a0,80002034 <_vfprintf_r+0x1cfc>
800018ac:	afa204bc 	sw	v0,1212(sp)
800018b0:	25290008 	addiu	t1,t1,8
800018b4:	8fa80510 	lw	t0,1296(sp)
800018b8:	8fa404dc 	lw	a0,1244(sp)
800018bc:	02288821 	addu	s1,s1,t0
800018c0:	8fa8050c 	lw	t0,1292(sp)
800018c4:	00000000 	nop
800018c8:	0088102a 	slt	v0,a0,t0
800018cc:	14400003 	bnez	v0,800018dc <_vfprintf_r+0x15a4>
800018d0:	32420001 	andi	v0,s2,0x1
800018d4:	1040000f 	beqz	v0,80001914 <_vfprintf_r+0x15dc>
800018d8:	00000000 	nop
800018dc:	8fa80514 	lw	t0,1300(sp)
800018e0:	8fa204bc 	lw	v0,1212(sp)
800018e4:	00681821 	addu	v1,v1,t0
800018e8:	8fa80508 	lw	t0,1288(sp)
800018ec:	24420001 	addiu	v0,v0,1
800018f0:	ad280000 	sw	t0,0(t1)
800018f4:	8fa80514 	lw	t0,1300(sp)
800018f8:	28450008 	slti	a1,v0,8
800018fc:	ad280004 	sw	t0,4(t1)
80001900:	afa304c0 	sw	v1,1216(sp)
80001904:	10a001a7 	beqz	a1,80001fa4 <_vfprintf_r+0x1c6c>
80001908:	afa204bc 	sw	v0,1212(sp)
8000190c:	25290008 	addiu	t1,t1,8
80001910:	8fa8050c 	lw	t0,1292(sp)
80001914:	02719823 	subu	s3,s3,s1
80001918:	01042023 	subu	a0,t0,a0
8000191c:	0264102a 	slt	v0,s3,a0
80001920:	10400002 	beqz	v0,8000192c <_vfprintf_r+0x15f4>
80001924:	0080a021 	move	s4,a0
80001928:	0260a021 	move	s4,s3
8000192c:	1a80000b 	blez	s4,8000195c <_vfprintf_r+0x1624>
80001930:	00000000 	nop
80001934:	8fa204bc 	lw	v0,1212(sp)
80001938:	00741821 	addu	v1,v1,s4
8000193c:	24420001 	addiu	v0,v0,1
80001940:	28450008 	slti	a1,v0,8
80001944:	ad310000 	sw	s1,0(t1)
80001948:	ad340004 	sw	s4,4(t1)
8000194c:	afa304c0 	sw	v1,1216(sp)
80001950:	10a001a8 	beqz	a1,80001ff4 <_vfprintf_r+0x1cbc>
80001954:	afa204bc 	sw	v0,1212(sp)
80001958:	25290008 	addiu	t1,t1,8
8000195c:	068001be 	bltz	s4,80002058 <_vfprintf_r+0x1d20>
80001960:	00000000 	nop
80001964:	00948823 	subu	s1,a0,s4
80001968:	1a20fbd5 	blez	s1,800008c0 <_vfprintf_r+0x588>
8000196c:	2a220011 	slti	v0,s1,17
80001970:	1440ffb4 	bnez	v0,80001844 <_vfprintf_r+0x150c>
80001974:	3c178001 	lui	s7,0x8001
80001978:	8fa204bc 	lw	v0,1212(sp)
8000197c:	26f7a944 	addiu	s7,s7,-22204
80001980:	8fb40560 	lw	s4,1376(sp)
80001984:	8fb60564 	lw	s6,1380(sp)
80001988:	08000669 	j	800019a4 <_vfprintf_r+0x166c>
8000198c:	24130010 	li	s3,16
80001990:	25290008 	addiu	t1,t1,8
80001994:	2631fff0 	addiu	s1,s1,-16
80001998:	2a240011 	slti	a0,s1,17
8000199c:	1480ffac 	bnez	a0,80001850 <_vfprintf_r+0x1518>
800019a0:	00000000 	nop
800019a4:	24420001 	addiu	v0,v0,1
800019a8:	24630010 	addiu	v1,v1,16
800019ac:	28440008 	slti	a0,v0,8
800019b0:	ad370000 	sw	s7,0(t1)
800019b4:	ad330004 	sw	s3,4(t1)
800019b8:	afa304c0 	sw	v1,1216(sp)
800019bc:	1480fff4 	bnez	a0,80001990 <_vfprintf_r+0x1658>
800019c0:	afa204bc 	sw	v0,1212(sp)
800019c4:	02802021 	move	a0,s4
800019c8:	02c02821 	move	a1,s6
800019cc:	0c001b6d 	jal	80006db4 <__sprint_r>
800019d0:	02a03021 	move	a2,s5
800019d4:	1440fc7d 	bnez	v0,80000bcc <_vfprintf_r+0x894>
800019d8:	27a90028 	addiu	t1,sp,40
800019dc:	8fa304c0 	lw	v1,1216(sp)
800019e0:	8fa204bc 	lw	v0,1212(sp)
800019e4:	08000666 	j	80001998 <_vfprintf_r+0x1660>
800019e8:	2631fff0 	addiu	s1,s1,-16
800019ec:	8fa40560 	lw	a0,1376(sp)
800019f0:	8fa50564 	lw	a1,1380(sp)
800019f4:	0c001b6d 	jal	80006db4 <__sprint_r>
800019f8:	02a03021 	move	a2,s5
800019fc:	1440fc73 	bnez	v0,80000bcc <_vfprintf_r+0x894>
80001a00:	27a90028 	addiu	t1,sp,40
80001a04:	8fa304c0 	lw	v1,1216(sp)
80001a08:	8fa204bc 	lw	v0,1212(sp)
80001a0c:	08000453 	j	8000114c <_vfprintf_r+0xe14>
80001a10:	00000000 	nop
80001a14:	8fa40560 	lw	a0,1376(sp)
80001a18:	8fa50564 	lw	a1,1380(sp)
80001a1c:	0c001b6d 	jal	80006db4 <__sprint_r>
80001a20:	02a03021 	move	a2,s5
80001a24:	1440fc69 	bnez	v0,80000bcc <_vfprintf_r+0x894>
80001a28:	27a90028 	addiu	t1,sp,40
80001a2c:	8fa304c0 	lw	v1,1216(sp)
80001a30:	8fa204bc 	lw	v0,1212(sp)
80001a34:	08000460 	j	80001180 <_vfprintf_r+0xe48>
80001a38:	00000000 	nop
80001a3c:	24420001 	addiu	v0,v0,1
80001a40:	00711821 	addu	v1,v1,s1
80001a44:	28440008 	slti	a0,v0,8
80001a48:	ad370000 	sw	s7,0(t1)
80001a4c:	ad310004 	sw	s1,4(t1)
80001a50:	afa304c0 	sw	v1,1216(sp)
80001a54:	1480fdde 	bnez	a0,800011d0 <_vfprintf_r+0xe98>
80001a58:	afa204bc 	sw	v0,1212(sp)
80001a5c:	08000547 	j	8000151c <_vfprintf_r+0x11e4>
80001a60:	00000000 	nop
80001a64:	8fa40560 	lw	a0,1376(sp)
80001a68:	8fa50564 	lw	a1,1380(sp)
80001a6c:	0c001b6d 	jal	80006db4 <__sprint_r>
80001a70:	02a03021 	move	a2,s5
80001a74:	1440fc55 	bnez	v0,80000bcc <_vfprintf_r+0x894>
80001a78:	27a90028 	addiu	t1,sp,40
80001a7c:	8fa304c0 	lw	v1,1216(sp)
80001a80:	080001e6 	j	80000798 <_vfprintf_r+0x460>
80001a84:	00000000 	nop
80001a88:	c7ac04f4 	lwc1	$f12,1268(sp)
80001a8c:	afa90534 	sw	t1,1332(sp)
80001a90:	c7ad04f0 	lwc1	$f13,1264(sp)
80001a94:	0c001ab6 	jal	80006ad8 <__fpclassifyd>
80001a98:	00000000 	nop
80001a9c:	8fa90534 	lw	t1,1332(sp)
80001aa0:	104000e6 	beqz	v0,80001e3c <_vfprintf_r+0x1b04>
80001aa4:	2a620048 	slti	v0,s3,72
80001aa8:	2402ffff 	li	v0,-1
80001aac:	13c201f6 	beq	s8,v0,80002288 <_vfprintf_r+0x1f50>
80001ab0:	24020067 	li	v0,103
80001ab4:	126201e5 	beq	s3,v0,8000224c <_vfprintf_r+0x1f14>
80001ab8:	24020047 	li	v0,71
80001abc:	126201e3 	beq	s3,v0,8000224c <_vfprintf_r+0x1f14>
80001ac0:	00000000 	nop
80001ac4:	8fa204f0 	lw	v0,1264(sp)
80001ac8:	00000000 	nop
80001acc:	044001f0 	bltz	v0,80002290 <_vfprintf_r+0x1f58>
80001ad0:	36570100 	ori	s7,s2,0x100
80001ad4:	0000b021 	move	s6,zero
80001ad8:	24020066 	li	v0,102
80001adc:	126201b1 	beq	s3,v0,800021a4 <_vfprintf_r+0x1e6c>
80001ae0:	24020046 	li	v0,70
80001ae4:	126201af 	beq	s3,v0,800021a4 <_vfprintf_r+0x1e6c>
80001ae8:	24020065 	li	v0,101
80001aec:	126201f0 	beq	s3,v0,800022b0 <_vfprintf_r+0x1f78>
80001af0:	24020045 	li	v0,69
80001af4:	12620002 	beq	s3,v0,80001b00 <_vfprintf_r+0x17c8>
80001af8:	27d40001 	addiu	s4,s8,1
80001afc:	03c0a021 	move	s4,s8
80001b00:	24020002 	li	v0,2
80001b04:	afa20010 	sw	v0,16(sp)
80001b08:	27a204dc 	addiu	v0,sp,1244
80001b0c:	afa20018 	sw	v0,24(sp)
80001b10:	27a204d8 	addiu	v0,sp,1240
80001b14:	afa2001c 	sw	v0,28(sp)
80001b18:	8fa704f4 	lw	a3,1268(sp)
80001b1c:	27a204d4 	addiu	v0,sp,1236
80001b20:	8fa604f0 	lw	a2,1264(sp)
80001b24:	8fa40560 	lw	a0,1376(sp)
80001b28:	afb40014 	sw	s4,20(sp)
80001b2c:	afa20020 	sw	v0,32(sp)
80001b30:	0c000aa0 	jal	80002a80 <_dtoa_r>
80001b34:	afa90534 	sw	t1,1332(sp)
80001b38:	00408821 	move	s1,v0
80001b3c:	24020067 	li	v0,103
80001b40:	8fa90534 	lw	t1,1332(sp)
80001b44:	12620003 	beq	s3,v0,80001b54 <_vfprintf_r+0x181c>
80001b48:	24020047 	li	v0,71
80001b4c:	16620004 	bne	s3,v0,80001b60 <_vfprintf_r+0x1828>
80001b50:	24020046 	li	v0,70
80001b54:	32420001 	andi	v0,s2,0x1
80001b58:	104001e2 	beqz	v0,800022e4 <_vfprintf_r+0x1fac>
80001b5c:	24020046 	li	v0,70
80001b60:	126201a2 	beq	s3,v0,800021ec <_vfprintf_r+0x1eb4>
80001b64:	02341821 	addu	v1,s1,s4
80001b68:	44800000 	mtc1	zero,$f0
80001b6c:	c7a204f4 	lwc1	$f2,1268(sp)
80001b70:	44800800 	mtc1	zero,$f1
80001b74:	c7a304f0 	lwc1	$f3,1264(sp)
80001b78:	00000000 	nop
80001b7c:	46201032 	c.eq.d	$f2,$f0
80001b80:	00000000 	nop
80001b84:	4501000b 	bc1t	80001bb4 <_vfprintf_r+0x187c>
80001b88:	00000000 	nop
80001b8c:	8fa204d4 	lw	v0,1236(sp)
80001b90:	00000000 	nop
80001b94:	0043202b 	sltu	a0,v0,v1
80001b98:	10800222 	beqz	a0,80002424 <_vfprintf_r+0x20ec>
80001b9c:	00000000 	nop
80001ba0:	24040030 	li	a0,48
80001ba4:	a0440000 	sb	a0,0(v0)
80001ba8:	24420001 	addiu	v0,v0,1
80001bac:	1443fffd 	bne	v0,v1,80001ba4 <_vfprintf_r+0x186c>
80001bb0:	afa204d4 	sw	v0,1236(sp)
80001bb4:	00711823 	subu	v1,v1,s1
80001bb8:	24020067 	li	v0,103
80001bbc:	1262013b 	beq	s3,v0,800020ac <_vfprintf_r+0x1d74>
80001bc0:	afa3050c 	sw	v1,1292(sp)
80001bc4:	24020047 	li	v0,71
80001bc8:	12620138 	beq	s3,v0,800020ac <_vfprintf_r+0x1d74>
80001bcc:	24020066 	li	v0,102
80001bd0:	16620216 	bne	s3,v0,8000242c <_vfprintf_r+0x20f4>
80001bd4:	00000000 	nop
80001bd8:	8fa204dc 	lw	v0,1244(sp)
80001bdc:	00000000 	nop
80001be0:	184001f4 	blez	v0,800023b4 <_vfprintf_r+0x207c>
80001be4:	00000000 	nop
80001be8:	17c001ea 	bnez	s8,80002394 <_vfprintf_r+0x205c>
80001bec:	27d40001 	addiu	s4,s8,1
80001bf0:	32520001 	andi	s2,s2,0x1
80001bf4:	164001e8 	bnez	s2,80002398 <_vfprintf_r+0x2060>
80001bf8:	0054a021 	addu	s4,v0,s4
80001bfc:	afa204f0 	sw	v0,1264(sp)
80001c00:	0040a021 	move	s4,v0
80001c04:	afa20510 	sw	v0,1296(sp)
80001c08:	12c0015f 	beqz	s6,80002188 <_vfprintf_r+0x1e50>
80001c0c:	00000000 	nop
80001c10:	2402002d 	li	v0,45
80001c14:	a3a204e2 	sb	v0,1250(sp)
80001c18:	02e09021 	move	s2,s7
80001c1c:	08000185 	j	80000614 <_vfprintf_r+0x2dc>
80001c20:	afa00500 	sw	zero,1280(sp)
80001c24:	8fa8056c 	lw	t0,1388(sp)
80001c28:	10400091 	beqz	v0,80001e70 <_vfprintf_r+0x1b38>
80001c2c:	00000000 	nop
80001c30:	95140002 	lhu	s4,2(t0)
80001c34:	25080004 	addiu	t0,t0,4
80001c38:	0000b021 	move	s6,zero
80001c3c:	0800036a 	j	80000da8 <_vfprintf_r+0xa70>
80001c40:	afa8056c 	sw	t0,1388(sp)
80001c44:	8fa8056c 	lw	t0,1388(sp)
80001c48:	1040fb86 	beqz	v0,80000a64 <_vfprintf_r+0x72c>
80001c4c:	00000000 	nop
80001c50:	85140002 	lh	s4,2(t0)
80001c54:	25080004 	addiu	t0,t0,4
80001c58:	0014b7c3 	sra	s6,s4,0x1f
80001c5c:	afa8056c 	sw	t0,1388(sp)
80001c60:	0800029e 	j	80000a78 <_vfprintf_r+0x740>
80001c64:	02c01021 	move	v0,s6
80001c68:	32420040 	andi	v0,s2,0x40
80001c6c:	8fa8056c 	lw	t0,1388(sp)
80001c70:	1040fb6b 	beqz	v0,80000a20 <_vfprintf_r+0x6e8>
80001c74:	00000000 	nop
80001c78:	95140002 	lhu	s4,2(t0)
80001c7c:	0800028a 	j	80000a28 <_vfprintf_r+0x6f0>
80001c80:	25080004 	addiu	t0,t0,4
80001c84:	0800016c 	j	800005b0 <_vfprintf_r+0x278>
80001c88:	a3a004e2 	sb	zero,1250(sp)
80001c8c:	1440000b 	bnez	v0,80001cbc <_vfprintf_r+0x1984>
80001c90:	32520040 	andi	s2,s2,0x40
80001c94:	12400009 	beqz	s2,80001cbc <_vfprintf_r+0x1984>
80001c98:	00000000 	nop
80001c9c:	8fa8056c 	lw	t0,1388(sp)
80001ca0:	00000000 	nop
80001ca4:	8d020000 	lw	v0,0(t0)
80001ca8:	25080004 	addiu	t0,t0,4
80001cac:	afa8056c 	sw	t0,1388(sp)
80001cb0:	8fa804f8 	lw	t0,1272(sp)
80001cb4:	08000119 	j	80000464 <_vfprintf_r+0x12c>
80001cb8:	a4480000 	sh	t0,0(v0)
80001cbc:	8fa8056c 	lw	t0,1388(sp)
80001cc0:	00000000 	nop
80001cc4:	8d020000 	lw	v0,0(t0)
80001cc8:	25080004 	addiu	t0,t0,4
80001ccc:	afa8056c 	sw	t0,1388(sp)
80001cd0:	8fa804f8 	lw	t0,1272(sp)
80001cd4:	08000119 	j	80000464 <_vfprintf_r+0x12c>
80001cd8:	ac480000 	sw	t0,0(v0)
80001cdc:	82130000 	lb	s3,0(s0)
80001ce0:	08000147 	j	8000051c <_vfprintf_r+0x1e4>
80001ce4:	26100001 	addiu	s0,s0,1
80001ce8:	8fa8056c 	lw	t0,1388(sp)
80001cec:	1040fa29 	beqz	v0,80000594 <_vfprintf_r+0x25c>
80001cf0:	00000000 	nop
80001cf4:	95140002 	lhu	s4,2(t0)
80001cf8:	08000167 	j	8000059c <_vfprintf_r+0x264>
80001cfc:	25080004 	addiu	t0,t0,4
80001d00:	3c178001 	lui	s7,0x8001
80001d04:	8fa204bc 	lw	v0,1212(sp)
80001d08:	0800021a 	j	80000868 <_vfprintf_r+0x530>
80001d0c:	26f7a944 	addiu	s7,s7,-22204
80001d10:	8fa40560 	lw	a0,1376(sp)
80001d14:	8fa50564 	lw	a1,1380(sp)
80001d18:	0c001b6d 	jal	80006db4 <__sprint_r>
80001d1c:	02a03021 	move	a2,s5
80001d20:	1440fbaa 	bnez	v0,80000bcc <_vfprintf_r+0x894>
80001d24:	27a90028 	addiu	t1,sp,40
80001d28:	8fa304c0 	lw	v1,1216(sp)
80001d2c:	080004c4 	j	80001310 <_vfprintf_r+0xfd8>
80001d30:	00000000 	nop
80001d34:	8fa204bc 	lw	v0,1212(sp)
80001d38:	00000000 	nop
80001d3c:	24420001 	addiu	v0,v0,1
80001d40:	ad250000 	sw	a1,0(t1)
80001d44:	24630001 	addiu	v1,v1,1
80001d48:	24050001 	li	a1,1
80001d4c:	28440008 	slti	a0,v0,8
80001d50:	ad250004 	sw	a1,4(t1)
80001d54:	afa304c0 	sw	v1,1216(sp)
80001d58:	10800050 	beqz	a0,80001e9c <_vfprintf_r+0x1b64>
80001d5c:	afa204bc 	sw	v0,1212(sp)
80001d60:	25290008 	addiu	t1,t1,8
80001d64:	16600007 	bnez	s3,80001d84 <_vfprintf_r+0x1a4c>
80001d68:	00000000 	nop
80001d6c:	8fa8050c 	lw	t0,1292(sp)
80001d70:	00000000 	nop
80001d74:	15000003 	bnez	t0,80001d84 <_vfprintf_r+0x1a4c>
80001d78:	32420001 	andi	v0,s2,0x1
80001d7c:	1040fad0 	beqz	v0,800008c0 <_vfprintf_r+0x588>
80001d80:	00000000 	nop
80001d84:	8fa80514 	lw	t0,1300(sp)
80001d88:	8fa204bc 	lw	v0,1212(sp)
80001d8c:	00681821 	addu	v1,v1,t0
80001d90:	8fa80508 	lw	t0,1288(sp)
80001d94:	24420001 	addiu	v0,v0,1
80001d98:	ad280000 	sw	t0,0(t1)
80001d9c:	8fa80514 	lw	t0,1300(sp)
80001da0:	28440008 	slti	a0,v0,8
80001da4:	ad280004 	sw	t0,4(t1)
80001da8:	afa304c0 	sw	v1,1216(sp)
80001dac:	1080012b 	beqz	a0,8000225c <_vfprintf_r+0x1f24>
80001db0:	afa204bc 	sw	v0,1212(sp)
80001db4:	25290008 	addiu	t1,t1,8
80001db8:	00139823 	negu	s3,s3
80001dbc:	1a60005e 	blez	s3,80001f38 <_vfprintf_r+0x1c00>
80001dc0:	3c178001 	lui	s7,0x8001
80001dc4:	2a640011 	slti	a0,s3,17
80001dc8:	14800080 	bnez	a0,80001fcc <_vfprintf_r+0x1c94>
80001dcc:	26f7a944 	addiu	s7,s7,-22204
80001dd0:	8fb60560 	lw	s6,1376(sp)
80001dd4:	8fbe0564 	lw	s8,1380(sp)
80001dd8:	0800077d 	j	80001df4 <_vfprintf_r+0x1abc>
80001ddc:	24140010 	li	s4,16
80001de0:	25290008 	addiu	t1,t1,8
80001de4:	2673fff0 	addiu	s3,s3,-16
80001de8:	2a640011 	slti	a0,s3,17
80001dec:	14800077 	bnez	a0,80001fcc <_vfprintf_r+0x1c94>
80001df0:	00000000 	nop
80001df4:	24420001 	addiu	v0,v0,1
80001df8:	24630010 	addiu	v1,v1,16
80001dfc:	28440008 	slti	a0,v0,8
80001e00:	ad370000 	sw	s7,0(t1)
80001e04:	ad340004 	sw	s4,4(t1)
80001e08:	afa304c0 	sw	v1,1216(sp)
80001e0c:	1480fff4 	bnez	a0,80001de0 <_vfprintf_r+0x1aa8>
80001e10:	afa204bc 	sw	v0,1212(sp)
80001e14:	02c02021 	move	a0,s6
80001e18:	03c02821 	move	a1,s8
80001e1c:	0c001b6d 	jal	80006db4 <__sprint_r>
80001e20:	02a03021 	move	a2,s5
80001e24:	1440fb69 	bnez	v0,80000bcc <_vfprintf_r+0x894>
80001e28:	27a90028 	addiu	t1,sp,40
80001e2c:	8fa304c0 	lw	v1,1216(sp)
80001e30:	8fa204bc 	lw	v0,1212(sp)
80001e34:	0800077a 	j	80001de8 <_vfprintf_r+0x1ab0>
80001e38:	2673fff0 	addiu	s3,s3,-16
80001e3c:	104000d6 	beqz	v0,80002198 <_vfprintf_r+0x1e60>
80001e40:	00000000 	nop
80001e44:	3c118001 	lui	s1,0x8001
80001e48:	2631a794 	addiu	s1,s1,-22636
80001e4c:	2402ff7f 	li	v0,-129
80001e50:	24080003 	li	t0,3
80001e54:	02429024 	and	s2,s2,v0
80001e58:	afa804f0 	sw	t0,1264(sp)
80001e5c:	83a204e2 	lb	v0,1250(sp)
80001e60:	24140003 	li	s4,3
80001e64:	afa00500 	sw	zero,1280(sp)
80001e68:	08000183 	j	8000060c <_vfprintf_r+0x2d4>
80001e6c:	afa00510 	sw	zero,1296(sp)
80001e70:	8d140000 	lw	s4,0(t0)
80001e74:	25080004 	addiu	t0,t0,4
80001e78:	0000b021 	move	s6,zero
80001e7c:	0800036a 	j	80000da8 <_vfprintf_r+0xa70>
80001e80:	afa8056c 	sw	t0,1388(sp)
80001e84:	3c118001 	lui	s1,0x8001
80001e88:	080003de 	j	80000f78 <_vfprintf_r+0xc40>
80001e8c:	2631a78c 	addiu	s1,s1,-22644
80001e90:	241effff 	li	s8,-1
80001e94:	08000147 	j	8000051c <_vfprintf_r+0x1e4>
80001e98:	00608021 	move	s0,v1
80001e9c:	8fa40560 	lw	a0,1376(sp)
80001ea0:	8fa50564 	lw	a1,1380(sp)
80001ea4:	0c001b6d 	jal	80006db4 <__sprint_r>
80001ea8:	02a03021 	move	a2,s5
80001eac:	1440fb47 	bnez	v0,80000bcc <_vfprintf_r+0x894>
80001eb0:	27a90028 	addiu	t1,sp,40
80001eb4:	8fb304dc 	lw	s3,1244(sp)
80001eb8:	8fa304c0 	lw	v1,1216(sp)
80001ebc:	08000759 	j	80001d64 <_vfprintf_r+0x1a2c>
80001ec0:	00000000 	nop
80001ec4:	26100001 	addiu	s0,s0,1
80001ec8:	80530001 	lb	s3,1(v0)
80001ecc:	08000146 	j	80000518 <_vfprintf_r+0x1e0>
80001ed0:	36520020 	ori	s2,s2,0x20
80001ed4:	8fa40560 	lw	a0,1376(sp)
80001ed8:	8fa50564 	lw	a1,1380(sp)
80001edc:	0c001b6d 	jal	80006db4 <__sprint_r>
80001ee0:	02a03021 	move	a2,s5
80001ee4:	1440fb39 	bnez	v0,80000bcc <_vfprintf_r+0x894>
80001ee8:	27a90028 	addiu	t1,sp,40
80001eec:	8fa304c0 	lw	v1,1216(sp)
80001ef0:	080004d9 	j	80001364 <_vfprintf_r+0x102c>
80001ef4:	00000000 	nop
80001ef8:	0c001b66 	jal	80006d98 <strlen>
80001efc:	afa90534 	sw	t1,1332(sp)
80001f00:	afa204f0 	sw	v0,1264(sp)
80001f04:	8fa90534 	lw	t1,1332(sp)
80001f08:	0441fc4d 	bgez	v0,80001040 <_vfprintf_r+0xd08>
80001f0c:	0040a021 	move	s4,v0
80001f10:	08000410 	j	80001040 <_vfprintf_r+0xd08>
80001f14:	afa004f0 	sw	zero,1264(sp)
80001f18:	8fa40560 	lw	a0,1376(sp)
80001f1c:	8fa50564 	lw	a1,1380(sp)
80001f20:	0c001b6d 	jal	80006db4 <__sprint_r>
80001f24:	02a03021 	move	a2,s5
80001f28:	1440fb28 	bnez	v0,80000bcc <_vfprintf_r+0x894>
80001f2c:	27a90028 	addiu	t1,sp,40
80001f30:	8fa304c0 	lw	v1,1216(sp)
80001f34:	8fa204bc 	lw	v0,1212(sp)
80001f38:	8fa8050c 	lw	t0,1292(sp)
80001f3c:	24420001 	addiu	v0,v0,1
80001f40:	00681821 	addu	v1,v1,t0
80001f44:	28440008 	slti	a0,v0,8
80001f48:	ad310000 	sw	s1,0(t1)
80001f4c:	ad280004 	sw	t0,4(t1)
80001f50:	afa304c0 	sw	v1,1216(sp)
80001f54:	1480fa59 	bnez	a0,800008bc <_vfprintf_r+0x584>
80001f58:	afa204bc 	sw	v0,1212(sp)
80001f5c:	0800047f 	j	800011fc <_vfprintf_r+0xec4>
80001f60:	00000000 	nop
80001f64:	3c048001 	lui	a0,0x8001
80001f68:	2484a934 	addiu	a0,a0,-22220
80001f6c:	8fa204bc 	lw	v0,1212(sp)
80001f70:	080001c7 	j	8000071c <_vfprintf_r+0x3e4>
80001f74:	afa40504 	sw	a0,1284(sp)
80001f78:	080005b9 	j	800016e4 <_vfprintf_r+0x13ac>
80001f7c:	0000a021 	move	s4,zero
80001f80:	8fa40560 	lw	a0,1376(sp)
80001f84:	8fa50564 	lw	a1,1380(sp)
80001f88:	0c001b6d 	jal	80006db4 <__sprint_r>
80001f8c:	02a03021 	move	a2,s5
80001f90:	1440fb0e 	bnez	v0,80000bcc <_vfprintf_r+0x894>
80001f94:	27a90028 	addiu	t1,sp,40
80001f98:	8fa304c0 	lw	v1,1216(sp)
80001f9c:	080005b7 	j	800016dc <_vfprintf_r+0x13a4>
80001fa0:	00000000 	nop
80001fa4:	8fa40560 	lw	a0,1376(sp)
80001fa8:	8fa50564 	lw	a1,1380(sp)
80001fac:	0c001b6d 	jal	80006db4 <__sprint_r>
80001fb0:	02a03021 	move	a2,s5
80001fb4:	1440fb05 	bnez	v0,80000bcc <_vfprintf_r+0x894>
80001fb8:	27a90028 	addiu	t1,sp,40
80001fbc:	8fa404dc 	lw	a0,1244(sp)
80001fc0:	8fa304c0 	lw	v1,1216(sp)
80001fc4:	08000644 	j	80001910 <_vfprintf_r+0x15d8>
80001fc8:	00000000 	nop
80001fcc:	24420001 	addiu	v0,v0,1
80001fd0:	00731821 	addu	v1,v1,s3
80001fd4:	28440008 	slti	a0,v0,8
80001fd8:	ad370000 	sw	s7,0(t1)
80001fdc:	ad330004 	sw	s3,4(t1)
80001fe0:	afa304c0 	sw	v1,1216(sp)
80001fe4:	1080ffcc 	beqz	a0,80001f18 <_vfprintf_r+0x1be0>
80001fe8:	afa204bc 	sw	v0,1212(sp)
80001fec:	080007ce 	j	80001f38 <_vfprintf_r+0x1c00>
80001ff0:	25290008 	addiu	t1,t1,8
80001ff4:	8fa40560 	lw	a0,1376(sp)
80001ff8:	8fa50564 	lw	a1,1380(sp)
80001ffc:	0c001b6d 	jal	80006db4 <__sprint_r>
80002000:	02a03021 	move	a2,s5
80002004:	1440faf1 	bnez	v0,80000bcc <_vfprintf_r+0x894>
80002008:	27a90028 	addiu	t1,sp,40
8000200c:	8fa404dc 	lw	a0,1244(sp)
80002010:	8fa8050c 	lw	t0,1292(sp)
80002014:	8fa304c0 	lw	v1,1216(sp)
80002018:	08000657 	j	8000195c <_vfprintf_r+0x1624>
8000201c:	01042023 	subu	a0,t0,a0
80002020:	3c048001 	lui	a0,0x8001
80002024:	2484a934 	addiu	a0,a0,-22220
80002028:	8fa204bc 	lw	v0,1212(sp)
8000202c:	0800025b 	j	8000096c <_vfprintf_r+0x634>
80002030:	afa40504 	sw	a0,1284(sp)
80002034:	8fa40560 	lw	a0,1376(sp)
80002038:	8fa50564 	lw	a1,1380(sp)
8000203c:	0c001b6d 	jal	80006db4 <__sprint_r>
80002040:	02a03021 	move	a2,s5
80002044:	1440fae1 	bnez	v0,80000bcc <_vfprintf_r+0x894>
80002048:	27a90028 	addiu	t1,sp,40
8000204c:	8fa304c0 	lw	v1,1216(sp)
80002050:	0800062d 	j	800018b4 <_vfprintf_r+0x157c>
80002054:	00000000 	nop
80002058:	08000659 	j	80001964 <_vfprintf_r+0x162c>
8000205c:	0000a021 	move	s4,zero
80002060:	2fc20007 	sltiu	v0,s8,7
80002064:	1440000a 	bnez	v0,80002090 <_vfprintf_r+0x1d58>
80002068:	03c0a021 	move	s4,s8
8000206c:	24030006 	li	v1,6
80002070:	24140006 	li	s4,6
80002074:	afa304f0 	sw	v1,1264(sp)
80002078:	3c118001 	lui	s1,0x8001
8000207c:	afb6056c 	sw	s6,1388(sp)
80002080:	2631a7c4 	addiu	s1,s1,-22588
80002084:	afa00500 	sw	zero,1280(sp)
80002088:	08000189 	j	80000624 <_vfprintf_r+0x2ec>
8000208c:	afa00510 	sw	zero,1296(sp)
80002090:	07c1fff9 	bgez	s8,80002078 <_vfprintf_r+0x1d40>
80002094:	afbe04f0 	sw	s8,1264(sp)
80002098:	0800081e 	j	80002078 <_vfprintf_r+0x1d40>
8000209c:	afa004f0 	sw	zero,1264(sp)
800020a0:	a3a204e2 	sb	v0,1250(sp)
800020a4:	080003d9 	j	80000f64 <_vfprintf_r+0xc2c>
800020a8:	2402002d 	li	v0,45
800020ac:	8fa204dc 	lw	v0,1244(sp)
800020b0:	00000000 	nop
800020b4:	2843fffd 	slti	v1,v0,-3
800020b8:	14600004 	bnez	v1,800020cc <_vfprintf_r+0x1d94>
800020bc:	0040a021 	move	s4,v0
800020c0:	03c2f02a 	slt	s8,s8,v0
800020c4:	13c0001c 	beqz	s8,80002138 <_vfprintf_r+0x1e00>
800020c8:	00000000 	nop
800020cc:	2673fffe 	addiu	s3,s3,-2
800020d0:	2682ffff 	addiu	v0,s4,-1
800020d4:	afa204dc 	sw	v0,1244(sp)
800020d8:	044000c5 	bltz	v0,800023f0 <_vfprintf_r+0x20b8>
800020dc:	a3b304cc 	sb	s3,1228(sp)
800020e0:	2403002b 	li	v1,43
800020e4:	a3a304cd 	sb	v1,1229(sp)
800020e8:	2843000a 	slti	v1,v0,10
800020ec:	10600080 	beqz	v1,800022f0 <_vfprintf_r+0x1fb8>
800020f0:	27a604cb 	addiu	a2,sp,1227
800020f4:	24420030 	addiu	v0,v0,48
800020f8:	24030030 	li	v1,48
800020fc:	a3a204cf 	sb	v0,1231(sp)
80002100:	a3a304ce 	sb	v1,1230(sp)
80002104:	27a204d0 	addiu	v0,sp,1232
80002108:	27a404cc 	addiu	a0,sp,1228
8000210c:	8fa8050c 	lw	t0,1292(sp)
80002110:	00442023 	subu	a0,v0,a0
80002114:	29020002 	slti	v0,t0,2
80002118:	afa40520 	sw	a0,1312(sp)
8000211c:	14400015 	bnez	v0,80002174 <_vfprintf_r+0x1e3c>
80002120:	0104a021 	addu	s4,t0,a0
80002124:	26940001 	addiu	s4,s4,1
80002128:	0680000f 	bltz	s4,80002168 <_vfprintf_r+0x1e30>
8000212c:	afb404f0 	sw	s4,1264(sp)
80002130:	08000702 	j	80001c08 <_vfprintf_r+0x18d0>
80002134:	afa00510 	sw	zero,1296(sp)
80002138:	8fa8050c 	lw	t0,1292(sp)
8000213c:	00000000 	nop
80002140:	0048182a 	slt	v1,v0,t0
80002144:	1460005c 	bnez	v1,800022b8 <_vfprintf_r+0x1f80>
80002148:	32520001 	andi	s2,s2,0x1
8000214c:	16400088 	bnez	s2,80002370 <_vfprintf_r+0x2038>
80002150:	00000000 	nop
80002154:	04400060 	bltz	v0,800022d8 <_vfprintf_r+0x1fa0>
80002158:	afa204f0 	sw	v0,1264(sp)
8000215c:	24130067 	li	s3,103
80002160:	08000702 	j	80001c08 <_vfprintf_r+0x18d0>
80002164:	afa20510 	sw	v0,1296(sp)
80002168:	afa004f0 	sw	zero,1264(sp)
8000216c:	08000702 	j	80001c08 <_vfprintf_r+0x18d0>
80002170:	afa00510 	sw	zero,1296(sp)
80002174:	32520001 	andi	s2,s2,0x1
80002178:	1640ffea 	bnez	s2,80002124 <_vfprintf_r+0x1dec>
8000217c:	00000000 	nop
80002180:	0800084a 	j	80002128 <_vfprintf_r+0x1df0>
80002184:	00000000 	nop
80002188:	83a204e2 	lb	v0,1250(sp)
8000218c:	02e09021 	move	s2,s7
80002190:	08000183 	j	8000060c <_vfprintf_r+0x2d4>
80002194:	afa00500 	sw	zero,1280(sp)
80002198:	3c118001 	lui	s1,0x8001
8000219c:	08000793 	j	80001e4c <_vfprintf_r+0x1b14>
800021a0:	2631a798 	addiu	s1,s1,-22632
800021a4:	24020003 	li	v0,3
800021a8:	afa20010 	sw	v0,16(sp)
800021ac:	27a204dc 	addiu	v0,sp,1244
800021b0:	afa20018 	sw	v0,24(sp)
800021b4:	27a204d8 	addiu	v0,sp,1240
800021b8:	afa2001c 	sw	v0,28(sp)
800021bc:	8fa704f4 	lw	a3,1268(sp)
800021c0:	27a204d4 	addiu	v0,sp,1236
800021c4:	8fa604f0 	lw	a2,1264(sp)
800021c8:	8fa40560 	lw	a0,1376(sp)
800021cc:	afbe0014 	sw	s8,20(sp)
800021d0:	afa20020 	sw	v0,32(sp)
800021d4:	0c000aa0 	jal	80002a80 <_dtoa_r>
800021d8:	afa90534 	sw	t1,1332(sp)
800021dc:	8fa90534 	lw	t1,1332(sp)
800021e0:	00408821 	move	s1,v0
800021e4:	005e1821 	addu	v1,v0,s8
800021e8:	03c0a021 	move	s4,s8
800021ec:	82240000 	lb	a0,0(s1)
800021f0:	24020030 	li	v0,48
800021f4:	10820004 	beq	a0,v0,80002208 <_vfprintf_r+0x1ed0>
800021f8:	00000000 	nop
800021fc:	8fb404dc 	lw	s4,1244(sp)
80002200:	080006da 	j	80001b68 <_vfprintf_r+0x1830>
80002204:	00741821 	addu	v1,v1,s4
80002208:	44800000 	mtc1	zero,$f0
8000220c:	c7a204f4 	lwc1	$f2,1268(sp)
80002210:	44800800 	mtc1	zero,$f1
80002214:	c7a304f0 	lwc1	$f3,1264(sp)
80002218:	00000000 	nop
8000221c:	46201032 	c.eq.d	$f2,$f0
80002220:	00000000 	nop
80002224:	4501fff5 	bc1t	800021fc <_vfprintf_r+0x1ec4>
80002228:	24020001 	li	v0,1
8000222c:	0054a023 	subu	s4,v0,s4
80002230:	afb404dc 	sw	s4,1244(sp)
80002234:	080006da 	j	80001b68 <_vfprintf_r+0x1830>
80002238:	00741821 	addu	v1,v1,s4
8000223c:	3c178001 	lui	s7,0x8001
80002240:	8fa204bc 	lw	v0,1212(sp)
80002244:	08000532 	j	800014c8 <_vfprintf_r+0x1190>
80002248:	26f7a944 	addiu	s7,s7,-22204
8000224c:	17c0fe1d 	bnez	s8,80001ac4 <_vfprintf_r+0x178c>
80002250:	00000000 	nop
80002254:	080006b1 	j	80001ac4 <_vfprintf_r+0x178c>
80002258:	241e0001 	li	s8,1
8000225c:	8fa40560 	lw	a0,1376(sp)
80002260:	8fa50564 	lw	a1,1380(sp)
80002264:	0c001b6d 	jal	80006db4 <__sprint_r>
80002268:	02a03021 	move	a2,s5
8000226c:	1440fa57 	bnez	v0,80000bcc <_vfprintf_r+0x894>
80002270:	27a90028 	addiu	t1,sp,40
80002274:	8fb304dc 	lw	s3,1244(sp)
80002278:	8fa304c0 	lw	v1,1216(sp)
8000227c:	8fa204bc 	lw	v0,1212(sp)
80002280:	0800076f 	j	80001dbc <_vfprintf_r+0x1a84>
80002284:	00139823 	negu	s3,s3
80002288:	080006b1 	j	80001ac4 <_vfprintf_r+0x178c>
8000228c:	241e0006 	li	s8,6
80002290:	8fa604f0 	lw	a2,1264(sp)
80002294:	8fa404f4 	lw	a0,1268(sp)
80002298:	3c058000 	lui	a1,0x8000
8000229c:	00a61026 	xor	v0,a1,a2
800022a0:	afa404f4 	sw	a0,1268(sp)
800022a4:	afa204f0 	sw	v0,1264(sp)
800022a8:	080006b6 	j	80001ad8 <_vfprintf_r+0x17a0>
800022ac:	2416002d 	li	s6,45
800022b0:	080006c0 	j	80001b00 <_vfprintf_r+0x17c8>
800022b4:	27d40001 	addiu	s4,s8,1
800022b8:	1840003c 	blez	v0,800023ac <_vfprintf_r+0x2074>
800022bc:	24140002 	li	s4,2
800022c0:	24140001 	li	s4,1
800022c4:	8fa8050c 	lw	t0,1292(sp)
800022c8:	00000000 	nop
800022cc:	0288a021 	addu	s4,s4,t0
800022d0:	0681ffa2 	bgez	s4,8000215c <_vfprintf_r+0x1e24>
800022d4:	afb404f0 	sw	s4,1264(sp)
800022d8:	afa004f0 	sw	zero,1264(sp)
800022dc:	08000858 	j	80002160 <_vfprintf_r+0x1e28>
800022e0:	24130067 	li	s3,103
800022e4:	8fa304d4 	lw	v1,1236(sp)
800022e8:	080006ee 	j	80001bb8 <_vfprintf_r+0x1880>
800022ec:	00711823 	subu	v1,v1,s1
800022f0:	00c02821 	move	a1,a2
800022f4:	2403000a 	li	v1,10
800022f8:	14600002 	bnez	v1,80002304 <_vfprintf_r+0x1fcc>
800022fc:	0043001a 	div	zero,v0,v1
80002300:	0007000d 	break	0x7
80002304:	24a5ffff 	addiu	a1,a1,-1
80002308:	00003810 	mfhi	a3
8000230c:	24e70030 	addiu	a3,a3,48
80002310:	00002012 	mflo	a0
80002314:	2884000a 	slti	a0,a0,10
80002318:	00001012 	mflo	v0
8000231c:	1080fff6 	beqz	a0,800022f8 <_vfprintf_r+0x1fc0>
80002320:	a0a70000 	sb	a3,0(a1)
80002324:	24420030 	addiu	v0,v0,48
80002328:	00022600 	sll	a0,v0,0x18
8000232c:	24a3ffff 	addiu	v1,a1,-1
80002330:	00042603 	sra	a0,a0,0x18
80002334:	0066102b 	sltu	v0,v1,a2
80002338:	1040003f 	beqz	v0,80002438 <_vfprintf_r+0x2100>
8000233c:	a0a4ffff 	sb	a0,-1(a1)
80002340:	080008d3 	j	8000234c <_vfprintf_r+0x2014>
80002344:	27a204ce 	addiu	v0,sp,1230
80002348:	80640000 	lb	a0,0(v1)
8000234c:	24630001 	addiu	v1,v1,1
80002350:	a0440000 	sb	a0,0(v0)
80002354:	1466fffc 	bne	v1,a2,80002348 <_vfprintf_r+0x2010>
80002358:	24420001 	addiu	v0,v0,1
8000235c:	27a404cc 	addiu	a0,sp,1228
80002360:	00851023 	subu	v0,a0,a1
80002364:	27a504ce 	addiu	a1,sp,1230
80002368:	08000843 	j	8000210c <_vfprintf_r+0x1dd4>
8000236c:	00a21021 	addu	v0,a1,v0
80002370:	24540001 	addiu	s4,v0,1
80002374:	0680ffd8 	bltz	s4,800022d8 <_vfprintf_r+0x1fa0>
80002378:	afb404f0 	sw	s4,1264(sp)
8000237c:	08000858 	j	80002160 <_vfprintf_r+0x1e28>
80002380:	24130067 	li	s3,103
80002384:	3c178001 	lui	s7,0x8001
80002388:	8fa204bc 	lw	v0,1212(sp)
8000238c:	08000624 	j	80001890 <_vfprintf_r+0x1558>
80002390:	26f7a944 	addiu	s7,s7,-22204
80002394:	0054a021 	addu	s4,v0,s4
80002398:	0681fe1a 	bgez	s4,80001c04 <_vfprintf_r+0x18cc>
8000239c:	afb404f0 	sw	s4,1264(sp)
800023a0:	afa004f0 	sw	zero,1264(sp)
800023a4:	08000702 	j	80001c08 <_vfprintf_r+0x18d0>
800023a8:	afa20510 	sw	v0,1296(sp)
800023ac:	080008b1 	j	800022c4 <_vfprintf_r+0x1f8c>
800023b0:	0282a023 	subu	s4,s4,v0
800023b4:	17c0000a 	bnez	s8,800023e0 <_vfprintf_r+0x20a8>
800023b8:	27d40002 	addiu	s4,s8,2
800023bc:	32520001 	andi	s2,s2,0x1
800023c0:	16400007 	bnez	s2,800023e0 <_vfprintf_r+0x20a8>
800023c4:	24030001 	li	v1,1
800023c8:	afa304f0 	sw	v1,1264(sp)
800023cc:	24140001 	li	s4,1
800023d0:	08000702 	j	80001c08 <_vfprintf_r+0x18d0>
800023d4:	afa20510 	sw	v0,1296(sp)
800023d8:	080002dd 	j	80000b74 <_vfprintf_r+0x83c>
800023dc:	afa804f8 	sw	t0,1272(sp)
800023e0:	0680ffef 	bltz	s4,800023a0 <_vfprintf_r+0x2068>
800023e4:	afb404f0 	sw	s4,1264(sp)
800023e8:	08000702 	j	80001c08 <_vfprintf_r+0x18d0>
800023ec:	afa20510 	sw	v0,1296(sp)
800023f0:	2403002d 	li	v1,45
800023f4:	00021023 	negu	v0,v0
800023f8:	0800083a 	j	800020e8 <_vfprintf_r+0x1db0>
800023fc:	a3a304cd 	sb	v1,1229(sp)
80002400:	8fa8056c 	lw	t0,1388(sp)
80002404:	82130001 	lb	s3,1(s0)
80002408:	8d1e0000 	lw	s8,0(t0)
8000240c:	25020004 	addiu	v0,t0,4
80002410:	afa2056c 	sw	v0,1388(sp)
80002414:	07c1f840 	bgez	s8,80000518 <_vfprintf_r+0x1e0>
80002418:	00608021 	move	s0,v1
8000241c:	08000146 	j	80000518 <_vfprintf_r+0x1e0>
80002420:	241effff 	li	s8,-1
80002424:	080006ed 	j	80001bb4 <_vfprintf_r+0x187c>
80002428:	00401821 	move	v1,v0
8000242c:	8fb404dc 	lw	s4,1244(sp)
80002430:	08000835 	j	800020d4 <_vfprintf_r+0x1d9c>
80002434:	2682ffff 	addiu	v0,s4,-1
80002438:	27a204ce 	addiu	v0,sp,1230
8000243c:	08000843 	j	8000210c <_vfprintf_r+0x1dd4>
80002440:	27a404cc 	addiu	a0,sp,1228

80002444 <vfprintf>:
80002444:	00801821 	move	v1,a0
80002448:	00a01021 	move	v0,a1
8000244c:	8f8408b4 	lw	a0,2228(gp)
80002450:	00c03821 	move	a3,a2
80002454:	00602821 	move	a1,v1
80002458:	080000ce 	j	80000338 <_vfprintf_r>
8000245c:	00403021 	move	a2,v0

80002460 <__swsetup_r>:
80002460:	8f8208b4 	lw	v0,2228(gp)
80002464:	27bdffe0 	addiu	sp,sp,-32
80002468:	afb10018 	sw	s1,24(sp)
8000246c:	afb00014 	sw	s0,20(sp)
80002470:	afbf001c 	sw	ra,28(sp)
80002474:	00808821 	move	s1,a0
80002478:	10400005 	beqz	v0,80002490 <__swsetup_r+0x30>
8000247c:	00a08021 	move	s0,a1
80002480:	8c430038 	lw	v1,56(v0)
80002484:	00000000 	nop
80002488:	10600045 	beqz	v1,800025a0 <__swsetup_r+0x140>
8000248c:	00000000 	nop
80002490:	8602000c 	lh	v0,12(s0)
80002494:	00000000 	nop
80002498:	30430008 	andi	v1,v0,0x8
8000249c:	00031c00 	sll	v1,v1,0x10
800024a0:	00031c03 	sra	v1,v1,0x10
800024a4:	10600017 	beqz	v1,80002504 <__swsetup_r+0xa4>
800024a8:	30430010 	andi	v1,v0,0x10
800024ac:	8e030010 	lw	v1,16(s0)
800024b0:	00000000 	nop
800024b4:	10600020 	beqz	v1,80002538 <__swsetup_r+0xd8>
800024b8:	00000000 	nop
800024bc:	30440001 	andi	a0,v0,0x1
800024c0:	14800027 	bnez	a0,80002560 <__swsetup_r+0x100>
800024c4:	30420002 	andi	v0,v0,0x2
800024c8:	00021400 	sll	v0,v0,0x10
800024cc:	00021403 	sra	v0,v0,0x10
800024d0:	14400037 	bnez	v0,800025b0 <__swsetup_r+0x150>
800024d4:	00001021 	move	v0,zero
800024d8:	8e020014 	lw	v0,20(s0)
800024dc:	00000000 	nop
800024e0:	ae020008 	sw	v0,8(s0)
800024e4:	10600023 	beqz	v1,80002574 <__swsetup_r+0x114>
800024e8:	00000000 	nop
800024ec:	00001021 	move	v0,zero
800024f0:	8fbf001c 	lw	ra,28(sp)
800024f4:	8fb10018 	lw	s1,24(sp)
800024f8:	8fb00014 	lw	s0,20(sp)
800024fc:	03e00008 	jr	ra
80002500:	27bd0020 	addiu	sp,sp,32
80002504:	00031c00 	sll	v1,v1,0x10
80002508:	00031c03 	sra	v1,v1,0x10
8000250c:	1060003d 	beqz	v1,80002604 <__swsetup_r+0x1a4>
80002510:	30430004 	andi	v1,v0,0x4
80002514:	00031c00 	sll	v1,v1,0x10
80002518:	00031c03 	sra	v1,v1,0x10
8000251c:	14600026 	bnez	v1,800025b8 <__swsetup_r+0x158>
80002520:	00000000 	nop
80002524:	34420008 	ori	v0,v0,0x8
80002528:	8e030010 	lw	v1,16(s0)
8000252c:	a602000c 	sh	v0,12(s0)
80002530:	1460ffe3 	bnez	v1,800024c0 <__swsetup_r+0x60>
80002534:	30440001 	andi	a0,v0,0x1
80002538:	30450280 	andi	a1,v0,0x280
8000253c:	24040200 	li	a0,512
80002540:	10a4ffde 	beq	a1,a0,800024bc <__swsetup_r+0x5c>
80002544:	02202021 	move	a0,s1
80002548:	0c001316 	jal	80004c58 <__smakebuf_r>
8000254c:	02002821 	move	a1,s0
80002550:	8602000c 	lh	v0,12(s0)
80002554:	8e030010 	lw	v1,16(s0)
80002558:	08000930 	j	800024c0 <__swsetup_r+0x60>
8000255c:	30440001 	andi	a0,v0,0x1
80002560:	8e020014 	lw	v0,20(s0)
80002564:	ae000008 	sw	zero,8(s0)
80002568:	00021023 	negu	v0,v0
8000256c:	1460ffdf 	bnez	v1,800024ec <__swsetup_r+0x8c>
80002570:	ae020018 	sw	v0,24(s0)
80002574:	8603000c 	lh	v1,12(s0)
80002578:	00000000 	nop
8000257c:	30640080 	andi	a0,v1,0x80
80002580:	00042400 	sll	a0,a0,0x10
80002584:	00042403 	sra	a0,a0,0x10
80002588:	1080ffd9 	beqz	a0,800024f0 <__swsetup_r+0x90>
8000258c:	00001021 	move	v0,zero
80002590:	34630040 	ori	v1,v1,0x40
80002594:	a603000c 	sh	v1,12(s0)
80002598:	0800093c 	j	800024f0 <__swsetup_r+0x90>
8000259c:	2402ffff 	li	v0,-1
800025a0:	0c0010f4 	jal	800043d0 <__sinit>
800025a4:	00402021 	move	a0,v0
800025a8:	08000924 	j	80002490 <__swsetup_r+0x30>
800025ac:	00000000 	nop
800025b0:	08000939 	j	800024e4 <__swsetup_r+0x84>
800025b4:	ae020008 	sw	v0,8(s0)
800025b8:	8e050030 	lw	a1,48(s0)
800025bc:	00000000 	nop
800025c0:	10a00009 	beqz	a1,800025e8 <__swsetup_r+0x188>
800025c4:	2404ffdb 	li	a0,-37
800025c8:	26030040 	addiu	v1,s0,64
800025cc:	10a30004 	beq	a1,v1,800025e0 <__swsetup_r+0x180>
800025d0:	00000000 	nop
800025d4:	0c0011bd 	jal	800046f4 <_free_r>
800025d8:	02202021 	move	a0,s1
800025dc:	8602000c 	lh	v0,12(s0)
800025e0:	ae000030 	sw	zero,48(s0)
800025e4:	2404ffdb 	li	a0,-37
800025e8:	8e030010 	lw	v1,16(s0)
800025ec:	00441024 	and	v0,v0,a0
800025f0:	34420008 	ori	v0,v0,0x8
800025f4:	ae000004 	sw	zero,4(s0)
800025f8:	ae030000 	sw	v1,0(s0)
800025fc:	0800094c 	j	80002530 <__swsetup_r+0xd0>
80002600:	a602000c 	sh	v0,12(s0)
80002604:	34430040 	ori	v1,v0,0x40
80002608:	24020009 	li	v0,9
8000260c:	ae220000 	sw	v0,0(s1)
80002610:	2402ffff 	li	v0,-1
80002614:	0800093c 	j	800024f0 <__swsetup_r+0x90>
80002618:	a603000c 	sh	v1,12(s0)

8000261c <__call_exitprocs>:
8000261c:	8f8208b0 	lw	v0,2224(gp)
80002620:	27bdffc0 	addiu	sp,sp,-64
80002624:	24420148 	addiu	v0,v0,328
80002628:	afb5002c 	sw	s5,44(sp)
8000262c:	afb40028 	sw	s4,40(sp)
80002630:	afb30024 	sw	s3,36(sp)
80002634:	afbf003c 	sw	ra,60(sp)
80002638:	afbe0038 	sw	s8,56(sp)
8000263c:	afb70034 	sw	s7,52(sp)
80002640:	afb60030 	sw	s6,48(sp)
80002644:	afb20020 	sw	s2,32(sp)
80002648:	afb1001c 	sw	s1,28(sp)
8000264c:	afb00018 	sw	s0,24(sp)
80002650:	afa40040 	sw	a0,64(sp)
80002654:	00a09821 	move	s3,a1
80002658:	afa20010 	sw	v0,16(sp)
8000265c:	24140001 	li	s4,1
80002660:	2415ffff 	li	s5,-1
80002664:	8f8208b0 	lw	v0,2224(gp)
80002668:	8fb70010 	lw	s7,16(sp)
8000266c:	8c5e0148 	lw	s8,328(v0)
80002670:	00000000 	nop
80002674:	13c00019 	beqz	s8,800026dc <__call_exitprocs+0xc0>
80002678:	00000000 	nop
8000267c:	8fc30004 	lw	v1,4(s8)
80002680:	00000000 	nop
80002684:	2470ffff 	addiu	s0,v1,-1
80002688:	06000010 	bltz	s0,800026cc <__call_exitprocs+0xb0>
8000268c:	00102080 	sll	a0,s0,0x2
80002690:	24720001 	addiu	s2,v1,1
80002694:	27d10088 	addiu	s1,s8,136
80002698:	00129080 	sll	s2,s2,0x2
8000269c:	02248821 	addu	s1,s1,a0
800026a0:	03d29021 	addu	s2,s8,s2
800026a4:	12600019 	beqz	s3,8000270c <__call_exitprocs+0xf0>
800026a8:	00000000 	nop
800026ac:	8e230080 	lw	v1,128(s1)
800026b0:	00000000 	nop
800026b4:	10730015 	beq	v1,s3,8000270c <__call_exitprocs+0xf0>
800026b8:	00000000 	nop
800026bc:	2610ffff 	addiu	s0,s0,-1
800026c0:	2631fffc 	addiu	s1,s1,-4
800026c4:	1615fff7 	bne	s0,s5,800026a4 <__call_exitprocs+0x88>
800026c8:	2652fffc 	addiu	s2,s2,-4
800026cc:	3c020000 	lui	v0,0x0
800026d0:	24420000 	addiu	v0,v0,0
800026d4:	14400039 	bnez	v0,800027bc <__call_exitprocs+0x1a0>
800026d8:	00000000 	nop
800026dc:	8fbf003c 	lw	ra,60(sp)
800026e0:	8fbe0038 	lw	s8,56(sp)
800026e4:	8fb70034 	lw	s7,52(sp)
800026e8:	8fb60030 	lw	s6,48(sp)
800026ec:	8fb5002c 	lw	s5,44(sp)
800026f0:	8fb40028 	lw	s4,40(sp)
800026f4:	8fb30024 	lw	s3,36(sp)
800026f8:	8fb20020 	lw	s2,32(sp)
800026fc:	8fb1001c 	lw	s1,28(sp)
80002700:	8fb00018 	lw	s0,24(sp)
80002704:	03e00008 	jr	ra
80002708:	27bd0040 	addiu	sp,sp,64
8000270c:	8fc40004 	lw	a0,4(s8)
80002710:	8e430000 	lw	v1,0(s2)
80002714:	2484ffff 	addiu	a0,a0,-1
80002718:	10900021 	beq	a0,s0,800027a0 <__call_exitprocs+0x184>
8000271c:	00000000 	nop
80002720:	ae400000 	sw	zero,0(s2)
80002724:	1060ffe5 	beqz	v1,800026bc <__call_exitprocs+0xa0>
80002728:	02142004 	sllv	a0,s4,s0
8000272c:	8fc50188 	lw	a1,392(s8)
80002730:	00000000 	nop
80002734:	00852824 	and	a1,a0,a1
80002738:	8fd60004 	lw	s6,4(s8)
8000273c:	10a00014 	beqz	a1,80002790 <__call_exitprocs+0x174>
80002740:	00000000 	nop
80002744:	8fc5018c 	lw	a1,396(s8)
80002748:	00000000 	nop
8000274c:	00852024 	and	a0,a0,a1
80002750:	14800015 	bnez	a0,800027a8 <__call_exitprocs+0x18c>
80002754:	00000000 	nop
80002758:	8e250000 	lw	a1,0(s1)
8000275c:	8fa40040 	lw	a0,64(sp)
80002760:	0060f809 	jalr	v1
80002764:	00000000 	nop
80002768:	8fc30004 	lw	v1,4(s8)
8000276c:	00000000 	nop
80002770:	1476ffbc 	bne	v1,s6,80002664 <__call_exitprocs+0x48>
80002774:	00000000 	nop
80002778:	8ee30000 	lw	v1,0(s7)
8000277c:	00000000 	nop
80002780:	107effcf 	beq	v1,s8,800026c0 <__call_exitprocs+0xa4>
80002784:	2610ffff 	addiu	s0,s0,-1
80002788:	08000999 	j	80002664 <__call_exitprocs+0x48>
8000278c:	00000000 	nop
80002790:	0060f809 	jalr	v1
80002794:	00000000 	nop
80002798:	080009da 	j	80002768 <__call_exitprocs+0x14c>
8000279c:	00000000 	nop
800027a0:	080009c9 	j	80002724 <__call_exitprocs+0x108>
800027a4:	afd00004 	sw	s0,4(s8)
800027a8:	8e240000 	lw	a0,0(s1)
800027ac:	0060f809 	jalr	v1
800027b0:	00000000 	nop
800027b4:	080009da 	j	80002768 <__call_exitprocs+0x14c>
800027b8:	00000000 	nop
800027bc:	8fc30004 	lw	v1,4(s8)
800027c0:	00000000 	nop
800027c4:	1460000a 	bnez	v1,800027f0 <__call_exitprocs+0x1d4>
800027c8:	00000000 	nop
800027cc:	8fc30000 	lw	v1,0(s8)
800027d0:	00000000 	nop
800027d4:	1060000a 	beqz	v1,80002800 <__call_exitprocs+0x1e4>
800027d8:	03c02021 	move	a0,s8
800027dc:	0c000000 	jal	80000000 <_start>
800027e0:	aee30000 	sw	v1,0(s7)
800027e4:	8efe0000 	lw	s8,0(s7)
800027e8:	0800099d 	j	80002674 <__call_exitprocs+0x58>
800027ec:	00000000 	nop
800027f0:	8fc30000 	lw	v1,0(s8)
800027f4:	03c0b821 	move	s7,s8
800027f8:	0800099d 	j	80002674 <__call_exitprocs+0x58>
800027fc:	0060f021 	move	s8,v1
80002800:	080009fd 	j	800027f4 <__call_exitprocs+0x1d8>
80002804:	00001821 	move	v1,zero

80002808 <quorem>:
80002808:	27bdffd0 	addiu	sp,sp,-48
8000280c:	8c820010 	lw	v0,16(a0)
80002810:	afb10014 	sw	s1,20(sp)
80002814:	8cb10010 	lw	s1,16(a1)
80002818:	afb40020 	sw	s4,32(sp)
8000281c:	0051102a 	slt	v0,v0,s1
80002820:	afbf002c 	sw	ra,44(sp)
80002824:	afb60028 	sw	s6,40(sp)
80002828:	afb50024 	sw	s5,36(sp)
8000282c:	afb3001c 	sw	s3,28(sp)
80002830:	afb20018 	sw	s2,24(sp)
80002834:	afb00010 	sw	s0,16(sp)
80002838:	1440008f 	bnez	v0,80002a78 <quorem+0x270>
8000283c:	0080a021 	move	s4,a0
80002840:	26220003 	addiu	v0,s1,3
80002844:	00021080 	sll	v0,v0,0x2
80002848:	00a2b021 	addu	s6,a1,v0
8000284c:	8ed20004 	lw	s2,4(s6)
80002850:	00821021 	addu	v0,a0,v0
80002854:	8c420004 	lw	v0,4(v0)
80002858:	26520001 	addiu	s2,s2,1
8000285c:	16400002 	bnez	s2,80002868 <quorem+0x60>
80002860:	0052001b 	divu	zero,v0,s2
80002864:	0007000d 	break	0x7
80002868:	24b00014 	addiu	s0,a1,20
8000286c:	2631ffff 	addiu	s1,s1,-1
80002870:	26d60004 	addiu	s6,s6,4
80002874:	00009012 	mflo	s2
80002878:	0000a812 	mflo	s5
8000287c:	1240003f 	beqz	s2,8000297c <quorem+0x174>
80002880:	24930014 	addiu	s3,a0,20
80002884:	02003021 	move	a2,s0
80002888:	02601821 	move	v1,s3
8000288c:	00004021 	move	t0,zero
80002890:	00003821 	move	a3,zero
80002894:	8ccc0000 	lw	t4,0(a2)
80002898:	8c6b0000 	lw	t3,0(v1)
8000289c:	3182ffff 	andi	v0,t4,0xffff
800028a0:	00520018 	mult	v0,s2
800028a4:	000c6402 	srl	t4,t4,0x10
800028a8:	3169ffff 	andi	t1,t3,0xffff
800028ac:	01273821 	addu	a3,t1,a3
800028b0:	000b5c02 	srl	t3,t3,0x10
800028b4:	24c60004 	addiu	a2,a2,4
800028b8:	02c6102b 	sltu	v0,s6,a2
800028bc:	00002012 	mflo	a0
800028c0:	44841000 	mtc1	a0,$f2
800028c4:	00000000 	nop
800028c8:	01920018 	mult	t4,s2
800028cc:	44041000 	mfc1	a0,$f2
800028d0:	00000000 	nop
800028d4:	01045021 	addu	t2,t0,a0
800028d8:	000a4402 	srl	t0,t2,0x10
800028dc:	314affff 	andi	t2,t2,0xffff
800028e0:	00ea4823 	subu	t1,a3,t2
800028e4:	00092403 	sra	a0,t1,0x10
800028e8:	3129ffff 	andi	t1,t1,0xffff
800028ec:	00003812 	mflo	a3
800028f0:	01074021 	addu	t0,t0,a3
800028f4:	310affff 	andi	t2,t0,0xffff
800028f8:	016a3823 	subu	a3,t3,t2
800028fc:	00e43821 	addu	a3,a3,a0
80002900:	00072400 	sll	a0,a3,0x10
80002904:	00894825 	or	t1,a0,t1
80002908:	ac690000 	sw	t1,0(v1)
8000290c:	00084402 	srl	t0,t0,0x10
80002910:	00073c03 	sra	a3,a3,0x10
80002914:	1040ffdf 	beqz	v0,80002894 <quorem+0x8c>
80002918:	24630004 	addiu	v1,v1,4
8000291c:	26220004 	addiu	v0,s1,4
80002920:	00021080 	sll	v0,v0,0x2
80002924:	02821021 	addu	v0,s4,v0
80002928:	8c430004 	lw	v1,4(v0)
8000292c:	00000000 	nop
80002930:	14600012 	bnez	v1,8000297c <quorem+0x174>
80002934:	0262202b 	sltu	a0,s3,v0
80002938:	00401821 	move	v1,v0
8000293c:	1080000e 	beqz	a0,80002978 <quorem+0x170>
80002940:	24420004 	addiu	v0,v0,4
80002944:	8c42fffc 	lw	v0,-4(v0)
80002948:	00000000 	nop
8000294c:	10400007 	beqz	v0,8000296c <quorem+0x164>
80002950:	2463fffc 	addiu	v1,v1,-4
80002954:	08000a5f 	j	8000297c <quorem+0x174>
80002958:	ae910010 	sw	s1,16(s4)
8000295c:	8c620000 	lw	v0,0(v1)
80002960:	00000000 	nop
80002964:	14400004 	bnez	v0,80002978 <quorem+0x170>
80002968:	2463fffc 	addiu	v1,v1,-4
8000296c:	0263102b 	sltu	v0,s3,v1
80002970:	1440fffa 	bnez	v0,8000295c <quorem+0x154>
80002974:	2631ffff 	addiu	s1,s1,-1
80002978:	ae910010 	sw	s1,16(s4)
8000297c:	0c0018c4 	jal	80006310 <__mcmp>
80002980:	02802021 	move	a0,s4
80002984:	04400031 	bltz	v0,80002a4c <quorem+0x244>
80002988:	00002821 	move	a1,zero
8000298c:	26550001 	addiu	s5,s2,1
80002990:	02601821 	move	v1,s3
80002994:	8c680000 	lw	t0,0(v1)
80002998:	8e070000 	lw	a3,0(s0)
8000299c:	3106ffff 	andi	a2,t0,0xffff
800029a0:	30e2ffff 	andi	v0,a3,0xffff
800029a4:	00c52821 	addu	a1,a2,a1
800029a8:	00a23023 	subu	a2,a1,v0
800029ac:	00073c02 	srl	a3,a3,0x10
800029b0:	00082c02 	srl	a1,t0,0x10
800029b4:	00061403 	sra	v0,a2,0x10
800029b8:	00a72823 	subu	a1,a1,a3
800029bc:	00a22821 	addu	a1,a1,v0
800029c0:	00051400 	sll	v0,a1,0x10
800029c4:	26100004 	addiu	s0,s0,4
800029c8:	30c6ffff 	andi	a2,a2,0xffff
800029cc:	00463025 	or	a2,v0,a2
800029d0:	02d0102b 	sltu	v0,s6,s0
800029d4:	ac660000 	sw	a2,0(v1)
800029d8:	00052c03 	sra	a1,a1,0x10
800029dc:	1040ffed 	beqz	v0,80002994 <quorem+0x18c>
800029e0:	24630004 	addiu	v1,v1,4
800029e4:	26220004 	addiu	v0,s1,4
800029e8:	00021080 	sll	v0,v0,0x2
800029ec:	02821021 	addu	v0,s4,v0
800029f0:	8c430004 	lw	v1,4(v0)
800029f4:	00000000 	nop
800029f8:	14600014 	bnez	v1,80002a4c <quorem+0x244>
800029fc:	0262202b 	sltu	a0,s3,v0
80002a00:	00401821 	move	v1,v0
80002a04:	10800010 	beqz	a0,80002a48 <quorem+0x240>
80002a08:	24420004 	addiu	v0,v0,4
80002a0c:	8c42fffc 	lw	v0,-4(v0)
80002a10:	00000000 	nop
80002a14:	10400009 	beqz	v0,80002a3c <quorem+0x234>
80002a18:	2463fffc 	addiu	v1,v1,-4
80002a1c:	24630004 	addiu	v1,v1,4
80002a20:	08000a93 	j	80002a4c <quorem+0x244>
80002a24:	ae910010 	sw	s1,16(s4)
80002a28:	8c620000 	lw	v0,0(v1)
80002a2c:	00000000 	nop
80002a30:	14400005 	bnez	v0,80002a48 <quorem+0x240>
80002a34:	00000000 	nop
80002a38:	2463fffc 	addiu	v1,v1,-4
80002a3c:	0263102b 	sltu	v0,s3,v1
80002a40:	1440fff9 	bnez	v0,80002a28 <quorem+0x220>
80002a44:	2631ffff 	addiu	s1,s1,-1
80002a48:	ae910010 	sw	s1,16(s4)
80002a4c:	02a01021 	move	v0,s5
80002a50:	8fbf002c 	lw	ra,44(sp)
80002a54:	8fb60028 	lw	s6,40(sp)
80002a58:	8fb50024 	lw	s5,36(sp)
80002a5c:	8fb40020 	lw	s4,32(sp)
80002a60:	8fb3001c 	lw	s3,28(sp)
80002a64:	8fb20018 	lw	s2,24(sp)
80002a68:	8fb10014 	lw	s1,20(sp)
80002a6c:	8fb00010 	lw	s0,16(sp)
80002a70:	03e00008 	jr	ra
80002a74:	27bd0030 	addiu	sp,sp,48
80002a78:	08000a94 	j	80002a50 <quorem+0x248>
80002a7c:	00001021 	move	v0,zero

80002a80 <_dtoa_r>:
80002a80:	44870000 	mtc1	a3,$f0
80002a84:	8c850040 	lw	a1,64(a0)
80002a88:	44860800 	mtc1	a2,$f1
80002a8c:	27bdff80 	addiu	sp,sp,-128
80002a90:	44030000 	mfc1	v1,$f0
80002a94:	44020800 	mfc1	v0,$f1
80002a98:	afb10054 	sw	s1,84(sp)
80002a9c:	afb00050 	sw	s0,80(sp)
80002aa0:	afbf0074 	sw	ra,116(sp)
80002aa4:	afbe0070 	sw	s8,112(sp)
80002aa8:	afb7006c 	sw	s7,108(sp)
80002aac:	afb60068 	sw	s6,104(sp)
80002ab0:	afb50064 	sw	s5,100(sp)
80002ab4:	afb40060 	sw	s4,96(sp)
80002ab8:	afb3005c 	sw	s3,92(sp)
80002abc:	afb20058 	sw	s2,88(sp)
80002ac0:	e7b4007c 	swc1	$f20,124(sp)
80002ac4:	e7b50078 	swc1	$f21,120(sp)
80002ac8:	00808021 	move	s0,a0
80002acc:	8fb1009c 	lw	s1,156(sp)
80002ad0:	afa30024 	sw	v1,36(sp)
80002ad4:	10a00008 	beqz	a1,80002af8 <_dtoa_r+0x78>
80002ad8:	afa20020 	sw	v0,32(sp)
80002adc:	8c820044 	lw	v0,68(a0)
80002ae0:	24030001 	li	v1,1
80002ae4:	00431804 	sllv	v1,v1,v0
80002ae8:	aca20004 	sw	v0,4(a1)
80002aec:	0c00167b 	jal	800059ec <_Bfree>
80002af0:	aca30008 	sw	v1,8(a1)
80002af4:	ae000040 	sw	zero,64(s0)
80002af8:	8fb20020 	lw	s2,32(sp)
80002afc:	00000000 	nop
80002b00:	0640003d 	bltz	s2,80002bf8 <_dtoa_r+0x178>
80002b04:	3c027fff 	lui	v0,0x7fff
80002b08:	ae200000 	sw	zero,0(s1)
80002b0c:	3c027ff0 	lui	v0,0x7ff0
80002b10:	02421824 	and	v1,s2,v0
80002b14:	10620025 	beq	v1,v0,80002bac <_dtoa_r+0x12c>
80002b18:	2402270f 	li	v0,9999
80002b1c:	8fab0024 	lw	t3,36(sp)
80002b20:	8faa0020 	lw	t2,32(sp)
80002b24:	448ba000 	mtc1	t3,$f20
80002b28:	44800000 	mtc1	zero,$f0
80002b2c:	448aa800 	mtc1	t2,$f21
80002b30:	44800800 	mtc1	zero,$f1
80002b34:	00000000 	nop
80002b38:	4620a032 	c.eq.d	$f20,$f0
80002b3c:	00000000 	nop
80002b40:	45000033 	bc1f	80002c10 <_dtoa_r+0x190>
80002b44:	24020001 	li	v0,1
80002b48:	8fab0098 	lw	t3,152(sp)
80002b4c:	8fa300a0 	lw	v1,160(sp)
80002b50:	00000000 	nop
80002b54:	1060017b 	beqz	v1,80003144 <_dtoa_r+0x6c4>
80002b58:	ad620000 	sw	v0,0(t3)
80002b5c:	3c028001 	lui	v0,0x8001
80002b60:	2442a7cd 	addiu	v0,v0,-22579
80002b64:	3c128001 	lui	s2,0x8001
80002b68:	ac620000 	sw	v0,0(v1)
80002b6c:	2652a7cc 	addiu	s2,s2,-22580
80002b70:	c7b4007c 	lwc1	$f20,124(sp)
80002b74:	8fbf0074 	lw	ra,116(sp)
80002b78:	02401021 	move	v0,s2
80002b7c:	8fbe0070 	lw	s8,112(sp)
80002b80:	8fb7006c 	lw	s7,108(sp)
80002b84:	8fb60068 	lw	s6,104(sp)
80002b88:	8fb50064 	lw	s5,100(sp)
80002b8c:	8fb40060 	lw	s4,96(sp)
80002b90:	8fb3005c 	lw	s3,92(sp)
80002b94:	8fb20058 	lw	s2,88(sp)
80002b98:	8fb10054 	lw	s1,84(sp)
80002b9c:	8fb00050 	lw	s0,80(sp)
80002ba0:	c7b50078 	lwc1	$f21,120(sp)
80002ba4:	03e00008 	jr	ra
80002ba8:	27bd0080 	addiu	sp,sp,128
80002bac:	8fa30098 	lw	v1,152(sp)
80002bb0:	8fa40024 	lw	a0,36(sp)
80002bb4:	00000000 	nop
80002bb8:	10800150 	beqz	a0,800030fc <_dtoa_r+0x67c>
80002bbc:	ac620000 	sw	v0,0(v1)
80002bc0:	3c128001 	lui	s2,0x8001
80002bc4:	2652a960 	addiu	s2,s2,-22176
80002bc8:	8fa800a0 	lw	t0,160(sp)
80002bcc:	00000000 	nop
80002bd0:	1100ffe7 	beqz	t0,80002b70 <_dtoa_r+0xf0>
80002bd4:	00000000 	nop
80002bd8:	82420003 	lb	v0,3(s2)
80002bdc:	00000000 	nop
80002be0:	14400002 	bnez	v0,80002bec <_dtoa_r+0x16c>
80002be4:	26420008 	addiu	v0,s2,8
80002be8:	26420003 	addiu	v0,s2,3
80002bec:	8fa900a0 	lw	t1,160(sp)
80002bf0:	08000adc 	j	80002b70 <_dtoa_r+0xf0>
80002bf4:	ad220000 	sw	v0,0(t1)
80002bf8:	3442ffff 	ori	v0,v0,0xffff
80002bfc:	02429024 	and	s2,s2,v0
80002c00:	24020001 	li	v0,1
80002c04:	ae220000 	sw	v0,0(s1)
80002c08:	08000ac3 	j	80002b0c <_dtoa_r+0x8c>
80002c0c:	afb20020 	sw	s2,32(sp)
80002c10:	27a20018 	addiu	v0,sp,24
80002c14:	afa20010 	sw	v0,16(sp)
80002c18:	4407a000 	mfc1	a3,$f20
80002c1c:	27a2001c 	addiu	v0,sp,28
80002c20:	4406a800 	mfc1	a2,$f21
80002c24:	02002021 	move	a0,s0
80002c28:	0c0019c9 	jal	80006724 <__d2b>
80002c2c:	afa20014 	sw	v0,20(sp)
80002c30:	00122502 	srl	a0,s2,0x14
80002c34:	308407ff 	andi	a0,a0,0x7ff
80002c38:	14800137 	bnez	a0,80003118 <_dtoa_r+0x698>
80002c3c:	00408821 	move	s1,v0
80002c40:	8fb3001c 	lw	s3,28(sp)
80002c44:	8fa40018 	lw	a0,24(sp)
80002c48:	00000000 	nop
80002c4c:	02642021 	addu	a0,s3,a0
80002c50:	2882fbef 	slti	v0,a0,-1041
80002c54:	1440029a 	bnez	v0,800036c0 <_dtoa_r+0xc40>
80002c58:	2403fc0e 	li	v1,-1010
80002c5c:	8fa50024 	lw	a1,36(sp)
80002c60:	00641823 	subu	v1,v1,a0
80002c64:	24820412 	addiu	v0,a0,1042
80002c68:	00729004 	sllv	s2,s2,v1
80002c6c:	00451006 	srlv	v0,a1,v0
80002c70:	02429025 	or	s2,s2,v0
80002c74:	44920000 	mtc1	s2,$f0
80002c78:	064003d5 	bltz	s2,80003bd0 <_dtoa_r+0x1150>
80002c7c:	468000a1 	cvt.d.w	$f2,$f0
80002c80:	44021800 	mfc1	v0,$f3
80002c84:	3c05fe10 	lui	a1,0xfe10
80002c88:	24060001 	li	a2,1
80002c8c:	44031000 	mfc1	v1,$f2
80002c90:	00a21021 	addu	v0,a1,v0
80002c94:	2484ffff 	addiu	a0,a0,-1
80002c98:	afa6002c 	sw	a2,44(sp)
80002c9c:	44832000 	mtc1	v1,$f4
80002ca0:	c78008c4 	lwc1	$f0,2244(gp)
80002ca4:	44822800 	mtc1	v0,$f5
80002ca8:	c78108c0 	lwc1	$f1,2240(gp)
80002cac:	44843000 	mtc1	a0,$f6
80002cb0:	46202081 	sub.d	$f2,$f4,$f0
80002cb4:	c78008cc 	lwc1	$f0,2252(gp)
80002cb8:	00000000 	nop
80002cbc:	c78108c8 	lwc1	$f1,2248(gp)
80002cc0:	00000000 	nop
80002cc4:	46201102 	mul.d	$f4,$f2,$f0
80002cc8:	c78008dc 	lwc1	$f0,2268(gp)
80002ccc:	468030a1 	cvt.d.w	$f2,$f6
80002cd0:	c78108d8 	lwc1	$f1,2264(gp)
80002cd4:	00000000 	nop
80002cd8:	46201002 	mul.d	$f0,$f2,$f0
80002cdc:	c78208d4 	lwc1	$f2,2260(gp)
80002ce0:	00000000 	nop
80002ce4:	c78308d0 	lwc1	$f3,2256(gp)
80002ce8:	00000000 	nop
80002cec:	46222080 	add.d	$f2,$f4,$f2
80002cf0:	46201080 	add.d	$f2,$f2,$f0
80002cf4:	44800000 	mtc1	zero,$f0
80002cf8:	00000000 	nop
80002cfc:	44800800 	mtc1	zero,$f1
80002d00:	00000000 	nop
80002d04:	4620103c 	c.lt.d	$f2,$f0
80002d08:	4442f800 	cfc1	v0,$31
80002d0c:	4442f800 	cfc1	v0,$31
80002d10:	00000000 	nop
80002d14:	34410003 	ori	at,v0,0x3
80002d18:	38210002 	xori	at,at,0x2
80002d1c:	44c1f800 	ctc1	at,$31
80002d20:	00000000 	nop
80002d24:	46201024 	cvt.w.d	$f0,$f2
80002d28:	44c2f800 	ctc1	v0,$31
80002d2c:	00000000 	nop
80002d30:	441e0000 	mfc1	s8,$f0
80002d34:	4501024f 	bc1t	80003674 <_dtoa_r+0xbf4>
80002d38:	00000000 	nop
80002d3c:	2fc20017 	sltiu	v0,s8,23
80002d40:	10400103 	beqz	v0,80003150 <_dtoa_r+0x6d0>
80002d44:	24030001 	li	v1,1
80002d48:	3c028001 	lui	v0,0x8001
80002d4c:	001e18c0 	sll	v1,s8,0x3
80002d50:	2442a9c0 	addiu	v0,v0,-22080
80002d54:	00621021 	addu	v0,v1,v0
80002d58:	c4400004 	lwc1	$f0,4(v0)
80002d5c:	8fa30024 	lw	v1,36(sp)
80002d60:	c4410000 	lwc1	$f1,0(v0)
80002d64:	44831000 	mtc1	v1,$f2
80002d68:	8fa20020 	lw	v0,32(sp)
80002d6c:	00000000 	nop
80002d70:	44821800 	mtc1	v0,$f3
80002d74:	00000000 	nop
80002d78:	4620103c 	c.lt.d	$f2,$f0
80002d7c:	00000000 	nop
80002d80:	45000254 	bc1f	800036d4 <_dtoa_r+0xc54>
80002d84:	00000000 	nop
80002d88:	27deffff 	addiu	s8,s8,-1
80002d8c:	afa0003c 	sw	zero,60(sp)
80002d90:	02649823 	subu	s3,s3,a0
80002d94:	2667ffff 	addiu	a3,s3,-1
80002d98:	04e00234 	bltz	a3,8000366c <_dtoa_r+0xbec>
80002d9c:	00079823 	negu	s3,a3
80002da0:	00e0a821 	move	s5,a3
80002da4:	00009821 	move	s3,zero
80002da8:	07c0022d 	bltz	s8,80003660 <_dtoa_r+0xbe0>
80002dac:	001eb023 	negu	s6,s8
80002db0:	02bea821 	addu	s5,s5,s8
80002db4:	afbe0030 	sw	s8,48(sp)
80002db8:	0000b021 	move	s6,zero
80002dbc:	8fa80090 	lw	t0,144(sp)
80002dc0:	00000000 	nop
80002dc4:	2d02000a 	sltiu	v0,t0,10
80002dc8:	104000e3 	beqz	v0,80003158 <_dtoa_r+0x6d8>
80002dcc:	29020006 	slti	v0,t0,6
80002dd0:	14400468 	bnez	v0,80003f74 <_dtoa_r+0x14f4>
80002dd4:	2508fffc 	addiu	t0,t0,-4
80002dd8:	afa80090 	sw	t0,144(sp)
80002ddc:	00003021 	move	a2,zero
80002de0:	8fa90090 	lw	t1,144(sp)
80002de4:	24020003 	li	v0,3
80002de8:	1122037e 	beq	t1,v0,80003be4 <_dtoa_r+0x1164>
80002dec:	29220004 	slti	v0,t1,4
80002df0:	1040027a 	beqz	v0,800037dc <_dtoa_r+0xd5c>
80002df4:	24020004 	li	v0,4
80002df8:	24020002 	li	v0,2
80002dfc:	152200d7 	bne	t1,v0,8000315c <_dtoa_r+0x6dc>
80002e00:	00000000 	nop
80002e04:	afa00034 	sw	zero,52(sp)
80002e08:	8fa40094 	lw	a0,148(sp)
80002e0c:	00000000 	nop
80002e10:	18800382 	blez	a0,80003c1c <_dtoa_r+0x119c>
80002e14:	24030001 	li	v1,1
80002e18:	0080b821 	move	s7,a0
80002e1c:	afa40040 	sw	a0,64(sp)
80002e20:	0080a021 	move	s4,a0
80002e24:	2ee20018 	sltiu	v0,s7,24
80002e28:	14400454 	bnez	v0,80003f7c <_dtoa_r+0x14fc>
80002e2c:	ae000044 	sw	zero,68(s0)
80002e30:	24030001 	li	v1,1
80002e34:	24020004 	li	v0,4
80002e38:	00021040 	sll	v0,v0,0x1
80002e3c:	24440014 	addiu	a0,v0,20
80002e40:	02e4202b 	sltu	a0,s7,a0
80002e44:	00602821 	move	a1,v1
80002e48:	1080fffb 	beqz	a0,80002e38 <_dtoa_r+0x3b8>
80002e4c:	24630001 	addiu	v1,v1,1
80002e50:	ae050044 	sw	a1,68(s0)
80002e54:	02002021 	move	a0,s0
80002e58:	afa60044 	sw	a2,68(sp)
80002e5c:	0c00164f 	jal	8000593c <_Balloc>
80002e60:	2ef7000f 	sltiu	s7,s7,15
80002e64:	ae020040 	sw	v0,64(s0)
80002e68:	8fa60044 	lw	a2,68(sp)
80002e6c:	12e000c7 	beqz	s7,8000318c <_dtoa_r+0x70c>
80002e70:	00409021 	move	s2,v0
80002e74:	10c000c5 	beqz	a2,8000318c <_dtoa_r+0x70c>
80002e78:	00000000 	nop
80002e7c:	8fab0024 	lw	t3,36(sp)
80002e80:	8faa0020 	lw	t2,32(sp)
80002e84:	448b4000 	mtc1	t3,$f8
80002e88:	00000000 	nop
80002e8c:	448a4800 	mtc1	t2,$f9
80002e90:	1bc0036a 	blez	s8,80003c3c <_dtoa_r+0x11bc>
80002e94:	33c4000f 	andi	a0,s8,0xf
80002e98:	3c038001 	lui	v1,0x8001
80002e9c:	2463a9c0 	addiu	v1,v1,-22080
80002ea0:	000420c0 	sll	a0,a0,0x3
80002ea4:	00832021 	addu	a0,a0,v1
80002ea8:	001e1103 	sra	v0,s8,0x4
80002eac:	c4840004 	lwc1	$f4,4(a0)
80002eb0:	30430010 	andi	v1,v0,0x10
80002eb4:	c4850000 	lwc1	$f5,0(a0)
80002eb8:	10600356 	beqz	v1,80003c14 <_dtoa_r+0x1194>
80002ebc:	46204006 	mov.d	$f0,$f8
80002ec0:	3c038001 	lui	v1,0x8001
80002ec4:	c460a9bc 	lwc1	$f0,-22084(v1)
80002ec8:	3042000f 	andi	v0,v0,0xf
80002ecc:	c461a9b8 	lwc1	$f1,-22088(v1)
80002ed0:	24080003 	li	t0,3
80002ed4:	46204003 	div.d	$f0,$f8,$f0
80002ed8:	1040000d 	beqz	v0,80002f10 <_dtoa_r+0x490>
80002edc:	00000000 	nop
80002ee0:	3c038001 	lui	v1,0x8001
80002ee4:	2463a998 	addiu	v1,v1,-22120
80002ee8:	30440001 	andi	a0,v0,0x1
80002eec:	10800006 	beqz	a0,80002f08 <_dtoa_r+0x488>
80002ef0:	00021043 	sra	v0,v0,0x1
80002ef4:	c4620004 	lwc1	$f2,4(v1)
80002ef8:	25080001 	addiu	t0,t0,1
80002efc:	c4630000 	lwc1	$f3,0(v1)
80002f00:	00000000 	nop
80002f04:	46222102 	mul.d	$f4,$f4,$f2
80002f08:	1440fff7 	bnez	v0,80002ee8 <_dtoa_r+0x468>
80002f0c:	24630008 	addiu	v1,v1,8
80002f10:	46240103 	div.d	$f4,$f0,$f4
80002f14:	8fab003c 	lw	t3,60(sp)
80002f18:	00000000 	nop
80002f1c:	11600009 	beqz	t3,80002f44 <_dtoa_r+0x4c4>
80002f20:	00000000 	nop
80002f24:	c78008e4 	lwc1	$f0,2276(gp)
80002f28:	00000000 	nop
80002f2c:	c78108e0 	lwc1	$f1,2272(gp)
80002f30:	00000000 	nop
80002f34:	4620203c 	c.lt.d	$f4,$f0
80002f38:	00000000 	nop
80002f3c:	450103cc 	bc1t	80003e70 <_dtoa_r+0x13f0>
80002f40:	00000000 	nop
80002f44:	44881000 	mtc1	t0,$f2
80002f48:	3c02fcc0 	lui	v0,0xfcc0
80002f4c:	46801021 	cvt.d.w	$f0,$f2
80002f50:	46240082 	mul.d	$f2,$f0,$f4
80002f54:	c78008f4 	lwc1	$f0,2292(gp)
80002f58:	00000000 	nop
80002f5c:	c78108f0 	lwc1	$f1,2288(gp)
80002f60:	00000000 	nop
80002f64:	46201180 	add.d	$f6,$f2,$f0
80002f68:	44083800 	mfc1	t0,$f7
80002f6c:	44093000 	mfc1	t1,$f6
80002f70:	128002f5 	beqz	s4,80003b48 <_dtoa_r+0x10c8>
80002f74:	00484021 	addu	t0,v0,t0
80002f78:	03c01021 	move	v0,s8
80002f7c:	02802021 	move	a0,s4
80002f80:	8fa30034 	lw	v1,52(sp)
80002f84:	00000000 	nop
80002f88:	10600368 	beqz	v1,80003d2c <_dtoa_r+0x12ac>
80002f8c:	2485ffff 	addiu	a1,a0,-1
80002f90:	3c038001 	lui	v1,0x8001
80002f94:	000528c0 	sll	a1,a1,0x3
80002f98:	2463a9c0 	addiu	v1,v1,-22080
80002f9c:	00a31821 	addu	v1,a1,v1
80002fa0:	c4600004 	lwc1	$f0,4(v1)
80002fa4:	c7820904 	lwc1	$f2,2308(gp)
80002fa8:	c4610000 	lwc1	$f1,0(v1)
80002fac:	c7830900 	lwc1	$f3,2304(gp)
80002fb0:	44893000 	mtc1	t1,$f6
80002fb4:	46201083 	div.d	$f2,$f2,$f0
80002fb8:	4446f800 	cfc1	a2,$31
80002fbc:	4446f800 	cfc1	a2,$31
80002fc0:	00000000 	nop
80002fc4:	34c10003 	ori	at,a2,0x3
80002fc8:	38210002 	xori	at,at,0x2
80002fcc:	44c1f800 	ctc1	at,$31
80002fd0:	00000000 	nop
80002fd4:	462022a4 	cvt.w.d	$f10,$f4
80002fd8:	44c6f800 	ctc1	a2,$31
80002fdc:	00000000 	nop
80002fe0:	44883800 	mtc1	t0,$f7
80002fe4:	46805021 	cvt.d.w	$f0,$f10
80002fe8:	44075000 	mfc1	a3,$f10
80002fec:	46202001 	sub.d	$f0,$f4,$f0
80002ff0:	24e50030 	addiu	a1,a3,48
80002ff4:	00052e00 	sll	a1,a1,0x18
80002ff8:	00052e03 	sra	a1,a1,0x18
80002ffc:	a2450000 	sb	a1,0(s2)
80003000:	46261081 	sub.d	$f2,$f2,$f6
80003004:	4622003c 	c.lt.d	$f0,$f2
80003008:	00000000 	nop
8000300c:	4501002f 	bc1t	800030cc <_dtoa_r+0x64c>
80003010:	26570001 	addiu	s7,s2,1
80003014:	c78a08e4 	lwc1	$f10,2276(gp)
80003018:	00000000 	nop
8000301c:	c78b08e0 	lwc1	$f11,2272(gp)
80003020:	00000000 	nop
80003024:	46205101 	sub.d	$f4,$f10,$f0
80003028:	4622203c 	c.lt.d	$f4,$f2
8000302c:	00000000 	nop
80003030:	450103bd 	bc1t	80003f28 <_dtoa_r+0x14a8>
80003034:	00000000 	nop
80003038:	28850002 	slti	a1,a0,2
8000303c:	14a002da 	bnez	a1,80003ba8 <_dtoa_r+0x1128>
80003040:	02442021 	addu	a0,s2,a0
80003044:	c78608ec 	lwc1	$f6,2284(gp)
80003048:	00000000 	nop
8000304c:	c78708e8 	lwc1	$f7,2280(gp)
80003050:	08000c1e 	j	80003078 <_dtoa_r+0x5f8>
80003054:	46260002 	mul.d	$f0,$f0,$f6
80003058:	46205101 	sub.d	$f4,$f10,$f0
8000305c:	4622203c 	c.lt.d	$f4,$f2
80003060:	00000000 	nop
80003064:	450103b0 	bc1t	80003f28 <_dtoa_r+0x14a8>
80003068:	00000000 	nop
8000306c:	12e402ce 	beq	s7,a0,80003ba8 <_dtoa_r+0x1128>
80003070:	00000000 	nop
80003074:	46260002 	mul.d	$f0,$f0,$f6
80003078:	46261082 	mul.d	$f2,$f2,$f6
8000307c:	4448f800 	cfc1	t0,$31
80003080:	4448f800 	cfc1	t0,$31
80003084:	00000000 	nop
80003088:	35010003 	ori	at,t0,0x3
8000308c:	38210002 	xori	at,at,0x2
80003090:	44c1f800 	ctc1	at,$31
80003094:	00000000 	nop
80003098:	46200324 	cvt.w.d	$f12,$f0
8000309c:	44c8f800 	ctc1	t0,$31
800030a0:	00000000 	nop
800030a4:	46806121 	cvt.d.w	$f4,$f12
800030a8:	44096000 	mfc1	t1,$f12
800030ac:	46240001 	sub.d	$f0,$f0,$f4
800030b0:	25250030 	addiu	a1,t1,48
800030b4:	00052e00 	sll	a1,a1,0x18
800030b8:	4622003c 	c.lt.d	$f0,$f2
800030bc:	00052e03 	sra	a1,a1,0x18
800030c0:	a2e50000 	sb	a1,0(s7)
800030c4:	4500ffe4 	bc1f	80003058 <_dtoa_r+0x5d8>
800030c8:	26f70001 	addiu	s7,s7,1
800030cc:	0040f021 	move	s8,v0
800030d0:	02002021 	move	a0,s0
800030d4:	0c00167b 	jal	800059ec <_Bfree>
800030d8:	02202821 	move	a1,s1
800030dc:	8fa30098 	lw	v1,152(sp)
800030e0:	8fa800a0 	lw	t0,160(sp)
800030e4:	27c20001 	addiu	v0,s8,1
800030e8:	a2e00000 	sb	zero,0(s7)
800030ec:	1100fea0 	beqz	t0,80002b70 <_dtoa_r+0xf0>
800030f0:	ac620000 	sw	v0,0(v1)
800030f4:	08000adc 	j	80002b70 <_dtoa_r+0xf0>
800030f8:	ad170000 	sw	s7,0(t0)
800030fc:	3c02000f 	lui	v0,0xf
80003100:	3442ffff 	ori	v0,v0,0xffff
80003104:	02429024 	and	s2,s2,v0
80003108:	1640fead 	bnez	s2,80002bc0 <_dtoa_r+0x140>
8000310c:	3c128001 	lui	s2,0x8001
80003110:	08000af2 	j	80002bc8 <_dtoa_r+0x148>
80003114:	2652a954 	addiu	s2,s2,-22188
80003118:	4402a800 	mfc1	v0,$f21
8000311c:	3c06000f 	lui	a2,0xf
80003120:	34c6ffff 	ori	a2,a2,0xffff
80003124:	00463024 	and	a2,v0,a2
80003128:	3c053ff0 	lui	a1,0x3ff0
8000312c:	4403a000 	mfc1	v1,$f20
80003130:	00c51025 	or	v0,a2,a1
80003134:	2484fc01 	addiu	a0,a0,-1023
80003138:	8fb3001c 	lw	s3,28(sp)
8000313c:	08000b27 	j	80002c9c <_dtoa_r+0x21c>
80003140:	afa0002c 	sw	zero,44(sp)
80003144:	3c128001 	lui	s2,0x8001
80003148:	08000adc 	j	80002b70 <_dtoa_r+0xf0>
8000314c:	2652a7cc 	addiu	s2,s2,-22580
80003150:	08000b64 	j	80002d90 <_dtoa_r+0x310>
80003154:	afa3003c 	sw	v1,60(sp)
80003158:	afa00090 	sw	zero,144(sp)
8000315c:	ae000044 	sw	zero,68(s0)
80003160:	02002021 	move	a0,s0
80003164:	0c00164f 	jal	8000593c <_Balloc>
80003168:	00002821 	move	a1,zero
8000316c:	2409ffff 	li	t1,-1
80003170:	240a0001 	li	t2,1
80003174:	00409021 	move	s2,v0
80003178:	ae020040 	sw	v0,64(s0)
8000317c:	afa00094 	sw	zero,148(sp)
80003180:	2414ffff 	li	s4,-1
80003184:	afa90040 	sw	t1,64(sp)
80003188:	afaa0034 	sw	t2,52(sp)
8000318c:	8fa20018 	lw	v0,24(sp)
80003190:	00000000 	nop
80003194:	04400069 	bltz	v0,8000333c <_dtoa_r+0x8bc>
80003198:	2bc3000f 	slti	v1,s8,15
8000319c:	10600067 	beqz	v1,8000333c <_dtoa_r+0x8bc>
800031a0:	001e18c0 	sll	v1,s8,0x3
800031a4:	3c028001 	lui	v0,0x8001
800031a8:	2442a9c0 	addiu	v0,v0,-22080
800031ac:	00621021 	addu	v0,v1,v0
800031b0:	c4420004 	lwc1	$f2,4(v0)
800031b4:	00000000 	nop
800031b8:	c4430000 	lwc1	$f3,0(v0)
800031bc:	8fa20094 	lw	v0,148(sp)
800031c0:	00000000 	nop
800031c4:	044001b7 	bltz	v0,800038a4 <_dtoa_r+0xe24>
800031c8:	00000000 	nop
800031cc:	8fa50024 	lw	a1,36(sp)
800031d0:	8fa40020 	lw	a0,32(sp)
800031d4:	44853000 	mtc1	a1,$f6
800031d8:	26570001 	addiu	s7,s2,1
800031dc:	44843800 	mtc1	a0,$f7
800031e0:	00000000 	nop
800031e4:	46223103 	div.d	$f4,$f6,$f2
800031e8:	4446f800 	cfc1	a2,$31
800031ec:	4446f800 	cfc1	a2,$31
800031f0:	00000000 	nop
800031f4:	34c10003 	ori	at,a2,0x3
800031f8:	38210002 	xori	at,at,0x2
800031fc:	44c1f800 	ctc1	at,$31
80003200:	00000000 	nop
80003204:	462022a4 	cvt.w.d	$f10,$f4
80003208:	44c6f800 	ctc1	a2,$31
8000320c:	00000000 	nop
80003210:	46805021 	cvt.d.w	$f0,$f10
80003214:	46220002 	mul.d	$f0,$f0,$f2
80003218:	44075000 	mfc1	a3,$f10
8000321c:	00000000 	nop
80003220:	24e20030 	addiu	v0,a3,48
80003224:	a2420000 	sb	v0,0(s2)
80003228:	24020001 	li	v0,1
8000322c:	12820025 	beq	s4,v0,800032c4 <_dtoa_r+0x844>
80003230:	46203001 	sub.d	$f0,$f6,$f0
80003234:	c78608ec 	lwc1	$f6,2284(gp)
80003238:	44804000 	mtc1	zero,$f8
8000323c:	c78708e8 	lwc1	$f7,2280(gp)
80003240:	44804800 	mtc1	zero,$f9
80003244:	46260002 	mul.d	$f0,$f0,$f6
80003248:	46280032 	c.eq.d	$f0,$f8
8000324c:	00000000 	nop
80003250:	4501ff9f 	bc1t	800030d0 <_dtoa_r+0x650>
80003254:	26420002 	addiu	v0,s2,2
80003258:	08000c9d 	j	80003274 <_dtoa_r+0x7f4>
8000325c:	0254a021 	addu	s4,s2,s4
80003260:	46260002 	mul.d	$f0,$f0,$f6
80003264:	46280032 	c.eq.d	$f0,$f8
80003268:	00000000 	nop
8000326c:	4501ff98 	bc1t	800030d0 <_dtoa_r+0x650>
80003270:	24420001 	addiu	v0,v0,1
80003274:	46220103 	div.d	$f4,$f0,$f2
80003278:	0040b821 	move	s7,v0
8000327c:	4444f800 	cfc1	a0,$31
80003280:	4444f800 	cfc1	a0,$31
80003284:	00000000 	nop
80003288:	34810003 	ori	at,a0,0x3
8000328c:	38210002 	xori	at,at,0x2
80003290:	44c1f800 	ctc1	at,$31
80003294:	00000000 	nop
80003298:	462022a4 	cvt.w.d	$f10,$f4
8000329c:	44c4f800 	ctc1	a0,$31
800032a0:	00000000 	nop
800032a4:	46805121 	cvt.d.w	$f4,$f10
800032a8:	46222102 	mul.d	$f4,$f4,$f2
800032ac:	44055000 	mfc1	a1,$f10
800032b0:	00000000 	nop
800032b4:	24a40030 	addiu	a0,a1,48
800032b8:	a044ffff 	sb	a0,-1(v0)
800032bc:	1454ffe8 	bne	v0,s4,80003260 <_dtoa_r+0x7e0>
800032c0:	46240001 	sub.d	$f0,$f0,$f4
800032c4:	46200000 	add.d	$f0,$f0,$f0
800032c8:	4620103c 	c.lt.d	$f2,$f0
800032cc:	00000000 	nop
800032d0:	4501000a 	bc1t	800032fc <_dtoa_r+0x87c>
800032d4:	00000000 	nop
800032d8:	46201032 	c.eq.d	$f2,$f0
800032dc:	00000000 	nop
800032e0:	4500ff7c 	bc1f	800030d4 <_dtoa_r+0x654>
800032e4:	02002021 	move	a0,s0
800032e8:	44035000 	mfc1	v1,$f10
800032ec:	00000000 	nop
800032f0:	30620001 	andi	v0,v1,0x1
800032f4:	1040ff77 	beqz	v0,800030d4 <_dtoa_r+0x654>
800032f8:	00000000 	nop
800032fc:	82e5ffff 	lb	a1,-1(s7)
80003300:	08000cc4 	j	80003310 <_dtoa_r+0x890>
80003304:	24040039 	li	a0,57
80003308:	8045ffff 	lb	a1,-1(v0)
8000330c:	0040b821 	move	s7,v0
80003310:	14a402cf 	bne	a1,a0,80003e50 <_dtoa_r+0x13d0>
80003314:	26e2ffff 	addiu	v0,s7,-1
80003318:	1642fffb 	bne	s2,v0,80003308 <_dtoa_r+0x888>
8000331c:	00000000 	nop
80003320:	24020030 	li	v0,48
80003324:	a2420000 	sb	v0,0(s2)
80003328:	24040031 	li	a0,49
8000332c:	02401021 	move	v0,s2
80003330:	27de0001 	addiu	s8,s8,1
80003334:	08000c34 	j	800030d0 <_dtoa_r+0x650>
80003338:	a0440000 	sb	a0,0(v0)
8000333c:	8fa80034 	lw	t0,52(sp)
80003340:	00000000 	nop
80003344:	110000d2 	beqz	t0,80003690 <_dtoa_r+0xc10>
80003348:	02c01821 	move	v1,s6
8000334c:	8fa90090 	lw	t1,144(sp)
80003350:	00000000 	nop
80003354:	29290002 	slti	t1,t1,2
80003358:	15200181 	bnez	t1,80003960 <_dtoa_r+0xee0>
8000335c:	afa90038 	sw	t1,56(sp)
80003360:	2683ffff 	addiu	v1,s4,-1
80003364:	02c3102a 	slt	v0,s6,v1
80003368:	14400223 	bnez	v0,80003bf8 <_dtoa_r+0x1178>
8000336c:	00000000 	nop
80003370:	02c31823 	subu	v1,s6,v1
80003374:	068002ae 	bltz	s4,80003e30 <_dtoa_r+0x13b0>
80003378:	0274b823 	subu	s7,s3,s4
8000337c:	0260b821 	move	s7,s3
80003380:	02801021 	move	v0,s4
80003384:	02002021 	move	a0,s0
80003388:	24050001 	li	a1,1
8000338c:	afa30048 	sw	v1,72(sp)
80003390:	02629821 	addu	s3,s3,v0
80003394:	0c001774 	jal	80005dd0 <__i2b>
80003398:	02a2a821 	addu	s5,s5,v0
8000339c:	8fa30048 	lw	v1,72(sp)
800033a0:	afa2002c 	sw	v0,44(sp)
800033a4:	12e00008 	beqz	s7,800033c8 <_dtoa_r+0x948>
800033a8:	00000000 	nop
800033ac:	1aa00006 	blez	s5,800033c8 <_dtoa_r+0x948>
800033b0:	02f5202a 	slt	a0,s7,s5
800033b4:	14800139 	bnez	a0,8000389c <_dtoa_r+0xe1c>
800033b8:	02a01021 	move	v0,s5
800033bc:	02629823 	subu	s3,s3,v0
800033c0:	02e2b823 	subu	s7,s7,v0
800033c4:	02a2a823 	subu	s5,s5,v0
800033c8:	1ac0001b 	blez	s6,80003438 <_dtoa_r+0x9b8>
800033cc:	02002021 	move	a0,s0
800033d0:	8fa80034 	lw	t0,52(sp)
800033d4:	00000000 	nop
800033d8:	110001f8 	beqz	t0,80003bbc <_dtoa_r+0x113c>
800033dc:	02202821 	move	a1,s1
800033e0:	18600011 	blez	v1,80003428 <_dtoa_r+0x9a8>
800033e4:	00603021 	move	a2,v1
800033e8:	8fa5002c 	lw	a1,44(sp)
800033ec:	02002021 	move	a0,s0
800033f0:	0c001817 	jal	8000605c <__pow5mult>
800033f4:	afa30048 	sw	v1,72(sp)
800033f8:	00402821 	move	a1,v0
800033fc:	02203021 	move	a2,s1
80003400:	02002021 	move	a0,s0
80003404:	0c001781 	jal	80005e04 <__multiply>
80003408:	afa2002c 	sw	v0,44(sp)
8000340c:	02202821 	move	a1,s1
80003410:	02002021 	move	a0,s0
80003414:	0c00167b 	jal	800059ec <_Bfree>
80003418:	afa20044 	sw	v0,68(sp)
8000341c:	8fa20044 	lw	v0,68(sp)
80003420:	8fa30048 	lw	v1,72(sp)
80003424:	00408821 	move	s1,v0
80003428:	02c33023 	subu	a2,s6,v1
8000342c:	14c0013a 	bnez	a2,80003918 <_dtoa_r+0xe98>
80003430:	02202821 	move	a1,s1
80003434:	02002021 	move	a0,s0
80003438:	0c001774 	jal	80005dd0 <__i2b>
8000343c:	24050001 	li	a1,1
80003440:	8fa90030 	lw	t1,48(sp)
80003444:	00000000 	nop
80003448:	19200006 	blez	t1,80003464 <_dtoa_r+0x9e4>
8000344c:	0040b021 	move	s6,v0
80003450:	02002021 	move	a0,s0
80003454:	00402821 	move	a1,v0
80003458:	0c001817 	jal	8000605c <__pow5mult>
8000345c:	01203021 	move	a2,t1
80003460:	0040b021 	move	s6,v0
80003464:	8faa0038 	lw	t2,56(sp)
80003468:	00000000 	nop
8000346c:	154000fb 	bnez	t2,8000385c <_dtoa_r+0xddc>
80003470:	00000000 	nop
80003474:	afa00038 	sw	zero,56(sp)
80003478:	8fa70030 	lw	a3,48(sp)
8000347c:	00000000 	nop
80003480:	14e00184 	bnez	a3,80003a94 <_dtoa_r+0x1014>
80003484:	00000000 	nop
80003488:	24020001 	li	v0,1
8000348c:	00551021 	addu	v0,v0,s5
80003490:	3042001f 	andi	v0,v0,0x1f
80003494:	10400085 	beqz	v0,800036ac <_dtoa_r+0xc2c>
80003498:	24030020 	li	v1,32
8000349c:	00621823 	subu	v1,v1,v0
800034a0:	28640005 	slti	a0,v1,5
800034a4:	148002b7 	bnez	a0,80003f84 <_dtoa_r+0x1504>
800034a8:	24040004 	li	a0,4
800034ac:	2403001c 	li	v1,28
800034b0:	00621023 	subu	v0,v1,v0
800034b4:	02629821 	addu	s3,s3,v0
800034b8:	02e2b821 	addu	s7,s7,v0
800034bc:	02a2a821 	addu	s5,s5,v0
800034c0:	1a600005 	blez	s3,800034d8 <_dtoa_r+0xa58>
800034c4:	02202821 	move	a1,s1
800034c8:	02002021 	move	a0,s0
800034cc:	0c001866 	jal	80006198 <__lshift>
800034d0:	02603021 	move	a2,s3
800034d4:	00408821 	move	s1,v0
800034d8:	1aa00005 	blez	s5,800034f0 <_dtoa_r+0xa70>
800034dc:	02c02821 	move	a1,s6
800034e0:	02002021 	move	a0,s0
800034e4:	0c001866 	jal	80006198 <__lshift>
800034e8:	02a03021 	move	a2,s5
800034ec:	0040b021 	move	s6,v0
800034f0:	8fa8003c 	lw	t0,60(sp)
800034f4:	00000000 	nop
800034f8:	150000c9 	bnez	t0,80003820 <_dtoa_r+0xda0>
800034fc:	02202021 	move	a0,s1
80003500:	1a80016f 	blez	s4,80003ac0 <_dtoa_r+0x1040>
80003504:	00000000 	nop
80003508:	8fa30034 	lw	v1,52(sp)
8000350c:	00000000 	nop
80003510:	10600072 	beqz	v1,800036dc <_dtoa_r+0xc5c>
80003514:	00000000 	nop
80003518:	1ae00005 	blez	s7,80003530 <_dtoa_r+0xab0>
8000351c:	02002021 	move	a0,s0
80003520:	8fa5002c 	lw	a1,44(sp)
80003524:	0c001866 	jal	80006198 <__lshift>
80003528:	02e03021 	move	a2,s7
8000352c:	afa2002c 	sw	v0,44(sp)
80003530:	8fa80038 	lw	t0,56(sp)
80003534:	00000000 	nop
80003538:	150001db 	bnez	t0,80003ca8 <_dtoa_r+0x1228>
8000353c:	00000000 	nop
80003540:	8fb5002c 	lw	s5,44(sp)
80003544:	8fab0024 	lw	t3,36(sp)
80003548:	0254a021 	addu	s4,s2,s4
8000354c:	316b0001 	andi	t3,t3,0x1
80003550:	afb40030 	sw	s4,48(sp)
80003554:	26530001 	addiu	s3,s2,1
80003558:	8fb4002c 	lw	s4,44(sp)
8000355c:	afab002c 	sw	t3,44(sp)
80003560:	02202021 	move	a0,s1
80003564:	0c000a02 	jal	80002808 <quorem>
80003568:	02c02821 	move	a1,s6
8000356c:	02202021 	move	a0,s1
80003570:	02802821 	move	a1,s4
80003574:	0c0018c4 	jal	80006310 <__mcmp>
80003578:	afa20020 	sw	v0,32(sp)
8000357c:	02002021 	move	a0,s0
80003580:	02c02821 	move	a1,s6
80003584:	02a03021 	move	a2,s5
80003588:	0c0018e3 	jal	8000638c <__mdiff>
8000358c:	0040b821 	move	s7,v0
80003590:	00401821 	move	v1,v0
80003594:	8fa90020 	lw	t1,32(sp)
80003598:	8c42000c 	lw	v0,12(v0)
8000359c:	2667ffff 	addiu	a3,s3,-1
800035a0:	afa70028 	sw	a3,40(sp)
800035a4:	1040010f 	beqz	v0,800039e4 <_dtoa_r+0xf64>
800035a8:	25280030 	addiu	t0,t1,48
800035ac:	02002021 	move	a0,s0
800035b0:	00602821 	move	a1,v1
800035b4:	0c00167b 	jal	800059ec <_Bfree>
800035b8:	afa8004c 	sw	t0,76(sp)
800035bc:	8fa8004c 	lw	t0,76(sp)
800035c0:	24020001 	li	v0,1
800035c4:	06e000f0 	bltz	s7,80003988 <_dtoa_r+0xf08>
800035c8:	00000000 	nop
800035cc:	16e00009 	bnez	s7,800035f4 <_dtoa_r+0xb74>
800035d0:	00000000 	nop
800035d4:	8fa90090 	lw	t1,144(sp)
800035d8:	00000000 	nop
800035dc:	15200005 	bnez	t1,800035f4 <_dtoa_r+0xb74>
800035e0:	00000000 	nop
800035e4:	8faa002c 	lw	t2,44(sp)
800035e8:	00000000 	nop
800035ec:	114000e6 	beqz	t2,80003988 <_dtoa_r+0xf08>
800035f0:	00000000 	nop
800035f4:	1c4001c2 	bgtz	v0,80003d00 <_dtoa_r+0x1280>
800035f8:	0260b821 	move	s7,s3
800035fc:	8faa0030 	lw	t2,48(sp)
80003600:	00000000 	nop
80003604:	126a01c7 	beq	s3,t2,80003d24 <_dtoa_r+0x12a4>
80003608:	a268ffff 	sb	t0,-1(s3)
8000360c:	02202821 	move	a1,s1
80003610:	02002021 	move	a0,s0
80003614:	2406000a 	li	a2,10
80003618:	0c001687 	jal	80005a1c <__multadd>
8000361c:	00003821 	move	a3,zero
80003620:	12950113 	beq	s4,s5,80003a70 <_dtoa_r+0xff0>
80003624:	00408821 	move	s1,v0
80003628:	02802821 	move	a1,s4
8000362c:	2406000a 	li	a2,10
80003630:	00003821 	move	a3,zero
80003634:	0c001687 	jal	80005a1c <__multadd>
80003638:	02002021 	move	a0,s0
8000363c:	02a02821 	move	a1,s5
80003640:	02002021 	move	a0,s0
80003644:	2406000a 	li	a2,10
80003648:	00003821 	move	a3,zero
8000364c:	0c001687 	jal	80005a1c <__multadd>
80003650:	0040a021 	move	s4,v0
80003654:	0040a821 	move	s5,v0
80003658:	08000d58 	j	80003560 <_dtoa_r+0xae0>
8000365c:	26730001 	addiu	s3,s3,1
80003660:	027e9823 	subu	s3,s3,s8
80003664:	08000b6f 	j	80002dbc <_dtoa_r+0x33c>
80003668:	afa00030 	sw	zero,48(sp)
8000366c:	08000b6a 	j	80002da8 <_dtoa_r+0x328>
80003670:	0000a821 	move	s5,zero
80003674:	46800021 	cvt.d.w	$f0,$f0
80003678:	46220032 	c.eq.d	$f0,$f2
8000367c:	00000000 	nop
80003680:	4501fdaf 	bc1t	80002d40 <_dtoa_r+0x2c0>
80003684:	2fc20017 	sltiu	v0,s8,23
80003688:	08000b4f 	j	80002d3c <_dtoa_r+0x2bc>
8000368c:	27deffff 	addiu	s8,s8,-1
80003690:	8fa70090 	lw	a3,144(sp)
80003694:	00000000 	nop
80003698:	28e70002 	slti	a3,a3,2
8000369c:	0260b821 	move	s7,s3
800036a0:	afa0002c 	sw	zero,44(sp)
800036a4:	08000ce9 	j	800033a4 <_dtoa_r+0x924>
800036a8:	afa70038 	sw	a3,56(sp)
800036ac:	2402001c 	li	v0,28
800036b0:	02629821 	addu	s3,s3,v0
800036b4:	02e2b821 	addu	s7,s7,v0
800036b8:	08000d30 	j	800034c0 <_dtoa_r+0xa40>
800036bc:	02a2a821 	addu	s5,s5,v0
800036c0:	2412fbee 	li	s2,-1042
800036c4:	8fa60024 	lw	a2,36(sp)
800036c8:	02449023 	subu	s2,s2,a0
800036cc:	08000b1d 	j	80002c74 <_dtoa_r+0x1f4>
800036d0:	02469004 	sllv	s2,a2,s2
800036d4:	08000b64 	j	80002d90 <_dtoa_r+0x310>
800036d8:	afa0003c 	sw	zero,60(sp)
800036dc:	08000dbc 	j	800036f0 <_dtoa_r+0xc70>
800036e0:	02409821 	move	s3,s2
800036e4:	0c001687 	jal	80005a1c <__multadd>
800036e8:	00000000 	nop
800036ec:	00408821 	move	s1,v0
800036f0:	02202021 	move	a0,s1
800036f4:	0c000a02 	jal	80002808 <quorem>
800036f8:	02c02821 	move	a1,s6
800036fc:	24480030 	addiu	t0,v0,48
80003700:	a2680000 	sb	t0,0(s3)
80003704:	26730001 	addiu	s3,s3,1
80003708:	02721023 	subu	v0,s3,s2
8000370c:	0054102a 	slt	v0,v0,s4
80003710:	02002021 	move	a0,s0
80003714:	02202821 	move	a1,s1
80003718:	2406000a 	li	a2,10
8000371c:	1440fff1 	bnez	v0,800036e4 <_dtoa_r+0xc64>
80003720:	00003821 	move	a3,zero
80003724:	1a800096 	blez	s4,80003980 <_dtoa_r+0xf00>
80003728:	00000000 	nop
8000372c:	0254b821 	addu	s7,s2,s4
80003730:	0000a021 	move	s4,zero
80003734:	02202821 	move	a1,s1
80003738:	24060001 	li	a2,1
8000373c:	02002021 	move	a0,s0
80003740:	0c001866 	jal	80006198 <__lshift>
80003744:	afa8004c 	sw	t0,76(sp)
80003748:	00402021 	move	a0,v0
8000374c:	02c02821 	move	a1,s6
80003750:	0c0018c4 	jal	80006310 <__mcmp>
80003754:	00408821 	move	s1,v0
80003758:	8fa8004c 	lw	t0,76(sp)
8000375c:	18400072 	blez	v0,80003928 <_dtoa_r+0xea8>
80003760:	00000000 	nop
80003764:	82e4ffff 	lb	a0,-1(s7)
80003768:	08000dde 	j	80003778 <_dtoa_r+0xcf8>
8000376c:	24050039 	li	a1,57
80003770:	8044ffff 	lb	a0,-1(v0)
80003774:	0040b821 	move	s7,v0
80003778:	1485015e 	bne	a0,a1,80003cf4 <_dtoa_r+0x1274>
8000377c:	26e2ffff 	addiu	v0,s7,-1
80003780:	1642fffb 	bne	s2,v0,80003770 <_dtoa_r+0xcf0>
80003784:	00000000 	nop
80003788:	24020031 	li	v0,49
8000378c:	27de0001 	addiu	s8,s8,1
80003790:	a2420000 	sb	v0,0(s2)
80003794:	02002021 	move	a0,s0
80003798:	0c00167b 	jal	800059ec <_Bfree>
8000379c:	02c02821 	move	a1,s6
800037a0:	8fab002c 	lw	t3,44(sp)
800037a4:	00000000 	nop
800037a8:	1160fe4a 	beqz	t3,800030d4 <_dtoa_r+0x654>
800037ac:	02002021 	move	a0,s0
800037b0:	12800005 	beqz	s4,800037c8 <_dtoa_r+0xd48>
800037b4:	00000000 	nop
800037b8:	128b0003 	beq	s4,t3,800037c8 <_dtoa_r+0xd48>
800037bc:	00000000 	nop
800037c0:	0c00167b 	jal	800059ec <_Bfree>
800037c4:	02802821 	move	a1,s4
800037c8:	8fa5002c 	lw	a1,44(sp)
800037cc:	0c00167b 	jal	800059ec <_Bfree>
800037d0:	02002021 	move	a0,s0
800037d4:	08000c35 	j	800030d4 <_dtoa_r+0x654>
800037d8:	02002021 	move	a0,s0
800037dc:	8faa0090 	lw	t2,144(sp)
800037e0:	00000000 	nop
800037e4:	11420101 	beq	t2,v0,80003bec <_dtoa_r+0x116c>
800037e8:	24020005 	li	v0,5
800037ec:	1542fe5b 	bne	t2,v0,8000315c <_dtoa_r+0x6dc>
800037f0:	24030001 	li	v1,1
800037f4:	afa30034 	sw	v1,52(sp)
800037f8:	8fa80094 	lw	t0,148(sp)
800037fc:	00000000 	nop
80003800:	011e4021 	addu	t0,t0,s8
80003804:	25170001 	addiu	s7,t0,1
80003808:	afa80040 	sw	t0,64(sp)
8000380c:	1ee0fd85 	bgtz	s7,80002e24 <_dtoa_r+0x3a4>
80003810:	02e0a021 	move	s4,s7
80003814:	ae000044 	sw	zero,68(s0)
80003818:	08000b95 	j	80002e54 <_dtoa_r+0x3d4>
8000381c:	00002821 	move	a1,zero
80003820:	0c0018c4 	jal	80006310 <__mcmp>
80003824:	02c02821 	move	a1,s6
80003828:	0441ff35 	bgez	v0,80003500 <_dtoa_r+0xa80>
8000382c:	02202821 	move	a1,s1
80003830:	02002021 	move	a0,s0
80003834:	2406000a 	li	a2,10
80003838:	0c001687 	jal	80005a1c <__multadd>
8000383c:	00003821 	move	a3,zero
80003840:	8fa90034 	lw	t1,52(sp)
80003844:	00408821 	move	s1,v0
80003848:	152001bf 	bnez	t1,80003f48 <_dtoa_r+0x14c8>
8000384c:	27deffff 	addiu	s8,s8,-1
80003850:	8fb40040 	lw	s4,64(sp)
80003854:	08000d40 	j	80003500 <_dtoa_r+0xa80>
80003858:	00000000 	nop
8000385c:	8fab0024 	lw	t3,36(sp)
80003860:	00000000 	nop
80003864:	1560ff03 	bnez	t3,80003474 <_dtoa_r+0x9f4>
80003868:	3c03000f 	lui	v1,0xf
8000386c:	8fa20020 	lw	v0,32(sp)
80003870:	3463ffff 	ori	v1,v1,0xffff
80003874:	00431824 	and	v1,v0,v1
80003878:	1460fefe 	bnez	v1,80003474 <_dtoa_r+0x9f4>
8000387c:	3c037ff0 	lui	v1,0x7ff0
80003880:	00431024 	and	v0,v0,v1
80003884:	1040fefb 	beqz	v0,80003474 <_dtoa_r+0x9f4>
80003888:	24030001 	li	v1,1
8000388c:	26730001 	addiu	s3,s3,1
80003890:	26b50001 	addiu	s5,s5,1
80003894:	08000d1e 	j	80003478 <_dtoa_r+0x9f8>
80003898:	afa30038 	sw	v1,56(sp)
8000389c:	08000cef 	j	800033bc <_dtoa_r+0x93c>
800038a0:	02e01021 	move	v0,s7
800038a4:	1e80fe49 	bgtz	s4,800031cc <_dtoa_r+0x74c>
800038a8:	00000000 	nop
800038ac:	168000bc 	bnez	s4,80003ba0 <_dtoa_r+0x1120>
800038b0:	0000b021 	move	s6,zero
800038b4:	c78008fc 	lwc1	$f0,2300(gp)
800038b8:	8fa90024 	lw	t1,36(sp)
800038bc:	c78108f8 	lwc1	$f1,2296(gp)
800038c0:	8fa80020 	lw	t0,32(sp)
800038c4:	46201082 	mul.d	$f2,$f2,$f0
800038c8:	44890000 	mtc1	t1,$f0
800038cc:	00000000 	nop
800038d0:	44880800 	mtc1	t0,$f1
800038d4:	00000000 	nop
800038d8:	4622003e 	c.le.d	$f0,$f2
800038dc:	00000000 	nop
800038e0:	45000088 	bc1f	80003b04 <_dtoa_r+0x1084>
800038e4:	afa0002c 	sw	zero,44(sp)
800038e8:	8fab0094 	lw	t3,148(sp)
800038ec:	0240b821 	move	s7,s2
800038f0:	000bf027 	nor	s8,zero,t3
800038f4:	02002021 	move	a0,s0
800038f8:	0c00167b 	jal	800059ec <_Bfree>
800038fc:	02c02821 	move	a1,s6
80003900:	8fa8002c 	lw	t0,44(sp)
80003904:	00000000 	nop
80003908:	1500ffaf 	bnez	t0,800037c8 <_dtoa_r+0xd48>
8000390c:	00000000 	nop
80003910:	08000c35 	j	800030d4 <_dtoa_r+0x654>
80003914:	02002021 	move	a0,s0
80003918:	0c001817 	jal	8000605c <__pow5mult>
8000391c:	02002021 	move	a0,s0
80003920:	08000d0d 	j	80003434 <_dtoa_r+0x9b4>
80003924:	00408821 	move	s1,v0
80003928:	14400007 	bnez	v0,80003948 <_dtoa_r+0xec8>
8000392c:	24050030 	li	a1,48
80003930:	31080001 	andi	t0,t0,0x1
80003934:	1500ff8b 	bnez	t0,80003764 <_dtoa_r+0xce4>
80003938:	00000000 	nop
8000393c:	08000e52 	j	80003948 <_dtoa_r+0xec8>
80003940:	00000000 	nop
80003944:	0080b821 	move	s7,a0
80003948:	82e2ffff 	lb	v0,-1(s7)
8000394c:	00000000 	nop
80003950:	1045fffc 	beq	v0,a1,80003944 <_dtoa_r+0xec4>
80003954:	26e4ffff 	addiu	a0,s7,-1
80003958:	08000de6 	j	80003798 <_dtoa_r+0xd18>
8000395c:	02002021 	move	a0,s0
80003960:	8faa002c 	lw	t2,44(sp)
80003964:	00000000 	nop
80003968:	11400133 	beqz	t2,80003e38 <_dtoa_r+0x13b8>
8000396c:	00000000 	nop
80003970:	24420433 	addiu	v0,v0,1075
80003974:	02c01821 	move	v1,s6
80003978:	08000ce1 	j	80003384 <_dtoa_r+0x904>
8000397c:	0260b821 	move	s7,s3
80003980:	08000dcb 	j	8000372c <_dtoa_r+0xcac>
80003984:	24140001 	li	s4,1
80003988:	18400011 	blez	v0,800039d0 <_dtoa_r+0xf50>
8000398c:	01009821 	move	s3,t0
80003990:	02202821 	move	a1,s1
80003994:	24060001 	li	a2,1
80003998:	02002021 	move	a0,s0
8000399c:	0c001866 	jal	80006198 <__lshift>
800039a0:	afa8004c 	sw	t0,76(sp)
800039a4:	00402021 	move	a0,v0
800039a8:	02c02821 	move	a1,s6
800039ac:	0c0018c4 	jal	80006310 <__mcmp>
800039b0:	00408821 	move	s1,v0
800039b4:	8fa8004c 	lw	t0,76(sp)
800039b8:	1840015d 	blez	v0,80003f30 <_dtoa_r+0x14b0>
800039bc:	00000000 	nop
800039c0:	8fab0020 	lw	t3,32(sp)
800039c4:	24020039 	li	v0,57
800039c8:	12620142 	beq	s3,v0,80003ed4 <_dtoa_r+0x1454>
800039cc:	25680031 	addiu	t0,t3,49
800039d0:	8fa30028 	lw	v1,40(sp)
800039d4:	afb5002c 	sw	s5,44(sp)
800039d8:	a0680000 	sb	t0,0(v1)
800039dc:	08000de5 	j	80003794 <_dtoa_r+0xd14>
800039e0:	24770001 	addiu	s7,v1,1
800039e4:	00602821 	move	a1,v1
800039e8:	02202021 	move	a0,s1
800039ec:	afa8004c 	sw	t0,76(sp)
800039f0:	0c0018c4 	jal	80006310 <__mcmp>
800039f4:	afa30048 	sw	v1,72(sp)
800039f8:	8fa30048 	lw	v1,72(sp)
800039fc:	02002021 	move	a0,s0
80003a00:	00602821 	move	a1,v1
80003a04:	0c00167b 	jal	800059ec <_Bfree>
80003a08:	afa20044 	sw	v0,68(sp)
80003a0c:	8fa20044 	lw	v0,68(sp)
80003a10:	8fa8004c 	lw	t0,76(sp)
80003a14:	1440feeb 	bnez	v0,800035c4 <_dtoa_r+0xb44>
80003a18:	00000000 	nop
80003a1c:	8faa0090 	lw	t2,144(sp)
80003a20:	00000000 	nop
80003a24:	1540fee7 	bnez	t2,800035c4 <_dtoa_r+0xb44>
80003a28:	00000000 	nop
80003a2c:	8fab002c 	lw	t3,44(sp)
80003a30:	00000000 	nop
80003a34:	1560fee3 	bnez	t3,800035c4 <_dtoa_r+0xb44>
80003a38:	00000000 	nop
80003a3c:	24020039 	li	v0,57
80003a40:	11020124 	beq	t0,v0,80003ed4 <_dtoa_r+0x1454>
80003a44:	00000000 	nop
80003a48:	1ae00004 	blez	s7,80003a5c <_dtoa_r+0xfdc>
80003a4c:	00000000 	nop
80003a50:	8fa30020 	lw	v1,32(sp)
80003a54:	00000000 	nop
80003a58:	24680031 	addiu	t0,v1,49
80003a5c:	8fa70028 	lw	a3,40(sp)
80003a60:	afb5002c 	sw	s5,44(sp)
80003a64:	a0e80000 	sb	t0,0(a3)
80003a68:	08000de5 	j	80003794 <_dtoa_r+0xd14>
80003a6c:	24f70001 	addiu	s7,a3,1
80003a70:	02802821 	move	a1,s4
80003a74:	02002021 	move	a0,s0
80003a78:	2406000a 	li	a2,10
80003a7c:	0c001687 	jal	80005a1c <__multadd>
80003a80:	00003821 	move	a3,zero
80003a84:	0040a021 	move	s4,v0
80003a88:	0040a821 	move	s5,v0
80003a8c:	08000d58 	j	80003560 <_dtoa_r+0xae0>
80003a90:	26730001 	addiu	s3,s3,1
80003a94:	8ec20010 	lw	v0,16(s6)
80003a98:	00000000 	nop
80003a9c:	24420003 	addiu	v0,v0,3
80003aa0:	00021080 	sll	v0,v0,0x2
80003aa4:	02c21021 	addu	v0,s6,v0
80003aa8:	8c440004 	lw	a0,4(v0)
80003aac:	0c00171f 	jal	80005c7c <__hi0bits>
80003ab0:	00000000 	nop
80003ab4:	24030020 	li	v1,32
80003ab8:	08000d23 	j	8000348c <_dtoa_r+0xa0c>
80003abc:	00621023 	subu	v0,v1,v0
80003ac0:	8faa0090 	lw	t2,144(sp)
80003ac4:	00000000 	nop
80003ac8:	29420003 	slti	v0,t2,3
80003acc:	1440fe8e 	bnez	v0,80003508 <_dtoa_r+0xa88>
80003ad0:	00000000 	nop
80003ad4:	1680ff84 	bnez	s4,800038e8 <_dtoa_r+0xe68>
80003ad8:	02c02821 	move	a1,s6
80003adc:	02002021 	move	a0,s0
80003ae0:	24060005 	li	a2,5
80003ae4:	0c001687 	jal	80005a1c <__multadd>
80003ae8:	00003821 	move	a3,zero
80003aec:	00402821 	move	a1,v0
80003af0:	02202021 	move	a0,s1
80003af4:	0c0018c4 	jal	80006310 <__mcmp>
80003af8:	0040b021 	move	s6,v0
80003afc:	1840ff7a 	blez	v0,800038e8 <_dtoa_r+0xe68>
80003b00:	00000000 	nop
80003b04:	24020031 	li	v0,49
80003b08:	a2420000 	sb	v0,0(s2)
80003b0c:	26570001 	addiu	s7,s2,1
80003b10:	08000e3d 	j	800038f4 <_dtoa_r+0xe74>
80003b14:	27de0001 	addiu	s8,s8,1
80003b18:	44881000 	mtc1	t0,$f2
80003b1c:	00000000 	nop
80003b20:	46801021 	cvt.d.w	$f0,$f2
80003b24:	46240082 	mul.d	$f2,$f0,$f4
80003b28:	c78008f4 	lwc1	$f0,2292(gp)
80003b2c:	00000000 	nop
80003b30:	c78108f0 	lwc1	$f1,2288(gp)
80003b34:	00000000 	nop
80003b38:	46201180 	add.d	$f6,$f2,$f0
80003b3c:	44083800 	mfc1	t0,$f7
80003b40:	44093000 	mfc1	t1,$f6
80003b44:	00484021 	addu	t0,v0,t0
80003b48:	c78008fc 	lwc1	$f0,2300(gp)
80003b4c:	00000000 	nop
80003b50:	c78108f8 	lwc1	$f1,2296(gp)
80003b54:	00000000 	nop
80003b58:	46202101 	sub.d	$f4,$f4,$f0
80003b5c:	44890000 	mtc1	t1,$f0
80003b60:	00000000 	nop
80003b64:	44880800 	mtc1	t0,$f1
80003b68:	00000000 	nop
80003b6c:	4624003c 	c.lt.d	$f0,$f4
80003b70:	00000000 	nop
80003b74:	450100ab 	bc1t	80003e24 <_dtoa_r+0x13a4>
80003b78:	3c048000 	lui	a0,0x8000
80003b7c:	44891000 	mtc1	t1,$f2
80003b80:	01041026 	xor	v0,t0,a0
80003b84:	44821800 	mtc1	v0,$f3
80003b88:	00000000 	nop
80003b8c:	4622203c 	c.lt.d	$f4,$f2
80003b90:	00000000 	nop
80003b94:	45000004 	bc1f	80003ba8 <_dtoa_r+0x1128>
80003b98:	00000000 	nop
80003b9c:	0000b021 	move	s6,zero
80003ba0:	08000e3a 	j	800038e8 <_dtoa_r+0xe68>
80003ba4:	afa0002c 	sw	zero,44(sp)
80003ba8:	440b4000 	mfc1	t3,$f8
80003bac:	440a4800 	mfc1	t2,$f9
80003bb0:	afab0024 	sw	t3,36(sp)
80003bb4:	08000c63 	j	8000318c <_dtoa_r+0x70c>
80003bb8:	afaa0020 	sw	t2,32(sp)
80003bbc:	02002021 	move	a0,s0
80003bc0:	0c001817 	jal	8000605c <__pow5mult>
80003bc4:	02c03021 	move	a2,s6
80003bc8:	08000d0d 	j	80003434 <_dtoa_r+0x9b4>
80003bcc:	00408821 	move	s1,v0
80003bd0:	c78008bc 	lwc1	$f0,2236(gp)
80003bd4:	00000000 	nop
80003bd8:	c78108b8 	lwc1	$f1,2232(gp)
80003bdc:	08000b20 	j	80002c80 <_dtoa_r+0x200>
80003be0:	46201080 	add.d	$f2,$f2,$f0
80003be4:	08000dfe 	j	800037f8 <_dtoa_r+0xd78>
80003be8:	afa00034 	sw	zero,52(sp)
80003bec:	240b0001 	li	t3,1
80003bf0:	08000b82 	j	80002e08 <_dtoa_r+0x388>
80003bf4:	afab0034 	sw	t3,52(sp)
80003bf8:	8fab0030 	lw	t3,48(sp)
80003bfc:	0076b023 	subu	s6,v1,s6
80003c00:	01765821 	addu	t3,t3,s6
80003c04:	afab0030 	sw	t3,48(sp)
80003c08:	0060b021 	move	s6,v1
80003c0c:	08000cdd 	j	80003374 <_dtoa_r+0x8f4>
80003c10:	00001821 	move	v1,zero
80003c14:	08000bb6 	j	80002ed8 <_dtoa_r+0x458>
80003c18:	24080002 	li	t0,2
80003c1c:	24040001 	li	a0,1
80003c20:	24170001 	li	s7,1
80003c24:	afa30040 	sw	v1,64(sp)
80003c28:	24140001 	li	s4,1
80003c2c:	afa40094 	sw	a0,148(sp)
80003c30:	ae000044 	sw	zero,68(s0)
80003c34:	08000b95 	j	80002e54 <_dtoa_r+0x3d4>
80003c38:	00002821 	move	a1,zero
80003c3c:	001e1023 	negu	v0,s8
80003c40:	10400088 	beqz	v0,80003e64 <_dtoa_r+0x13e4>
80003c44:	3044000f 	andi	a0,v0,0xf
80003c48:	3c038001 	lui	v1,0x8001
80003c4c:	000420c0 	sll	a0,a0,0x3
80003c50:	2463a9c0 	addiu	v1,v1,-22080
80003c54:	00831821 	addu	v1,a0,v1
80003c58:	c4640004 	lwc1	$f4,4(v1)
80003c5c:	00021103 	sra	v0,v0,0x4
80003c60:	c4650000 	lwc1	$f5,0(v1)
80003c64:	104000c1 	beqz	v0,80003f6c <_dtoa_r+0x14ec>
80003c68:	46244102 	mul.d	$f4,$f8,$f4
80003c6c:	3c038001 	lui	v1,0x8001
80003c70:	2463a998 	addiu	v1,v1,-22120
80003c74:	24080002 	li	t0,2
80003c78:	30440001 	andi	a0,v0,0x1
80003c7c:	10800006 	beqz	a0,80003c98 <_dtoa_r+0x1218>
80003c80:	00021043 	sra	v0,v0,0x1
80003c84:	c4600004 	lwc1	$f0,4(v1)
80003c88:	25080001 	addiu	t0,t0,1
80003c8c:	c4610000 	lwc1	$f1,0(v1)
80003c90:	00000000 	nop
80003c94:	46202102 	mul.d	$f4,$f4,$f0
80003c98:	1440fff7 	bnez	v0,80003c78 <_dtoa_r+0x11f8>
80003c9c:	24630008 	addiu	v1,v1,8
80003ca0:	08000bc5 	j	80002f14 <_dtoa_r+0x494>
80003ca4:	00000000 	nop
80003ca8:	8fa9002c 	lw	t1,44(sp)
80003cac:	00000000 	nop
80003cb0:	8d250004 	lw	a1,4(t1)
80003cb4:	0c00164f 	jal	8000593c <_Balloc>
80003cb8:	02002021 	move	a0,s0
80003cbc:	8faa002c 	lw	t2,44(sp)
80003cc0:	00409821 	move	s3,v0
80003cc4:	8d460010 	lw	a2,16(t2)
80003cc8:	2545000c 	addiu	a1,t2,12
80003ccc:	24c60002 	addiu	a2,a2,2
80003cd0:	2444000c 	addiu	a0,v0,12
80003cd4:	0c0015e5 	jal	80005794 <memcpy>
80003cd8:	00063080 	sll	a2,a2,0x2
80003cdc:	02002021 	move	a0,s0
80003ce0:	02602821 	move	a1,s3
80003ce4:	0c001866 	jal	80006198 <__lshift>
80003ce8:	24060001 	li	a2,1
80003cec:	08000d51 	j	80003544 <_dtoa_r+0xac4>
80003cf0:	0040a821 	move	s5,v0
80003cf4:	24840001 	addiu	a0,a0,1
80003cf8:	08000de5 	j	80003794 <_dtoa_r+0xd14>
80003cfc:	a0440000 	sb	a0,0(v0)
80003d00:	24020039 	li	v0,57
80003d04:	11020073 	beq	t0,v0,80003ed4 <_dtoa_r+0x1454>
80003d08:	00000000 	nop
80003d0c:	8fa90028 	lw	t1,40(sp)
80003d10:	25080001 	addiu	t0,t0,1
80003d14:	a1280000 	sb	t0,0(t1)
80003d18:	25370001 	addiu	s7,t1,1
80003d1c:	08000de5 	j	80003794 <_dtoa_r+0xd14>
80003d20:	afb5002c 	sw	s5,44(sp)
80003d24:	08000dcd 	j	80003734 <_dtoa_r+0xcb4>
80003d28:	afb5002c 	sw	s5,44(sp)
80003d2c:	3c038001 	lui	v1,0x8001
80003d30:	2463a9c0 	addiu	v1,v1,-22080
80003d34:	000530c0 	sll	a2,a1,0x3
80003d38:	00c33021 	addu	a2,a2,v1
80003d3c:	444af800 	cfc1	t2,$31
80003d40:	444af800 	cfc1	t2,$31
80003d44:	00000000 	nop
80003d48:	35410003 	ori	at,t2,0x3
80003d4c:	38210002 	xori	at,at,0x2
80003d50:	44c1f800 	ctc1	at,$31
80003d54:	00000000 	nop
80003d58:	462021a4 	cvt.w.d	$f6,$f4
80003d5c:	44caf800 	ctc1	t2,$31
80003d60:	00000000 	nop
80003d64:	c4c20004 	lwc1	$f2,4(a2)
80003d68:	46803021 	cvt.d.w	$f0,$f6
80003d6c:	440b3000 	mfc1	t3,$f6
80003d70:	44893000 	mtc1	t1,$f6
80003d74:	c4c30000 	lwc1	$f3,0(a2)
80003d78:	44883800 	mtc1	t0,$f7
80003d7c:	25630030 	addiu	v1,t3,48
80003d80:	24060001 	li	a2,1
80003d84:	46261282 	mul.d	$f10,$f2,$f6
80003d88:	46202001 	sub.d	$f0,$f4,$f0
80003d8c:	a2430000 	sb	v1,0(s2)
80003d90:	10860018 	beq	a0,a2,80003df4 <_dtoa_r+0x1374>
80003d94:	26570001 	addiu	s7,s2,1
80003d98:	c78608ec 	lwc1	$f6,2284(gp)
80003d9c:	02442021 	addu	a0,s2,a0
80003da0:	c78708e8 	lwc1	$f7,2280(gp)
80003da4:	02e03021 	move	a2,s7
80003da8:	46260002 	mul.d	$f0,$f0,$f6
80003dac:	4448f800 	cfc1	t0,$31
80003db0:	4448f800 	cfc1	t0,$31
80003db4:	00000000 	nop
80003db8:	35010003 	ori	at,t0,0x3
80003dbc:	38210002 	xori	at,at,0x2
80003dc0:	44c1f800 	ctc1	at,$31
80003dc4:	00000000 	nop
80003dc8:	46200124 	cvt.w.d	$f4,$f0
80003dcc:	44c8f800 	ctc1	t0,$31
80003dd0:	00000000 	nop
80003dd4:	44092000 	mfc1	t1,$f4
80003dd8:	46802121 	cvt.d.w	$f4,$f4
80003ddc:	252a0030 	addiu	t2,t1,48
80003de0:	a0ca0000 	sb	t2,0(a2)
80003de4:	24c60001 	addiu	a2,a2,1
80003de8:	14c4ffef 	bne	a2,a0,80003da8 <_dtoa_r+0x1328>
80003dec:	46240001 	sub.d	$f0,$f0,$f4
80003df0:	02e5b821 	addu	s7,s7,a1
80003df4:	c7820904 	lwc1	$f2,2308(gp)
80003df8:	00000000 	nop
80003dfc:	c7830900 	lwc1	$f3,2304(gp)
80003e00:	00000000 	nop
80003e04:	46225100 	add.d	$f4,$f10,$f2
80003e08:	4620203c 	c.lt.d	$f4,$f0
80003e0c:	00000000 	nop
80003e10:	45000037 	bc1f	80003ef0 <_dtoa_r+0x1470>
80003e14:	00000000 	nop
80003e18:	82e5ffff 	lb	a1,-1(s7)
80003e1c:	08000cc0 	j	80003300 <_dtoa_r+0x880>
80003e20:	0040f021 	move	s8,v0
80003e24:	0000b021 	move	s6,zero
80003e28:	08000ec1 	j	80003b04 <_dtoa_r+0x1084>
80003e2c:	afa0002c 	sw	zero,44(sp)
80003e30:	08000ce1 	j	80003384 <_dtoa_r+0x904>
80003e34:	00001021 	move	v0,zero
80003e38:	8fa2001c 	lw	v0,28(sp)
80003e3c:	24030036 	li	v1,54
80003e40:	00621023 	subu	v0,v1,v0
80003e44:	0260b821 	move	s7,s3
80003e48:	08000ce1 	j	80003384 <_dtoa_r+0x904>
80003e4c:	02c01821 	move	v1,s6
80003e50:	24a40001 	addiu	a0,a1,1
80003e54:	00042600 	sll	a0,a0,0x18
80003e58:	00042603 	sra	a0,a0,0x18
80003e5c:	08000c34 	j	800030d0 <_dtoa_r+0x650>
80003e60:	a0440000 	sb	a0,0(v0)
80003e64:	46204106 	mov.d	$f4,$f8
80003e68:	08000bc5 	j	80002f14 <_dtoa_r+0x494>
80003e6c:	24080002 	li	t0,2
80003e70:	1280ff29 	beqz	s4,80003b18 <_dtoa_r+0x1098>
80003e74:	3c02fcc0 	lui	v0,0xfcc0
80003e78:	8fa30040 	lw	v1,64(sp)
80003e7c:	00000000 	nop
80003e80:	1860ff49 	blez	v1,80003ba8 <_dtoa_r+0x1128>
80003e84:	25080001 	addiu	t0,t0,1
80003e88:	c78608ec 	lwc1	$f6,2284(gp)
80003e8c:	00000000 	nop
80003e90:	c78708e8 	lwc1	$f7,2280(gp)
80003e94:	44881000 	mtc1	t0,$f2
80003e98:	46262102 	mul.d	$f4,$f4,$f6
80003e9c:	46801021 	cvt.d.w	$f0,$f2
80003ea0:	00602021 	move	a0,v1
80003ea4:	3c03fcc0 	lui	v1,0xfcc0
80003ea8:	27c2ffff 	addiu	v0,s8,-1
80003eac:	46202082 	mul.d	$f2,$f4,$f0
80003eb0:	c78008f4 	lwc1	$f0,2292(gp)
80003eb4:	00000000 	nop
80003eb8:	c78108f0 	lwc1	$f1,2288(gp)
80003ebc:	00000000 	nop
80003ec0:	46201180 	add.d	$f6,$f2,$f0
80003ec4:	44083800 	mfc1	t0,$f7
80003ec8:	44093000 	mfc1	t1,$f6
80003ecc:	08000be0 	j	80002f80 <_dtoa_r+0x500>
80003ed0:	00684021 	addu	t0,v1,t0
80003ed4:	8fa70028 	lw	a3,40(sp)
80003ed8:	24020039 	li	v0,57
80003edc:	a0e20000 	sb	v0,0(a3)
80003ee0:	24f70001 	addiu	s7,a3,1
80003ee4:	afb5002c 	sw	s5,44(sp)
80003ee8:	08000dda 	j	80003768 <_dtoa_r+0xce8>
80003eec:	24040039 	li	a0,57
80003ef0:	462a1081 	sub.d	$f2,$f2,$f10
80003ef4:	4622003c 	c.lt.d	$f0,$f2
80003ef8:	00000000 	nop
80003efc:	4500ff2a 	bc1f	80003ba8 <_dtoa_r+0x1128>
80003f00:	24060030 	li	a2,48
80003f04:	08000fc4 	j	80003f10 <_dtoa_r+0x1490>
80003f08:	00000000 	nop
80003f0c:	00a0b821 	move	s7,a1
80003f10:	82e4ffff 	lb	a0,-1(s7)
80003f14:	00000000 	nop
80003f18:	1086fffc 	beq	a0,a2,80003f0c <_dtoa_r+0x148c>
80003f1c:	26e5ffff 	addiu	a1,s7,-1
80003f20:	08000c34 	j	800030d0 <_dtoa_r+0x650>
80003f24:	0040f021 	move	s8,v0
80003f28:	08000cc0 	j	80003300 <_dtoa_r+0x880>
80003f2c:	0040f021 	move	s8,v0
80003f30:	1440fea7 	bnez	v0,800039d0 <_dtoa_r+0xf50>
80003f34:	31020001 	andi	v0,t0,0x1
80003f38:	1040fea5 	beqz	v0,800039d0 <_dtoa_r+0xf50>
80003f3c:	00000000 	nop
80003f40:	08000e70 	j	800039c0 <_dtoa_r+0xf40>
80003f44:	00000000 	nop
80003f48:	8fa5002c 	lw	a1,44(sp)
80003f4c:	02002021 	move	a0,s0
80003f50:	2406000a 	li	a2,10
80003f54:	0c001687 	jal	80005a1c <__multadd>
80003f58:	00003821 	move	a3,zero
80003f5c:	afa2002c 	sw	v0,44(sp)
80003f60:	8fb40040 	lw	s4,64(sp)
80003f64:	08000d40 	j	80003500 <_dtoa_r+0xa80>
80003f68:	00000000 	nop
80003f6c:	08000bc5 	j	80002f14 <_dtoa_r+0x494>
80003f70:	24080002 	li	t0,2
80003f74:	08000b78 	j	80002de0 <_dtoa_r+0x360>
80003f78:	24060001 	li	a2,1
80003f7c:	08000b95 	j	80002e54 <_dtoa_r+0x3d4>
80003f80:	00002821 	move	a1,zero
80003f84:	1064fd4e 	beq	v1,a0,800034c0 <_dtoa_r+0xa40>
80003f88:	2403003c 	li	v1,60
80003f8c:	08000dac 	j	800036b0 <_dtoa_r+0xc30>
80003f90:	00621023 	subu	v0,v1,v0

80003f94 <__sflush_r>:
80003f94:	84a2000c 	lh	v0,12(a1)
80003f98:	27bdffd8 	addiu	sp,sp,-40
80003f9c:	30430008 	andi	v1,v0,0x8
80003fa0:	00031c00 	sll	v1,v1,0x10
80003fa4:	00031c03 	sra	v1,v1,0x10
80003fa8:	afb30020 	sw	s3,32(sp)
80003fac:	afb10018 	sw	s1,24(sp)
80003fb0:	afbf0024 	sw	ra,36(sp)
80003fb4:	afb2001c 	sw	s2,28(sp)
80003fb8:	afb00014 	sw	s0,20(sp)
80003fbc:	00a08821 	move	s1,a1
80003fc0:	14600040 	bnez	v1,800040c4 <__sflush_r+0x130>
80003fc4:	00809821 	move	s3,a0
80003fc8:	8ca30004 	lw	v1,4(a1)
80003fcc:	34440800 	ori	a0,v0,0x800
80003fd0:	18600061 	blez	v1,80004158 <__sflush_r+0x1c4>
80003fd4:	a4a4000c 	sh	a0,12(a1)
80003fd8:	8e230028 	lw	v1,40(s1)
80003fdc:	00000000 	nop
80003fe0:	10600030 	beqz	v1,800040a4 <__sflush_r+0x110>
80003fe4:	30421000 	andi	v0,v0,0x1000
80003fe8:	00021400 	sll	v0,v0,0x10
80003fec:	00021403 	sra	v0,v0,0x10
80003ff0:	8e700000 	lw	s0,0(s3)
80003ff4:	1040005e 	beqz	v0,80004170 <__sflush_r+0x1dc>
80003ff8:	ae600000 	sw	zero,0(s3)
80003ffc:	8e260050 	lw	a2,80(s1)
80004000:	30840004 	andi	a0,a0,0x4
80004004:	00042400 	sll	a0,a0,0x10
80004008:	00042403 	sra	a0,a0,0x10
8000400c:	10800009 	beqz	a0,80004034 <__sflush_r+0xa0>
80004010:	00000000 	nop
80004014:	8e240004 	lw	a0,4(s1)
80004018:	8e220030 	lw	v0,48(s1)
8000401c:	00000000 	nop
80004020:	10400004 	beqz	v0,80004034 <__sflush_r+0xa0>
80004024:	00c43023 	subu	a2,a2,a0
80004028:	8e22003c 	lw	v0,60(s1)
8000402c:	00000000 	nop
80004030:	00c23023 	subu	a2,a2,v0
80004034:	8e25001c 	lw	a1,28(s1)
80004038:	02602021 	move	a0,s3
8000403c:	0060f809 	jalr	v1
80004040:	00003821 	move	a3,zero
80004044:	2403ffff 	li	v1,-1
80004048:	10430056 	beq	v0,v1,800041a4 <__sflush_r+0x210>
8000404c:	00000000 	nop
80004050:	8623000c 	lh	v1,12(s1)
80004054:	8e250010 	lw	a1,16(s1)
80004058:	30641000 	andi	a0,v1,0x1000
8000405c:	2406f7ff 	li	a2,-2049
80004060:	00042400 	sll	a0,a0,0x10
80004064:	00661824 	and	v1,v1,a2
80004068:	00042403 	sra	a0,a0,0x10
8000406c:	a623000c 	sh	v1,12(s1)
80004070:	ae200004 	sw	zero,4(s1)
80004074:	14800067 	bnez	a0,80004214 <__sflush_r+0x280>
80004078:	ae250000 	sw	a1,0(s1)
8000407c:	8e250030 	lw	a1,48(s1)
80004080:	00000000 	nop
80004084:	10a00007 	beqz	a1,800040a4 <__sflush_r+0x110>
80004088:	ae700000 	sw	s0,0(s3)
8000408c:	26220040 	addiu	v0,s1,64
80004090:	10a20003 	beq	a1,v0,800040a0 <__sflush_r+0x10c>
80004094:	00000000 	nop
80004098:	0c0011bd 	jal	800046f4 <_free_r>
8000409c:	02602021 	move	a0,s3
800040a0:	ae200030 	sw	zero,48(s1)
800040a4:	00001021 	move	v0,zero
800040a8:	8fbf0024 	lw	ra,36(sp)
800040ac:	8fb30020 	lw	s3,32(sp)
800040b0:	8fb2001c 	lw	s2,28(sp)
800040b4:	8fb10018 	lw	s1,24(sp)
800040b8:	8fb00014 	lw	s0,20(sp)
800040bc:	03e00008 	jr	ra
800040c0:	27bd0028 	addiu	sp,sp,40
800040c4:	8cb20010 	lw	s2,16(a1)
800040c8:	00000000 	nop
800040cc:	1240fff5 	beqz	s2,800040a4 <__sflush_r+0x110>
800040d0:	30420003 	andi	v0,v0,0x3
800040d4:	8cb00000 	lw	s0,0(a1)
800040d8:	00000000 	nop
800040dc:	02128023 	subu	s0,s0,s2
800040e0:	1440001b 	bnez	v0,80004150 <__sflush_r+0x1bc>
800040e4:	acb20000 	sw	s2,0(a1)
800040e8:	8ca20014 	lw	v0,20(a1)
800040ec:	1e000005 	bgtz	s0,80004104 <__sflush_r+0x170>
800040f0:	ae220008 	sw	v0,8(s1)
800040f4:	0800102a 	j	800040a8 <__sflush_r+0x114>
800040f8:	00001021 	move	v0,zero
800040fc:	1a00ffe9 	blez	s0,800040a4 <__sflush_r+0x110>
80004100:	02429021 	addu	s2,s2,v0
80004104:	8e220024 	lw	v0,36(s1)
80004108:	8e25001c 	lw	a1,28(s1)
8000410c:	02003821 	move	a3,s0
80004110:	02403021 	move	a2,s2
80004114:	0040f809 	jalr	v0
80004118:	02602021 	move	a0,s3
8000411c:	1c40fff7 	bgtz	v0,800040fc <__sflush_r+0x168>
80004120:	02028023 	subu	s0,s0,v0
80004124:	9623000c 	lhu	v1,12(s1)
80004128:	8fbf0024 	lw	ra,36(sp)
8000412c:	34630040 	ori	v1,v1,0x40
80004130:	a623000c 	sh	v1,12(s1)
80004134:	8fb30020 	lw	s3,32(sp)
80004138:	8fb2001c 	lw	s2,28(sp)
8000413c:	8fb10018 	lw	s1,24(sp)
80004140:	8fb00014 	lw	s0,20(sp)
80004144:	2402ffff 	li	v0,-1
80004148:	03e00008 	jr	ra
8000414c:	27bd0028 	addiu	sp,sp,40
80004150:	0800103b 	j	800040ec <__sflush_r+0x158>
80004154:	00001021 	move	v0,zero
80004158:	8ca3003c 	lw	v1,60(a1)
8000415c:	00000000 	nop
80004160:	1c60ff9d 	bgtz	v1,80003fd8 <__sflush_r+0x44>
80004164:	00000000 	nop
80004168:	0800102a 	j	800040a8 <__sflush_r+0x114>
8000416c:	00001021 	move	v0,zero
80004170:	8e25001c 	lw	a1,28(s1)
80004174:	00003021 	move	a2,zero
80004178:	02602021 	move	a0,s3
8000417c:	0060f809 	jalr	v1
80004180:	24070001 	li	a3,1
80004184:	00403021 	move	a2,v0
80004188:	2402ffff 	li	v0,-1
8000418c:	10c20015 	beq	a2,v0,800041e4 <__sflush_r+0x250>
80004190:	00000000 	nop
80004194:	8624000c 	lh	a0,12(s1)
80004198:	8e230028 	lw	v1,40(s1)
8000419c:	08001001 	j	80004004 <__sflush_r+0x70>
800041a0:	30840004 	andi	a0,a0,0x4
800041a4:	8e630000 	lw	v1,0(s3)
800041a8:	00000000 	nop
800041ac:	1060ffa8 	beqz	v1,80004050 <__sflush_r+0xbc>
800041b0:	00000000 	nop
800041b4:	2402001d 	li	v0,29
800041b8:	10620003 	beq	v1,v0,800041c8 <__sflush_r+0x234>
800041bc:	24020016 	li	v0,22
800041c0:	1462ffd8 	bne	v1,v0,80004124 <__sflush_r+0x190>
800041c4:	00000000 	nop
800041c8:	9623000c 	lhu	v1,12(s1)
800041cc:	8e220010 	lw	v0,16(s1)
800041d0:	3063f7ff 	andi	v1,v1,0xf7ff
800041d4:	a623000c 	sh	v1,12(s1)
800041d8:	ae200004 	sw	zero,4(s1)
800041dc:	0800101f 	j	8000407c <__sflush_r+0xe8>
800041e0:	ae220000 	sw	v0,0(s1)
800041e4:	8e620000 	lw	v0,0(s3)
800041e8:	00000000 	nop
800041ec:	1040ffe9 	beqz	v0,80004194 <__sflush_r+0x200>
800041f0:	00000000 	nop
800041f4:	2403001d 	li	v1,29
800041f8:	10430003 	beq	v0,v1,80004208 <__sflush_r+0x274>
800041fc:	24030016 	li	v1,22
80004200:	1443ffc8 	bne	v0,v1,80004124 <__sflush_r+0x190>
80004204:	00000000 	nop
80004208:	ae700000 	sw	s0,0(s3)
8000420c:	0800102a 	j	800040a8 <__sflush_r+0x114>
80004210:	00001021 	move	v0,zero
80004214:	0800101f 	j	8000407c <__sflush_r+0xe8>
80004218:	ae220050 	sw	v0,80(s1)

8000421c <_fflush_r>:
8000421c:	27bdffe0 	addiu	sp,sp,-32
80004220:	afb00018 	sw	s0,24(sp)
80004224:	afbf001c 	sw	ra,28(sp)
80004228:	10800005 	beqz	a0,80004240 <_fflush_r+0x24>
8000422c:	00808021 	move	s0,a0
80004230:	8c820038 	lw	v0,56(a0)
80004234:	00000000 	nop
80004238:	1040000e 	beqz	v0,80004274 <_fflush_r+0x58>
8000423c:	00000000 	nop
80004240:	84a2000c 	lh	v0,12(a1)
80004244:	00000000 	nop
80004248:	14400005 	bnez	v0,80004260 <_fflush_r+0x44>
8000424c:	00001021 	move	v0,zero
80004250:	8fbf001c 	lw	ra,28(sp)
80004254:	8fb00018 	lw	s0,24(sp)
80004258:	03e00008 	jr	ra
8000425c:	27bd0020 	addiu	sp,sp,32
80004260:	8fbf001c 	lw	ra,28(sp)
80004264:	02002021 	move	a0,s0
80004268:	8fb00018 	lw	s0,24(sp)
8000426c:	08000fe5 	j	80003f94 <__sflush_r>
80004270:	27bd0020 	addiu	sp,sp,32
80004274:	0c0010f4 	jal	800043d0 <__sinit>
80004278:	afa50010 	sw	a1,16(sp)
8000427c:	8fa50010 	lw	a1,16(sp)
80004280:	08001090 	j	80004240 <_fflush_r+0x24>
80004284:	00000000 	nop

80004288 <fflush>:
80004288:	10800004 	beqz	a0,8000429c <fflush+0x14>
8000428c:	00802821 	move	a1,a0
80004290:	8f8408b4 	lw	a0,2228(gp)
80004294:	08001087 	j	8000421c <_fflush_r>
80004298:	00000000 	nop
8000429c:	3c058000 	lui	a1,0x8000
800042a0:	8f8408b0 	lw	a0,2224(gp)
800042a4:	080012ab 	j	80004aac <_fwalk_reent>
800042a8:	24a5421c 	addiu	a1,a1,16924

800042ac <__fp_lock>:
800042ac:	03e00008 	jr	ra
800042b0:	00001021 	move	v0,zero

800042b4 <__fp_unlock>:
800042b4:	03e00008 	jr	ra
800042b8:	00001021 	move	v0,zero

800042bc <_cleanup_r>:
800042bc:	3c058001 	lui	a1,0x8001
800042c0:	08001279 	j	800049e4 <_fwalk>
800042c4:	24a58384 	addiu	a1,a1,-31868

800042c8 <std.isra.0>:
800042c8:	27bdffe8 	addiu	sp,sp,-24
800042cc:	afbf0014 	sw	ra,20(sp)
800042d0:	afb00010 	sw	s0,16(sp)
800042d4:	00808021 	move	s0,a0
800042d8:	a485000c 	sh	a1,12(a0)
800042dc:	a486000e 	sh	a2,14(a0)
800042e0:	ac800000 	sw	zero,0(a0)
800042e4:	ac800004 	sw	zero,4(a0)
800042e8:	ac800008 	sw	zero,8(a0)
800042ec:	ac800064 	sw	zero,100(a0)
800042f0:	ac800010 	sw	zero,16(a0)
800042f4:	ac800014 	sw	zero,20(a0)
800042f8:	ac800018 	sw	zero,24(a0)
800042fc:	00002821 	move	a1,zero
80004300:	2484005c 	addiu	a0,a0,92
80004304:	0c000076 	jal	800001d8 <memset>
80004308:	24060008 	li	a2,8
8000430c:	3c028000 	lui	v0,0x8000
80004310:	24426bcc 	addiu	v0,v0,27596
80004314:	ae020020 	sw	v0,32(s0)
80004318:	3c028000 	lui	v0,0x8000
8000431c:	24426c30 	addiu	v0,v0,27696
80004320:	ae020024 	sw	v0,36(s0)
80004324:	3c028000 	lui	v0,0x8000
80004328:	24426cb8 	addiu	v0,v0,27832
8000432c:	ae020028 	sw	v0,40(s0)
80004330:	8fbf0014 	lw	ra,20(sp)
80004334:	3c028000 	lui	v0,0x8000
80004338:	24426d1c 	addiu	v0,v0,27932
8000433c:	ae10001c 	sw	s0,28(s0)
80004340:	ae02002c 	sw	v0,44(s0)
80004344:	8fb00010 	lw	s0,16(sp)
80004348:	03e00008 	jr	ra
8000434c:	27bd0018 	addiu	sp,sp,24

80004350 <__sfmoreglue>:
80004350:	27bdffe0 	addiu	sp,sp,-32
80004354:	00051080 	sll	v0,a1,0x2
80004358:	afb20018 	sw	s2,24(sp)
8000435c:	00059100 	sll	s2,a1,0x4
80004360:	02429023 	subu	s2,s2,v0
80004364:	02459021 	addu	s2,s2,a1
80004368:	001290c0 	sll	s2,s2,0x3
8000436c:	afb10014 	sw	s1,20(sp)
80004370:	00a08821 	move	s1,a1
80004374:	afb00010 	sw	s0,16(sp)
80004378:	afbf001c 	sw	ra,28(sp)
8000437c:	0c001388 	jal	80004e20 <_malloc_r>
80004380:	2645000c 	addiu	a1,s2,12
80004384:	10400008 	beqz	v0,800043a8 <__sfmoreglue+0x58>
80004388:	00408021 	move	s0,v0
8000438c:	2444000c 	addiu	a0,v0,12
80004390:	ac400000 	sw	zero,0(v0)
80004394:	ac510004 	sw	s1,4(v0)
80004398:	ac440008 	sw	a0,8(v0)
8000439c:	00002821 	move	a1,zero
800043a0:	0c000076 	jal	800001d8 <memset>
800043a4:	02403021 	move	a2,s2
800043a8:	8fbf001c 	lw	ra,28(sp)
800043ac:	02001021 	move	v0,s0
800043b0:	8fb20018 	lw	s2,24(sp)
800043b4:	8fb10014 	lw	s1,20(sp)
800043b8:	8fb00010 	lw	s0,16(sp)
800043bc:	03e00008 	jr	ra
800043c0:	27bd0020 	addiu	sp,sp,32

800043c4 <_cleanup>:
800043c4:	8f8408b0 	lw	a0,2224(gp)
800043c8:	080010af 	j	800042bc <_cleanup_r>
800043cc:	00000000 	nop

800043d0 <__sinit>:
800043d0:	8c820038 	lw	v0,56(a0)
800043d4:	27bdffe8 	addiu	sp,sp,-24
800043d8:	afb00010 	sw	s0,16(sp)
800043dc:	afbf0014 	sw	ra,20(sp)
800043e0:	10400005 	beqz	v0,800043f8 <__sinit+0x28>
800043e4:	00808021 	move	s0,a0
800043e8:	8fbf0014 	lw	ra,20(sp)
800043ec:	8fb00010 	lw	s0,16(sp)
800043f0:	03e00008 	jr	ra
800043f4:	27bd0018 	addiu	sp,sp,24
800043f8:	3c038000 	lui	v1,0x8000
800043fc:	246342bc 	addiu	v1,v1,17084
80004400:	ae03003c 	sw	v1,60(s0)
80004404:	24030001 	li	v1,1
80004408:	260202ec 	addiu	v0,s0,748
8000440c:	ae030038 	sw	v1,56(s0)
80004410:	8c840004 	lw	a0,4(a0)
80004414:	24030003 	li	v1,3
80004418:	ae0302e4 	sw	v1,740(s0)
8000441c:	ae0202e8 	sw	v0,744(s0)
80004420:	24050004 	li	a1,4
80004424:	00003021 	move	a2,zero
80004428:	0c0010b2 	jal	800042c8 <std.isra.0>
8000442c:	ae0002e0 	sw	zero,736(s0)
80004430:	8e040008 	lw	a0,8(s0)
80004434:	24050009 	li	a1,9
80004438:	0c0010b2 	jal	800042c8 <std.isra.0>
8000443c:	24060001 	li	a2,1
80004440:	8e04000c 	lw	a0,12(s0)
80004444:	8fbf0014 	lw	ra,20(sp)
80004448:	8fb00010 	lw	s0,16(sp)
8000444c:	24050012 	li	a1,18
80004450:	24060002 	li	a2,2
80004454:	080010b2 	j	800042c8 <std.isra.0>
80004458:	27bd0018 	addiu	sp,sp,24

8000445c <__sfp>:
8000445c:	27bdffd8 	addiu	sp,sp,-40
80004460:	afb2001c 	sw	s2,28(sp)
80004464:	8f9208b0 	lw	s2,2224(gp)
80004468:	afb30020 	sw	s3,32(sp)
8000446c:	8e420038 	lw	v0,56(s2)
80004470:	afbf0024 	sw	ra,36(sp)
80004474:	afb10018 	sw	s1,24(sp)
80004478:	afb00014 	sw	s0,20(sp)
8000447c:	10400031 	beqz	v0,80004544 <__sfp+0xe8>
80004480:	00809821 	move	s3,a0
80004484:	265202e0 	addiu	s2,s2,736
80004488:	2411ffff 	li	s1,-1
8000448c:	8e420004 	lw	v0,4(s2)
80004490:	8e500008 	lw	s0,8(s2)
80004494:	2442ffff 	addiu	v0,v0,-1
80004498:	04410005 	bgez	v0,800044b0 <__sfp+0x54>
8000449c:	00000000 	nop
800044a0:	0800114b 	j	8000452c <__sfp+0xd0>
800044a4:	00000000 	nop
800044a8:	10510020 	beq	v0,s1,8000452c <__sfp+0xd0>
800044ac:	26100068 	addiu	s0,s0,104
800044b0:	8603000c 	lh	v1,12(s0)
800044b4:	00000000 	nop
800044b8:	1460fffb 	bnez	v1,800044a8 <__sfp+0x4c>
800044bc:	2442ffff 	addiu	v0,v0,-1
800044c0:	2402ffff 	li	v0,-1
800044c4:	a602000e 	sh	v0,14(s0)
800044c8:	24020001 	li	v0,1
800044cc:	a602000c 	sh	v0,12(s0)
800044d0:	ae000064 	sw	zero,100(s0)
800044d4:	ae000000 	sw	zero,0(s0)
800044d8:	ae000008 	sw	zero,8(s0)
800044dc:	ae000004 	sw	zero,4(s0)
800044e0:	ae000010 	sw	zero,16(s0)
800044e4:	ae000014 	sw	zero,20(s0)
800044e8:	ae000018 	sw	zero,24(s0)
800044ec:	2604005c 	addiu	a0,s0,92
800044f0:	00002821 	move	a1,zero
800044f4:	0c000076 	jal	800001d8 <memset>
800044f8:	24060008 	li	a2,8
800044fc:	ae000030 	sw	zero,48(s0)
80004500:	ae000034 	sw	zero,52(s0)
80004504:	ae000044 	sw	zero,68(s0)
80004508:	ae000048 	sw	zero,72(s0)
8000450c:	8fbf0024 	lw	ra,36(sp)
80004510:	02001021 	move	v0,s0
80004514:	8fb30020 	lw	s3,32(sp)
80004518:	8fb2001c 	lw	s2,28(sp)
8000451c:	8fb10018 	lw	s1,24(sp)
80004520:	8fb00014 	lw	s0,20(sp)
80004524:	03e00008 	jr	ra
80004528:	27bd0028 	addiu	sp,sp,40
8000452c:	8e420000 	lw	v0,0(s2)
80004530:	00000000 	nop
80004534:	10400007 	beqz	v0,80004554 <__sfp+0xf8>
80004538:	00000000 	nop
8000453c:	08001123 	j	8000448c <__sfp+0x30>
80004540:	00409021 	move	s2,v0
80004544:	0c0010f4 	jal	800043d0 <__sinit>
80004548:	02402021 	move	a0,s2
8000454c:	08001122 	j	80004488 <__sfp+0x2c>
80004550:	265202e0 	addiu	s2,s2,736
80004554:	02602021 	move	a0,s3
80004558:	0c0010d4 	jal	80004350 <__sfmoreglue>
8000455c:	24050004 	li	a1,4
80004560:	1440fff6 	bnez	v0,8000453c <__sfp+0xe0>
80004564:	ae420000 	sw	v0,0(s2)
80004568:	2402000c 	li	v0,12
8000456c:	ae620000 	sw	v0,0(s3)
80004570:	08001143 	j	8000450c <__sfp+0xb0>
80004574:	00008021 	move	s0,zero

80004578 <__sfp_lock_acquire>:
80004578:	03e00008 	jr	ra
8000457c:	00000000 	nop

80004580 <__sfp_lock_release>:
80004580:	03e00008 	jr	ra
80004584:	00000000 	nop

80004588 <__sinit_lock_acquire>:
80004588:	03e00008 	jr	ra
8000458c:	00000000 	nop

80004590 <__sinit_lock_release>:
80004590:	03e00008 	jr	ra
80004594:	00000000 	nop

80004598 <__fp_lock_all>:
80004598:	3c058000 	lui	a1,0x8000
8000459c:	8f8408b4 	lw	a0,2228(gp)
800045a0:	08001279 	j	800049e4 <_fwalk>
800045a4:	24a542ac 	addiu	a1,a1,17068

800045a8 <__fp_unlock_all>:
800045a8:	3c058000 	lui	a1,0x8000
800045ac:	8f8408b4 	lw	a0,2228(gp)
800045b0:	08001279 	j	800049e4 <_fwalk>
800045b4:	24a542b4 	addiu	a1,a1,17076

800045b8 <_malloc_trim_r>:
800045b8:	27bdffd8 	addiu	sp,sp,-40
800045bc:	afb10018 	sw	s1,24(sp)
800045c0:	3c118001 	lui	s1,0x8001
800045c4:	2631b4a0 	addiu	s1,s1,-19296
800045c8:	afb30020 	sw	s3,32(sp)
800045cc:	afb2001c 	sw	s2,28(sp)
800045d0:	afb00014 	sw	s0,20(sp)
800045d4:	00a09821 	move	s3,a1
800045d8:	afbf0024 	sw	ra,36(sp)
800045dc:	0c00164b 	jal	8000592c <__malloc_lock>
800045e0:	00808021 	move	s0,a0
800045e4:	8e220008 	lw	v0,8(s1)
800045e8:	00000000 	nop
800045ec:	8c520004 	lw	s2,4(v0)
800045f0:	2402fffc 	li	v0,-4
800045f4:	02429024 	and	s2,s2,v0
800045f8:	26420fef 	addiu	v0,s2,4079
800045fc:	00539823 	subu	s3,v0,s3
80004600:	00139b02 	srl	s3,s3,0xc
80004604:	2673ffff 	addiu	s3,s3,-1
80004608:	00139b00 	sll	s3,s3,0xc
8000460c:	2a621000 	slti	v0,s3,4096
80004610:	14400008 	bnez	v0,80004634 <_malloc_trim_r+0x7c>
80004614:	02002021 	move	a0,s0
80004618:	0c001adc 	jal	80006b70 <_sbrk_r>
8000461c:	00002821 	move	a1,zero
80004620:	8e230008 	lw	v1,8(s1)
80004624:	00000000 	nop
80004628:	00721821 	addu	v1,v1,s2
8000462c:	1043000b 	beq	v0,v1,8000465c <_malloc_trim_r+0xa4>
80004630:	02002021 	move	a0,s0
80004634:	0c00164d 	jal	80005934 <__malloc_unlock>
80004638:	02002021 	move	a0,s0
8000463c:	8fbf0024 	lw	ra,36(sp)
80004640:	8fb30020 	lw	s3,32(sp)
80004644:	8fb2001c 	lw	s2,28(sp)
80004648:	8fb10018 	lw	s1,24(sp)
8000464c:	8fb00014 	lw	s0,20(sp)
80004650:	00001021 	move	v0,zero
80004654:	03e00008 	jr	ra
80004658:	27bd0028 	addiu	sp,sp,40
8000465c:	0c001adc 	jal	80006b70 <_sbrk_r>
80004660:	00132823 	negu	a1,s3
80004664:	2403ffff 	li	v1,-1
80004668:	10430012 	beq	v0,v1,800046b4 <_malloc_trim_r+0xfc>
8000466c:	3c028001 	lui	v0,0x8001
80004670:	8c44b92c 	lw	a0,-18132(v0)
80004674:	8e230008 	lw	v1,8(s1)
80004678:	02539023 	subu	s2,s2,s3
8000467c:	36520001 	ori	s2,s2,0x1
80004680:	00939823 	subu	s3,a0,s3
80004684:	ac720004 	sw	s2,4(v1)
80004688:	02002021 	move	a0,s0
8000468c:	0c00164d 	jal	80005934 <__malloc_unlock>
80004690:	ac53b92c 	sw	s3,-18132(v0)
80004694:	8fbf0024 	lw	ra,36(sp)
80004698:	8fb30020 	lw	s3,32(sp)
8000469c:	8fb2001c 	lw	s2,28(sp)
800046a0:	8fb10018 	lw	s1,24(sp)
800046a4:	8fb00014 	lw	s0,20(sp)
800046a8:	24020001 	li	v0,1
800046ac:	03e00008 	jr	ra
800046b0:	27bd0028 	addiu	sp,sp,40
800046b4:	02002021 	move	a0,s0
800046b8:	0c001adc 	jal	80006b70 <_sbrk_r>
800046bc:	00002821 	move	a1,zero
800046c0:	8e230008 	lw	v1,8(s1)
800046c4:	00000000 	nop
800046c8:	00432023 	subu	a0,v0,v1
800046cc:	28850010 	slti	a1,a0,16
800046d0:	14a0ffd8 	bnez	a1,80004634 <_malloc_trim_r+0x7c>
800046d4:	34840001 	ori	a0,a0,0x1
800046d8:	8f85090c 	lw	a1,2316(gp)
800046dc:	00000000 	nop
800046e0:	00451023 	subu	v0,v0,a1
800046e4:	3c058001 	lui	a1,0x8001
800046e8:	aca2b92c 	sw	v0,-18132(a1)
800046ec:	0800118d 	j	80004634 <_malloc_trim_r+0x7c>
800046f0:	ac640004 	sw	a0,4(v1)

800046f4 <_free_r>:
800046f4:	27bdffe0 	addiu	sp,sp,-32
800046f8:	afb00014 	sw	s0,20(sp)
800046fc:	afbf001c 	sw	ra,28(sp)
80004700:	afb10018 	sw	s1,24(sp)
80004704:	10a0005b 	beqz	a1,80004874 <_free_r+0x180>
80004708:	00a08021 	move	s0,a1
8000470c:	0c00164b 	jal	8000592c <__malloc_lock>
80004710:	00808821 	move	s1,a0
80004714:	8e08fffc 	lw	t0,-4(s0)
80004718:	2402fffe 	li	v0,-2
8000471c:	01021024 	and	v0,t0,v0
80004720:	2606fff8 	addiu	a2,s0,-8
80004724:	3c078001 	lui	a3,0x8001
80004728:	00c21821 	addu	v1,a2,v0
8000472c:	24e7b4a0 	addiu	a3,a3,-19296
80004730:	8c690004 	lw	t1,4(v1)
80004734:	8ce40008 	lw	a0,8(a3)
80004738:	2405fffc 	li	a1,-4
8000473c:	01252824 	and	a1,t1,a1
80004740:	10830070 	beq	a0,v1,80004904 <_free_r+0x210>
80004744:	31080001 	andi	t0,t0,0x1
80004748:	1100003c 	beqz	t0,8000483c <_free_r+0x148>
8000474c:	ac650004 	sw	a1,4(v1)
80004750:	00002021 	move	a0,zero
80004754:	00654021 	addu	t0,v1,a1
80004758:	8d080004 	lw	t0,4(t0)
8000475c:	00000000 	nop
80004760:	31080001 	andi	t0,t0,0x1
80004764:	15000009 	bnez	t0,8000478c <_free_r+0x98>
80004768:	00000000 	nop
8000476c:	00451021 	addu	v0,v0,a1
80004770:	8c650008 	lw	a1,8(v1)
80004774:	10800057 	beqz	a0,800048d4 <_free_r+0x1e0>
80004778:	3c088001 	lui	t0,0x8001
8000477c:	8c63000c 	lw	v1,12(v1)
80004780:	00000000 	nop
80004784:	aca3000c 	sw	v1,12(a1)
80004788:	ac650008 	sw	a1,8(v1)
8000478c:	34450001 	ori	a1,v0,0x1
80004790:	00c21821 	addu	v1,a2,v0
80004794:	acc50004 	sw	a1,4(a2)
80004798:	14800022 	bnez	a0,80004824 <_free_r+0x130>
8000479c:	ac620000 	sw	v0,0(v1)
800047a0:	2c430200 	sltiu	v1,v0,512
800047a4:	14600038 	bnez	v1,80004888 <_free_r+0x194>
800047a8:	24080001 	li	t0,1
800047ac:	00021a42 	srl	v1,v0,0x9
800047b0:	2c640005 	sltiu	a0,v1,5
800047b4:	1080006a 	beqz	a0,80004960 <_free_r+0x26c>
800047b8:	2c640015 	sltiu	a0,v1,21
800047bc:	00022182 	srl	a0,v0,0x6
800047c0:	24840038 	addiu	a0,a0,56
800047c4:	00044040 	sll	t0,a0,0x1
800047c8:	00084080 	sll	t0,t0,0x2
800047cc:	00e84021 	addu	t0,a3,t0
800047d0:	8d030008 	lw	v1,8(t0)
800047d4:	00000000 	nop
800047d8:	10680065 	beq	v1,t0,80004970 <_free_r+0x27c>
800047dc:	00042083 	sra	a0,a0,0x2
800047e0:	2404fffc 	li	a0,-4
800047e4:	8c650004 	lw	a1,4(v1)
800047e8:	00000000 	nop
800047ec:	00a42824 	and	a1,a1,a0
800047f0:	0045282b 	sltu	a1,v0,a1
800047f4:	10a00005 	beqz	a1,8000480c <_free_r+0x118>
800047f8:	00000000 	nop
800047fc:	8c630008 	lw	v1,8(v1)
80004800:	00000000 	nop
80004804:	1503fff7 	bne	t0,v1,800047e4 <_free_r+0xf0>
80004808:	00000000 	nop
8000480c:	8c62000c 	lw	v0,12(v1)
80004810:	00000000 	nop
80004814:	acc2000c 	sw	v0,12(a2)
80004818:	acc30008 	sw	v1,8(a2)
8000481c:	ac66000c 	sw	a2,12(v1)
80004820:	ac460008 	sw	a2,8(v0)
80004824:	8fbf001c 	lw	ra,28(sp)
80004828:	8fb00014 	lw	s0,20(sp)
8000482c:	02202021 	move	a0,s1
80004830:	8fb10018 	lw	s1,24(sp)
80004834:	0800164d 	j	80005934 <__malloc_unlock>
80004838:	27bd0020 	addiu	sp,sp,32
8000483c:	8e04fff8 	lw	a0,-8(s0)
80004840:	00000000 	nop
80004844:	00c43023 	subu	a2,a2,a0
80004848:	00441021 	addu	v0,v0,a0
8000484c:	8cc80008 	lw	t0,8(a2)
80004850:	3c048001 	lui	a0,0x8001
80004854:	2484b4a8 	addiu	a0,a0,-19288
80004858:	1104003f 	beq	t0,a0,80004958 <_free_r+0x264>
8000485c:	00000000 	nop
80004860:	8cc9000c 	lw	t1,12(a2)
80004864:	00002021 	move	a0,zero
80004868:	ad09000c 	sw	t1,12(t0)
8000486c:	080011d5 	j	80004754 <_free_r+0x60>
80004870:	ad280008 	sw	t0,8(t1)
80004874:	8fbf001c 	lw	ra,28(sp)
80004878:	8fb10018 	lw	s1,24(sp)
8000487c:	8fb00014 	lw	s0,20(sp)
80004880:	03e00008 	jr	ra
80004884:	27bd0020 	addiu	sp,sp,32
80004888:	000210c2 	srl	v0,v0,0x3
8000488c:	000218c0 	sll	v1,v0,0x3
80004890:	00e31821 	addu	v1,a3,v1
80004894:	8c640008 	lw	a0,8(v1)
80004898:	8ce50004 	lw	a1,4(a3)
8000489c:	00021083 	sra	v0,v0,0x2
800048a0:	00481004 	sllv	v0,t0,v0
800048a4:	acc40008 	sw	a0,8(a2)
800048a8:	acc3000c 	sw	v1,12(a2)
800048ac:	8fbf001c 	lw	ra,28(sp)
800048b0:	ac86000c 	sw	a2,12(a0)
800048b4:	8fb00014 	lw	s0,20(sp)
800048b8:	00451025 	or	v0,v0,a1
800048bc:	02202021 	move	a0,s1
800048c0:	8fb10018 	lw	s1,24(sp)
800048c4:	ace20004 	sw	v0,4(a3)
800048c8:	ac660008 	sw	a2,8(v1)
800048cc:	0800164d 	j	80005934 <__malloc_unlock>
800048d0:	27bd0020 	addiu	sp,sp,32
800048d4:	2508b4a8 	addiu	t0,t0,-19288
800048d8:	14a8ffa8 	bne	a1,t0,8000477c <_free_r+0x88>
800048dc:	00000000 	nop
800048e0:	34440001 	ori	a0,v0,0x1
800048e4:	00c21821 	addu	v1,a2,v0
800048e8:	ace60014 	sw	a2,20(a3)
800048ec:	ace60010 	sw	a2,16(a3)
800048f0:	acc5000c 	sw	a1,12(a2)
800048f4:	acc50008 	sw	a1,8(a2)
800048f8:	acc40004 	sw	a0,4(a2)
800048fc:	08001209 	j	80004824 <_free_r+0x130>
80004900:	ac620000 	sw	v0,0(v1)
80004904:	15000009 	bnez	t0,8000492c <_free_r+0x238>
80004908:	00a21021 	addu	v0,a1,v0
8000490c:	8e05fff8 	lw	a1,-8(s0)
80004910:	00000000 	nop
80004914:	00c53023 	subu	a2,a2,a1
80004918:	8cc3000c 	lw	v1,12(a2)
8000491c:	8cc40008 	lw	a0,8(a2)
80004920:	00451021 	addu	v0,v0,a1
80004924:	ac83000c 	sw	v1,12(a0)
80004928:	ac640008 	sw	a0,8(v1)
8000492c:	8f850910 	lw	a1,2320(gp)
80004930:	34430001 	ori	v1,v0,0x1
80004934:	0045102b 	sltu	v0,v0,a1
80004938:	acc30004 	sw	v1,4(a2)
8000493c:	1440ffb9 	bnez	v0,80004824 <_free_r+0x130>
80004940:	ace60008 	sw	a2,8(a3)
80004944:	8f850968 	lw	a1,2408(gp)
80004948:	0c00116e 	jal	800045b8 <_malloc_trim_r>
8000494c:	02202021 	move	a0,s1
80004950:	08001209 	j	80004824 <_free_r+0x130>
80004954:	00000000 	nop
80004958:	080011d5 	j	80004754 <_free_r+0x60>
8000495c:	24040001 	li	a0,1
80004960:	1080000a 	beqz	a0,8000498c <_free_r+0x298>
80004964:	2464005b 	addiu	a0,v1,91
80004968:	080011f2 	j	800047c8 <_free_r+0xd4>
8000496c:	00044040 	sll	t0,a0,0x1
80004970:	8ce20004 	lw	v0,4(a3)
80004974:	24050001 	li	a1,1
80004978:	00852004 	sllv	a0,a1,a0
8000497c:	00821025 	or	v0,a0,v0
80004980:	ace20004 	sw	v0,4(a3)
80004984:	08001205 	j	80004814 <_free_r+0x120>
80004988:	00601021 	move	v0,v1
8000498c:	2c640055 	sltiu	a0,v1,85
80004990:	10800004 	beqz	a0,800049a4 <_free_r+0x2b0>
80004994:	00022302 	srl	a0,v0,0xc
80004998:	2484006e 	addiu	a0,a0,110
8000499c:	080011f2 	j	800047c8 <_free_r+0xd4>
800049a0:	00044040 	sll	t0,a0,0x1
800049a4:	2c640155 	sltiu	a0,v1,341
800049a8:	10800005 	beqz	a0,800049c0 <_free_r+0x2cc>
800049ac:	2c630555 	sltiu	v1,v1,1365
800049b0:	000223c2 	srl	a0,v0,0xf
800049b4:	24840077 	addiu	a0,a0,119
800049b8:	080011f2 	j	800047c8 <_free_r+0xd4>
800049bc:	00044040 	sll	t0,a0,0x1
800049c0:	10600005 	beqz	v1,800049d8 <_free_r+0x2e4>
800049c4:	00000000 	nop
800049c8:	00022482 	srl	a0,v0,0x12
800049cc:	2484007c 	addiu	a0,a0,124
800049d0:	080011f2 	j	800047c8 <_free_r+0xd4>
800049d4:	00044040 	sll	t0,a0,0x1
800049d8:	240800fc 	li	t0,252
800049dc:	080011f2 	j	800047c8 <_free_r+0xd4>
800049e0:	2404007e 	li	a0,126

800049e4 <_fwalk>:
800049e4:	27bdffd0 	addiu	sp,sp,-48
800049e8:	afb30020 	sw	s3,32(sp)
800049ec:	249302e0 	addiu	s3,a0,736
800049f0:	afbf002c 	sw	ra,44(sp)
800049f4:	afb50028 	sw	s5,40(sp)
800049f8:	afb40024 	sw	s4,36(sp)
800049fc:	afb2001c 	sw	s2,28(sp)
80004a00:	afb10018 	sw	s1,24(sp)
80004a04:	12600027 	beqz	s3,80004aa4 <_fwalk+0xc0>
80004a08:	afb00014 	sw	s0,20(sp)
80004a0c:	00a0a021 	move	s4,a1
80004a10:	0000a821 	move	s5,zero
80004a14:	2412ffff 	li	s2,-1
80004a18:	8e710004 	lw	s1,4(s3)
80004a1c:	8e700008 	lw	s0,8(s3)
80004a20:	2631ffff 	addiu	s1,s1,-1
80004a24:	06200011 	bltz	s1,80004a6c <_fwalk+0x88>
80004a28:	00000000 	nop
80004a2c:	8603000c 	lh	v1,12(s0)
80004a30:	2631ffff 	addiu	s1,s1,-1
80004a34:	3066ffff 	andi	a2,v1,0xffff
80004a38:	1060000a 	beqz	v1,80004a64 <_fwalk+0x80>
80004a3c:	2cc60002 	sltiu	a2,a2,2
80004a40:	14c00008 	bnez	a2,80004a64 <_fwalk+0x80>
80004a44:	00000000 	nop
80004a48:	8603000e 	lh	v1,14(s0)
80004a4c:	00000000 	nop
80004a50:	10720004 	beq	v1,s2,80004a64 <_fwalk+0x80>
80004a54:	02002021 	move	a0,s0
80004a58:	0280f809 	jalr	s4
80004a5c:	00000000 	nop
80004a60:	02a2a825 	or	s5,s5,v0
80004a64:	1632fff1 	bne	s1,s2,80004a2c <_fwalk+0x48>
80004a68:	26100068 	addiu	s0,s0,104
80004a6c:	8e730000 	lw	s3,0(s3)
80004a70:	00000000 	nop
80004a74:	1660ffe8 	bnez	s3,80004a18 <_fwalk+0x34>
80004a78:	00000000 	nop
80004a7c:	8fbf002c 	lw	ra,44(sp)
80004a80:	02a01021 	move	v0,s5
80004a84:	8fb40024 	lw	s4,36(sp)
80004a88:	8fb50028 	lw	s5,40(sp)
80004a8c:	8fb30020 	lw	s3,32(sp)
80004a90:	8fb2001c 	lw	s2,28(sp)
80004a94:	8fb10018 	lw	s1,24(sp)
80004a98:	8fb00014 	lw	s0,20(sp)
80004a9c:	03e00008 	jr	ra
80004aa0:	27bd0030 	addiu	sp,sp,48
80004aa4:	0800129f 	j	80004a7c <_fwalk+0x98>
80004aa8:	0000a821 	move	s5,zero

80004aac <_fwalk_reent>:
80004aac:	27bdffd0 	addiu	sp,sp,-48
80004ab0:	afb3001c 	sw	s3,28(sp)
80004ab4:	249302e0 	addiu	s3,a0,736
80004ab8:	afb60028 	sw	s6,40(sp)
80004abc:	afbf002c 	sw	ra,44(sp)
80004ac0:	afb50024 	sw	s5,36(sp)
80004ac4:	afb40020 	sw	s4,32(sp)
80004ac8:	afb20018 	sw	s2,24(sp)
80004acc:	afb10014 	sw	s1,20(sp)
80004ad0:	afb00010 	sw	s0,16(sp)
80004ad4:	12600028 	beqz	s3,80004b78 <_fwalk_reent+0xcc>
80004ad8:	0080b021 	move	s6,a0
80004adc:	00a0a021 	move	s4,a1
80004ae0:	0000a821 	move	s5,zero
80004ae4:	2412ffff 	li	s2,-1
80004ae8:	8e710004 	lw	s1,4(s3)
80004aec:	8e700008 	lw	s0,8(s3)
80004af0:	2631ffff 	addiu	s1,s1,-1
80004af4:	06200011 	bltz	s1,80004b3c <_fwalk_reent+0x90>
80004af8:	00000000 	nop
80004afc:	8603000c 	lh	v1,12(s0)
80004b00:	2631ffff 	addiu	s1,s1,-1
80004b04:	3066ffff 	andi	a2,v1,0xffff
80004b08:	1060000a 	beqz	v1,80004b34 <_fwalk_reent+0x88>
80004b0c:	2cc60002 	sltiu	a2,a2,2
80004b10:	14c00008 	bnez	a2,80004b34 <_fwalk_reent+0x88>
80004b14:	02002821 	move	a1,s0
80004b18:	8603000e 	lh	v1,14(s0)
80004b1c:	00000000 	nop
80004b20:	10720004 	beq	v1,s2,80004b34 <_fwalk_reent+0x88>
80004b24:	02c02021 	move	a0,s6
80004b28:	0280f809 	jalr	s4
80004b2c:	00000000 	nop
80004b30:	02a2a825 	or	s5,s5,v0
80004b34:	1632fff1 	bne	s1,s2,80004afc <_fwalk_reent+0x50>
80004b38:	26100068 	addiu	s0,s0,104
80004b3c:	8e730000 	lw	s3,0(s3)
80004b40:	00000000 	nop
80004b44:	1660ffe8 	bnez	s3,80004ae8 <_fwalk_reent+0x3c>
80004b48:	00000000 	nop
80004b4c:	8fbf002c 	lw	ra,44(sp)
80004b50:	02a01021 	move	v0,s5
80004b54:	8fb60028 	lw	s6,40(sp)
80004b58:	8fb50024 	lw	s5,36(sp)
80004b5c:	8fb40020 	lw	s4,32(sp)
80004b60:	8fb3001c 	lw	s3,28(sp)
80004b64:	8fb20018 	lw	s2,24(sp)
80004b68:	8fb10014 	lw	s1,20(sp)
80004b6c:	8fb00010 	lw	s0,16(sp)
80004b70:	03e00008 	jr	ra
80004b74:	27bd0030 	addiu	sp,sp,48
80004b78:	080012d3 	j	80004b4c <_fwalk_reent+0xa0>
80004b7c:	0000a821 	move	s5,zero

80004b80 <_setlocale_r>:
80004b80:	27bdffe0 	addiu	sp,sp,-32
80004b84:	afb00014 	sw	s0,20(sp)
80004b88:	afbf001c 	sw	ra,28(sp)
80004b8c:	afb10018 	sw	s1,24(sp)
80004b90:	10c00007 	beqz	a2,80004bb0 <_setlocale_r+0x30>
80004b94:	00c08021 	move	s0,a2
80004b98:	3c058001 	lui	a1,0x8001
80004b9c:	00c02021 	move	a0,a2
80004ba0:	0c001b4a 	jal	80006d28 <strcmp>
80004ba4:	24a5a964 	addiu	a1,a1,-22172
80004ba8:	14400009 	bnez	v0,80004bd0 <_setlocale_r+0x50>
80004bac:	3c118001 	lui	s1,0x8001
80004bb0:	3c118001 	lui	s1,0x8001
80004bb4:	2631a788 	addiu	s1,s1,-22648
80004bb8:	8fbf001c 	lw	ra,28(sp)
80004bbc:	02201021 	move	v0,s1
80004bc0:	8fb00014 	lw	s0,20(sp)
80004bc4:	8fb10018 	lw	s1,24(sp)
80004bc8:	03e00008 	jr	ra
80004bcc:	27bd0020 	addiu	sp,sp,32
80004bd0:	02002021 	move	a0,s0
80004bd4:	0c001b4a 	jal	80006d28 <strcmp>
80004bd8:	2625a788 	addiu	a1,s1,-22648
80004bdc:	1040fff5 	beqz	v0,80004bb4 <_setlocale_r+0x34>
80004be0:	02002021 	move	a0,s0
80004be4:	3c058001 	lui	a1,0x8001
80004be8:	0c001b4a 	jal	80006d28 <strcmp>
80004bec:	24a5a7ac 	addiu	a1,a1,-22612
80004bf0:	1040fff1 	beqz	v0,80004bb8 <_setlocale_r+0x38>
80004bf4:	2631a788 	addiu	s1,s1,-22648
80004bf8:	080012ee 	j	80004bb8 <_setlocale_r+0x38>
80004bfc:	00008821 	move	s1,zero

80004c00 <__locale_charset>:
80004c00:	3c028001 	lui	v0,0x8001
80004c04:	03e00008 	jr	ra
80004c08:	2442b428 	addiu	v0,v0,-19416

80004c0c <__locale_mb_cur_max>:
80004c0c:	8f820908 	lw	v0,2312(gp)
80004c10:	03e00008 	jr	ra
80004c14:	00000000 	nop

80004c18 <__locale_msgcharset>:
80004c18:	3c028001 	lui	v0,0x8001
80004c1c:	03e00008 	jr	ra
80004c20:	2442b448 	addiu	v0,v0,-19384

80004c24 <__locale_cjk_lang>:
80004c24:	03e00008 	jr	ra
80004c28:	00001021 	move	v0,zero

80004c2c <_localeconv_r>:
80004c2c:	3c028001 	lui	v0,0x8001
80004c30:	03e00008 	jr	ra
80004c34:	2442b468 	addiu	v0,v0,-19352

80004c38 <setlocale>:
80004c38:	00801021 	move	v0,a0
80004c3c:	8f8408b4 	lw	a0,2228(gp)
80004c40:	00a03021 	move	a2,a1
80004c44:	080012e0 	j	80004b80 <_setlocale_r>
80004c48:	00402821 	move	a1,v0

80004c4c <localeconv>:
80004c4c:	3c028001 	lui	v0,0x8001
80004c50:	03e00008 	jr	ra
80004c54:	2442b468 	addiu	v0,v0,-19352

80004c58 <__smakebuf_r>:
80004c58:	84a2000c 	lh	v0,12(a1)
80004c5c:	27bdff98 	addiu	sp,sp,-104
80004c60:	30430002 	andi	v1,v0,0x2
80004c64:	00031c00 	sll	v1,v1,0x10
80004c68:	00031c03 	sra	v1,v1,0x10
80004c6c:	afb00054 	sw	s0,84(sp)
80004c70:	afbf0064 	sw	ra,100(sp)
80004c74:	afb30060 	sw	s3,96(sp)
80004c78:	afb2005c 	sw	s2,92(sp)
80004c7c:	afb10058 	sw	s1,88(sp)
80004c80:	14600035 	bnez	v1,80004d58 <__smakebuf_r+0x100>
80004c84:	00a08021 	move	s0,a1
80004c88:	84a5000e 	lh	a1,14(a1)
80004c8c:	00000000 	nop
80004c90:	04a00027 	bltz	a1,80004d30 <__smakebuf_r+0xd8>
80004c94:	00808821 	move	s1,a0
80004c98:	0c002173 	jal	800085cc <_fstat_r>
80004c9c:	27a60010 	addiu	a2,sp,16
80004ca0:	04400021 	bltz	v0,80004d28 <__smakebuf_r+0xd0>
80004ca4:	34038000 	li	v1,0x8000
80004ca8:	8fa20014 	lw	v0,20(sp)
80004cac:	00000000 	nop
80004cb0:	3042f000 	andi	v0,v0,0xf000
80004cb4:	38532000 	xori	s3,v0,0x2000
80004cb8:	10430035 	beq	v0,v1,80004d90 <__smakebuf_r+0x138>
80004cbc:	2e730001 	sltiu	s3,s3,1
80004cc0:	9602000c 	lhu	v0,12(s0)
80004cc4:	24120400 	li	s2,1024
80004cc8:	34420800 	ori	v0,v0,0x800
80004ccc:	a602000c 	sh	v0,12(s0)
80004cd0:	02202021 	move	a0,s1
80004cd4:	0c001388 	jal	80004e20 <_malloc_r>
80004cd8:	02402821 	move	a1,s2
80004cdc:	10400042 	beqz	v0,80004de8 <__smakebuf_r+0x190>
80004ce0:	3c048000 	lui	a0,0x8000
80004ce4:	9603000c 	lhu	v1,12(s0)
80004ce8:	00000000 	nop
80004cec:	34630080 	ori	v1,v1,0x80
80004cf0:	248442bc 	addiu	a0,a0,17084
80004cf4:	ae24003c 	sw	a0,60(s1)
80004cf8:	a603000c 	sh	v1,12(s0)
80004cfc:	ae020000 	sw	v0,0(s0)
80004d00:	ae020010 	sw	v0,16(s0)
80004d04:	1660002e 	bnez	s3,80004dc0 <__smakebuf_r+0x168>
80004d08:	ae120014 	sw	s2,20(s0)
80004d0c:	8fbf0064 	lw	ra,100(sp)
80004d10:	8fb30060 	lw	s3,96(sp)
80004d14:	8fb2005c 	lw	s2,92(sp)
80004d18:	8fb10058 	lw	s1,88(sp)
80004d1c:	8fb00054 	lw	s0,84(sp)
80004d20:	03e00008 	jr	ra
80004d24:	27bd0068 	addiu	sp,sp,104
80004d28:	8602000c 	lh	v0,12(s0)
80004d2c:	00000000 	nop
80004d30:	30430080 	andi	v1,v0,0x80
80004d34:	00031c00 	sll	v1,v1,0x10
80004d38:	00031c03 	sra	v1,v1,0x10
80004d3c:	14600012 	bnez	v1,80004d88 <__smakebuf_r+0x130>
80004d40:	00000000 	nop
80004d44:	24120400 	li	s2,1024
80004d48:	34420800 	ori	v0,v0,0x800
80004d4c:	a602000c 	sh	v0,12(s0)
80004d50:	08001334 	j	80004cd0 <__smakebuf_r+0x78>
80004d54:	00009821 	move	s3,zero
80004d58:	24a20043 	addiu	v0,a1,67
80004d5c:	8fbf0064 	lw	ra,100(sp)
80004d60:	aca20000 	sw	v0,0(a1)
80004d64:	aca20010 	sw	v0,16(a1)
80004d68:	24020001 	li	v0,1
80004d6c:	8fb30060 	lw	s3,96(sp)
80004d70:	8fb2005c 	lw	s2,92(sp)
80004d74:	8fb10058 	lw	s1,88(sp)
80004d78:	8fb00054 	lw	s0,84(sp)
80004d7c:	aca20014 	sw	v0,20(a1)
80004d80:	03e00008 	jr	ra
80004d84:	27bd0068 	addiu	sp,sp,104
80004d88:	08001352 	j	80004d48 <__smakebuf_r+0xf0>
80004d8c:	24120040 	li	s2,64
80004d90:	3c028000 	lui	v0,0x8000
80004d94:	8e030028 	lw	v1,40(s0)
80004d98:	24426cb8 	addiu	v0,v0,27832
80004d9c:	1462ffc8 	bne	v1,v0,80004cc0 <__smakebuf_r+0x68>
80004da0:	24120400 	li	s2,1024
80004da4:	9602000c 	lhu	v0,12(s0)
80004da8:	00000000 	nop
80004dac:	34420400 	ori	v0,v0,0x400
80004db0:	a602000c 	sh	v0,12(s0)
80004db4:	24020400 	li	v0,1024
80004db8:	08001334 	j	80004cd0 <__smakebuf_r+0x78>
80004dbc:	ae02004c 	sw	v0,76(s0)
80004dc0:	8605000e 	lh	a1,14(s0)
80004dc4:	0c0022d6 	jal	80008b58 <_isatty_r>
80004dc8:	02202021 	move	a0,s1
80004dcc:	1040ffcf 	beqz	v0,80004d0c <__smakebuf_r+0xb4>
80004dd0:	00000000 	nop
80004dd4:	9602000c 	lhu	v0,12(s0)
80004dd8:	00000000 	nop
80004ddc:	34420001 	ori	v0,v0,0x1
80004de0:	08001343 	j	80004d0c <__smakebuf_r+0xb4>
80004de4:	a602000c 	sh	v0,12(s0)
80004de8:	8602000c 	lh	v0,12(s0)
80004dec:	00000000 	nop
80004df0:	30430200 	andi	v1,v0,0x200
80004df4:	00031c00 	sll	v1,v1,0x10
80004df8:	00031c03 	sra	v1,v1,0x10
80004dfc:	1460ffc3 	bnez	v1,80004d0c <__smakebuf_r+0xb4>
80004e00:	34420002 	ori	v0,v0,0x2
80004e04:	26030043 	addiu	v1,s0,67
80004e08:	a602000c 	sh	v0,12(s0)
80004e0c:	24020001 	li	v0,1
80004e10:	ae030000 	sw	v1,0(s0)
80004e14:	ae030010 	sw	v1,16(s0)
80004e18:	08001343 	j	80004d0c <__smakebuf_r+0xb4>
80004e1c:	ae020014 	sw	v0,20(s0)

80004e20 <_malloc_r>:
80004e20:	24a2000b 	addiu	v0,a1,11
80004e24:	27bdffc8 	addiu	sp,sp,-56
80004e28:	2c430017 	sltiu	v1,v0,23
80004e2c:	afb3001c 	sw	s3,28(sp)
80004e30:	afbf0034 	sw	ra,52(sp)
80004e34:	afbe0030 	sw	s8,48(sp)
80004e38:	afb7002c 	sw	s7,44(sp)
80004e3c:	afb60028 	sw	s6,40(sp)
80004e40:	afb50024 	sw	s5,36(sp)
80004e44:	afb40020 	sw	s4,32(sp)
80004e48:	afb20018 	sw	s2,24(sp)
80004e4c:	afb10014 	sw	s1,20(sp)
80004e50:	afb00010 	sw	s0,16(sp)
80004e54:	1460002c 	bnez	v1,80004f08 <_malloc_r+0xe8>
80004e58:	00809821 	move	s3,a0
80004e5c:	2411fff8 	li	s1,-8
80004e60:	00518824 	and	s1,v0,s1
80004e64:	0620002c 	bltz	s1,80004f18 <_malloc_r+0xf8>
80004e68:	0225282b 	sltu	a1,s1,a1
80004e6c:	14a0002b 	bnez	a1,80004f1c <_malloc_r+0xfc>
80004e70:	2402000c 	li	v0,12
80004e74:	0c00164b 	jal	8000592c <__malloc_lock>
80004e78:	02602021 	move	a0,s3
80004e7c:	2e2201f8 	sltiu	v0,s1,504
80004e80:	10400029 	beqz	v0,80004f28 <_malloc_r+0x108>
80004e84:	3c128001 	lui	s2,0x8001
80004e88:	2652b4a0 	addiu	s2,s2,-19296
80004e8c:	02511021 	addu	v0,s2,s1
80004e90:	8c50000c 	lw	s0,12(v0)
80004e94:	00000000 	nop
80004e98:	12020182 	beq	s0,v0,800054a4 <_malloc_r+0x684>
80004e9c:	001138c2 	srl	a3,s1,0x3
80004ea0:	8e030004 	lw	v1,4(s0)
80004ea4:	2402fffc 	li	v0,-4
80004ea8:	00621024 	and	v0,v1,v0
80004eac:	02021021 	addu	v0,s0,v0
80004eb0:	8c450004 	lw	a1,4(v0)
80004eb4:	8e040008 	lw	a0,8(s0)
80004eb8:	8e03000c 	lw	v1,12(s0)
80004ebc:	34a50001 	ori	a1,a1,0x1
80004ec0:	ac83000c 	sw	v1,12(a0)
80004ec4:	ac640008 	sw	a0,8(v1)
80004ec8:	ac450004 	sw	a1,4(v0)
80004ecc:	0c00164d 	jal	80005934 <__malloc_unlock>
80004ed0:	02602021 	move	a0,s3
80004ed4:	26020008 	addiu	v0,s0,8
80004ed8:	8fbf0034 	lw	ra,52(sp)
80004edc:	8fbe0030 	lw	s8,48(sp)
80004ee0:	8fb7002c 	lw	s7,44(sp)
80004ee4:	8fb60028 	lw	s6,40(sp)
80004ee8:	8fb50024 	lw	s5,36(sp)
80004eec:	8fb40020 	lw	s4,32(sp)
80004ef0:	8fb3001c 	lw	s3,28(sp)
80004ef4:	8fb20018 	lw	s2,24(sp)
80004ef8:	8fb10014 	lw	s1,20(sp)
80004efc:	8fb00010 	lw	s0,16(sp)
80004f00:	03e00008 	jr	ra
80004f04:	27bd0038 	addiu	sp,sp,56
80004f08:	24110010 	li	s1,16
80004f0c:	0225282b 	sltu	a1,s1,a1
80004f10:	10a0ffd8 	beqz	a1,80004e74 <_malloc_r+0x54>
80004f14:	00000000 	nop
80004f18:	2402000c 	li	v0,12
80004f1c:	ae620000 	sw	v0,0(s3)
80004f20:	080013b6 	j	80004ed8 <_malloc_r+0xb8>
80004f24:	00001021 	move	v0,zero
80004f28:	00112242 	srl	a0,s1,0x9
80004f2c:	10800084 	beqz	a0,80005140 <_malloc_r+0x320>
80004f30:	2c820005 	sltiu	v0,a0,5
80004f34:	1040010c 	beqz	v0,80005368 <_malloc_r+0x548>
80004f38:	2c820015 	sltiu	v0,a0,21
80004f3c:	00112182 	srl	a0,s1,0x6
80004f40:	24840038 	addiu	a0,a0,56
80004f44:	00043040 	sll	a2,a0,0x1
80004f48:	3c128001 	lui	s2,0x8001
80004f4c:	00063080 	sll	a2,a2,0x2
80004f50:	2652b4a0 	addiu	s2,s2,-19296
80004f54:	02463021 	addu	a2,s2,a2
80004f58:	8cd0000c 	lw	s0,12(a2)
80004f5c:	00000000 	nop
80004f60:	10d00019 	beq	a2,s0,80004fc8 <_malloc_r+0x1a8>
80004f64:	2402fffc 	li	v0,-4
80004f68:	8e030004 	lw	v1,4(s0)
80004f6c:	00000000 	nop
80004f70:	00621824 	and	v1,v1,v0
80004f74:	00711023 	subu	v0,v1,s1
80004f78:	28450010 	slti	a1,v0,16
80004f7c:	10a00073 	beqz	a1,8000514c <_malloc_r+0x32c>
80004f80:	00000000 	nop
80004f84:	0440000c 	bltz	v0,80004fb8 <_malloc_r+0x198>
80004f88:	2407fffc 	li	a3,-4
80004f8c:	08001456 	j	80005158 <_malloc_r+0x338>
80004f90:	02031821 	addu	v1,s0,v1
80004f94:	8e030004 	lw	v1,4(s0)
80004f98:	00000000 	nop
80004f9c:	00671824 	and	v1,v1,a3
80004fa0:	00711023 	subu	v0,v1,s1
80004fa4:	28450010 	slti	a1,v0,16
80004fa8:	10a00068 	beqz	a1,8000514c <_malloc_r+0x32c>
80004fac:	00000000 	nop
80004fb0:	04410068 	bgez	v0,80005154 <_malloc_r+0x334>
80004fb4:	00000000 	nop
80004fb8:	8e10000c 	lw	s0,12(s0)
80004fbc:	00000000 	nop
80004fc0:	14d0fff4 	bne	a2,s0,80004f94 <_malloc_r+0x174>
80004fc4:	00000000 	nop
80004fc8:	24870001 	addiu	a3,a0,1
80004fcc:	3c098001 	lui	t1,0x8001
80004fd0:	8e500010 	lw	s0,16(s2)
80004fd4:	2529b4a8 	addiu	t1,t1,-19288
80004fd8:	12090119 	beq	s0,t1,80005440 <_malloc_r+0x620>
80004fdc:	00000000 	nop
80004fe0:	8e030004 	lw	v1,4(s0)
80004fe4:	2402fffc 	li	v0,-4
80004fe8:	00621024 	and	v0,v1,v0
80004fec:	00511823 	subu	v1,v0,s1
80004ff0:	28640010 	slti	a0,v1,16
80004ff4:	10800104 	beqz	a0,80005408 <_malloc_r+0x5e8>
80004ff8:	34650001 	ori	a1,v1,0x1
80004ffc:	ae490014 	sw	t1,20(s2)
80005000:	04610060 	bgez	v1,80005184 <_malloc_r+0x364>
80005004:	ae490010 	sw	t1,16(s2)
80005008:	2c430200 	sltiu	v1,v0,512
8000500c:	106000de 	beqz	v1,80005388 <_malloc_r+0x568>
80005010:	00021a42 	srl	v1,v0,0x9
80005014:	000210c2 	srl	v0,v0,0x3
80005018:	000218c0 	sll	v1,v0,0x3
8000501c:	02431821 	addu	v1,s2,v1
80005020:	8e450004 	lw	a1,4(s2)
80005024:	00021083 	sra	v0,v0,0x2
80005028:	24060001 	li	a2,1
8000502c:	8c640008 	lw	a0,8(v1)
80005030:	00461004 	sllv	v0,a2,v0
80005034:	00451025 	or	v0,v0,a1
80005038:	ae03000c 	sw	v1,12(s0)
8000503c:	ae040008 	sw	a0,8(s0)
80005040:	ae420004 	sw	v0,4(s2)
80005044:	ac700008 	sw	s0,8(v1)
80005048:	ac90000c 	sw	s0,12(a0)
8000504c:	00071883 	sra	v1,a3,0x2
80005050:	24040001 	li	a0,1
80005054:	00642004 	sllv	a0,a0,v1
80005058:	0044182b 	sltu	v1,v0,a0
8000505c:	14600051 	bnez	v1,800051a4 <_malloc_r+0x384>
80005060:	00441824 	and	v1,v0,a0
80005064:	1460000c 	bnez	v1,80005098 <_malloc_r+0x278>
80005068:	2408fffc 	li	t0,-4
8000506c:	2403fffc 	li	v1,-4
80005070:	00042040 	sll	a0,a0,0x1
80005074:	00e33824 	and	a3,a3,v1
80005078:	00441824 	and	v1,v0,a0
8000507c:	14600006 	bnez	v1,80005098 <_malloc_r+0x278>
80005080:	24e70004 	addiu	a3,a3,4
80005084:	00042040 	sll	a0,a0,0x1
80005088:	00441824 	and	v1,v0,a0
8000508c:	1060fffd 	beqz	v1,80005084 <_malloc_r+0x264>
80005090:	24e70004 	addiu	a3,a3,4
80005094:	2408fffc 	li	t0,-4
80005098:	000758c0 	sll	t3,a3,0x3
8000509c:	024b5821 	addu	t3,s2,t3
800050a0:	01603021 	move	a2,t3
800050a4:	00e05021 	move	t2,a3
800050a8:	8cd0000c 	lw	s0,12(a2)
800050ac:	00000000 	nop
800050b0:	14d00009 	bne	a2,s0,800050d8 <_malloc_r+0x2b8>
800050b4:	00000000 	nop
800050b8:	08001514 	j	80005450 <_malloc_r+0x630>
800050bc:	254a0001 	addiu	t2,t2,1
800050c0:	044100ff 	bgez	v0,800054c0 <_malloc_r+0x6a0>
800050c4:	00000000 	nop
800050c8:	8e10000c 	lw	s0,12(s0)
800050cc:	00000000 	nop
800050d0:	10d000de 	beq	a2,s0,8000544c <_malloc_r+0x62c>
800050d4:	00000000 	nop
800050d8:	8e030004 	lw	v1,4(s0)
800050dc:	00000000 	nop
800050e0:	00681824 	and	v1,v1,t0
800050e4:	00711023 	subu	v0,v1,s1
800050e8:	28450010 	slti	a1,v0,16
800050ec:	14a0fff4 	bnez	a1,800050c0 <_malloc_r+0x2a0>
800050f0:	00000000 	nop
800050f4:	02111821 	addu	v1,s0,s1
800050f8:	8e04000c 	lw	a0,12(s0)
800050fc:	8e050008 	lw	a1,8(s0)
80005100:	34470001 	ori	a3,v0,0x1
80005104:	00623021 	addu	a2,v1,v0
80005108:	36310001 	ori	s1,s1,0x1
8000510c:	aca4000c 	sw	a0,12(a1)
80005110:	ac850008 	sw	a1,8(a0)
80005114:	ae110004 	sw	s1,4(s0)
80005118:	ae430014 	sw	v1,20(s2)
8000511c:	ae430010 	sw	v1,16(s2)
80005120:	acc20000 	sw	v0,0(a2)
80005124:	ac69000c 	sw	t1,12(v1)
80005128:	ac690008 	sw	t1,8(v1)
8000512c:	ac670004 	sw	a3,4(v1)
80005130:	0c00164d 	jal	80005934 <__malloc_unlock>
80005134:	02602021 	move	a0,s3
80005138:	080013b6 	j	80004ed8 <_malloc_r+0xb8>
8000513c:	26020008 	addiu	v0,s0,8
80005140:	001120c2 	srl	a0,s1,0x3
80005144:	080013d2 	j	80004f48 <_malloc_r+0x128>
80005148:	00043040 	sll	a2,a0,0x1
8000514c:	080013f2 	j	80004fc8 <_malloc_r+0x1a8>
80005150:	2484ffff 	addiu	a0,a0,-1
80005154:	02031821 	addu	v1,s0,v1
80005158:	8c650004 	lw	a1,4(v1)
8000515c:	8e02000c 	lw	v0,12(s0)
80005160:	8e040008 	lw	a0,8(s0)
80005164:	34a50001 	ori	a1,a1,0x1
80005168:	ac82000c 	sw	v0,12(a0)
8000516c:	ac440008 	sw	a0,8(v0)
80005170:	ac650004 	sw	a1,4(v1)
80005174:	0c00164d 	jal	80005934 <__malloc_unlock>
80005178:	02602021 	move	a0,s3
8000517c:	080013b6 	j	80004ed8 <_malloc_r+0xb8>
80005180:	26020008 	addiu	v0,s0,8
80005184:	02021021 	addu	v0,s0,v0
80005188:	8c430004 	lw	v1,4(v0)
8000518c:	02602021 	move	a0,s3
80005190:	34630001 	ori	v1,v1,0x1
80005194:	0c00164d 	jal	80005934 <__malloc_unlock>
80005198:	ac430004 	sw	v1,4(v0)
8000519c:	080013b6 	j	80004ed8 <_malloc_r+0xb8>
800051a0:	26020008 	addiu	v0,s0,8
800051a4:	8e500008 	lw	s0,8(s2)
800051a8:	2402fffc 	li	v0,-4
800051ac:	8e150004 	lw	s5,4(s0)
800051b0:	00000000 	nop
800051b4:	02a2a824 	and	s5,s5,v0
800051b8:	02b1102b 	sltu	v0,s5,s1
800051bc:	14400004 	bnez	v0,800051d0 <_malloc_r+0x3b0>
800051c0:	02b11023 	subu	v0,s5,s1
800051c4:	28430010 	slti	v1,v0,16
800051c8:	1060005e 	beqz	v1,80005344 <_malloc_r+0x524>
800051cc:	02111821 	addu	v1,s0,s1
800051d0:	8f970968 	lw	s7,2408(gp)
800051d4:	8f83090c 	lw	v1,2316(gp)
800051d8:	2402ffff 	li	v0,-1
800051dc:	0215f021 	addu	s8,s0,s5
800051e0:	106200f1 	beq	v1,v0,800055a8 <_malloc_r+0x788>
800051e4:	0237b821 	addu	s7,s1,s7
800051e8:	26f7100f 	addiu	s7,s7,4111
800051ec:	2402f000 	li	v0,-4096
800051f0:	02e2b824 	and	s7,s7,v0
800051f4:	02602021 	move	a0,s3
800051f8:	0c001adc 	jal	80006b70 <_sbrk_r>
800051fc:	02e02821 	move	a1,s7
80005200:	0040a021 	move	s4,v0
80005204:	2402ffff 	li	v0,-1
80005208:	128200c1 	beq	s4,v0,80005510 <_malloc_r+0x6f0>
8000520c:	00000000 	nop
80005210:	029e102b 	sltu	v0,s4,s8
80005214:	144000bc 	bnez	v0,80005508 <_malloc_r+0x6e8>
80005218:	3c168001 	lui	s6,0x8001
8000521c:	8ec2b92c 	lw	v0,-18132(s6)
80005220:	00000000 	nop
80005224:	02e21021 	addu	v0,s7,v0
80005228:	13d400ed 	beq	s8,s4,800055e0 <_malloc_r+0x7c0>
8000522c:	aec2b92c 	sw	v0,-18132(s6)
80005230:	8f84090c 	lw	a0,2316(gp)
80005234:	2403ffff 	li	v1,-1
80005238:	108300f0 	beq	a0,v1,800055fc <_malloc_r+0x7dc>
8000523c:	029ef023 	subu	s8,s4,s8
80005240:	005e1021 	addu	v0,v0,s8
80005244:	aec2b92c 	sw	v0,-18132(s6)
80005248:	32820007 	andi	v0,s4,0x7
8000524c:	104000c1 	beqz	v0,80005554 <_malloc_r+0x734>
80005250:	24031008 	li	v1,4104
80005254:	0282a023 	subu	s4,s4,v0
80005258:	26940008 	addiu	s4,s4,8
8000525c:	00621023 	subu	v0,v1,v0
80005260:	02971821 	addu	v1,s4,s7
80005264:	30630fff 	andi	v1,v1,0xfff
80005268:	0043b823 	subu	s7,v0,v1
8000526c:	02602021 	move	a0,s3
80005270:	0c001adc 	jal	80006b70 <_sbrk_r>
80005274:	02e02821 	move	a1,s7
80005278:	2403ffff 	li	v1,-1
8000527c:	104300e8 	beq	v0,v1,80005620 <_malloc_r+0x800>
80005280:	00541023 	subu	v0,v0,s4
80005284:	02e21821 	addu	v1,s7,v0
80005288:	34630001 	ori	v1,v1,0x1
8000528c:	8ec2b92c 	lw	v0,-18132(s6)
80005290:	ae540008 	sw	s4,8(s2)
80005294:	02e21021 	addu	v0,s7,v0
80005298:	aec2b92c 	sw	v0,-18132(s6)
8000529c:	12120010 	beq	s0,s2,800052e0 <_malloc_r+0x4c0>
800052a0:	ae830004 	sw	v1,4(s4)
800052a4:	2ea30010 	sltiu	v1,s5,16
800052a8:	146000b3 	bnez	v1,80005578 <_malloc_r+0x758>
800052ac:	26b5fff4 	addiu	s5,s5,-12
800052b0:	8e060004 	lw	a2,4(s0)
800052b4:	2403fff8 	li	v1,-8
800052b8:	02a31824 	and	v1,s5,v1
800052bc:	30c60001 	andi	a2,a2,0x1
800052c0:	02032021 	addu	a0,s0,v1
800052c4:	24050005 	li	a1,5
800052c8:	00663025 	or	a2,v1,a2
800052cc:	2c630010 	sltiu	v1,v1,16
800052d0:	ae060004 	sw	a2,4(s0)
800052d4:	ac850004 	sw	a1,4(a0)
800052d8:	106000ca 	beqz	v1,80005604 <_malloc_r+0x7e4>
800052dc:	ac850008 	sw	a1,8(a0)
800052e0:	8f830964 	lw	v1,2404(gp)
800052e4:	00000000 	nop
800052e8:	0062182b 	sltu	v1,v1,v0
800052ec:	10600002 	beqz	v1,800052f8 <_malloc_r+0x4d8>
800052f0:	00000000 	nop
800052f4:	af820964 	sw	v0,2404(gp)
800052f8:	8f830960 	lw	v1,2400(gp)
800052fc:	8e500008 	lw	s0,8(s2)
80005300:	0062182b 	sltu	v1,v1,v0
80005304:	106000aa 	beqz	v1,800055b0 <_malloc_r+0x790>
80005308:	00000000 	nop
8000530c:	8e030004 	lw	v1,4(s0)
80005310:	af820960 	sw	v0,2400(gp)
80005314:	2402fffc 	li	v0,-4
80005318:	00621024 	and	v0,v1,v0
8000531c:	0051182b 	sltu	v1,v0,s1
80005320:	14600004 	bnez	v1,80005334 <_malloc_r+0x514>
80005324:	00511023 	subu	v0,v0,s1
80005328:	28430010 	slti	v1,v0,16
8000532c:	10600005 	beqz	v1,80005344 <_malloc_r+0x524>
80005330:	02111821 	addu	v1,s0,s1
80005334:	0c00164d 	jal	80005934 <__malloc_unlock>
80005338:	02602021 	move	a0,s3
8000533c:	080013b6 	j	80004ed8 <_malloc_r+0xb8>
80005340:	00001021 	move	v0,zero
80005344:	34420001 	ori	v0,v0,0x1
80005348:	36310001 	ori	s1,s1,0x1
8000534c:	ae110004 	sw	s1,4(s0)
80005350:	02602021 	move	a0,s3
80005354:	ac620004 	sw	v0,4(v1)
80005358:	0c00164d 	jal	80005934 <__malloc_unlock>
8000535c:	ae430008 	sw	v1,8(s2)
80005360:	080013b6 	j	80004ed8 <_malloc_r+0xb8>
80005364:	26020008 	addiu	v0,s0,8
80005368:	14400061 	bnez	v0,800054f0 <_malloc_r+0x6d0>
8000536c:	2c820055 	sltiu	v0,a0,85
80005370:	10400072 	beqz	v0,8000553c <_malloc_r+0x71c>
80005374:	2c820155 	sltiu	v0,a0,341
80005378:	00112302 	srl	a0,s1,0xc
8000537c:	2484006e 	addiu	a0,a0,110
80005380:	080013d2 	j	80004f48 <_malloc_r+0x128>
80005384:	00043040 	sll	a2,a0,0x1
80005388:	2c640005 	sltiu	a0,v1,5
8000538c:	1480005b 	bnez	a0,800054fc <_malloc_r+0x6dc>
80005390:	00022182 	srl	a0,v0,0x6
80005394:	2c640015 	sltiu	a0,v1,21
80005398:	10800089 	beqz	a0,800055c0 <_malloc_r+0x7a0>
8000539c:	2c640055 	sltiu	a0,v1,85
800053a0:	2464005b 	addiu	a0,v1,91
800053a4:	00042840 	sll	a1,a0,0x1
800053a8:	00052880 	sll	a1,a1,0x2
800053ac:	02452821 	addu	a1,s2,a1
800053b0:	8ca30008 	lw	v1,8(a1)
800053b4:	00000000 	nop
800053b8:	10650068 	beq	v1,a1,8000555c <_malloc_r+0x73c>
800053bc:	00042083 	sra	a0,a0,0x2
800053c0:	2406fffc 	li	a2,-4
800053c4:	8c640004 	lw	a0,4(v1)
800053c8:	00000000 	nop
800053cc:	00862024 	and	a0,a0,a2
800053d0:	0044202b 	sltu	a0,v0,a0
800053d4:	10800005 	beqz	a0,800053ec <_malloc_r+0x5cc>
800053d8:	00000000 	nop
800053dc:	8c630008 	lw	v1,8(v1)
800053e0:	00000000 	nop
800053e4:	14a3fff7 	bne	a1,v1,800053c4 <_malloc_r+0x5a4>
800053e8:	00000000 	nop
800053ec:	8c64000c 	lw	a0,12(v1)
800053f0:	8e420004 	lw	v0,4(s2)
800053f4:	ae04000c 	sw	a0,12(s0)
800053f8:	ae030008 	sw	v1,8(s0)
800053fc:	ac70000c 	sw	s0,12(v1)
80005400:	08001413 	j	8000504c <_malloc_r+0x22c>
80005404:	ac900008 	sw	s0,8(a0)
80005408:	02111021 	addu	v0,s0,s1
8000540c:	00432021 	addu	a0,v0,v1
80005410:	36310001 	ori	s1,s1,0x1
80005414:	ae420014 	sw	v0,20(s2)
80005418:	ae420010 	sw	v0,16(s2)
8000541c:	ae110004 	sw	s1,4(s0)
80005420:	ac49000c 	sw	t1,12(v0)
80005424:	ac490008 	sw	t1,8(v0)
80005428:	ac450004 	sw	a1,4(v0)
8000542c:	ac830000 	sw	v1,0(a0)
80005430:	0c00164d 	jal	80005934 <__malloc_unlock>
80005434:	02602021 	move	a0,s3
80005438:	080013b6 	j	80004ed8 <_malloc_r+0xb8>
8000543c:	26020008 	addiu	v0,s0,8
80005440:	8e420004 	lw	v0,4(s2)
80005444:	08001414 	j	80005050 <_malloc_r+0x230>
80005448:	00071883 	sra	v1,a3,0x2
8000544c:	254a0001 	addiu	t2,t2,1
80005450:	31420003 	andi	v0,t2,0x3
80005454:	1440ff14 	bnez	v0,800050a8 <_malloc_r+0x288>
80005458:	24c60008 	addiu	a2,a2,8
8000545c:	30e30003 	andi	v1,a3,0x3
80005460:	1060007f 	beqz	v1,80005660 <_malloc_r+0x840>
80005464:	2562fff8 	addiu	v0,t3,-8
80005468:	8d6b0000 	lw	t3,0(t3)
8000546c:	00000000 	nop
80005470:	1162fffa 	beq	t3,v0,8000545c <_malloc_r+0x63c>
80005474:	24e7ffff 	addiu	a3,a3,-1
80005478:	8e420004 	lw	v0,4(s2)
8000547c:	00042040 	sll	a0,a0,0x1
80005480:	0044182b 	sltu	v1,v0,a0
80005484:	1460ff47 	bnez	v1,800051a4 <_malloc_r+0x384>
80005488:	00000000 	nop
8000548c:	1080ff45 	beqz	a0,800051a4 <_malloc_r+0x384>
80005490:	00441824 	and	v1,v0,a0
80005494:	10600023 	beqz	v1,80005524 <_malloc_r+0x704>
80005498:	01403821 	move	a3,t2
8000549c:	08001427 	j	8000509c <_malloc_r+0x27c>
800054a0:	000758c0 	sll	t3,a3,0x3
800054a4:	26020008 	addiu	v0,s0,8
800054a8:	8e100014 	lw	s0,20(s0)
800054ac:	00000000 	nop
800054b0:	1050fec6 	beq	v0,s0,80004fcc <_malloc_r+0x1ac>
800054b4:	24e70002 	addiu	a3,a3,2
800054b8:	080013a8 	j	80004ea0 <_malloc_r+0x80>
800054bc:	00000000 	nop
800054c0:	02031821 	addu	v1,s0,v1
800054c4:	8c650004 	lw	a1,4(v1)
800054c8:	8e02000c 	lw	v0,12(s0)
800054cc:	8e040008 	lw	a0,8(s0)
800054d0:	34a50001 	ori	a1,a1,0x1
800054d4:	ac82000c 	sw	v0,12(a0)
800054d8:	ac440008 	sw	a0,8(v0)
800054dc:	ac650004 	sw	a1,4(v1)
800054e0:	0c00164d 	jal	80005934 <__malloc_unlock>
800054e4:	02602021 	move	a0,s3
800054e8:	080013b6 	j	80004ed8 <_malloc_r+0xb8>
800054ec:	26020008 	addiu	v0,s0,8
800054f0:	2484005b 	addiu	a0,a0,91
800054f4:	080013d2 	j	80004f48 <_malloc_r+0x128>
800054f8:	00043040 	sll	a2,a0,0x1
800054fc:	24840038 	addiu	a0,a0,56
80005500:	080014ea 	j	800053a8 <_malloc_r+0x588>
80005504:	00042840 	sll	a1,a0,0x1
80005508:	1212ff44 	beq	s0,s2,8000521c <_malloc_r+0x3fc>
8000550c:	00000000 	nop
80005510:	8e500008 	lw	s0,8(s2)
80005514:	2402fffc 	li	v0,-4
80005518:	8e030004 	lw	v1,4(s0)
8000551c:	080014c7 	j	8000531c <_malloc_r+0x4fc>
80005520:	00621024 	and	v0,v1,v0
80005524:	00042040 	sll	a0,a0,0x1
80005528:	00441824 	and	v1,v0,a0
8000552c:	1060fffd 	beqz	v1,80005524 <_malloc_r+0x704>
80005530:	254a0004 	addiu	t2,t2,4
80005534:	08001426 	j	80005098 <_malloc_r+0x278>
80005538:	01403821 	move	a3,t2
8000553c:	10400013 	beqz	v0,8000558c <_malloc_r+0x76c>
80005540:	00000000 	nop
80005544:	001123c2 	srl	a0,s1,0xf
80005548:	24840077 	addiu	a0,a0,119
8000554c:	080013d2 	j	80004f48 <_malloc_r+0x128>
80005550:	00043040 	sll	a2,a0,0x1
80005554:	08001498 	j	80005260 <_malloc_r+0x440>
80005558:	24021000 	li	v0,4096
8000555c:	8e420004 	lw	v0,4(s2)
80005560:	24050001 	li	a1,1
80005564:	00852004 	sllv	a0,a1,a0
80005568:	00821025 	or	v0,a0,v0
8000556c:	ae420004 	sw	v0,4(s2)
80005570:	080014fd 	j	800053f4 <_malloc_r+0x5d4>
80005574:	00602021 	move	a0,v1
80005578:	24020001 	li	v0,1
8000557c:	ae820004 	sw	v0,4(s4)
80005580:	02808021 	move	s0,s4
80005584:	080014c7 	j	8000531c <_malloc_r+0x4fc>
80005588:	00001021 	move	v0,zero
8000558c:	2c840555 	sltiu	a0,a0,1365
80005590:	10800010 	beqz	a0,800055d4 <_malloc_r+0x7b4>
80005594:	00000000 	nop
80005598:	00112482 	srl	a0,s1,0x12
8000559c:	2484007c 	addiu	a0,a0,124
800055a0:	080013d2 	j	80004f48 <_malloc_r+0x128>
800055a4:	00043040 	sll	a2,a0,0x1
800055a8:	0800147d 	j	800051f4 <_malloc_r+0x3d4>
800055ac:	26f70010 	addiu	s7,s7,16
800055b0:	8e030004 	lw	v1,4(s0)
800055b4:	2402fffc 	li	v0,-4
800055b8:	080014c7 	j	8000531c <_malloc_r+0x4fc>
800055bc:	00621024 	and	v0,v1,v0
800055c0:	1080001a 	beqz	a0,8000562c <_malloc_r+0x80c>
800055c4:	00022302 	srl	a0,v0,0xc
800055c8:	2484006e 	addiu	a0,a0,110
800055cc:	080014ea 	j	800053a8 <_malloc_r+0x588>
800055d0:	00042840 	sll	a1,a0,0x1
800055d4:	240600fc 	li	a2,252
800055d8:	080013d2 	j	80004f48 <_malloc_r+0x128>
800055dc:	2404007e 	li	a0,126
800055e0:	33c30fff 	andi	v1,s8,0xfff
800055e4:	1460ff12 	bnez	v1,80005230 <_malloc_r+0x410>
800055e8:	02f52021 	addu	a0,s7,s5
800055ec:	8e430008 	lw	v1,8(s2)
800055f0:	34840001 	ori	a0,a0,0x1
800055f4:	080014b8 	j	800052e0 <_malloc_r+0x4c0>
800055f8:	ac640004 	sw	a0,4(v1)
800055fc:	08001492 	j	80005248 <_malloc_r+0x428>
80005600:	af94090c 	sw	s4,2316(gp)
80005604:	02602021 	move	a0,s3
80005608:	0c0011bd 	jal	800046f4 <_free_r>
8000560c:	26050008 	addiu	a1,s0,8
80005610:	3c028001 	lui	v0,0x8001
80005614:	8c42b92c 	lw	v0,-18132(v0)
80005618:	080014b8 	j	800052e0 <_malloc_r+0x4c0>
8000561c:	00000000 	nop
80005620:	24030001 	li	v1,1
80005624:	080014a3 	j	8000528c <_malloc_r+0x46c>
80005628:	0000b821 	move	s7,zero
8000562c:	2c640155 	sltiu	a0,v1,341
80005630:	10800005 	beqz	a0,80005648 <_malloc_r+0x828>
80005634:	2c630555 	sltiu	v1,v1,1365
80005638:	000223c2 	srl	a0,v0,0xf
8000563c:	24840077 	addiu	a0,a0,119
80005640:	080014ea 	j	800053a8 <_malloc_r+0x588>
80005644:	00042840 	sll	a1,a0,0x1
80005648:	1060000a 	beqz	v1,80005674 <_malloc_r+0x854>
8000564c:	00000000 	nop
80005650:	00022482 	srl	a0,v0,0x12
80005654:	2484007c 	addiu	a0,a0,124
80005658:	080014ea 	j	800053a8 <_malloc_r+0x588>
8000565c:	00042840 	sll	a1,a0,0x1
80005660:	8e420004 	lw	v0,4(s2)
80005664:	00041827 	nor	v1,zero,a0
80005668:	00621024 	and	v0,v1,v0
8000566c:	0800151f 	j	8000547c <_malloc_r+0x65c>
80005670:	ae420004 	sw	v0,4(s2)
80005674:	240500fc 	li	a1,252
80005678:	080014ea 	j	800053a8 <_malloc_r+0x588>
8000567c:	2404007e 	li	a0,126

80005680 <memchr>:
80005680:	30820003 	andi	v0,a0,0x3
80005684:	1040003e 	beqz	v0,80005780 <memchr+0x100>
80005688:	30a700ff 	andi	a3,a1,0xff
8000568c:	10c00022 	beqz	a2,80005718 <memchr+0x98>
80005690:	24c3ffff 	addiu	v1,a2,-1
80005694:	90820000 	lbu	v0,0(a0)
80005698:	00000000 	nop
8000569c:	1047003b 	beq	v0,a3,8000578c <memchr+0x10c>
800056a0:	00000000 	nop
800056a4:	080015b1 	j	800056c4 <memchr+0x44>
800056a8:	00801021 	move	v0,a0
800056ac:	1060001a 	beqz	v1,80005718 <memchr+0x98>
800056b0:	00000000 	nop
800056b4:	90440000 	lbu	a0,0(v0)
800056b8:	00000000 	nop
800056bc:	10870017 	beq	a0,a3,8000571c <memchr+0x9c>
800056c0:	2463ffff 	addiu	v1,v1,-1
800056c4:	24420001 	addiu	v0,v0,1
800056c8:	30440003 	andi	a0,v0,0x3
800056cc:	1480fff7 	bnez	a0,800056ac <memchr+0x2c>
800056d0:	00000000 	nop
800056d4:	2c640004 	sltiu	a0,v1,4
800056d8:	10800012 	beqz	a0,80005724 <memchr+0xa4>
800056dc:	3c08fefe 	lui	t0,0xfefe
800056e0:	1060000d 	beqz	v1,80005718 <memchr+0x98>
800056e4:	2465ffff 	addiu	a1,v1,-1
800056e8:	90430000 	lbu	v1,0(v0)
800056ec:	00000000 	nop
800056f0:	1067000a 	beq	v1,a3,8000571c <memchr+0x9c>
800056f4:	00001821 	move	v1,zero
800056f8:	080015c4 	j	80005710 <memchr+0x90>
800056fc:	00000000 	nop
80005700:	90440000 	lbu	a0,0(v0)
80005704:	00000000 	nop
80005708:	10870004 	beq	a0,a3,8000571c <memchr+0x9c>
8000570c:	24630001 	addiu	v1,v1,1
80005710:	14a3fffb 	bne	a1,v1,80005700 <memchr+0x80>
80005714:	24420001 	addiu	v0,v0,1
80005718:	00001021 	move	v0,zero
8000571c:	03e00008 	jr	ra
80005720:	00000000 	nop
80005724:	30a500ff 	andi	a1,a1,0xff
80005728:	00052200 	sll	a0,a1,0x8
8000572c:	00852025 	or	a0,a0,a1
80005730:	00044c00 	sll	t1,a0,0x10
80005734:	3c068080 	lui	a2,0x8080
80005738:	01244825 	or	t1,t1,a0
8000573c:	3508feff 	ori	t0,t0,0xfeff
80005740:	34c68080 	ori	a2,a2,0x8080
80005744:	8c440000 	lw	a0,0(v0)
80005748:	00000000 	nop
8000574c:	01242026 	xor	a0,t1,a0
80005750:	00882821 	addu	a1,a0,t0
80005754:	00042027 	nor	a0,zero,a0
80005758:	00a42024 	and	a0,a1,a0
8000575c:	00862024 	and	a0,a0,a2
80005760:	1480ffdf 	bnez	a0,800056e0 <memchr+0x60>
80005764:	00000000 	nop
80005768:	2463fffc 	addiu	v1,v1,-4
8000576c:	2c640004 	sltiu	a0,v1,4
80005770:	1080fff4 	beqz	a0,80005744 <memchr+0xc4>
80005774:	24420004 	addiu	v0,v0,4
80005778:	080015b8 	j	800056e0 <memchr+0x60>
8000577c:	00000000 	nop
80005780:	00801021 	move	v0,a0
80005784:	080015b5 	j	800056d4 <memchr+0x54>
80005788:	00c01821 	move	v1,a2
8000578c:	03e00008 	jr	ra
80005790:	00801021 	move	v0,a0

80005794 <memcpy>:
80005794:	00a41825 	or	v1,a1,a0
80005798:	30630003 	andi	v1,v1,0x3
8000579c:	1460002f 	bnez	v1,8000585c <memcpy+0xc8>
800057a0:	00801021 	move	v0,a0
800057a4:	00062102 	srl	a0,a2,0x4
800057a8:	1080005c 	beqz	a0,8000591c <memcpy+0x188>
800057ac:	30cd000f 	andi	t5,a2,0xf
800057b0:	00804021 	move	t0,a0
800057b4:	00a03821 	move	a3,a1
800057b8:	00401821 	move	v1,v0
800057bc:	8cec0000 	lw	t4,0(a3)
800057c0:	8ceb0004 	lw	t3,4(a3)
800057c4:	8cea0008 	lw	t2,8(a3)
800057c8:	8ce9000c 	lw	t1,12(a3)
800057cc:	2508ffff 	addiu	t0,t0,-1
800057d0:	ac6c0000 	sw	t4,0(v1)
800057d4:	ac6b0004 	sw	t3,4(v1)
800057d8:	ac6a0008 	sw	t2,8(v1)
800057dc:	ac69000c 	sw	t1,12(v1)
800057e0:	24e70010 	addiu	a3,a3,16
800057e4:	1500fff5 	bnez	t0,800057bc <memcpy+0x28>
800057e8:	24630010 	addiu	v1,v1,16
800057ec:	00041900 	sll	v1,a0,0x4
800057f0:	00a32821 	addu	a1,a1,v1
800057f4:	00431821 	addu	v1,v0,v1
800057f8:	000d5882 	srl	t3,t5,0x2
800057fc:	1160000d 	beqz	t3,80005834 <memcpy+0xa0>
80005800:	30c40003 	andi	a0,a2,0x3
80005804:	01604821 	move	t1,t3
80005808:	00a04021 	move	t0,a1
8000580c:	00603821 	move	a3,v1
80005810:	8d0a0000 	lw	t2,0(t0)
80005814:	2529ffff 	addiu	t1,t1,-1
80005818:	acea0000 	sw	t2,0(a3)
8000581c:	25080004 	addiu	t0,t0,4
80005820:	1520fffb 	bnez	t1,80005810 <memcpy+0x7c>
80005824:	24e70004 	addiu	a3,a3,4
80005828:	000b5880 	sll	t3,t3,0x2
8000582c:	006b1821 	addu	v1,v1,t3
80005830:	00ab2821 	addu	a1,a1,t3
80005834:	10800007 	beqz	a0,80005854 <memcpy+0xc0>
80005838:	00642021 	addu	a0,v1,a0
8000583c:	80a60000 	lb	a2,0(a1)
80005840:	00000000 	nop
80005844:	a0660000 	sb	a2,0(v1)
80005848:	24630001 	addiu	v1,v1,1
8000584c:	1464fffb 	bne	v1,a0,8000583c <memcpy+0xa8>
80005850:	24a50001 	addiu	a1,a1,1
80005854:	03e00008 	jr	ra
80005858:	00000000 	nop
8000585c:	04c00027 	bltz	a2,800058fc <memcpy+0x168>
80005860:	00c01821 	move	v1,a2
80005864:	3c048000 	lui	a0,0x8000
80005868:	24840003 	addiu	a0,a0,3
8000586c:	00c42024 	and	a0,a2,a0
80005870:	0480001b 	bltz	a0,800058e0 <memcpy+0x14c>
80005874:	00031883 	sra	v1,v1,0x2
80005878:	1060002a 	beqz	v1,80005924 <memcpy+0x190>
8000587c:	00000000 	nop
80005880:	00404821 	move	t1,v0
80005884:	00a04021 	move	t0,a1
80005888:	00603821 	move	a3,v1
8000588c:	24e7ffff 	addiu	a3,a3,-1
80005890:	890a0000 	lwl	t2,0(t0)
80005894:	990a0003 	lwr	t2,3(t0)
80005898:	25080004 	addiu	t0,t0,4
8000589c:	a92a0000 	swl	t2,0(t1)
800058a0:	b92a0003 	swr	t2,3(t1)
800058a4:	14e0fff9 	bnez	a3,8000588c <memcpy+0xf8>
800058a8:	25290004 	addiu	t1,t1,4
800058ac:	00031880 	sll	v1,v1,0x2
800058b0:	00a32821 	addu	a1,a1,v1
800058b4:	00431821 	addu	v1,v0,v1
800058b8:	1880ffe6 	blez	a0,80005854 <memcpy+0xc0>
800058bc:	00642021 	addu	a0,v1,a0
800058c0:	80a60000 	lb	a2,0(a1)
800058c4:	00000000 	nop
800058c8:	a0660000 	sb	a2,0(v1)
800058cc:	24630001 	addiu	v1,v1,1
800058d0:	1464fffb 	bne	v1,a0,800058c0 <memcpy+0x12c>
800058d4:	24a50001 	addiu	a1,a1,1
800058d8:	03e00008 	jr	ra
800058dc:	00000000 	nop
800058e0:	2484ffff 	addiu	a0,a0,-1
800058e4:	2406fffc 	li	a2,-4
800058e8:	00862025 	or	a0,a0,a2
800058ec:	1460ffe4 	bnez	v1,80005880 <memcpy+0xec>
800058f0:	24840001 	addiu	a0,a0,1
800058f4:	0800162e 	j	800058b8 <memcpy+0x124>
800058f8:	00401821 	move	v1,v0
800058fc:	3c048000 	lui	a0,0x8000
80005900:	24840003 	addiu	a0,a0,3
80005904:	24c30003 	addiu	v1,a2,3
80005908:	00c42024 	and	a0,a2,a0
8000590c:	0481ffda 	bgez	a0,80005878 <memcpy+0xe4>
80005910:	00031883 	sra	v1,v1,0x2
80005914:	08001639 	j	800058e4 <memcpy+0x150>
80005918:	2484ffff 	addiu	a0,a0,-1
8000591c:	080015fe 	j	800057f8 <memcpy+0x64>
80005920:	00401821 	move	v1,v0
80005924:	0800162e 	j	800058b8 <memcpy+0x124>
80005928:	00401821 	move	v1,v0

8000592c <__malloc_lock>:
8000592c:	03e00008 	jr	ra
80005930:	00000000 	nop

80005934 <__malloc_unlock>:
80005934:	03e00008 	jr	ra
80005938:	00000000 	nop

8000593c <_Balloc>:
8000593c:	8c82004c 	lw	v0,76(a0)
80005940:	27bdffe0 	addiu	sp,sp,-32
80005944:	afb10014 	sw	s1,20(sp)
80005948:	afb00010 	sw	s0,16(sp)
8000594c:	afbf001c 	sw	ra,28(sp)
80005950:	afb20018 	sw	s2,24(sp)
80005954:	00808021 	move	s0,a0
80005958:	10400012 	beqz	v0,800059a4 <_Balloc+0x68>
8000595c:	00a08821 	move	s1,a1
80005960:	00111880 	sll	v1,s1,0x2
80005964:	00431821 	addu	v1,v0,v1
80005968:	8c620000 	lw	v0,0(v1)
8000596c:	00000000 	nop
80005970:	10400013 	beqz	v0,800059c0 <_Balloc+0x84>
80005974:	24120001 	li	s2,1
80005978:	8c440000 	lw	a0,0(v0)
8000597c:	00000000 	nop
80005980:	ac640000 	sw	a0,0(v1)
80005984:	ac400010 	sw	zero,16(v0)
80005988:	ac40000c 	sw	zero,12(v0)
8000598c:	8fbf001c 	lw	ra,28(sp)
80005990:	8fb20018 	lw	s2,24(sp)
80005994:	8fb10014 	lw	s1,20(sp)
80005998:	8fb00010 	lw	s0,16(sp)
8000599c:	03e00008 	jr	ra
800059a0:	27bd0020 	addiu	sp,sp,32
800059a4:	24050004 	li	a1,4
800059a8:	0c002045 	jal	80008114 <_calloc_r>
800059ac:	24060021 	li	a2,33
800059b0:	1440ffeb 	bnez	v0,80005960 <_Balloc+0x24>
800059b4:	ae02004c 	sw	v0,76(s0)
800059b8:	08001663 	j	8000598c <_Balloc+0x50>
800059bc:	00001021 	move	v0,zero
800059c0:	02329004 	sllv	s2,s2,s1
800059c4:	26460005 	addiu	a2,s2,5
800059c8:	02002021 	move	a0,s0
800059cc:	24050001 	li	a1,1
800059d0:	0c002045 	jal	80008114 <_calloc_r>
800059d4:	00063080 	sll	a2,a2,0x2
800059d8:	1040fff7 	beqz	v0,800059b8 <_Balloc+0x7c>
800059dc:	00000000 	nop
800059e0:	ac510004 	sw	s1,4(v0)
800059e4:	08001661 	j	80005984 <_Balloc+0x48>
800059e8:	ac520008 	sw	s2,8(v0)

800059ec <_Bfree>:
800059ec:	10a00009 	beqz	a1,80005a14 <_Bfree+0x28>
800059f0:	00000000 	nop
800059f4:	8ca20004 	lw	v0,4(a1)
800059f8:	8c83004c 	lw	v1,76(a0)
800059fc:	00021080 	sll	v0,v0,0x2
80005a00:	00621021 	addu	v0,v1,v0
80005a04:	8c430000 	lw	v1,0(v0)
80005a08:	00000000 	nop
80005a0c:	aca30000 	sw	v1,0(a1)
80005a10:	ac450000 	sw	a1,0(v0)
80005a14:	03e00008 	jr	ra
80005a18:	00000000 	nop

80005a1c <__multadd>:
80005a1c:	27bdffd0 	addiu	sp,sp,-48
80005a20:	afb0001c 	sw	s0,28(sp)
80005a24:	8cb00010 	lw	s0,16(a1)
80005a28:	afb20024 	sw	s2,36(sp)
80005a2c:	afb10020 	sw	s1,32(sp)
80005a30:	afbf002c 	sw	ra,44(sp)
80005a34:	afb30028 	sw	s3,40(sp)
80005a38:	00a08821 	move	s1,a1
80005a3c:	00809021 	move	s2,a0
80005a40:	24a30014 	addiu	v1,a1,20
80005a44:	00004021 	move	t0,zero
80005a48:	8c6a0000 	lw	t2,0(v1)
80005a4c:	25080001 	addiu	t0,t0,1
80005a50:	3149ffff 	andi	t1,t2,0xffff
80005a54:	01260018 	mult	t1,a2
80005a58:	000a5402 	srl	t2,t2,0x10
80005a5c:	0110582a 	slt	t3,t0,s0
80005a60:	00001012 	mflo	v0
80005a64:	44821000 	mtc1	v0,$f2
80005a68:	00000000 	nop
80005a6c:	01460018 	mult	t2,a2
80005a70:	44021000 	mfc1	v0,$f2
80005a74:	00000000 	nop
80005a78:	00474821 	addu	t1,v0,a3
80005a7c:	00093c02 	srl	a3,t1,0x10
80005a80:	3129ffff 	andi	t1,t1,0xffff
80005a84:	00001012 	mflo	v0
80005a88:	00e23821 	addu	a3,a3,v0
80005a8c:	00075400 	sll	t2,a3,0x10
80005a90:	01494821 	addu	t1,t2,t1
80005a94:	ac690000 	sw	t1,0(v1)
80005a98:	00073c02 	srl	a3,a3,0x10
80005a9c:	1560ffea 	bnez	t3,80005a48 <__multadd+0x2c>
80005aa0:	24630004 	addiu	v1,v1,4
80005aa4:	10e0000c 	beqz	a3,80005ad8 <__multadd+0xbc>
80005aa8:	00000000 	nop
80005aac:	8e220008 	lw	v0,8(s1)
80005ab0:	00000000 	nop
80005ab4:	0202102a 	slt	v0,s0,v0
80005ab8:	1040000f 	beqz	v0,80005af8 <__multadd+0xdc>
80005abc:	02402021 	move	a0,s2
80005ac0:	26020004 	addiu	v0,s0,4
80005ac4:	00021080 	sll	v0,v0,0x2
80005ac8:	02221021 	addu	v0,s1,v0
80005acc:	26100001 	addiu	s0,s0,1
80005ad0:	ac470004 	sw	a3,4(v0)
80005ad4:	ae300010 	sw	s0,16(s1)
80005ad8:	8fbf002c 	lw	ra,44(sp)
80005adc:	02201021 	move	v0,s1
80005ae0:	8fb30028 	lw	s3,40(sp)
80005ae4:	8fb20024 	lw	s2,36(sp)
80005ae8:	8fb10020 	lw	s1,32(sp)
80005aec:	8fb0001c 	lw	s0,28(sp)
80005af0:	03e00008 	jr	ra
80005af4:	27bd0030 	addiu	sp,sp,48
80005af8:	8e250004 	lw	a1,4(s1)
80005afc:	00000000 	nop
80005b00:	24a50001 	addiu	a1,a1,1
80005b04:	0c00164f 	jal	8000593c <_Balloc>
80005b08:	afa70010 	sw	a3,16(sp)
80005b0c:	8e260010 	lw	a2,16(s1)
80005b10:	2625000c 	addiu	a1,s1,12
80005b14:	24c60002 	addiu	a2,a2,2
80005b18:	2444000c 	addiu	a0,v0,12
80005b1c:	00063080 	sll	a2,a2,0x2
80005b20:	0c0015e5 	jal	80005794 <memcpy>
80005b24:	00409821 	move	s3,v0
80005b28:	8e220004 	lw	v0,4(s1)
80005b2c:	8e43004c 	lw	v1,76(s2)
80005b30:	00021080 	sll	v0,v0,0x2
80005b34:	00621021 	addu	v0,v1,v0
80005b38:	8c430000 	lw	v1,0(v0)
80005b3c:	8fa70010 	lw	a3,16(sp)
80005b40:	ae230000 	sw	v1,0(s1)
80005b44:	ac510000 	sw	s1,0(v0)
80005b48:	080016b0 	j	80005ac0 <__multadd+0xa4>
80005b4c:	02608821 	move	s1,s3

80005b50 <__s2b>:
80005b50:	27bdffd0 	addiu	sp,sp,-48
80005b54:	24020009 	li	v0,9
80005b58:	afb2001c 	sw	s2,28(sp)
80005b5c:	00e09021 	move	s2,a3
80005b60:	24e70008 	addiu	a3,a3,8
80005b64:	14400002 	bnez	v0,80005b70 <__s2b+0x20>
80005b68:	00e2001a 	div	zero,a3,v0
80005b6c:	0007000d 	break	0x7
80005b70:	afb40024 	sw	s4,36(sp)
80005b74:	afb30020 	sw	s3,32(sp)
80005b78:	afb10018 	sw	s1,24(sp)
80005b7c:	afbf002c 	sw	ra,44(sp)
80005b80:	afb50028 	sw	s5,40(sp)
80005b84:	afb00014 	sw	s0,20(sp)
80005b88:	00808821 	move	s1,a0
80005b8c:	00a0a021 	move	s4,a1
80005b90:	00003812 	mflo	a3
80005b94:	28e20002 	slti	v0,a3,2
80005b98:	14400036 	bnez	v0,80005c74 <__s2b+0x124>
80005b9c:	00c09821 	move	s3,a2
80005ba0:	24020001 	li	v0,1
80005ba4:	00002821 	move	a1,zero
80005ba8:	00021040 	sll	v0,v0,0x1
80005bac:	0047402a 	slt	t0,v0,a3
80005bb0:	1500fffd 	bnez	t0,80005ba8 <__s2b+0x58>
80005bb4:	24a50001 	addiu	a1,a1,1
80005bb8:	0c00164f 	jal	8000593c <_Balloc>
80005bbc:	02202021 	move	a0,s1
80005bc0:	8fa40040 	lw	a0,64(sp)
80005bc4:	2a63000a 	slti	v1,s3,10
80005bc8:	ac440014 	sw	a0,20(v0)
80005bcc:	24040001 	li	a0,1
80005bd0:	14600025 	bnez	v1,80005c68 <__s2b+0x118>
80005bd4:	ac440010 	sw	a0,16(v0)
80005bd8:	26950009 	addiu	s5,s4,9
80005bdc:	02a08021 	move	s0,s5
80005be0:	0293a021 	addu	s4,s4,s3
80005be4:	82070000 	lb	a3,0(s0)
80005be8:	02202021 	move	a0,s1
80005bec:	26100001 	addiu	s0,s0,1
80005bf0:	00402821 	move	a1,v0
80005bf4:	2406000a 	li	a2,10
80005bf8:	0c001687 	jal	80005a1c <__multadd>
80005bfc:	24e7ffd0 	addiu	a3,a3,-48
80005c00:	1614fff8 	bne	s0,s4,80005be4 <__s2b+0x94>
80005c04:	00000000 	nop
80005c08:	02b38021 	addu	s0,s5,s3
80005c0c:	2610fff8 	addiu	s0,s0,-8
80005c10:	0272182a 	slt	v1,s3,s2
80005c14:	1060000b 	beqz	v1,80005c44 <__s2b+0xf4>
80005c18:	02539023 	subu	s2,s2,s3
80005c1c:	02129021 	addu	s2,s0,s2
80005c20:	82070000 	lb	a3,0(s0)
80005c24:	02202021 	move	a0,s1
80005c28:	26100001 	addiu	s0,s0,1
80005c2c:	00402821 	move	a1,v0
80005c30:	2406000a 	li	a2,10
80005c34:	0c001687 	jal	80005a1c <__multadd>
80005c38:	24e7ffd0 	addiu	a3,a3,-48
80005c3c:	1612fff8 	bne	s0,s2,80005c20 <__s2b+0xd0>
80005c40:	00000000 	nop
80005c44:	8fbf002c 	lw	ra,44(sp)
80005c48:	8fb50028 	lw	s5,40(sp)
80005c4c:	8fb40024 	lw	s4,36(sp)
80005c50:	8fb30020 	lw	s3,32(sp)
80005c54:	8fb2001c 	lw	s2,28(sp)
80005c58:	8fb10018 	lw	s1,24(sp)
80005c5c:	8fb00014 	lw	s0,20(sp)
80005c60:	03e00008 	jr	ra
80005c64:	27bd0030 	addiu	sp,sp,48
80005c68:	2690000a 	addiu	s0,s4,10
80005c6c:	08001704 	j	80005c10 <__s2b+0xc0>
80005c70:	24130009 	li	s3,9
80005c74:	080016ee 	j	80005bb8 <__s2b+0x68>
80005c78:	00002821 	move	a1,zero

80005c7c <__hi0bits>:
80005c7c:	3c02ffff 	lui	v0,0xffff
80005c80:	00821024 	and	v0,a0,v0
80005c84:	14400003 	bnez	v0,80005c94 <__hi0bits+0x18>
80005c88:	00001021 	move	v0,zero
80005c8c:	00042400 	sll	a0,a0,0x10
80005c90:	24020010 	li	v0,16
80005c94:	3c03ff00 	lui	v1,0xff00
80005c98:	00831824 	and	v1,a0,v1
80005c9c:	14600003 	bnez	v1,80005cac <__hi0bits+0x30>
80005ca0:	3c03f000 	lui	v1,0xf000
80005ca4:	24420008 	addiu	v0,v0,8
80005ca8:	00042200 	sll	a0,a0,0x8
80005cac:	00831824 	and	v1,a0,v1
80005cb0:	14600003 	bnez	v1,80005cc0 <__hi0bits+0x44>
80005cb4:	3c03c000 	lui	v1,0xc000
80005cb8:	24420004 	addiu	v0,v0,4
80005cbc:	00042100 	sll	a0,a0,0x4
80005cc0:	00831824 	and	v1,a0,v1
80005cc4:	14600003 	bnez	v1,80005cd4 <__hi0bits+0x58>
80005cc8:	00000000 	nop
80005ccc:	24420002 	addiu	v0,v0,2
80005cd0:	00042080 	sll	a0,a0,0x2
80005cd4:	04800005 	bltz	a0,80005cec <__hi0bits+0x70>
80005cd8:	3c034000 	lui	v1,0x4000
80005cdc:	00832024 	and	a0,a0,v1
80005ce0:	14800004 	bnez	a0,80005cf4 <__hi0bits+0x78>
80005ce4:	00000000 	nop
80005ce8:	24020020 	li	v0,32
80005cec:	03e00008 	jr	ra
80005cf0:	00000000 	nop
80005cf4:	03e00008 	jr	ra
80005cf8:	24420001 	addiu	v0,v0,1

80005cfc <__lo0bits>:
80005cfc:	8c830000 	lw	v1,0(a0)
80005d00:	00000000 	nop
80005d04:	30620007 	andi	v0,v1,0x7
80005d08:	1040000b 	beqz	v0,80005d38 <__lo0bits+0x3c>
80005d0c:	3062ffff 	andi	v0,v1,0xffff
80005d10:	30620001 	andi	v0,v1,0x1
80005d14:	14400028 	bnez	v0,80005db8 <__lo0bits+0xbc>
80005d18:	00000000 	nop
80005d1c:	30620002 	andi	v0,v1,0x2
80005d20:	14400027 	bnez	v0,80005dc0 <__lo0bits+0xc4>
80005d24:	00000000 	nop
80005d28:	00031882 	srl	v1,v1,0x2
80005d2c:	ac830000 	sw	v1,0(a0)
80005d30:	03e00008 	jr	ra
80005d34:	24020002 	li	v0,2
80005d38:	10400019 	beqz	v0,80005da0 <__lo0bits+0xa4>
80005d3c:	00000000 	nop
80005d40:	00001021 	move	v0,zero
80005d44:	306500ff 	andi	a1,v1,0xff
80005d48:	14a00004 	bnez	a1,80005d5c <__lo0bits+0x60>
80005d4c:	3065000f 	andi	a1,v1,0xf
80005d50:	24420008 	addiu	v0,v0,8
80005d54:	00031a02 	srl	v1,v1,0x8
80005d58:	3065000f 	andi	a1,v1,0xf
80005d5c:	14a00004 	bnez	a1,80005d70 <__lo0bits+0x74>
80005d60:	30650003 	andi	a1,v1,0x3
80005d64:	24420004 	addiu	v0,v0,4
80005d68:	00031902 	srl	v1,v1,0x4
80005d6c:	30650003 	andi	a1,v1,0x3
80005d70:	14a00004 	bnez	a1,80005d84 <__lo0bits+0x88>
80005d74:	30650001 	andi	a1,v1,0x1
80005d78:	24420002 	addiu	v0,v0,2
80005d7c:	00031882 	srl	v1,v1,0x2
80005d80:	30650001 	andi	a1,v1,0x1
80005d84:	14a0000a 	bnez	a1,80005db0 <__lo0bits+0xb4>
80005d88:	00000000 	nop
80005d8c:	00031842 	srl	v1,v1,0x1
80005d90:	14600006 	bnez	v1,80005dac <__lo0bits+0xb0>
80005d94:	00000000 	nop
80005d98:	03e00008 	jr	ra
80005d9c:	24020020 	li	v0,32
80005da0:	00031c02 	srl	v1,v1,0x10
80005da4:	08001751 	j	80005d44 <__lo0bits+0x48>
80005da8:	24020010 	li	v0,16
80005dac:	24420001 	addiu	v0,v0,1
80005db0:	03e00008 	jr	ra
80005db4:	ac830000 	sw	v1,0(a0)
80005db8:	03e00008 	jr	ra
80005dbc:	00001021 	move	v0,zero
80005dc0:	00031842 	srl	v1,v1,0x1
80005dc4:	ac830000 	sw	v1,0(a0)
80005dc8:	03e00008 	jr	ra
80005dcc:	24020001 	li	v0,1

80005dd0 <__i2b>:
80005dd0:	27bdffe8 	addiu	sp,sp,-24
80005dd4:	afb00010 	sw	s0,16(sp)
80005dd8:	00a08021 	move	s0,a1
80005ddc:	afbf0014 	sw	ra,20(sp)
80005de0:	0c00164f 	jal	8000593c <_Balloc>
80005de4:	24050001 	li	a1,1
80005de8:	8fbf0014 	lw	ra,20(sp)
80005dec:	24040001 	li	a0,1
80005df0:	ac500014 	sw	s0,20(v0)
80005df4:	ac440010 	sw	a0,16(v0)
80005df8:	8fb00010 	lw	s0,16(sp)
80005dfc:	03e00008 	jr	ra
80005e00:	27bd0018 	addiu	sp,sp,24

80005e04 <__multiply>:
80005e04:	27bdffd8 	addiu	sp,sp,-40
80005e08:	afb3001c 	sw	s3,28(sp)
80005e0c:	afb20018 	sw	s2,24(sp)
80005e10:	8cd30010 	lw	s3,16(a2)
80005e14:	8cb20010 	lw	s2,16(a1)
80005e18:	afb40020 	sw	s4,32(sp)
80005e1c:	0253102a 	slt	v0,s2,s3
80005e20:	afb10014 	sw	s1,20(sp)
80005e24:	afbf0024 	sw	ra,36(sp)
80005e28:	afb00010 	sw	s0,16(sp)
80005e2c:	00a08821 	move	s1,a1
80005e30:	10400006 	beqz	v0,80005e4c <__multiply+0x48>
80005e34:	00c0a021 	move	s4,a2
80005e38:	02401821 	move	v1,s2
80005e3c:	00c08821 	move	s1,a2
80005e40:	02609021 	move	s2,s3
80005e44:	00a0a021 	move	s4,a1
80005e48:	00609821 	move	s3,v1
80005e4c:	8e220008 	lw	v0,8(s1)
80005e50:	02538021 	addu	s0,s2,s3
80005e54:	0050102a 	slt	v0,v0,s0
80005e58:	8e250004 	lw	a1,4(s1)
80005e5c:	10400002 	beqz	v0,80005e68 <__multiply+0x64>
80005e60:	00000000 	nop
80005e64:	24a50001 	addiu	a1,a1,1
80005e68:	0c00164f 	jal	8000593c <_Balloc>
80005e6c:	00000000 	nop
80005e70:	260e0004 	addiu	t6,s0,4
80005e74:	000e7080 	sll	t6,t6,0x2
80005e78:	004e7021 	addu	t6,v0,t6
80005e7c:	244d0014 	addiu	t5,v0,20
80005e80:	25ce0004 	addiu	t6,t6,4
80005e84:	01ae202b 	sltu	a0,t5,t6
80005e88:	10800006 	beqz	a0,80005ea4 <__multiply+0xa0>
80005e8c:	01a01821 	move	v1,t5
80005e90:	ac600000 	sw	zero,0(v1)
80005e94:	24630004 	addiu	v1,v1,4
80005e98:	006e202b 	sltu	a0,v1,t6
80005e9c:	1480fffc 	bnez	a0,80005e90 <__multiply+0x8c>
80005ea0:	00000000 	nop
80005ea4:	266f0004 	addiu	t7,s3,4
80005ea8:	000f7880 	sll	t7,t7,0x2
80005eac:	264a0004 	addiu	t2,s2,4
80005eb0:	028f7821 	addu	t7,s4,t7
80005eb4:	000a5080 	sll	t2,t2,0x2
80005eb8:	268c0014 	addiu	t4,s4,20
80005ebc:	25ef0004 	addiu	t7,t7,4
80005ec0:	022a5021 	addu	t2,s1,t2
80005ec4:	018f182b 	sltu	v1,t4,t7
80005ec8:	26380014 	addiu	t8,s1,20
80005ecc:	1060004b 	beqz	v1,80005ffc <__multiply+0x1f8>
80005ed0:	254a0004 	addiu	t2,t2,4
80005ed4:	8d880000 	lw	t0,0(t4)
80005ed8:	00000000 	nop
80005edc:	3109ffff 	andi	t1,t0,0xffff
80005ee0:	11200023 	beqz	t1,80005f70 <__multiply+0x16c>
80005ee4:	00084402 	srl	t0,t0,0x10
80005ee8:	01a01821 	move	v1,t5
80005eec:	03002021 	move	a0,t8
80005ef0:	00002821 	move	a1,zero
80005ef4:	8c880000 	lw	t0,0(a0)
80005ef8:	8c670000 	lw	a3,0(v1)
80005efc:	3106ffff 	andi	a2,t0,0xffff
80005f00:	00c90018 	mult	a2,t1
80005f04:	00084402 	srl	t0,t0,0x10
80005f08:	30e6ffff 	andi	a2,a3,0xffff
80005f0c:	00073c02 	srl	a3,a3,0x10
80005f10:	24840004 	addiu	a0,a0,4
80005f14:	00005812 	mflo	t3
80005f18:	448b1000 	mtc1	t3,$f2
80005f1c:	008a582b 	sltu	t3,a0,t2
80005f20:	01090018 	mult	t0,t1
80005f24:	44081000 	mfc1	t0,$f2
80005f28:	00000000 	nop
80005f2c:	01063021 	addu	a2,t0,a2
80005f30:	00c53021 	addu	a2,a2,a1
80005f34:	00064402 	srl	t0,a2,0x10
80005f38:	30c6ffff 	andi	a2,a2,0xffff
80005f3c:	00008812 	mflo	s1
80005f40:	02272821 	addu	a1,s1,a3
80005f44:	00a82821 	addu	a1,a1,t0
80005f48:	00053c00 	sll	a3,a1,0x10
80005f4c:	00e63025 	or	a2,a3,a2
80005f50:	ac660000 	sw	a2,0(v1)
80005f54:	00052c02 	srl	a1,a1,0x10
80005f58:	1560ffe6 	bnez	t3,80005ef4 <__multiply+0xf0>
80005f5c:	24630004 	addiu	v1,v1,4
80005f60:	ac650000 	sw	a1,0(v1)
80005f64:	8d880000 	lw	t0,0(t4)
80005f68:	00000000 	nop
80005f6c:	00084402 	srl	t0,t0,0x10
80005f70:	1100001e 	beqz	t0,80005fec <__multiply+0x1e8>
80005f74:	01a02021 	move	a0,t5
80005f78:	8da50000 	lw	a1,0(t5)
80005f7c:	00000000 	nop
80005f80:	00a03021 	move	a2,a1
80005f84:	03001821 	move	v1,t8
80005f88:	00004821 	move	t1,zero
80005f8c:	946b0002 	lhu	t3,2(v1)
80005f90:	00063c02 	srl	a3,a2,0x10
80005f94:	01680018 	mult	t3,t0
80005f98:	30a5ffff 	andi	a1,a1,0xffff
80005f9c:	00003012 	mflo	a2
80005fa0:	00c73821 	addu	a3,a2,a3
80005fa4:	00e93821 	addu	a3,a3,t1
80005fa8:	00073400 	sll	a2,a3,0x10
80005fac:	00c52825 	or	a1,a2,a1
80005fb0:	ac850000 	sw	a1,0(a0)
80005fb4:	94650000 	lhu	a1,0(v1)
80005fb8:	24840004 	addiu	a0,a0,4
80005fbc:	00a80018 	mult	a1,t0
80005fc0:	8c860000 	lw	a2,0(a0)
80005fc4:	00073c02 	srl	a3,a3,0x10
80005fc8:	30c5ffff 	andi	a1,a2,0xffff
80005fcc:	24630004 	addiu	v1,v1,4
80005fd0:	006a582b 	sltu	t3,v1,t2
80005fd4:	00004812 	mflo	t1
80005fd8:	00a92821 	addu	a1,a1,t1
80005fdc:	00a72821 	addu	a1,a1,a3
80005fe0:	1560ffea 	bnez	t3,80005f8c <__multiply+0x188>
80005fe4:	00054c02 	srl	t1,a1,0x10
80005fe8:	ac850000 	sw	a1,0(a0)
80005fec:	258c0004 	addiu	t4,t4,4
80005ff0:	018f182b 	sltu	v1,t4,t7
80005ff4:	1460ffb7 	bnez	v1,80005ed4 <__multiply+0xd0>
80005ff8:	25ad0004 	addiu	t5,t5,4
80005ffc:	1a00000e 	blez	s0,80006038 <__multiply+0x234>
80006000:	00000000 	nop
80006004:	8dc3fffc 	lw	v1,-4(t6)
80006008:	00000000 	nop
8000600c:	10600007 	beqz	v1,8000602c <__multiply+0x228>
80006010:	25cefffc 	addiu	t6,t6,-4
80006014:	0800180e 	j	80006038 <__multiply+0x234>
80006018:	00000000 	nop
8000601c:	8dc30000 	lw	v1,0(t6)
80006020:	00000000 	nop
80006024:	14600004 	bnez	v1,80006038 <__multiply+0x234>
80006028:	00000000 	nop
8000602c:	2610ffff 	addiu	s0,s0,-1
80006030:	1600fffa 	bnez	s0,8000601c <__multiply+0x218>
80006034:	25cefffc 	addiu	t6,t6,-4
80006038:	8fbf0024 	lw	ra,36(sp)
8000603c:	ac500010 	sw	s0,16(v0)
80006040:	8fb40020 	lw	s4,32(sp)
80006044:	8fb3001c 	lw	s3,28(sp)
80006048:	8fb20018 	lw	s2,24(sp)
8000604c:	8fb10014 	lw	s1,20(sp)
80006050:	8fb00010 	lw	s0,16(sp)
80006054:	03e00008 	jr	ra
80006058:	27bd0028 	addiu	sp,sp,40

8000605c <__pow5mult>:
8000605c:	27bdffd8 	addiu	sp,sp,-40
80006060:	30c20003 	andi	v0,a2,0x3
80006064:	afb30020 	sw	s3,32(sp)
80006068:	afb2001c 	sw	s2,28(sp)
8000606c:	afb00014 	sw	s0,20(sp)
80006070:	afbf0024 	sw	ra,36(sp)
80006074:	afb10018 	sw	s1,24(sp)
80006078:	00c08021 	move	s0,a2
8000607c:	00809821 	move	s3,a0
80006080:	14400035 	bnez	v0,80006158 <__pow5mult+0xfc>
80006084:	00a09021 	move	s2,a1
80006088:	00108083 	sra	s0,s0,0x2
8000608c:	12000021 	beqz	s0,80006114 <__pow5mult+0xb8>
80006090:	00000000 	nop
80006094:	8e710048 	lw	s1,72(s3)
80006098:	00000000 	nop
8000609c:	1620000c 	bnez	s1,800060d0 <__pow5mult+0x74>
800060a0:	32030001 	andi	v1,s0,0x1
800060a4:	08001860 	j	80006180 <__pow5mult+0x124>
800060a8:	02602021 	move	a0,s3
800060ac:	00108043 	sra	s0,s0,0x1
800060b0:	12000018 	beqz	s0,80006114 <__pow5mult+0xb8>
800060b4:	00000000 	nop
800060b8:	8e230000 	lw	v1,0(s1)
800060bc:	00000000 	nop
800060c0:	1060001c 	beqz	v1,80006134 <__pow5mult+0xd8>
800060c4:	02202821 	move	a1,s1
800060c8:	00608821 	move	s1,v1
800060cc:	32030001 	andi	v1,s0,0x1
800060d0:	1060fff6 	beqz	v1,800060ac <__pow5mult+0x50>
800060d4:	02402821 	move	a1,s2
800060d8:	02203021 	move	a2,s1
800060dc:	0c001781 	jal	80005e04 <__multiply>
800060e0:	02602021 	move	a0,s3
800060e4:	1240001a 	beqz	s2,80006150 <__pow5mult+0xf4>
800060e8:	00000000 	nop
800060ec:	8e430004 	lw	v1,4(s2)
800060f0:	8e64004c 	lw	a0,76(s3)
800060f4:	00031880 	sll	v1,v1,0x2
800060f8:	00831821 	addu	v1,a0,v1
800060fc:	8c640000 	lw	a0,0(v1)
80006100:	00108043 	sra	s0,s0,0x1
80006104:	ae440000 	sw	a0,0(s2)
80006108:	ac720000 	sw	s2,0(v1)
8000610c:	1600ffea 	bnez	s0,800060b8 <__pow5mult+0x5c>
80006110:	00409021 	move	s2,v0
80006114:	8fbf0024 	lw	ra,36(sp)
80006118:	02401021 	move	v0,s2
8000611c:	8fb30020 	lw	s3,32(sp)
80006120:	8fb2001c 	lw	s2,28(sp)
80006124:	8fb10018 	lw	s1,24(sp)
80006128:	8fb00014 	lw	s0,20(sp)
8000612c:	03e00008 	jr	ra
80006130:	27bd0028 	addiu	sp,sp,40
80006134:	02203021 	move	a2,s1
80006138:	0c001781 	jal	80005e04 <__multiply>
8000613c:	02602021 	move	a0,s3
80006140:	ae220000 	sw	v0,0(s1)
80006144:	ac400000 	sw	zero,0(v0)
80006148:	08001833 	j	800060cc <__pow5mult+0x70>
8000614c:	00408821 	move	s1,v0
80006150:	0800182b 	j	800060ac <__pow5mult+0x50>
80006154:	00409021 	move	s2,v0
80006158:	2442ffff 	addiu	v0,v0,-1
8000615c:	3c038001 	lui	v1,0x8001
80006160:	2463aa88 	addiu	v1,v1,-21880
80006164:	00021080 	sll	v0,v0,0x2
80006168:	00431021 	addu	v0,v0,v1
8000616c:	8c460000 	lw	a2,0(v0)
80006170:	0c001687 	jal	80005a1c <__multadd>
80006174:	00003821 	move	a3,zero
80006178:	08001822 	j	80006088 <__pow5mult+0x2c>
8000617c:	00409021 	move	s2,v0
80006180:	0c001774 	jal	80005dd0 <__i2b>
80006184:	24050271 	li	a1,625
80006188:	ae620048 	sw	v0,72(s3)
8000618c:	00408821 	move	s1,v0
80006190:	08001833 	j	800060cc <__pow5mult+0x70>
80006194:	ac400000 	sw	zero,0(v0)

80006198 <__lshift>:
80006198:	27bdffd0 	addiu	sp,sp,-48
8000619c:	afb50028 	sw	s5,40(sp)
800061a0:	8cb50010 	lw	s5,16(a1)
800061a4:	afb10018 	sw	s1,24(sp)
800061a8:	00068943 	sra	s1,a2,0x5
800061ac:	0235a821 	addu	s5,s1,s5
800061b0:	8ca20008 	lw	v0,8(a1)
800061b4:	afb00014 	sw	s0,20(sp)
800061b8:	26b00001 	addiu	s0,s5,1
800061bc:	afb2001c 	sw	s2,28(sp)
800061c0:	00a09021 	move	s2,a1
800061c4:	0050282a 	slt	a1,v0,s0
800061c8:	afb40024 	sw	s4,36(sp)
800061cc:	afb30020 	sw	s3,32(sp)
800061d0:	afbf002c 	sw	ra,44(sp)
800061d4:	00c0a021 	move	s4,a2
800061d8:	8e430004 	lw	v1,4(s2)
800061dc:	10a00005 	beqz	a1,800061f4 <__lshift+0x5c>
800061e0:	00809821 	move	s3,a0
800061e4:	00021040 	sll	v0,v0,0x1
800061e8:	0050382a 	slt	a3,v0,s0
800061ec:	14e0fffd 	bnez	a3,800061e4 <__lshift+0x4c>
800061f0:	24630001 	addiu	v1,v1,1
800061f4:	00602821 	move	a1,v1
800061f8:	0c00164f 	jal	8000593c <_Balloc>
800061fc:	02602021 	move	a0,s3
80006200:	1a20000a 	blez	s1,8000622c <__lshift+0x94>
80006204:	24430014 	addiu	v1,v0,20
80006208:	00003821 	move	a3,zero
8000620c:	24e70001 	addiu	a3,a3,1
80006210:	ac600000 	sw	zero,0(v1)
80006214:	14f1fffd 	bne	a3,s1,8000620c <__lshift+0x74>
80006218:	24630004 	addiu	v1,v1,4
8000621c:	24e30004 	addiu	v1,a3,4
80006220:	00031880 	sll	v1,v1,0x2
80006224:	00431821 	addu	v1,v0,v1
80006228:	24630004 	addiu	v1,v1,4
8000622c:	8e480010 	lw	t0,16(s2)
80006230:	3286001f 	andi	a2,s4,0x1f
80006234:	25080004 	addiu	t0,t0,4
80006238:	00084080 	sll	t0,t0,0x2
8000623c:	02484021 	addu	t0,s2,t0
80006240:	26470014 	addiu	a3,s2,20
80006244:	10c00024 	beqz	a2,800062d8 <__lshift+0x140>
80006248:	25080004 	addiu	t0,t0,4
8000624c:	240a0020 	li	t2,32
80006250:	01465023 	subu	t2,t2,a2
80006254:	00002821 	move	a1,zero
80006258:	8ce90000 	lw	t1,0(a3)
8000625c:	00000000 	nop
80006260:	00c94804 	sllv	t1,t1,a2
80006264:	00a92825 	or	a1,a1,t1
80006268:	ac650000 	sw	a1,0(v1)
8000626c:	8ce50000 	lw	a1,0(a3)
80006270:	24e70004 	addiu	a3,a3,4
80006274:	00e8482b 	sltu	t1,a3,t0
80006278:	24630004 	addiu	v1,v1,4
8000627c:	1520fff6 	bnez	t1,80006258 <__lshift+0xc0>
80006280:	01452806 	srlv	a1,a1,t2
80006284:	10a00002 	beqz	a1,80006290 <__lshift+0xf8>
80006288:	ac650000 	sw	a1,0(v1)
8000628c:	26b00002 	addiu	s0,s5,2
80006290:	8e430004 	lw	v1,4(s2)
80006294:	8e64004c 	lw	a0,76(s3)
80006298:	00031880 	sll	v1,v1,0x2
8000629c:	00831821 	addu	v1,a0,v1
800062a0:	8c640000 	lw	a0,0(v1)
800062a4:	8fbf002c 	lw	ra,44(sp)
800062a8:	2610ffff 	addiu	s0,s0,-1
800062ac:	ac500010 	sw	s0,16(v0)
800062b0:	ae440000 	sw	a0,0(s2)
800062b4:	8fb50028 	lw	s5,40(sp)
800062b8:	ac720000 	sw	s2,0(v1)
800062bc:	8fb40024 	lw	s4,36(sp)
800062c0:	8fb30020 	lw	s3,32(sp)
800062c4:	8fb2001c 	lw	s2,28(sp)
800062c8:	8fb10018 	lw	s1,24(sp)
800062cc:	8fb00014 	lw	s0,20(sp)
800062d0:	03e00008 	jr	ra
800062d4:	27bd0030 	addiu	sp,sp,48
800062d8:	8ce60000 	lw	a2,0(a3)
800062dc:	24e70004 	addiu	a3,a3,4
800062e0:	00e8282b 	sltu	a1,a3,t0
800062e4:	ac660000 	sw	a2,0(v1)
800062e8:	10a0ffe9 	beqz	a1,80006290 <__lshift+0xf8>
800062ec:	24630004 	addiu	v1,v1,4
800062f0:	8ce60000 	lw	a2,0(a3)
800062f4:	24e70004 	addiu	a3,a3,4
800062f8:	00e8282b 	sltu	a1,a3,t0
800062fc:	ac660000 	sw	a2,0(v1)
80006300:	14a0fff5 	bnez	a1,800062d8 <__lshift+0x140>
80006304:	24630004 	addiu	v1,v1,4
80006308:	080018a4 	j	80006290 <__lshift+0xf8>
8000630c:	00000000 	nop

80006310 <__mcmp>:
80006310:	8c820010 	lw	v0,16(a0)
80006314:	8ca30010 	lw	v1,16(a1)
80006318:	00000000 	nop
8000631c:	00431023 	subu	v0,v0,v1
80006320:	14400010 	bnez	v0,80006364 <__mcmp+0x54>
80006324:	24630004 	addiu	v1,v1,4
80006328:	00033080 	sll	a2,v1,0x2
8000632c:	00861821 	addu	v1,a0,a2
80006330:	00a62821 	addu	a1,a1,a2
80006334:	24840014 	addiu	a0,a0,20
80006338:	24630004 	addiu	v1,v1,4
8000633c:	24a50004 	addiu	a1,a1,4
80006340:	2463fffc 	addiu	v1,v1,-4
80006344:	24a5fffc 	addiu	a1,a1,-4
80006348:	8c660000 	lw	a2,0(v1)
8000634c:	8ca70000 	lw	a3,0(a1)
80006350:	00000000 	nop
80006354:	14c70005 	bne	a2,a3,8000636c <__mcmp+0x5c>
80006358:	0083402b 	sltu	t0,a0,v1
8000635c:	1500fff9 	bnez	t0,80006344 <__mcmp+0x34>
80006360:	2463fffc 	addiu	v1,v1,-4
80006364:	03e00008 	jr	ra
80006368:	00000000 	nop
8000636c:	00c7302b 	sltu	a2,a2,a3
80006370:	14c00004 	bnez	a2,80006384 <__mcmp+0x74>
80006374:	00000000 	nop
80006378:	24020001 	li	v0,1
8000637c:	03e00008 	jr	ra
80006380:	00000000 	nop
80006384:	03e00008 	jr	ra
80006388:	2402ffff 	li	v0,-1

8000638c <__mdiff>:
8000638c:	27bdffd8 	addiu	sp,sp,-40
80006390:	afb00014 	sw	s0,20(sp)
80006394:	00a08021 	move	s0,a1
80006398:	afb2001c 	sw	s2,28(sp)
8000639c:	00c02821 	move	a1,a2
800063a0:	00809021 	move	s2,a0
800063a4:	02002021 	move	a0,s0
800063a8:	afb10018 	sw	s1,24(sp)
800063ac:	afbf0024 	sw	ra,36(sp)
800063b0:	afb30020 	sw	s3,32(sp)
800063b4:	0c0018c4 	jal	80006310 <__mcmp>
800063b8:	00c08821 	move	s1,a2
800063bc:	10400057 	beqz	v0,8000651c <__mdiff+0x190>
800063c0:	02402021 	move	a0,s2
800063c4:	04400051 	bltz	v0,8000650c <__mdiff+0x180>
800063c8:	02001021 	move	v0,s0
800063cc:	00009821 	move	s3,zero
800063d0:	8e050004 	lw	a1,4(s0)
800063d4:	0c00164f 	jal	8000593c <_Balloc>
800063d8:	02402021 	move	a0,s2
800063dc:	8e090010 	lw	t1,16(s0)
800063e0:	8e2e0010 	lw	t6,16(s1)
800063e4:	252c0004 	addiu	t4,t1,4
800063e8:	25ce0004 	addiu	t6,t6,4
800063ec:	000c6080 	sll	t4,t4,0x2
800063f0:	000e7080 	sll	t6,t6,0x2
800063f4:	020c6021 	addu	t4,s0,t4
800063f8:	022e7021 	addu	t6,s1,t6
800063fc:	ac53000c 	sw	s3,12(v0)
80006400:	26030014 	addiu	v1,s0,20
80006404:	258c0004 	addiu	t4,t4,4
80006408:	26260014 	addiu	a2,s1,20
8000640c:	25ce0004 	addiu	t6,t6,4
80006410:	24440014 	addiu	a0,v0,20
80006414:	00004021 	move	t0,zero
80006418:	8c6b0000 	lw	t3,0(v1)
8000641c:	8cca0000 	lw	t2,0(a2)
80006420:	3165ffff 	andi	a1,t3,0xffff
80006424:	00a84021 	addu	t0,a1,t0
80006428:	314dffff 	andi	t5,t2,0xffff
8000642c:	010d2823 	subu	a1,t0,t5
80006430:	000a5402 	srl	t2,t2,0x10
80006434:	000b4402 	srl	t0,t3,0x10
80006438:	00053c03 	sra	a3,a1,0x10
8000643c:	010a4023 	subu	t0,t0,t2
80006440:	01074021 	addu	t0,t0,a3
80006444:	00083c00 	sll	a3,t0,0x10
80006448:	30a5ffff 	andi	a1,a1,0xffff
8000644c:	24c60004 	addiu	a2,a2,4
80006450:	00e53825 	or	a3,a3,a1
80006454:	00ce282b 	sltu	a1,a2,t6
80006458:	ac870000 	sw	a3,0(a0)
8000645c:	24630004 	addiu	v1,v1,4
80006460:	00084403 	sra	t0,t0,0x10
80006464:	14a0ffec 	bnez	a1,80006418 <__mdiff+0x8c>
80006468:	24840004 	addiu	a0,a0,4
8000646c:	006c282b 	sltu	a1,v1,t4
80006470:	00805021 	move	t2,a0
80006474:	10a00016 	beqz	a1,800064d0 <__mdiff+0x144>
80006478:	00605821 	move	t3,v1
8000647c:	8c660000 	lw	a2,0(v1)
80006480:	24630004 	addiu	v1,v1,4
80006484:	30c7ffff 	andi	a3,a2,0xffff
80006488:	00e84021 	addu	t0,a3,t0
8000648c:	00082c03 	sra	a1,t0,0x10
80006490:	00063402 	srl	a2,a2,0x10
80006494:	00a62821 	addu	a1,a1,a2
80006498:	3108ffff 	andi	t0,t0,0xffff
8000649c:	00053c00 	sll	a3,a1,0x10
800064a0:	00e83825 	or	a3,a3,t0
800064a4:	006c302b 	sltu	a2,v1,t4
800064a8:	ac870000 	sw	a3,0(a0)
800064ac:	00054403 	sra	t0,a1,0x10
800064b0:	14c0fff2 	bnez	a2,8000647c <__mdiff+0xf0>
800064b4:	24840004 	addiu	a0,a0,4
800064b8:	000b2027 	nor	a0,zero,t3
800064bc:	008c2021 	addu	a0,a0,t4
800064c0:	00042082 	srl	a0,a0,0x2
800064c4:	24840001 	addiu	a0,a0,1
800064c8:	00042080 	sll	a0,a0,0x2
800064cc:	01442021 	addu	a0,t2,a0
800064d0:	14e00006 	bnez	a3,800064ec <__mdiff+0x160>
800064d4:	2484fffc 	addiu	a0,a0,-4
800064d8:	2484fffc 	addiu	a0,a0,-4
800064dc:	8c830000 	lw	v1,0(a0)
800064e0:	00000000 	nop
800064e4:	1060fffc 	beqz	v1,800064d8 <__mdiff+0x14c>
800064e8:	2529ffff 	addiu	t1,t1,-1
800064ec:	8fbf0024 	lw	ra,36(sp)
800064f0:	8fb30020 	lw	s3,32(sp)
800064f4:	8fb2001c 	lw	s2,28(sp)
800064f8:	8fb10018 	lw	s1,24(sp)
800064fc:	8fb00014 	lw	s0,20(sp)
80006500:	ac490010 	sw	t1,16(v0)
80006504:	03e00008 	jr	ra
80006508:	27bd0028 	addiu	sp,sp,40
8000650c:	24130001 	li	s3,1
80006510:	02208021 	move	s0,s1
80006514:	080018f4 	j	800063d0 <__mdiff+0x44>
80006518:	00408821 	move	s1,v0
8000651c:	0c00164f 	jal	8000593c <_Balloc>
80006520:	00002821 	move	a1,zero
80006524:	8fbf0024 	lw	ra,36(sp)
80006528:	24030001 	li	v1,1
8000652c:	8fb30020 	lw	s3,32(sp)
80006530:	8fb2001c 	lw	s2,28(sp)
80006534:	8fb10018 	lw	s1,24(sp)
80006538:	8fb00014 	lw	s0,20(sp)
8000653c:	ac430010 	sw	v1,16(v0)
80006540:	ac400014 	sw	zero,20(v0)
80006544:	03e00008 	jr	ra
80006548:	27bd0028 	addiu	sp,sp,40

8000654c <__ulp>:
8000654c:	44026800 	mfc1	v0,$f13
80006550:	3c047ff0 	lui	a0,0x7ff0
80006554:	00441024 	and	v0,v0,a0
80006558:	3c03fcc0 	lui	v1,0xfcc0
8000655c:	00432021 	addu	a0,v0,v1
80006560:	18800006 	blez	a0,8000657c <__ulp+0x30>
80006564:	00001821 	move	v1,zero
80006568:	44830000 	mtc1	v1,$f0
8000656c:	00801021 	move	v0,a0
80006570:	44820800 	mtc1	v0,$f1
80006574:	03e00008 	jr	ra
80006578:	00000000 	nop
8000657c:	00042023 	negu	a0,a0
80006580:	00042503 	sra	a0,a0,0x14
80006584:	28820014 	slti	v0,a0,20
80006588:	14400010 	bnez	v0,800065cc <__ulp+0x80>
8000658c:	28850033 	slti	a1,a0,51
80006590:	10a0000b 	beqz	a1,800065c0 <__ulp+0x74>
80006594:	00001021 	move	v0,zero
80006598:	24050033 	li	a1,51
8000659c:	00a42023 	subu	a0,a1,a0
800065a0:	24050001 	li	a1,1
800065a4:	00852004 	sllv	a0,a1,a0
800065a8:	00801821 	move	v1,a0
800065ac:	44830000 	mtc1	v1,$f0
800065b0:	00000000 	nop
800065b4:	44820800 	mtc1	v0,$f1
800065b8:	03e00008 	jr	ra
800065bc:	00000000 	nop
800065c0:	24040001 	li	a0,1
800065c4:	0800196b 	j	800065ac <__ulp+0x60>
800065c8:	00801821 	move	v1,a0
800065cc:	00001821 	move	v1,zero
800065d0:	3c050008 	lui	a1,0x8
800065d4:	44830000 	mtc1	v1,$f0
800065d8:	00851007 	srav	v0,a1,a0
800065dc:	44820800 	mtc1	v0,$f1
800065e0:	03e00008 	jr	ra
800065e4:	00000000 	nop

800065e8 <__b2d>:
800065e8:	27bdffd8 	addiu	sp,sp,-40
800065ec:	afb10014 	sw	s1,20(sp)
800065f0:	8c910010 	lw	s1,16(a0)
800065f4:	afb20018 	sw	s2,24(sp)
800065f8:	26310004 	addiu	s1,s1,4
800065fc:	00118880 	sll	s1,s1,0x2
80006600:	00918821 	addu	s1,a0,s1
80006604:	26320004 	addiu	s2,s1,4
80006608:	afb00010 	sw	s0,16(sp)
8000660c:	8e50fffc 	lw	s0,-4(s2)
80006610:	afb3001c 	sw	s3,28(sp)
80006614:	24930014 	addiu	s3,a0,20
80006618:	02002021 	move	a0,s0
8000661c:	afb40020 	sw	s4,32(sp)
80006620:	afbf0024 	sw	ra,36(sp)
80006624:	0c00171f 	jal	80005c7c <__hi0bits>
80006628:	00a0a021 	move	s4,a1
8000662c:	24050020 	li	a1,32
80006630:	00a22823 	subu	a1,a1,v0
80006634:	2844000b 	slti	a0,v0,11
80006638:	10800018 	beqz	a0,8000669c <__b2d+0xb4>
8000663c:	ae850000 	sw	a1,0(s4)
80006640:	2403000b 	li	v1,11
80006644:	00621823 	subu	v1,v1,v0
80006648:	00702806 	srlv	a1,s0,v1
8000664c:	3c043ff0 	lui	a0,0x3ff0
80006650:	0271882b 	sltu	s1,s3,s1
80006654:	1220002d 	beqz	s1,8000670c <__b2d+0x124>
80006658:	00a43025 	or	a2,a1,a0
8000665c:	8e44fff8 	lw	a0,-8(s2)
80006660:	00000000 	nop
80006664:	00641806 	srlv	v1,a0,v1
80006668:	24420015 	addiu	v0,v0,21
8000666c:	00508004 	sllv	s0,s0,v0
80006670:	00703825 	or	a3,v1,s0
80006674:	8fbf0024 	lw	ra,36(sp)
80006678:	44870000 	mtc1	a3,$f0
8000667c:	8fb40020 	lw	s4,32(sp)
80006680:	8fb3001c 	lw	s3,28(sp)
80006684:	8fb20018 	lw	s2,24(sp)
80006688:	8fb10014 	lw	s1,20(sp)
8000668c:	8fb00010 	lw	s0,16(sp)
80006690:	44860800 	mtc1	a2,$f1
80006694:	03e00008 	jr	ra
80006698:	27bd0028 	addiu	sp,sp,40
8000669c:	0271202b 	sltu	a0,s3,s1
800066a0:	14800012 	bnez	a0,800066ec <__b2d+0x104>
800066a4:	02201821 	move	v1,s1
800066a8:	2445fff5 	addiu	a1,v0,-11
800066ac:	10a00013 	beqz	a1,800066fc <__b2d+0x114>
800066b0:	00004021 	move	t0,zero
800066b4:	2404002b 	li	a0,43
800066b8:	00821023 	subu	v0,a0,v0
800066bc:	00b08004 	sllv	s0,s0,a1
800066c0:	3c043ff0 	lui	a0,0x3ff0
800066c4:	02048025 	or	s0,s0,a0
800066c8:	0263982b 	sltu	s3,s3,v1
800066cc:	00482006 	srlv	a0,t0,v0
800066d0:	12600010 	beqz	s3,80006714 <__b2d+0x12c>
800066d4:	02043025 	or	a2,s0,a0
800066d8:	8c63fffc 	lw	v1,-4(v1)
800066dc:	00a82804 	sllv	a1,t0,a1
800066e0:	00431006 	srlv	v0,v1,v0
800066e4:	0800199d 	j	80006674 <__b2d+0x8c>
800066e8:	00453825 	or	a3,v0,a1
800066ec:	2445fff5 	addiu	a1,v0,-11
800066f0:	8e48fff8 	lw	t0,-8(s2)
800066f4:	14a0ffef 	bnez	a1,800066b4 <__b2d+0xcc>
800066f8:	2623fffc 	addiu	v1,s1,-4
800066fc:	3c023ff0 	lui	v0,0x3ff0
80006700:	02023025 	or	a2,s0,v0
80006704:	0800199d 	j	80006674 <__b2d+0x8c>
80006708:	01003821 	move	a3,t0
8000670c:	0800199a 	j	80006668 <__b2d+0x80>
80006710:	00001821 	move	v1,zero
80006714:	00001021 	move	v0,zero
80006718:	00a82804 	sllv	a1,t0,a1
8000671c:	0800199d 	j	80006674 <__b2d+0x8c>
80006720:	00453825 	or	a3,v0,a1

80006724 <__d2b>:
80006724:	27bdffd0 	addiu	sp,sp,-48
80006728:	24050001 	li	a1,1
8000672c:	afb0001c 	sw	s0,28(sp)
80006730:	00c08021 	move	s0,a2
80006734:	afb30028 	sw	s3,40(sp)
80006738:	afb20024 	sw	s2,36(sp)
8000673c:	afb10020 	sw	s1,32(sp)
80006740:	afbf002c 	sw	ra,44(sp)
80006744:	00e08821 	move	s1,a3
80006748:	0c00164f 	jal	8000593c <_Balloc>
8000674c:	00109840 	sll	s3,s0,0x1
80006750:	3c03000f 	lui	v1,0xf
80006754:	3463ffff 	ori	v1,v1,0xffff
80006758:	00139d42 	srl	s3,s3,0x15
8000675c:	00409021 	move	s2,v0
80006760:	12600003 	beqz	s3,80006770 <__d2b+0x4c>
80006764:	02031024 	and	v0,s0,v1
80006768:	3c030010 	lui	v1,0x10
8000676c:	00431025 	or	v0,v0,v1
80006770:	12200024 	beqz	s1,80006804 <__d2b+0xe0>
80006774:	afa20010 	sw	v0,16(sp)
80006778:	27a40014 	addiu	a0,sp,20
8000677c:	0c00173f 	jal	80005cfc <__lo0bits>
80006780:	afb10014 	sw	s1,20(sp)
80006784:	8fa30010 	lw	v1,16(sp)
80006788:	14400037 	bnez	v0,80006868 <__d2b+0x144>
8000678c:	00022023 	negu	a0,v0
80006790:	8fa40014 	lw	a0,20(sp)
80006794:	00000000 	nop
80006798:	ae440014 	sw	a0,20(s2)
8000679c:	2c700001 	sltiu	s0,v1,1
800067a0:	24040002 	li	a0,2
800067a4:	00908023 	subu	s0,a0,s0
800067a8:	ae430018 	sw	v1,24(s2)
800067ac:	1660001e 	bnez	s3,80006828 <__d2b+0x104>
800067b0:	ae500010 	sw	s0,16(s2)
800067b4:	26030003 	addiu	v1,s0,3
800067b8:	00031880 	sll	v1,v1,0x2
800067bc:	02431821 	addu	v1,s2,v1
800067c0:	8c640004 	lw	a0,4(v1)
800067c4:	8fa30040 	lw	v1,64(sp)
800067c8:	2442fbce 	addiu	v0,v0,-1074
800067cc:	0c00171f 	jal	80005c7c <__hi0bits>
800067d0:	ac620000 	sw	v0,0(v1)
800067d4:	00108140 	sll	s0,s0,0x5
800067d8:	8fa30044 	lw	v1,68(sp)
800067dc:	8fbf002c 	lw	ra,44(sp)
800067e0:	02021023 	subu	v0,s0,v0
800067e4:	ac620000 	sw	v0,0(v1)
800067e8:	8fb30028 	lw	s3,40(sp)
800067ec:	02401021 	move	v0,s2
800067f0:	8fb10020 	lw	s1,32(sp)
800067f4:	8fb20024 	lw	s2,36(sp)
800067f8:	8fb0001c 	lw	s0,28(sp)
800067fc:	03e00008 	jr	ra
80006800:	27bd0030 	addiu	sp,sp,48
80006804:	0c00173f 	jal	80005cfc <__lo0bits>
80006808:	27a40010 	addiu	a0,sp,16
8000680c:	8fa30010 	lw	v1,16(sp)
80006810:	24420020 	addiu	v0,v0,32
80006814:	ae430014 	sw	v1,20(s2)
80006818:	24030001 	li	v1,1
8000681c:	ae430010 	sw	v1,16(s2)
80006820:	1260ffe4 	beqz	s3,800067b4 <__d2b+0x90>
80006824:	24100001 	li	s0,1
80006828:	24030035 	li	v1,53
8000682c:	2673fbcd 	addiu	s3,s3,-1075
80006830:	02629821 	addu	s3,s3,v0
80006834:	00621023 	subu	v0,v1,v0
80006838:	8fa30040 	lw	v1,64(sp)
8000683c:	8fbf002c 	lw	ra,44(sp)
80006840:	ac730000 	sw	s3,0(v1)
80006844:	8fa30044 	lw	v1,68(sp)
80006848:	8fb30028 	lw	s3,40(sp)
8000684c:	ac620000 	sw	v0,0(v1)
80006850:	8fb10020 	lw	s1,32(sp)
80006854:	02401021 	move	v0,s2
80006858:	8fb0001c 	lw	s0,28(sp)
8000685c:	8fb20024 	lw	s2,36(sp)
80006860:	03e00008 	jr	ra
80006864:	27bd0030 	addiu	sp,sp,48
80006868:	8fa50014 	lw	a1,20(sp)
8000686c:	00832004 	sllv	a0,v1,a0
80006870:	00852025 	or	a0,a0,a1
80006874:	00431806 	srlv	v1,v1,v0
80006878:	ae440014 	sw	a0,20(s2)
8000687c:	080019e7 	j	8000679c <__d2b+0x78>
80006880:	afa30010 	sw	v1,16(sp)

80006884 <__ratio>:
80006884:	27bdffd0 	addiu	sp,sp,-48
80006888:	afb0001c 	sw	s0,28(sp)
8000688c:	00a08021 	move	s0,a1
80006890:	27a50014 	addiu	a1,sp,20
80006894:	afbf0024 	sw	ra,36(sp)
80006898:	afb10020 	sw	s1,32(sp)
8000689c:	e7b4002c 	swc1	$f20,44(sp)
800068a0:	00808821 	move	s1,a0
800068a4:	0c00197a 	jal	800065e8 <__b2d>
800068a8:	e7b50028 	swc1	$f21,40(sp)
800068ac:	02002021 	move	a0,s0
800068b0:	27a50010 	addiu	a1,sp,16
800068b4:	0c00197a 	jal	800065e8 <__b2d>
800068b8:	46200506 	mov.d	$f20,$f0
800068bc:	8e260010 	lw	a2,16(s1)
800068c0:	8e020010 	lw	v0,16(s0)
800068c4:	8fa30010 	lw	v1,16(sp)
800068c8:	00c21023 	subu	v0,a2,v0
800068cc:	8fa60014 	lw	a2,20(sp)
800068d0:	00021140 	sll	v0,v0,0x5
800068d4:	00c33023 	subu	a2,a2,v1
800068d8:	00c23021 	addu	a2,a2,v0
800068dc:	4403a000 	mfc1	v1,$f20
800068e0:	4402a800 	mfc1	v0,$f21
800068e4:	44050000 	mfc1	a1,$f0
800068e8:	44040800 	mfc1	a0,$f1
800068ec:	18c0000d 	blez	a2,80006924 <__ratio+0xa0>
800068f0:	00000000 	nop
800068f4:	00063500 	sll	a2,a2,0x14
800068f8:	4483a000 	mtc1	v1,$f20
800068fc:	00c21021 	addu	v0,a2,v0
80006900:	4482a800 	mtc1	v0,$f21
80006904:	8fbf0024 	lw	ra,36(sp)
80006908:	4620a003 	div.d	$f0,$f20,$f0
8000690c:	c7b4002c 	lwc1	$f20,44(sp)
80006910:	8fb10020 	lw	s1,32(sp)
80006914:	8fb0001c 	lw	s0,28(sp)
80006918:	c7b50028 	lwc1	$f21,40(sp)
8000691c:	03e00008 	jr	ra
80006920:	27bd0030 	addiu	sp,sp,48
80006924:	00063500 	sll	a2,a2,0x14
80006928:	44850000 	mtc1	a1,$f0
8000692c:	00862023 	subu	a0,a0,a2
80006930:	44840800 	mtc1	a0,$f1
80006934:	8fbf0024 	lw	ra,36(sp)
80006938:	4620a003 	div.d	$f0,$f20,$f0
8000693c:	c7b4002c 	lwc1	$f20,44(sp)
80006940:	8fb10020 	lw	s1,32(sp)
80006944:	8fb0001c 	lw	s0,28(sp)
80006948:	c7b50028 	lwc1	$f21,40(sp)
8000694c:	03e00008 	jr	ra
80006950:	27bd0030 	addiu	sp,sp,48

80006954 <_mprec_log10>:
80006954:	28820018 	slti	v0,a0,24
80006958:	1440000a 	bnez	v0,80006984 <_mprec_log10+0x30>
8000695c:	3c028001 	lui	v0,0x8001
80006960:	c780091c 	lwc1	$f0,2332(gp)
80006964:	c7820924 	lwc1	$f2,2340(gp)
80006968:	c7810918 	lwc1	$f1,2328(gp)
8000696c:	c7830920 	lwc1	$f3,2336(gp)
80006970:	2484ffff 	addiu	a0,a0,-1
80006974:	1480fffe 	bnez	a0,80006970 <_mprec_log10+0x1c>
80006978:	46220002 	mul.d	$f0,$f0,$f2
8000697c:	03e00008 	jr	ra
80006980:	00000000 	nop
80006984:	2442a9c0 	addiu	v0,v0,-22080
80006988:	000420c0 	sll	a0,a0,0x3
8000698c:	00822021 	addu	a0,a0,v0
80006990:	c4800004 	lwc1	$f0,4(a0)
80006994:	00000000 	nop
80006998:	c4810000 	lwc1	$f1,0(a0)
8000699c:	03e00008 	jr	ra
800069a0:	00000000 	nop

800069a4 <__copybits>:
800069a4:	8cc20010 	lw	v0,16(a2)
800069a8:	24a5ffff 	addiu	a1,a1,-1
800069ac:	24480004 	addiu	t0,v0,4
800069b0:	00084080 	sll	t0,t0,0x2
800069b4:	00054943 	sra	t1,a1,0x5
800069b8:	00c84021 	addu	t0,a2,t0
800069bc:	25290001 	addiu	t1,t1,1
800069c0:	24c20014 	addiu	v0,a2,20
800069c4:	25080004 	addiu	t0,t0,4
800069c8:	00094880 	sll	t1,t1,0x2
800069cc:	0048182b 	sltu	v1,v0,t0
800069d0:	10600013 	beqz	v1,80006a20 <__copybits+0x7c>
800069d4:	00894821 	addu	t1,a0,t1
800069d8:	00801821 	move	v1,a0
800069dc:	8c470000 	lw	a3,0(v0)
800069e0:	24420004 	addiu	v0,v0,4
800069e4:	0048282b 	sltu	a1,v0,t0
800069e8:	ac670000 	sw	a3,0(v1)
800069ec:	14a0fffb 	bnez	a1,800069dc <__copybits+0x38>
800069f0:	24630004 	addiu	v1,v1,4
800069f4:	01061023 	subu	v0,t0,a2
800069f8:	2442ffeb 	addiu	v0,v0,-21
800069fc:	00021082 	srl	v0,v0,0x2
80006a00:	24420001 	addiu	v0,v0,1
80006a04:	00021080 	sll	v0,v0,0x2
80006a08:	00822021 	addu	a0,a0,v0
80006a0c:	0089102b 	sltu	v0,a0,t1
80006a10:	10400006 	beqz	v0,80006a2c <__copybits+0x88>
80006a14:	00000000 	nop
80006a18:	ac800000 	sw	zero,0(a0)
80006a1c:	24840004 	addiu	a0,a0,4
80006a20:	0089102b 	sltu	v0,a0,t1
80006a24:	1440fffc 	bnez	v0,80006a18 <__copybits+0x74>
80006a28:	00000000 	nop
80006a2c:	03e00008 	jr	ra
80006a30:	00000000 	nop

80006a34 <__any_on>:
80006a34:	8c860010 	lw	a2,16(a0)
80006a38:	00051143 	sra	v0,a1,0x5
80006a3c:	00c2382a 	slt	a3,a2,v0
80006a40:	10e00014 	beqz	a3,80006a94 <__any_on+0x60>
80006a44:	24830014 	addiu	v1,a0,20
80006a48:	00c01021 	move	v0,a2
80006a4c:	24420004 	addiu	v0,v0,4
80006a50:	00021080 	sll	v0,v0,0x2
80006a54:	00822021 	addu	a0,a0,v0
80006a58:	24820004 	addiu	v0,a0,4
80006a5c:	0062282b 	sltu	a1,v1,v0
80006a60:	14a00006 	bnez	a1,80006a7c <__any_on+0x48>
80006a64:	00001021 	move	v0,zero
80006a68:	08001ab4 	j	80006ad0 <__any_on+0x9c>
80006a6c:	00000000 	nop
80006a70:	0064102b 	sltu	v0,v1,a0
80006a74:	10400016 	beqz	v0,80006ad0 <__any_on+0x9c>
80006a78:	2484fffc 	addiu	a0,a0,-4
80006a7c:	8c820000 	lw	v0,0(a0)
80006a80:	00000000 	nop
80006a84:	1040fffa 	beqz	v0,80006a70 <__any_on+0x3c>
80006a88:	00000000 	nop
80006a8c:	03e00008 	jr	ra
80006a90:	24020001 	li	v0,1
80006a94:	0046302a 	slt	a2,v0,a2
80006a98:	10c0ffec 	beqz	a2,80006a4c <__any_on+0x18>
80006a9c:	30a5001f 	andi	a1,a1,0x1f
80006aa0:	10a0ffea 	beqz	a1,80006a4c <__any_on+0x18>
80006aa4:	24460004 	addiu	a2,v0,4
80006aa8:	00063080 	sll	a2,a2,0x2
80006aac:	00863021 	addu	a2,a0,a2
80006ab0:	8cc60004 	lw	a2,4(a2)
80006ab4:	00000000 	nop
80006ab8:	00a63806 	srlv	a3,a2,a1
80006abc:	00a72804 	sllv	a1,a3,a1
80006ac0:	14a6fff2 	bne	a1,a2,80006a8c <__any_on+0x58>
80006ac4:	00000000 	nop
80006ac8:	08001a94 	j	80006a50 <__any_on+0x1c>
80006acc:	24420004 	addiu	v0,v0,4
80006ad0:	03e00008 	jr	ra
80006ad4:	00000000 	nop

80006ad8 <__fpclassifyd>:
80006ad8:	44026800 	mfc1	v0,$f13
80006adc:	44036000 	mfc1	v1,$f12
80006ae0:	1040000a 	beqz	v0,80006b0c <__fpclassifyd+0x34>
80006ae4:	3c048000 	lui	a0,0x8000
80006ae8:	10440008 	beq	v0,a0,80006b0c <__fpclassifyd+0x34>
80006aec:	3c05fff0 	lui	a1,0xfff0
80006af0:	00453021 	addu	a2,v0,a1
80006af4:	3c047fe0 	lui	a0,0x7fe0
80006af8:	00c4302b 	sltu	a2,a2,a0
80006afc:	10c00007 	beqz	a2,80006b1c <__fpclassifyd+0x44>
80006b00:	3c067ff0 	lui	a2,0x7ff0
80006b04:	03e00008 	jr	ra
80006b08:	24020004 	li	v0,4
80006b0c:	1460fff8 	bnez	v1,80006af0 <__fpclassifyd+0x18>
80006b10:	3c05fff0 	lui	a1,0xfff0
80006b14:	03e00008 	jr	ra
80006b18:	24020002 	li	v0,2
80006b1c:	00463821 	addu	a3,v0,a2
80006b20:	00e4202b 	sltu	a0,a3,a0
80006b24:	1480fff7 	bnez	a0,80006b04 <__fpclassifyd+0x2c>
80006b28:	3c040010 	lui	a0,0x10
80006b2c:	0044382b 	sltu	a3,v0,a0
80006b30:	10e00003 	beqz	a3,80006b40 <__fpclassifyd+0x68>
80006b34:	3c078000 	lui	a3,0x8000
80006b38:	03e00008 	jr	ra
80006b3c:	24020003 	li	v0,3
80006b40:	00473821 	addu	a3,v0,a3
80006b44:	00e4202b 	sltu	a0,a3,a0
80006b48:	1480fffb 	bnez	a0,80006b38 <__fpclassifyd+0x60>
80006b4c:	00000000 	nop
80006b50:	10460005 	beq	v0,a2,80006b68 <__fpclassifyd+0x90>
80006b54:	00000000 	nop
80006b58:	10450003 	beq	v0,a1,80006b68 <__fpclassifyd+0x90>
80006b5c:	00000000 	nop
80006b60:	03e00008 	jr	ra
80006b64:	00001021 	move	v0,zero
80006b68:	03e00008 	jr	ra
80006b6c:	2c620001 	sltiu	v0,v1,1

80006b70 <_sbrk_r>:
80006b70:	27bdffe8 	addiu	sp,sp,-24
80006b74:	afb00010 	sw	s0,16(sp)
80006b78:	00808021 	move	s0,a0
80006b7c:	00a02021 	move	a0,a1
80006b80:	afbf0014 	sw	ra,20(sp)
80006b84:	0c00004c 	jal	80000130 <sbrk>
80006b88:	af800970 	sw	zero,2416(gp)
80006b8c:	2403ffff 	li	v1,-1
80006b90:	10430005 	beq	v0,v1,80006ba8 <_sbrk_r+0x38>
80006b94:	00000000 	nop
80006b98:	8fbf0014 	lw	ra,20(sp)
80006b9c:	8fb00010 	lw	s0,16(sp)
80006ba0:	03e00008 	jr	ra
80006ba4:	27bd0018 	addiu	sp,sp,24
80006ba8:	8f830970 	lw	v1,2416(gp)
80006bac:	00000000 	nop
80006bb0:	1060fff9 	beqz	v1,80006b98 <_sbrk_r+0x28>
80006bb4:	00000000 	nop
80006bb8:	8fbf0014 	lw	ra,20(sp)
80006bbc:	ae030000 	sw	v1,0(s0)
80006bc0:	8fb00010 	lw	s0,16(sp)
80006bc4:	03e00008 	jr	ra
80006bc8:	27bd0018 	addiu	sp,sp,24

80006bcc <__sread>:
80006bcc:	27bdffe8 	addiu	sp,sp,-24
80006bd0:	afb00010 	sw	s0,16(sp)
80006bd4:	00a08021 	move	s0,a1
80006bd8:	84a5000e 	lh	a1,14(a1)
80006bdc:	afbf0014 	sw	ra,20(sp)
80006be0:	0c00235f 	jal	80008d7c <_read_r>
80006be4:	00000000 	nop
80006be8:	04400008 	bltz	v0,80006c0c <__sread+0x40>
80006bec:	00000000 	nop
80006bf0:	8e030050 	lw	v1,80(s0)
80006bf4:	8fbf0014 	lw	ra,20(sp)
80006bf8:	00621821 	addu	v1,v1,v0
80006bfc:	ae030050 	sw	v1,80(s0)
80006c00:	8fb00010 	lw	s0,16(sp)
80006c04:	03e00008 	jr	ra
80006c08:	27bd0018 	addiu	sp,sp,24
80006c0c:	9603000c 	lhu	v1,12(s0)
80006c10:	8fbf0014 	lw	ra,20(sp)
80006c14:	3063efff 	andi	v1,v1,0xefff
80006c18:	a603000c 	sh	v1,12(s0)
80006c1c:	8fb00010 	lw	s0,16(sp)
80006c20:	03e00008 	jr	ra
80006c24:	27bd0018 	addiu	sp,sp,24

80006c28 <__seofread>:
80006c28:	03e00008 	jr	ra
80006c2c:	00001021 	move	v0,zero

80006c30 <__swrite>:
80006c30:	84a2000c 	lh	v0,12(a1)
80006c34:	27bdffd8 	addiu	sp,sp,-40
80006c38:	30430100 	andi	v1,v0,0x100
80006c3c:	00031c00 	sll	v1,v1,0x10
80006c40:	00031c03 	sra	v1,v1,0x10
80006c44:	afb30020 	sw	s3,32(sp)
80006c48:	afb2001c 	sw	s2,28(sp)
80006c4c:	afb10018 	sw	s1,24(sp)
80006c50:	afb00014 	sw	s0,20(sp)
80006c54:	afbf0024 	sw	ra,36(sp)
80006c58:	00a08021 	move	s0,a1
80006c5c:	00809821 	move	s3,a0
80006c60:	00c09021 	move	s2,a2
80006c64:	10600006 	beqz	v1,80006c80 <__swrite+0x50>
80006c68:	00e08821 	move	s1,a3
80006c6c:	84a5000e 	lh	a1,14(a1)
80006c70:	00003021 	move	a2,zero
80006c74:	0c0022ed 	jal	80008bb4 <_lseek_r>
80006c78:	24070002 	li	a3,2
80006c7c:	8602000c 	lh	v0,12(s0)
80006c80:	2403efff 	li	v1,-4097
80006c84:	00431024 	and	v0,v0,v1
80006c88:	8605000e 	lh	a1,14(s0)
80006c8c:	a602000c 	sh	v0,12(s0)
80006c90:	8fbf0024 	lw	ra,36(sp)
80006c94:	8fb00014 	lw	s0,20(sp)
80006c98:	02602021 	move	a0,s3
80006c9c:	02403021 	move	a2,s2
80006ca0:	8fb30020 	lw	s3,32(sp)
80006ca4:	8fb2001c 	lw	s2,28(sp)
80006ca8:	02203821 	move	a3,s1
80006cac:	8fb10018 	lw	s1,24(sp)
80006cb0:	0800202c 	j	800080b0 <_write_r>
80006cb4:	27bd0028 	addiu	sp,sp,40

80006cb8 <__sseek>:
80006cb8:	27bdffe8 	addiu	sp,sp,-24
80006cbc:	afb00010 	sw	s0,16(sp)
80006cc0:	00a08021 	move	s0,a1
80006cc4:	84a5000e 	lh	a1,14(a1)
80006cc8:	afbf0014 	sw	ra,20(sp)
80006ccc:	0c0022ed 	jal	80008bb4 <_lseek_r>
80006cd0:	00000000 	nop
80006cd4:	2403ffff 	li	v1,-1
80006cd8:	10430009 	beq	v0,v1,80006d00 <__sseek+0x48>
80006cdc:	00000000 	nop
80006ce0:	9603000c 	lhu	v1,12(s0)
80006ce4:	8fbf0014 	lw	ra,20(sp)
80006ce8:	34631000 	ori	v1,v1,0x1000
80006cec:	ae020050 	sw	v0,80(s0)
80006cf0:	a603000c 	sh	v1,12(s0)
80006cf4:	8fb00010 	lw	s0,16(sp)
80006cf8:	03e00008 	jr	ra
80006cfc:	27bd0018 	addiu	sp,sp,24
80006d00:	9603000c 	lhu	v1,12(s0)
80006d04:	8fbf0014 	lw	ra,20(sp)
80006d08:	3063efff 	andi	v1,v1,0xefff
80006d0c:	a603000c 	sh	v1,12(s0)
80006d10:	8fb00010 	lw	s0,16(sp)
80006d14:	03e00008 	jr	ra
80006d18:	27bd0018 	addiu	sp,sp,24

80006d1c <__sclose>:
80006d1c:	84a5000e 	lh	a1,14(a1)
80006d20:	08002077 	j	800081dc <_close_r>
80006d24:	00000000 	nop

80006d28 <strcmp>:
80006d28:	00a41025 	or	v0,a1,a0
80006d2c:	30420001 	andi	v0,v0,0x1
80006d30:	14400010 	bnez	v0,80006d74 <strcmp+0x4c>
80006d34:	00000000 	nop
80006d38:	90830000 	lbu	v1,0(a0)
80006d3c:	90a20000 	lbu	v0,0(a1)
80006d40:	10600013 	beqz	v1,80006d90 <strcmp+0x68>
80006d44:	24840002 	addiu	a0,a0,2
80006d48:	9086ffff 	lbu	a2,-1(a0)
80006d4c:	14620010 	bne	v1,v0,80006d90 <strcmp+0x68>
80006d50:	00000000 	nop
80006d54:	90a20001 	lbu	v0,1(a1)
80006d58:	10c00004 	beqz	a2,80006d6c <strcmp+0x44>
80006d5c:	24a50002 	addiu	a1,a1,2
80006d60:	90830000 	lbu	v1,0(a0)
80006d64:	10c2fff5 	beq	a2,v0,80006d3c <strcmp+0x14>
80006d68:	00000000 	nop
80006d6c:	03e00008 	jr	ra
80006d70:	00c21023 	subu	v0,a2,v0
80006d74:	90830000 	lbu	v1,0(a0)
80006d78:	90a20000 	lbu	v0,0(a1)
80006d7c:	24840001 	addiu	a0,a0,1
80006d80:	10600003 	beqz	v1,80006d90 <strcmp+0x68>
80006d84:	24a50001 	addiu	a1,a1,1
80006d88:	1062fffa 	beq	v1,v0,80006d74 <strcmp+0x4c>
80006d8c:	00000000 	nop
80006d90:	03e00008 	jr	ra
80006d94:	00621023 	subu	v0,v1,v0

80006d98 <strlen>:
80006d98:	24820001 	addiu	v0,a0,1
80006d9c:	90830000 	lbu	v1,0(a0)
80006da0:	00000000 	nop
80006da4:	1460fffd 	bnez	v1,80006d9c <strlen+0x4>
80006da8:	24840001 	addiu	a0,a0,1
80006dac:	03e00008 	jr	ra
80006db0:	00821023 	subu	v0,a0,v0

80006db4 <__sprint_r>:
80006db4:	8cc20008 	lw	v0,8(a2)
80006db8:	27bdffc8 	addiu	sp,sp,-56
80006dbc:	afb6002c 	sw	s6,44(sp)
80006dc0:	afbf0034 	sw	ra,52(sp)
80006dc4:	afb70030 	sw	s7,48(sp)
80006dc8:	afb50028 	sw	s5,40(sp)
80006dcc:	afb40024 	sw	s4,36(sp)
80006dd0:	afb30020 	sw	s3,32(sp)
80006dd4:	afb2001c 	sw	s2,28(sp)
80006dd8:	afb10018 	sw	s1,24(sp)
80006ddc:	afb00014 	sw	s0,20(sp)
80006de0:	1040001a 	beqz	v0,80006e4c <__sprint_r+0x98>
80006de4:	00c0b021 	move	s6,a2
80006de8:	8ca30064 	lw	v1,100(a1)
80006dec:	00000000 	nop
80006df0:	30632000 	andi	v1,v1,0x2000
80006df4:	10600029 	beqz	v1,80006e9c <__sprint_r+0xe8>
80006df8:	00a09821 	move	s3,a1
80006dfc:	8cd70000 	lw	s7,0(a2)
80006e00:	0080a021 	move	s4,a0
80006e04:	2415ffff 	li	s5,-1
80006e08:	8ef20004 	lw	s2,4(s7)
80006e0c:	8ef10000 	lw	s1,0(s7)
80006e10:	00129082 	srl	s2,s2,0x2
80006e14:	1e400005 	bgtz	s2,80006e2c <__sprint_r+0x78>
80006e18:	00008021 	move	s0,zero
80006e1c:	08001ba1 	j	80006e84 <__sprint_r+0xd0>
80006e20:	00129080 	sll	s2,s2,0x2
80006e24:	12500015 	beq	s2,s0,80006e7c <__sprint_r+0xc8>
80006e28:	26310004 	addiu	s1,s1,4
80006e2c:	8e250000 	lw	a1,0(s1)
80006e30:	02802021 	move	a0,s4
80006e34:	0c0020e5 	jal	80008394 <_fputwc_r>
80006e38:	02603021 	move	a2,s3
80006e3c:	1455fff9 	bne	v0,s5,80006e24 <__sprint_r+0x70>
80006e40:	26100001 	addiu	s0,s0,1
80006e44:	2402ffff 	li	v0,-1
80006e48:	aec00008 	sw	zero,8(s6)
80006e4c:	8fbf0034 	lw	ra,52(sp)
80006e50:	aec00004 	sw	zero,4(s6)
80006e54:	8fb70030 	lw	s7,48(sp)
80006e58:	8fb6002c 	lw	s6,44(sp)
80006e5c:	8fb50028 	lw	s5,40(sp)
80006e60:	8fb40024 	lw	s4,36(sp)
80006e64:	8fb30020 	lw	s3,32(sp)
80006e68:	8fb2001c 	lw	s2,28(sp)
80006e6c:	8fb10018 	lw	s1,24(sp)
80006e70:	8fb00014 	lw	s0,20(sp)
80006e74:	03e00008 	jr	ra
80006e78:	27bd0038 	addiu	sp,sp,56
80006e7c:	8ec20008 	lw	v0,8(s6)
80006e80:	00129080 	sll	s2,s2,0x2
80006e84:	00521023 	subu	v0,v0,s2
80006e88:	aec20008 	sw	v0,8(s6)
80006e8c:	1440ffde 	bnez	v0,80006e08 <__sprint_r+0x54>
80006e90:	26f70008 	addiu	s7,s7,8
80006e94:	08001b93 	j	80006e4c <__sprint_r+0x98>
80006e98:	aec00008 	sw	zero,8(s6)
80006e9c:	0c00218b 	jal	8000862c <__sfvwrite_r>
80006ea0:	00000000 	nop
80006ea4:	08001b93 	j	80006e4c <__sprint_r+0x98>
80006ea8:	aec00008 	sw	zero,8(s6)

80006eac <_vfiprintf_r>:
80006eac:	27bdfaf8 	addiu	sp,sp,-1288
80006eb0:	afb104e4 	sw	s1,1252(sp)
80006eb4:	afbf0504 	sw	ra,1284(sp)
80006eb8:	afbe0500 	sw	s8,1280(sp)
80006ebc:	afb704fc 	sw	s7,1276(sp)
80006ec0:	afb604f8 	sw	s6,1272(sp)
80006ec4:	afb504f4 	sw	s5,1268(sp)
80006ec8:	afb404f0 	sw	s4,1264(sp)
80006ecc:	afb304ec 	sw	s3,1260(sp)
80006ed0:	afb204e8 	sw	s2,1256(sp)
80006ed4:	afb004e0 	sw	s0,1248(sp)
80006ed8:	afa40508 	sw	a0,1288(sp)
80006edc:	afa5050c 	sw	a1,1292(sp)
80006ee0:	00c08821 	move	s1,a2
80006ee4:	10800005 	beqz	a0,80006efc <_vfiprintf_r+0x50>
80006ee8:	afa70514 	sw	a3,1300(sp)
80006eec:	8c820038 	lw	v0,56(a0)
80006ef0:	00000000 	nop
80006ef4:	10400372 	beqz	v0,80007cc0 <_vfiprintf_r+0xe14>
80006ef8:	00000000 	nop
80006efc:	8fa3050c 	lw	v1,1292(sp)
80006f00:	00000000 	nop
80006f04:	8462000c 	lh	v0,12(v1)
80006f08:	00000000 	nop
80006f0c:	30432000 	andi	v1,v0,0x2000
80006f10:	00031c00 	sll	v1,v1,0x10
80006f14:	00031c03 	sra	v1,v1,0x10
80006f18:	14600009 	bnez	v1,80006f40 <_vfiprintf_r+0x94>
80006f1c:	30430008 	andi	v1,v0,0x8
80006f20:	8fa5050c 	lw	a1,1292(sp)
80006f24:	2403dfff 	li	v1,-8193
80006f28:	8ca40064 	lw	a0,100(a1)
80006f2c:	34422000 	ori	v0,v0,0x2000
80006f30:	00831824 	and	v1,a0,v1
80006f34:	a4a2000c 	sh	v0,12(a1)
80006f38:	aca30064 	sw	v1,100(a1)
80006f3c:	30430008 	andi	v1,v0,0x8
80006f40:	00031c00 	sll	v1,v1,0x10
80006f44:	00031c03 	sra	v1,v1,0x10
80006f48:	106002c9 	beqz	v1,80007a70 <_vfiprintf_r+0xbc4>
80006f4c:	00000000 	nop
80006f50:	8fa4050c 	lw	a0,1292(sp)
80006f54:	00000000 	nop
80006f58:	8c830010 	lw	v1,16(a0)
80006f5c:	00000000 	nop
80006f60:	106002c3 	beqz	v1,80007a70 <_vfiprintf_r+0xbc4>
80006f64:	3044001a 	andi	a0,v0,0x1a
80006f68:	2403000a 	li	v1,10
80006f6c:	108302cd 	beq	a0,v1,80007aa4 <_vfiprintf_r+0xbf8>
80006f70:	27a5049f 	addiu	a1,sp,1183
80006f74:	27b004a0 	addiu	s0,sp,1184
80006f78:	27a20010 	addiu	v0,sp,16
80006f7c:	02051823 	subu	v1,s0,a1
80006f80:	8fb30508 	lw	s3,1288(sp)
80006f84:	8fb4050c 	lw	s4,1292(sp)
80006f88:	afa504b0 	sw	a1,1200(sp)
80006f8c:	afa204a0 	sw	v0,1184(sp)
80006f90:	afa004a8 	sw	zero,1192(sp)
80006f94:	afa004a4 	sw	zero,1188(sp)
80006f98:	0220a821 	move	s5,s1
80006f9c:	afa004d0 	sw	zero,1232(sp)
80006fa0:	afa004bc 	sw	zero,1212(sp)
80006fa4:	00404021 	move	t0,v0
80006fa8:	afa304d4 	sw	v1,1236(sp)
80006fac:	82a20000 	lb	v0,0(s5)
80006fb0:	00000000 	nop
80006fb4:	104000ff 	beqz	v0,800073b4 <_vfiprintf_r+0x508>
80006fb8:	00000000 	nop
80006fbc:	24030025 	li	v1,37
80006fc0:	14430005 	bne	v0,v1,80006fd8 <_vfiprintf_r+0x12c>
80006fc4:	02a08821 	move	s1,s5
80006fc8:	08001c0c 	j	80007030 <_vfiprintf_r+0x184>
80006fcc:	00000000 	nop
80006fd0:	10430006 	beq	v0,v1,80006fec <_vfiprintf_r+0x140>
80006fd4:	00000000 	nop
80006fd8:	26310001 	addiu	s1,s1,1
80006fdc:	82220000 	lb	v0,0(s1)
80006fe0:	00000000 	nop
80006fe4:	1440fffa 	bnez	v0,80006fd0 <_vfiprintf_r+0x124>
80006fe8:	02359023 	subu	s2,s1,s5
80006fec:	12400010 	beqz	s2,80007030 <_vfiprintf_r+0x184>
80006ff0:	00000000 	nop
80006ff4:	8fa204a4 	lw	v0,1188(sp)
80006ff8:	8fa304a8 	lw	v1,1192(sp)
80006ffc:	24420001 	addiu	v0,v0,1
80007000:	00721821 	addu	v1,v1,s2
80007004:	28440008 	slti	a0,v0,8
80007008:	ad150000 	sw	s5,0(t0)
8000700c:	ad120004 	sw	s2,4(t0)
80007010:	afa304a8 	sw	v1,1192(sp)
80007014:	108002d4 	beqz	a0,80007b68 <_vfiprintf_r+0xcbc>
80007018:	afa204a4 	sw	v0,1188(sp)
8000701c:	25080008 	addiu	t0,t0,8
80007020:	8fa404bc 	lw	a0,1212(sp)
80007024:	00000000 	nop
80007028:	00922021 	addu	a0,a0,s2
8000702c:	afa404bc 	sw	a0,1212(sp)
80007030:	82220000 	lb	v0,0(s1)
80007034:	00000000 	nop
80007038:	1040039b 	beqz	v0,80007ea8 <_vfiprintf_r+0xffc>
8000703c:	26350001 	addiu	s5,s1,1
80007040:	82220001 	lb	v0,1(s1)
80007044:	a3a004ae 	sb	zero,1198(sp)
80007048:	00002821 	move	a1,zero
8000704c:	2409ffff 	li	t1,-1
80007050:	afa004c0 	sw	zero,1216(sp)
80007054:	00009021 	move	s2,zero
80007058:	2407002a 	li	a3,42
8000705c:	2406006c 	li	a2,108
80007060:	26b50001 	addiu	s5,s5,1
80007064:	2443ffe0 	addiu	v1,v0,-32
80007068:	2c640059 	sltiu	a0,v1,89
8000706c:	148000d3 	bnez	a0,800073bc <_vfiprintf_r+0x510>
80007070:	3c048001 	lui	a0,0x8001
80007074:	1040038c 	beqz	v0,80007ea8 <_vfiprintf_r+0xffc>
80007078:	a3a504ae 	sb	a1,1198(sp)
8000707c:	24030001 	li	v1,1
80007080:	a3a20478 	sb	v0,1144(sp)
80007084:	a3a004ae 	sb	zero,1198(sp)
80007088:	afa304b4 	sw	v1,1204(sp)
8000708c:	afa304b8 	sw	v1,1208(sp)
80007090:	27b10478 	addiu	s1,sp,1144
80007094:	afa004c4 	sw	zero,1220(sp)
80007098:	32570002 	andi	s7,s2,0x2
8000709c:	12e00006 	beqz	s7,800070b8 <_vfiprintf_r+0x20c>
800070a0:	32430084 	andi	v1,s2,0x84
800070a4:	8fa304b4 	lw	v1,1204(sp)
800070a8:	00000000 	nop
800070ac:	24630002 	addiu	v1,v1,2
800070b0:	afa304b4 	sw	v1,1204(sp)
800070b4:	32430084 	andi	v1,s2,0x84
800070b8:	146001ed 	bnez	v1,80007870 <_vfiprintf_r+0x9c4>
800070bc:	afa304c8 	sw	v1,1224(sp)
800070c0:	8fa404c0 	lw	a0,1216(sp)
800070c4:	8fa304b4 	lw	v1,1204(sp)
800070c8:	00000000 	nop
800070cc:	0083f023 	subu	s8,a0,v1
800070d0:	1bc001e7 	blez	s8,80007870 <_vfiprintf_r+0x9c4>
800070d4:	2bc20011 	slti	v0,s8,17
800070d8:	8fa304a8 	lw	v1,1192(sp)
800070dc:	144003cf 	bnez	v0,8000801c <_vfiprintf_r+0x1170>
800070e0:	3c058001 	lui	a1,0x8001
800070e4:	24a5abfc 	addiu	a1,a1,-21508
800070e8:	8fa204a4 	lw	v0,1188(sp)
800070ec:	afa504cc 	sw	a1,1228(sp)
800070f0:	08001c42 	j	80007108 <_vfiprintf_r+0x25c>
800070f4:	24160010 	li	s6,16
800070f8:	27defff0 	addiu	s8,s8,-16
800070fc:	2bc40011 	slti	a0,s8,17
80007100:	14800016 	bnez	a0,8000715c <_vfiprintf_r+0x2b0>
80007104:	25080008 	addiu	t0,t0,8
80007108:	24420001 	addiu	v0,v0,1
8000710c:	3c058001 	lui	a1,0x8001
80007110:	24630010 	addiu	v1,v1,16
80007114:	24a5abfc 	addiu	a1,a1,-21508
80007118:	28440008 	slti	a0,v0,8
8000711c:	ad050000 	sw	a1,0(t0)
80007120:	ad160004 	sw	s6,4(t0)
80007124:	afa304a8 	sw	v1,1192(sp)
80007128:	1480fff3 	bnez	a0,800070f8 <_vfiprintf_r+0x24c>
8000712c:	afa204a4 	sw	v0,1188(sp)
80007130:	02602021 	move	a0,s3
80007134:	02802821 	move	a1,s4
80007138:	0c001b6d 	jal	80006db4 <__sprint_r>
8000713c:	02003021 	move	a2,s0
80007140:	144001e3 	bnez	v0,800078d0 <_vfiprintf_r+0xa24>
80007144:	27defff0 	addiu	s8,s8,-16
80007148:	2bc40011 	slti	a0,s8,17
8000714c:	8fa304a8 	lw	v1,1192(sp)
80007150:	8fa204a4 	lw	v0,1188(sp)
80007154:	1080ffec 	beqz	a0,80007108 <_vfiprintf_r+0x25c>
80007158:	27a80010 	addiu	t0,sp,16
8000715c:	24420001 	addiu	v0,v0,1
80007160:	8fa504cc 	lw	a1,1228(sp)
80007164:	007e1821 	addu	v1,v1,s8
80007168:	28440008 	slti	a0,v0,8
8000716c:	ad050000 	sw	a1,0(t0)
80007170:	ad1e0004 	sw	s8,4(t0)
80007174:	afa304a8 	sw	v1,1192(sp)
80007178:	108002e8 	beqz	a0,80007d1c <_vfiprintf_r+0xe70>
8000717c:	afa204a4 	sw	v0,1188(sp)
80007180:	83a404ae 	lb	a0,1198(sp)
80007184:	00000000 	nop
80007188:	148001bf 	bnez	a0,80007888 <_vfiprintf_r+0x9dc>
8000718c:	25080008 	addiu	t0,t0,8
80007190:	12e0000b 	beqz	s7,800071c0 <_vfiprintf_r+0x314>
80007194:	27a504ac 	addiu	a1,sp,1196
80007198:	24420001 	addiu	v0,v0,1
8000719c:	24630002 	addiu	v1,v1,2
800071a0:	ad050000 	sw	a1,0(t0)
800071a4:	28440008 	slti	a0,v0,8
800071a8:	24050002 	li	a1,2
800071ac:	ad050004 	sw	a1,4(t0)
800071b0:	afa304a8 	sw	v1,1192(sp)
800071b4:	108002b8 	beqz	a0,80007c98 <_vfiprintf_r+0xdec>
800071b8:	afa204a4 	sw	v0,1188(sp)
800071bc:	25080008 	addiu	t0,t0,8
800071c0:	8fa504c8 	lw	a1,1224(sp)
800071c4:	24040080 	li	a0,128
800071c8:	10a401f3 	beq	a1,a0,80007998 <_vfiprintf_r+0xaec>
800071cc:	00000000 	nop
800071d0:	8fa404c4 	lw	a0,1220(sp)
800071d4:	8fa504b8 	lw	a1,1208(sp)
800071d8:	00000000 	nop
800071dc:	0085f023 	subu	s8,a0,a1
800071e0:	1bc00027 	blez	s8,80007280 <_vfiprintf_r+0x3d4>
800071e4:	3c098001 	lui	t1,0x8001
800071e8:	2bc40011 	slti	a0,s8,17
800071ec:	2537ac0c 	addiu	s7,t1,-21492
800071f0:	10800007 	beqz	a0,80007210 <_vfiprintf_r+0x364>
800071f4:	24160010 	li	s6,16
800071f8:	08001c98 	j	80007260 <_vfiprintf_r+0x3b4>
800071fc:	24420001 	addiu	v0,v0,1
80007200:	27defff0 	addiu	s8,s8,-16
80007204:	2bc40011 	slti	a0,s8,17
80007208:	14800014 	bnez	a0,8000725c <_vfiprintf_r+0x3b0>
8000720c:	25080008 	addiu	t0,t0,8
80007210:	24420001 	addiu	v0,v0,1
80007214:	24630010 	addiu	v1,v1,16
80007218:	28440008 	slti	a0,v0,8
8000721c:	ad170000 	sw	s7,0(t0)
80007220:	ad160004 	sw	s6,4(t0)
80007224:	afa304a8 	sw	v1,1192(sp)
80007228:	1480fff5 	bnez	a0,80007200 <_vfiprintf_r+0x354>
8000722c:	afa204a4 	sw	v0,1188(sp)
80007230:	02602021 	move	a0,s3
80007234:	02802821 	move	a1,s4
80007238:	0c001b6d 	jal	80006db4 <__sprint_r>
8000723c:	02003021 	move	a2,s0
80007240:	144001a3 	bnez	v0,800078d0 <_vfiprintf_r+0xa24>
80007244:	27defff0 	addiu	s8,s8,-16
80007248:	2bc40011 	slti	a0,s8,17
8000724c:	8fa304a8 	lw	v1,1192(sp)
80007250:	8fa204a4 	lw	v0,1188(sp)
80007254:	1080ffee 	beqz	a0,80007210 <_vfiprintf_r+0x364>
80007258:	27a80010 	addiu	t0,sp,16
8000725c:	24420001 	addiu	v0,v0,1
80007260:	007e1821 	addu	v1,v1,s8
80007264:	28440008 	slti	a0,v0,8
80007268:	ad170000 	sw	s7,0(t0)
8000726c:	ad1e0004 	sw	s8,4(t0)
80007270:	afa304a8 	sw	v1,1192(sp)
80007274:	10800244 	beqz	a0,80007b88 <_vfiprintf_r+0xcdc>
80007278:	afa204a4 	sw	v0,1188(sp)
8000727c:	25080008 	addiu	t0,t0,8
80007280:	8fa404b8 	lw	a0,1208(sp)
80007284:	24420001 	addiu	v0,v0,1
80007288:	8fa504b8 	lw	a1,1208(sp)
8000728c:	00641821 	addu	v1,v1,a0
80007290:	28440008 	slti	a0,v0,8
80007294:	ad110000 	sw	s1,0(t0)
80007298:	ad050004 	sw	a1,4(t0)
8000729c:	afa304a8 	sw	v1,1192(sp)
800072a0:	108001ea 	beqz	a0,80007a4c <_vfiprintf_r+0xba0>
800072a4:	afa204a4 	sw	v0,1188(sp)
800072a8:	25080008 	addiu	t0,t0,8
800072ac:	32520004 	andi	s2,s2,0x4
800072b0:	12400030 	beqz	s2,80007374 <_vfiprintf_r+0x4c8>
800072b4:	00000000 	nop
800072b8:	8fa204c0 	lw	v0,1216(sp)
800072bc:	8fa404b4 	lw	a0,1204(sp)
800072c0:	00000000 	nop
800072c4:	00448823 	subu	s1,v0,a0
800072c8:	1a20002a 	blez	s1,80007374 <_vfiprintf_r+0x4c8>
800072cc:	2a220011 	slti	v0,s1,17
800072d0:	1440035d 	bnez	v0,80008048 <_vfiprintf_r+0x119c>
800072d4:	3c048001 	lui	a0,0x8001
800072d8:	2484abfc 	addiu	a0,a0,-21508
800072dc:	8fa204a4 	lw	v0,1188(sp)
800072e0:	afa404cc 	sw	a0,1228(sp)
800072e4:	08001cbf 	j	800072fc <_vfiprintf_r+0x450>
800072e8:	24120010 	li	s2,16
800072ec:	2631fff0 	addiu	s1,s1,-16
800072f0:	2a240011 	slti	a0,s1,17
800072f4:	14800016 	bnez	a0,80007350 <_vfiprintf_r+0x4a4>
800072f8:	25080008 	addiu	t0,t0,8
800072fc:	24420001 	addiu	v0,v0,1
80007300:	3c058001 	lui	a1,0x8001
80007304:	24630010 	addiu	v1,v1,16
80007308:	24a5abfc 	addiu	a1,a1,-21508
8000730c:	28440008 	slti	a0,v0,8
80007310:	ad050000 	sw	a1,0(t0)
80007314:	ad120004 	sw	s2,4(t0)
80007318:	afa304a8 	sw	v1,1192(sp)
8000731c:	1480fff3 	bnez	a0,800072ec <_vfiprintf_r+0x440>
80007320:	afa204a4 	sw	v0,1188(sp)
80007324:	02602021 	move	a0,s3
80007328:	02802821 	move	a1,s4
8000732c:	0c001b6d 	jal	80006db4 <__sprint_r>
80007330:	02003021 	move	a2,s0
80007334:	14400166 	bnez	v0,800078d0 <_vfiprintf_r+0xa24>
80007338:	2631fff0 	addiu	s1,s1,-16
8000733c:	2a240011 	slti	a0,s1,17
80007340:	8fa304a8 	lw	v1,1192(sp)
80007344:	8fa204a4 	lw	v0,1188(sp)
80007348:	1080ffec 	beqz	a0,800072fc <_vfiprintf_r+0x450>
8000734c:	27a80010 	addiu	t0,sp,16
80007350:	24420001 	addiu	v0,v0,1
80007354:	8fa504cc 	lw	a1,1228(sp)
80007358:	02231821 	addu	v1,s1,v1
8000735c:	28440008 	slti	a0,v0,8
80007360:	ad050000 	sw	a1,0(t0)
80007364:	ad110004 	sw	s1,4(t0)
80007368:	afa304a8 	sw	v1,1192(sp)
8000736c:	1080028c 	beqz	a0,80007da0 <_vfiprintf_r+0xef4>
80007370:	afa204a4 	sw	v0,1188(sp)
80007374:	8fb604b4 	lw	s6,1204(sp)
80007378:	8fa404c0 	lw	a0,1216(sp)
8000737c:	00000000 	nop
80007380:	02c4102a 	slt	v0,s6,a0
80007384:	10400002 	beqz	v0,80007390 <_vfiprintf_r+0x4e4>
80007388:	00000000 	nop
8000738c:	0080b021 	move	s6,a0
80007390:	8fa504bc 	lw	a1,1212(sp)
80007394:	00000000 	nop
80007398:	00b62821 	addu	a1,a1,s6
8000739c:	14600146 	bnez	v1,800078b8 <_vfiprintf_r+0xa0c>
800073a0:	afa504bc 	sw	a1,1212(sp)
800073a4:	82a20000 	lb	v0,0(s5)
800073a8:	afa004a4 	sw	zero,1188(sp)
800073ac:	1440ff03 	bnez	v0,80006fbc <_vfiprintf_r+0x110>
800073b0:	27a80010 	addiu	t0,sp,16
800073b4:	08001c0c 	j	80007030 <_vfiprintf_r+0x184>
800073b8:	02a08821 	move	s1,s5
800073bc:	00031880 	sll	v1,v1,0x2
800073c0:	2484aa98 	addiu	a0,a0,-21864
800073c4:	00831821 	addu	v1,a0,v1
800073c8:	8c630000 	lw	v1,0(v1)
800073cc:	00000000 	nop
800073d0:	00600008 	jr	v1
800073d4:	00000000 	nop
800073d8:	36520010 	ori	s2,s2,0x10
800073dc:	32420020 	andi	v0,s2,0x20
800073e0:	1040023b 	beqz	v0,80007cd0 <_vfiprintf_r+0xe24>
800073e4:	32420010 	andi	v0,s2,0x10
800073e8:	8fa40514 	lw	a0,1300(sp)
800073ec:	2402fff8 	li	v0,-8
800073f0:	24830007 	addiu	v1,a0,7
800073f4:	00621024 	and	v0,v1,v0
800073f8:	8c570000 	lw	s7,0(v0)
800073fc:	8c560004 	lw	s6,4(v0)
80007400:	24420008 	addiu	v0,v0,8
80007404:	afa20514 	sw	v0,1300(sp)
80007408:	02f61825 	or	v1,s7,s6
8000740c:	24020001 	li	v0,1
80007410:	a3a004ae 	sb	zero,1198(sp)
80007414:	0000f021 	move	s8,zero
80007418:	05200002 	bltz	t1,80007424 <_vfiprintf_r+0x578>
8000741c:	2404ff7f 	li	a0,-129
80007420:	02449024 	and	s2,s2,a0
80007424:	14600142 	bnez	v1,80007930 <_vfiprintf_r+0xa84>
80007428:	00000000 	nop
8000742c:	15200140 	bnez	t1,80007930 <_vfiprintf_r+0xa84>
80007430:	00000000 	nop
80007434:	14400016 	bnez	v0,80007490 <_vfiprintf_r+0x5e4>
80007438:	32420001 	andi	v0,s2,0x1
8000743c:	10400014 	beqz	v0,80007490 <_vfiprintf_r+0x5e4>
80007440:	24020030 	li	v0,48
80007444:	8fa404d4 	lw	a0,1236(sp)
80007448:	a3a2049f 	sb	v0,1183(sp)
8000744c:	afa404b8 	sw	a0,1208(sp)
80007450:	27b1049f 	addiu	s1,sp,1183
80007454:	afa904c4 	sw	t1,1220(sp)
80007458:	8fa304b8 	lw	v1,1208(sp)
8000745c:	8fa404c4 	lw	a0,1220(sp)
80007460:	00000000 	nop
80007464:	0064102a 	slt	v0,v1,a0
80007468:	10400002 	beqz	v0,80007474 <_vfiprintf_r+0x5c8>
8000746c:	afa304b4 	sw	v1,1204(sp)
80007470:	afa404b4 	sw	a0,1204(sp)
80007474:	13c0ff09 	beqz	s8,8000709c <_vfiprintf_r+0x1f0>
80007478:	32570002 	andi	s7,s2,0x2
8000747c:	8fa304b4 	lw	v1,1204(sp)
80007480:	00000000 	nop
80007484:	24630001 	addiu	v1,v1,1
80007488:	08001c27 	j	8000709c <_vfiprintf_r+0x1f0>
8000748c:	afa304b4 	sw	v1,1204(sp)
80007490:	afa004b8 	sw	zero,1208(sp)
80007494:	08001d15 	j	80007454 <_vfiprintf_r+0x5a8>
80007498:	02008821 	move	s1,s0
8000749c:	36520010 	ori	s2,s2,0x10
800074a0:	32420020 	andi	v0,s2,0x20
800074a4:	10400227 	beqz	v0,80007d44 <_vfiprintf_r+0xe98>
800074a8:	2402fff8 	li	v0,-8
800074ac:	8fa50514 	lw	a1,1300(sp)
800074b0:	00000000 	nop
800074b4:	24a30007 	addiu	v1,a1,7
800074b8:	00621024 	and	v0,v1,v0
800074bc:	8c570000 	lw	s7,0(v0)
800074c0:	8c560004 	lw	s6,4(v0)
800074c4:	24420008 	addiu	v0,v0,8
800074c8:	afa20514 	sw	v0,1300(sp)
800074cc:	02f61825 	or	v1,s7,s6
800074d0:	00001021 	move	v0,zero
800074d4:	a3a004ae 	sb	zero,1198(sp)
800074d8:	08001d06 	j	80007418 <_vfiprintf_r+0x56c>
800074dc:	0000f021 	move	s8,zero
800074e0:	8fa20514 	lw	v0,1300(sp)
800074e4:	8fa40514 	lw	a0,1300(sp)
800074e8:	8c420000 	lw	v0,0(v0)
800074ec:	24830004 	addiu	v1,a0,4
800074f0:	04410234 	bgez	v0,80007dc4 <_vfiprintf_r+0xf18>
800074f4:	afa204c0 	sw	v0,1216(sp)
800074f8:	8fa204c0 	lw	v0,1216(sp)
800074fc:	afa30514 	sw	v1,1300(sp)
80007500:	00021023 	negu	v0,v0
80007504:	afa204c0 	sw	v0,1216(sp)
80007508:	82a20000 	lb	v0,0(s5)
8000750c:	08001c18 	j	80007060 <_vfiprintf_r+0x1b4>
80007510:	36520004 	ori	s2,s2,0x4
80007514:	32420020 	andi	v0,s2,0x20
80007518:	1440024f 	bnez	v0,80007e58 <_vfiprintf_r+0xfac>
8000751c:	a3a504ae 	sb	a1,1198(sp)
80007520:	32420010 	andi	v0,s2,0x10
80007524:	10400274 	beqz	v0,80007ef8 <_vfiprintf_r+0x104c>
80007528:	00000000 	nop
8000752c:	8fa50514 	lw	a1,1300(sp)
80007530:	8fa304bc 	lw	v1,1212(sp)
80007534:	8ca20000 	lw	v0,0(a1)
80007538:	24a50004 	addiu	a1,a1,4
8000753c:	afa50514 	sw	a1,1300(sp)
80007540:	08001beb 	j	80006fac <_vfiprintf_r+0x100>
80007544:	ac430000 	sw	v1,0(v0)
80007548:	82a20000 	lb	v0,0(s5)
8000754c:	08001c18 	j	80007060 <_vfiprintf_r+0x1b4>
80007550:	36520020 	ori	s2,s2,0x20
80007554:	8fa50514 	lw	a1,1300(sp)
80007558:	24020030 	li	v0,48
8000755c:	a3a204ac 	sb	v0,1196(sp)
80007560:	24020078 	li	v0,120
80007564:	8cb60000 	lw	s6,0(a1)
80007568:	a3a204ad 	sb	v0,1197(sp)
8000756c:	3c028001 	lui	v0,0x8001
80007570:	2442a7b0 	addiu	v0,v0,-22608
80007574:	24a50004 	addiu	a1,a1,4
80007578:	afa204d0 	sw	v0,1232(sp)
8000757c:	0000b821 	move	s7,zero
80007580:	36520002 	ori	s2,s2,0x2
80007584:	afa50514 	sw	a1,1300(sp)
80007588:	24020002 	li	v0,2
8000758c:	02c01821 	move	v1,s6
80007590:	a3a004ae 	sb	zero,1198(sp)
80007594:	08001d06 	j	80007418 <_vfiprintf_r+0x56c>
80007598:	0000f021 	move	s8,zero
8000759c:	3c048001 	lui	a0,0x8001
800075a0:	2484a7b0 	addiu	a0,a0,-22608
800075a4:	32430020 	andi	v1,s2,0x20
800075a8:	a3a504ae 	sb	a1,1198(sp)
800075ac:	10600058 	beqz	v1,80007710 <_vfiprintf_r+0x864>
800075b0:	afa404d0 	sw	a0,1232(sp)
800075b4:	8fa50514 	lw	a1,1300(sp)
800075b8:	2403fff8 	li	v1,-8
800075bc:	24a40007 	addiu	a0,a1,7
800075c0:	00831824 	and	v1,a0,v1
800075c4:	24640008 	addiu	a0,v1,8
800075c8:	8c770000 	lw	s7,0(v1)
800075cc:	8c760004 	lw	s6,4(v1)
800075d0:	afa40514 	sw	a0,1300(sp)
800075d4:	32430001 	andi	v1,s2,0x1
800075d8:	106001cc 	beqz	v1,80007d0c <_vfiprintf_r+0xe60>
800075dc:	02f61825 	or	v1,s7,s6
800075e0:	14600226 	bnez	v1,80007e7c <_vfiprintf_r+0xfd0>
800075e4:	24040030 	li	a0,48
800075e8:	24020002 	li	v0,2
800075ec:	a3a004ae 	sb	zero,1198(sp)
800075f0:	08001d06 	j	80007418 <_vfiprintf_r+0x56c>
800075f4:	0000f021 	move	s8,zero
800075f8:	8fa30514 	lw	v1,1300(sp)
800075fc:	a3a004ae 	sb	zero,1198(sp)
80007600:	8c710000 	lw	s1,0(v1)
80007604:	00000000 	nop
80007608:	1220026a 	beqz	s1,80007fb4 <_vfiprintf_r+0x1108>
8000760c:	24760004 	addiu	s6,v1,4
80007610:	05200279 	bltz	t1,80007ff8 <_vfiprintf_r+0x114c>
80007614:	02202021 	move	a0,s1
80007618:	01203021 	move	a2,t1
8000761c:	00002821 	move	a1,zero
80007620:	afa804dc 	sw	t0,1244(sp)
80007624:	0c0015a0 	jal	80005680 <memchr>
80007628:	afa904d8 	sw	t1,1240(sp)
8000762c:	8fa804dc 	lw	t0,1244(sp)
80007630:	8fa904d8 	lw	t1,1240(sp)
80007634:	10400289 	beqz	v0,8000805c <_vfiprintf_r+0x11b0>
80007638:	00511023 	subu	v0,v0,s1
8000763c:	afa204b8 	sw	v0,1208(sp)
80007640:	0122102a 	slt	v0,t1,v0
80007644:	83be04ae 	lb	s8,1198(sp)
80007648:	10400002 	beqz	v0,80007654 <_vfiprintf_r+0x7a8>
8000764c:	00000000 	nop
80007650:	afa904b8 	sw	t1,1208(sp)
80007654:	afb60514 	sw	s6,1300(sp)
80007658:	08001d16 	j	80007458 <_vfiprintf_r+0x5ac>
8000765c:	afa004c4 	sw	zero,1220(sp)
80007660:	82a20000 	lb	v0,0(s5)
80007664:	00000000 	nop
80007668:	1046020b 	beq	v0,a2,80007e98 <_vfiprintf_r+0xfec>
8000766c:	02a01821 	move	v1,s5
80007670:	08001c18 	j	80007060 <_vfiprintf_r+0x1b4>
80007674:	36520010 	ori	s2,s2,0x10
80007678:	82a20000 	lb	v0,0(s5)
8000767c:	08001c18 	j	80007060 <_vfiprintf_r+0x1b4>
80007680:	36520040 	ori	s2,s2,0x40
80007684:	32420020 	andi	v0,s2,0x20
80007688:	10400031 	beqz	v0,80007750 <_vfiprintf_r+0x8a4>
8000768c:	a3a504ae 	sb	a1,1198(sp)
80007690:	8fa40514 	lw	a0,1300(sp)
80007694:	2402fff8 	li	v0,-8
80007698:	24830007 	addiu	v1,a0,7
8000769c:	00621824 	and	v1,v1,v0
800076a0:	8c620000 	lw	v0,0(v1)
800076a4:	24650008 	addiu	a1,v1,8
800076a8:	8c760004 	lw	s6,4(v1)
800076ac:	afa50514 	sw	a1,1300(sp)
800076b0:	0040b821 	move	s7,v0
800076b4:	04400034 	bltz	v0,80007788 <_vfiprintf_r+0x8dc>
800076b8:	00000000 	nop
800076bc:	83be04ae 	lb	s8,1198(sp)
800076c0:	24020001 	li	v0,1
800076c4:	08001d06 	j	80007418 <_vfiprintf_r+0x56c>
800076c8:	02f61825 	or	v1,s7,s6
800076cc:	8fa40514 	lw	a0,1300(sp)
800076d0:	24030001 	li	v1,1
800076d4:	8c820000 	lw	v0,0(a0)
800076d8:	24840004 	addiu	a0,a0,4
800076dc:	a3a004ae 	sb	zero,1198(sp)
800076e0:	a3a20478 	sb	v0,1144(sp)
800076e4:	afa40514 	sw	a0,1300(sp)
800076e8:	afa304b4 	sw	v1,1204(sp)
800076ec:	afa304b8 	sw	v1,1208(sp)
800076f0:	08001c25 	j	80007094 <_vfiprintf_r+0x1e8>
800076f4:	27b10478 	addiu	s1,sp,1144
800076f8:	3c038001 	lui	v1,0x8001
800076fc:	2463a79c 	addiu	v1,v1,-22628
80007700:	afa304d0 	sw	v1,1232(sp)
80007704:	32430020 	andi	v1,s2,0x20
80007708:	1460ffaa 	bnez	v1,800075b4 <_vfiprintf_r+0x708>
8000770c:	a3a504ae 	sb	a1,1198(sp)
80007710:	32430010 	andi	v1,s2,0x10
80007714:	146001c0 	bnez	v1,80007e18 <_vfiprintf_r+0xf6c>
80007718:	0000b821 	move	s7,zero
8000771c:	32430040 	andi	v1,s2,0x40
80007720:	10600211 	beqz	v1,80007f68 <_vfiprintf_r+0x10bc>
80007724:	00000000 	nop
80007728:	8fa30514 	lw	v1,1300(sp)
8000772c:	00000000 	nop
80007730:	94760002 	lhu	s6,2(v1)
80007734:	24630004 	addiu	v1,v1,4
80007738:	08001d75 	j	800075d4 <_vfiprintf_r+0x728>
8000773c:	afa30514 	sw	v1,1300(sp)
80007740:	36520010 	ori	s2,s2,0x10
80007744:	32420020 	andi	v0,s2,0x20
80007748:	1440ffd1 	bnez	v0,80007690 <_vfiprintf_r+0x7e4>
8000774c:	a3a504ae 	sb	a1,1198(sp)
80007750:	32420010 	andi	v0,s2,0x10
80007754:	1440019e 	bnez	v0,80007dd0 <_vfiprintf_r+0xf24>
80007758:	00000000 	nop
8000775c:	32420040 	andi	v0,s2,0x40
80007760:	104001ef 	beqz	v0,80007f20 <_vfiprintf_r+0x1074>
80007764:	00000000 	nop
80007768:	8fa30514 	lw	v1,1300(sp)
8000776c:	00000000 	nop
80007770:	84760002 	lh	s6,2(v1)
80007774:	24630004 	addiu	v1,v1,4
80007778:	0016bfc3 	sra	s7,s6,0x1f
8000777c:	02e01021 	move	v0,s7
80007780:	0441ffce 	bgez	v0,800076bc <_vfiprintf_r+0x810>
80007784:	afa30514 	sw	v1,1300(sp)
80007788:	0016b023 	negu	s6,s6
8000778c:	0016102b 	sltu	v0,zero,s6
80007790:	0017b823 	negu	s7,s7
80007794:	02e2b823 	subu	s7,s7,v0
80007798:	2402002d 	li	v0,45
8000779c:	a3a204ae 	sb	v0,1198(sp)
800077a0:	241e002d 	li	s8,45
800077a4:	24020001 	li	v0,1
800077a8:	08001d06 	j	80007418 <_vfiprintf_r+0x56c>
800077ac:	02f61825 	or	v1,s7,s6
800077b0:	82a20000 	lb	v0,0(s5)
800077b4:	08001c18 	j	80007060 <_vfiprintf_r+0x1b4>
800077b8:	2405002b 	li	a1,43
800077bc:	82a20000 	lb	v0,0(s5)
800077c0:	08001c18 	j	80007060 <_vfiprintf_r+0x1b4>
800077c4:	36520001 	ori	s2,s2,0x1
800077c8:	82a20000 	lb	v0,0(s5)
800077cc:	14a0fe24 	bnez	a1,80007060 <_vfiprintf_r+0x1b4>
800077d0:	00000000 	nop
800077d4:	08001c18 	j	80007060 <_vfiprintf_r+0x1b4>
800077d8:	24050020 	li	a1,32
800077dc:	00002021 	move	a0,zero
800077e0:	2443ffd0 	addiu	v1,v0,-48
800077e4:	00045040 	sll	t2,a0,0x1
800077e8:	82a20000 	lb	v0,0(s5)
800077ec:	000420c0 	sll	a0,a0,0x3
800077f0:	01442021 	addu	a0,t2,a0
800077f4:	00832021 	addu	a0,a0,v1
800077f8:	2443ffd0 	addiu	v1,v0,-48
800077fc:	2c6a000a 	sltiu	t2,v1,10
80007800:	1540fff8 	bnez	t2,800077e4 <_vfiprintf_r+0x938>
80007804:	26b50001 	addiu	s5,s5,1
80007808:	08001c19 	j	80007064 <_vfiprintf_r+0x1b8>
8000780c:	afa404c0 	sw	a0,1216(sp)
80007810:	82a20000 	lb	v0,0(s5)
80007814:	08001c18 	j	80007060 <_vfiprintf_r+0x1b4>
80007818:	36520080 	ori	s2,s2,0x80
8000781c:	82a20000 	lb	v0,0(s5)
80007820:	00000000 	nop
80007824:	10470210 	beq	v0,a3,80008068 <_vfiprintf_r+0x11bc>
80007828:	26a40001 	addiu	a0,s5,1
8000782c:	2443ffd0 	addiu	v1,v0,-48
80007830:	2c6a000a 	sltiu	t2,v1,10
80007834:	1140000c 	beqz	t2,80007868 <_vfiprintf_r+0x9bc>
80007838:	00004821 	move	t1,zero
8000783c:	00095040 	sll	t2,t1,0x1
80007840:	80820000 	lb	v0,0(a0)
80007844:	000948c0 	sll	t1,t1,0x3
80007848:	01494821 	addu	t1,t2,t1
8000784c:	00694821 	addu	t1,v1,t1
80007850:	2443ffd0 	addiu	v1,v0,-48
80007854:	2c6a000a 	sltiu	t2,v1,10
80007858:	1540fff8 	bnez	t2,8000783c <_vfiprintf_r+0x990>
8000785c:	24840001 	addiu	a0,a0,1
80007860:	052001d1 	bltz	t1,80007fa8 <_vfiprintf_r+0x10fc>
80007864:	00000000 	nop
80007868:	08001c19 	j	80007064 <_vfiprintf_r+0x1b8>
8000786c:	0080a821 	move	s5,a0
80007870:	8fa304a8 	lw	v1,1192(sp)
80007874:	8fa204a4 	lw	v0,1188(sp)
80007878:	83a404ae 	lb	a0,1198(sp)
8000787c:	00000000 	nop
80007880:	1080fe43 	beqz	a0,80007190 <_vfiprintf_r+0x2e4>
80007884:	00000000 	nop
80007888:	24420001 	addiu	v0,v0,1
8000788c:	27a504ae 	addiu	a1,sp,1198
80007890:	24630001 	addiu	v1,v1,1
80007894:	ad050000 	sw	a1,0(t0)
80007898:	28440008 	slti	a0,v0,8
8000789c:	24050001 	li	a1,1
800078a0:	ad050004 	sw	a1,4(t0)
800078a4:	afa304a8 	sw	v1,1192(sp)
800078a8:	108000f1 	beqz	a0,80007c70 <_vfiprintf_r+0xdc4>
800078ac:	afa204a4 	sw	v0,1188(sp)
800078b0:	08001c64 	j	80007190 <_vfiprintf_r+0x2e4>
800078b4:	25080008 	addiu	t0,t0,8
800078b8:	02602021 	move	a0,s3
800078bc:	02802821 	move	a1,s4
800078c0:	0c001b6d 	jal	80006db4 <__sprint_r>
800078c4:	02003021 	move	a2,s0
800078c8:	1040feb6 	beqz	v0,800073a4 <_vfiprintf_r+0x4f8>
800078cc:	00000000 	nop
800078d0:	8fa3050c 	lw	v1,1292(sp)
800078d4:	00000000 	nop
800078d8:	9462000c 	lhu	v0,12(v1)
800078dc:	00000000 	nop
800078e0:	30420040 	andi	v0,v0,0x40
800078e4:	00021400 	sll	v0,v0,0x10
800078e8:	00021403 	sra	v0,v0,0x10
800078ec:	1440000e 	bnez	v0,80007928 <_vfiprintf_r+0xa7c>
800078f0:	2405ffff 	li	a1,-1
800078f4:	8fbf0504 	lw	ra,1284(sp)
800078f8:	8fa204bc 	lw	v0,1212(sp)
800078fc:	8fbe0500 	lw	s8,1280(sp)
80007900:	8fb704fc 	lw	s7,1276(sp)
80007904:	8fb604f8 	lw	s6,1272(sp)
80007908:	8fb504f4 	lw	s5,1268(sp)
8000790c:	8fb404f0 	lw	s4,1264(sp)
80007910:	8fb304ec 	lw	s3,1260(sp)
80007914:	8fb204e8 	lw	s2,1256(sp)
80007918:	8fb104e4 	lw	s1,1252(sp)
8000791c:	8fb004e0 	lw	s0,1248(sp)
80007920:	03e00008 	jr	ra
80007924:	27bd0508 	addiu	sp,sp,1288
80007928:	08001e3d 	j	800078f4 <_vfiprintf_r+0xa48>
8000792c:	afa504bc 	sw	a1,1212(sp)
80007930:	24030001 	li	v1,1
80007934:	104300ad 	beq	v0,v1,80007bec <_vfiprintf_r+0xd40>
80007938:	24030002 	li	v1,2
8000793c:	1043009c 	beq	v0,v1,80007bb0 <_vfiprintf_r+0xd04>
80007940:	02008821 	move	s1,s0
80007944:	00172740 	sll	a0,s7,0x1d
80007948:	001618c2 	srl	v1,s6,0x3
8000794c:	32c20007 	andi	v0,s6,0x7
80007950:	0017b8c2 	srl	s7,s7,0x3
80007954:	0083b025 	or	s6,a0,v1
80007958:	2631ffff 	addiu	s1,s1,-1
8000795c:	24420030 	addiu	v0,v0,48
80007960:	02f61825 	or	v1,s7,s6
80007964:	1460fff7 	bnez	v1,80007944 <_vfiprintf_r+0xa98>
80007968:	a2220000 	sb	v0,0(s1)
8000796c:	32430001 	andi	v1,s2,0x1
80007970:	10600006 	beqz	v1,8000798c <_vfiprintf_r+0xae0>
80007974:	02202021 	move	a0,s1
80007978:	24030030 	li	v1,48
8000797c:	10430003 	beq	v0,v1,8000798c <_vfiprintf_r+0xae0>
80007980:	00000000 	nop
80007984:	2631ffff 	addiu	s1,s1,-1
80007988:	a083ffff 	sb	v1,-1(a0)
8000798c:	02111823 	subu	v1,s0,s1
80007990:	08001d15 	j	80007454 <_vfiprintf_r+0x5a8>
80007994:	afa304b8 	sw	v1,1208(sp)
80007998:	8fa404c0 	lw	a0,1216(sp)
8000799c:	8fa504b4 	lw	a1,1204(sp)
800079a0:	00000000 	nop
800079a4:	0085b023 	subu	s6,a0,a1
800079a8:	1ac0fe09 	blez	s6,800071d0 <_vfiprintf_r+0x324>
800079ac:	3c098001 	lui	t1,0x8001
800079b0:	2ac40011 	slti	a0,s6,17
800079b4:	2537ac0c 	addiu	s7,t1,-21492
800079b8:	10800007 	beqz	a0,800079d8 <_vfiprintf_r+0xb2c>
800079bc:	241e0010 	li	s8,16
800079c0:	08001e8a 	j	80007a28 <_vfiprintf_r+0xb7c>
800079c4:	24420001 	addiu	v0,v0,1
800079c8:	26d6fff0 	addiu	s6,s6,-16
800079cc:	2ac40011 	slti	a0,s6,17
800079d0:	14800014 	bnez	a0,80007a24 <_vfiprintf_r+0xb78>
800079d4:	25080008 	addiu	t0,t0,8
800079d8:	24420001 	addiu	v0,v0,1
800079dc:	24630010 	addiu	v1,v1,16
800079e0:	28440008 	slti	a0,v0,8
800079e4:	ad170000 	sw	s7,0(t0)
800079e8:	ad1e0004 	sw	s8,4(t0)
800079ec:	afa304a8 	sw	v1,1192(sp)
800079f0:	1480fff5 	bnez	a0,800079c8 <_vfiprintf_r+0xb1c>
800079f4:	afa204a4 	sw	v0,1188(sp)
800079f8:	02602021 	move	a0,s3
800079fc:	02802821 	move	a1,s4
80007a00:	0c001b6d 	jal	80006db4 <__sprint_r>
80007a04:	02003021 	move	a2,s0
80007a08:	1440ffb1 	bnez	v0,800078d0 <_vfiprintf_r+0xa24>
80007a0c:	26d6fff0 	addiu	s6,s6,-16
80007a10:	2ac40011 	slti	a0,s6,17
80007a14:	8fa304a8 	lw	v1,1192(sp)
80007a18:	8fa204a4 	lw	v0,1188(sp)
80007a1c:	1080ffee 	beqz	a0,800079d8 <_vfiprintf_r+0xb2c>
80007a20:	27a80010 	addiu	t0,sp,16
80007a24:	24420001 	addiu	v0,v0,1
80007a28:	00761821 	addu	v1,v1,s6
80007a2c:	28440008 	slti	a0,v0,8
80007a30:	ad170000 	sw	s7,0(t0)
80007a34:	ad160004 	sw	s6,4(t0)
80007a38:	afa304a8 	sw	v1,1192(sp)
80007a3c:	10800124 	beqz	a0,80007ed0 <_vfiprintf_r+0x1024>
80007a40:	afa204a4 	sw	v0,1188(sp)
80007a44:	08001c74 	j	800071d0 <_vfiprintf_r+0x324>
80007a48:	25080008 	addiu	t0,t0,8
80007a4c:	02602021 	move	a0,s3
80007a50:	02802821 	move	a1,s4
80007a54:	0c001b6d 	jal	80006db4 <__sprint_r>
80007a58:	02003021 	move	a2,s0
80007a5c:	1440ff9c 	bnez	v0,800078d0 <_vfiprintf_r+0xa24>
80007a60:	27a80010 	addiu	t0,sp,16
80007a64:	8fa304a8 	lw	v1,1192(sp)
80007a68:	08001cac 	j	800072b0 <_vfiprintf_r+0x404>
80007a6c:	32520004 	andi	s2,s2,0x4
80007a70:	8fa40508 	lw	a0,1288(sp)
80007a74:	8fa5050c 	lw	a1,1292(sp)
80007a78:	0c000918 	jal	80002460 <__swsetup_r>
80007a7c:	00000000 	nop
80007a80:	1440ffa9 	bnez	v0,80007928 <_vfiprintf_r+0xa7c>
80007a84:	2405ffff 	li	a1,-1
80007a88:	8fa3050c 	lw	v1,1292(sp)
80007a8c:	00000000 	nop
80007a90:	8462000c 	lh	v0,12(v1)
80007a94:	2403000a 	li	v1,10
80007a98:	3044001a 	andi	a0,v0,0x1a
80007a9c:	1483fd35 	bne	a0,v1,80006f74 <_vfiprintf_r+0xc8>
80007aa0:	27a5049f 	addiu	a1,sp,1183
80007aa4:	8fa4050c 	lw	a0,1292(sp)
80007aa8:	00000000 	nop
80007aac:	8483000e 	lh	v1,14(a0)
80007ab0:	00000000 	nop
80007ab4:	0460fd2f 	bltz	v1,80006f74 <_vfiprintf_r+0xc8>
80007ab8:	27a5049f 	addiu	a1,sp,1183
80007abc:	8c8b0064 	lw	t3,100(a0)
80007ac0:	8c8a001c 	lw	t2,28(a0)
80007ac4:	8c890024 	lw	t1,36(a0)
80007ac8:	2404fffd 	li	a0,-3
80007acc:	00441024 	and	v0,v0,a0
80007ad0:	8fa70514 	lw	a3,1300(sp)
80007ad4:	8fa40508 	lw	a0,1288(sp)
80007ad8:	24080400 	li	t0,1024
80007adc:	a7a2041c 	sh	v0,1052(sp)
80007ae0:	27a50410 	addiu	a1,sp,1040
80007ae4:	27a20010 	addiu	v0,sp,16
80007ae8:	02203021 	move	a2,s1
80007aec:	afab0474 	sw	t3,1140(sp)
80007af0:	a7a3041e 	sh	v1,1054(sp)
80007af4:	afaa042c 	sw	t2,1068(sp)
80007af8:	afa90434 	sw	t1,1076(sp)
80007afc:	afa20410 	sw	v0,1040(sp)
80007b00:	afa20420 	sw	v0,1056(sp)
80007b04:	afa80418 	sw	t0,1048(sp)
80007b08:	afa80424 	sw	t0,1060(sp)
80007b0c:	0c001bab 	jal	80006eac <_vfiprintf_r>
80007b10:	afa00428 	sw	zero,1064(sp)
80007b14:	04400006 	bltz	v0,80007b30 <_vfiprintf_r+0xc84>
80007b18:	afa204bc 	sw	v0,1212(sp)
80007b1c:	8fa40508 	lw	a0,1288(sp)
80007b20:	0c001087 	jal	8000421c <_fflush_r>
80007b24:	27a50410 	addiu	a1,sp,1040
80007b28:	14400158 	bnez	v0,8000808c <_vfiprintf_r+0x11e0>
80007b2c:	2403ffff 	li	v1,-1
80007b30:	97a2041c 	lhu	v0,1052(sp)
80007b34:	00000000 	nop
80007b38:	30420040 	andi	v0,v0,0x40
80007b3c:	00021400 	sll	v0,v0,0x10
80007b40:	00021403 	sra	v0,v0,0x10
80007b44:	1040ff6b 	beqz	v0,800078f4 <_vfiprintf_r+0xa48>
80007b48:	00000000 	nop
80007b4c:	8fa4050c 	lw	a0,1292(sp)
80007b50:	00000000 	nop
80007b54:	9482000c 	lhu	v0,12(a0)
80007b58:	00000000 	nop
80007b5c:	34420040 	ori	v0,v0,0x40
80007b60:	08001e3d 	j	800078f4 <_vfiprintf_r+0xa48>
80007b64:	a482000c 	sh	v0,12(a0)
80007b68:	02602021 	move	a0,s3
80007b6c:	02802821 	move	a1,s4
80007b70:	0c001b6d 	jal	80006db4 <__sprint_r>
80007b74:	02003021 	move	a2,s0
80007b78:	1440ff55 	bnez	v0,800078d0 <_vfiprintf_r+0xa24>
80007b7c:	27a80010 	addiu	t0,sp,16
80007b80:	08001c08 	j	80007020 <_vfiprintf_r+0x174>
80007b84:	00000000 	nop
80007b88:	02602021 	move	a0,s3
80007b8c:	02802821 	move	a1,s4
80007b90:	0c001b6d 	jal	80006db4 <__sprint_r>
80007b94:	02003021 	move	a2,s0
80007b98:	1440ff4d 	bnez	v0,800078d0 <_vfiprintf_r+0xa24>
80007b9c:	27a80010 	addiu	t0,sp,16
80007ba0:	8fa304a8 	lw	v1,1192(sp)
80007ba4:	8fa204a4 	lw	v0,1188(sp)
80007ba8:	08001ca0 	j	80007280 <_vfiprintf_r+0x3d4>
80007bac:	00000000 	nop
80007bb0:	8fa404d0 	lw	a0,1232(sp)
80007bb4:	32c3000f 	andi	v1,s6,0xf
80007bb8:	00171700 	sll	v0,s7,0x1c
80007bbc:	00831821 	addu	v1,a0,v1
80007bc0:	0016b102 	srl	s6,s6,0x4
80007bc4:	90630000 	lbu	v1,0(v1)
80007bc8:	0017b902 	srl	s7,s7,0x4
80007bcc:	0056b025 	or	s6,v0,s6
80007bd0:	2631ffff 	addiu	s1,s1,-1
80007bd4:	02f61025 	or	v0,s7,s6
80007bd8:	1440fff6 	bnez	v0,80007bb4 <_vfiprintf_r+0xd08>
80007bdc:	a2230000 	sb	v1,0(s1)
80007be0:	02111823 	subu	v1,s0,s1
80007be4:	08001d15 	j	80007454 <_vfiprintf_r+0x5a8>
80007be8:	afa304b8 	sw	v1,1208(sp)
80007bec:	12e00065 	beqz	s7,80007d84 <_vfiprintf_r+0xed8>
80007bf0:	2ec2000a 	sltiu	v0,s6,10
80007bf4:	afb204b4 	sw	s2,1204(sp)
80007bf8:	afb304b8 	sw	s3,1208(sp)
80007bfc:	02e09021 	move	s2,s7
80007c00:	02c09821 	move	s3,s6
80007c04:	02008821 	move	s1,s0
80007c08:	0120b821 	move	s7,t1
80007c0c:	0100b021 	move	s6,t0
80007c10:	02402021 	move	a0,s2
80007c14:	02602821 	move	a1,s3
80007c18:	2407000a 	li	a3,10
80007c1c:	0c00283e 	jal	8000a0f8 <__umoddi3>
80007c20:	00003021 	move	a2,zero
80007c24:	24630030 	addiu	v1,v1,48
80007c28:	2631ffff 	addiu	s1,s1,-1
80007c2c:	02602821 	move	a1,s3
80007c30:	02402021 	move	a0,s2
80007c34:	a2230000 	sb	v1,0(s1)
80007c38:	2407000a 	li	a3,10
80007c3c:	0c0026a6 	jal	80009a98 <__udivdi3>
80007c40:	00003021 	move	a2,zero
80007c44:	00409021 	move	s2,v0
80007c48:	02431025 	or	v0,s2,v1
80007c4c:	1440fff0 	bnez	v0,80007c10 <_vfiprintf_r+0xd64>
80007c50:	00609821 	move	s3,v1
80007c54:	02111823 	subu	v1,s0,s1
80007c58:	8fb304b8 	lw	s3,1208(sp)
80007c5c:	02c04021 	move	t0,s6
80007c60:	8fb204b4 	lw	s2,1204(sp)
80007c64:	02e04821 	move	t1,s7
80007c68:	08001d15 	j	80007454 <_vfiprintf_r+0x5a8>
80007c6c:	afa304b8 	sw	v1,1208(sp)
80007c70:	02602021 	move	a0,s3
80007c74:	02802821 	move	a1,s4
80007c78:	0c001b6d 	jal	80006db4 <__sprint_r>
80007c7c:	02003021 	move	a2,s0
80007c80:	1440ff13 	bnez	v0,800078d0 <_vfiprintf_r+0xa24>
80007c84:	27a80010 	addiu	t0,sp,16
80007c88:	8fa304a8 	lw	v1,1192(sp)
80007c8c:	8fa204a4 	lw	v0,1188(sp)
80007c90:	08001c64 	j	80007190 <_vfiprintf_r+0x2e4>
80007c94:	00000000 	nop
80007c98:	02602021 	move	a0,s3
80007c9c:	02802821 	move	a1,s4
80007ca0:	0c001b6d 	jal	80006db4 <__sprint_r>
80007ca4:	02003021 	move	a2,s0
80007ca8:	1440ff09 	bnez	v0,800078d0 <_vfiprintf_r+0xa24>
80007cac:	27a80010 	addiu	t0,sp,16
80007cb0:	8fa304a8 	lw	v1,1192(sp)
80007cb4:	8fa204a4 	lw	v0,1188(sp)
80007cb8:	08001c70 	j	800071c0 <_vfiprintf_r+0x314>
80007cbc:	00000000 	nop
80007cc0:	0c0010f4 	jal	800043d0 <__sinit>
80007cc4:	00000000 	nop
80007cc8:	08001bbf 	j	80006efc <_vfiprintf_r+0x50>
80007ccc:	00000000 	nop
80007cd0:	14400057 	bnez	v0,80007e30 <_vfiprintf_r+0xf84>
80007cd4:	0000b821 	move	s7,zero
80007cd8:	32420040 	andi	v0,s2,0x40
80007cdc:	104000a8 	beqz	v0,80007f80 <_vfiprintf_r+0x10d4>
80007ce0:	00000000 	nop
80007ce4:	8fa20514 	lw	v0,1300(sp)
80007ce8:	00000000 	nop
80007cec:	94560002 	lhu	s6,2(v0)
80007cf0:	24420004 	addiu	v0,v0,4
80007cf4:	afa20514 	sw	v0,1300(sp)
80007cf8:	02c01821 	move	v1,s6
80007cfc:	24020001 	li	v0,1
80007d00:	a3a004ae 	sb	zero,1198(sp)
80007d04:	08001d06 	j	80007418 <_vfiprintf_r+0x56c>
80007d08:	0000f021 	move	s8,zero
80007d0c:	24020002 	li	v0,2
80007d10:	a3a004ae 	sb	zero,1198(sp)
80007d14:	08001d06 	j	80007418 <_vfiprintf_r+0x56c>
80007d18:	0000f021 	move	s8,zero
80007d1c:	02602021 	move	a0,s3
80007d20:	02802821 	move	a1,s4
80007d24:	0c001b6d 	jal	80006db4 <__sprint_r>
80007d28:	02003021 	move	a2,s0
80007d2c:	1440fee8 	bnez	v0,800078d0 <_vfiprintf_r+0xa24>
80007d30:	27a80010 	addiu	t0,sp,16
80007d34:	8fa304a8 	lw	v1,1192(sp)
80007d38:	8fa204a4 	lw	v0,1188(sp)
80007d3c:	08001e1e 	j	80007878 <_vfiprintf_r+0x9cc>
80007d40:	00000000 	nop
80007d44:	32420010 	andi	v0,s2,0x10
80007d48:	14400029 	bnez	v0,80007df0 <_vfiprintf_r+0xf44>
80007d4c:	0000b821 	move	s7,zero
80007d50:	32420040 	andi	v0,s2,0x40
80007d54:	1040007a 	beqz	v0,80007f40 <_vfiprintf_r+0x1094>
80007d58:	00000000 	nop
80007d5c:	8fa30514 	lw	v1,1300(sp)
80007d60:	00000000 	nop
80007d64:	94760002 	lhu	s6,2(v1)
80007d68:	24630004 	addiu	v1,v1,4
80007d6c:	afa30514 	sw	v1,1300(sp)
80007d70:	00001021 	move	v0,zero
80007d74:	02c01821 	move	v1,s6
80007d78:	a3a004ae 	sb	zero,1198(sp)
80007d7c:	08001d06 	j	80007418 <_vfiprintf_r+0x56c>
80007d80:	0000f021 	move	s8,zero
80007d84:	1040ff9b 	beqz	v0,80007bf4 <_vfiprintf_r+0xd48>
80007d88:	27b1049f 	addiu	s1,sp,1183
80007d8c:	8fa404d4 	lw	a0,1236(sp)
80007d90:	26d60030 	addiu	s6,s6,48
80007d94:	a3b6049f 	sb	s6,1183(sp)
80007d98:	08001d15 	j	80007454 <_vfiprintf_r+0x5a8>
80007d9c:	afa404b8 	sw	a0,1208(sp)
80007da0:	02602021 	move	a0,s3
80007da4:	02802821 	move	a1,s4
80007da8:	0c001b6d 	jal	80006db4 <__sprint_r>
80007dac:	02003021 	move	a2,s0
80007db0:	1440fec7 	bnez	v0,800078d0 <_vfiprintf_r+0xa24>
80007db4:	00000000 	nop
80007db8:	8fa304a8 	lw	v1,1192(sp)
80007dbc:	08001cdd 	j	80007374 <_vfiprintf_r+0x4c8>
80007dc0:	00000000 	nop
80007dc4:	82a20000 	lb	v0,0(s5)
80007dc8:	08001c18 	j	80007060 <_vfiprintf_r+0x1b4>
80007dcc:	afa30514 	sw	v1,1300(sp)
80007dd0:	8fa20514 	lw	v0,1300(sp)
80007dd4:	00000000 	nop
80007dd8:	8c560000 	lw	s6,0(v0)
80007ddc:	24420004 	addiu	v0,v0,4
80007de0:	0016bfc3 	sra	s7,s6,0x1f
80007de4:	afa20514 	sw	v0,1300(sp)
80007de8:	08001dad 	j	800076b4 <_vfiprintf_r+0x808>
80007dec:	02e01021 	move	v0,s7
80007df0:	8fa20514 	lw	v0,1300(sp)
80007df4:	00000000 	nop
80007df8:	8c560000 	lw	s6,0(v0)
80007dfc:	24420004 	addiu	v0,v0,4
80007e00:	afa20514 	sw	v0,1300(sp)
80007e04:	02c01821 	move	v1,s6
80007e08:	00001021 	move	v0,zero
80007e0c:	a3a004ae 	sb	zero,1198(sp)
80007e10:	08001d06 	j	80007418 <_vfiprintf_r+0x56c>
80007e14:	0000f021 	move	s8,zero
80007e18:	8fa50514 	lw	a1,1300(sp)
80007e1c:	00000000 	nop
80007e20:	8cb60000 	lw	s6,0(a1)
80007e24:	24a50004 	addiu	a1,a1,4
80007e28:	08001d75 	j	800075d4 <_vfiprintf_r+0x728>
80007e2c:	afa50514 	sw	a1,1300(sp)
80007e30:	8fa50514 	lw	a1,1300(sp)
80007e34:	00000000 	nop
80007e38:	8cb60000 	lw	s6,0(a1)
80007e3c:	24a50004 	addiu	a1,a1,4
80007e40:	afa50514 	sw	a1,1300(sp)
80007e44:	24020001 	li	v0,1
80007e48:	02c01821 	move	v1,s6
80007e4c:	a3a004ae 	sb	zero,1198(sp)
80007e50:	08001d06 	j	80007418 <_vfiprintf_r+0x56c>
80007e54:	0000f021 	move	s8,zero
80007e58:	8fa50514 	lw	a1,1300(sp)
80007e5c:	8fa404bc 	lw	a0,1212(sp)
80007e60:	8ca20000 	lw	v0,0(a1)
80007e64:	00041fc3 	sra	v1,a0,0x1f
80007e68:	24a50004 	addiu	a1,a1,4
80007e6c:	ac440004 	sw	a0,4(v0)
80007e70:	ac430000 	sw	v1,0(v0)
80007e74:	08001beb 	j	80006fac <_vfiprintf_r+0x100>
80007e78:	afa50514 	sw	a1,1300(sp)
80007e7c:	a3a204ad 	sb	v0,1197(sp)
80007e80:	a3a404ac 	sb	a0,1196(sp)
80007e84:	36520002 	ori	s2,s2,0x2
80007e88:	24020002 	li	v0,2
80007e8c:	a3a004ae 	sb	zero,1198(sp)
80007e90:	08001d06 	j	80007418 <_vfiprintf_r+0x56c>
80007e94:	0000f021 	move	s8,zero
80007e98:	26b50001 	addiu	s5,s5,1
80007e9c:	80620001 	lb	v0,1(v1)
80007ea0:	08001c18 	j	80007060 <_vfiprintf_r+0x1b4>
80007ea4:	36520020 	ori	s2,s2,0x20
80007ea8:	8fa204a8 	lw	v0,1192(sp)
80007eac:	00000000 	nop
80007eb0:	1040fe87 	beqz	v0,800078d0 <_vfiprintf_r+0xa24>
80007eb4:	00000000 	nop
80007eb8:	8fa40508 	lw	a0,1288(sp)
80007ebc:	8fa5050c 	lw	a1,1292(sp)
80007ec0:	0c001b6d 	jal	80006db4 <__sprint_r>
80007ec4:	27a604a0 	addiu	a2,sp,1184
80007ec8:	08001e34 	j	800078d0 <_vfiprintf_r+0xa24>
80007ecc:	00000000 	nop
80007ed0:	02602021 	move	a0,s3
80007ed4:	02802821 	move	a1,s4
80007ed8:	0c001b6d 	jal	80006db4 <__sprint_r>
80007edc:	02003021 	move	a2,s0
80007ee0:	1440fe7b 	bnez	v0,800078d0 <_vfiprintf_r+0xa24>
80007ee4:	27a80010 	addiu	t0,sp,16
80007ee8:	8fa304a8 	lw	v1,1192(sp)
80007eec:	8fa204a4 	lw	v0,1188(sp)
80007ef0:	08001c74 	j	800071d0 <_vfiprintf_r+0x324>
80007ef4:	00000000 	nop
80007ef8:	32520040 	andi	s2,s2,0x40
80007efc:	12400037 	beqz	s2,80007fdc <_vfiprintf_r+0x1130>
80007f00:	00000000 	nop
80007f04:	8fa40514 	lw	a0,1300(sp)
80007f08:	8fa504bc 	lw	a1,1212(sp)
80007f0c:	8c820000 	lw	v0,0(a0)
80007f10:	24840004 	addiu	a0,a0,4
80007f14:	afa40514 	sw	a0,1300(sp)
80007f18:	08001beb 	j	80006fac <_vfiprintf_r+0x100>
80007f1c:	a4450000 	sh	a1,0(v0)
80007f20:	8fa40514 	lw	a0,1300(sp)
80007f24:	00000000 	nop
80007f28:	8c960000 	lw	s6,0(a0)
80007f2c:	24840004 	addiu	a0,a0,4
80007f30:	0016bfc3 	sra	s7,s6,0x1f
80007f34:	afa40514 	sw	a0,1300(sp)
80007f38:	08001dad 	j	800076b4 <_vfiprintf_r+0x808>
80007f3c:	02e01021 	move	v0,s7
80007f40:	8fa40514 	lw	a0,1300(sp)
80007f44:	00000000 	nop
80007f48:	8c960000 	lw	s6,0(a0)
80007f4c:	24840004 	addiu	a0,a0,4
80007f50:	afa40514 	sw	a0,1300(sp)
80007f54:	00001021 	move	v0,zero
80007f58:	02c01821 	move	v1,s6
80007f5c:	a3a004ae 	sb	zero,1198(sp)
80007f60:	08001d06 	j	80007418 <_vfiprintf_r+0x56c>
80007f64:	0000f021 	move	s8,zero
80007f68:	8fa40514 	lw	a0,1300(sp)
80007f6c:	00000000 	nop
80007f70:	8c960000 	lw	s6,0(a0)
80007f74:	24840004 	addiu	a0,a0,4
80007f78:	08001d75 	j	800075d4 <_vfiprintf_r+0x728>
80007f7c:	afa40514 	sw	a0,1300(sp)
80007f80:	8fa30514 	lw	v1,1300(sp)
80007f84:	00000000 	nop
80007f88:	8c760000 	lw	s6,0(v1)
80007f8c:	24630004 	addiu	v1,v1,4
80007f90:	afa30514 	sw	v1,1300(sp)
80007f94:	24020001 	li	v0,1
80007f98:	02c01821 	move	v1,s6
80007f9c:	a3a004ae 	sb	zero,1198(sp)
80007fa0:	08001d06 	j	80007418 <_vfiprintf_r+0x56c>
80007fa4:	0000f021 	move	s8,zero
80007fa8:	2409ffff 	li	t1,-1
80007fac:	08001c19 	j	80007064 <_vfiprintf_r+0x1b8>
80007fb0:	0080a821 	move	s5,a0
80007fb4:	2d220007 	sltiu	v0,t1,7
80007fb8:	1440001d 	bnez	v0,80008030 <_vfiprintf_r+0x1184>
80007fbc:	afa904b8 	sw	t1,1208(sp)
80007fc0:	24030006 	li	v1,6
80007fc4:	afa304b8 	sw	v1,1208(sp)
80007fc8:	afa304b4 	sw	v1,1204(sp)
80007fcc:	3c118001 	lui	s1,0x8001
80007fd0:	afb60514 	sw	s6,1300(sp)
80007fd4:	08001c25 	j	80007094 <_vfiprintf_r+0x1e8>
80007fd8:	2631a7c4 	addiu	s1,s1,-22588
80007fdc:	8fa30514 	lw	v1,1300(sp)
80007fe0:	8fa404bc 	lw	a0,1212(sp)
80007fe4:	8c620000 	lw	v0,0(v1)
80007fe8:	24630004 	addiu	v1,v1,4
80007fec:	afa30514 	sw	v1,1300(sp)
80007ff0:	08001beb 	j	80006fac <_vfiprintf_r+0x100>
80007ff4:	ac440000 	sw	a0,0(v0)
80007ff8:	0c001b66 	jal	80006d98 <strlen>
80007ffc:	afa804dc 	sw	t0,1244(sp)
80008000:	afa204b8 	sw	v0,1208(sp)
80008004:	83be04ae 	lb	s8,1198(sp)
80008008:	afb60514 	sw	s6,1300(sp)
8000800c:	afa004c4 	sw	zero,1220(sp)
80008010:	8fa804dc 	lw	t0,1244(sp)
80008014:	08001d16 	j	80007458 <_vfiprintf_r+0x5ac>
80008018:	00000000 	nop
8000801c:	3c048001 	lui	a0,0x8001
80008020:	2484abfc 	addiu	a0,a0,-21508
80008024:	8fa204a4 	lw	v0,1188(sp)
80008028:	08001c57 	j	8000715c <_vfiprintf_r+0x2b0>
8000802c:	afa404cc 	sw	a0,1228(sp)
80008030:	8fa304b8 	lw	v1,1208(sp)
80008034:	00000000 	nop
80008038:	0461ffe4 	bgez	v1,80007fcc <_vfiprintf_r+0x1120>
8000803c:	afa304b4 	sw	v1,1204(sp)
80008040:	08001ff3 	j	80007fcc <_vfiprintf_r+0x1120>
80008044:	afa004b4 	sw	zero,1204(sp)
80008048:	3c058001 	lui	a1,0x8001
8000804c:	24a5abfc 	addiu	a1,a1,-21508
80008050:	8fa204a4 	lw	v0,1188(sp)
80008054:	08001cd4 	j	80007350 <_vfiprintf_r+0x4a4>
80008058:	afa504cc 	sw	a1,1228(sp)
8000805c:	83be04ae 	lb	s8,1198(sp)
80008060:	08001d95 	j	80007654 <_vfiprintf_r+0x7a8>
80008064:	afa904b8 	sw	t1,1208(sp)
80008068:	8fa30514 	lw	v1,1300(sp)
8000806c:	82a20001 	lb	v0,1(s5)
80008070:	8c690000 	lw	t1,0(v1)
80008074:	24630004 	addiu	v1,v1,4
80008078:	afa30514 	sw	v1,1300(sp)
8000807c:	0521fbf8 	bgez	t1,80007060 <_vfiprintf_r+0x1b4>
80008080:	0080a821 	move	s5,a0
80008084:	08001c18 	j	80007060 <_vfiprintf_r+0x1b4>
80008088:	2409ffff 	li	t1,-1
8000808c:	08001ecc 	j	80007b30 <_vfiprintf_r+0xc84>
80008090:	afa304bc 	sw	v1,1212(sp)

80008094 <vfiprintf>:
80008094:	00801821 	move	v1,a0
80008098:	00a01021 	move	v0,a1
8000809c:	8f8408b4 	lw	a0,2228(gp)
800080a0:	00c03821 	move	a3,a2
800080a4:	00602821 	move	a1,v1
800080a8:	08001bab 	j	80006eac <_vfiprintf_r>
800080ac:	00403021 	move	a2,v0

800080b0 <_write_r>:
800080b0:	27bdffe8 	addiu	sp,sp,-24
800080b4:	afb00010 	sw	s0,16(sp)
800080b8:	00808021 	move	s0,a0
800080bc:	00a02021 	move	a0,a1
800080c0:	00c02821 	move	a1,a2
800080c4:	00e03021 	move	a2,a3
800080c8:	afbf0014 	sw	ra,20(sp)
800080cc:	0c000027 	jal	8000009c <write>
800080d0:	af800970 	sw	zero,2416(gp)
800080d4:	2403ffff 	li	v1,-1
800080d8:	10430005 	beq	v0,v1,800080f0 <_write_r+0x40>
800080dc:	00000000 	nop
800080e0:	8fbf0014 	lw	ra,20(sp)
800080e4:	8fb00010 	lw	s0,16(sp)
800080e8:	03e00008 	jr	ra
800080ec:	27bd0018 	addiu	sp,sp,24
800080f0:	8f830970 	lw	v1,2416(gp)
800080f4:	00000000 	nop
800080f8:	1060fff9 	beqz	v1,800080e0 <_write_r+0x30>
800080fc:	00000000 	nop
80008100:	8fbf0014 	lw	ra,20(sp)
80008104:	ae030000 	sw	v1,0(s0)
80008108:	8fb00010 	lw	s0,16(sp)
8000810c:	03e00008 	jr	ra
80008110:	27bd0018 	addiu	sp,sp,24

80008114 <_calloc_r>:
80008114:	00c50018 	mult	a2,a1
80008118:	27bdffe8 	addiu	sp,sp,-24
8000811c:	afb00010 	sw	s0,16(sp)
80008120:	afbf0014 	sw	ra,20(sp)
80008124:	00002812 	mflo	a1
80008128:	0c001388 	jal	80004e20 <_malloc_r>
8000812c:	00000000 	nop
80008130:	1040000e 	beqz	v0,8000816c <_calloc_r+0x58>
80008134:	00408021 	move	s0,v0
80008138:	8c46fffc 	lw	a2,-4(v0)
8000813c:	2402fffc 	li	v0,-4
80008140:	00c23024 	and	a2,a2,v0
80008144:	24c6fffc 	addiu	a2,a2,-4
80008148:	2cc20025 	sltiu	v0,a2,37
8000814c:	10400015 	beqz	v0,800081a4 <_calloc_r+0x90>
80008150:	2cc20014 	sltiu	v0,a2,20
80008154:	1040000a 	beqz	v0,80008180 <_calloc_r+0x6c>
80008158:	2cc2001c 	sltiu	v0,a2,28
8000815c:	02001021 	move	v0,s0
80008160:	ac400000 	sw	zero,0(v0)
80008164:	ac400004 	sw	zero,4(v0)
80008168:	ac400008 	sw	zero,8(v0)
8000816c:	8fbf0014 	lw	ra,20(sp)
80008170:	02001021 	move	v0,s0
80008174:	8fb00010 	lw	s0,16(sp)
80008178:	03e00008 	jr	ra
8000817c:	27bd0018 	addiu	sp,sp,24
80008180:	ae000000 	sw	zero,0(s0)
80008184:	1440000f 	bnez	v0,800081c4 <_calloc_r+0xb0>
80008188:	ae000004 	sw	zero,4(s0)
8000818c:	24020024 	li	v0,36
80008190:	ae000008 	sw	zero,8(s0)
80008194:	10c2000d 	beq	a2,v0,800081cc <_calloc_r+0xb8>
80008198:	ae00000c 	sw	zero,12(s0)
8000819c:	08002058 	j	80008160 <_calloc_r+0x4c>
800081a0:	26020010 	addiu	v0,s0,16
800081a4:	02002021 	move	a0,s0
800081a8:	0c000076 	jal	800001d8 <memset>
800081ac:	00002821 	move	a1,zero
800081b0:	8fbf0014 	lw	ra,20(sp)
800081b4:	02001021 	move	v0,s0
800081b8:	8fb00010 	lw	s0,16(sp)
800081bc:	03e00008 	jr	ra
800081c0:	27bd0018 	addiu	sp,sp,24
800081c4:	08002058 	j	80008160 <_calloc_r+0x4c>
800081c8:	26020008 	addiu	v0,s0,8
800081cc:	ae000010 	sw	zero,16(s0)
800081d0:	ae000014 	sw	zero,20(s0)
800081d4:	08002058 	j	80008160 <_calloc_r+0x4c>
800081d8:	26020018 	addiu	v0,s0,24

800081dc <_close_r>:
800081dc:	27bdffe8 	addiu	sp,sp,-24
800081e0:	afb00010 	sw	s0,16(sp)
800081e4:	00808021 	move	s0,a0
800081e8:	00a02021 	move	a0,a1
800081ec:	afbf0014 	sw	ra,20(sp)
800081f0:	0c000037 	jal	800000dc <close>
800081f4:	af800970 	sw	zero,2416(gp)
800081f8:	2403ffff 	li	v1,-1
800081fc:	10430005 	beq	v0,v1,80008214 <_close_r+0x38>
80008200:	00000000 	nop
80008204:	8fbf0014 	lw	ra,20(sp)
80008208:	8fb00010 	lw	s0,16(sp)
8000820c:	03e00008 	jr	ra
80008210:	27bd0018 	addiu	sp,sp,24
80008214:	8f830970 	lw	v1,2416(gp)
80008218:	00000000 	nop
8000821c:	1060fff9 	beqz	v1,80008204 <_close_r+0x28>
80008220:	00000000 	nop
80008224:	8fbf0014 	lw	ra,20(sp)
80008228:	ae030000 	sw	v1,0(s0)
8000822c:	8fb00010 	lw	s0,16(sp)
80008230:	03e00008 	jr	ra
80008234:	27bd0018 	addiu	sp,sp,24

80008238 <_fclose_r>:
80008238:	27bdffe0 	addiu	sp,sp,-32
8000823c:	afb00010 	sw	s0,16(sp)
80008240:	afbf001c 	sw	ra,28(sp)
80008244:	afb20018 	sw	s2,24(sp)
80008248:	afb10014 	sw	s1,20(sp)
8000824c:	10a0000b 	beqz	a1,8000827c <_fclose_r+0x44>
80008250:	00a08021 	move	s0,a1
80008254:	10800005 	beqz	a0,8000826c <_fclose_r+0x34>
80008258:	00808821 	move	s1,a0
8000825c:	8c820038 	lw	v0,56(a0)
80008260:	00000000 	nop
80008264:	1040003c 	beqz	v0,80008358 <_fclose_r+0x120>
80008268:	00000000 	nop
8000826c:	8602000c 	lh	v0,12(s0)
80008270:	00000000 	nop
80008274:	14400009 	bnez	v0,8000829c <_fclose_r+0x64>
80008278:	00000000 	nop
8000827c:	8fbf001c 	lw	ra,28(sp)
80008280:	00009021 	move	s2,zero
80008284:	02401021 	move	v0,s2
80008288:	8fb10014 	lw	s1,20(sp)
8000828c:	8fb20018 	lw	s2,24(sp)
80008290:	8fb00010 	lw	s0,16(sp)
80008294:	03e00008 	jr	ra
80008298:	27bd0020 	addiu	sp,sp,32
8000829c:	02202021 	move	a0,s1
800082a0:	0c001087 	jal	8000421c <_fflush_r>
800082a4:	02002821 	move	a1,s0
800082a8:	00409021 	move	s2,v0
800082ac:	8e02002c 	lw	v0,44(s0)
800082b0:	00000000 	nop
800082b4:	10400006 	beqz	v0,800082d0 <_fclose_r+0x98>
800082b8:	00000000 	nop
800082bc:	8e05001c 	lw	a1,28(s0)
800082c0:	0040f809 	jalr	v0
800082c4:	02202021 	move	a0,s1
800082c8:	04400027 	bltz	v0,80008368 <_fclose_r+0x130>
800082cc:	00000000 	nop
800082d0:	9602000c 	lhu	v0,12(s0)
800082d4:	00000000 	nop
800082d8:	30420080 	andi	v0,v0,0x80
800082dc:	00021400 	sll	v0,v0,0x10
800082e0:	00021403 	sra	v0,v0,0x10
800082e4:	14400022 	bnez	v0,80008370 <_fclose_r+0x138>
800082e8:	00000000 	nop
800082ec:	8e050030 	lw	a1,48(s0)
800082f0:	00000000 	nop
800082f4:	10a00006 	beqz	a1,80008310 <_fclose_r+0xd8>
800082f8:	26020040 	addiu	v0,s0,64
800082fc:	10a20003 	beq	a1,v0,8000830c <_fclose_r+0xd4>
80008300:	00000000 	nop
80008304:	0c0011bd 	jal	800046f4 <_free_r>
80008308:	02202021 	move	a0,s1
8000830c:	ae000030 	sw	zero,48(s0)
80008310:	8e050044 	lw	a1,68(s0)
80008314:	00000000 	nop
80008318:	10a00004 	beqz	a1,8000832c <_fclose_r+0xf4>
8000831c:	00000000 	nop
80008320:	0c0011bd 	jal	800046f4 <_free_r>
80008324:	02202021 	move	a0,s1
80008328:	ae000044 	sw	zero,68(s0)
8000832c:	0c00115e 	jal	80004578 <__sfp_lock_acquire>
80008330:	00000000 	nop
80008334:	0c001160 	jal	80004580 <__sfp_lock_release>
80008338:	a600000c 	sh	zero,12(s0)
8000833c:	8fbf001c 	lw	ra,28(sp)
80008340:	02401021 	move	v0,s2
80008344:	8fb10014 	lw	s1,20(sp)
80008348:	8fb20018 	lw	s2,24(sp)
8000834c:	8fb00010 	lw	s0,16(sp)
80008350:	03e00008 	jr	ra
80008354:	27bd0020 	addiu	sp,sp,32
80008358:	0c0010f4 	jal	800043d0 <__sinit>
8000835c:	00000000 	nop
80008360:	0800209b 	j	8000826c <_fclose_r+0x34>
80008364:	00000000 	nop
80008368:	080020b4 	j	800082d0 <_fclose_r+0x98>
8000836c:	2412ffff 	li	s2,-1
80008370:	8e050010 	lw	a1,16(s0)
80008374:	0c0011bd 	jal	800046f4 <_free_r>
80008378:	02202021 	move	a0,s1
8000837c:	080020bb 	j	800082ec <_fclose_r+0xb4>
80008380:	00000000 	nop

80008384 <fclose>:
80008384:	00802821 	move	a1,a0
80008388:	8f8408b4 	lw	a0,2228(gp)
8000838c:	0800208e 	j	80008238 <_fclose_r>
80008390:	00000000 	nop

80008394 <_fputwc_r>:
80008394:	84c2000c 	lh	v0,12(a2)
80008398:	27bdffc8 	addiu	sp,sp,-56
8000839c:	30432000 	andi	v1,v0,0x2000
800083a0:	00031c00 	sll	v1,v1,0x10
800083a4:	00031c03 	sra	v1,v1,0x10
800083a8:	afb40028 	sw	s4,40(sp)
800083ac:	afb30024 	sw	s3,36(sp)
800083b0:	afb00018 	sw	s0,24(sp)
800083b4:	afbf0034 	sw	ra,52(sp)
800083b8:	afb60030 	sw	s6,48(sp)
800083bc:	afb5002c 	sw	s5,44(sp)
800083c0:	afb20020 	sw	s2,32(sp)
800083c4:	afb1001c 	sw	s1,28(sp)
800083c8:	00c08021 	move	s0,a2
800083cc:	0080a021 	move	s4,a0
800083d0:	14600006 	bnez	v1,800083ec <_fputwc_r+0x58>
800083d4:	00a09821 	move	s3,a1
800083d8:	8cc30064 	lw	v1,100(a2)
800083dc:	34422000 	ori	v0,v0,0x2000
800083e0:	34632000 	ori	v1,v1,0x2000
800083e4:	a4c2000c 	sh	v0,12(a2)
800083e8:	acc30064 	sw	v1,100(a2)
800083ec:	0c001303 	jal	80004c0c <__locale_mb_cur_max>
800083f0:	00000000 	nop
800083f4:	24030001 	li	v1,1
800083f8:	1043004e 	beq	v0,v1,80008534 <_fputwc_r+0x1a0>
800083fc:	00000000 	nop
80008400:	27b10010 	addiu	s1,sp,16
80008404:	02802021 	move	a0,s4
80008408:	02202821 	move	a1,s1
8000840c:	02603021 	move	a2,s3
80008410:	0c00262c 	jal	800098b0 <_wcrtomb_r>
80008414:	2607005c 	addiu	a3,s0,92
80008418:	0040a821 	move	s5,v0
8000841c:	2402ffff 	li	v0,-1
80008420:	12a2002a 	beq	s5,v0,800084cc <_fputwc_r+0x138>
80008424:	00000000 	nop
80008428:	12a00036 	beqz	s5,80008504 <_fputwc_r+0x170>
8000842c:	00000000 	nop
80008430:	00009021 	move	s2,zero
80008434:	0800211b 	j	8000846c <_fputwc_r+0xd8>
80008438:	2416000a 	li	s6,10
8000843c:	8e030000 	lw	v1,0(s0)
80008440:	92240000 	lbu	a0,0(s1)
80008444:	00000000 	nop
80008448:	a0640000 	sb	a0,0(v1)
8000844c:	8e030000 	lw	v1,0(s0)
80008450:	00000000 	nop
80008454:	24630001 	addiu	v1,v1,1
80008458:	ae030000 	sw	v1,0(s0)
8000845c:	26520001 	addiu	s2,s2,1
80008460:	0255182b 	sltu	v1,s2,s5
80008464:	10600027 	beqz	v1,80008504 <_fputwc_r+0x170>
80008468:	26310001 	addiu	s1,s1,1
8000846c:	8e030008 	lw	v1,8(s0)
80008470:	00000000 	nop
80008474:	2463ffff 	addiu	v1,v1,-1
80008478:	0461fff0 	bgez	v1,8000843c <_fputwc_r+0xa8>
8000847c:	ae030008 	sw	v1,8(s0)
80008480:	8e040018 	lw	a0,24(s0)
80008484:	00000000 	nop
80008488:	0064182a 	slt	v1,v1,a0
8000848c:	1460001f 	bnez	v1,8000850c <_fputwc_r+0x178>
80008490:	00001021 	move	v0,zero
80008494:	8e030000 	lw	v1,0(s0)
80008498:	92240000 	lbu	a0,0(s1)
8000849c:	00000000 	nop
800084a0:	a0640000 	sb	a0,0(v1)
800084a4:	8e030000 	lw	v1,0(s0)
800084a8:	00000000 	nop
800084ac:	90640000 	lbu	a0,0(v1)
800084b0:	00000000 	nop
800084b4:	10960026 	beq	a0,s6,80008550 <_fputwc_r+0x1bc>
800084b8:	24630001 	addiu	v1,v1,1
800084bc:	1040ffe7 	beqz	v0,8000845c <_fputwc_r+0xc8>
800084c0:	ae030000 	sw	v1,0(s0)
800084c4:	08002137 	j	800084dc <_fputwc_r+0x148>
800084c8:	2402ffff 	li	v0,-1
800084cc:	9603000c 	lhu	v1,12(s0)
800084d0:	00000000 	nop
800084d4:	34630040 	ori	v1,v1,0x40
800084d8:	a603000c 	sh	v1,12(s0)
800084dc:	8fbf0034 	lw	ra,52(sp)
800084e0:	8fb60030 	lw	s6,48(sp)
800084e4:	8fb5002c 	lw	s5,44(sp)
800084e8:	8fb40028 	lw	s4,40(sp)
800084ec:	8fb30024 	lw	s3,36(sp)
800084f0:	8fb20020 	lw	s2,32(sp)
800084f4:	8fb1001c 	lw	s1,28(sp)
800084f8:	8fb00018 	lw	s0,24(sp)
800084fc:	03e00008 	jr	ra
80008500:	27bd0038 	addiu	sp,sp,56
80008504:	08002137 	j	800084dc <_fputwc_r+0x148>
80008508:	02601021 	move	v0,s3
8000850c:	92250000 	lbu	a1,0(s1)
80008510:	02802021 	move	a0,s4
80008514:	0c0025c0 	jal	80009700 <__swbuf_r>
80008518:	02003021 	move	a2,s0
8000851c:	24420001 	addiu	v0,v0,1
80008520:	2c420001 	sltiu	v0,v0,1
80008524:	1040ffce 	beqz	v0,80008460 <_fputwc_r+0xcc>
80008528:	26520001 	addiu	s2,s2,1
8000852c:	08002137 	j	800084dc <_fputwc_r+0x148>
80008530:	2402ffff 	li	v0,-1
80008534:	1a60ffb2 	blez	s3,80008400 <_fputwc_r+0x6c>
80008538:	2a620100 	slti	v0,s3,256
8000853c:	1040ffb0 	beqz	v0,80008400 <_fputwc_r+0x6c>
80008540:	24150001 	li	s5,1
80008544:	a3b30010 	sb	s3,16(sp)
80008548:	0800210c 	j	80008430 <_fputwc_r+0x9c>
8000854c:	27b10010 	addiu	s1,sp,16
80008550:	02802021 	move	a0,s4
80008554:	2405000a 	li	a1,10
80008558:	0c0025c0 	jal	80009700 <__swbuf_r>
8000855c:	02003021 	move	a2,s0
80008560:	24420001 	addiu	v0,v0,1
80008564:	2c420001 	sltiu	v0,v0,1
80008568:	1040ffbd 	beqz	v0,80008460 <_fputwc_r+0xcc>
8000856c:	26520001 	addiu	s2,s2,1
80008570:	08002137 	j	800084dc <_fputwc_r+0x148>
80008574:	2402ffff 	li	v0,-1

80008578 <fputwc>:
80008578:	8f8208b4 	lw	v0,2228(gp)
8000857c:	27bdffe0 	addiu	sp,sp,-32
80008580:	00a03021 	move	a2,a1
80008584:	afb00018 	sw	s0,24(sp)
80008588:	afbf001c 	sw	ra,28(sp)
8000858c:	10400009 	beqz	v0,800085b4 <fputwc+0x3c>
80008590:	00808021 	move	s0,a0
80008594:	8c430038 	lw	v1,56(v0)
80008598:	00000000 	nop
8000859c:	14600005 	bnez	v1,800085b4 <fputwc+0x3c>
800085a0:	00402021 	move	a0,v0
800085a4:	0c0010f4 	jal	800043d0 <__sinit>
800085a8:	afa50010 	sw	a1,16(sp)
800085ac:	8f8208b4 	lw	v0,2228(gp)
800085b0:	8fa60010 	lw	a2,16(sp)
800085b4:	8fbf001c 	lw	ra,28(sp)
800085b8:	02002821 	move	a1,s0
800085bc:	8fb00018 	lw	s0,24(sp)
800085c0:	00402021 	move	a0,v0
800085c4:	080020e5 	j	80008394 <_fputwc_r>
800085c8:	27bd0020 	addiu	sp,sp,32

800085cc <_fstat_r>:
800085cc:	27bdffe8 	addiu	sp,sp,-24
800085d0:	afb00010 	sw	s0,16(sp)
800085d4:	00808021 	move	s0,a0
800085d8:	00a02021 	move	a0,a1
800085dc:	00c02821 	move	a1,a2
800085e0:	afbf0014 	sw	ra,20(sp)
800085e4:	0c00003f 	jal	800000fc <fstat>
800085e8:	af800970 	sw	zero,2416(gp)
800085ec:	2403ffff 	li	v1,-1
800085f0:	10430005 	beq	v0,v1,80008608 <_fstat_r+0x3c>
800085f4:	00000000 	nop
800085f8:	8fbf0014 	lw	ra,20(sp)
800085fc:	8fb00010 	lw	s0,16(sp)
80008600:	03e00008 	jr	ra
80008604:	27bd0018 	addiu	sp,sp,24
80008608:	8f830970 	lw	v1,2416(gp)
8000860c:	00000000 	nop
80008610:	1060fff9 	beqz	v1,800085f8 <_fstat_r+0x2c>
80008614:	00000000 	nop
80008618:	8fbf0014 	lw	ra,20(sp)
8000861c:	ae030000 	sw	v1,0(s0)
80008620:	8fb00010 	lw	s0,16(sp)
80008624:	03e00008 	jr	ra
80008628:	27bd0018 	addiu	sp,sp,24

8000862c <__sfvwrite_r>:
8000862c:	8cc20008 	lw	v0,8(a2)
80008630:	27bdffc0 	addiu	sp,sp,-64
80008634:	afb40028 	sw	s4,40(sp)
80008638:	afbf003c 	sw	ra,60(sp)
8000863c:	afbe0038 	sw	s8,56(sp)
80008640:	afb70034 	sw	s7,52(sp)
80008644:	afb60030 	sw	s6,48(sp)
80008648:	afb5002c 	sw	s5,44(sp)
8000864c:	afb30024 	sw	s3,36(sp)
80008650:	afb20020 	sw	s2,32(sp)
80008654:	afb1001c 	sw	s1,28(sp)
80008658:	afb00018 	sw	s0,24(sp)
8000865c:	10400027 	beqz	v0,800086fc <__sfvwrite_r+0xd0>
80008660:	00c0a021 	move	s4,a2
80008664:	84a2000c 	lh	v0,12(a1)
80008668:	0080a821 	move	s5,a0
8000866c:	30430008 	andi	v1,v0,0x8
80008670:	00031c00 	sll	v1,v1,0x10
80008674:	00031c03 	sra	v1,v1,0x10
80008678:	1060002d 	beqz	v1,80008730 <__sfvwrite_r+0x104>
8000867c:	00a08021 	move	s0,a1
80008680:	8ca30010 	lw	v1,16(a1)
80008684:	00000000 	nop
80008688:	10600029 	beqz	v1,80008730 <__sfvwrite_r+0x104>
8000868c:	30430002 	andi	v1,v0,0x2
80008690:	00031c00 	sll	v1,v1,0x10
80008694:	00031c03 	sra	v1,v1,0x10
80008698:	8e910000 	lw	s1,0(s4)
8000869c:	10600031 	beqz	v1,80008764 <__sfvwrite_r+0x138>
800086a0:	30430001 	andi	v1,v0,0x1
800086a4:	00009821 	move	s3,zero
800086a8:	00009021 	move	s2,zero
800086ac:	02603021 	move	a2,s3
800086b0:	02a02021 	move	a0,s5
800086b4:	12400055 	beqz	s2,8000880c <__sfvwrite_r+0x1e0>
800086b8:	2e420401 	sltiu	v0,s2,1025
800086bc:	8e05001c 	lw	a1,28(s0)
800086c0:	14400002 	bnez	v0,800086cc <__sfvwrite_r+0xa0>
800086c4:	02403821 	move	a3,s2
800086c8:	24070400 	li	a3,1024
800086cc:	8e020024 	lw	v0,36(s0)
800086d0:	00000000 	nop
800086d4:	0040f809 	jalr	v0
800086d8:	00000000 	nop
800086dc:	18400058 	blez	v0,80008840 <__sfvwrite_r+0x214>
800086e0:	02629821 	addu	s3,s3,v0
800086e4:	8e830008 	lw	v1,8(s4)
800086e8:	00000000 	nop
800086ec:	00621823 	subu	v1,v1,v0
800086f0:	02429023 	subu	s2,s2,v0
800086f4:	1460ffed 	bnez	v1,800086ac <__sfvwrite_r+0x80>
800086f8:	ae830008 	sw	v1,8(s4)
800086fc:	00001021 	move	v0,zero
80008700:	8fbf003c 	lw	ra,60(sp)
80008704:	8fbe0038 	lw	s8,56(sp)
80008708:	8fb70034 	lw	s7,52(sp)
8000870c:	8fb60030 	lw	s6,48(sp)
80008710:	8fb5002c 	lw	s5,44(sp)
80008714:	8fb40028 	lw	s4,40(sp)
80008718:	8fb30024 	lw	s3,36(sp)
8000871c:	8fb20020 	lw	s2,32(sp)
80008720:	8fb1001c 	lw	s1,28(sp)
80008724:	8fb00018 	lw	s0,24(sp)
80008728:	03e00008 	jr	ra
8000872c:	27bd0040 	addiu	sp,sp,64
80008730:	02a02021 	move	a0,s5
80008734:	0c000918 	jal	80002460 <__swsetup_r>
80008738:	02002821 	move	a1,s0
8000873c:	1440fff0 	bnez	v0,80008700 <__sfvwrite_r+0xd4>
80008740:	2402ffff 	li	v0,-1
80008744:	8602000c 	lh	v0,12(s0)
80008748:	8e910000 	lw	s1,0(s4)
8000874c:	30430002 	andi	v1,v0,0x2
80008750:	00031c00 	sll	v1,v1,0x10
80008754:	00031c03 	sra	v1,v1,0x10
80008758:	1460ffd3 	bnez	v1,800086a8 <__sfvwrite_r+0x7c>
8000875c:	00009821 	move	s3,zero
80008760:	30430001 	andi	v1,v0,0x1
80008764:	1460003b 	bnez	v1,80008854 <__sfvwrite_r+0x228>
80008768:	0000b021 	move	s6,zero
8000876c:	00009021 	move	s2,zero
80008770:	12400022 	beqz	s2,800087fc <__sfvwrite_r+0x1d0>
80008774:	30430200 	andi	v1,v0,0x200
80008778:	00031c00 	sll	v1,v1,0x10
8000877c:	00031c03 	sra	v1,v1,0x10
80008780:	8e130008 	lw	s3,8(s0)
80008784:	10600064 	beqz	v1,80008918 <__sfvwrite_r+0x2ec>
80008788:	0253182b 	sltu	v1,s2,s3
8000878c:	1460008c 	bnez	v1,800089c0 <__sfvwrite_r+0x394>
80008790:	02603821 	move	a3,s3
80008794:	30430480 	andi	v1,v0,0x480
80008798:	146000a3 	bnez	v1,80008a28 <__sfvwrite_r+0x3fc>
8000879c:	0260b821 	move	s7,s3
800087a0:	8e040000 	lw	a0,0(s0)
800087a4:	0240f021 	move	s8,s2
800087a8:	02409821 	move	s3,s2
800087ac:	00e03021 	move	a2,a3
800087b0:	02c02821 	move	a1,s6
800087b4:	0c002306 	jal	80008c18 <memmove>
800087b8:	afa70010 	sw	a3,16(sp)
800087bc:	8fa70010 	lw	a3,16(sp)
800087c0:	8e040008 	lw	a0,8(s0)
800087c4:	8e020000 	lw	v0,0(s0)
800087c8:	0097b823 	subu	s7,a0,s7
800087cc:	00473821 	addu	a3,v0,a3
800087d0:	ae170008 	sw	s7,8(s0)
800087d4:	ae070000 	sw	a3,0(s0)
800087d8:	8e820008 	lw	v0,8(s4)
800087dc:	02deb021 	addu	s6,s6,s8
800087e0:	00539823 	subu	s3,v0,s3
800087e4:	025e9023 	subu	s2,s2,s8
800087e8:	1260ffc4 	beqz	s3,800086fc <__sfvwrite_r+0xd0>
800087ec:	ae930008 	sw	s3,8(s4)
800087f0:	8602000c 	lh	v0,12(s0)
800087f4:	1640ffe0 	bnez	s2,80008778 <__sfvwrite_r+0x14c>
800087f8:	30430200 	andi	v1,v0,0x200
800087fc:	8e360000 	lw	s6,0(s1)
80008800:	8e320004 	lw	s2,4(s1)
80008804:	080021dc 	j	80008770 <__sfvwrite_r+0x144>
80008808:	26310008 	addiu	s1,s1,8
8000880c:	8e330000 	lw	s3,0(s1)
80008810:	8e320004 	lw	s2,4(s1)
80008814:	080021ab 	j	800086ac <__sfvwrite_r+0x80>
80008818:	26310008 	addiu	s1,s1,8
8000881c:	0c002378 	jal	80008de0 <_realloc_r>
80008820:	00000000 	nop
80008824:	144000a2 	bnez	v0,80008ab0 <__sfvwrite_r+0x484>
80008828:	0040b821 	move	s7,v0
8000882c:	8e050010 	lw	a1,16(s0)
80008830:	0c0011bd 	jal	800046f4 <_free_r>
80008834:	02a02021 	move	a0,s5
80008838:	2402000c 	li	v0,12
8000883c:	aea20000 	sw	v0,0(s5)
80008840:	9603000c 	lhu	v1,12(s0)
80008844:	2402ffff 	li	v0,-1
80008848:	34630040 	ori	v1,v1,0x40
8000884c:	080021c0 	j	80008700 <__sfvwrite_r+0xd4>
80008850:	a603000c 	sh	v1,12(s0)
80008854:	00001821 	move	v1,zero
80008858:	0000f021 	move	s8,zero
8000885c:	00009021 	move	s2,zero
80008860:	12400028 	beqz	s2,80008904 <__sfvwrite_r+0x2d8>
80008864:	00000000 	nop
80008868:	10600066 	beqz	v1,80008a04 <__sfvwrite_r+0x3d8>
8000886c:	03c02021 	move	a0,s8
80008870:	0256102b 	sltu	v0,s2,s6
80008874:	10400002 	beqz	v0,80008880 <__sfvwrite_r+0x254>
80008878:	02c0b821 	move	s7,s6
8000887c:	0240b821 	move	s7,s2
80008880:	8e040000 	lw	a0,0(s0)
80008884:	8e020010 	lw	v0,16(s0)
80008888:	8e130008 	lw	s3,8(s0)
8000888c:	0044102b 	sltu	v0,v0,a0
80008890:	8e070014 	lw	a3,20(s0)
80008894:	10400005 	beqz	v0,800088ac <__sfvwrite_r+0x280>
80008898:	02e7102a 	slt	v0,s7,a3
8000889c:	02679821 	addu	s3,s3,a3
800088a0:	0277102a 	slt	v0,s3,s7
800088a4:	1440008d 	bnez	v0,80008adc <__sfvwrite_r+0x4b0>
800088a8:	02e7102a 	slt	v0,s7,a3
800088ac:	14400030 	bnez	v0,80008970 <__sfvwrite_r+0x344>
800088b0:	03c02821 	move	a1,s8
800088b4:	8e020024 	lw	v0,36(s0)
800088b8:	8e05001c 	lw	a1,28(s0)
800088bc:	02a02021 	move	a0,s5
800088c0:	afa30010 	sw	v1,16(sp)
800088c4:	0040f809 	jalr	v0
800088c8:	03c03021 	move	a2,s8
800088cc:	8fa30010 	lw	v1,16(sp)
800088d0:	1840ffdb 	blez	v0,80008840 <__sfvwrite_r+0x214>
800088d4:	00409821 	move	s3,v0
800088d8:	02d3b023 	subu	s6,s6,s3
800088dc:	12c00032 	beqz	s6,800089a8 <__sfvwrite_r+0x37c>
800088e0:	02a02021 	move	a0,s5
800088e4:	8e820008 	lw	v0,8(s4)
800088e8:	03d3f021 	addu	s8,s8,s3
800088ec:	00531023 	subu	v0,v0,s3
800088f0:	02539023 	subu	s2,s2,s3
800088f4:	1040ff81 	beqz	v0,800086fc <__sfvwrite_r+0xd0>
800088f8:	ae820008 	sw	v0,8(s4)
800088fc:	1640ffda 	bnez	s2,80008868 <__sfvwrite_r+0x23c>
80008900:	00000000 	nop
80008904:	8e3e0000 	lw	s8,0(s1)
80008908:	8e320004 	lw	s2,4(s1)
8000890c:	00001821 	move	v1,zero
80008910:	08002218 	j	80008860 <__sfvwrite_r+0x234>
80008914:	26310008 	addiu	s1,s1,8
80008918:	8e040000 	lw	a0,0(s0)
8000891c:	8e020010 	lw	v0,16(s0)
80008920:	00000000 	nop
80008924:	0044102b 	sltu	v0,v0,a0
80008928:	10400003 	beqz	v0,80008938 <__sfvwrite_r+0x30c>
8000892c:	0272102b 	sltu	v0,s3,s2
80008930:	14400079 	bnez	v0,80008b18 <__sfvwrite_r+0x4ec>
80008934:	0260f021 	move	s8,s3
80008938:	8e070014 	lw	a3,20(s0)
8000893c:	00000000 	nop
80008940:	0247102b 	sltu	v0,s2,a3
80008944:	14400024 	bnez	v0,800089d8 <__sfvwrite_r+0x3ac>
80008948:	02c02821 	move	a1,s6
8000894c:	8e020024 	lw	v0,36(s0)
80008950:	8e05001c 	lw	a1,28(s0)
80008954:	02a02021 	move	a0,s5
80008958:	0040f809 	jalr	v0
8000895c:	02c03021 	move	a2,s6
80008960:	1840ffb7 	blez	v0,80008840 <__sfvwrite_r+0x214>
80008964:	00409821 	move	s3,v0
80008968:	080021f6 	j	800087d8 <__sfvwrite_r+0x1ac>
8000896c:	0040f021 	move	s8,v0
80008970:	02e03021 	move	a2,s7
80008974:	0c002306 	jal	80008c18 <memmove>
80008978:	afa30010 	sw	v1,16(sp)
8000897c:	8e040008 	lw	a0,8(s0)
80008980:	8e020000 	lw	v0,0(s0)
80008984:	02e09821 	move	s3,s7
80008988:	00972023 	subu	a0,a0,s7
8000898c:	00571021 	addu	v0,v0,s7
80008990:	02d3b023 	subu	s6,s6,s3
80008994:	ae040008 	sw	a0,8(s0)
80008998:	ae020000 	sw	v0,0(s0)
8000899c:	8fa30010 	lw	v1,16(sp)
800089a0:	16c0ffd0 	bnez	s6,800088e4 <__sfvwrite_r+0x2b8>
800089a4:	02a02021 	move	a0,s5
800089a8:	0c001087 	jal	8000421c <_fflush_r>
800089ac:	02002821 	move	a1,s0
800089b0:	1440ffa3 	bnez	v0,80008840 <__sfvwrite_r+0x214>
800089b4:	00001821 	move	v1,zero
800089b8:	08002239 	j	800088e4 <__sfvwrite_r+0x2b8>
800089bc:	00000000 	nop
800089c0:	8e040000 	lw	a0,0(s0)
800089c4:	0240b821 	move	s7,s2
800089c8:	0240f021 	move	s8,s2
800089cc:	02409821 	move	s3,s2
800089d0:	080021eb 	j	800087ac <__sfvwrite_r+0x180>
800089d4:	02403821 	move	a3,s2
800089d8:	0c002306 	jal	80008c18 <memmove>
800089dc:	02403021 	move	a2,s2
800089e0:	8e030008 	lw	v1,8(s0)
800089e4:	8e020000 	lw	v0,0(s0)
800089e8:	00721823 	subu	v1,v1,s2
800089ec:	00521021 	addu	v0,v0,s2
800089f0:	02409821 	move	s3,s2
800089f4:	ae030008 	sw	v1,8(s0)
800089f8:	ae020000 	sw	v0,0(s0)
800089fc:	080021f6 	j	800087d8 <__sfvwrite_r+0x1ac>
80008a00:	0240f021 	move	s8,s2
80008a04:	2405000a 	li	a1,10
80008a08:	0c0015a0 	jal	80005680 <memchr>
80008a0c:	02403021 	move	a2,s2
80008a10:	1040004e 	beqz	v0,80008b4c <__sfvwrite_r+0x520>
80008a14:	00000000 	nop
80008a18:	24560001 	addiu	s6,v0,1
80008a1c:	02deb023 	subu	s6,s6,s8
80008a20:	0800221c 	j	80008870 <__sfvwrite_r+0x244>
80008a24:	24030001 	li	v1,1
80008a28:	8e040014 	lw	a0,20(s0)
80008a2c:	8e050010 	lw	a1,16(s0)
80008a30:	00043040 	sll	a2,a0,0x1
80008a34:	8e030000 	lw	v1,0(s0)
80008a38:	00c42021 	addu	a0,a2,a0
80008a3c:	00049fc2 	srl	s3,a0,0x1f
80008a40:	0065f023 	subu	s8,v1,a1
80008a44:	02649821 	addu	s3,s3,a0
80008a48:	27c40001 	addiu	a0,s8,1
80008a4c:	00139843 	sra	s3,s3,0x1
80008a50:	00922021 	addu	a0,a0,s2
80008a54:	0264382b 	sltu	a3,s3,a0
80008a58:	10e00003 	beqz	a3,80008a68 <__sfvwrite_r+0x43c>
80008a5c:	02603021 	move	a2,s3
80008a60:	00809821 	move	s3,a0
80008a64:	00803021 	move	a2,a0
80008a68:	30420400 	andi	v0,v0,0x400
80008a6c:	00021400 	sll	v0,v0,0x10
80008a70:	00021403 	sra	v0,v0,0x10
80008a74:	1040ff69 	beqz	v0,8000881c <__sfvwrite_r+0x1f0>
80008a78:	02a02021 	move	a0,s5
80008a7c:	0c001388 	jal	80004e20 <_malloc_r>
80008a80:	00c02821 	move	a1,a2
80008a84:	1040ff6c 	beqz	v0,80008838 <__sfvwrite_r+0x20c>
80008a88:	0040b821 	move	s7,v0
80008a8c:	8e050010 	lw	a1,16(s0)
80008a90:	00402021 	move	a0,v0
80008a94:	0c0015e5 	jal	80005794 <memcpy>
80008a98:	03c03021 	move	a2,s8
80008a9c:	9602000c 	lhu	v0,12(s0)
80008aa0:	2403fb7f 	li	v1,-1153
80008aa4:	00431024 	and	v0,v0,v1
80008aa8:	34420080 	ori	v0,v0,0x80
80008aac:	a602000c 	sh	v0,12(s0)
80008ab0:	02fe2021 	addu	a0,s7,s8
80008ab4:	027e1823 	subu	v1,s3,s8
80008ab8:	ae170010 	sw	s7,16(s0)
80008abc:	ae130014 	sw	s3,20(s0)
80008ac0:	ae040000 	sw	a0,0(s0)
80008ac4:	0240b821 	move	s7,s2
80008ac8:	ae030008 	sw	v1,8(s0)
80008acc:	0240f021 	move	s8,s2
80008ad0:	02409821 	move	s3,s2
80008ad4:	080021eb 	j	800087ac <__sfvwrite_r+0x180>
80008ad8:	02403821 	move	a3,s2
80008adc:	03c02821 	move	a1,s8
80008ae0:	02603021 	move	a2,s3
80008ae4:	0c002306 	jal	80008c18 <memmove>
80008ae8:	afa30010 	sw	v1,16(sp)
80008aec:	8e020000 	lw	v0,0(s0)
80008af0:	02a02021 	move	a0,s5
80008af4:	00531021 	addu	v0,v0,s3
80008af8:	ae020000 	sw	v0,0(s0)
80008afc:	0c001087 	jal	8000421c <_fflush_r>
80008b00:	02002821 	move	a1,s0
80008b04:	8fa30010 	lw	v1,16(sp)
80008b08:	1040ff74 	beqz	v0,800088dc <__sfvwrite_r+0x2b0>
80008b0c:	02d3b023 	subu	s6,s6,s3
80008b10:	08002210 	j	80008840 <__sfvwrite_r+0x214>
80008b14:	00000000 	nop
80008b18:	02c02821 	move	a1,s6
80008b1c:	0c002306 	jal	80008c18 <memmove>
80008b20:	02603021 	move	a2,s3
80008b24:	8e020000 	lw	v0,0(s0)
80008b28:	02a02021 	move	a0,s5
80008b2c:	00531021 	addu	v0,v0,s3
80008b30:	ae020000 	sw	v0,0(s0)
80008b34:	0c001087 	jal	8000421c <_fflush_r>
80008b38:	02002821 	move	a1,s0
80008b3c:	1040ff26 	beqz	v0,800087d8 <__sfvwrite_r+0x1ac>
80008b40:	00000000 	nop
80008b44:	08002210 	j	80008840 <__sfvwrite_r+0x214>
80008b48:	00000000 	nop
80008b4c:	26560001 	addiu	s6,s2,1
80008b50:	0800221c 	j	80008870 <__sfvwrite_r+0x244>
80008b54:	24030001 	li	v1,1

80008b58 <_isatty_r>:
80008b58:	27bdffe8 	addiu	sp,sp,-24
80008b5c:	afb00010 	sw	s0,16(sp)
80008b60:	00808021 	move	s0,a0
80008b64:	00a02021 	move	a0,a1
80008b68:	afbf0014 	sw	ra,20(sp)
80008b6c:	0c000051 	jal	80000144 <isatty>
80008b70:	af800970 	sw	zero,2416(gp)
80008b74:	2403ffff 	li	v1,-1
80008b78:	10430005 	beq	v0,v1,80008b90 <_isatty_r+0x38>
80008b7c:	00000000 	nop
80008b80:	8fbf0014 	lw	ra,20(sp)
80008b84:	8fb00010 	lw	s0,16(sp)
80008b88:	03e00008 	jr	ra
80008b8c:	27bd0018 	addiu	sp,sp,24
80008b90:	8f830970 	lw	v1,2416(gp)
80008b94:	00000000 	nop
80008b98:	1060fff9 	beqz	v1,80008b80 <_isatty_r+0x28>
80008b9c:	00000000 	nop
80008ba0:	8fbf0014 	lw	ra,20(sp)
80008ba4:	ae030000 	sw	v1,0(s0)
80008ba8:	8fb00010 	lw	s0,16(sp)
80008bac:	03e00008 	jr	ra
80008bb0:	27bd0018 	addiu	sp,sp,24

80008bb4 <_lseek_r>:
80008bb4:	27bdffe8 	addiu	sp,sp,-24
80008bb8:	afb00010 	sw	s0,16(sp)
80008bbc:	00808021 	move	s0,a0
80008bc0:	00a02021 	move	a0,a1
80008bc4:	00c02821 	move	a1,a2
80008bc8:	00e03021 	move	a2,a3
80008bcc:	afbf0014 	sw	ra,20(sp)
80008bd0:	0c00004a 	jal	80000128 <lseek>
80008bd4:	af800970 	sw	zero,2416(gp)
80008bd8:	2403ffff 	li	v1,-1
80008bdc:	10430005 	beq	v0,v1,80008bf4 <_lseek_r+0x40>
80008be0:	00000000 	nop
80008be4:	8fbf0014 	lw	ra,20(sp)
80008be8:	8fb00010 	lw	s0,16(sp)
80008bec:	03e00008 	jr	ra
80008bf0:	27bd0018 	addiu	sp,sp,24
80008bf4:	8f830970 	lw	v1,2416(gp)
80008bf8:	00000000 	nop
80008bfc:	1060fff9 	beqz	v1,80008be4 <_lseek_r+0x30>
80008c00:	00000000 	nop
80008c04:	8fbf0014 	lw	ra,20(sp)
80008c08:	ae030000 	sw	v1,0(s0)
80008c0c:	8fb00010 	lw	s0,16(sp)
80008c10:	03e00008 	jr	ra
80008c14:	27bd0018 	addiu	sp,sp,24

80008c18 <memmove>:
80008c18:	00a4182b 	sltu	v1,a1,a0
80008c1c:	1060000f 	beqz	v1,80008c5c <memmove+0x44>
80008c20:	00801021 	move	v0,a0
80008c24:	00a63821 	addu	a3,a1,a2
80008c28:	0087182b 	sltu	v1,a0,a3
80008c2c:	1060000c 	beqz	v1,80008c60 <memmove+0x48>
80008c30:	2cc30010 	sltiu	v1,a2,16
80008c34:	00861821 	addu	v1,a0,a2
80008c38:	10c00006 	beqz	a2,80008c54 <memmove+0x3c>
80008c3c:	00662823 	subu	a1,v1,a2
80008c40:	24e7ffff 	addiu	a3,a3,-1
80008c44:	80e40000 	lb	a0,0(a3)
80008c48:	2463ffff 	addiu	v1,v1,-1
80008c4c:	1465fffc 	bne	v1,a1,80008c40 <memmove+0x28>
80008c50:	a0640000 	sb	a0,0(v1)
80008c54:	03e00008 	jr	ra
80008c58:	00000000 	nop
80008c5c:	2cc30010 	sltiu	v1,a2,16
80008c60:	14600039 	bnez	v1,80008d48 <memmove+0x130>
80008c64:	00000000 	nop
80008c68:	00a21825 	or	v1,a1,v0
80008c6c:	30630003 	andi	v1,v1,0x3
80008c70:	14600039 	bnez	v1,80008d58 <memmove+0x140>
80008c74:	00a03821 	move	a3,a1
80008c78:	00401821 	move	v1,v0
80008c7c:	00c02021 	move	a0,a2
80008c80:	8ce80000 	lw	t0,0(a3)
80008c84:	2484fff0 	addiu	a0,a0,-16
80008c88:	ac680000 	sw	t0,0(v1)
80008c8c:	8ce90004 	lw	t1,4(a3)
80008c90:	2c880010 	sltiu	t0,a0,16
80008c94:	ac690004 	sw	t1,4(v1)
80008c98:	8ce90008 	lw	t1,8(a3)
80008c9c:	00000000 	nop
80008ca0:	ac690008 	sw	t1,8(v1)
80008ca4:	8ce9000c 	lw	t1,12(a3)
80008ca8:	24e70010 	addiu	a3,a3,16
80008cac:	ac69000c 	sw	t1,12(v1)
80008cb0:	1100fff3 	beqz	t0,80008c80 <memmove+0x68>
80008cb4:	24630010 	addiu	v1,v1,16
80008cb8:	24c4fff0 	addiu	a0,a2,-16
80008cbc:	00042102 	srl	a0,a0,0x4
80008cc0:	24840001 	addiu	a0,a0,1
80008cc4:	30cb000f 	andi	t3,a2,0xf
80008cc8:	00042100 	sll	a0,a0,0x4
80008ccc:	2d670004 	sltiu	a3,t3,4
80008cd0:	00441821 	addu	v1,v0,a0
80008cd4:	14e00024 	bnez	a3,80008d68 <memmove+0x150>
80008cd8:	00a42821 	addu	a1,a1,a0
80008cdc:	00a04021 	move	t0,a1
80008ce0:	00603821 	move	a3,v1
80008ce4:	01602021 	move	a0,t3
80008ce8:	8d0a0000 	lw	t2,0(t0)
80008cec:	2484fffc 	addiu	a0,a0,-4
80008cf0:	2c890004 	sltiu	t1,a0,4
80008cf4:	acea0000 	sw	t2,0(a3)
80008cf8:	25080004 	addiu	t0,t0,4
80008cfc:	1120fffa 	beqz	t1,80008ce8 <memmove+0xd0>
80008d00:	24e70004 	addiu	a3,a3,4
80008d04:	2564fffc 	addiu	a0,t3,-4
80008d08:	00042082 	srl	a0,a0,0x2
80008d0c:	24840001 	addiu	a0,a0,1
80008d10:	00042080 	sll	a0,a0,0x2
80008d14:	30c60003 	andi	a2,a2,0x3
80008d18:	00a42821 	addu	a1,a1,a0
80008d1c:	10c0ffcd 	beqz	a2,80008c54 <memmove+0x3c>
80008d20:	00641821 	addu	v1,v1,a0
80008d24:	00663021 	addu	a2,v1,a2
80008d28:	80a70000 	lb	a3,0(a1)
80008d2c:	00000000 	nop
80008d30:	a0670000 	sb	a3,0(v1)
80008d34:	24630001 	addiu	v1,v1,1
80008d38:	1466fffb 	bne	v1,a2,80008d28 <memmove+0x110>
80008d3c:	24a50001 	addiu	a1,a1,1
80008d40:	03e00008 	jr	ra
80008d44:	00000000 	nop
80008d48:	14c0fff6 	bnez	a2,80008d24 <memmove+0x10c>
80008d4c:	00401821 	move	v1,v0
80008d50:	08002358 	j	80008d60 <memmove+0x148>
80008d54:	00000000 	nop
80008d58:	08002349 	j	80008d24 <memmove+0x10c>
80008d5c:	00401821 	move	v1,v0
80008d60:	03e00008 	jr	ra
80008d64:	00000000 	nop
80008d68:	01603021 	move	a2,t3
80008d6c:	14c0ffed 	bnez	a2,80008d24 <memmove+0x10c>
80008d70:	00000000 	nop
80008d74:	08002358 	j	80008d60 <memmove+0x148>
80008d78:	00000000 	nop

80008d7c <_read_r>:
80008d7c:	27bdffe8 	addiu	sp,sp,-24
80008d80:	afb00010 	sw	s0,16(sp)
80008d84:	00808021 	move	s0,a0
80008d88:	00a02021 	move	a0,a1
80008d8c:	00c02821 	move	a1,a2
80008d90:	00e03021 	move	a2,a3
80008d94:	afbf0014 	sw	ra,20(sp)
80008d98:	0c00001f 	jal	8000007c <read>
80008d9c:	af800970 	sw	zero,2416(gp)
80008da0:	2403ffff 	li	v1,-1
80008da4:	10430005 	beq	v0,v1,80008dbc <_read_r+0x40>
80008da8:	00000000 	nop
80008dac:	8fbf0014 	lw	ra,20(sp)
80008db0:	8fb00010 	lw	s0,16(sp)
80008db4:	03e00008 	jr	ra
80008db8:	27bd0018 	addiu	sp,sp,24
80008dbc:	8f830970 	lw	v1,2416(gp)
80008dc0:	00000000 	nop
80008dc4:	1060fff9 	beqz	v1,80008dac <_read_r+0x30>
80008dc8:	00000000 	nop
80008dcc:	8fbf0014 	lw	ra,20(sp)
80008dd0:	ae030000 	sw	v1,0(s0)
80008dd4:	8fb00010 	lw	s0,16(sp)
80008dd8:	03e00008 	jr	ra
80008ddc:	27bd0018 	addiu	sp,sp,24

80008de0 <_realloc_r>:
80008de0:	27bdffc0 	addiu	sp,sp,-64
80008de4:	afb20020 	sw	s2,32(sp)
80008de8:	afb00018 	sw	s0,24(sp)
80008dec:	afbf003c 	sw	ra,60(sp)
80008df0:	afbe0038 	sw	s8,56(sp)
80008df4:	afb70034 	sw	s7,52(sp)
80008df8:	afb60030 	sw	s6,48(sp)
80008dfc:	afb5002c 	sw	s5,44(sp)
80008e00:	afb40028 	sw	s4,40(sp)
80008e04:	afb30024 	sw	s3,36(sp)
80008e08:	afb1001c 	sw	s1,28(sp)
80008e0c:	00a08021 	move	s0,a1
80008e10:	10a000ac 	beqz	a1,800090c4 <_realloc_r+0x2e4>
80008e14:	00c09021 	move	s2,a2
80008e18:	0c00164b 	jal	8000592c <__malloc_lock>
80008e1c:	0080a821 	move	s5,a0
80008e20:	8e02fffc 	lw	v0,-4(s0)
80008e24:	2643000b 	addiu	v1,s2,11
80008e28:	2413fffc 	li	s3,-4
80008e2c:	2c640017 	sltiu	a0,v1,23
80008e30:	2616fff8 	addiu	s6,s0,-8
80008e34:	10800041 	beqz	a0,80008f3c <_realloc_r+0x15c>
80008e38:	00539824 	and	s3,v0,s3
80008e3c:	24040010 	li	a0,16
80008e40:	24110010 	li	s1,16
80008e44:	0232182b 	sltu	v1,s1,s2
80008e48:	14600040 	bnez	v1,80008f4c <_realloc_r+0x16c>
80008e4c:	0264182a 	slt	v1,s3,a0
80008e50:	10600042 	beqz	v1,80008f5c <_realloc_r+0x17c>
80008e54:	0260a021 	move	s4,s3
80008e58:	3c1e8001 	lui	s8,0x8001
80008e5c:	27deb4a0 	addiu	s8,s8,-19296
80008e60:	8fc50008 	lw	a1,8(s8)
80008e64:	02d31821 	addu	v1,s6,s3
80008e68:	10a300a3 	beq	a1,v1,800090f8 <_realloc_r+0x318>
80008e6c:	2407fffe 	li	a3,-2
80008e70:	8c660004 	lw	a2,4(v1)
80008e74:	00000000 	nop
80008e78:	00c73824 	and	a3,a2,a3
80008e7c:	00673821 	addu	a3,v1,a3
80008e80:	8ce70004 	lw	a3,4(a3)
80008e84:	00000000 	nop
80008e88:	30e70001 	andi	a3,a3,0x1
80008e8c:	10e0004e 	beqz	a3,80008fc8 <_realloc_r+0x1e8>
80008e90:	2407fffc 	li	a3,-4
80008e94:	00003021 	move	a2,zero
80008e98:	00001821 	move	v1,zero
80008e9c:	30420001 	andi	v0,v0,0x1
80008ea0:	14400065 	bnez	v0,80009038 <_realloc_r+0x258>
80008ea4:	2402fffc 	li	v0,-4
80008ea8:	8e17fff8 	lw	s7,-8(s0)
80008eac:	00000000 	nop
80008eb0:	02d7b823 	subu	s7,s6,s7
80008eb4:	8ee70004 	lw	a3,4(s7)
80008eb8:	00000000 	nop
80008ebc:	00e23824 	and	a3,a3,v0
80008ec0:	1060005a 	beqz	v1,8000902c <_realloc_r+0x24c>
80008ec4:	00f33821 	addu	a3,a3,s3
80008ec8:	106500dc 	beq	v1,a1,8000923c <_realloc_r+0x45c>
80008ecc:	00c7a021 	addu	s4,a2,a3
80008ed0:	0284102a 	slt	v0,s4,a0
80008ed4:	14400056 	bnez	v0,80009030 <_realloc_r+0x250>
80008ed8:	00e4202a 	slt	a0,a3,a0
80008edc:	8c62000c 	lw	v0,12(v1)
80008ee0:	8c630008 	lw	v1,8(v1)
80008ee4:	2666fffc 	addiu	a2,s3,-4
80008ee8:	ac62000c 	sw	v0,12(v1)
80008eec:	ac430008 	sw	v1,8(v0)
80008ef0:	8ee30008 	lw	v1,8(s7)
80008ef4:	8ee2000c 	lw	v0,12(s7)
80008ef8:	2cc40025 	sltiu	a0,a2,37
80008efc:	ac62000c 	sw	v0,12(v1)
80008f00:	ac430008 	sw	v1,8(v0)
80008f04:	1080010b 	beqz	a0,80009334 <_realloc_r+0x554>
80008f08:	26f20008 	addiu	s2,s7,8
80008f0c:	2cc20014 	sltiu	v0,a2,20
80008f10:	144000aa 	bnez	v0,800091bc <_realloc_r+0x3dc>
80008f14:	02401021 	move	v0,s2
80008f18:	8e030000 	lw	v1,0(s0)
80008f1c:	2cc2001c 	sltiu	v0,a2,28
80008f20:	aee30008 	sw	v1,8(s7)
80008f24:	8e030004 	lw	v1,4(s0)
80008f28:	10400115 	beqz	v0,80009380 <_realloc_r+0x5a0>
80008f2c:	aee3000c 	sw	v1,12(s7)
80008f30:	26e20010 	addiu	v0,s7,16
80008f34:	08002470 	j	800091c0 <_realloc_r+0x3e0>
80008f38:	26030008 	addiu	v1,s0,8
80008f3c:	2411fff8 	li	s1,-8
80008f40:	00718824 	and	s1,v1,s1
80008f44:	0621ffbf 	bgez	s1,80008e44 <_realloc_r+0x64>
80008f48:	02202021 	move	a0,s1
80008f4c:	2402000c 	li	v0,12
80008f50:	aea20000 	sw	v0,0(s5)
80008f54:	080023e5 	j	80008f94 <_realloc_r+0x1b4>
80008f58:	00009021 	move	s2,zero
80008f5c:	02911823 	subu	v1,s4,s1
80008f60:	2c640010 	sltiu	a0,v1,16
80008f64:	10800023 	beqz	a0,80008ff4 <_realloc_r+0x214>
80008f68:	30420001 	andi	v0,v0,0x1
80008f6c:	00541025 	or	v0,v0,s4
80008f70:	aec20004 	sw	v0,4(s6)
80008f74:	02d4b021 	addu	s6,s6,s4
80008f78:	8ec20004 	lw	v0,4(s6)
80008f7c:	00000000 	nop
80008f80:	34420001 	ori	v0,v0,0x1
80008f84:	aec20004 	sw	v0,4(s6)
80008f88:	0c00164d 	jal	80005934 <__malloc_unlock>
80008f8c:	02a02021 	move	a0,s5
80008f90:	02009021 	move	s2,s0
80008f94:	8fbf003c 	lw	ra,60(sp)
80008f98:	02401021 	move	v0,s2
80008f9c:	8fbe0038 	lw	s8,56(sp)
80008fa0:	8fb70034 	lw	s7,52(sp)
80008fa4:	8fb60030 	lw	s6,48(sp)
80008fa8:	8fb5002c 	lw	s5,44(sp)
80008fac:	8fb40028 	lw	s4,40(sp)
80008fb0:	8fb30024 	lw	s3,36(sp)
80008fb4:	8fb20020 	lw	s2,32(sp)
80008fb8:	8fb1001c 	lw	s1,28(sp)
80008fbc:	8fb00018 	lw	s0,24(sp)
80008fc0:	03e00008 	jr	ra
80008fc4:	27bd0040 	addiu	sp,sp,64
80008fc8:	00c73024 	and	a2,a2,a3
80008fcc:	00d3a021 	addu	s4,a2,s3
80008fd0:	0284382a 	slt	a3,s4,a0
80008fd4:	14e0ffb1 	bnez	a3,80008e9c <_realloc_r+0xbc>
80008fd8:	00000000 	nop
80008fdc:	8c64000c 	lw	a0,12(v1)
80008fe0:	8c630008 	lw	v1,8(v1)
80008fe4:	00000000 	nop
80008fe8:	ac64000c 	sw	a0,12(v1)
80008fec:	080023d7 	j	80008f5c <_realloc_r+0x17c>
80008ff0:	ac830008 	sw	v1,8(a0)
80008ff4:	02d12821 	addu	a1,s6,s1
80008ff8:	34640001 	ori	a0,v1,0x1
80008ffc:	00518825 	or	s1,v0,s1
80009000:	aed10004 	sw	s1,4(s6)
80009004:	00a31821 	addu	v1,a1,v1
80009008:	aca40004 	sw	a0,4(a1)
8000900c:	8c620004 	lw	v0,4(v1)
80009010:	02a02021 	move	a0,s5
80009014:	34420001 	ori	v0,v0,0x1
80009018:	ac620004 	sw	v0,4(v1)
8000901c:	0c0011bd 	jal	800046f4 <_free_r>
80009020:	24a50008 	addiu	a1,a1,8
80009024:	080023e2 	j	80008f88 <_realloc_r+0x1a8>
80009028:	00000000 	nop
8000902c:	00e4202a 	slt	a0,a3,a0
80009030:	1080003b 	beqz	a0,80009120 <_realloc_r+0x340>
80009034:	2666fffc 	addiu	a2,s3,-4
80009038:	02402821 	move	a1,s2
8000903c:	0c001388 	jal	80004e20 <_malloc_r>
80009040:	02a02021 	move	a0,s5
80009044:	1040001b 	beqz	v0,800090b4 <_realloc_r+0x2d4>
80009048:	00409021 	move	s2,v0
8000904c:	8e02fffc 	lw	v0,-4(s0)
80009050:	2403fffe 	li	v1,-2
80009054:	00431824 	and	v1,v0,v1
80009058:	2644fff8 	addiu	a0,s2,-8
8000905c:	02c31821 	addu	v1,s6,v1
80009060:	108300af 	beq	a0,v1,80009320 <_realloc_r+0x540>
80009064:	2666fffc 	addiu	a2,s3,-4
80009068:	2cc20025 	sltiu	v0,a2,37
8000906c:	1040006e 	beqz	v0,80009228 <_realloc_r+0x448>
80009070:	2cc20014 	sltiu	v0,a2,20
80009074:	10400048 	beqz	v0,80009198 <_realloc_r+0x3b8>
80009078:	2cc2001c 	sltiu	v0,a2,28
8000907c:	02401021 	move	v0,s2
80009080:	02001821 	move	v1,s0
80009084:	8c640000 	lw	a0,0(v1)
80009088:	00000000 	nop
8000908c:	ac440000 	sw	a0,0(v0)
80009090:	8c640004 	lw	a0,4(v1)
80009094:	00000000 	nop
80009098:	ac440004 	sw	a0,4(v0)
8000909c:	8c630008 	lw	v1,8(v1)
800090a0:	00000000 	nop
800090a4:	ac430008 	sw	v1,8(v0)
800090a8:	02a02021 	move	a0,s5
800090ac:	0c0011bd 	jal	800046f4 <_free_r>
800090b0:	02002821 	move	a1,s0
800090b4:	0c00164d 	jal	80005934 <__malloc_unlock>
800090b8:	02a02021 	move	a0,s5
800090bc:	080023e5 	j	80008f94 <_realloc_r+0x1b4>
800090c0:	00000000 	nop
800090c4:	8fbf003c 	lw	ra,60(sp)
800090c8:	8fbe0038 	lw	s8,56(sp)
800090cc:	8fb70034 	lw	s7,52(sp)
800090d0:	8fb60030 	lw	s6,48(sp)
800090d4:	8fb5002c 	lw	s5,44(sp)
800090d8:	8fb40028 	lw	s4,40(sp)
800090dc:	8fb30024 	lw	s3,36(sp)
800090e0:	8fb20020 	lw	s2,32(sp)
800090e4:	8fb1001c 	lw	s1,28(sp)
800090e8:	8fb00018 	lw	s0,24(sp)
800090ec:	00c02821 	move	a1,a2
800090f0:	08001388 	j	80004e20 <_malloc_r>
800090f4:	27bd0040 	addiu	sp,sp,64
800090f8:	8ca60004 	lw	a2,4(a1)
800090fc:	2403fffc 	li	v1,-4
80009100:	00c33024 	and	a2,a2,v1
80009104:	00d31821 	addu	v1,a2,s3
80009108:	26270010 	addiu	a3,s1,16
8000910c:	0067382a 	slt	a3,v1,a3
80009110:	10e00037 	beqz	a3,800091f0 <_realloc_r+0x410>
80009114:	00000000 	nop
80009118:	080023a7 	j	80008e9c <_realloc_r+0xbc>
8000911c:	00a01821 	move	v1,a1
80009120:	8ee2000c 	lw	v0,12(s7)
80009124:	8ee30008 	lw	v1,8(s7)
80009128:	2cc40025 	sltiu	a0,a2,37
8000912c:	ac62000c 	sw	v0,12(v1)
80009130:	ac430008 	sw	v1,8(v0)
80009134:	10800088 	beqz	a0,80009358 <_realloc_r+0x578>
80009138:	26f20008 	addiu	s2,s7,8
8000913c:	2cc20014 	sltiu	v0,a2,20
80009140:	14400083 	bnez	v0,80009350 <_realloc_r+0x570>
80009144:	02401021 	move	v0,s2
80009148:	8e030000 	lw	v1,0(s0)
8000914c:	2cc2001c 	sltiu	v0,a2,28
80009150:	aee30008 	sw	v1,8(s7)
80009154:	8e030004 	lw	v1,4(s0)
80009158:	1040009c 	beqz	v0,800093cc <_realloc_r+0x5ec>
8000915c:	aee3000c 	sw	v1,12(s7)
80009160:	26e20010 	addiu	v0,s7,16
80009164:	26030008 	addiu	v1,s0,8
80009168:	8c640000 	lw	a0,0(v1)
8000916c:	02408021 	move	s0,s2
80009170:	ac440000 	sw	a0,0(v0)
80009174:	8c640004 	lw	a0,4(v1)
80009178:	00e0a021 	move	s4,a3
8000917c:	ac440004 	sw	a0,4(v0)
80009180:	8c630008 	lw	v1,8(v1)
80009184:	00000000 	nop
80009188:	ac430008 	sw	v1,8(v0)
8000918c:	8ee20004 	lw	v0,4(s7)
80009190:	080023d7 	j	80008f5c <_realloc_r+0x17c>
80009194:	02e0b021 	move	s6,s7
80009198:	8e030000 	lw	v1,0(s0)
8000919c:	00000000 	nop
800091a0:	ae430000 	sw	v1,0(s2)
800091a4:	8e030004 	lw	v1,4(s0)
800091a8:	10400051 	beqz	v0,800092f0 <_realloc_r+0x510>
800091ac:	ae430004 	sw	v1,4(s2)
800091b0:	26420008 	addiu	v0,s2,8
800091b4:	08002421 	j	80009084 <_realloc_r+0x2a4>
800091b8:	26030008 	addiu	v1,s0,8
800091bc:	02001821 	move	v1,s0
800091c0:	8c640000 	lw	a0,0(v1)
800091c4:	02408021 	move	s0,s2
800091c8:	ac440000 	sw	a0,0(v0)
800091cc:	8c640004 	lw	a0,4(v1)
800091d0:	00000000 	nop
800091d4:	ac440004 	sw	a0,4(v0)
800091d8:	8c630008 	lw	v1,8(v1)
800091dc:	00000000 	nop
800091e0:	ac430008 	sw	v1,8(v0)
800091e4:	8ee20004 	lw	v0,4(s7)
800091e8:	080023d7 	j	80008f5c <_realloc_r+0x17c>
800091ec:	02e0b021 	move	s6,s7
800091f0:	00711023 	subu	v0,v1,s1
800091f4:	02d1b021 	addu	s6,s6,s1
800091f8:	34420001 	ori	v0,v0,0x1
800091fc:	aec20004 	sw	v0,4(s6)
80009200:	8e02fffc 	lw	v0,-4(s0)
80009204:	02a02021 	move	a0,s5
80009208:	30420001 	andi	v0,v0,0x1
8000920c:	02228825 	or	s1,s1,v0
80009210:	ae11fffc 	sw	s1,-4(s0)
80009214:	afd60008 	sw	s6,8(s8)
80009218:	0c00164d 	jal	80005934 <__malloc_unlock>
8000921c:	02009021 	move	s2,s0
80009220:	080023e5 	j	80008f94 <_realloc_r+0x1b4>
80009224:	00000000 	nop
80009228:	02402021 	move	a0,s2
8000922c:	0c002306 	jal	80008c18 <memmove>
80009230:	02002821 	move	a1,s0
80009234:	0800242b 	j	800090ac <_realloc_r+0x2cc>
80009238:	02a02021 	move	a0,s5
8000923c:	26220010 	addiu	v0,s1,16
80009240:	0282102a 	slt	v0,s4,v0
80009244:	1440ff7a 	bnez	v0,80009030 <_realloc_r+0x250>
80009248:	00e4202a 	slt	a0,a3,a0
8000924c:	8ee2000c 	lw	v0,12(s7)
80009250:	8ee30008 	lw	v1,8(s7)
80009254:	2666fffc 	addiu	a2,s3,-4
80009258:	2cc40025 	sltiu	a0,a2,37
8000925c:	ac62000c 	sw	v0,12(v1)
80009260:	ac430008 	sw	v1,8(v0)
80009264:	10800073 	beqz	a0,80009434 <_realloc_r+0x654>
80009268:	26f20008 	addiu	s2,s7,8
8000926c:	2cc20014 	sltiu	v0,a2,20
80009270:	14400009 	bnez	v0,80009298 <_realloc_r+0x4b8>
80009274:	02401021 	move	v0,s2
80009278:	8e030000 	lw	v1,0(s0)
8000927c:	2cc2001c 	sltiu	v0,a2,28
80009280:	aee30008 	sw	v1,8(s7)
80009284:	8e030004 	lw	v1,4(s0)
80009288:	1040006f 	beqz	v0,80009448 <_realloc_r+0x668>
8000928c:	aee3000c 	sw	v1,12(s7)
80009290:	26e20010 	addiu	v0,s7,16
80009294:	26100008 	addiu	s0,s0,8
80009298:	8e030000 	lw	v1,0(s0)
8000929c:	00000000 	nop
800092a0:	ac430000 	sw	v1,0(v0)
800092a4:	8e030004 	lw	v1,4(s0)
800092a8:	00000000 	nop
800092ac:	ac430004 	sw	v1,4(v0)
800092b0:	8e030008 	lw	v1,8(s0)
800092b4:	00000000 	nop
800092b8:	ac430008 	sw	v1,8(v0)
800092bc:	02911823 	subu	v1,s4,s1
800092c0:	02f11021 	addu	v0,s7,s1
800092c4:	34630001 	ori	v1,v1,0x1
800092c8:	ac430004 	sw	v1,4(v0)
800092cc:	8ee30004 	lw	v1,4(s7)
800092d0:	02a02021 	move	a0,s5
800092d4:	30630001 	andi	v1,v1,0x1
800092d8:	02238825 	or	s1,s1,v1
800092dc:	aef10004 	sw	s1,4(s7)
800092e0:	0c00164d 	jal	80005934 <__malloc_unlock>
800092e4:	afc20008 	sw	v0,8(s8)
800092e8:	080023e5 	j	80008f94 <_realloc_r+0x1b4>
800092ec:	00000000 	nop
800092f0:	8e020008 	lw	v0,8(s0)
800092f4:	00000000 	nop
800092f8:	ae420008 	sw	v0,8(s2)
800092fc:	8e02000c 	lw	v0,12(s0)
80009300:	00000000 	nop
80009304:	ae42000c 	sw	v0,12(s2)
80009308:	24020024 	li	v0,36
8000930c:	10c20028 	beq	a2,v0,800093b0 <_realloc_r+0x5d0>
80009310:	00000000 	nop
80009314:	26420010 	addiu	v0,s2,16
80009318:	08002421 	j	80009084 <_realloc_r+0x2a4>
8000931c:	26030010 	addiu	v1,s0,16
80009320:	8e54fffc 	lw	s4,-4(s2)
80009324:	2403fffc 	li	v1,-4
80009328:	0283a024 	and	s4,s4,v1
8000932c:	080023d7 	j	80008f5c <_realloc_r+0x17c>
80009330:	0293a021 	addu	s4,s4,s3
80009334:	02002821 	move	a1,s0
80009338:	0c002306 	jal	80008c18 <memmove>
8000933c:	02402021 	move	a0,s2
80009340:	02408021 	move	s0,s2
80009344:	8ee20004 	lw	v0,4(s7)
80009348:	080023d7 	j	80008f5c <_realloc_r+0x17c>
8000934c:	02e0b021 	move	s6,s7
80009350:	0800245a 	j	80009168 <_realloc_r+0x388>
80009354:	02001821 	move	v1,s0
80009358:	02002821 	move	a1,s0
8000935c:	02402021 	move	a0,s2
80009360:	0c002306 	jal	80008c18 <memmove>
80009364:	afa70010 	sw	a3,16(sp)
80009368:	8fa70010 	lw	a3,16(sp)
8000936c:	02408021 	move	s0,s2
80009370:	8ee20004 	lw	v0,4(s7)
80009374:	00e0a021 	move	s4,a3
80009378:	080023d7 	j	80008f5c <_realloc_r+0x17c>
8000937c:	02e0b021 	move	s6,s7
80009380:	8e020008 	lw	v0,8(s0)
80009384:	00000000 	nop
80009388:	aee20010 	sw	v0,16(s7)
8000938c:	8e02000c 	lw	v0,12(s0)
80009390:	00000000 	nop
80009394:	aee20014 	sw	v0,20(s7)
80009398:	24020024 	li	v0,36
8000939c:	10c20017 	beq	a2,v0,800093fc <_realloc_r+0x61c>
800093a0:	00000000 	nop
800093a4:	26e20018 	addiu	v0,s7,24
800093a8:	08002470 	j	800091c0 <_realloc_r+0x3e0>
800093ac:	26030010 	addiu	v1,s0,16
800093b0:	8e030010 	lw	v1,16(s0)
800093b4:	26420018 	addiu	v0,s2,24
800093b8:	ae430010 	sw	v1,16(s2)
800093bc:	8e040014 	lw	a0,20(s0)
800093c0:	26030018 	addiu	v1,s0,24
800093c4:	08002421 	j	80009084 <_realloc_r+0x2a4>
800093c8:	ae440014 	sw	a0,20(s2)
800093cc:	8e020008 	lw	v0,8(s0)
800093d0:	00000000 	nop
800093d4:	aee20010 	sw	v0,16(s7)
800093d8:	8e02000c 	lw	v0,12(s0)
800093dc:	00000000 	nop
800093e0:	aee20014 	sw	v0,20(s7)
800093e4:	24020024 	li	v0,36
800093e8:	10c2000b 	beq	a2,v0,80009418 <_realloc_r+0x638>
800093ec:	00000000 	nop
800093f0:	26e20018 	addiu	v0,s7,24
800093f4:	0800245a 	j	80009168 <_realloc_r+0x388>
800093f8:	26030010 	addiu	v1,s0,16
800093fc:	8e030010 	lw	v1,16(s0)
80009400:	26e20020 	addiu	v0,s7,32
80009404:	aee30018 	sw	v1,24(s7)
80009408:	8e040014 	lw	a0,20(s0)
8000940c:	26030018 	addiu	v1,s0,24
80009410:	08002470 	j	800091c0 <_realloc_r+0x3e0>
80009414:	aee4001c 	sw	a0,28(s7)
80009418:	8e030010 	lw	v1,16(s0)
8000941c:	26e20020 	addiu	v0,s7,32
80009420:	aee30018 	sw	v1,24(s7)
80009424:	8e040014 	lw	a0,20(s0)
80009428:	26030018 	addiu	v1,s0,24
8000942c:	0800245a 	j	80009168 <_realloc_r+0x388>
80009430:	aee4001c 	sw	a0,28(s7)
80009434:	02402021 	move	a0,s2
80009438:	0c002306 	jal	80008c18 <memmove>
8000943c:	02002821 	move	a1,s0
80009440:	080024b0 	j	800092c0 <_realloc_r+0x4e0>
80009444:	02911823 	subu	v1,s4,s1
80009448:	8e020008 	lw	v0,8(s0)
8000944c:	00000000 	nop
80009450:	aee20010 	sw	v0,16(s7)
80009454:	8e02000c 	lw	v0,12(s0)
80009458:	00000000 	nop
8000945c:	aee20014 	sw	v0,20(s7)
80009460:	24020024 	li	v0,36
80009464:	10c20004 	beq	a2,v0,80009478 <_realloc_r+0x698>
80009468:	00000000 	nop
8000946c:	26e20018 	addiu	v0,s7,24
80009470:	080024a6 	j	80009298 <_realloc_r+0x4b8>
80009474:	26100010 	addiu	s0,s0,16
80009478:	8e030010 	lw	v1,16(s0)
8000947c:	26e20020 	addiu	v0,s7,32
80009480:	aee30018 	sw	v1,24(s7)
80009484:	8e030014 	lw	v1,20(s0)
80009488:	26100018 	addiu	s0,s0,24
8000948c:	080024a6 	j	80009298 <_realloc_r+0x4b8>
80009490:	aee3001c 	sw	v1,28(s7)

80009494 <cleanup_glue>:
80009494:	27bdffe0 	addiu	sp,sp,-32
80009498:	afb00014 	sw	s0,20(sp)
8000949c:	00a08021 	move	s0,a1
800094a0:	8ca50000 	lw	a1,0(a1)
800094a4:	afb10018 	sw	s1,24(sp)
800094a8:	afbf001c 	sw	ra,28(sp)
800094ac:	10a00003 	beqz	a1,800094bc <cleanup_glue+0x28>
800094b0:	00808821 	move	s1,a0
800094b4:	0c002525 	jal	80009494 <cleanup_glue>
800094b8:	00000000 	nop
800094bc:	8fbf001c 	lw	ra,28(sp)
800094c0:	02202021 	move	a0,s1
800094c4:	02002821 	move	a1,s0
800094c8:	8fb10018 	lw	s1,24(sp)
800094cc:	8fb00014 	lw	s0,20(sp)
800094d0:	080011bd 	j	800046f4 <_free_r>
800094d4:	27bd0020 	addiu	sp,sp,32

800094d8 <_reclaim_reent>:
800094d8:	8f8208b4 	lw	v0,2228(gp)
800094dc:	27bdffd8 	addiu	sp,sp,-40
800094e0:	afb10018 	sw	s1,24(sp)
800094e4:	afbf0024 	sw	ra,36(sp)
800094e8:	afb30020 	sw	s3,32(sp)
800094ec:	afb2001c 	sw	s2,28(sp)
800094f0:	afb00014 	sw	s0,20(sp)
800094f4:	10820035 	beq	a0,v0,800095cc <_reclaim_reent+0xf4>
800094f8:	00808821 	move	s1,a0
800094fc:	8c83004c 	lw	v1,76(a0)
80009500:	00000000 	nop
80009504:	10600015 	beqz	v1,8000955c <_reclaim_reent+0x84>
80009508:	00001021 	move	v0,zero
8000950c:	00009021 	move	s2,zero
80009510:	24130020 	li	s3,32
80009514:	00021080 	sll	v0,v0,0x2
80009518:	00621021 	addu	v0,v1,v0
8000951c:	8c450000 	lw	a1,0(v0)
80009520:	00000000 	nop
80009524:	10a00007 	beqz	a1,80009544 <_reclaim_reent+0x6c>
80009528:	00000000 	nop
8000952c:	8cb00000 	lw	s0,0(a1)
80009530:	0c0011bd 	jal	800046f4 <_free_r>
80009534:	02202021 	move	a0,s1
80009538:	1600fffc 	bnez	s0,8000952c <_reclaim_reent+0x54>
8000953c:	02002821 	move	a1,s0
80009540:	8e23004c 	lw	v1,76(s1)
80009544:	26520001 	addiu	s2,s2,1
80009548:	1653fff2 	bne	s2,s3,80009514 <_reclaim_reent+0x3c>
8000954c:	02401021 	move	v0,s2
80009550:	02202021 	move	a0,s1
80009554:	0c0011bd 	jal	800046f4 <_free_r>
80009558:	00602821 	move	a1,v1
8000955c:	8e250040 	lw	a1,64(s1)
80009560:	00000000 	nop
80009564:	10a00003 	beqz	a1,80009574 <_reclaim_reent+0x9c>
80009568:	00000000 	nop
8000956c:	0c0011bd 	jal	800046f4 <_free_r>
80009570:	02202021 	move	a0,s1
80009574:	8e250148 	lw	a1,328(s1)
80009578:	00000000 	nop
8000957c:	10a00009 	beqz	a1,800095a4 <_reclaim_reent+0xcc>
80009580:	00000000 	nop
80009584:	2632014c 	addiu	s2,s1,332
80009588:	10b20006 	beq	a1,s2,800095a4 <_reclaim_reent+0xcc>
8000958c:	00000000 	nop
80009590:	8cb00000 	lw	s0,0(a1)
80009594:	0c0011bd 	jal	800046f4 <_free_r>
80009598:	02202021 	move	a0,s1
8000959c:	1650fffc 	bne	s2,s0,80009590 <_reclaim_reent+0xb8>
800095a0:	02002821 	move	a1,s0
800095a4:	8e250054 	lw	a1,84(s1)
800095a8:	00000000 	nop
800095ac:	10a00003 	beqz	a1,800095bc <_reclaim_reent+0xe4>
800095b0:	00000000 	nop
800095b4:	0c0011bd 	jal	800046f4 <_free_r>
800095b8:	02202021 	move	a0,s1
800095bc:	8e220038 	lw	v0,56(s1)
800095c0:	00000000 	nop
800095c4:	14400008 	bnez	v0,800095e8 <_reclaim_reent+0x110>
800095c8:	00000000 	nop
800095cc:	8fbf0024 	lw	ra,36(sp)
800095d0:	8fb30020 	lw	s3,32(sp)
800095d4:	8fb2001c 	lw	s2,28(sp)
800095d8:	8fb10018 	lw	s1,24(sp)
800095dc:	8fb00014 	lw	s0,20(sp)
800095e0:	03e00008 	jr	ra
800095e4:	27bd0028 	addiu	sp,sp,40
800095e8:	8e22003c 	lw	v0,60(s1)
800095ec:	00000000 	nop
800095f0:	0040f809 	jalr	v0
800095f4:	02202021 	move	a0,s1
800095f8:	8e2502e0 	lw	a1,736(s1)
800095fc:	00000000 	nop
80009600:	10a0fff2 	beqz	a1,800095cc <_reclaim_reent+0xf4>
80009604:	00000000 	nop
80009608:	8fbf0024 	lw	ra,36(sp)
8000960c:	8fb30020 	lw	s3,32(sp)
80009610:	8fb2001c 	lw	s2,28(sp)
80009614:	8fb00014 	lw	s0,20(sp)
80009618:	02202021 	move	a0,s1
8000961c:	8fb10018 	lw	s1,24(sp)
80009620:	08002525 	j	80009494 <cleanup_glue>
80009624:	27bd0028 	addiu	sp,sp,40

80009628 <_wrapup_reent>:
80009628:	27bdffd8 	addiu	sp,sp,-40
8000962c:	afb40020 	sw	s4,32(sp)
80009630:	afbf0024 	sw	ra,36(sp)
80009634:	afb3001c 	sw	s3,28(sp)
80009638:	afb20018 	sw	s2,24(sp)
8000963c:	afb10014 	sw	s1,20(sp)
80009640:	afb00010 	sw	s0,16(sp)
80009644:	1080002b 	beqz	a0,800096f4 <_wrapup_reent+0xcc>
80009648:	0080a021 	move	s4,a0
8000964c:	8e930148 	lw	s3,328(s4)
80009650:	00000000 	nop
80009654:	12600013 	beqz	s3,800096a4 <_wrapup_reent+0x7c>
80009658:	2412ffff 	li	s2,-1
8000965c:	8e620004 	lw	v0,4(s3)
80009660:	00000000 	nop
80009664:	2450ffff 	addiu	s0,v0,-1
80009668:	0600000a 	bltz	s0,80009694 <_wrapup_reent+0x6c>
8000966c:	00000000 	nop
80009670:	24510001 	addiu	s1,v0,1
80009674:	00118880 	sll	s1,s1,0x2
80009678:	02718821 	addu	s1,s3,s1
8000967c:	8e220000 	lw	v0,0(s1)
80009680:	00000000 	nop
80009684:	0040f809 	jalr	v0
80009688:	2610ffff 	addiu	s0,s0,-1
8000968c:	1612fffb 	bne	s0,s2,8000967c <_wrapup_reent+0x54>
80009690:	2631fffc 	addiu	s1,s1,-4
80009694:	8e730000 	lw	s3,0(s3)
80009698:	00000000 	nop
8000969c:	1660ffef 	bnez	s3,8000965c <_wrapup_reent+0x34>
800096a0:	00000000 	nop
800096a4:	8e99003c 	lw	t9,60(s4)
800096a8:	00000000 	nop
800096ac:	13200009 	beqz	t9,800096d4 <_wrapup_reent+0xac>
800096b0:	02802021 	move	a0,s4
800096b4:	8fbf0024 	lw	ra,36(sp)
800096b8:	8fb3001c 	lw	s3,28(sp)
800096bc:	8fb20018 	lw	s2,24(sp)
800096c0:	8fb10014 	lw	s1,20(sp)
800096c4:	8fb00010 	lw	s0,16(sp)
800096c8:	8fb40020 	lw	s4,32(sp)
800096cc:	03200008 	jr	t9
800096d0:	27bd0028 	addiu	sp,sp,40
800096d4:	8fbf0024 	lw	ra,36(sp)
800096d8:	8fb40020 	lw	s4,32(sp)
800096dc:	8fb3001c 	lw	s3,28(sp)
800096e0:	8fb20018 	lw	s2,24(sp)
800096e4:	8fb10014 	lw	s1,20(sp)
800096e8:	8fb00010 	lw	s0,16(sp)
800096ec:	03e00008 	jr	ra
800096f0:	27bd0028 	addiu	sp,sp,40
800096f4:	8f9408b4 	lw	s4,2228(gp)
800096f8:	08002593 	j	8000964c <_wrapup_reent+0x24>
800096fc:	00000000 	nop

80009700 <__swbuf_r>:
80009700:	27bdffe0 	addiu	sp,sp,-32
80009704:	afb20018 	sw	s2,24(sp)
80009708:	afb10014 	sw	s1,20(sp)
8000970c:	afb00010 	sw	s0,16(sp)
80009710:	afbf001c 	sw	ra,28(sp)
80009714:	00808821 	move	s1,a0
80009718:	00a09021 	move	s2,a1
8000971c:	10800005 	beqz	a0,80009734 <__swbuf_r+0x34>
80009720:	00c08021 	move	s0,a2
80009724:	8c820038 	lw	v0,56(a0)
80009728:	00000000 	nop
8000972c:	10400057 	beqz	v0,8000988c <__swbuf_r+0x18c>
80009730:	00000000 	nop
80009734:	8603000c 	lh	v1,12(s0)
80009738:	8e040018 	lw	a0,24(s0)
8000973c:	30620008 	andi	v0,v1,0x8
80009740:	00021400 	sll	v0,v0,0x10
80009744:	00021403 	sra	v0,v0,0x10
80009748:	10400047 	beqz	v0,80009868 <__swbuf_r+0x168>
8000974c:	ae040008 	sw	a0,8(s0)
80009750:	8e020010 	lw	v0,16(s0)
80009754:	00000000 	nop
80009758:	10400043 	beqz	v0,80009868 <__swbuf_r+0x168>
8000975c:	30642000 	andi	a0,v1,0x2000
80009760:	00042400 	sll	a0,a0,0x10
80009764:	00042403 	sra	a0,a0,0x10
80009768:	1080001e 	beqz	a0,800097e4 <__swbuf_r+0xe4>
8000976c:	325200ff 	andi	s2,s2,0xff
80009770:	8e030000 	lw	v1,0(s0)
80009774:	8e040014 	lw	a0,20(s0)
80009778:	00621023 	subu	v0,v1,v0
8000977c:	0044202a 	slt	a0,v0,a0
80009780:	10800024 	beqz	a0,80009814 <__swbuf_r+0x114>
80009784:	02202021 	move	a0,s1
80009788:	8e050008 	lw	a1,8(s0)
8000978c:	24640001 	addiu	a0,v1,1
80009790:	24a5ffff 	addiu	a1,a1,-1
80009794:	ae050008 	sw	a1,8(s0)
80009798:	a0720000 	sb	s2,0(v1)
8000979c:	8e030014 	lw	v1,20(s0)
800097a0:	24420001 	addiu	v0,v0,1
800097a4:	10620029 	beq	v1,v0,8000984c <__swbuf_r+0x14c>
800097a8:	ae040000 	sw	a0,0(s0)
800097ac:	9602000c 	lhu	v0,12(s0)
800097b0:	00000000 	nop
800097b4:	30420001 	andi	v0,v0,0x1
800097b8:	10400003 	beqz	v0,800097c8 <__swbuf_r+0xc8>
800097bc:	2402000a 	li	v0,10
800097c0:	12420022 	beq	s2,v0,8000984c <__swbuf_r+0x14c>
800097c4:	00000000 	nop
800097c8:	8fbf001c 	lw	ra,28(sp)
800097cc:	02401021 	move	v0,s2
800097d0:	8fb10014 	lw	s1,20(sp)
800097d4:	8fb20018 	lw	s2,24(sp)
800097d8:	8fb00010 	lw	s0,16(sp)
800097dc:	03e00008 	jr	ra
800097e0:	27bd0020 	addiu	sp,sp,32
800097e4:	8e050064 	lw	a1,100(s0)
800097e8:	34632000 	ori	v1,v1,0x2000
800097ec:	2404dfff 	li	a0,-8193
800097f0:	00a42024 	and	a0,a1,a0
800097f4:	a603000c 	sh	v1,12(s0)
800097f8:	8e030000 	lw	v1,0(s0)
800097fc:	ae040064 	sw	a0,100(s0)
80009800:	8e040014 	lw	a0,20(s0)
80009804:	00621023 	subu	v0,v1,v0
80009808:	0044202a 	slt	a0,v0,a0
8000980c:	1480ffde 	bnez	a0,80009788 <__swbuf_r+0x88>
80009810:	02202021 	move	a0,s1
80009814:	0c001087 	jal	8000421c <_fflush_r>
80009818:	02002821 	move	a1,s0
8000981c:	14400010 	bnez	v0,80009860 <__swbuf_r+0x160>
80009820:	24020001 	li	v0,1
80009824:	8e050008 	lw	a1,8(s0)
80009828:	8e030000 	lw	v1,0(s0)
8000982c:	24a5ffff 	addiu	a1,a1,-1
80009830:	ae050008 	sw	a1,8(s0)
80009834:	a0720000 	sb	s2,0(v1)
80009838:	24640001 	addiu	a0,v1,1
8000983c:	8e030014 	lw	v1,20(s0)
80009840:	00000000 	nop
80009844:	1462ffd9 	bne	v1,v0,800097ac <__swbuf_r+0xac>
80009848:	ae040000 	sw	a0,0(s0)
8000984c:	02202021 	move	a0,s1
80009850:	0c001087 	jal	8000421c <_fflush_r>
80009854:	02002821 	move	a1,s0
80009858:	1040ffdb 	beqz	v0,800097c8 <__swbuf_r+0xc8>
8000985c:	00000000 	nop
80009860:	080025f2 	j	800097c8 <__swbuf_r+0xc8>
80009864:	2412ffff 	li	s2,-1
80009868:	02202021 	move	a0,s1
8000986c:	0c000918 	jal	80002460 <__swsetup_r>
80009870:	02002821 	move	a1,s0
80009874:	1440fffa 	bnez	v0,80009860 <__swbuf_r+0x160>
80009878:	00000000 	nop
8000987c:	8603000c 	lh	v1,12(s0)
80009880:	8e020010 	lw	v0,16(s0)
80009884:	080025d8 	j	80009760 <__swbuf_r+0x60>
80009888:	30642000 	andi	a0,v1,0x2000
8000988c:	0c0010f4 	jal	800043d0 <__sinit>
80009890:	00000000 	nop
80009894:	080025cd 	j	80009734 <__swbuf_r+0x34>
80009898:	00000000 	nop

8000989c <__swbuf>:
8000989c:	00801021 	move	v0,a0
800098a0:	8f8408b4 	lw	a0,2228(gp)
800098a4:	00a03021 	move	a2,a1
800098a8:	080025c0 	j	80009700 <__swbuf_r>
800098ac:	00402821 	move	a1,v0

800098b0 <_wcrtomb_r>:
800098b0:	27bdffc0 	addiu	sp,sp,-64
800098b4:	afb20038 	sw	s2,56(sp)
800098b8:	afb10034 	sw	s1,52(sp)
800098bc:	afb00030 	sw	s0,48(sp)
800098c0:	afbf003c 	sw	ra,60(sp)
800098c4:	00808021 	move	s0,a0
800098c8:	8f920928 	lw	s2,2344(gp)
800098cc:	10a00016 	beqz	a1,80009928 <_wcrtomb_r+0x78>
800098d0:	00e08821 	move	s1,a3
800098d4:	afa50028 	sw	a1,40(sp)
800098d8:	0c001300 	jal	80004c00 <__locale_charset>
800098dc:	afa6002c 	sw	a2,44(sp)
800098e0:	8fa50028 	lw	a1,40(sp)
800098e4:	8fa6002c 	lw	a2,44(sp)
800098e8:	00403821 	move	a3,v0
800098ec:	afb10010 	sw	s1,16(sp)
800098f0:	0240f809 	jalr	s2
800098f4:	02002021 	move	a0,s0
800098f8:	2403ffff 	li	v1,-1
800098fc:	14430004 	bne	v0,v1,80009910 <_wcrtomb_r+0x60>
80009900:	2403008a 	li	v1,138
80009904:	ae200000 	sw	zero,0(s1)
80009908:	2402ffff 	li	v0,-1
8000990c:	ae030000 	sw	v1,0(s0)
80009910:	8fbf003c 	lw	ra,60(sp)
80009914:	8fb20038 	lw	s2,56(sp)
80009918:	8fb10034 	lw	s1,52(sp)
8000991c:	8fb00030 	lw	s0,48(sp)
80009920:	03e00008 	jr	ra
80009924:	27bd0040 	addiu	sp,sp,64
80009928:	0c001300 	jal	80004c00 <__locale_charset>
8000992c:	00000000 	nop
80009930:	00403821 	move	a3,v0
80009934:	afb10010 	sw	s1,16(sp)
80009938:	02002021 	move	a0,s0
8000993c:	27a50018 	addiu	a1,sp,24
80009940:	0240f809 	jalr	s2
80009944:	00003021 	move	a2,zero
80009948:	0800263f 	j	800098fc <_wcrtomb_r+0x4c>
8000994c:	2403ffff 	li	v1,-1

80009950 <wcrtomb>:
80009950:	27bdffc0 	addiu	sp,sp,-64
80009954:	afb1002c 	sw	s1,44(sp)
80009958:	afb00028 	sw	s0,40(sp)
8000995c:	afbf003c 	sw	ra,60(sp)
80009960:	afb40038 	sw	s4,56(sp)
80009964:	afb30034 	sw	s3,52(sp)
80009968:	afb20030 	sw	s2,48(sp)
8000996c:	00808021 	move	s0,a0
80009970:	1080001a 	beqz	a0,800099dc <wcrtomb+0x8c>
80009974:	00c08821 	move	s1,a2
80009978:	8f9408b4 	lw	s4,2228(gp)
8000997c:	8f930928 	lw	s3,2344(gp)
80009980:	0c001300 	jal	80004c00 <__locale_charset>
80009984:	00a09021 	move	s2,a1
80009988:	00403821 	move	a3,v0
8000998c:	afb10010 	sw	s1,16(sp)
80009990:	02802021 	move	a0,s4
80009994:	02002821 	move	a1,s0
80009998:	0260f809 	jalr	s3
8000999c:	02403021 	move	a2,s2
800099a0:	2403ffff 	li	v1,-1
800099a4:	14430005 	bne	v0,v1,800099bc <wcrtomb+0x6c>
800099a8:	2404008a 	li	a0,138
800099ac:	8f8308b4 	lw	v1,2228(gp)
800099b0:	ae200000 	sw	zero,0(s1)
800099b4:	2402ffff 	li	v0,-1
800099b8:	ac640000 	sw	a0,0(v1)
800099bc:	8fbf003c 	lw	ra,60(sp)
800099c0:	8fb40038 	lw	s4,56(sp)
800099c4:	8fb30034 	lw	s3,52(sp)
800099c8:	8fb20030 	lw	s2,48(sp)
800099cc:	8fb1002c 	lw	s1,44(sp)
800099d0:	8fb00028 	lw	s0,40(sp)
800099d4:	03e00008 	jr	ra
800099d8:	27bd0040 	addiu	sp,sp,64
800099dc:	8f9208b4 	lw	s2,2228(gp)
800099e0:	8f900928 	lw	s0,2344(gp)
800099e4:	0c001300 	jal	80004c00 <__locale_charset>
800099e8:	00000000 	nop
800099ec:	00403821 	move	a3,v0
800099f0:	afb10010 	sw	s1,16(sp)
800099f4:	02402021 	move	a0,s2
800099f8:	27a50018 	addiu	a1,sp,24
800099fc:	0200f809 	jalr	s0
80009a00:	00003021 	move	a2,zero
80009a04:	08002669 	j	800099a4 <wcrtomb+0x54>
80009a08:	2403ffff 	li	v1,-1

80009a0c <__ascii_wctomb>:
80009a0c:	10a00007 	beqz	a1,80009a2c <__ascii_wctomb+0x20>
80009a10:	00000000 	nop
80009a14:	2cc20100 	sltiu	v0,a2,256
80009a18:	10400006 	beqz	v0,80009a34 <__ascii_wctomb+0x28>
80009a1c:	00000000 	nop
80009a20:	a0a60000 	sb	a2,0(a1)
80009a24:	03e00008 	jr	ra
80009a28:	24020001 	li	v0,1
80009a2c:	03e00008 	jr	ra
80009a30:	00001021 	move	v0,zero
80009a34:	2402008a 	li	v0,138
80009a38:	ac820000 	sw	v0,0(a0)
80009a3c:	03e00008 	jr	ra
80009a40:	2402ffff 	li	v0,-1

80009a44 <_wctomb_r>:
80009a44:	27bdffc8 	addiu	sp,sp,-56
80009a48:	afbf0034 	sw	ra,52(sp)
80009a4c:	afb10030 	sw	s1,48(sp)
80009a50:	afb0002c 	sw	s0,44(sp)
80009a54:	00e08821 	move	s1,a3
80009a58:	8f900928 	lw	s0,2344(gp)
80009a5c:	afa40018 	sw	a0,24(sp)
80009a60:	afa5001c 	sw	a1,28(sp)
80009a64:	0c001300 	jal	80004c00 <__locale_charset>
80009a68:	afa60020 	sw	a2,32(sp)
80009a6c:	8fa40018 	lw	a0,24(sp)
80009a70:	8fa5001c 	lw	a1,28(sp)
80009a74:	8fa60020 	lw	a2,32(sp)
80009a78:	afb10010 	sw	s1,16(sp)
80009a7c:	0200f809 	jalr	s0
80009a80:	00403821 	move	a3,v0
80009a84:	8fbf0034 	lw	ra,52(sp)
80009a88:	8fb10030 	lw	s1,48(sp)
80009a8c:	8fb0002c 	lw	s0,44(sp)
80009a90:	03e00008 	jr	ra
80009a94:	27bd0038 	addiu	sp,sp,56

80009a98 <__udivdi3>:
80009a98:	00e01021 	move	v0,a3
80009a9c:	00a04021 	move	t0,a1
80009aa0:	14c00055 	bnez	a2,80009bf8 <__udivdi3+0x160>
80009aa4:	00804821 	move	t1,a0
80009aa8:	0087182b 	sltu	v1,a0,a3
80009aac:	10600072 	beqz	v1,80009c78 <__udivdi3+0x1e0>
80009ab0:	3c030001 	lui	v1,0x1
80009ab4:	00e3182b 	sltu	v1,a3,v1
80009ab8:	146000d2 	bnez	v1,80009e04 <__udivdi3+0x36c>
80009abc:	2ce30100 	sltiu	v1,a3,256
80009ac0:	3c030100 	lui	v1,0x100
80009ac4:	00e3182b 	sltu	v1,a3,v1
80009ac8:	10600174 	beqz	v1,8000a09c <__udivdi3+0x604>
80009acc:	240a0018 	li	t2,24
80009ad0:	240a0010 	li	t2,16
80009ad4:	24060010 	li	a2,16
80009ad8:	3c038001 	lui	v1,0x8001
80009adc:	01425006 	srlv	t2,v0,t2
80009ae0:	2463ac1c 	addiu	v1,v1,-21476
80009ae4:	01431821 	addu	v1,t2,v1
80009ae8:	90630000 	lbu	v1,0(v1)
80009aec:	00000000 	nop
80009af0:	00663021 	addu	a2,v1,a2
80009af4:	24030020 	li	v1,32
80009af8:	00661823 	subu	v1,v1,a2
80009afc:	10600005 	beqz	v1,80009b14 <__udivdi3+0x7c>
80009b00:	00642004 	sllv	a0,a0,v1
80009b04:	00c53006 	srlv	a2,a1,a2
80009b08:	00623804 	sllv	a3,v0,v1
80009b0c:	00864825 	or	t1,a0,a2
80009b10:	00654004 	sllv	t0,a1,v1
80009b14:	00071402 	srl	v0,a3,0x10
80009b18:	14400002 	bnez	v0,80009b24 <__udivdi3+0x8c>
80009b1c:	0122001b 	divu	zero,t1,v0
80009b20:	0007000d 	break	0x7
80009b24:	30e6ffff 	andi	a2,a3,0xffff
80009b28:	00085402 	srl	t2,t0,0x10
80009b2c:	00001812 	mflo	v1
80009b30:	00002810 	mfhi	a1
80009b34:	00052c00 	sll	a1,a1,0x10
80009b38:	00aa2825 	or	a1,a1,t2
80009b3c:	00660018 	mult	v1,a2
80009b40:	00002012 	mflo	a0
80009b44:	00a4502b 	sltu	t2,a1,a0
80009b48:	00000000 	nop
80009b4c:	14400002 	bnez	v0,80009b58 <__udivdi3+0xc0>
80009b50:	0122001b 	divu	zero,t1,v0
80009b54:	0007000d 	break	0x7
80009b58:	11400009 	beqz	t2,80009b80 <__udivdi3+0xe8>
80009b5c:	00000000 	nop
80009b60:	00a72821 	addu	a1,a1,a3
80009b64:	00a7482b 	sltu	t1,a1,a3
80009b68:	15200004 	bnez	t1,80009b7c <__udivdi3+0xe4>
80009b6c:	246affff 	addiu	t2,v1,-1
80009b70:	00a4482b 	sltu	t1,a1,a0
80009b74:	1520015c 	bnez	t1,8000a0e8 <__udivdi3+0x650>
80009b78:	2463fffe 	addiu	v1,v1,-2
80009b7c:	01401821 	move	v1,t2
80009b80:	00a42023 	subu	a0,a1,a0
80009b84:	14400002 	bnez	v0,80009b90 <__udivdi3+0xf8>
80009b88:	0082001b 	divu	zero,a0,v0
80009b8c:	0007000d 	break	0x7
80009b90:	3108ffff 	andi	t0,t0,0xffff
80009b94:	00002812 	mflo	a1
80009b98:	00004810 	mfhi	t1
80009b9c:	00094c00 	sll	t1,t1,0x10
80009ba0:	01284025 	or	t0,t1,t0
80009ba4:	00a60018 	mult	a1,a2
80009ba8:	00003012 	mflo	a2
80009bac:	0106482b 	sltu	t1,t0,a2
80009bb0:	00000000 	nop
80009bb4:	14400002 	bnez	v0,80009bc0 <__udivdi3+0x128>
80009bb8:	0082001b 	divu	zero,a0,v0
80009bbc:	0007000d 	break	0x7
80009bc0:	11200008 	beqz	t1,80009be4 <__udivdi3+0x14c>
80009bc4:	01074021 	addu	t0,t0,a3
80009bc8:	0107382b 	sltu	a3,t0,a3
80009bcc:	14e0011b 	bnez	a3,8000a03c <__udivdi3+0x5a4>
80009bd0:	24a2ffff 	addiu	v0,a1,-1
80009bd4:	0106302b 	sltu	a2,t0,a2
80009bd8:	10c00118 	beqz	a2,8000a03c <__udivdi3+0x5a4>
80009bdc:	00000000 	nop
80009be0:	24a5fffe 	addiu	a1,a1,-2
80009be4:	00031c00 	sll	v1,v1,0x10
80009be8:	00a31825 	or	v1,a1,v1
80009bec:	00001021 	move	v0,zero
80009bf0:	03e00008 	jr	ra
80009bf4:	00000000 	nop
80009bf8:	0086182b 	sltu	v1,a0,a2
80009bfc:	14600074 	bnez	v1,80009dd0 <__udivdi3+0x338>
80009c00:	00001821 	move	v1,zero
80009c04:	3c030001 	lui	v1,0x1
80009c08:	00c3182b 	sltu	v1,a2,v1
80009c0c:	14600073 	bnez	v1,80009ddc <__udivdi3+0x344>
80009c10:	2cc30100 	sltiu	v1,a2,256
80009c14:	3c030100 	lui	v1,0x100
80009c18:	00c3182b 	sltu	v1,a2,v1
80009c1c:	10600118 	beqz	v1,8000a080 <__udivdi3+0x5e8>
80009c20:	24080018 	li	t0,24
80009c24:	24080010 	li	t0,16
80009c28:	24090010 	li	t1,16
80009c2c:	3c078001 	lui	a3,0x8001
80009c30:	01064006 	srlv	t0,a2,t0
80009c34:	24e7ac1c 	addiu	a3,a3,-21476
80009c38:	01073821 	addu	a3,t0,a3
80009c3c:	90e30000 	lbu	v1,0(a3)
80009c40:	24080020 	li	t0,32
80009c44:	00691821 	addu	v1,v1,t1
80009c48:	01034023 	subu	t0,t0,v1
80009c4c:	15000071 	bnez	t0,80009e14 <__udivdi3+0x37c>
80009c50:	00645806 	srlv	t3,a0,v1
80009c54:	00c4202b 	sltu	a0,a2,a0
80009c58:	14800004 	bnez	a0,80009c6c <__udivdi3+0x1d4>
80009c5c:	24030001 	li	v1,1
80009c60:	00a2102b 	sltu	v0,a1,v0
80009c64:	14400059 	bnez	v0,80009dcc <__udivdi3+0x334>
80009c68:	00000000 	nop
80009c6c:	00001021 	move	v0,zero
80009c70:	03e00008 	jr	ra
80009c74:	00000000 	nop
80009c78:	14e00007 	bnez	a3,80009c98 <__udivdi3+0x200>
80009c7c:	3c020001 	lui	v0,0x1
80009c80:	24020001 	li	v0,1
80009c84:	14e00002 	bnez	a3,80009c90 <__udivdi3+0x1f8>
80009c88:	0047001b 	divu	zero,v0,a3
80009c8c:	0007000d 	break	0x7
80009c90:	00003812 	mflo	a3
80009c94:	3c020001 	lui	v0,0x1
80009c98:	00e2102b 	sltu	v0,a3,v0
80009c9c:	14400054 	bnez	v0,80009df0 <__udivdi3+0x358>
80009ca0:	2ce20100 	sltiu	v0,a3,256
80009ca4:	3c020100 	lui	v0,0x100
80009ca8:	00e2102b 	sltu	v0,a3,v0
80009cac:	104000f9 	beqz	v0,8000a094 <__udivdi3+0x5fc>
80009cb0:	24060018 	li	a2,24
80009cb4:	24060010 	li	a2,16
80009cb8:	24030010 	li	v1,16
80009cbc:	3c028001 	lui	v0,0x8001
80009cc0:	00c73006 	srlv	a2,a3,a2
80009cc4:	2442ac1c 	addiu	v0,v0,-21476
80009cc8:	00c21021 	addu	v0,a2,v0
80009ccc:	90420000 	lbu	v0,0(v0)
80009cd0:	00000000 	nop
80009cd4:	00431821 	addu	v1,v0,v1
80009cd8:	24020020 	li	v0,32
80009cdc:	00431023 	subu	v0,v0,v1
80009ce0:	14400093 	bnez	v0,80009f30 <__udivdi3+0x498>
80009ce4:	00645806 	srlv	t3,a0,v1
80009ce8:	00872823 	subu	a1,a0,a3
80009cec:	00073402 	srl	a2,a3,0x10
80009cf0:	30eaffff 	andi	t2,a3,0xffff
80009cf4:	24020001 	li	v0,1
80009cf8:	14c00002 	bnez	a2,80009d04 <__udivdi3+0x26c>
80009cfc:	00a6001b 	divu	zero,a1,a2
80009d00:	0007000d 	break	0x7
80009d04:	00085c02 	srl	t3,t0,0x10
80009d08:	00001812 	mflo	v1
80009d0c:	00004810 	mfhi	t1
80009d10:	00094c00 	sll	t1,t1,0x10
80009d14:	012b4825 	or	t1,t1,t3
80009d18:	006a0018 	mult	v1,t2
80009d1c:	00002012 	mflo	a0
80009d20:	0124582b 	sltu	t3,t1,a0
80009d24:	00000000 	nop
80009d28:	14c00002 	bnez	a2,80009d34 <__udivdi3+0x29c>
80009d2c:	00a6001b 	divu	zero,a1,a2
80009d30:	0007000d 	break	0x7
80009d34:	11600009 	beqz	t3,80009d5c <__udivdi3+0x2c4>
80009d38:	00000000 	nop
80009d3c:	01274821 	addu	t1,t1,a3
80009d40:	0127282b 	sltu	a1,t1,a3
80009d44:	14a00004 	bnez	a1,80009d58 <__udivdi3+0x2c0>
80009d48:	246bffff 	addiu	t3,v1,-1
80009d4c:	0124282b 	sltu	a1,t1,a0
80009d50:	14a000e7 	bnez	a1,8000a0f0 <__udivdi3+0x658>
80009d54:	2463fffe 	addiu	v1,v1,-2
80009d58:	01601821 	move	v1,t3
80009d5c:	01242023 	subu	a0,t1,a0
80009d60:	14c00002 	bnez	a2,80009d6c <__udivdi3+0x2d4>
80009d64:	0086001b 	divu	zero,a0,a2
80009d68:	0007000d 	break	0x7
80009d6c:	3108ffff 	andi	t0,t0,0xffff
80009d70:	00002812 	mflo	a1
80009d74:	00004810 	mfhi	t1
80009d78:	00094c00 	sll	t1,t1,0x10
80009d7c:	01284025 	or	t0,t1,t0
80009d80:	00aa0018 	mult	a1,t2
80009d84:	00005012 	mflo	t2
80009d88:	010a482b 	sltu	t1,t0,t2
80009d8c:	00000000 	nop
80009d90:	14c00002 	bnez	a2,80009d9c <__udivdi3+0x304>
80009d94:	0086001b 	divu	zero,a0,a2
80009d98:	0007000d 	break	0x7
80009d9c:	11200007 	beqz	t1,80009dbc <__udivdi3+0x324>
80009da0:	01074021 	addu	t0,t0,a3
80009da4:	0107382b 	sltu	a3,t0,a3
80009da8:	14e000a6 	bnez	a3,8000a044 <__udivdi3+0x5ac>
80009dac:	24a4ffff 	addiu	a0,a1,-1
80009db0:	010a502b 	sltu	t2,t0,t2
80009db4:	114000a3 	beqz	t2,8000a044 <__udivdi3+0x5ac>
80009db8:	24a5fffe 	addiu	a1,a1,-2
80009dbc:	00031c00 	sll	v1,v1,0x10
80009dc0:	00a31825 	or	v1,a1,v1
80009dc4:	03e00008 	jr	ra
80009dc8:	00000000 	nop
80009dcc:	00001821 	move	v1,zero
80009dd0:	00001021 	move	v0,zero
80009dd4:	03e00008 	jr	ra
80009dd8:	00000000 	nop
80009ddc:	106000a5 	beqz	v1,8000a074 <__udivdi3+0x5dc>
80009de0:	00000000 	nop
80009de4:	00004021 	move	t0,zero
80009de8:	0800270b 	j	80009c2c <__udivdi3+0x194>
80009dec:	00004821 	move	t1,zero
80009df0:	104000ac 	beqz	v0,8000a0a4 <__udivdi3+0x60c>
80009df4:	00000000 	nop
80009df8:	00003021 	move	a2,zero
80009dfc:	0800272f 	j	80009cbc <__udivdi3+0x224>
80009e00:	00001821 	move	v1,zero
80009e04:	106000a0 	beqz	v1,8000a088 <__udivdi3+0x5f0>
80009e08:	00000000 	nop
80009e0c:	080026b6 	j	80009ad8 <__udivdi3+0x40>
80009e10:	00005021 	move	t2,zero
80009e14:	00623806 	srlv	a3,v0,v1
80009e18:	01063004 	sllv	a2,a2,t0
80009e1c:	00c73025 	or	a2,a2,a3
80009e20:	00063c02 	srl	a3,a2,0x10
80009e24:	14e00002 	bnez	a3,80009e30 <__udivdi3+0x398>
80009e28:	0167001b 	divu	zero,t3,a3
80009e2c:	0007000d 	break	0x7
80009e30:	30cdffff 	andi	t5,a2,0xffff
80009e34:	01042004 	sllv	a0,a0,t0
80009e38:	00651806 	srlv	v1,a1,v1
80009e3c:	00831825 	or	v1,a0,v1
80009e40:	00032402 	srl	a0,v1,0x10
80009e44:	00004812 	mflo	t1
80009e48:	00005010 	mfhi	t2
80009e4c:	000a5400 	sll	t2,t2,0x10
80009e50:	01445025 	or	t2,t2,a0
80009e54:	00006012 	mflo	t4
	...
80009e60:	012d0018 	mult	t1,t5
80009e64:	00004812 	mflo	t1
80009e68:	0149202b 	sltu	a0,t2,t1
80009e6c:	00000000 	nop
80009e70:	14e00002 	bnez	a3,80009e7c <__udivdi3+0x3e4>
80009e74:	0167001b 	divu	zero,t3,a3
80009e78:	0007000d 	break	0x7
80009e7c:	10800006 	beqz	a0,80009e98 <__udivdi3+0x400>
80009e80:	01021004 	sllv	v0,v0,t0
80009e84:	01465021 	addu	t2,t2,a2
80009e88:	0146202b 	sltu	a0,t2,a2
80009e8c:	1080008d 	beqz	a0,8000a0c4 <__udivdi3+0x62c>
80009e90:	258bffff 	addiu	t3,t4,-1
80009e94:	01606021 	move	t4,t3
80009e98:	01494823 	subu	t1,t2,t1
80009e9c:	14e00002 	bnez	a3,80009ea8 <__udivdi3+0x410>
80009ea0:	0127001b 	divu	zero,t1,a3
80009ea4:	0007000d 	break	0x7
80009ea8:	3063ffff 	andi	v1,v1,0xffff
80009eac:	00005012 	mflo	t2
80009eb0:	00002010 	mfhi	a0
80009eb4:	00042400 	sll	a0,a0,0x10
80009eb8:	00832025 	or	a0,a0,v1
80009ebc:	014d0018 	mult	t2,t5
80009ec0:	00005812 	mflo	t3
80009ec4:	008b182b 	sltu	v1,a0,t3
80009ec8:	00000000 	nop
80009ecc:	14e00002 	bnez	a3,80009ed8 <__udivdi3+0x440>
80009ed0:	0127001b 	divu	zero,t1,a3
80009ed4:	0007000d 	break	0x7
80009ed8:	10600006 	beqz	v1,80009ef4 <__udivdi3+0x45c>
80009edc:	00000000 	nop
80009ee0:	00862021 	addu	a0,a0,a2
80009ee4:	0086182b 	sltu	v1,a0,a2
80009ee8:	10600071 	beqz	v1,8000a0b0 <__udivdi3+0x618>
80009eec:	2547ffff 	addiu	a3,t2,-1
80009ef0:	00e05021 	move	t2,a3
80009ef4:	000c6400 	sll	t4,t4,0x10
80009ef8:	014c5025 	or	t2,t2,t4
80009efc:	01420019 	multu	t2,v0
80009f00:	008b2023 	subu	a0,a0,t3
80009f04:	00001010 	mfhi	v0
80009f08:	0082382b 	sltu	a3,a0,v0
80009f0c:	00001812 	mflo	v1
80009f10:	14e00054 	bnez	a3,8000a064 <__udivdi3+0x5cc>
80009f14:	00000000 	nop
80009f18:	1082004e 	beq	a0,v0,8000a054 <__udivdi3+0x5bc>
80009f1c:	00000000 	nop
80009f20:	01401821 	move	v1,t2
80009f24:	00001021 	move	v0,zero
80009f28:	03e00008 	jr	ra
80009f2c:	00000000 	nop
80009f30:	00473804 	sllv	a3,a3,v0
80009f34:	00073402 	srl	a2,a3,0x10
80009f38:	14c00002 	bnez	a2,80009f44 <__udivdi3+0x4ac>
80009f3c:	0166001b 	divu	zero,t3,a2
80009f40:	0007000d 	break	0x7
80009f44:	00442004 	sllv	a0,a0,v0
80009f48:	30eaffff 	andi	t2,a3,0xffff
80009f4c:	00454004 	sllv	t0,a1,v0
80009f50:	00651806 	srlv	v1,a1,v1
80009f54:	00831825 	or	v1,a0,v1
80009f58:	00032402 	srl	a0,v1,0x10
80009f5c:	00001012 	mflo	v0
80009f60:	00006010 	mfhi	t4
80009f64:	000c6400 	sll	t4,t4,0x10
80009f68:	01846025 	or	t4,t4,a0
80009f6c:	004a0018 	mult	v0,t2
80009f70:	00004812 	mflo	t1
80009f74:	0189202b 	sltu	a0,t4,t1
80009f78:	00000000 	nop
80009f7c:	14c00002 	bnez	a2,80009f88 <__udivdi3+0x4f0>
80009f80:	0166001b 	divu	zero,t3,a2
80009f84:	0007000d 	break	0x7
80009f88:	1080000a 	beqz	a0,80009fb4 <__udivdi3+0x51c>
80009f8c:	00000000 	nop
80009f90:	01876021 	addu	t4,t4,a3
80009f94:	0187202b 	sltu	a0,t4,a3
80009f98:	14800051 	bnez	a0,8000a0e0 <__udivdi3+0x648>
80009f9c:	2445ffff 	addiu	a1,v0,-1
80009fa0:	0189202b 	sltu	a0,t4,t1
80009fa4:	1080004e 	beqz	a0,8000a0e0 <__udivdi3+0x648>
80009fa8:	00000000 	nop
80009fac:	2442fffe 	addiu	v0,v0,-2
80009fb0:	01876021 	addu	t4,t4,a3
80009fb4:	01894823 	subu	t1,t4,t1
80009fb8:	14c00002 	bnez	a2,80009fc4 <__udivdi3+0x52c>
80009fbc:	0126001b 	divu	zero,t1,a2
80009fc0:	0007000d 	break	0x7
80009fc4:	3063ffff 	andi	v1,v1,0xffff
80009fc8:	00002812 	mflo	a1
80009fcc:	00002010 	mfhi	a0
80009fd0:	00042400 	sll	a0,a0,0x10
80009fd4:	00831825 	or	v1,a0,v1
80009fd8:	00005812 	mflo	t3
	...
80009fe4:	00aa0018 	mult	a1,t2
80009fe8:	00002812 	mflo	a1
80009fec:	0065202b 	sltu	a0,v1,a1
80009ff0:	00000000 	nop
80009ff4:	14c00002 	bnez	a2,8000a000 <__udivdi3+0x568>
80009ff8:	0126001b 	divu	zero,t1,a2
80009ffc:	0007000d 	break	0x7
8000a000:	1080000a 	beqz	a0,8000a02c <__udivdi3+0x594>
8000a004:	00000000 	nop
8000a008:	00671821 	addu	v1,v1,a3
8000a00c:	0067202b 	sltu	a0,v1,a3
8000a010:	14800031 	bnez	a0,8000a0d8 <__udivdi3+0x640>
8000a014:	2569ffff 	addiu	t1,t3,-1
8000a018:	0065202b 	sltu	a0,v1,a1
8000a01c:	1080002e 	beqz	a0,8000a0d8 <__udivdi3+0x640>
8000a020:	00000000 	nop
8000a024:	256bfffe 	addiu	t3,t3,-2
8000a028:	00671821 	addu	v1,v1,a3
8000a02c:	00021400 	sll	v0,v0,0x10
8000a030:	00652823 	subu	a1,v1,a1
8000a034:	0800273e 	j	80009cf8 <__udivdi3+0x260>
8000a038:	01621025 	or	v0,t3,v0
8000a03c:	080026f9 	j	80009be4 <__udivdi3+0x14c>
8000a040:	00402821 	move	a1,v0
8000a044:	00802821 	move	a1,a0
8000a048:	00031c00 	sll	v1,v1,0x10
8000a04c:	08002771 	j	80009dc4 <__udivdi3+0x32c>
8000a050:	00a31825 	or	v1,a1,v1
8000a054:	01052804 	sllv	a1,a1,t0
8000a058:	00a3282b 	sltu	a1,a1,v1
8000a05c:	10a0ffb0 	beqz	a1,80009f20 <__udivdi3+0x488>
8000a060:	00000000 	nop
8000a064:	2543ffff 	addiu	v1,t2,-1
8000a068:	00001021 	move	v0,zero
8000a06c:	03e00008 	jr	ra
8000a070:	00000000 	nop
8000a074:	24080008 	li	t0,8
8000a078:	0800270b 	j	80009c2c <__udivdi3+0x194>
8000a07c:	24090008 	li	t1,8
8000a080:	0800270b 	j	80009c2c <__udivdi3+0x194>
8000a084:	24090018 	li	t1,24
8000a088:	240a0008 	li	t2,8
8000a08c:	080026b6 	j	80009ad8 <__udivdi3+0x40>
8000a090:	24060008 	li	a2,8
8000a094:	0800272f 	j	80009cbc <__udivdi3+0x224>
8000a098:	24030018 	li	v1,24
8000a09c:	080026b6 	j	80009ad8 <__udivdi3+0x40>
8000a0a0:	24060018 	li	a2,24
8000a0a4:	24060008 	li	a2,8
8000a0a8:	0800272f 	j	80009cbc <__udivdi3+0x224>
8000a0ac:	24030008 	li	v1,8
8000a0b0:	008b182b 	sltu	v1,a0,t3
8000a0b4:	1060ff8e 	beqz	v1,80009ef0 <__udivdi3+0x458>
8000a0b8:	254afffe 	addiu	t2,t2,-2
8000a0bc:	080027bd 	j	80009ef4 <__udivdi3+0x45c>
8000a0c0:	00862021 	addu	a0,a0,a2
8000a0c4:	0149202b 	sltu	a0,t2,t1
8000a0c8:	1080ff72 	beqz	a0,80009e94 <__udivdi3+0x3fc>
8000a0cc:	258cfffe 	addiu	t4,t4,-2
8000a0d0:	080027a6 	j	80009e98 <__udivdi3+0x400>
8000a0d4:	01465021 	addu	t2,t2,a2
8000a0d8:	0800280b 	j	8000a02c <__udivdi3+0x594>
8000a0dc:	01205821 	move	t3,t1
8000a0e0:	080027ed 	j	80009fb4 <__udivdi3+0x51c>
8000a0e4:	00a01021 	move	v0,a1
8000a0e8:	080026e0 	j	80009b80 <__udivdi3+0xe8>
8000a0ec:	00a72821 	addu	a1,a1,a3
8000a0f0:	08002757 	j	80009d5c <__udivdi3+0x2c4>
8000a0f4:	01274821 	addu	t1,t1,a3

8000a0f8 <__umoddi3>:
8000a0f8:	00e04821 	move	t1,a3
8000a0fc:	00a04021 	move	t0,a1
8000a100:	14c00052 	bnez	a2,8000a24c <__umoddi3+0x154>
8000a104:	00801021 	move	v0,a0
8000a108:	0087182b 	sltu	v1,a0,a3
8000a10c:	10600072 	beqz	v1,8000a2d8 <__umoddi3+0x1e0>
8000a110:	3c030001 	lui	v1,0x1
8000a114:	00e3182b 	sltu	v1,a3,v1
8000a118:	106000ca 	beqz	v1,8000a444 <__umoddi3+0x34c>
8000a11c:	3c030100 	lui	v1,0x100
8000a120:	2ce30100 	sltiu	v1,a3,256
8000a124:	1060016f 	beqz	v1,8000a6e4 <__umoddi3+0x5ec>
8000a128:	00000000 	nop
8000a12c:	00005821 	move	t3,zero
8000a130:	3c038001 	lui	v1,0x8001
8000a134:	00c93006 	srlv	a2,t1,a2
8000a138:	2463ac1c 	addiu	v1,v1,-21476
8000a13c:	00c31821 	addu	v1,a2,v1
8000a140:	90630000 	lbu	v1,0(v1)
8000a144:	240a0020 	li	t2,32
8000a148:	006b5821 	addu	t3,v1,t3
8000a14c:	014b5023 	subu	t2,t2,t3
8000a150:	11400116 	beqz	t2,8000a5ac <__umoddi3+0x4b4>
8000a154:	01442004 	sllv	a0,a0,t2
8000a158:	01655806 	srlv	t3,a1,t3
8000a15c:	01493804 	sllv	a3,t1,t2
8000a160:	008b1025 	or	v0,a0,t3
8000a164:	01454004 	sllv	t0,a1,t2
8000a168:	00074c02 	srl	t1,a3,0x10
8000a16c:	15200002 	bnez	t1,8000a178 <__umoddi3+0x80>
8000a170:	0049001b 	divu	zero,v0,t1
8000a174:	0007000d 	break	0x7
8000a178:	30e3ffff 	andi	v1,a3,0xffff
8000a17c:	00082402 	srl	a0,t0,0x10
8000a180:	00002812 	mflo	a1
8000a184:	00005810 	mfhi	t3
8000a188:	000b5c00 	sll	t3,t3,0x10
8000a18c:	01645825 	or	t3,t3,a0
8000a190:	00a30018 	mult	a1,v1
8000a194:	00006012 	mflo	t4
8000a198:	016c682b 	sltu	t5,t3,t4
8000a19c:	00000000 	nop
8000a1a0:	15200002 	bnez	t1,8000a1ac <__umoddi3+0xb4>
8000a1a4:	0049001b 	divu	zero,v0,t1
8000a1a8:	0007000d 	break	0x7
8000a1ac:	11a00009 	beqz	t5,8000a1d4 <__umoddi3+0xdc>
8000a1b0:	016c1023 	subu	v0,t3,t4
8000a1b4:	01675821 	addu	t3,t3,a3
8000a1b8:	0167102b 	sltu	v0,t3,a3
8000a1bc:	14400005 	bnez	v0,8000a1d4 <__umoddi3+0xdc>
8000a1c0:	016c1023 	subu	v0,t3,t4
8000a1c4:	016c102b 	sltu	v0,t3,t4
8000a1c8:	14400156 	bnez	v0,8000a724 <__umoddi3+0x62c>
8000a1cc:	00000000 	nop
8000a1d0:	016c1023 	subu	v0,t3,t4
8000a1d4:	15200002 	bnez	t1,8000a1e0 <__umoddi3+0xe8>
8000a1d8:	0049001b 	divu	zero,v0,t1
8000a1dc:	0007000d 	break	0x7
8000a1e0:	3108ffff 	andi	t0,t0,0xffff
8000a1e4:	00002812 	mflo	a1
8000a1e8:	00002010 	mfhi	a0
8000a1ec:	00042400 	sll	a0,a0,0x10
8000a1f0:	00882025 	or	a0,a0,t0
8000a1f4:	00a30018 	mult	a1,v1
8000a1f8:	00001812 	mflo	v1
8000a1fc:	0083282b 	sltu	a1,a0,v1
8000a200:	00000000 	nop
8000a204:	15200002 	bnez	t1,8000a210 <__umoddi3+0x118>
8000a208:	0049001b 	divu	zero,v0,t1
8000a20c:	0007000d 	break	0x7
8000a210:	10a00009 	beqz	a1,8000a238 <__umoddi3+0x140>
8000a214:	00000000 	nop
8000a218:	00872021 	addu	a0,a0,a3
8000a21c:	0087102b 	sltu	v0,a0,a3
8000a220:	14400005 	bnez	v0,8000a238 <__umoddi3+0x140>
8000a224:	00000000 	nop
8000a228:	0083102b 	sltu	v0,a0,v1
8000a22c:	10400002 	beqz	v0,8000a238 <__umoddi3+0x140>
8000a230:	00000000 	nop
8000a234:	00872021 	addu	a0,a0,a3
8000a238:	00831823 	subu	v1,a0,v1
8000a23c:	00001021 	move	v0,zero
8000a240:	01431806 	srlv	v1,v1,t2
8000a244:	03e00008 	jr	ra
8000a248:	00000000 	nop
8000a24c:	0086182b 	sltu	v1,a0,a2
8000a250:	14600074 	bnez	v1,8000a424 <__umoddi3+0x32c>
8000a254:	00a01821 	move	v1,a1
8000a258:	3c030001 	lui	v1,0x1
8000a25c:	00c3182b 	sltu	v1,a2,v1
8000a260:	14600073 	bnez	v1,8000a430 <__umoddi3+0x338>
8000a264:	2cc30100 	sltiu	v1,a2,256
8000a268:	3c030100 	lui	v1,0x100
8000a26c:	00c3182b 	sltu	v1,a2,v1
8000a270:	10600112 	beqz	v1,8000a6bc <__umoddi3+0x5c4>
8000a274:	24080018 	li	t0,24
8000a278:	24080010 	li	t0,16
8000a27c:	240b0010 	li	t3,16
8000a280:	3c078001 	lui	a3,0x8001
8000a284:	01064006 	srlv	t0,a2,t0
8000a288:	24e7ac1c 	addiu	a3,a3,-21476
8000a28c:	01073821 	addu	a3,t0,a3
8000a290:	90e30000 	lbu	v1,0(a3)
8000a294:	24070020 	li	a3,32
8000a298:	006b5821 	addu	t3,v1,t3
8000a29c:	00eb3823 	subu	a3,a3,t3
8000a2a0:	14e00073 	bnez	a3,8000a470 <__umoddi3+0x378>
8000a2a4:	01647006 	srlv	t6,a0,t3
8000a2a8:	00c4182b 	sltu	v1,a2,a0
8000a2ac:	14600005 	bnez	v1,8000a2c4 <__umoddi3+0x1cc>
8000a2b0:	00a91823 	subu	v1,a1,t1
8000a2b4:	00a9182b 	sltu	v1,a1,t1
8000a2b8:	1460011c 	bnez	v1,8000a72c <__umoddi3+0x634>
8000a2bc:	00000000 	nop
8000a2c0:	00a91823 	subu	v1,a1,t1
8000a2c4:	00862023 	subu	a0,a0,a2
8000a2c8:	00a3282b 	sltu	a1,a1,v1
8000a2cc:	00851023 	subu	v0,a0,a1
8000a2d0:	03e00008 	jr	ra
8000a2d4:	00000000 	nop
8000a2d8:	14e00007 	bnez	a3,8000a2f8 <__umoddi3+0x200>
8000a2dc:	3c020001 	lui	v0,0x1
8000a2e0:	24020001 	li	v0,1
8000a2e4:	14e00002 	bnez	a3,8000a2f0 <__umoddi3+0x1f8>
8000a2e8:	0047001b 	divu	zero,v0,a3
8000a2ec:	0007000d 	break	0x7
8000a2f0:	00003812 	mflo	a3
8000a2f4:	3c020001 	lui	v0,0x1
8000a2f8:	00e2102b 	sltu	v0,a3,v0
8000a2fc:	14400057 	bnez	v0,8000a45c <__umoddi3+0x364>
8000a300:	2ce20100 	sltiu	v0,a3,256
8000a304:	3c020100 	lui	v0,0x100
8000a308:	00e2102b 	sltu	v0,a3,v0
8000a30c:	104000f3 	beqz	v0,8000a6dc <__umoddi3+0x5e4>
8000a310:	24030018 	li	v1,24
8000a314:	24030010 	li	v1,16
8000a318:	24060010 	li	a2,16
8000a31c:	3c028001 	lui	v0,0x8001
8000a320:	00671806 	srlv	v1,a3,v1
8000a324:	2442ac1c 	addiu	v0,v0,-21476
8000a328:	00621021 	addu	v0,v1,v0
8000a32c:	90420000 	lbu	v0,0(v0)
8000a330:	240a0020 	li	t2,32
8000a334:	00463021 	addu	a2,v0,a2
8000a338:	01465023 	subu	t2,t2,a2
8000a33c:	1540009d 	bnez	t2,8000a5b4 <__umoddi3+0x4bc>
8000a340:	00c45806 	srlv	t3,a0,a2
8000a344:	00872823 	subu	a1,a0,a3
8000a348:	00071402 	srl	v0,a3,0x10
8000a34c:	30e3ffff 	andi	v1,a3,0xffff
8000a350:	14400002 	bnez	v0,8000a35c <__umoddi3+0x264>
8000a354:	00a2001b 	divu	zero,a1,v0
8000a358:	0007000d 	break	0x7
8000a35c:	00084c02 	srl	t1,t0,0x10
8000a360:	00002012 	mflo	a0
8000a364:	00003010 	mfhi	a2
8000a368:	00063400 	sll	a2,a2,0x10
8000a36c:	00c93025 	or	a2,a2,t1
8000a370:	00830018 	mult	a0,v1
8000a374:	00002012 	mflo	a0
8000a378:	00c4482b 	sltu	t1,a2,a0
8000a37c:	00000000 	nop
8000a380:	14400002 	bnez	v0,8000a38c <__umoddi3+0x294>
8000a384:	00a2001b 	divu	zero,a1,v0
8000a388:	0007000d 	break	0x7
8000a38c:	11200007 	beqz	t1,8000a3ac <__umoddi3+0x2b4>
8000a390:	00000000 	nop
8000a394:	00c73021 	addu	a2,a2,a3
8000a398:	00c7282b 	sltu	a1,a2,a3
8000a39c:	14a00003 	bnez	a1,8000a3ac <__umoddi3+0x2b4>
8000a3a0:	00c4282b 	sltu	a1,a2,a0
8000a3a4:	14a000dd 	bnez	a1,8000a71c <__umoddi3+0x624>
8000a3a8:	00000000 	nop
8000a3ac:	00c42023 	subu	a0,a2,a0
8000a3b0:	14400002 	bnez	v0,8000a3bc <__umoddi3+0x2c4>
8000a3b4:	0082001b 	divu	zero,a0,v0
8000a3b8:	0007000d 	break	0x7
8000a3bc:	3108ffff 	andi	t0,t0,0xffff
8000a3c0:	00003012 	mflo	a2
8000a3c4:	00002810 	mfhi	a1
8000a3c8:	00052c00 	sll	a1,a1,0x10
8000a3cc:	00a84025 	or	t0,a1,t0
8000a3d0:	00c30018 	mult	a2,v1
8000a3d4:	00001812 	mflo	v1
8000a3d8:	0103282b 	sltu	a1,t0,v1
8000a3dc:	00000000 	nop
8000a3e0:	14400002 	bnez	v0,8000a3ec <__umoddi3+0x2f4>
8000a3e4:	0082001b 	divu	zero,a0,v0
8000a3e8:	0007000d 	break	0x7
8000a3ec:	10a00009 	beqz	a1,8000a414 <__umoddi3+0x31c>
8000a3f0:	00000000 	nop
8000a3f4:	01074021 	addu	t0,t0,a3
8000a3f8:	0107102b 	sltu	v0,t0,a3
8000a3fc:	14400005 	bnez	v0,8000a414 <__umoddi3+0x31c>
8000a400:	00000000 	nop
8000a404:	0103102b 	sltu	v0,t0,v1
8000a408:	10400002 	beqz	v0,8000a414 <__umoddi3+0x31c>
8000a40c:	00000000 	nop
8000a410:	01074021 	addu	t0,t0,a3
8000a414:	01031823 	subu	v1,t0,v1
8000a418:	00001021 	move	v0,zero
8000a41c:	08002891 	j	8000a244 <__umoddi3+0x14c>
8000a420:	01431806 	srlv	v1,v1,t2
8000a424:	00801021 	move	v0,a0
8000a428:	03e00008 	jr	ra
8000a42c:	00000000 	nop
8000a430:	1060009f 	beqz	v1,8000a6b0 <__umoddi3+0x5b8>
8000a434:	00000000 	nop
8000a438:	00004021 	move	t0,zero
8000a43c:	080028a0 	j	8000a280 <__umoddi3+0x188>
8000a440:	00005821 	move	t3,zero
8000a444:	00e3182b 	sltu	v1,a3,v1
8000a448:	1060009e 	beqz	v1,8000a6c4 <__umoddi3+0x5cc>
8000a44c:	00000000 	nop
8000a450:	24060010 	li	a2,16
8000a454:	0800284c 	j	8000a130 <__umoddi3+0x38>
8000a458:	240b0010 	li	t3,16
8000a45c:	1040009c 	beqz	v0,8000a6d0 <__umoddi3+0x5d8>
8000a460:	00000000 	nop
8000a464:	00001821 	move	v1,zero
8000a468:	080028c7 	j	8000a31c <__umoddi3+0x224>
8000a46c:	00003021 	move	a2,zero
8000a470:	01691006 	srlv	v0,t1,t3
8000a474:	00e63004 	sllv	a2,a2,a3
8000a478:	00c23025 	or	a2,a2,v0
8000a47c:	00065402 	srl	t2,a2,0x10
8000a480:	15400002 	bnez	t2,8000a48c <__umoddi3+0x394>
8000a484:	01ca001b 	divu	zero,t6,t2
8000a488:	0007000d 	break	0x7
8000a48c:	30c2ffff 	andi	v0,a2,0xffff
8000a490:	01651806 	srlv	v1,a1,t3
8000a494:	00e42004 	sllv	a0,a0,a3
8000a498:	00832025 	or	a0,a0,v1
8000a49c:	00047c02 	srl	t7,a0,0x10
8000a4a0:	00e91804 	sllv	v1,t1,a3
8000a4a4:	00004012 	mflo	t0
8000a4a8:	00006810 	mfhi	t5
8000a4ac:	000d6c00 	sll	t5,t5,0x10
8000a4b0:	01af6825 	or	t5,t5,t7
8000a4b4:	01020018 	mult	t0,v0
8000a4b8:	00006012 	mflo	t4
8000a4bc:	01ac482b 	sltu	t1,t5,t4
8000a4c0:	00000000 	nop
8000a4c4:	15400002 	bnez	t2,8000a4d0 <__umoddi3+0x3d8>
8000a4c8:	01ca001b 	divu	zero,t6,t2
8000a4cc:	0007000d 	break	0x7
8000a4d0:	11200006 	beqz	t1,8000a4ec <__umoddi3+0x3f4>
8000a4d4:	00e52804 	sllv	a1,a1,a3
8000a4d8:	01a66821 	addu	t5,t5,a2
8000a4dc:	01a6482b 	sltu	t1,t5,a2
8000a4e0:	11200089 	beqz	t1,8000a708 <__umoddi3+0x610>
8000a4e4:	250effff 	addiu	t6,t0,-1
8000a4e8:	01c04021 	move	t0,t6
8000a4ec:	01ac6023 	subu	t4,t5,t4
8000a4f0:	15400002 	bnez	t2,8000a4fc <__umoddi3+0x404>
8000a4f4:	018a001b 	divu	zero,t4,t2
8000a4f8:	0007000d 	break	0x7
8000a4fc:	3084ffff 	andi	a0,a0,0xffff
8000a500:	00006812 	mflo	t5
8000a504:	00004810 	mfhi	t1
	...
8000a510:	01a20018 	mult	t5,v0
8000a514:	00091400 	sll	v0,t1,0x10
8000a518:	00442025 	or	a0,v0,a0
8000a51c:	00007012 	mflo	t6
8000a520:	008e102b 	sltu	v0,a0,t6
8000a524:	00000000 	nop
8000a528:	15400002 	bnez	t2,8000a534 <__umoddi3+0x43c>
8000a52c:	018a001b 	divu	zero,t4,t2
8000a530:	0007000d 	break	0x7
8000a534:	10400006 	beqz	v0,8000a550 <__umoddi3+0x458>
8000a538:	00000000 	nop
8000a53c:	00862021 	addu	a0,a0,a2
8000a540:	0086102b 	sltu	v0,a0,a2
8000a544:	1040006a 	beqz	v0,8000a6f0 <__umoddi3+0x5f8>
8000a548:	25a9ffff 	addiu	t1,t5,-1
8000a54c:	01206821 	move	t5,t1
8000a550:	00084400 	sll	t0,t0,0x10
8000a554:	01a84025 	or	t0,t5,t0
8000a558:	01030019 	multu	t0,v1
8000a55c:	008e2023 	subu	a0,a0,t6
8000a560:	00004010 	mfhi	t0
8000a564:	0088602b 	sltu	t4,a0,t0
8000a568:	01001021 	move	v0,t0
8000a56c:	00004812 	mflo	t1
8000a570:	00005012 	mflo	t2
8000a574:	15800049 	bnez	t4,8000a69c <__umoddi3+0x5a4>
8000a578:	01006821 	move	t5,t0
8000a57c:	1088006e 	beq	a0,t0,8000a738 <__umoddi3+0x640>
8000a580:	00000000 	nop
8000a584:	00821023 	subu	v0,a0,v0
8000a588:	00a94823 	subu	t1,a1,t1
8000a58c:	00a9282b 	sltu	a1,a1,t1
8000a590:	00451023 	subu	v0,v0,a1
8000a594:	01621804 	sllv	v1,v0,t3
8000a598:	00e94806 	srlv	t1,t1,a3
8000a59c:	00e21006 	srlv	v0,v0,a3
8000a5a0:	00691825 	or	v1,v1,t1
8000a5a4:	03e00008 	jr	ra
8000a5a8:	00000000 	nop
8000a5ac:	0800285a 	j	8000a168 <__umoddi3+0x70>
8000a5b0:	00005021 	move	t2,zero
8000a5b4:	01473804 	sllv	a3,a3,t2
8000a5b8:	00071402 	srl	v0,a3,0x10
8000a5bc:	14400002 	bnez	v0,8000a5c8 <__umoddi3+0x4d0>
8000a5c0:	0162001b 	divu	zero,t3,v0
8000a5c4:	0007000d 	break	0x7
8000a5c8:	00c53006 	srlv	a2,a1,a2
8000a5cc:	30e3ffff 	andi	v1,a3,0xffff
8000a5d0:	01454004 	sllv	t0,a1,t2
8000a5d4:	01442004 	sllv	a0,a0,t2
8000a5d8:	00862025 	or	a0,a0,a2
8000a5dc:	00043402 	srl	a2,a0,0x10
8000a5e0:	00002812 	mflo	a1
8000a5e4:	00006010 	mfhi	t4
8000a5e8:	000c6400 	sll	t4,t4,0x10
8000a5ec:	01866025 	or	t4,t4,a2
8000a5f0:	00a30018 	mult	a1,v1
8000a5f4:	00004812 	mflo	t1
8000a5f8:	0189282b 	sltu	a1,t4,t1
8000a5fc:	00000000 	nop
8000a600:	14400002 	bnez	v0,8000a60c <__umoddi3+0x514>
8000a604:	0162001b 	divu	zero,t3,v0
8000a608:	0007000d 	break	0x7
8000a60c:	10a00008 	beqz	a1,8000a630 <__umoddi3+0x538>
8000a610:	00000000 	nop
8000a614:	01876021 	addu	t4,t4,a3
8000a618:	0187282b 	sltu	a1,t4,a3
8000a61c:	14a00004 	bnez	a1,8000a630 <__umoddi3+0x538>
8000a620:	0189282b 	sltu	a1,t4,t1
8000a624:	10a00002 	beqz	a1,8000a630 <__umoddi3+0x538>
8000a628:	00000000 	nop
8000a62c:	01876021 	addu	t4,t4,a3
8000a630:	01894823 	subu	t1,t4,t1
8000a634:	14400002 	bnez	v0,8000a640 <__umoddi3+0x548>
8000a638:	0122001b 	divu	zero,t1,v0
8000a63c:	0007000d 	break	0x7
8000a640:	3084ffff 	andi	a0,a0,0xffff
8000a644:	00002812 	mflo	a1
8000a648:	00003010 	mfhi	a2
8000a64c:	00063400 	sll	a2,a2,0x10
8000a650:	00c43025 	or	a2,a2,a0
8000a654:	00a30018 	mult	a1,v1
8000a658:	00002812 	mflo	a1
8000a65c:	00c5202b 	sltu	a0,a2,a1
8000a660:	00000000 	nop
8000a664:	14400002 	bnez	v0,8000a670 <__umoddi3+0x578>
8000a668:	0122001b 	divu	zero,t1,v0
8000a66c:	0007000d 	break	0x7
8000a670:	10800008 	beqz	a0,8000a694 <__umoddi3+0x59c>
8000a674:	00000000 	nop
8000a678:	00c73021 	addu	a2,a2,a3
8000a67c:	00c7202b 	sltu	a0,a2,a3
8000a680:	14800004 	bnez	a0,8000a694 <__umoddi3+0x59c>
8000a684:	00c5202b 	sltu	a0,a2,a1
8000a688:	10800002 	beqz	a0,8000a694 <__umoddi3+0x59c>
8000a68c:	00000000 	nop
8000a690:	00c73021 	addu	a2,a2,a3
8000a694:	080028d4 	j	8000a350 <__umoddi3+0x258>
8000a698:	00c52823 	subu	a1,a2,a1
8000a69c:	01434823 	subu	t1,t2,v1
8000a6a0:	01a61023 	subu	v0,t5,a2
8000a6a4:	0149502b 	sltu	t2,t2,t1
8000a6a8:	08002961 	j	8000a584 <__umoddi3+0x48c>
8000a6ac:	004a1023 	subu	v0,v0,t2
8000a6b0:	24080008 	li	t0,8
8000a6b4:	080028a0 	j	8000a280 <__umoddi3+0x188>
8000a6b8:	240b0008 	li	t3,8
8000a6bc:	080028a0 	j	8000a280 <__umoddi3+0x188>
8000a6c0:	240b0018 	li	t3,24
8000a6c4:	24060018 	li	a2,24
8000a6c8:	0800284c 	j	8000a130 <__umoddi3+0x38>
8000a6cc:	240b0018 	li	t3,24
8000a6d0:	24030008 	li	v1,8
8000a6d4:	080028c7 	j	8000a31c <__umoddi3+0x224>
8000a6d8:	24060008 	li	a2,8
8000a6dc:	080028c7 	j	8000a31c <__umoddi3+0x224>
8000a6e0:	24060018 	li	a2,24
8000a6e4:	24060008 	li	a2,8
8000a6e8:	0800284c 	j	8000a130 <__umoddi3+0x38>
8000a6ec:	240b0008 	li	t3,8
8000a6f0:	008e102b 	sltu	v0,a0,t6
8000a6f4:	1040ff95 	beqz	v0,8000a54c <__umoddi3+0x454>
8000a6f8:	00000000 	nop
8000a6fc:	25adfffe 	addiu	t5,t5,-2
8000a700:	08002954 	j	8000a550 <__umoddi3+0x458>
8000a704:	00862021 	addu	a0,a0,a2
8000a708:	01ac482b 	sltu	t1,t5,t4
8000a70c:	1120ff76 	beqz	t1,8000a4e8 <__umoddi3+0x3f0>
8000a710:	2508fffe 	addiu	t0,t0,-2
8000a714:	0800293b 	j	8000a4ec <__umoddi3+0x3f4>
8000a718:	01a66821 	addu	t5,t5,a2
8000a71c:	080028eb 	j	8000a3ac <__umoddi3+0x2b4>
8000a720:	00c73021 	addu	a2,a2,a3
8000a724:	08002874 	j	8000a1d0 <__umoddi3+0xd8>
8000a728:	01675821 	addu	t3,t3,a3
8000a72c:	00a01821 	move	v1,a1
8000a730:	03e00008 	jr	ra
8000a734:	00000000 	nop
8000a738:	00a9102b 	sltu	v0,a1,t1
8000a73c:	1440ffd7 	bnez	v0,8000a69c <__umoddi3+0x5a4>
8000a740:	00000000 	nop
8000a744:	08002962 	j	8000a588 <__umoddi3+0x490>
8000a748:	00001021 	move	v0,zero
