
mn10300-elf.x:     file format elf32-mn10300


Disassembly of section .text:

00001400 <_start>:
    1400:	fc dc 10 e9 	mov	59664,a0
    1404:	00 00 
    1406:	f2 f0       	mov	a0,sp
    1408:	dd 91 01 00 	call	1599 <__startmain>,[],0
    140c:	00 00 00 
    140f:	81          	mov	d0,d1

00001410 <___r_exit>:
    1410:	80 01       	mov	1,d0
    1412:	f0 c0       	syscall	
    1414:	f0 fc       	rets	

00001416 <___r_read>:
    1416:	80 04       	mov	4,d0
    1418:	f0 c0       	syscall	
    141a:	f0 fc       	rets	

0000141c <___r_write>:
    141c:	80 05       	mov	5,d0
    141e:	f0 c0       	syscall	
    1420:	f0 fc       	rets	

00001422 <___r_open>:
    1422:	80 02       	mov	2,d0
    1424:	f0 c0       	syscall	
    1426:	f0 fc       	rets	

00001428 <___r_close>:
    1428:	80 03       	mov	3,d0
    142a:	f0 c0       	syscall	
    142c:	f0 fc       	rets	

0000142e <___exit>:
    142e:	f8 fe f4    	add	-12,sp

00001431 <.LCFI0>:
    1431:	81          	mov	d0,d1

00001432 <.Loc.18.1>:
    1432:	80 00       	mov	0,d0

00001434 <.LVL1>:
    1434:	dd dc ff ff 	call	1410 <___r_exit>,[],0
    1438:	ff 00 00 

0000143b <___read>:
    143b:	f8 fe ec    	add	-20,sp

0000143e <.LCFI1>:
    143e:	f1 e0       	mov	d0,a0

00001440 <.Loc.22.1>:
    1440:	46 0c       	mov	d1,(12,sp)
    1442:	58 20       	mov	(32,sp),d0

00001444 <.LVL4>:
    1444:	42 10       	mov	d0,(16,sp)
    1446:	80 00       	mov	0,d0
    1448:	f1 d1       	mov	a0,d1

0000144a <.LVL5>:
    144a:	dd cc ff ff 	call	1416 <___r_read>,[],0
    144e:	ff 00 00 

00001451 <.LVL6>:
    1451:	df 00 14    	ret	[],20

00001454 <___write>:
    1454:	f8 fe ec    	add	-20,sp

00001457 <.LCFI2>:
    1457:	f1 e0       	mov	d0,a0

00001459 <.Loc.26.1>:
    1459:	46 0c       	mov	d1,(12,sp)
    145b:	58 20       	mov	(32,sp),d0

0000145d <.LVL8>:
    145d:	42 10       	mov	d0,(16,sp)
    145f:	80 00       	mov	0,d0
    1461:	f1 d1       	mov	a0,d1

00001463 <.LVL9>:
    1463:	dd b9 ff ff 	call	141c <___r_write>,[],0
    1467:	ff 00 00 

0000146a <.LVL10>:
    146a:	df 00 14    	ret	[],20

0000146d <___open>:
    146d:	f8 fe ec    	add	-20,sp

00001470 <.LCFI3>:
    1470:	f1 e0       	mov	d0,a0

00001472 <.Loc.30.1>:
    1472:	46 0c       	mov	d1,(12,sp)
    1474:	58 20       	mov	(32,sp),d0

00001476 <.LVL12>:
    1476:	42 10       	mov	d0,(16,sp)
    1478:	80 00       	mov	0,d0
    147a:	f1 d1       	mov	a0,d1

0000147c <.LVL13>:
    147c:	dd a6 ff ff 	call	1422 <___r_open>,[],0
    1480:	ff 00 00 

00001483 <.LVL14>:
    1483:	df 00 14    	ret	[],20

00001486 <___close>:
    1486:	f8 fe f4    	add	-12,sp

00001489 <.LCFI4>:
    1489:	81          	mov	d0,d1

0000148a <.Loc.34.1>:
    148a:	80 00       	mov	0,d0

0000148c <.LVL16>:
    148c:	dd 9c ff ff 	call	1428 <___r_close>,[],0
    1490:	ff 00 00 

00001493 <.LVL17>:
    1493:	df 00 0c    	ret	[],12

00001496 <__exit>:
    1496:	f8 fe f4    	add	-12,sp

00001499 <.LCFI5>:
    1499:	cd 95 ff 00 	call	142e <___exit>,[],0
    149d:	00 

0000149e <_read>:
    149e:	f8 fe f0    	add	-16,sp

000014a1 <.LCFI6>:
    14a1:	5c 1c       	mov	(28,sp),a0
    14a3:	43 0c       	mov	a0,(12,sp)
    14a5:	cd 96 ff 00 	call	143b <___read>,[],0
    14a9:	00 

000014aa <.LVL21>:
    14aa:	df 00 10    	ret	[],16

000014ad <_write>:
    14ad:	f8 fe f0    	add	-16,sp

000014b0 <.LCFI7>:
    14b0:	5c 1c       	mov	(28,sp),a0
    14b2:	43 0c       	mov	a0,(12,sp)
    14b4:	cd a0 ff 00 	call	1454 <___write>,[],0
    14b8:	00 

000014b9 <.LVL23>:
    14b9:	df 00 10    	ret	[],16

000014bc <_open>:
    14bc:	f8 fe f0    	add	-16,sp

000014bf <.LCFI8>:
    14bf:	5c 1c       	mov	(28,sp),a0
    14c1:	43 0c       	mov	a0,(12,sp)
    14c3:	cd aa ff 00 	call	146d <___open>,[],0
    14c7:	00 

000014c8 <.LVL25>:
    14c8:	df 00 10    	ret	[],16

000014cb <_close>:
    14cb:	f8 fe f4    	add	-12,sp

000014ce <.LCFI9>:
    14ce:	cd b8 ff 00 	call	1486 <___close>,[],0
    14d2:	00 

000014d3 <.LVL27>:
    14d3:	df 00 0c    	ret	[],12

000014d6 <_fstat>:
    14d6:	f8 fe f0    	add	-16,sp

000014d9 <.LCFI10>:
    14d9:	80 3c       	mov	60,d0

000014db <.LVL29>:
    14db:	42 0c       	mov	d0,(12,sp)
    14dd:	84          	mov	d1,d0
    14de:	85 00       	mov	0,d1

000014e0 <.LVL30>:
    14e0:	dd 05 01 00 	call	15e5 <_memset>,[],0
    14e4:	00 00 00 

000014e7 <.LVL31>:
    14e7:	80 00       	mov	0,d0
    14e9:	df 00 10    	ret	[],16

000014ec <_lseek>:
    14ec:	84          	mov	d1,d0

000014ed <.LVL33>:
    14ed:	de 00 00    	retf	[],0

000014f0 <_sbrk>:
    14f0:	fc a5 00 9c 	mov	(9c00 <__gp>),d1
    14f4:	00 00 

000014f6 <.Loc.80.1>:
    14f6:	e4          	add	d1,d0

000014f7 <.LVL36>:
    14f7:	fc 81 00 9c 	mov	d0,(9c00 <__gp>)
    14fb:	00 00 

000014fd <.Loc.82.1>:
    14fd:	f1 e4       	mov	d1,a0
    14ff:	84          	mov	d1,d0
    1500:	de 00 00    	retf	[],0

00001503 <_isatty>:
    1503:	80 01       	mov	1,d0

00001505 <.LVL38>:
    1505:	de 00 00    	retf	[],0

00001508 <__read>:
    1508:	f8 fe f0    	add	-16,sp

0000150b <.LCFI11>:
    150b:	5c 1c       	mov	(28,sp),a0
    150d:	43 0c       	mov	a0,(12,sp)
    150f:	cd 8f ff 00 	call	149e <_read>,[],0
    1513:	00 

00001514 <.LVL40>:
    1514:	df 00 10    	ret	[],16

00001517 <__write>:
    1517:	f8 fe f0    	add	-16,sp

0000151a <.LCFI12>:
    151a:	5c 1c       	mov	(28,sp),a0
    151c:	43 0c       	mov	a0,(12,sp)
    151e:	cd 8f ff 00 	call	14ad <_write>,[],0
    1522:	00 

00001523 <.LVL42>:
    1523:	df 00 10    	ret	[],16

00001526 <__open>:
    1526:	f8 fe f0    	add	-16,sp

00001529 <.LCFI13>:
    1529:	5c 1c       	mov	(28,sp),a0
    152b:	43 0c       	mov	a0,(12,sp)
    152d:	cd 8f ff 00 	call	14bc <_open>,[],0
    1531:	00 

00001532 <.LVL44>:
    1532:	df 00 10    	ret	[],16

00001535 <__close>:
    1535:	f8 fe f4    	add	-12,sp

00001538 <.LCFI14>:
    1538:	cd 93 ff 00 	call	14cb <_close>,[],0
    153c:	00 

0000153d <.LVL46>:
    153d:	df 00 0c    	ret	[],12

00001540 <__fstat>:
    1540:	f8 fe f4    	add	-12,sp

00001543 <.LCFI15>:
    1543:	cd 93 ff 00 	call	14d6 <_fstat>,[],0
    1547:	00 

00001548 <.LVL48>:
    1548:	df 00 0c    	ret	[],12

0000154b <__lseek>:
    154b:	f8 fe f0    	add	-16,sp

0000154e <.LCFI16>:
    154e:	5c 1c       	mov	(28,sp),a0
    1550:	43 0c       	mov	a0,(12,sp)
    1552:	cd 9a ff 00 	call	14ec <_lseek>,[],0
    1556:	00 

00001557 <.LVL50>:
    1557:	df 00 10    	ret	[],16

0000155a <__sbrk>:
    155a:	f8 fe f4    	add	-12,sp

0000155d <.LCFI17>:
    155d:	cd 93 ff 00 	call	14f0 <_sbrk>,[],0
    1561:	00 

00001562 <.LVL52>:
    1562:	f1 d0       	mov	a0,d0

00001564 <.Loc.117.1>:
    1564:	df 00 0c    	ret	[],12

00001567 <__isatty>:
    1567:	f8 fe f4    	add	-12,sp

0000156a <.LCFI18>:
    156a:	cd 99 ff 00 	call	1503 <_isatty>,[],0
    156e:	00 

0000156f <.LVL54>:
    156f:	df 00 0c    	ret	[],12

00001572 <_main>:
    1572:	f8 fe f0    	add	-16,sp

00001575 <.LCFI19>:
    1575:	fc cc 4c 95 	mov	38220,d0
    1579:	00 00 
    157b:	42 0c       	mov	d0,(12,sp)
    157d:	fc cc 20 95 	mov	38176,d0
    1581:	00 00 
    1583:	fc a5 04 9c 	mov	(9c04 <_data_value>),d1
    1587:	00 00 
    1589:	dd cf 00 00 	call	1658 <_printf>,[],0
    158d:	00 00 00 

00001590 <.LVL55>:
    1590:	80 00       	mov	0,d0
    1592:	dd 2c 00 00 	call	15be <_exit>,[],0
    1596:	00 00 00 

00001599 <__startmain>:
    1599:	f8 fe f0    	add	-16,sp

0000159c <.LBB4>:
    159c:	fc cc 08 e5 	mov	58632,d0
    15a0:	00 00 
    15a2:	fc c4 c0 a4 	sub	42176,d0
    15a6:	00 00 
    15a8:	42 0c       	mov	d0,(12,sp)
    15aa:	fc cc c0 a4 	mov	42176,d0
    15ae:	00 00 
    15b0:	85 00       	mov	0,d1
    15b2:	dd 33 00 00 	call	15e5 <_memset>,[],0
    15b6:	00 00 00 

000015b9 <.LBE4>:
    15b9:	cd b9 ff 00 	call	1572 <_main>,[],0
    15bd:	00 

000015be <_exit>:
    15be:	cf 80       	movm	[d2],(sp)

000015c0 <.LCFI0>:
    15c0:	f8 fe f4    	add	-12,sp

000015c3 <.LCFI1>:
    15c3:	82          	mov	d0,d2

000015c4 <.Loc.61.1>:
    15c4:	04          	clr	d1
    15c5:	dd 84 1b 00 	call	3149 <___call_exitprocs>,[],0
    15c9:	00 00 00 

000015cc <.LVL1>:
    15cc:	fc a4 58 95 	mov	(9558 <__global_impure_ptr>),d0
    15d0:	00 00 
    15d2:	f1 e1       	mov	d0,a1
    15d4:	f8 21 3c    	mov	(60,a1),a0
    15d7:	b0 00       	cmp	0,a0
    15d9:	c8 04       	beq	15dd <.L2>

000015db <.Loc.64.1>:
    15db:	f0 f0       	calls	(a0)

000015dd <.L2>:
    15dd:	88          	mov	d2,d0
    15de:	dd b8 fe ff 	call	1496 <__exit>,[],0
    15e2:	ff 00 00 

000015e5 <_memset>:
    15e5:	cf f0       	movm	[d2,d3,a2,a3],(sp)

000015e7 <.Lend_of_prologue>:
    15e7:	83          	mov	d0,d3

000015e8 <.Loc.10.1>:
    15e8:	86          	mov	d1,d2

000015e9 <.Loc.11.1>:
    15e9:	5d 1c       	mov	(28,sp),a1

000015eb <.Loc.12.1>:
    15eb:	f1 ec       	mov	d3,a0

000015ed <.Loc.14.1>:
    15ed:	b5 03       	cmp	3,a1

000015ef <.Loc.15.1>:
    15ef:	c7 32       	bls	1621 <.L41>

000015f1 <.Loc.16.1>:
    15f1:	f8 ef 03    	btst	3,d3

000015f4 <.Loc.17.1>:
    15f4:	c9 2d       	bne	1621 <.L41>

000015f6 <.Loc.18.1>:
    15f6:	16          	extbu	d2

000015f7 <.Loc.19.1>:
    15f7:	89          	mov	d2,d1

000015f8 <.Loc.20.1>:
    15f8:	f8 c1 08    	asl	8,d1

000015fb <.Loc.21.1>:
    15fb:	f2 19       	or	d2,d1

000015fd <.Loc.22.1>:
    15fd:	84          	mov	d1,d0

000015fe <.Loc.23.1>:
    15fe:	f8 c0 10    	asl	16,d0

00001601 <.Loc.24.1>:
    1601:	f2 11       	or	d0,d1

00001603 <.Loc.25.1>:
    1603:	b5 0f       	cmp	15,a1

00001605 <.Loc.26.1>:
    1605:	c7 10       	bls	1615 <.L36>

00001607 <.Loc.27.1>:
    1607:	db          	setlb	

00001608 <.Loc.28.1>:
    1608:	64          	mov	d1,(a0)

00001609 <.Loc.29.1>:
    1609:	50          	inc4	a0

0000160a <.Loc.30.1>:
    160a:	64          	mov	d1,(a0)

0000160b <.Loc.31.1>:
    160b:	50          	inc4	a0

0000160c <.Loc.32.1>:
    160c:	64          	mov	d1,(a0)

0000160d <.Loc.33.1>:
    160d:	50          	inc4	a0

0000160e <.Loc.34.1>:
    160e:	64          	mov	d1,(a0)

0000160f <.Loc.35.1>:
    160f:	50          	inc4	a0

00001610 <.Loc.36.1>:
    1610:	21 f0       	add	-16,a1

00001612 <.Loc.37.1>:
    1612:	b5 0f       	cmp	15,a1

00001614 <.Loc.38.1>:
    1614:	d5          	lhi	

00001615 <.L36>:
    1615:	b5 03       	cmp	3,a1

00001617 <.Loc.41.1>:
    1617:	c7 0a       	bls	1621 <.L41>

00001619 <.Loc.42.1>:
    1619:	db          	setlb	

0000161a <.Loc.43.1>:
    161a:	64          	mov	d1,(a0)

0000161b <.Loc.44.1>:
    161b:	50          	inc4	a0

0000161c <.Loc.45.1>:
    161c:	21 fc       	add	-4,a1

0000161e <.Loc.46.1>:
    161e:	b5 03       	cmp	3,a1

00001620 <.Loc.47.1>:
    1620:	d5          	lhi	

00001621 <.L41>:
    1621:	b5 00       	cmp	0,a1

00001623 <.Loc.51.1>:
    1623:	c8 0d       	beq	1630 <.Lepilogue>

00001625 <.Loc.52.1>:
    1625:	db          	setlb	

00001626 <.Loc.53.1>:
    1626:	f0 58       	movbu	d2,(a0)

00001628 <.Loc.54.1>:
    1628:	41          	inc	a0

00001629 <.Loc.55.1>:
    1629:	fc d5 01 00 	sub	1,a1
    162d:	00 00 

0000162f <.Loc.56.1>:
    162f:	d9          	lne	

00001630 <.Lepilogue>:
    1630:	f1 ec       	mov	d3,a0

00001632 <.Loc.59.1>:
    1632:	df f0 10    	ret	[d2,d3,a2,a3],16

00001635 <__printf_r>:
    1635:	cf 20       	movm	[a2],(sp)

00001637 <.LCFI0>:
    1637:	f8 fe e8    	add	-24,sp

0000163a <.LCFI1>:
    163a:	42 20       	mov	d0,(32,sp)
    163c:	46 24       	mov	d1,(36,sp)
    163e:	3c          	mov	sp,a0
    163f:	20 28       	add	40,a0

00001641 <.Loc.34.1>:
    1641:	43 14       	mov	a0,(20,sp)

00001643 <.Loc.35.1>:
    1643:	f1 e2       	mov	d0,a2
    1645:	f8 26 08    	mov	(8,a2),a1
    1648:	46 0c       	mov	d1,(12,sp)
    164a:	43 10       	mov	a0,(16,sp)
    164c:	f1 d5       	mov	a1,d1

0000164e <.LVL1>:
    164e:	dd 2f 00 00 	call	167d <__vfprintf_r>,[],0
    1652:	00 00 00 

00001655 <.LVL2>:
    1655:	df 20 1c    	ret	[a2],28

00001658 <_printf>:
    1658:	f8 fe e8    	add	-24,sp

0000165b <.LCFI2>:
    165b:	42 1c       	mov	d0,(28,sp)
    165d:	46 20       	mov	d1,(32,sp)
    165f:	3d          	mov	sp,a1
    1660:	21 20       	add	32,a1

00001662 <.Loc.48.1>:
    1662:	fc a0 08 9c 	mov	(9c08 <__impure_ptr>),a0
    1666:	00 00 

00001668 <.LVL4>:
    1668:	47 14       	mov	a1,(20,sp)

0000166a <.Loc.52.1>:
    166a:	f8 04 08    	mov	(8,a0),d1
    166d:	42 0c       	mov	d0,(12,sp)
    166f:	47 10       	mov	a1,(16,sp)
    1671:	f1 d0       	mov	a0,d0

00001673 <.LVL5>:
    1673:	dd 0a 00 00 	call	167d <__vfprintf_r>,[],0
    1677:	00 00 00 

0000167a <.LVL6>:
    167a:	df 00 18    	ret	[],24

0000167d <__vfprintf_r>:
    167d:	cf f0       	movm	[d2,d3,a2,a3],(sp)

0000167f <.LCFI0>:
    167f:	fa fe cc fa 	add	-1332,sp

00001683 <.LCFI1>:
    1683:	fa 91 48 05 	mov	d0,(1352,sp)
    1687:	fa 95 4c 05 	mov	d1,(1356,sp)

0000168b <.Loc.575.1>:
    168b:	dd 57 38 00 	call	4ee2 <__localeconv_r>,[],0
    168f:	00 00 00 

00001692 <.LVL1>:
    1692:	f0 00       	mov	(a0),a0
    1694:	43 5c       	mov	a0,(92,sp)

00001696 <.LVL2>:
    1696:	f1 d0       	mov	a0,d0
    1698:	dd 3b 4d 00 	call	63d3 <_strlen>,[],0
    169c:	00 00 00 

0000169f <.LVL3>:
    169f:	42 68       	mov	d0,(104,sp)

000016a1 <.LVL4>:
    16a1:	08          	clr	d2
    16a2:	4a 58       	mov	d2,(88,sp)
    16a4:	4a 6c       	mov	d2,(108,sp)

000016a6 <.LVL5>:
    16a6:	fa b2 48 05 	mov	(1352,sp),a2
    16aa:	f1 aa       	cmp	d2,a2
    16ac:	c8 0b       	beq	16b7 <.L0_0>

000016ae <.Loc.710.1>:
    16ae:	f8 02 38    	mov	(56,a2),d0

000016b1 <.LVL6>:
    16b1:	a8          	cmp	d2,d0
    16b2:	c9 05       	bne	16b7 <.L0_0>
    16b4:	cc 85 03    	jmp	1a39 <.L414>

000016b7 <.L0_0>:
    16b7:	fa b3 4c 05 	mov	(1356,sp),a3
    16bb:	f8 63 0c    	movhu	(12,a3),d0
    16be:	81          	mov	d0,d1
    16bf:	fa e1 00 20 	and	8192,d1
    16c3:	19          	exth	d1
    16c4:	a5 00       	cmp	0,d1
    16c6:	c9 17       	bne	16dd <.L3>

000016c8 <.Loc.713.1>:
    16c8:	81          	mov	d0,d1
    16c9:	fa e5 00 20 	or	8192,d1
    16cd:	84          	mov	d1,d0
    16ce:	f8 77 0c    	movhu	d1,(12,a3)
    16d1:	f8 07 64    	mov	(100,a3),d1
    16d4:	fc e1 ff df 	and	-8193,d1
    16d8:	ff ff 
    16da:	f8 17 64    	mov	d1,(100,a3)

000016dd <.L3>:
    16dd:	81          	mov	d0,d1
    16de:	f8 e1 08    	and	8,d1
    16e1:	19          	exth	d1
    16e2:	a5 00       	cmp	0,d1
    16e4:	c9 05       	bne	16e9 <.L0_1>
    16e6:	cc 5f 03    	jmp	1a45 <.L4>

000016e9 <.L0_1>:
    16e9:	fa b2 4c 05 	mov	(1356,sp),a2
    16ed:	f8 06 10    	mov	(16,a2),d1
    16f0:	a5 00       	cmp	0,d1
    16f2:	c9 05       	bne	16f7 <.L0_2>
    16f4:	cc 51 03    	jmp	1a45 <.L4>

000016f7 <.L0_2>:
    16f7:	81          	mov	d0,d1
    16f8:	f8 e1 1a    	and	26,d1
    16fb:	a5 0a       	cmp	10,d1
    16fd:	c9 05       	bne	1702 <.L0_3>
    16ff:	cc a0 02    	jmp	199f <.L415>

00001702 <.L0_3>:
    1702:	3e          	mov	sp,a2
    1703:	fa d2 34 01 	add	308,a2
    1707:	4b 98       	mov	a2,(152,sp)

00001709 <.Loc.743.1>:
    1709:	00          	clr	d0
    170a:	42 a0       	mov	d0,(160,sp)

0000170c <.Loc.744.1>:
    170c:	42 9c       	mov	d0,(156,sp)

0000170e <.LVL8>:
    170e:	fa b3 50 05 	mov	(1360,sp),a3
    1712:	4f 2c       	mov	a3,(44,sp)

00001714 <.Loc.586.1>:
    1714:	42 4c       	mov	d0,(76,sp)

00001716 <.Loc.597.1>:
    1716:	42 74       	mov	d0,(116,sp)

00001718 <.Loc.581.1>:
    1718:	42 70       	mov	d0,(112,sp)

0000171a <.Loc.745.1>:
    171a:	42 3c       	mov	d0,(60,sp)

0000171c <.Loc.742.1>:
    171c:	99          	mov	a2,a1

0000171d <.L382>:
    171d:	5e 2c       	mov	(44,sp),a2
    171f:	f0 42       	movbu	(a2),d0
    1721:	a0 00       	cmp	0,d0
    1723:	c9 05       	bne	1728 <.L0_4>
    1725:	cc 5f 02    	jmp	1984 <.L0_27>

00001728 <.L0_4>:
    1728:	a0 25       	cmp	37,d0
    172a:	c9 05       	bne	172f <.L0_5>
    172c:	cc 58 02    	jmp	1984 <.L0_27>

0000172f <.L0_5>:
    172f:	49          	inc	a2

00001730 <.Loc.772.1>:
    1730:	f0 42       	movbu	(a2),d0
    1732:	a0 00       	cmp	0,d0
    1734:	c9 05       	bne	1739 <.L0_6>
    1736:	cc 60 02    	jmp	1996 <.L416>

00001739 <.L0_6>:
    1739:	a0 25       	cmp	37,d0
    173b:	c9 f4       	bne	172f <.L0_5>
    173d:	f1 da       	mov	a2,d2
    173f:	5c 2c       	mov	(44,sp),a0
    1741:	f1 12       	sub	a0,d2

00001743 <.L14>:
    1743:	aa 00       	cmp	0,d2
    1745:	c8 21       	beq	1766 <.L12>

00001747 <.Loc.776.1>:
    1747:	5f 2c       	mov	(44,sp),a3
    1749:	f0 1d       	mov	a3,(a1)
    174b:	f8 19 04    	mov	d2,(4,a1)
    174e:	5b a0       	mov	(160,sp),d3
    1750:	eb          	add	d2,d3
    1751:	4e a0       	mov	d3,(160,sp)

00001753 <.LVL14>:
    1753:	58 9c       	mov	(156,sp),d0
    1755:	40          	inc	d0
    1756:	42 9c       	mov	d0,(156,sp)
    1758:	a0 07       	cmp	7,d0
    175a:	c3 05       	ble	175f <.L0_7>
    175c:	cc 61 03    	jmp	1abd <.L16>

0000175f <.L0_7>:
    175f:	21 08       	add	8,a1

00001761 <.LVL15>:
    1761:	58 3c       	mov	(60,sp),d0
    1763:	e8          	add	d2,d0
    1764:	42 3c       	mov	d0,(60,sp)

00001766 <.L12>:
    1766:	f0 42       	movbu	(a2),d0
    1768:	a0 00       	cmp	0,d0
    176a:	c9 05       	bne	176f <.L0_8>
    176c:	cc 19 03    	jmp	1a85 <.L19>

0000176f <.L0_8>:
    176f:	98          	mov	a2,a0
    1770:	41          	inc	a0
    1771:	43 2c       	mov	a0,(44,sp)

00001773 <.LVL18>:
    1773:	00          	clr	d0
    1774:	f8 92 79    	movbu	d0,(121,sp)

00001777 <.LVL19>:
    1777:	8f ff       	mov	-1,d3

00001779 <.Loc.791.1>:
    1779:	9f 00       	mov	0,a3
    177b:	4f 38       	mov	a3,(56,sp)

0000177d <.Loc.789.1>:
    177d:	4f 28       	mov	a3,(40,sp)
    177f:	f8 4a 01    	movbu	(1,a2),d2

00001782 <.Loc.877.1>:
    1782:	80 2b       	mov	43,d0

00001784 <.Loc.823.1>:
    1784:	85 20       	mov	32,d1
    1786:	f2 f6       	mov	d1,mdr
    1788:	92          	mov	a0,a2

00001789 <.LVL20>:
    1789:	49          	inc	a2

0000178a <.L381>:
    178a:	f1 e8       	mov	d2,a0
    178c:	20 e0       	add	-32,a0
    178e:	b0 58       	cmp	88,a0
    1790:	c5 05       	bhi	1795 <.L0_9>
    1792:	cc f7 01    	jmp	1989 <.L417>

00001795 <.L0_9>:
    1795:	4b 2c       	mov	a2,(44,sp)
    1797:	4a 54       	mov	d2,(84,sp)

00001799 <.Loc.1490.1>:
    1799:	aa 00       	cmp	0,d2
    179b:	c9 05       	bne	17a0 <.L0_10>
    179d:	cc e8 02    	jmp	1a85 <.L19>

000017a0 <.L0_10>:
    17a0:	f8 9a a4    	movbu	d2,(164,sp)

000017a3 <.LVL23>:
    17a3:	00          	clr	d0
    17a4:	f8 92 79    	movbu	d0,(121,sp)

000017a7 <.Loc.1497.1>:
    17a7:	90 01       	mov	1,a0
    17a9:	43 30       	mov	a0,(48,sp)

000017ab <.Loc.1495.1>:
    17ab:	43 34       	mov	a0,(52,sp)

000017ad <.Loc.1493.1>:
    17ad:	3e          	mov	sp,a2

000017ae <.LVL24>:
    17ae:	fa d2 a4 00 	add	164,a2
    17b2:	4b 40       	mov	a2,(64,sp)

000017b4 <.LVL25>:
    17b4:	9a 00       	mov	0,a2

000017b6 <.LVL26>:
    17b6:	4b 50       	mov	a2,(80,sp)
    17b8:	4b 60       	mov	a2,(96,sp)

000017ba <.L160>:
    17ba:	5a 28       	mov	(40,sp),d2
    17bc:	f8 e2 02    	and	2,d2
    17bf:	4a 44       	mov	d2,(68,sp)
    17c1:	c8 08       	beq	17c9 <.L161>

000017c3 <.Loc.1519.1>:
    17c3:	5c 30       	mov	(48,sp),a0
    17c5:	20 02       	add	2,a0
    17c7:	43 30       	mov	a0,(48,sp)

000017c9 <.L161>:
    17c9:	5a 28       	mov	(40,sp),d2
    17cb:	f8 e2 84    	and	132,d2
    17ce:	4a 48       	mov	d2,(72,sp)
    17d0:	c8 05       	beq	17d5 <.L0_11>
    17d2:	cc 88 09    	jmp	215a <.L405>

000017d5 <.L0_11>:
    17d5:	5e 38       	mov	(56,sp),a2
    17d7:	5a 30       	mov	(48,sp),d2
    17d9:	f1 2a       	sub	d2,a2
    17db:	9b          	mov	a2,a3

000017dc <.LVL29>:
    17dc:	ba 00       	cmp	0,a2
    17de:	c1 05       	bgt	17e3 <.L0_12>
    17e0:	cc 7a 09    	jmp	215a <.L405>

000017e3 <.L0_12>:
    17e3:	5b a0       	mov	(160,sp),d3
    17e5:	5a 9c       	mov	(156,sp),d2

000017e7 <.Loc.1523.1>:
    17e7:	ba 10       	cmp	16,a2
    17e9:	c1 05       	bgt	17ee <.L0_13>
    17eb:	cc 38 14    	jmp	2c23 <.L418>

000017ee <.L0_13>:
    17ee:	fc de 00 97 	mov	38656,a2
    17f2:	00 00 

000017f4 <.LVL31>:
    17f4:	4b 64       	mov	a2,(100,sp)

000017f6 <.Loc.1523.1>:
    17f6:	9a 10       	mov	16,a2
    17f8:	8c          	mov	d3,d0
    17f9:	fa b7 48 05 	mov	(1352,sp),d3

000017fd <.L166>:
    17fd:	fc cd 00 97 	mov	38656,d1
    1801:	00 00 
    1803:	65          	mov	d1,(a1)
    1804:	f8 39 04    	mov	a2,(4,a1)
    1807:	28 10       	add	16,d0
    1809:	42 a0       	mov	d0,(160,sp)

0000180b <.LVL32>:
    180b:	48          	inc	d2
    180c:	4a 9c       	mov	d2,(156,sp)
    180e:	aa 07       	cmp	7,d2
    1810:	c3 05       	ble	1815 <.L0_14>
    1812:	cc 92 08    	jmp	20a4 <.L164>

00001815 <.L0_14>:
    1815:	21 08       	add	8,a1

00001817 <.LVL33>:
    1817:	23 f0       	add	-16,a3
    1819:	bf 10       	cmp	16,a3
    181b:	c1 e2       	bgt	17fd <.L166>

0000181d <.L435>:
    181d:	83          	mov	d0,d3

0000181e <.L163>:
    181e:	5e 64       	mov	(100,sp),a2
    1820:	f0 19       	mov	a2,(a1)
    1822:	f8 3d 04    	mov	a3,(4,a1)
    1825:	f1 5f       	add	a3,d3
    1827:	4e a0       	mov	d3,(160,sp)

00001829 <.LVL35>:
    1829:	48          	inc	d2
    182a:	4a 9c       	mov	d2,(156,sp)
    182c:	aa 07       	cmp	7,d2
    182e:	c3 05       	ble	1833 <.L0_15>
    1830:	cc 08 09    	jmp	2138 <.L167>

00001833 <.L0_15>:
    1833:	21 08       	add	8,a1

00001835 <.L162>:
    1835:	f8 b8 79    	movbu	(121,sp),d0

00001838 <.LVL37>:
    1838:	a0 00       	cmp	0,d0

0000183a <.LVL38>:
    183a:	c8 1d       	beq	1857 <.L168>

0000183c <.Loc.1527.1>:
    183c:	3e          	mov	sp,a2
    183d:	22 79       	add	121,a2
    183f:	f0 19       	mov	a2,(a1)
    1841:	80 01       	mov	1,d0

00001843 <.LVL39>:
    1843:	f8 11 04    	mov	d0,(4,a1)
    1846:	e3          	add	d0,d3
    1847:	4e a0       	mov	d3,(160,sp)

00001849 <.LVL40>:
    1849:	58 9c       	mov	(156,sp),d0
    184b:	40          	inc	d0
    184c:	42 9c       	mov	d0,(156,sp)
    184e:	a0 07       	cmp	7,d0
    1850:	c3 05       	ble	1855 <.L0_16>
    1852:	cc c3 0b    	jmp	2415 <.L169>

00001855 <.L0_16>:
    1855:	21 08       	add	8,a1

00001857 <.L168>:
    1857:	5a 44       	mov	(68,sp),d2
    1859:	aa 00       	cmp	0,d2
    185b:	c8 1d       	beq	1878 <.L170>

0000185d <.Loc.1529.1>:
    185d:	3c          	mov	sp,a0
    185e:	20 7a       	add	122,a0
    1860:	f0 11       	mov	a0,(a1)
    1862:	80 02       	mov	2,d0

00001864 <.LVL42>:
    1864:	f8 11 04    	mov	d0,(4,a1)
    1867:	e3          	add	d0,d3
    1868:	4e a0       	mov	d3,(160,sp)

0000186a <.LVL43>:
    186a:	58 9c       	mov	(156,sp),d0
    186c:	40          	inc	d0
    186d:	42 9c       	mov	d0,(156,sp)
    186f:	a0 07       	cmp	7,d0
    1871:	c3 05       	ble	1876 <.L0_17>
    1873:	cc 70 0b    	jmp	23e3 <.L171>

00001876 <.L0_17>:
    1876:	21 08       	add	8,a1

00001878 <.L170>:
    1878:	5a 48       	mov	(72,sp),d2
    187a:	fa ca 80 00 	cmp	128,d2
    187e:	c9 05       	bne	1883 <.L0_18>
    1880:	cc 64 02    	jmp	1ae4 <.L419>

00001883 <.L0_18>:
    1883:	5e 50       	mov	(80,sp),a2
    1885:	5f 34       	mov	(52,sp),a3
    1887:	f1 3e       	sub	a3,a2

00001889 <.LVL46>:
    1889:	ba 00       	cmp	0,a2
    188b:	c3 4a       	ble	18d5 <.L178>
    188d:	5a 9c       	mov	(156,sp),d2
    188f:	fc dc 10 97 	mov	38672,a0
    1893:	00 00 

00001895 <.Loc.1536.1>:
    1895:	ba 10       	cmp	16,a2
    1897:	c3 29       	ble	18c0 <.L179>

00001899 <.Loc.1536.1>:
    1899:	9f 10       	mov	16,a3
    189b:	8d          	mov	d3,d1
    189c:	f1 db       	mov	a2,d3
    189e:	96          	mov	a1,a2

0000189f <.LVL47>:
    189f:	91          	mov	a0,a1

000018a0 <.L182>:
    18a0:	f0 16       	mov	a1,(a2)
    18a2:	f8 3e 04    	mov	a3,(4,a2)
    18a5:	29 10       	add	16,d1
    18a7:	46 a0       	mov	d1,(160,sp)

000018a9 <.LVL49>:
    18a9:	48          	inc	d2
    18aa:	4a 9c       	mov	d2,(156,sp)
    18ac:	aa 07       	cmp	7,d2
    18ae:	c3 05       	ble	18b3 <.L0_19>
    18b0:	cc be 07    	jmp	206e <.L180>

000018b3 <.L0_19>:
    18b3:	22 08       	add	8,a2

000018b5 <.LVL50>:
    18b5:	2b f0       	add	-16,d3
    18b7:	af 10       	cmp	16,d3
    18b9:	c1 e7       	bgt	18a0 <.L182>

000018bb <.L434>:
    18bb:	94          	mov	a1,a0
    18bc:	99          	mov	a2,a1
    18bd:	f1 ee       	mov	d3,a2

000018bf <.LVL52>:
    18bf:	87          	mov	d1,d3

000018c0 <.L179>:
    18c0:	f0 11       	mov	a0,(a1)
    18c2:	f8 39 04    	mov	a2,(4,a1)
    18c5:	f1 5b       	add	a2,d3
    18c7:	4e a0       	mov	d3,(160,sp)

000018c9 <.LVL54>:
    18c9:	48          	inc	d2
    18ca:	4a 9c       	mov	d2,(156,sp)
    18cc:	aa 07       	cmp	7,d2
    18ce:	c3 05       	ble	18d3 <.L0_20>
    18d0:	cc ec 0a    	jmp	23bc <.L183>

000018d3 <.L0_20>:
    18d3:	21 08       	add	8,a1

000018d5 <.L178>:
    18d5:	58 28       	mov	(40,sp),d0

000018d7 <.LVL56>:
    18d7:	fa e0 00 01 	and	256,d0
    18db:	c8 05       	beq	18e0 <.L0_21>
    18dd:	cc e5 08    	jmp	21c2 <.L184>

000018e0 <.L0_21>:
    18e0:	5e 40       	mov	(64,sp),a2
    18e2:	f0 19       	mov	a2,(a1)
    18e4:	5f 34       	mov	(52,sp),a3
    18e6:	f8 3d 04    	mov	a3,(4,a1)
    18e9:	f1 5f       	add	a3,d3
    18eb:	4e a0       	mov	d3,(160,sp)

000018ed <.LVL57>:
    18ed:	58 9c       	mov	(156,sp),d0
    18ef:	40          	inc	d0
    18f0:	42 9c       	mov	d0,(156,sp)
    18f2:	a0 07       	cmp	7,d0
    18f4:	c3 05       	ble	18f9 <.L0_22>
    18f6:	cc ab 02    	jmp	1ba1 <.L0_36>

000018f9 <.L0_22>:
    18f9:	21 08       	add	8,a1

000018fb <.L186>:
    18fb:	58 28       	mov	(40,sp),d0
    18fd:	f8 e0 04    	and	4,d0
    1900:	c8 5b       	beq	195b <.L0_25>

00001902 <.Loc.1606.1>:
    1902:	5e 38       	mov	(56,sp),a2
    1904:	5a 30       	mov	(48,sp),d2
    1906:	f1 2a       	sub	d2,a2
    1908:	9b          	mov	a2,a3

00001909 <.LVL60>:
    1909:	ba 00       	cmp	0,a2
    190b:	c3 50       	ble	195b <.L0_25>
    190d:	5a 9c       	mov	(156,sp),d2

0000190f <.Loc.1606.1>:
    190f:	ba 10       	cmp	16,a2
    1911:	c1 05       	bgt	1916 <.L0_23>
    1913:	cc 72 13    	jmp	2c85 <.L420>

00001916 <.L0_23>:
    1916:	fc de 00 97 	mov	38656,a2
    191a:	00 00 

0000191c <.LVL61>:
    191c:	4b 64       	mov	a2,(100,sp)

0000191e <.Loc.1606.1>:
    191e:	9a 10       	mov	16,a2
    1920:	8c          	mov	d3,d0
    1921:	fa b7 48 05 	mov	(1352,sp),d3

00001925 <.L260>:
    1925:	fc cd 00 97 	mov	38656,d1
    1929:	00 00 
    192b:	65          	mov	d1,(a1)
    192c:	f8 39 04    	mov	a2,(4,a1)
    192f:	28 10       	add	16,d0
    1931:	42 a0       	mov	d0,(160,sp)

00001933 <.LVL62>:
    1933:	48          	inc	d2
    1934:	4a 9c       	mov	d2,(156,sp)
    1936:	aa 07       	cmp	7,d2
    1938:	c3 05       	ble	193d <.L0_24>
    193a:	cc 99 07    	jmp	20d3 <.L258>

0000193d <.L0_24>:
    193d:	21 08       	add	8,a1

0000193f <.LVL63>:
    193f:	23 f0       	add	-16,a3
    1941:	bf 10       	cmp	16,a3
    1943:	c1 e2       	bgt	1925 <.L260>

00001945 <.L436>:
    1945:	83          	mov	d0,d3
    1946:	5e 64       	mov	(100,sp),a2
    1948:	f0 19       	mov	a2,(a1)
    194a:	f8 3d 04    	mov	a3,(4,a1)
    194d:	f1 5f       	add	a3,d3
    194f:	4e a0       	mov	d3,(160,sp)

00001951 <.LVL65>:
    1951:	48          	inc	d2
    1952:	4a 9c       	mov	d2,(156,sp)
    1954:	aa 07       	cmp	7,d2
    1956:	c3 05       	ble	195b <.L0_25>
    1958:	cc 72 02    	jmp	1bca <.L421>

0000195b <.L0_25>:
    195b:	58 30       	mov	(48,sp),d0
    195d:	5e 38       	mov	(56,sp),a2
    195f:	f1 98       	cmp	a2,d0
    1961:	c2 04       	bge	1965 <.L261>
    1963:	f1 d8       	mov	a2,d0

00001965 <.L261>:
    1965:	5a 3c       	mov	(60,sp),d2
    1967:	e2          	add	d0,d2
    1968:	4a 3c       	mov	d2,(60,sp)

0000196a <.LVL67>:
    196a:	af 00       	cmp	0,d3
    196c:	c8 05       	beq	1971 <.L0_26>
    196e:	cc ce 01    	jmp	1b3c <.L262>

00001971 <.L0_26>:
    1971:	00          	clr	d0
    1972:	42 9c       	mov	d0,(156,sp)

00001974 <.LVL68>:
    1974:	3d          	mov	sp,a1
    1975:	fa d1 34 01 	add	308,a1

00001979 <.L424>:
    1979:	5e 2c       	mov	(44,sp),a2
    197b:	f0 42       	movbu	(a2),d0
    197d:	a0 00       	cmp	0,d0
    197f:	c8 05       	beq	1984 <.L0_27>
    1981:	cc a7 fd    	jmp	1728 <.L0_4>

00001984 <.L0_27>:
    1984:	5e 2c       	mov	(44,sp),a2

00001986 <.LVL71>:
    1986:	cc e0 fd    	jmp	1766 <.L12>

00001989 <.L417>:
    1989:	f1 d1       	mov	a0,d1
    198b:	55          	asl2	d1
    198c:	f1 e4       	mov	d1,a0
    198e:	fc 20 9c 95 	mov	(38300,a0),a0
    1992:	00 00 
    1994:	f0 f4       	jmp	(a0)

00001996 <.L416>:
    1996:	f1 da       	mov	a2,d2
    1998:	5f 2c       	mov	(44,sp),a3
    199a:	f1 1e       	sub	a3,d2
    199c:	cc a7 fd    	jmp	1743 <.L14>

0000199f <.L415>:
    199f:	fa b3 4c 05 	mov	(1356,sp),a3
    19a3:	f8 67 0e    	movhu	(14,a3),d1

000019a6 <.Loc.722.1>:
    19a6:	86          	mov	d1,d2
    19a7:	1a          	exth	d2
    19a8:	aa 00       	cmp	0,d2
    19aa:	c2 05       	bge	19af <.L0_28>
    19ac:	cc 56 fd    	jmp	1702 <.L0_3>

000019af <.L0_28>:
    19af:	fc e0 fd ff 	and	-3,d0
    19b3:	ff ff 
    19b5:	f8 93 d8    	movhu	d0,(216,sp)

000019b8 <.Loc.350.1>:
    19b8:	f8 03 64    	mov	(100,a3),d0
    19bb:	fa 91 30 01 	mov	d0,(304,sp)

000019bf <.Loc.351.1>:
    19bf:	f8 97 da    	movhu	d1,(218,sp)

000019c2 <.Loc.352.1>:
    19c2:	f8 03 1c    	mov	(28,a3),d0
    19c5:	42 e8       	mov	d0,(232,sp)

000019c7 <.Loc.353.1>:
    19c7:	f8 03 24    	mov	(36,a3),d0
    19ca:	42 f0       	mov	d0,(240,sp)

000019cc <.Loc.356.1>:
    19cc:	3c          	mov	sp,a0
    19cd:	fa d0 34 01 	add	308,a0
    19d1:	43 cc       	mov	a0,(204,sp)
    19d3:	43 dc       	mov	a0,(220,sp)

000019d5 <.Loc.357.1>:
    19d5:	2c 00 04    	mov	1024,d0
    19d8:	42 d4       	mov	d0,(212,sp)
    19da:	42 e0       	mov	d0,(224,sp)

000019dc <.Loc.358.1>:
    19dc:	00          	clr	d0
    19dd:	42 e4       	mov	d0,(228,sp)

000019df <.Loc.364.1>:
    19df:	fa b2 50 05 	mov	(1360,sp),a2
    19e3:	4b 0c       	mov	a2,(12,sp)
    19e5:	fa b3 54 05 	mov	(1364,sp),a3

000019e9 <.LVL76>:
    19e9:	4f 10       	mov	a3,(16,sp)
    19eb:	fa b4 48 05 	mov	(1352,sp),d0
    19ef:	3c          	mov	sp,a0
    19f0:	2d cc 00    	mov	204,d1
    19f3:	f1 51       	add	a0,d1
    19f5:	cd 88 fc 00 	call	167d <__vfprintf_r>,[],0
    19f9:	00 

000019fa <.LVL77>:
    19fa:	42 3c       	mov	d0,(60,sp)

000019fc <.LVL78>:
    19fc:	a0 00       	cmp	0,d0
    19fe:	c0 1a       	blt	1a18 <.L0_29>
    1a00:	fa b4 48 05 	mov	(1352,sp),d0

00001a04 <.LVL79>:
    1a04:	3e          	mov	sp,a2
    1a05:	2d cc 00    	mov	204,d1
    1a08:	f1 59       	add	a2,d1
    1a0a:	dd 10 2e 00 	call	481a <__fflush_r>,[],0
    1a0e:	00 00 00 

00001a11 <.LVL80>:
    1a11:	a0 00       	cmp	0,d0
    1a13:	c8 05       	beq	1a18 <.L0_29>
    1a15:	cc 56 11    	jmp	2b6b <.L423>

00001a18 <.L0_29>:
    1a18:	f8 bc d8    	movhu	(216,sp),d0
    1a1b:	f8 e0 40    	and	64,d0
    1a1e:	18          	exth	d0
    1a1f:	a0 00       	cmp	0,d0
    1a21:	c8 0f       	beq	1a30 <.L296>

00001a23 <.Loc.368.1>:
    1a23:	fa b2 4c 05 	mov	(1356,sp),a2
    1a27:	f8 62 0c    	movhu	(12,a2),d0
    1a2a:	f8 e4 40    	or	64,d0
    1a2d:	f8 72 0c    	movhu	d0,(12,a2)

00001a30 <.L296>:
    1a30:	58 3c       	mov	(60,sp),d0
    1a32:	fa fe 34 05 	add	1332,sp
    1a36:	df f0 10    	ret	[d2,d3,a2,a3],16

00001a39 <.L414>:
    1a39:	f1 d8       	mov	a2,d0
    1a3b:	dd 0b 2f 00 	call	4946 <___sinit>,[],0
    1a3f:	00 00 00 

00001a42 <.LVL83>:
    1a42:	cc 75 fc    	jmp	16b7 <.L0_0>

00001a45 <.L4>:
    1a45:	fa b4 48 05 	mov	(1352,sp),d0
    1a49:	fa b5 4c 05 	mov	(1356,sp),d1
    1a4d:	dd e3 15 00 	call	3030 <___swsetup_r>,[],0
    1a51:	00 00 00 

00001a54 <.LVL84>:
    1a54:	a0 00       	cmp	0,d0
    1a56:	c9 5a       	bne	1ab0 <.L266>
    1a58:	fa b2 4c 05 	mov	(1356,sp),a2
    1a5c:	f8 62 0c    	movhu	(12,a2),d0

00001a5f <.Loc.722.1>:
    1a5f:	81          	mov	d0,d1
    1a60:	f8 e1 1a    	and	26,d1
    1a63:	a5 0a       	cmp	10,d1
    1a65:	c8 05       	beq	1a6a <.L0_30>
    1a67:	cc 9b fc    	jmp	1702 <.L0_3>

00001a6a <.L0_30>:
    1a6a:	cc 35 ff    	jmp	199f <.L415>

00001a6d <.L51>:
    1a6d:	5a 38       	mov	(56,sp),d2

00001a6f <.LVL86>:
    1a6f:	f2 32       	not	d2
    1a71:	48          	inc	d2
    1a72:	4a 38       	mov	d2,(56,sp)

00001a74 <.LVL87>:
    1a74:	fa 90 54 05 	mov	a0,(1364,sp)

00001a78 <.L27>:
    1a78:	5a 28       	mov	(40,sp),d2
    1a7a:	f8 e6 04    	or	4,d2
    1a7d:	4a 28       	mov	d2,(40,sp)

00001a7f <.LVL89>:
    1a7f:	f0 4a       	movbu	(a2),d2

00001a81 <.LVL90>:
    1a81:	49          	inc	a2

00001a82 <.LVL91>:
    1a82:	cc 08 fd    	jmp	178a <.L381>

00001a85 <.L19>:
    1a85:	58 a0       	mov	(160,sp),d0
    1a87:	a0 00       	cmp	0,d0
    1a89:	c8 18       	beq	1aa1 <.L18>

00001a8b <.Loc.1619.1>:
    1a8b:	3e          	mov	sp,a2
    1a8c:	fa d2 98 00 	add	152,a2
    1a90:	4b 0c       	mov	a2,(12,sp)
    1a92:	fa b4 48 05 	mov	(1352,sp),d0
    1a96:	fa b5 4c 05 	mov	(1356,sp),d1
    1a9a:	dd 7c 49 00 	call	6416 <___sprint_r>,[],0
    1a9e:	00 00 00 

00001aa1 <.L18>:
    1aa1:	fa b3 4c 05 	mov	(1356,sp),a3
    1aa5:	f8 63 0c    	movhu	(12,a3),d0
    1aa8:	f8 e0 40    	and	64,d0
    1aab:	18          	exth	d0
    1aac:	a0 00       	cmp	0,d0
    1aae:	c8 82       	beq	1a30 <.L296>

00001ab0 <.L266>:
    1ab0:	8a ff       	mov	-1,d2
    1ab2:	4a 3c       	mov	d2,(60,sp)

00001ab4 <.Loc.1628.1>:
    1ab4:	58 3c       	mov	(60,sp),d0
    1ab6:	fa fe 34 05 	add	1332,sp
    1aba:	df f0 10    	ret	[d2,d3,a2,a3],16

00001abd <.L16>:
    1abd:	3c          	mov	sp,a0
    1abe:	fa d0 98 00 	add	152,a0
    1ac2:	43 0c       	mov	a0,(12,sp)
    1ac4:	fa b4 48 05 	mov	(1352,sp),d0
    1ac8:	fa b5 4c 05 	mov	(1356,sp),d1
    1acc:	dd 4a 49 00 	call	6416 <___sprint_r>,[],0
    1ad0:	00 00 00 

00001ad3 <.LVL96>:
    1ad3:	a0 00       	cmp	0,d0
    1ad5:	c9 cc       	bne	1aa1 <.L18>

00001ad7 <.Loc.776.1>:
    1ad7:	3d          	mov	sp,a1
    1ad8:	fa d1 34 01 	add	308,a1

00001adc <.LVL97>:
    1adc:	58 3c       	mov	(60,sp),d0
    1ade:	e8          	add	d2,d0
    1adf:	42 3c       	mov	d0,(60,sp)

00001ae1 <.LVL98>:
    1ae1:	cc 85 fc    	jmp	1766 <.L12>

00001ae4 <.L419>:
    1ae4:	5e 38       	mov	(56,sp),a2
    1ae6:	5c 30       	mov	(48,sp),a0
    1ae8:	f1 32       	sub	a0,a2

00001aea <.LVL100>:
    1aea:	ba 00       	cmp	0,a2
    1aec:	c1 05       	bgt	1af1 <.L0_31>
    1aee:	cc 95 fd    	jmp	1883 <.L0_18>

00001af1 <.L0_31>:
    1af1:	5a 9c       	mov	(156,sp),d2
    1af3:	fc dc 10 97 	mov	38672,a0
    1af7:	00 00 

00001af9 <.Loc.1533.1>:
    1af9:	ba 10       	cmp	16,a2
    1afb:	c3 29       	ble	1b24 <.L173>

00001afd <.Loc.1533.1>:
    1afd:	9f 10       	mov	16,a3
    1aff:	8d          	mov	d3,d1
    1b00:	f1 db       	mov	a2,d3
    1b02:	96          	mov	a1,a2

00001b03 <.LVL101>:
    1b03:	91          	mov	a0,a1

00001b04 <.L176>:
    1b04:	f0 16       	mov	a1,(a2)
    1b06:	f8 3e 04    	mov	a3,(4,a2)
    1b09:	29 10       	add	16,d1
    1b0b:	46 a0       	mov	d1,(160,sp)

00001b0d <.LVL103>:
    1b0d:	48          	inc	d2
    1b0e:	4a 9c       	mov	d2,(156,sp)
    1b10:	aa 07       	cmp	7,d2
    1b12:	c3 05       	ble	1b17 <.L0_32>
    1b14:	cc ee 05    	jmp	2102 <.L174>

00001b17 <.L0_32>:
    1b17:	22 08       	add	8,a2

00001b19 <.LVL104>:
    1b19:	2b f0       	add	-16,d3
    1b1b:	af 10       	cmp	16,d3
    1b1d:	c1 e7       	bgt	1b04 <.L176>

00001b1f <.L437>:
    1b1f:	94          	mov	a1,a0
    1b20:	99          	mov	a2,a1
    1b21:	f1 ee       	mov	d3,a2

00001b23 <.LVL106>:
    1b23:	87          	mov	d1,d3

00001b24 <.L173>:
    1b24:	f0 11       	mov	a0,(a1)
    1b26:	f8 39 04    	mov	a2,(4,a1)
    1b29:	f1 5b       	add	a2,d3
    1b2b:	4e a0       	mov	d3,(160,sp)

00001b2d <.LVL108>:
    1b2d:	48          	inc	d2
    1b2e:	4a 9c       	mov	d2,(156,sp)
    1b30:	aa 07       	cmp	7,d2
    1b32:	c3 05       	ble	1b37 <.L0_33>
    1b34:	cc 11 0c    	jmp	2745 <.L177>

00001b37 <.L0_33>:
    1b37:	21 08       	add	8,a1

00001b39 <.LVL109>:
    1b39:	cc 4a fd    	jmp	1883 <.L0_18>

00001b3c <.L262>:
    1b3c:	3c          	mov	sp,a0
    1b3d:	fa d0 98 00 	add	152,a0
    1b41:	43 0c       	mov	a0,(12,sp)
    1b43:	fa b4 48 05 	mov	(1352,sp),d0
    1b47:	fa b5 4c 05 	mov	(1356,sp),d1
    1b4b:	dd cb 48 00 	call	6416 <___sprint_r>,[],0
    1b4f:	00 00 00 

00001b52 <.LVL111>:
    1b52:	a0 00       	cmp	0,d0
    1b54:	c8 05       	beq	1b59 <.L0_34>
    1b56:	cc 4b ff    	jmp	1aa1 <.L18>

00001b59 <.L0_34>:
    1b59:	00          	clr	d0
    1b5a:	42 9c       	mov	d0,(156,sp)

00001b5c <.LVL112>:
    1b5c:	3d          	mov	sp,a1
    1b5d:	fa d1 34 01 	add	308,a1
    1b61:	cc 18 fe    	jmp	1979 <.L424>

00001b64 <.L212>:
    1b64:	3e          	mov	sp,a2

00001b65 <.LVL114>:
    1b65:	fa d2 98 00 	add	152,a2
    1b69:	4b 0c       	mov	a2,(12,sp)
    1b6b:	fa b4 48 05 	mov	(1352,sp),d0
    1b6f:	fa b5 4c 05 	mov	(1356,sp),d1
    1b73:	dd a3 48 00 	call	6416 <___sprint_r>,[],0
    1b77:	00 00 00 

00001b7a <.LVL115>:
    1b7a:	a0 00       	cmp	0,d0
    1b7c:	c8 05       	beq	1b81 <.L0_35>
    1b7e:	cc 23 ff    	jmp	1aa1 <.L18>

00001b81 <.L0_35>:
    1b81:	3d          	mov	sp,a1
    1b82:	fa d1 34 01 	add	308,a1
    1b86:	5b a0       	mov	(160,sp),d3
    1b88:	5a 9c       	mov	(156,sp),d2

00001b8a <.L207>:
    1b8a:	5e 40       	mov	(64,sp),a2
    1b8c:	f0 19       	mov	a2,(a1)
    1b8e:	5f 4c       	mov	(76,sp),a3
    1b90:	f8 3d 04    	mov	a3,(4,a1)
    1b93:	f1 5f       	add	a3,d3

00001b95 <.L410>:
    1b95:	4e a0       	mov	d3,(160,sp)

00001b97 <.LVL117>:
    1b97:	48          	inc	d2
    1b98:	4a 9c       	mov	d2,(156,sp)
    1b9a:	aa 07       	cmp	7,d2
    1b9c:	c1 05       	bgt	1ba1 <.L0_36>
    1b9e:	cc 5b fd    	jmp	18f9 <.L0_22>

00001ba1 <.L0_36>:
    1ba1:	3c          	mov	sp,a0
    1ba2:	fa d0 98 00 	add	152,a0
    1ba6:	f1 d0       	mov	a0,d0

00001ba8 <.L406>:
    1ba8:	42 0c       	mov	d0,(12,sp)
    1baa:	fa b4 48 05 	mov	(1352,sp),d0
    1bae:	fa b5 4c 05 	mov	(1356,sp),d1
    1bb2:	dd 64 48 00 	call	6416 <___sprint_r>,[],0
    1bb6:	00 00 00 

00001bb9 <.LVL119>:
    1bb9:	a0 00       	cmp	0,d0
    1bbb:	c8 05       	beq	1bc0 <.L0_37>
    1bbd:	cc e4 fe    	jmp	1aa1 <.L18>

00001bc0 <.L0_37>:
    1bc0:	3d          	mov	sp,a1
    1bc1:	fa d1 34 01 	add	308,a1
    1bc5:	5b a0       	mov	(160,sp),d3
    1bc7:	cc 34 fd    	jmp	18fb <.L186>

00001bca <.L421>:
    1bca:	3c          	mov	sp,a0
    1bcb:	fa d0 98 00 	add	152,a0
    1bcf:	43 0c       	mov	a0,(12,sp)
    1bd1:	fa b4 48 05 	mov	(1352,sp),d0
    1bd5:	fa b5 4c 05 	mov	(1356,sp),d1
    1bd9:	dd 3d 48 00 	call	6416 <___sprint_r>,[],0
    1bdd:	00 00 00 

00001be0 <.LVL121>:
    1be0:	a0 00       	cmp	0,d0
    1be2:	c8 05       	beq	1be7 <.L0_38>
    1be4:	cc bd fe    	jmp	1aa1 <.L18>

00001be7 <.L0_38>:
    1be7:	5b a0       	mov	(160,sp),d3
    1be9:	cc 72 fd    	jmp	195b <.L0_25>

00001bec <.L28>:
    1bec:	f0 4a       	movbu	(a2),d2
    1bee:	98          	mov	a2,a0
    1bef:	41          	inc	a0

00001bf0 <.LVL124>:
    1bf0:	aa 2a       	cmp	42,d2
    1bf2:	c9 05       	bne	1bf7 <.L0_39>
    1bf4:	cc a0 13    	jmp	2f94 <.L52>

00001bf7 <.L0_39>:
    1bf7:	f1 ea       	mov	d2,a2
    1bf9:	22 d0       	add	-48,a2
    1bfb:	0c          	clr	d3

00001bfc <.LVL126>:
    1bfc:	ba 09       	cmp	9,a2
    1bfe:	c5 1b       	bhi	1c19 <.L0_40>

00001c00 <.L344>:
    1c00:	8e          	mov	d3,d2

00001c01 <.LVL128>:
    1c01:	ea          	add	d2,d2
    1c02:	57          	asl2	d3
    1c03:	ef          	add	d3,d3
    1c04:	eb          	add	d2,d3
    1c05:	f1 5b       	add	a2,d3

00001c07 <.LVL129>:
    1c07:	f0 48       	movbu	(a0),d2

00001c09 <.LVL130>:
    1c09:	41          	inc	a0

00001c0a <.Loc.919.1>:
    1c0a:	f1 ea       	mov	d2,a2
    1c0c:	22 d0       	add	-48,a2
    1c0e:	ba 09       	cmp	9,a2
    1c10:	c7 f0       	bls	1c00 <.L344>
    1c12:	af 00       	cmp	0,d3
    1c14:	c2 05       	bge	1c19 <.L0_40>
    1c16:	cc 89 0e    	jmp	2a9f <.L425>

00001c19 <.L0_40>:
    1c19:	92          	mov	a0,a2

00001c1a <.L455>:
    1c1a:	f1 e8       	mov	d2,a0

00001c1c <.LVL134>:
    1c1c:	20 e0       	add	-32,a0
    1c1e:	b0 58       	cmp	88,a0
    1c20:	c7 05       	bls	1c25 <.L0_41>
    1c22:	cc 73 fb    	jmp	1795 <.L0_9>

00001c25 <.L0_41>:
    1c25:	cc 64 fd    	jmp	1989 <.L417>

00001c28 <.L47>:
    1c28:	4b 2c       	mov	a2,(44,sp)
    1c2a:	4a 54       	mov	d2,(84,sp)

00001c2c <.LVL135>:
    1c2c:	fc ce 7f 95 	mov	38271,d2
    1c30:	00 00 

00001c32 <.LVL136>:
    1c32:	4a 74       	mov	d2,(116,sp)

00001c34 <.L36>:
    1c34:	58 28       	mov	(40,sp),d0
    1c36:	f8 e0 20    	and	32,d0
    1c39:	c9 05       	bne	1c3e <.L0_42>
    1c3b:	cc 2e 02    	jmp	1e69 <.L0_62>

00001c3e <.L0_42>:
    1c3e:	fa b3 54 05 	mov	(1364,sp),a3
    1c42:	7b          	mov	(a3),d2
    1c43:	f8 2b 04    	mov	(4,a3),a2
    1c46:	23 08       	add	8,a3

00001c48 <.LVL139>:
    1c48:	fa 9c 54 05 	mov	a3,(1364,sp)

00001c4c <.L144>:
    1c4c:	58 28       	mov	(40,sp),d0
    1c4e:	f8 e0 01    	and	1,d0
    1c51:	c9 05       	bne	1c56 <.L0_43>
    1c53:	cc 3a 02    	jmp	1e8d <.L0_64>

00001c56 <.L0_43>:
    1c56:	f1 d8       	mov	a2,d0
    1c58:	f2 18       	or	d2,d0
    1c5a:	c9 05       	bne	1c5f <.L0_44>
    1c5c:	cc 31 02    	jmp	1e8d <.L0_64>

00001c5f <.L0_44>:
    1c5f:	80 30       	mov	48,d0
    1c61:	f8 92 7a    	movbu	d0,(122,sp)

00001c64 <.Loc.1386.1>:
    1c64:	58 54       	mov	(84,sp),d0
    1c66:	f8 92 7b    	movbu	d0,(123,sp)

00001c69 <.Loc.1387.1>:
    1c69:	59 28       	mov	(40,sp),d1
    1c6b:	f8 e5 02    	or	2,d1
    1c6e:	46 28       	mov	d1,(40,sp)

00001c70 <.LVL142>:
    1c70:	80 02       	mov	2,d0

00001c72 <.L127>:
    1c72:	04          	clr	d1

00001c73 <.LVL144>:
    1c73:	f8 96 79    	movbu	d1,(121,sp)

00001c76 <.L64>:
    1c76:	af 00       	cmp	0,d3
    1c78:	c0 0c       	blt	1c84 <.L148>

00001c7a <.Loc.1401.1>:
    1c7a:	59 28       	mov	(40,sp),d1
    1c7c:	fc e1 7f ff 	and	-129,d1
    1c80:	ff ff 
    1c82:	46 28       	mov	d1,(40,sp)

00001c84 <.L148>:
    1c84:	f1 d9       	mov	a2,d1

00001c86 <.Loc.1415.1>:
    1c86:	14          	extbu	d0

00001c87 <.Loc.1409.1>:
    1c87:	f2 19       	or	d2,d1
    1c89:	c8 05       	beq	1c8e <.L0_45>
    1c8b:	cc d4 04    	jmp	215f <.L149>

00001c8e <.L0_45>:
    1c8e:	af 00       	cmp	0,d3
    1c90:	c8 05       	beq	1c95 <.L0_46>
    1c92:	cc cd 04    	jmp	215f <.L149>

00001c95 <.L0_46>:
    1c95:	a0 00       	cmp	0,d0
    1c97:	c8 05       	beq	1c9c <.L0_47>
    1c99:	cc 0b 08    	jmp	24a4 <.L292>

00001c9c <.L0_47>:
    1c9c:	58 28       	mov	(40,sp),d0

00001c9e <.LVL147>:
    1c9e:	f8 e0 01    	and	1,d0
    1ca1:	c9 05       	bne	1ca6 <.L0_48>
    1ca3:	cc 01 08    	jmp	24a4 <.L292>

00001ca6 <.L0_48>:
    1ca6:	80 30       	mov	48,d0
    1ca8:	f8 92 cb    	movbu	d0,(203,sp)
    1cab:	9f 01       	mov	1,a3
    1cad:	4f 34       	mov	a3,(52,sp)
    1caf:	3c          	mov	sp,a0
    1cb0:	fa d0 cb 00 	add	203,a0
    1cb4:	43 40       	mov	a0,(64,sp)

00001cb6 <.L155>:
    1cb6:	5f 34       	mov	(52,sp),a3
    1cb8:	4f 30       	mov	a3,(48,sp)
    1cba:	f1 af       	cmp	d3,a3
    1cbc:	c2 04       	bge	1cc0 <.L159>
    1cbe:	4e 30       	mov	d3,(48,sp)

00001cc0 <.L159>:
    1cc0:	f8 b8 79    	movbu	(121,sp),d0

00001cc3 <.LBB15>:
    1cc3:	4e 50       	mov	d3,(80,sp)
    1cc5:	08          	clr	d2
    1cc6:	4a 60       	mov	d2,(96,sp)

00001cc8 <.L72>:
    1cc8:	14          	extbu	d0
    1cc9:	a0 00       	cmp	0,d0
    1ccb:	c9 05       	bne	1cd0 <.L0_49>
    1ccd:	cc ed fa    	jmp	17ba <.L160>

00001cd0 <.L0_49>:
    1cd0:	5c 30       	mov	(48,sp),a0
    1cd2:	41          	inc	a0
    1cd3:	43 30       	mov	a0,(48,sp)

00001cd5 <.LVL152>:
    1cd5:	cc e5 fa    	jmp	17ba <.L160>

00001cd8 <.L45>:
    1cd8:	4b 2c       	mov	a2,(44,sp)
    1cda:	4a 54       	mov	d2,(84,sp)

00001cdc <.Loc.1275.1>:
    1cdc:	00          	clr	d0
    1cdd:	f8 92 79    	movbu	d0,(121,sp)

00001ce0 <.Loc.1276.1>:
    1ce0:	fa b6 54 05 	mov	(1364,sp),d2

00001ce4 <.LVL154>:
    1ce4:	2a 04       	add	4,d2

00001ce6 <.LVL155>:
    1ce6:	fa b2 54 05 	mov	(1364,sp),a2

00001cea <.LVL156>:
    1cea:	f0 0a       	mov	(a2),a2
    1cec:	4b 40       	mov	a2,(64,sp)

00001cee <.LVL157>:
    1cee:	ba 00       	cmp	0,a2
    1cf0:	c9 05       	bne	1cf5 <.L0_50>
    1cf2:	cc e7 0f    	jmp	2cd9 <.L426>

00001cf5 <.L0_50>:
    1cf5:	af 00       	cmp	0,d3
    1cf7:	c2 05       	bge	1cfc <.L0_51>
    1cf9:	cc ea 0e    	jmp	2be3 <.L133>

00001cfc <.L0_51>:
    1cfc:	4e 0c       	mov	d3,(12,sp)
    1cfe:	58 40       	mov	(64,sp),d0
    1d00:	04          	clr	d1
    1d01:	47 24       	mov	a1,(36,sp)
    1d03:	dd 50 3a 00 	call	5753 <_memchr>,[],0
    1d07:	00 00 00 

00001d0a <.LVL158>:
    1d0a:	5d 24       	mov	(36,sp),a1
    1d0c:	b0 00       	cmp	0,a0
    1d0e:	c9 05       	bne	1d13 <.L0_52>
    1d10:	cc 13 11    	jmp	2e23 <.L427>

00001d13 <.L0_52>:
    1d13:	5e 40       	mov	(64,sp),a2

00001d15 <.LVL159>:
    1d15:	f1 38       	sub	a2,a0

00001d17 <.LVL160>:
    1d17:	43 34       	mov	a0,(52,sp)

00001d19 <.LVL161>:
    1d19:	f1 ac       	cmp	d3,a0
    1d1b:	c1 05       	bgt	1d20 <.L0_53>
    1d1d:	cc 4a 0d    	jmp	2a67 <.L136>

00001d20 <.L0_53>:
    1d20:	4e 30       	mov	d3,(48,sp)
    1d22:	f8 b8 79    	movbu	(121,sp),d0
    1d25:	4e 34       	mov	d3,(52,sp)

00001d27 <.Loc.1276.1>:
    1d27:	fa 99 54 05 	mov	d2,(1364,sp)

00001d2b <.Loc.790.1>:
    1d2b:	9f 00       	mov	0,a3
    1d2d:	4f 50       	mov	a3,(80,sp)

00001d2f <.Loc.795.1>:
    1d2f:	4f 60       	mov	a3,(96,sp)

00001d31 <.LBE16>:
    1d31:	14          	extbu	d0
    1d32:	a0 00       	cmp	0,d0
    1d34:	c9 9c       	bne	1cd0 <.L0_49>
    1d36:	cc 84 fa    	jmp	17ba <.L160>

00001d39 <.L23>:
    1d39:	f8 ba 79    	movbu	(121,sp),d2

00001d3c <.LVL164>:
    1d3c:	aa 00       	cmp	0,d2

00001d3e <.LVL165>:
    1d3e:	c8 05       	beq	1d43 <.L0_54>
    1d40:	cc 22 0c    	jmp	2962 <.L49>

00001d43 <.L0_54>:
    1d43:	f2 e2       	mov	mdr,d2

00001d45 <.LVL166>:
    1d45:	f8 9a 79    	movbu	d2,(121,sp)

00001d48 <.LVL167>:
    1d48:	f0 4a       	movbu	(a2),d2

00001d4a <.LVL168>:
    1d4a:	49          	inc	a2

00001d4b <.LVL169>:
    1d4b:	cc 3f fa    	jmp	178a <.L381>

00001d4e <.L24>:
    1d4e:	5a 28       	mov	(40,sp),d2

00001d50 <.LVL171>:
    1d50:	f8 e6 01    	or	1,d2
    1d53:	4a 28       	mov	d2,(40,sp)

00001d55 <.LVL172>:
    1d55:	f0 4a       	movbu	(a2),d2

00001d57 <.LVL173>:
    1d57:	49          	inc	a2

00001d58 <.LVL174>:
    1d58:	cc 32 fa    	jmp	178a <.L381>

00001d5b <.L29>:
    1d5b:	5a 28       	mov	(40,sp),d2

00001d5d <.LVL176>:
    1d5d:	f8 e6 80    	or	128,d2
    1d60:	4a 28       	mov	d2,(40,sp)

00001d62 <.LVL177>:
    1d62:	f0 4a       	movbu	(a2),d2

00001d64 <.LVL178>:
    1d64:	49          	inc	a2

00001d65 <.LVL179>:
    1d65:	cc 25 fa    	jmp	178a <.L381>

00001d68 <.L272>:
    1d68:	90 00       	mov	0,a0

00001d6a <.L30>:
    1d6a:	93          	mov	a0,a3
    1d6b:	f1 7f       	add	a3,a3
    1d6d:	f1 d1       	mov	a0,d1
    1d6f:	55          	asl2	d1
    1d70:	e5          	add	d1,d1
    1d71:	9c          	mov	a3,a0
    1d72:	f1 64       	add	d1,a0

00001d74 <.LVL182>:
    1d74:	2a d0       	add	-48,d2

00001d76 <.LVL183>:
    1d76:	f1 68       	add	d2,a0

00001d78 <.LVL184>:
    1d78:	f0 4a       	movbu	(a2),d2

00001d7a <.LVL185>:
    1d7a:	49          	inc	a2

00001d7b <.Loc.939.1>:
    1d7b:	f1 eb       	mov	d2,a3
    1d7d:	23 d0       	add	-48,a3
    1d7f:	bf 09       	cmp	9,a3
    1d81:	c7 e9       	bls	1d6a <.L30>

00001d83 <.Loc.937.1>:
    1d83:	43 38       	mov	a0,(56,sp)

00001d85 <.LVL187>:
    1d85:	f1 e8       	mov	d2,a0

00001d87 <.LVL188>:
    1d87:	20 e0       	add	-32,a0
    1d89:	b0 58       	cmp	88,a0
    1d8b:	c7 05       	bls	1d90 <.L0_55>
    1d8d:	cc 08 fa    	jmp	1795 <.L0_9>

00001d90 <.L0_55>:
    1d90:	cc f9 fb    	jmp	1989 <.L417>

00001d93 <.L31>:
    1d93:	4b 2c       	mov	a2,(44,sp)
    1d95:	4a 54       	mov	d2,(84,sp)

00001d97 <.Loc.1042.1>:
    1d97:	5a 28       	mov	(40,sp),d2

00001d99 <.LVL190>:
    1d99:	f8 e6 10    	or	16,d2
    1d9c:	4a 28       	mov	d2,(40,sp)

00001d9e <.LVL191>:
    1d9e:	58 28       	mov	(40,sp),d0
    1da0:	f8 e0 20    	and	32,d0
    1da3:	c9 05       	bne	1da8 <.L0_56>
    1da5:	cc 48 02    	jmp	1fed <.L0_70>

00001da8 <.L0_56>:
    1da8:	fa b2 54 05 	mov	(1364,sp),a2

00001dac <.LVL193>:
    1dac:	f8 02 04    	mov	(4,a2),d0
    1daf:	7a          	mov	(a2),d2
    1db0:	f1 e2       	mov	d0,a2
    1db2:	fa b3 54 05 	mov	(1364,sp),a3
    1db6:	23 08       	add	8,a3

00001db8 <.LVL194>:
    1db8:	fa 9c 54 05 	mov	a3,(1364,sp)

00001dbc <.L61>:
    1dbc:	a0 00       	cmp	0,d0
    1dbe:	c0 05       	blt	1dc3 <.L0_57>
    1dc0:	cc f0 06    	jmp	24b0 <.L275>

00001dc3 <.L0_57>:
    1dc3:	00          	clr	d0
    1dc4:	f1 e0       	mov	d0,a0
    1dc6:	f1 d9       	mov	a2,d1
    1dc8:	f1 28       	sub	d2,a0
    1dca:	f1 84       	subc	d1,d0
    1dcc:	f1 e2       	mov	d0,a2

00001dce <.LVL196>:
    1dce:	f1 d2       	mov	a0,d2

00001dd0 <.LVL197>:
    1dd0:	80 2d       	mov	45,d0

00001dd2 <.LVL198>:
    1dd2:	f8 92 79    	movbu	d0,(121,sp)

00001dd5 <.Loc.1057.1>:
    1dd5:	80 01       	mov	1,d0
    1dd7:	cc 9f fe    	jmp	1c76 <.L64>

00001dda <.L32>:
    1dda:	4b 2c       	mov	a2,(44,sp)
    1ddc:	4a 54       	mov	d2,(84,sp)

00001dde <.Loc.1072.1>:
    1dde:	fa b3 54 05 	mov	(1364,sp),a3
    1de2:	f0 0b       	mov	(a3),a2

00001de4 <.LVL200>:
    1de4:	f8 0b 04    	mov	(4,a3),d2

00001de7 <.LVL201>:
    1de7:	4b 58       	mov	a2,(88,sp)
    1de9:	4a 6c       	mov	d2,(108,sp)
    1deb:	23 08       	add	8,a3
    1ded:	fa 9c 54 05 	mov	a3,(1364,sp)

00001df1 <.LVL202>:
    1df1:	f1 d8       	mov	a2,d0
    1df3:	89          	mov	d2,d1
    1df4:	47 24       	mov	a1,(36,sp)
    1df6:	dd f9 43 00 	call	61ef <___fpclassifyd>,[],0
    1dfa:	00 00 00 

00001dfd <.LVL203>:
    1dfd:	5d 24       	mov	(36,sp),a1
    1dff:	a0 01       	cmp	1,d0
    1e01:	c8 05       	beq	1e06 <.L0_58>
    1e03:	cc 69 09    	jmp	276c <.L68>

00001e06 <.L0_58>:
    1e06:	00          	clr	d0
    1e07:	42 0c       	mov	d0,(12,sp)
    1e09:	42 10       	mov	d0,(16,sp)
    1e0b:	f1 d8       	mov	a2,d0
    1e0d:	89          	mov	d2,d1
    1e0e:	dd 66 70 00 	call	8e74 <___ltdf2>,[],0
    1e12:	00 00 00 
    1e15:	5d 24       	mov	(36,sp),a1
    1e17:	a0 00       	cmp	0,d0
    1e19:	c2 05       	bge	1e1e <.L0_59>
    1e1b:	cc 4c 0f    	jmp	2d67 <.L69>

00001e1e <.L0_59>:
    1e1e:	f8 b8 79    	movbu	(121,sp),d0

00001e21 <.Loc.1086.1>:
    1e21:	5a 54       	mov	(84,sp),d2
    1e23:	aa 47       	cmp	71,d2
    1e25:	c3 05       	ble	1e2a <.L0_60>
    1e27:	cc 63 0c    	jmp	2a8a <.L276>

00001e2a <.L0_60>:
    1e2a:	fc de 5e 95 	mov	38238,a2
    1e2e:	00 00 
    1e30:	4b 40       	mov	a2,(64,sp)

00001e32 <.LVL205>:
    1e32:	5a 28       	mov	(40,sp),d2
    1e34:	fc e2 7f ff 	and	-129,d2
    1e38:	ff ff 
    1e3a:	4a 28       	mov	d2,(40,sp)

00001e3c <.L404>:
    1e3c:	90 03       	mov	3,a0
    1e3e:	43 30       	mov	a0,(48,sp)

00001e40 <.Loc.1099.1>:
    1e40:	43 34       	mov	a0,(52,sp)

00001e42 <.Loc.790.1>:
    1e42:	9a 00       	mov	0,a2

00001e44 <.LVL207>:
    1e44:	4b 50       	mov	a2,(80,sp)

00001e46 <.Loc.795.1>:
    1e46:	4b 60       	mov	a2,(96,sp)

00001e48 <.L453>:
    1e48:	14          	extbu	d0
    1e49:	a0 00       	cmp	0,d0
    1e4b:	c8 05       	beq	1e50 <.L0_61>
    1e4d:	cc 83 fe    	jmp	1cd0 <.L0_49>

00001e50 <.L0_61>:
    1e50:	cc 6a f9    	jmp	17ba <.L160>

00001e53 <.L273>:
    1e53:	4b 2c       	mov	a2,(44,sp)
    1e55:	4a 54       	mov	d2,(84,sp)

00001e57 <.Loc.1377.1>:
    1e57:	fc de 6e 95 	mov	38254,a2
    1e5b:	00 00 

00001e5d <.LVL210>:
    1e5d:	4b 74       	mov	a2,(116,sp)

00001e5f <.LVL211>:
    1e5f:	58 28       	mov	(40,sp),d0
    1e61:	f8 e0 20    	and	32,d0
    1e64:	c8 05       	beq	1e69 <.L0_62>
    1e66:	cc d8 fd    	jmp	1c3e <.L0_42>

00001e69 <.L0_62>:
    1e69:	59 28       	mov	(40,sp),d1
    1e6b:	f8 e1 10    	and	16,d1
    1e6e:	c9 05       	bne	1e73 <.L0_63>
    1e70:	cc 39 0a    	jmp	28a9 <.L145>

00001e73 <.L0_63>:
    1e73:	fa b2 54 05 	mov	(1364,sp),a2

00001e77 <.L146>:
    1e77:	7a          	mov	(a2),d2
    1e78:	f1 e2       	mov	d0,a2
    1e7a:	fa b3 54 05 	mov	(1364,sp),a3
    1e7e:	53          	inc4	a3

00001e7f <.LVL215>:
    1e7f:	fa 9c 54 05 	mov	a3,(1364,sp)

00001e83 <.LVL216>:
    1e83:	58 28       	mov	(40,sp),d0

00001e85 <.LVL217>:
    1e85:	f8 e0 01    	and	1,d0
    1e88:	c8 05       	beq	1e8d <.L0_64>
    1e8a:	cc cc fd    	jmp	1c56 <.L0_43>

00001e8d <.L0_64>:
    1e8d:	80 02       	mov	2,d0

00001e8f <.LVL219>:
    1e8f:	04          	clr	d1
    1e90:	f8 96 79    	movbu	d1,(121,sp)
    1e93:	cc e3 fd    	jmp	1c76 <.L64>

00001e96 <.L37>:
    1e96:	4b 2c       	mov	a2,(44,sp)
    1e98:	4a 54       	mov	d2,(84,sp)

00001e9a <.LVL221>:
    1e9a:	fa b2 54 05 	mov	(1364,sp),a2

00001e9e <.LVL222>:
    1e9e:	72          	mov	(a2),d0
    1e9f:	f8 92 a4    	movbu	d0,(164,sp)

00001ea2 <.LVL223>:
    1ea2:	00          	clr	d0
    1ea3:	f8 92 79    	movbu	d0,(121,sp)

00001ea6 <.Loc.1036.1>:
    1ea6:	52          	inc4	a2

00001ea7 <.LVL224>:
    1ea7:	fa 98 54 05 	mov	a2,(1364,sp)

00001eab <.Loc.1040.1>:
    1eab:	9f 01       	mov	1,a3
    1ead:	4f 30       	mov	a3,(48,sp)

00001eaf <.Loc.1037.1>:
    1eaf:	4f 34       	mov	a3,(52,sp)

00001eb1 <.Loc.1020.1>:
    1eb1:	3e          	mov	sp,a2

00001eb2 <.LVL225>:
    1eb2:	fa d2 a4 00 	add	164,a2
    1eb6:	4b 40       	mov	a2,(64,sp)

00001eb8 <.LVL226>:
    1eb8:	9a 00       	mov	0,a2

00001eba <.LVL227>:
    1eba:	4b 50       	mov	a2,(80,sp)
    1ebc:	4b 60       	mov	a2,(96,sp)
    1ebe:	cc fc f8    	jmp	17ba <.L160>

00001ec1 <.L44>:
    1ec1:	5a 28       	mov	(40,sp),d2

00001ec3 <.LVL229>:
    1ec3:	f8 e6 20    	or	32,d2
    1ec6:	4a 28       	mov	d2,(40,sp)

00001ec8 <.LVL230>:
    1ec8:	f0 4a       	movbu	(a2),d2

00001eca <.LVL231>:
    1eca:	49          	inc	a2

00001ecb <.LVL232>:
    1ecb:	cc bf f8    	jmp	178a <.L381>

00001ece <.L33>:
    1ece:	5a 28       	mov	(40,sp),d2

00001ed0 <.LVL234>:
    1ed0:	f8 e6 08    	or	8,d2
    1ed3:	4a 28       	mov	d2,(40,sp)

00001ed5 <.LVL235>:
    1ed5:	f0 4a       	movbu	(a2),d2

00001ed7 <.LVL236>:
    1ed7:	49          	inc	a2

00001ed8 <.LVL237>:
    1ed8:	cc b2 f8    	jmp	178a <.L381>

00001edb <.L34>:
    1edb:	4b 2c       	mov	a2,(44,sp)
    1edd:	4a 54       	mov	d2,(84,sp)

00001edf <.Loc.1246.1>:
    1edf:	5a 28       	mov	(40,sp),d2

00001ee1 <.LVL239>:
    1ee1:	f8 e6 10    	or	16,d2
    1ee4:	4a 28       	mov	d2,(40,sp)

00001ee6 <.LVL240>:
    1ee6:	58 28       	mov	(40,sp),d0
    1ee8:	f8 e0 20    	and	32,d0
    1eeb:	c9 05       	bne	1ef0 <.L0_65>
    1eed:	cc 60 01    	jmp	204d <.L0_74>

00001ef0 <.L0_65>:
    1ef0:	fa b2 54 05 	mov	(1364,sp),a2

00001ef4 <.LVL242>:
    1ef4:	7a          	mov	(a2),d2
    1ef5:	f8 2a 04    	mov	(4,a2),a2
    1ef8:	fa b3 54 05 	mov	(1364,sp),a3
    1efc:	23 08       	add	8,a3

00001efe <.LVL243>:
    1efe:	fa 9c 54 05 	mov	a3,(1364,sp)

00001f02 <.Loc.1250.1>:
	...

00001f03 <.LVL244>:
    1f03:	04          	clr	d1
    1f04:	f8 96 79    	movbu	d1,(121,sp)
    1f07:	cc 6f fd    	jmp	1c76 <.L64>

00001f0a <.L35>:
    1f0a:	4b 2c       	mov	a2,(44,sp)
    1f0c:	4a 54       	mov	d2,(84,sp)

00001f0e <.Loc.1370.1>:
    1f0e:	5a 28       	mov	(40,sp),d2

00001f10 <.LVL246>:
    1f10:	f8 e6 10    	or	16,d2
    1f13:	4a 28       	mov	d2,(40,sp)

00001f15 <.LVL247>:
    1f15:	58 28       	mov	(40,sp),d0
    1f17:	f8 e0 20    	and	32,d0
    1f1a:	c9 05       	bne	1f1f <.L0_66>
    1f1c:	cc 00 01    	jmp	201c <.L0_72>

00001f1f <.L0_66>:
    1f1f:	fa b2 54 05 	mov	(1364,sp),a2

00001f23 <.LVL249>:
    1f23:	7a          	mov	(a2),d2
    1f24:	f8 2a 04    	mov	(4,a2),a2
    1f27:	fa b3 54 05 	mov	(1364,sp),a3
    1f2b:	23 08       	add	8,a3

00001f2d <.LVL250>:
    1f2d:	fa 9c 54 05 	mov	a3,(1364,sp)

00001f31 <.Loc.1374.1>:
    1f31:	80 01       	mov	1,d0

00001f33 <.LVL251>:
    1f33:	04          	clr	d1
    1f34:	f8 96 79    	movbu	d1,(121,sp)
    1f37:	cc 3f fd    	jmp	1c76 <.L64>

00001f3a <.L25>:
    1f3a:	fa b0 54 05 	mov	(1364,sp),a0
    1f3e:	50          	inc4	a0

00001f3f <.LVL253>:
    1f3f:	fa b3 54 05 	mov	(1364,sp),a3
    1f43:	f0 0f       	mov	(a3),a3
    1f45:	4f 38       	mov	a3,(56,sp)

00001f47 <.LVL254>:
    1f47:	bf 00       	cmp	0,a3
    1f49:	c2 05       	bge	1f4e <.L0_67>
    1f4b:	cc 22 fb    	jmp	1a6d <.L51>

00001f4e <.L0_67>:
    1f4e:	fa 90 54 05 	mov	a0,(1364,sp)
    1f52:	f0 4a       	movbu	(a2),d2

00001f54 <.Loc.805.1>:
    1f54:	49          	inc	a2

00001f55 <.LVL256>:
    1f55:	cc 35 f8    	jmp	178a <.L381>

00001f58 <.L41>:
    1f58:	4b 2c       	mov	a2,(44,sp)

00001f5a <.Loc.1230.1>:
    1f5a:	58 28       	mov	(40,sp),d0
    1f5c:	f8 e0 20    	and	32,d0
    1f5f:	c9 05       	bne	1f64 <.L0_68>
    1f61:	cc d0 09    	jmp	2931 <.L122>

00001f64 <.L0_68>:
    1f64:	fa b2 54 05 	mov	(1364,sp),a2

00001f68 <.LVL259>:
    1f68:	f0 02       	mov	(a2),a0
    1f6a:	5a 3c       	mov	(60,sp),d2

00001f6c <.LVL260>:
    1f6c:	68          	mov	d2,(a0)
    1f6d:	88          	mov	d2,d0
    1f6e:	f8 c8 1f    	asr	31,d0
    1f71:	f8 10 04    	mov	d0,(4,a0)
    1f74:	52          	inc4	a2

00001f75 <.LVL261>:
    1f75:	fa 98 54 05 	mov	a2,(1364,sp)
    1f79:	cc a4 f7    	jmp	171d <.L382>

00001f7c <.L43>:
    1f7c:	4b 2c       	mov	a2,(44,sp)

00001f7e <.LVL263>:
    1f7e:	fa b2 54 05 	mov	(1364,sp),a2

00001f82 <.LVL264>:
    1f82:	7a          	mov	(a2),d2

00001f83 <.LVL265>:
    1f83:	9a 00       	mov	0,a2

00001f85 <.LVL266>:
    1f85:	58 28       	mov	(40,sp),d0
    1f87:	f8 e4 02    	or	2,d0
    1f8a:	42 28       	mov	d0,(40,sp)

00001f8c <.LVL267>:
    1f8c:	80 30       	mov	48,d0

00001f8e <.LVL268>:
    1f8e:	f8 92 7a    	movbu	d0,(122,sp)

00001f91 <.LVL269>:
    1f91:	80 78       	mov	120,d0
    1f93:	f8 92 7b    	movbu	d0,(123,sp)

00001f96 <.Loc.1264.1>:
    1f96:	fa b3 54 05 	mov	(1364,sp),a3
    1f9a:	53          	inc4	a3

00001f9b <.LVL270>:
    1f9b:	fa 9c 54 05 	mov	a3,(1364,sp)

00001f9f <.Loc.1266.1>:
    1f9f:	fc cc 7f 95 	mov	38271,d0
    1fa3:	00 00 
    1fa5:	42 74       	mov	d0,(116,sp)

00001fa7 <.Loc.1265.1>:
    1fa7:	80 02       	mov	2,d0

00001fa9 <.Loc.1269.1>:
    1fa9:	85 78       	mov	120,d1
    1fab:	46 54       	mov	d1,(84,sp)

00001fad <.LVL271>:
    1fad:	04          	clr	d1

00001fae <.LVL272>:
    1fae:	f8 96 79    	movbu	d1,(121,sp)
    1fb1:	cc c5 fc    	jmp	1c76 <.L64>

00001fb4 <.L39>:
    1fb4:	5a 28       	mov	(40,sp),d2

00001fb6 <.LVL274>:
    1fb6:	f8 e6 40    	or	64,d2
    1fb9:	4a 28       	mov	d2,(40,sp)

00001fbb <.LVL275>:
    1fbb:	f0 4a       	movbu	(a2),d2

00001fbd <.LVL276>:
    1fbd:	49          	inc	a2

00001fbe <.LVL277>:
    1fbe:	cc cc f7    	jmp	178a <.L381>

00001fc1 <.L40>:
    1fc1:	98          	mov	a2,a0

00001fc2 <.Loc.969.1>:
    1fc2:	f0 4a       	movbu	(a2),d2

00001fc4 <.LVL279>:
    1fc4:	aa 6c       	cmp	108,d2
    1fc6:	c9 05       	bne	1fcb <.L0_69>
    1fc8:	cc d7 0b    	jmp	2b9f <.L430>

00001fcb <.L0_69>:
    1fcb:	59 28       	mov	(40,sp),d1
    1fcd:	f8 e5 10    	or	16,d1
    1fd0:	46 28       	mov	d1,(40,sp)

00001fd2 <.LVL281>:
    1fd2:	49          	inc	a2
    1fd3:	cc b7 f7    	jmp	178a <.L381>

00001fd6 <.L26>:
    1fd6:	f8 92 79    	movbu	d0,(121,sp)
    1fd9:	f0 4a       	movbu	(a2),d2

00001fdb <.Loc.805.1>:
    1fdb:	49          	inc	a2

00001fdc <.LVL284>:
    1fdc:	cc ae f7    	jmp	178a <.L381>

00001fdf <.L397>:
    1fdf:	4b 2c       	mov	a2,(44,sp)
    1fe1:	4a 54       	mov	d2,(84,sp)

00001fe3 <.Loc.1046.1>:
    1fe3:	58 28       	mov	(40,sp),d0
    1fe5:	f8 e0 20    	and	32,d0
    1fe8:	c8 05       	beq	1fed <.L0_70>
    1fea:	cc be fd    	jmp	1da8 <.L0_56>

00001fed <.L0_70>:
    1fed:	58 28       	mov	(40,sp),d0
    1fef:	f8 e0 10    	and	16,d0
    1ff2:	c9 05       	bne	1ff7 <.L0_71>
    1ff4:	cc f6 08    	jmp	28ea <.L62>

00001ff7 <.L0_71>:
    1ff7:	fa b2 54 05 	mov	(1364,sp),a2

00001ffb <.L63>:
    1ffb:	7a          	mov	(a2),d2
    1ffc:	88          	mov	d2,d0
    1ffd:	f8 c8 1f    	asr	31,d0
    2000:	f1 e2       	mov	d0,a2
    2002:	fa b3 54 05 	mov	(1364,sp),a3
    2006:	53          	inc4	a3

00002007 <.LVL289>:
    2007:	fa 9c 54 05 	mov	a3,(1364,sp)
    200b:	cc b1 fd    	jmp	1dbc <.L61>

0000200e <.L399>:
    200e:	4b 2c       	mov	a2,(44,sp)
    2010:	4a 54       	mov	d2,(84,sp)

00002012 <.Loc.1373.1>:
    2012:	58 28       	mov	(40,sp),d0
    2014:	f8 e0 20    	and	32,d0
    2017:	c8 05       	beq	201c <.L0_72>
    2019:	cc 06 ff    	jmp	1f1f <.L0_66>

0000201c <.L0_72>:
    201c:	59 28       	mov	(40,sp),d1
    201e:	f8 e1 10    	and	16,d1
    2021:	c9 05       	bne	2026 <.L0_73>
    2023:	cc ea 08    	jmp	290d <.L141>

00002026 <.L0_73>:
    2026:	fa b2 54 05 	mov	(1364,sp),a2

0000202a <.L142>:
    202a:	7a          	mov	(a2),d2
    202b:	f1 e2       	mov	d0,a2
    202d:	fa b3 54 05 	mov	(1364,sp),a3
    2031:	53          	inc4	a3

00002032 <.LVL294>:
    2032:	fa 9c 54 05 	mov	a3,(1364,sp)

00002036 <.Loc.1374.1>:
    2036:	80 01       	mov	1,d0

00002038 <.LVL295>:
    2038:	04          	clr	d1
    2039:	f8 96 79    	movbu	d1,(121,sp)
    203c:	cc 3a fc    	jmp	1c76 <.L64>

0000203f <.L398>:
    203f:	4b 2c       	mov	a2,(44,sp)
    2041:	4a 54       	mov	d2,(84,sp)

00002043 <.Loc.1249.1>:
    2043:	58 28       	mov	(40,sp),d0
    2045:	f8 e0 20    	and	32,d0
    2048:	c8 05       	beq	204d <.L0_74>
    204a:	cc a6 fe    	jmp	1ef0 <.L0_65>

0000204d <.L0_74>:
    204d:	59 28       	mov	(40,sp),d1
    204f:	f8 e1 10    	and	16,d1
    2052:	c9 05       	bne	2057 <.L0_75>
    2054:	cc 73 08    	jmp	28c7 <.L128>

00002057 <.L0_75>:
    2057:	fa b2 54 05 	mov	(1364,sp),a2

0000205b <.L129>:
    205b:	7a          	mov	(a2),d2
    205c:	f1 e2       	mov	d0,a2
    205e:	fa b3 54 05 	mov	(1364,sp),a3
    2062:	53          	inc4	a3

00002063 <.LVL300>:
    2063:	fa 9c 54 05 	mov	a3,(1364,sp)

00002067 <.LVL301>:
    2067:	04          	clr	d1
    2068:	f8 96 79    	movbu	d1,(121,sp)
    206b:	cc 0b fc    	jmp	1c76 <.L64>

0000206e <.L180>:
    206e:	3c          	mov	sp,a0
    206f:	fa d0 98 00 	add	152,a0
    2073:	43 0c       	mov	a0,(12,sp)
    2075:	fa b4 48 05 	mov	(1352,sp),d0

00002079 <.LVL303>:
    2079:	fa b5 4c 05 	mov	(1356,sp),d1
    207d:	47 24       	mov	a1,(36,sp)
    207f:	dd 97 43 00 	call	6416 <___sprint_r>,[],0
    2083:	00 00 00 

00002086 <.LVL304>:
    2086:	5d 24       	mov	(36,sp),a1
    2088:	a0 00       	cmp	0,d0
    208a:	c8 05       	beq	208f <.L0_76>
    208c:	cc 15 fa    	jmp	1aa1 <.L18>

0000208f <.L0_76>:
    208f:	3e          	mov	sp,a2

00002090 <.LVL305>:
    2090:	fa d2 34 01 	add	308,a2
    2094:	59 a0       	mov	(160,sp),d1
    2096:	5a 9c       	mov	(156,sp),d2

00002098 <.LVL306>:
    2098:	2b f0       	add	-16,d3
    209a:	af 10       	cmp	16,d3
    209c:	c3 05       	ble	20a1 <.L0_77>
    209e:	cc 02 f8    	jmp	18a0 <.L182>

000020a1 <.L0_77>:
    20a1:	cc 1a f8    	jmp	18bb <.L434>

000020a4 <.L164>:
    20a4:	3c          	mov	sp,a0
    20a5:	fa d0 98 00 	add	152,a0
    20a9:	43 0c       	mov	a0,(12,sp)
    20ab:	8c          	mov	d3,d0
    20ac:	fa b5 4c 05 	mov	(1356,sp),d1
    20b0:	dd 66 43 00 	call	6416 <___sprint_r>,[],0
    20b4:	00 00 00 

000020b7 <.LVL309>:
    20b7:	a0 00       	cmp	0,d0
    20b9:	c8 05       	beq	20be <.L0_78>
    20bb:	cc e6 f9    	jmp	1aa1 <.L18>

000020be <.L0_78>:
    20be:	3d          	mov	sp,a1
    20bf:	fa d1 34 01 	add	308,a1
    20c3:	58 a0       	mov	(160,sp),d0
    20c5:	5a 9c       	mov	(156,sp),d2

000020c7 <.LVL310>:
    20c7:	23 f0       	add	-16,a3
    20c9:	bf 10       	cmp	16,a3
    20cb:	c3 05       	ble	20d0 <.L0_79>
    20cd:	cc 30 f7    	jmp	17fd <.L166>

000020d0 <.L0_79>:
    20d0:	cc 4d f7    	jmp	181d <.L435>

000020d3 <.L258>:
    20d3:	3c          	mov	sp,a0
    20d4:	fa d0 98 00 	add	152,a0
    20d8:	43 0c       	mov	a0,(12,sp)
    20da:	8c          	mov	d3,d0
    20db:	fa b5 4c 05 	mov	(1356,sp),d1
    20df:	dd 37 43 00 	call	6416 <___sprint_r>,[],0
    20e3:	00 00 00 

000020e6 <.LVL313>:
    20e6:	a0 00       	cmp	0,d0
    20e8:	c8 05       	beq	20ed <.L0_80>
    20ea:	cc b7 f9    	jmp	1aa1 <.L18>

000020ed <.L0_80>:
    20ed:	3d          	mov	sp,a1
    20ee:	fa d1 34 01 	add	308,a1
    20f2:	58 a0       	mov	(160,sp),d0
    20f4:	5a 9c       	mov	(156,sp),d2

000020f6 <.LVL314>:
    20f6:	23 f0       	add	-16,a3
    20f8:	bf 10       	cmp	16,a3
    20fa:	c3 05       	ble	20ff <.L0_81>
    20fc:	cc 29 f8    	jmp	1925 <.L260>

000020ff <.L0_81>:
    20ff:	cc 46 f8    	jmp	1945 <.L436>

00002102 <.L174>:
    2102:	3e          	mov	sp,a2

00002103 <.LVL317>:
    2103:	fa d2 98 00 	add	152,a2
    2107:	4b 0c       	mov	a2,(12,sp)
    2109:	fa b4 48 05 	mov	(1352,sp),d0

0000210d <.LVL318>:
    210d:	fa b5 4c 05 	mov	(1356,sp),d1
    2111:	47 24       	mov	a1,(36,sp)
    2113:	dd 03 43 00 	call	6416 <___sprint_r>,[],0
    2117:	00 00 00 

0000211a <.LVL319>:
    211a:	5d 24       	mov	(36,sp),a1
    211c:	a0 00       	cmp	0,d0
    211e:	c8 05       	beq	2123 <.L0_82>
    2120:	cc 81 f9    	jmp	1aa1 <.L18>

00002123 <.L0_82>:
    2123:	3e          	mov	sp,a2
    2124:	fa d2 34 01 	add	308,a2
    2128:	59 a0       	mov	(160,sp),d1
    212a:	5a 9c       	mov	(156,sp),d2

0000212c <.LVL320>:
    212c:	2b f0       	add	-16,d3
    212e:	af 10       	cmp	16,d3
    2130:	c3 05       	ble	2135 <.L0_83>
    2132:	cc d2 f9    	jmp	1b04 <.L176>

00002135 <.L0_83>:
    2135:	cc ea f9    	jmp	1b1f <.L437>

00002138 <.L167>:
    2138:	3c          	mov	sp,a0
    2139:	fa d0 98 00 	add	152,a0
    213d:	43 0c       	mov	a0,(12,sp)
    213f:	fa b4 48 05 	mov	(1352,sp),d0
    2143:	fa b5 4c 05 	mov	(1356,sp),d1
    2147:	dd cf 42 00 	call	6416 <___sprint_r>,[],0
    214b:	00 00 00 

0000214e <.LVL323>:
    214e:	a0 00       	cmp	0,d0
    2150:	c8 05       	beq	2155 <.L0_84>
    2152:	cc 4f f9    	jmp	1aa1 <.L18>

00002155 <.L0_84>:
    2155:	3d          	mov	sp,a1
    2156:	fa d1 34 01 	add	308,a1

0000215a <.L405>:
    215a:	5b a0       	mov	(160,sp),d3
    215c:	cc d9 f6    	jmp	1835 <.L162>

0000215f <.L149>:
    215f:	a0 01       	cmp	1,d0
    2161:	c9 05       	bne	2166 <.L0_85>
    2163:	cc d9 02    	jmp	243c <.L152>

00002166 <.L0_85>:
    2166:	3c          	mov	sp,a0
    2167:	fa d0 cc 00 	add	204,a0
    216b:	43 40       	mov	a0,(64,sp)

0000216d <.Loc.1415.1>:
    216d:	a0 02       	cmp	2,d0
    216f:	c9 05       	bne	2174 <.L0_86>
    2171:	cc 41 01    	jmp	22b2 <.L288>

00002174 <.L0_86>:
    2174:	f1 d9       	mov	a2,d1
    2176:	f1 ee       	mov	d3,a2

00002178 <.L151>:
    2178:	20 ff       	add	-1,a0
    217a:	88          	mov	d2,d0
    217b:	f8 e0 07    	and	7,d0
    217e:	28 30       	add	48,d0
    2180:	83          	mov	d0,d3
    2181:	f0 50       	movbu	d0,(a0)

00002183 <.Loc.1419.1>:
    2183:	84          	mov	d1,d0
    2184:	f8 c0 1d    	asl	29,d0
    2187:	f8 c6 03    	lsr	3,d2

0000218a <.LVL328>:
    218a:	f2 12       	or	d0,d2
    218c:	f8 c5 03    	lsr	3,d1

0000218f <.LVL329>:
    218f:	88          	mov	d2,d0
    2190:	f2 14       	or	d1,d0
    2192:	c9 e6       	bne	2178 <.L151>
    2194:	43 40       	mov	a0,(64,sp)
    2196:	8d          	mov	d3,d1

00002197 <.LVL330>:
    2197:	f1 db       	mov	a2,d3

00002199 <.Loc.1422.1>:
    2199:	58 28       	mov	(40,sp),d0
    219b:	f8 e0 01    	and	1,d0
    219e:	c9 05       	bne	21a3 <.L0_87>
    21a0:	cc 36 01    	jmp	22d6 <.L403>

000021a3 <.L0_87>:
    21a3:	15          	extbu	d1
    21a4:	a5 30       	cmp	48,d1
    21a6:	c9 05       	bne	21ab <.L0_88>
    21a8:	cc 2d 0a    	jmp	2bd5 <.L438>

000021ab <.L0_88>:
    21ab:	5e 40       	mov	(64,sp),a2
    21ad:	22 ff       	add	-1,a2
    21af:	4b 40       	mov	a2,(64,sp)

000021b1 <.LVL332>:
    21b1:	80 30       	mov	48,d0
    21b3:	f8 50 ff    	movbu	d0,(-1,a0)

000021b6 <.Loc.1408.1>:
    21b6:	3c          	mov	sp,a0
    21b7:	fa d0 cc 00 	add	204,a0
    21bb:	f1 38       	sub	a2,a0
    21bd:	43 34       	mov	a0,(52,sp)
    21bf:	cc f7 fa    	jmp	1cb6 <.L155>

000021c2 <.L184>:
    21c2:	5a 54       	mov	(84,sp),d2
    21c4:	aa 65       	cmp	101,d2
    21c6:	c1 05       	bgt	21cb <.L0_89>
    21c8:	cc 1a 01    	jmp	22e2 <.L187>

000021cb <.L0_89>:
    21cb:	00          	clr	d0
    21cc:	42 0c       	mov	d0,(12,sp)
    21ce:	42 10       	mov	d0,(16,sp)
    21d0:	58 58       	mov	(88,sp),d0
    21d2:	59 6c       	mov	(108,sp),d1
    21d4:	47 24       	mov	a1,(36,sp)
    21d6:	dd 4a 6b 00 	call	8d20 <___eqdf2>,[],0
    21da:	00 00 00 

000021dd <.LVL334>:
    21dd:	5d 24       	mov	(36,sp),a1

000021df <.LVL335>:
    21df:	a0 00       	cmp	0,d0
    21e1:	c8 05       	beq	21e6 <.L0_90>
    21e3:	cc d2 02    	jmp	24b5 <.L388>

000021e6 <.L0_90>:
    21e6:	fc cc 97 95 	mov	38295,d0
    21ea:	00 00 
    21ec:	61          	mov	d0,(a1)
    21ed:	80 01       	mov	1,d0
    21ef:	f8 11 04    	mov	d0,(4,a1)
    21f2:	e3          	add	d0,d3
    21f3:	4e a0       	mov	d3,(160,sp)

000021f5 <.LVL336>:
    21f5:	58 9c       	mov	(156,sp),d0
    21f7:	40          	inc	d0
    21f8:	42 9c       	mov	d0,(156,sp)
    21fa:	a0 07       	cmp	7,d0
    21fc:	c3 05       	ble	2201 <.L0_91>
    21fe:	cc 6a 07    	jmp	2968 <.L190>

00002201 <.L0_91>:
    2201:	21 08       	add	8,a1

00002203 <.L191>:
    2203:	58 7c       	mov	(124,sp),d0
    2205:	5e 4c       	mov	(76,sp),a2
    2207:	f1 98       	cmp	a2,d0
    2209:	c0 0c       	blt	2215 <.L0_92>

0000220b <.Loc.1547.1>:
    220b:	58 28       	mov	(40,sp),d0
    220d:	f8 e0 01    	and	1,d0
    2210:	c9 05       	bne	2215 <.L0_92>
    2212:	cc e9 f6    	jmp	18fb <.L186>

00002215 <.L0_92>:
    2215:	5f 5c       	mov	(92,sp),a3
    2217:	f0 1d       	mov	a3,(a1)
    2219:	5a 68       	mov	(104,sp),d2
    221b:	f8 19 04    	mov	d2,(4,a1)
    221e:	eb          	add	d2,d3
    221f:	4e a0       	mov	d3,(160,sp)

00002221 <.LVL338>:
    2221:	58 9c       	mov	(156,sp),d0
    2223:	40          	inc	d0
    2224:	42 9c       	mov	d0,(156,sp)
    2226:	a0 07       	cmp	7,d0
    2228:	c3 05       	ble	222d <.L0_93>
    222a:	cc 84 09    	jmp	2bae <.L193>

0000222d <.L0_93>:
    222d:	21 08       	add	8,a1

0000222f <.L194>:
    222f:	5e 4c       	mov	(76,sp),a2
    2231:	22 ff       	add	-1,a2

00002233 <.LVL340>:
    2233:	ba 00       	cmp	0,a2
    2235:	c1 05       	bgt	223a <.L0_94>
    2237:	cc c4 f6    	jmp	18fb <.L186>

0000223a <.L0_94>:
    223a:	5a 9c       	mov	(156,sp),d2
    223c:	fc dc 10 97 	mov	38672,a0
    2240:	00 00 

00002242 <.Loc.1549.1>:
    2242:	ba 10       	cmp	16,a2
    2244:	c3 26       	ble	226a <.L195>

00002246 <.Loc.1549.1>:
    2246:	9f 10       	mov	16,a3
    2248:	8d          	mov	d3,d1
    2249:	f1 db       	mov	a2,d3
    224b:	96          	mov	a1,a2

0000224c <.LVL341>:
    224c:	91          	mov	a0,a1

0000224d <.L198>:
    224d:	f0 16       	mov	a1,(a2)
    224f:	f8 3e 04    	mov	a3,(4,a2)
    2252:	29 10       	add	16,d1
    2254:	46 a0       	mov	d1,(160,sp)

00002256 <.LVL343>:
    2256:	48          	inc	d2
    2257:	4a 9c       	mov	d2,(156,sp)
    2259:	aa 07       	cmp	7,d2
    225b:	c1 25       	bgt	2280 <.L196>

0000225d <.Loc.1549.1>:
    225d:	22 08       	add	8,a2

0000225f <.LVL344>:
    225f:	2b f0       	add	-16,d3
    2261:	af 10       	cmp	16,d3
    2263:	c1 ea       	bgt	224d <.L198>

00002265 <.L439>:
    2265:	94          	mov	a1,a0
    2266:	99          	mov	a2,a1
    2267:	f1 ee       	mov	d3,a2

00002269 <.LVL346>:
    2269:	87          	mov	d1,d3

0000226a <.L195>:
    226a:	f0 11       	mov	a0,(a1)
    226c:	f8 39 04    	mov	a2,(4,a1)
    226f:	f1 5b       	add	a2,d3

00002271 <.Loc.1556.1>:
    2271:	4e a0       	mov	d3,(160,sp)

00002273 <.LVL348>:
    2273:	48          	inc	d2
    2274:	4a 9c       	mov	d2,(156,sp)
    2276:	aa 07       	cmp	7,d2
    2278:	c1 05       	bgt	227d <.L0_95>
    227a:	cc 7f f6    	jmp	18f9 <.L0_22>

0000227d <.L0_95>:
    227d:	cc 24 f9    	jmp	1ba1 <.L0_36>

00002280 <.L196>:
    2280:	3e          	mov	sp,a2

00002281 <.LVL350>:
    2281:	fa d2 98 00 	add	152,a2
    2285:	4b 0c       	mov	a2,(12,sp)
    2287:	fa b4 48 05 	mov	(1352,sp),d0
    228b:	fa b5 4c 05 	mov	(1356,sp),d1
    228f:	47 24       	mov	a1,(36,sp)
    2291:	dd 85 41 00 	call	6416 <___sprint_r>,[],0
    2295:	00 00 00 

00002298 <.LVL351>:
    2298:	5d 24       	mov	(36,sp),a1
    229a:	a0 00       	cmp	0,d0
    229c:	c8 05       	beq	22a1 <.L0_96>
    229e:	cc 03 f8    	jmp	1aa1 <.L18>

000022a1 <.L0_96>:
    22a1:	3e          	mov	sp,a2
    22a2:	fa d2 34 01 	add	308,a2
    22a6:	59 a0       	mov	(160,sp),d1
    22a8:	5a 9c       	mov	(156,sp),d2

000022aa <.LVL352>:
    22aa:	2b f0       	add	-16,d3
    22ac:	af 10       	cmp	16,d3
    22ae:	c1 9f       	bgt	224d <.L198>
    22b0:	ca b5       	bra	2265 <.L439>

000022b2 <.L288>:
    22b2:	f1 d8       	mov	a2,d0

000022b4 <.LVL355>:
    22b4:	5e 74       	mov	(116,sp),a2

000022b6 <.L153>:
    22b6:	20 ff       	add	-1,a0
    22b8:	89          	mov	d2,d1
    22b9:	f8 e1 0f    	and	15,d1
    22bc:	9b          	mov	a2,a3
    22bd:	f1 67       	add	d1,a3
    22bf:	f0 47       	movbu	(a3),d1
    22c1:	f0 54       	movbu	d1,(a0)

000022c3 <.Loc.1464.1>:
    22c3:	81          	mov	d0,d1
    22c4:	f8 c1 1c    	asl	28,d1
    22c7:	f8 c6 04    	lsr	4,d2

000022ca <.LVL358>:
    22ca:	f2 16       	or	d1,d2
    22cc:	f8 c4 04    	lsr	4,d0

000022cf <.LVL359>:
    22cf:	89          	mov	d2,d1
    22d0:	f2 11       	or	d0,d1
    22d2:	c9 e4       	bne	22b6 <.L153>
    22d4:	43 40       	mov	a0,(64,sp)

000022d6 <.L403>:
    22d6:	3e          	mov	sp,a2
    22d7:	fa d2 cc 00 	add	204,a2
    22db:	f1 32       	sub	a0,a2
    22dd:	4b 34       	mov	a2,(52,sp)
    22df:	cc d7 f9    	jmp	1cb6 <.L155>

000022e2 <.L187>:
    22e2:	5f 4c       	mov	(76,sp),a3

000022e4 <.Loc.1588.1>:
    22e4:	5e 40       	mov	(64,sp),a2

000022e6 <.Loc.1587.1>:
    22e6:	bf 01       	cmp	1,a3
    22e8:	c1 05       	bgt	22ed <.L0_97>
    22ea:	cc 83 00    	jmp	236d <.L440>

000022ed <.L0_97>:
    22ed:	f0 19       	mov	a2,(a1)
    22ef:	80 01       	mov	1,d0
    22f1:	f8 11 04    	mov	d0,(4,a1)
    22f4:	e3          	add	d0,d3
    22f5:	4e a0       	mov	d3,(160,sp)

000022f7 <.LVL362>:
    22f7:	5a 9c       	mov	(156,sp),d2
    22f9:	e2          	add	d0,d2
    22fa:	4a 9c       	mov	d2,(156,sp)
    22fc:	aa 07       	cmp	7,d2
    22fe:	c3 05       	ble	2303 <.L0_98>
    2300:	cc df 03    	jmp	26df <.L238>

00002303 <.L0_98>:
    2303:	96          	mov	a1,a2
    2304:	22 08       	add	8,a2

00002306 <.LVL363>:
    2306:	5f 5c       	mov	(92,sp),a3
    2308:	f0 1e       	mov	a3,(a2)
    230a:	5f 68       	mov	(104,sp),a3
    230c:	f8 3e 04    	mov	a3,(4,a2)
    230f:	f1 5f       	add	a3,d3
    2311:	4e a0       	mov	d3,(160,sp)

00002313 <.LVL364>:
    2313:	48          	inc	d2
    2314:	4a 9c       	mov	d2,(156,sp)
    2316:	aa 07       	cmp	7,d2
    2318:	c3 05       	ble	231d <.L0_99>
    231a:	cc 02 04    	jmp	271c <.L0_127>

0000231d <.L0_99>:
    231d:	22 08       	add	8,a2

0000231f <.L241>:
    231f:	00          	clr	d0
    2320:	42 0c       	mov	d0,(12,sp)
    2322:	42 10       	mov	d0,(16,sp)
    2324:	58 58       	mov	(88,sp),d0
    2326:	59 6c       	mov	(108,sp),d1
    2328:	dd 4d 6a 00 	call	8d75 <___nedf2>,[],0
    232c:	00 00 00 
    232f:	a0 00       	cmp	0,d0
    2331:	c9 05       	bne	2336 <.L0_100>
    2333:	cc 30 03    	jmp	2663 <.L393>

00002336 <.L0_100>:
    2336:	58 40       	mov	(64,sp),d0
    2338:	40          	inc	d0

00002339 <.Loc.1592.1>:
    2339:	62          	mov	d0,(a2)
    233a:	58 4c       	mov	(76,sp),d0
    233c:	28 ff       	add	-1,d0
    233e:	f8 12 04    	mov	d0,(4,a2)
    2341:	e3          	add	d0,d3

00002342 <.Loc.1595.1>:
    2342:	4e a0       	mov	d3,(160,sp)

00002344 <.LVL368>:
    2344:	48          	inc	d2
    2345:	4a 9c       	mov	d2,(156,sp)
    2347:	aa 07       	cmp	7,d2
    2349:	c1 49       	bgt	2392 <.L244>

0000234b <.L408>:
    234b:	22 08       	add	8,a2

0000234d <.L245>:
    234d:	3c          	mov	sp,a0
    234e:	fa d0 8a 00 	add	138,a0
    2352:	f0 12       	mov	a0,(a2)
    2354:	5f 70       	mov	(112,sp),a3
    2356:	f8 3e 04    	mov	a3,(4,a2)
    2359:	f1 5f       	add	a3,d3
    235b:	4e a0       	mov	d3,(160,sp)

0000235d <.LVL371>:
    235d:	48          	inc	d2
    235e:	4a 9c       	mov	d2,(156,sp)
    2360:	aa 07       	cmp	7,d2
    2362:	c3 05       	ble	2367 <.L0_101>
    2364:	cc 3d f8    	jmp	1ba1 <.L0_36>

00002367 <.L0_101>:
    2367:	99          	mov	a2,a1
    2368:	21 08       	add	8,a1

0000236a <.LVL372>:
    236a:	cc 91 f5    	jmp	18fb <.L186>

0000236d <.L440>:
    236d:	58 28       	mov	(40,sp),d0
    236f:	f8 e0 01    	and	1,d0
    2372:	c8 05       	beq	2377 <.L0_102>
    2374:	cc 79 ff    	jmp	22ed <.L0_97>

00002377 <.L0_102>:
    2377:	f0 19       	mov	a2,(a1)
    2379:	80 01       	mov	1,d0
    237b:	f8 11 04    	mov	d0,(4,a1)
    237e:	e3          	add	d0,d3
    237f:	4e a0       	mov	d3,(160,sp)

00002381 <.LVL374>:
    2381:	5a 9c       	mov	(156,sp),d2
    2383:	e2          	add	d0,d2
    2384:	4a 9c       	mov	d2,(156,sp)
    2386:	aa 07       	cmp	7,d2
    2388:	c3 05       	ble	238d <.L0_103>
    238a:	cc 4c 07    	jmp	2ad6 <.L252>

0000238d <.L0_103>:
    238d:	96          	mov	a1,a2
    238e:	22 08       	add	8,a2

00002390 <.LVL375>:
    2390:	ca bd       	bra	234d <.L245>

00002392 <.L244>:
    2392:	3e          	mov	sp,a2
    2393:	fa d2 98 00 	add	152,a2
    2397:	f1 d8       	mov	a2,d0

00002399 <.L407>:
    2399:	42 0c       	mov	d0,(12,sp)
    239b:	fa b4 48 05 	mov	(1352,sp),d0
    239f:	fa b5 4c 05 	mov	(1356,sp),d1
    23a3:	dd 73 40 00 	call	6416 <___sprint_r>,[],0
    23a7:	00 00 00 

000023aa <.LVL377>:
    23aa:	a0 00       	cmp	0,d0
    23ac:	c8 05       	beq	23b1 <.L0_104>
    23ae:	cc f3 f6    	jmp	1aa1 <.L18>

000023b1 <.L0_104>:
    23b1:	3e          	mov	sp,a2
    23b2:	fa d2 34 01 	add	308,a2
    23b6:	5b a0       	mov	(160,sp),d3
    23b8:	5a 9c       	mov	(156,sp),d2
    23ba:	ca 93       	bra	234d <.L245>

000023bc <.L183>:
    23bc:	3e          	mov	sp,a2

000023bd <.LVL379>:
    23bd:	fa d2 98 00 	add	152,a2
    23c1:	4b 0c       	mov	a2,(12,sp)
    23c3:	fa b4 48 05 	mov	(1352,sp),d0

000023c7 <.LVL380>:
    23c7:	fa b5 4c 05 	mov	(1356,sp),d1
    23cb:	dd 4b 40 00 	call	6416 <___sprint_r>,[],0
    23cf:	00 00 00 

000023d2 <.LVL381>:
    23d2:	a0 00       	cmp	0,d0
    23d4:	c8 05       	beq	23d9 <.L0_105>
    23d6:	cc cb f6    	jmp	1aa1 <.L18>

000023d9 <.L0_105>:
    23d9:	3d          	mov	sp,a1
    23da:	fa d1 34 01 	add	308,a1
    23de:	5b a0       	mov	(160,sp),d3
    23e0:	cc f5 f4    	jmp	18d5 <.L178>

000023e3 <.L171>:
    23e3:	3e          	mov	sp,a2
    23e4:	fa d2 98 00 	add	152,a2
    23e8:	4b 0c       	mov	a2,(12,sp)
    23ea:	fa b4 48 05 	mov	(1352,sp),d0
    23ee:	fa b5 4c 05 	mov	(1356,sp),d1
    23f2:	dd 24 40 00 	call	6416 <___sprint_r>,[],0
    23f6:	00 00 00 

000023f9 <.LVL383>:
    23f9:	a0 00       	cmp	0,d0
    23fb:	c8 05       	beq	2400 <.L0_106>
    23fd:	cc a4 f6    	jmp	1aa1 <.L18>

00002400 <.L0_106>:
    2400:	3d          	mov	sp,a1
    2401:	fa d1 34 01 	add	308,a1
    2405:	5b a0       	mov	(160,sp),d3

00002407 <.LVL384>:
    2407:	5a 48       	mov	(72,sp),d2
    2409:	fa ca 80 00 	cmp	128,d2
    240d:	c8 05       	beq	2412 <.L0_107>
    240f:	cc 74 f4    	jmp	1883 <.L0_18>

00002412 <.L0_107>:
    2412:	cc d2 f6    	jmp	1ae4 <.L419>

00002415 <.L169>:
    2415:	3c          	mov	sp,a0
    2416:	fa d0 98 00 	add	152,a0
    241a:	43 0c       	mov	a0,(12,sp)
    241c:	fa b4 48 05 	mov	(1352,sp),d0
    2420:	fa b5 4c 05 	mov	(1356,sp),d1
    2424:	dd f2 3f 00 	call	6416 <___sprint_r>,[],0
    2428:	00 00 00 

0000242b <.LVL386>:
    242b:	a0 00       	cmp	0,d0
    242d:	c8 05       	beq	2432 <.L0_108>
    242f:	cc 72 f6    	jmp	1aa1 <.L18>

00002432 <.L0_108>:
    2432:	3d          	mov	sp,a1
    2433:	fa d1 34 01 	add	308,a1
    2437:	5b a0       	mov	(160,sp),d3
    2439:	cc 1e f4    	jmp	1857 <.L168>

0000243c <.L152>:
    243c:	ba 00       	cmp	0,a2
    243e:	c9 06       	bne	2444 <.L290>
    2440:	aa 09       	cmp	9,d2
    2442:	c7 4e       	bls	2490 <.L441>

00002444 <.L290>:
    2444:	3c          	mov	sp,a0
    2445:	fa d0 cc 00 	add	204,a0
    2449:	43 40       	mov	a0,(64,sp)

0000244b <.Loc.1436.1>:
    244b:	9f 00       	mov	0,a3
    244d:	47 30       	mov	a1,(48,sp)
    244f:	4e 34       	mov	d3,(52,sp)
    2451:	f1 db       	mov	a2,d3

00002453 <.LVL388>:
    2453:	92          	mov	a0,a2

00002454 <.L157>:
    2454:	22 ff       	add	-1,a2
    2456:	80 0a       	mov	10,d0
    2458:	42 0c       	mov	d0,(12,sp)
    245a:	4f 10       	mov	a3,(16,sp)
    245c:	88          	mov	d2,d0
    245d:	8d          	mov	d3,d1
    245e:	dd cc 5f 00 	call	842a <___umoddi3>,[],0
    2462:	00 00 00 
    2465:	28 30       	add	48,d0
    2467:	f0 52       	movbu	d0,(a2)

00002469 <.Loc.1457.1>:
    2469:	85 0a       	mov	10,d1
    246b:	46 0c       	mov	d1,(12,sp)
    246d:	4f 10       	mov	a3,(16,sp)
    246f:	88          	mov	d2,d0
    2470:	8d          	mov	d3,d1
    2471:	dd b8 5e 00 	call	8329 <___udivdi3>,[],0
    2475:	00 00 00 
    2478:	82          	mov	d0,d2

00002479 <.LVL393>:
    2479:	87          	mov	d1,d3

0000247a <.LVL394>:
    247a:	f2 14       	or	d1,d0

0000247c <.LVL395>:
    247c:	c9 d8       	bne	2454 <.L157>
    247e:	4b 40       	mov	a2,(64,sp)
    2480:	5d 30       	mov	(48,sp),a1
    2482:	5b 34       	mov	(52,sp),d3

00002484 <.Loc.1408.1>:
    2484:	3c          	mov	sp,a0
    2485:	fa d0 cc 00 	add	204,a0
    2489:	f1 38       	sub	a2,a0
    248b:	43 34       	mov	a0,(52,sp)
    248d:	cc 29 f8    	jmp	1cb6 <.L155>

00002490 <.L441>:
    2490:	88          	mov	d2,d0

00002491 <.LVL397>:
    2491:	28 30       	add	48,d0
    2493:	f8 92 cb    	movbu	d0,(203,sp)
    2496:	9a 01       	mov	1,a2

00002498 <.LVL398>:
    2498:	4b 34       	mov	a2,(52,sp)
    249a:	3f          	mov	sp,a3
    249b:	fa d3 cb 00 	add	203,a3
    249f:	4f 40       	mov	a3,(64,sp)

000024a1 <.Loc.1430.1>:
    24a1:	cc 15 f8    	jmp	1cb6 <.L155>

000024a4 <.L292>:
    24a4:	4e 34       	mov	d3,(52,sp)

000024a6 <.Loc.1408.1>:
    24a6:	3e          	mov	sp,a2

000024a7 <.LVL400>:
    24a7:	fa d2 cc 00 	add	204,a2
    24ab:	4b 40       	mov	a2,(64,sp)
    24ad:	cc 09 f8    	jmp	1cb6 <.L155>

000024b0 <.L275>:
    24b0:	80 01       	mov	1,d0
    24b2:	cc c4 f7    	jmp	1c76 <.L64>

000024b5 <.L388>:
    24b5:	5e 7c       	mov	(124,sp),a2
    24b7:	ba 00       	cmp	0,a2
    24b9:	c1 05       	bgt	24be <.L0_109>
    24bb:	cc d4 04    	jmp	298f <.L442>

000024be <.L0_109>:
    24be:	5a 4c       	mov	(76,sp),d2
    24c0:	5e 40       	mov	(64,sp),a2
    24c2:	f1 6a       	add	d2,a2
    24c4:	4b 34       	mov	a2,(52,sp)
    24c6:	5f 60       	mov	(96,sp),a3
    24c8:	f1 9e       	cmp	a3,d2
    24ca:	c3 04       	ble	24ce <.L214>
    24cc:	f1 de       	mov	a3,d2

000024ce <.L214>:
    24ce:	aa 00       	cmp	0,d2
    24d0:	c3 1a       	ble	24ea <.L215>

000024d2 <.Loc.1560.1>:
    24d2:	5e 40       	mov	(64,sp),a2
    24d4:	f0 19       	mov	a2,(a1)
    24d6:	f8 19 04    	mov	d2,(4,a1)
    24d9:	eb          	add	d2,d3
    24da:	4e a0       	mov	d3,(160,sp)

000024dc <.LVL405>:
    24dc:	58 9c       	mov	(156,sp),d0
    24de:	40          	inc	d0
    24df:	42 9c       	mov	d0,(156,sp)
    24e1:	a0 07       	cmp	7,d0
    24e3:	c3 05       	ble	24e8 <.L0_110>
    24e5:	cc 49 07    	jmp	2c2e <.L216>

000024e8 <.L0_110>:
    24e8:	21 08       	add	8,a1

000024ea <.L215>:
    24ea:	aa 00       	cmp	0,d2
    24ec:	c2 05       	bge	24f1 <.L0_111>
    24ee:	cc b7 05    	jmp	2aa5 <.L443>

000024f1 <.L0_111>:
    24f1:	5e 60       	mov	(96,sp),a2
    24f3:	f1 2a       	sub	d2,a2

000024f5 <.LVL408>:
    24f5:	ba 00       	cmp	0,a2
    24f7:	c3 4a       	ble	2541 <.L218>
    24f9:	5a 9c       	mov	(156,sp),d2
    24fb:	fc dc 10 97 	mov	38672,a0
    24ff:	00 00 

00002501 <.Loc.1560.1>:
    2501:	ba 10       	cmp	16,a2
    2503:	c3 29       	ble	252c <.L219>

00002505 <.Loc.1560.1>:
    2505:	9f 10       	mov	16,a3
    2507:	8d          	mov	d3,d1
    2508:	f1 db       	mov	a2,d3
    250a:	96          	mov	a1,a2

0000250b <.LVL409>:
    250b:	91          	mov	a0,a1

0000250c <.L222>:
    250c:	f0 16       	mov	a1,(a2)
    250e:	f8 3e 04    	mov	a3,(4,a2)
    2511:	29 10       	add	16,d1
    2513:	46 a0       	mov	d1,(160,sp)

00002515 <.LVL411>:
    2515:	48          	inc	d2
    2516:	4a 9c       	mov	d2,(156,sp)
    2518:	aa 07       	cmp	7,d2
    251a:	c3 05       	ble	251f <.L0_112>
    251c:	cc db 00    	jmp	25f7 <.L220>

0000251f <.L0_112>:
    251f:	22 08       	add	8,a2

00002521 <.LVL412>:
    2521:	2b f0       	add	-16,d3
    2523:	af 10       	cmp	16,d3
    2525:	c1 e7       	bgt	250c <.L222>

00002527 <.L445>:
    2527:	94          	mov	a1,a0
    2528:	99          	mov	a2,a1
    2529:	f1 ee       	mov	d3,a2

0000252b <.LVL414>:
    252b:	87          	mov	d1,d3

0000252c <.L219>:
    252c:	f0 11       	mov	a0,(a1)
    252e:	f8 39 04    	mov	a2,(4,a1)
    2531:	f1 5b       	add	a2,d3
    2533:	4e a0       	mov	d3,(160,sp)

00002535 <.LVL416>:
    2535:	48          	inc	d2
    2536:	4a 9c       	mov	d2,(156,sp)
    2538:	aa 07       	cmp	7,d2
    253a:	c3 05       	ble	253f <.L0_113>
    253c:	cc d8 07    	jmp	2d14 <.L223>

0000253f <.L0_113>:
    253f:	21 08       	add	8,a1

00002541 <.L218>:
    2541:	5e 40       	mov	(64,sp),a2

00002543 <.LVL418>:
    2543:	5a 60       	mov	(96,sp),d2
    2545:	f1 6a       	add	d2,a2
    2547:	9b          	mov	a2,a3

00002548 <.LVL419>:
    2548:	59 7c       	mov	(124,sp),d1
    254a:	5e 4c       	mov	(76,sp),a2

0000254c <.LVL420>:
    254c:	f1 99       	cmp	a2,d1
    254e:	c0 09       	blt	2557 <.L224>

00002550 <.Loc.1581.1>:
    2550:	58 28       	mov	(40,sp),d0
    2552:	f8 e0 01    	and	1,d0
    2555:	c8 1c       	beq	2571 <.L225>

00002557 <.L224>:
    2557:	5a 5c       	mov	(92,sp),d2
    2559:	69          	mov	d2,(a1)
    255a:	5e 68       	mov	(104,sp),a2
    255c:	f8 39 04    	mov	a2,(4,a1)
    255f:	f1 5b       	add	a2,d3
    2561:	4e a0       	mov	d3,(160,sp)

00002563 <.LVL421>:
    2563:	58 9c       	mov	(156,sp),d0
    2565:	40          	inc	d0
    2566:	42 9c       	mov	d0,(156,sp)
    2568:	a0 07       	cmp	7,d0
    256a:	c3 05       	ble	256f <.L0_114>
    256c:	cc f0 06    	jmp	2c5c <.L226>

0000256f <.L0_114>:
    256f:	21 08       	add	8,a1

00002571 <.L225>:
    2571:	58 34       	mov	(52,sp),d0
    2573:	f1 1c       	sub	a3,d0

00002575 <.LVL423>:
    2575:	5e 4c       	mov	(76,sp),a2
    2577:	f1 26       	sub	d1,a2
    2579:	f1 da       	mov	a2,d2
    257b:	f1 a2       	cmp	d0,a2
    257d:	c3 03       	ble	2580 <.L227>
    257f:	82          	mov	d0,d2

00002580 <.L227>:
    2580:	aa 00       	cmp	0,d2
    2582:	c3 18       	ble	259a <.L228>

00002584 <.Loc.1583.1>:
    2584:	f0 1d       	mov	a3,(a1)
    2586:	f8 19 04    	mov	d2,(4,a1)
    2589:	eb          	add	d2,d3
    258a:	4e a0       	mov	d3,(160,sp)

0000258c <.LVL425>:
    258c:	58 9c       	mov	(156,sp),d0
    258e:	40          	inc	d0
    258f:	42 9c       	mov	d0,(156,sp)
    2591:	a0 07       	cmp	7,d0
    2593:	c3 05       	ble	2598 <.L0_115>
    2595:	cc 10 07    	jmp	2ca5 <.L229>

00002598 <.L0_115>:
    2598:	21 08       	add	8,a1

0000259a <.L228>:
    259a:	aa 00       	cmp	0,d2
    259c:	c2 05       	bge	25a1 <.L0_116>
    259e:	cc 0b 05    	jmp	2aa9 <.L444>

000025a1 <.L0_116>:
    25a1:	f1 2a       	sub	d2,a2

000025a3 <.LVL428>:
    25a3:	ba 00       	cmp	0,a2
    25a5:	c1 05       	bgt	25aa <.L0_117>
    25a7:	cc 54 f3    	jmp	18fb <.L186>

000025aa <.L0_117>:
    25aa:	5a 9c       	mov	(156,sp),d2
    25ac:	fc dc 10 97 	mov	38672,a0
    25b0:	00 00 

000025b2 <.Loc.1583.1>:
    25b2:	ba 10       	cmp	16,a2
    25b4:	c3 26       	ble	25da <.L231>

000025b6 <.Loc.1583.1>:
    25b6:	9f 10       	mov	16,a3

000025b8 <.LVL429>:
    25b8:	8d          	mov	d3,d1
    25b9:	f1 db       	mov	a2,d3
    25bb:	96          	mov	a1,a2

000025bc <.LVL430>:
    25bc:	91          	mov	a0,a1

000025bd <.L234>:
    25bd:	f0 16       	mov	a1,(a2)
    25bf:	f8 3e 04    	mov	a3,(4,a2)
    25c2:	29 10       	add	16,d1
    25c4:	46 a0       	mov	d1,(160,sp)

000025c6 <.LVL432>:
    25c6:	48          	inc	d2
    25c7:	4a 9c       	mov	d2,(156,sp)
    25c9:	aa 07       	cmp	7,d2
    25cb:	c1 62       	bgt	262d <.L232>

000025cd <.Loc.1583.1>:
    25cd:	22 08       	add	8,a2

000025cf <.LVL433>:
    25cf:	2b f0       	add	-16,d3
    25d1:	af 10       	cmp	16,d3
    25d3:	c1 ea       	bgt	25bd <.L234>

000025d5 <.L446>:
    25d5:	94          	mov	a1,a0
    25d6:	99          	mov	a2,a1
    25d7:	f1 ee       	mov	d3,a2

000025d9 <.LVL435>:
    25d9:	87          	mov	d1,d3

000025da <.L231>:
    25da:	f0 11       	mov	a0,(a1)
    25dc:	f8 39 04    	mov	a2,(4,a1)
    25df:	f1 5b       	add	a2,d3
    25e1:	4e a0       	mov	d3,(160,sp)

000025e3 <.LVL437>:
    25e3:	48          	inc	d2
    25e4:	4a 9c       	mov	d2,(156,sp)
    25e6:	aa 07       	cmp	7,d2
    25e8:	c1 05       	bgt	25ed <.L0_118>
    25ea:	cc 0f f3    	jmp	18f9 <.L0_22>

000025ed <.L0_118>:
    25ed:	3e          	mov	sp,a2

000025ee <.LVL438>:
    25ee:	fa d2 98 00 	add	152,a2
    25f2:	f1 d8       	mov	a2,d0
    25f4:	cc b4 f5    	jmp	1ba8 <.L406>

000025f7 <.L220>:
    25f7:	3e          	mov	sp,a2

000025f8 <.LVL440>:
    25f8:	fa d2 98 00 	add	152,a2
    25fc:	4b 0c       	mov	a2,(12,sp)
    25fe:	fa b4 48 05 	mov	(1352,sp),d0
    2602:	fa b5 4c 05 	mov	(1356,sp),d1
    2606:	47 24       	mov	a1,(36,sp)
    2608:	dd 0e 3e 00 	call	6416 <___sprint_r>,[],0
    260c:	00 00 00 

0000260f <.LVL441>:
    260f:	5d 24       	mov	(36,sp),a1
    2611:	a0 00       	cmp	0,d0
    2613:	c8 05       	beq	2618 <.L0_119>
    2615:	cc 8c f4    	jmp	1aa1 <.L18>

00002618 <.L0_119>:
    2618:	3e          	mov	sp,a2
    2619:	fa d2 34 01 	add	308,a2
    261d:	59 a0       	mov	(160,sp),d1
    261f:	5a 9c       	mov	(156,sp),d2

00002621 <.LVL442>:
    2621:	2b f0       	add	-16,d3
    2623:	af 10       	cmp	16,d3
    2625:	c3 05       	ble	262a <.L0_120>
    2627:	cc e5 fe    	jmp	250c <.L222>

0000262a <.L0_120>:
    262a:	cc fd fe    	jmp	2527 <.L445>

0000262d <.L232>:
    262d:	3c          	mov	sp,a0
    262e:	fa d0 98 00 	add	152,a0
    2632:	43 0c       	mov	a0,(12,sp)
    2634:	fa b4 48 05 	mov	(1352,sp),d0
    2638:	fa b5 4c 05 	mov	(1356,sp),d1
    263c:	47 24       	mov	a1,(36,sp)
    263e:	dd d8 3d 00 	call	6416 <___sprint_r>,[],0
    2642:	00 00 00 

00002645 <.LVL445>:
    2645:	5d 24       	mov	(36,sp),a1
    2647:	a0 00       	cmp	0,d0
    2649:	c8 05       	beq	264e <.L0_121>
    264b:	cc 56 f4    	jmp	1aa1 <.L18>

0000264e <.L0_121>:
    264e:	3e          	mov	sp,a2

0000264f <.LVL446>:
    264f:	fa d2 34 01 	add	308,a2
    2653:	59 a0       	mov	(160,sp),d1
    2655:	5a 9c       	mov	(156,sp),d2

00002657 <.LVL447>:
    2657:	2b f0       	add	-16,d3
    2659:	af 10       	cmp	16,d3
    265b:	c3 05       	ble	2660 <.L0_122>
    265d:	cc 60 ff    	jmp	25bd <.L234>

00002660 <.L0_122>:
    2660:	cc 75 ff    	jmp	25d5 <.L446>

00002663 <.L393>:
    2663:	5f 4c       	mov	(76,sp),a3
    2665:	23 ff       	add	-1,a3

00002667 <.LVL450>:
    2667:	bf 00       	cmp	0,a3
    2669:	c1 05       	bgt	266e <.L0_123>
    266b:	cc e2 fc    	jmp	234d <.L245>

0000266e <.L0_123>:
    266e:	fc dc 10 97 	mov	38672,a0
    2672:	00 00 

00002674 <.Loc.1595.1>:
    2674:	bf 10       	cmp	16,a3
    2676:	c3 21       	ble	2697 <.L246>

00002678 <.Loc.1595.1>:
    2678:	95 10       	mov	16,a1
    267a:	8d          	mov	d3,d1
    267b:	f1 d3       	mov	a0,d3

0000267d <.L249>:
    267d:	6e          	mov	d3,(a2)
    267e:	f8 36 04    	mov	a1,(4,a2)
    2681:	29 10       	add	16,d1
    2683:	46 a0       	mov	d1,(160,sp)

00002685 <.LVL451>:
    2685:	48          	inc	d2
    2686:	4a 9c       	mov	d2,(156,sp)
    2688:	aa 07       	cmp	7,d2
    268a:	c1 23       	bgt	26ad <.L247>

0000268c <.Loc.1595.1>:
    268c:	22 08       	add	8,a2

0000268e <.LVL452>:
    268e:	23 f0       	add	-16,a3
    2690:	bf 10       	cmp	16,a3
    2692:	c1 eb       	bgt	267d <.L249>

00002694 <.L447>:
    2694:	f1 ec       	mov	d3,a0
    2696:	87          	mov	d1,d3

00002697 <.L246>:
    2697:	f0 12       	mov	a0,(a2)
    2699:	f8 3e 04    	mov	a3,(4,a2)
    269c:	f1 5f       	add	a3,d3
    269e:	4e a0       	mov	d3,(160,sp)

000026a0 <.LVL454>:
    26a0:	48          	inc	d2
    26a1:	4a 9c       	mov	d2,(156,sp)
    26a3:	aa 07       	cmp	7,d2
    26a5:	c1 05       	bgt	26aa <.L0_124>
    26a7:	cc a4 fc    	jmp	234b <.L408>

000026aa <.L0_124>:
    26aa:	cc e8 fc    	jmp	2392 <.L244>

000026ad <.L247>:
    26ad:	3c          	mov	sp,a0
    26ae:	fa d0 98 00 	add	152,a0
    26b2:	43 0c       	mov	a0,(12,sp)
    26b4:	fa b4 48 05 	mov	(1352,sp),d0
    26b8:	fa b5 4c 05 	mov	(1356,sp),d1
    26bc:	47 24       	mov	a1,(36,sp)
    26be:	dd 58 3d 00 	call	6416 <___sprint_r>,[],0
    26c2:	00 00 00 

000026c5 <.LVL455>:
    26c5:	5d 24       	mov	(36,sp),a1
    26c7:	a0 00       	cmp	0,d0
    26c9:	c8 05       	beq	26ce <.L0_125>
    26cb:	cc d6 f3    	jmp	1aa1 <.L18>

000026ce <.L0_125>:
    26ce:	3e          	mov	sp,a2

000026cf <.LVL456>:
    26cf:	fa d2 34 01 	add	308,a2
    26d3:	59 a0       	mov	(160,sp),d1
    26d5:	5a 9c       	mov	(156,sp),d2

000026d7 <.LVL457>:
    26d7:	23 f0       	add	-16,a3
    26d9:	bf 10       	cmp	16,a3
    26db:	c1 a2       	bgt	267d <.L249>
    26dd:	ca b7       	bra	2694 <.L447>

000026df <.L238>:
    26df:	3c          	mov	sp,a0
    26e0:	fa d0 98 00 	add	152,a0
    26e4:	43 0c       	mov	a0,(12,sp)
    26e6:	fa b4 48 05 	mov	(1352,sp),d0
    26ea:	fa b5 4c 05 	mov	(1356,sp),d1
    26ee:	dd 28 3d 00 	call	6416 <___sprint_r>,[],0
    26f2:	00 00 00 

000026f5 <.LVL460>:
    26f5:	a0 00       	cmp	0,d0
    26f7:	c8 05       	beq	26fc <.L0_126>
    26f9:	cc a8 f3    	jmp	1aa1 <.L18>

000026fc <.L0_126>:
    26fc:	3e          	mov	sp,a2
    26fd:	fa d2 34 01 	add	308,a2
    2701:	5b a0       	mov	(160,sp),d3
    2703:	5a 9c       	mov	(156,sp),d2

00002705 <.LVL461>:
    2705:	5f 5c       	mov	(92,sp),a3
    2707:	f0 1e       	mov	a3,(a2)
    2709:	5f 68       	mov	(104,sp),a3
    270b:	f8 3e 04    	mov	a3,(4,a2)
    270e:	f1 5f       	add	a3,d3
    2710:	4e a0       	mov	d3,(160,sp)

00002712 <.LVL462>:
    2712:	48          	inc	d2
    2713:	4a 9c       	mov	d2,(156,sp)
    2715:	aa 07       	cmp	7,d2
    2717:	c1 05       	bgt	271c <.L0_127>
    2719:	cc 04 fc    	jmp	231d <.L0_99>

0000271c <.L0_127>:
    271c:	3c          	mov	sp,a0
    271d:	fa d0 98 00 	add	152,a0
    2721:	43 0c       	mov	a0,(12,sp)
    2723:	fa b4 48 05 	mov	(1352,sp),d0
    2727:	fa b5 4c 05 	mov	(1356,sp),d1
    272b:	dd eb 3c 00 	call	6416 <___sprint_r>,[],0
    272f:	00 00 00 

00002732 <.LVL464>:
    2732:	a0 00       	cmp	0,d0
    2734:	c8 05       	beq	2739 <.L0_128>
    2736:	cc 6b f3    	jmp	1aa1 <.L18>

00002739 <.L0_128>:
    2739:	3e          	mov	sp,a2
    273a:	fa d2 34 01 	add	308,a2
    273e:	5b a0       	mov	(160,sp),d3
    2740:	5a 9c       	mov	(156,sp),d2
    2742:	cc dd fb    	jmp	231f <.L241>

00002745 <.L177>:
    2745:	3c          	mov	sp,a0
    2746:	fa d0 98 00 	add	152,a0
    274a:	43 0c       	mov	a0,(12,sp)
    274c:	fa b4 48 05 	mov	(1352,sp),d0

00002750 <.LVL466>:
    2750:	fa b5 4c 05 	mov	(1356,sp),d1
    2754:	dd c2 3c 00 	call	6416 <___sprint_r>,[],0
    2758:	00 00 00 

0000275b <.LVL467>:
    275b:	a0 00       	cmp	0,d0
    275d:	c8 05       	beq	2762 <.L0_129>
    275f:	cc 42 f3    	jmp	1aa1 <.L18>

00002762 <.L0_129>:
    2762:	3d          	mov	sp,a1
    2763:	fa d1 34 01 	add	308,a1
    2767:	5b a0       	mov	(160,sp),d3
    2769:	cc 1a f1    	jmp	1883 <.L0_18>

0000276c <.L68>:
    276c:	f1 d8       	mov	a2,d0
    276e:	89          	mov	d2,d1
    276f:	47 24       	mov	a1,(36,sp)
    2771:	dd 7e 3a 00 	call	61ef <___fpclassifyd>,[],0
    2775:	00 00 00 

00002778 <.LVL469>:
    2778:	5d 24       	mov	(36,sp),a1
    277a:	a0 00       	cmp	0,d0
    277c:	c9 05       	bne	2781 <.L0_130>
    277e:	cc bc 02    	jmp	2a3a <.L449>

00002781 <.L0_130>:
    2781:	af ff       	cmp	-1,d3
    2783:	c9 05       	bne	2788 <.L0_131>
    2785:	cc e3 06    	jmp	2e68 <.L278>

00002788 <.L0_131>:
    2788:	58 54       	mov	(84,sp),d0
    278a:	a0 67       	cmp	103,d0
    278c:	c9 05       	bne	2791 <.L0_132>
    278e:	cc ad 03    	jmp	2b3b <.L76>

00002791 <.L0_132>:
    2791:	a0 47       	cmp	71,d0
    2793:	c9 05       	bne	2798 <.L0_133>
    2795:	cc a6 03    	jmp	2b3b <.L76>

00002798 <.L0_133>:
    2798:	59 28       	mov	(40,sp),d1
    279a:	fa e5 00 01 	or	256,d1
    279e:	46 44       	mov	d1,(68,sp)

000027a0 <.LBB27>:
    27a0:	aa 00       	cmp	0,d2
    27a2:	c2 05       	bge	27a7 <.L0_134>
    27a4:	cc c9 06    	jmp	2e6d <.L450>

000027a7 <.L0_134>:
    27a7:	04          	clr	d1

000027a8 <.LVL472>:
    27a8:	f8 96 48    	movbu	d1,(72,sp)

000027ab <.L77>:
    27ab:	58 54       	mov	(84,sp),d0
    27ad:	a0 66       	cmp	102,d0
    27af:	c9 05       	bne	27b4 <.L0_135>
    27b1:	cc 2f 03    	jmp	2ae0 <.L79>

000027b4 <.L0_135>:
    27b4:	a0 46       	cmp	70,d0
    27b6:	c9 05       	bne	27bb <.L0_136>
    27b8:	cc 28 03    	jmp	2ae0 <.L79>

000027bb <.L0_136>:
    27bb:	a0 65       	cmp	101,d0
    27bd:	c9 05       	bne	27c2 <.L0_137>
    27bf:	cc bc 06    	jmp	2e7b <.L80>

000027c2 <.L0_137>:
    27c2:	a0 45       	cmp	69,d0
    27c4:	c9 05       	bne	27c9 <.L0_138>
    27c6:	cc b5 06    	jmp	2e7b <.L80>

000027c9 <.L0_138>:
    27c9:	4e 30       	mov	d3,(48,sp)

000027cb <.L81>:
    27cb:	80 02       	mov	2,d0
    27cd:	42 10       	mov	d0,(16,sp)
    27cf:	5f 30       	mov	(48,sp),a3
    27d1:	4f 14       	mov	a3,(20,sp)

000027d3 <.Loc.1164.1>:
    27d3:	3c          	mov	sp,a0
    27d4:	20 7c       	add	124,a0

000027d6 <.Loc.1715.1>:
    27d6:	43 18       	mov	a0,(24,sp)
    27d8:	3c          	mov	sp,a0
    27d9:	fa d0 80 00 	add	128,a0
    27dd:	43 1c       	mov	a0,(28,sp)
    27df:	3c          	mov	sp,a0
    27e0:	fa d0 84 00 	add	132,a0
    27e4:	43 20       	mov	a0,(32,sp)
    27e6:	4a 0c       	mov	d2,(12,sp)
    27e8:	f1 d9       	mov	a2,d1
    27ea:	fa b4 48 05 	mov	(1352,sp),d0
    27ee:	47 24       	mov	a1,(36,sp)
    27f0:	dd 96 0b 00 	call	3386 <__dtoa_r>,[],0
    27f4:	00 00 00 

000027f7 <.LVL475>:
    27f7:	43 40       	mov	a0,(64,sp)

000027f9 <.LVL476>:
    27f9:	5d 24       	mov	(36,sp),a1
    27fb:	58 54       	mov	(84,sp),d0
    27fd:	a0 67       	cmp	103,d0
    27ff:	c8 06       	beq	2805 <.L82>
    2801:	a0 47       	cmp	71,d0
    2803:	c9 0c       	bne	280f <.L0_139>

00002805 <.L82>:
    2805:	58 28       	mov	(40,sp),d0
    2807:	f8 e0 01    	and	1,d0
    280a:	c9 05       	bne	280f <.L0_139>
    280c:	cc 16 03    	jmp	2b22 <.L451>

0000280f <.L0_139>:
    280f:	59 40       	mov	(64,sp),d1
    2811:	5c 30       	mov	(48,sp),a0

00002813 <.LVL477>:
    2813:	f1 51       	add	a0,d1
    2815:	f1 e7       	mov	d1,a3

00002817 <.LVL478>:
    2817:	58 54       	mov	(84,sp),d0
    2819:	a0 46       	cmp	70,d0
    281b:	c9 05       	bne	2820 <.L0_140>
    281d:	cc f6 02    	jmp	2b13 <.L267>

00002820 <.L0_140>:
    2820:	00          	clr	d0
    2821:	42 0c       	mov	d0,(12,sp)
    2823:	42 10       	mov	d0,(16,sp)
    2825:	f1 d8       	mov	a2,d0
    2827:	89          	mov	d2,d1
    2828:	47 24       	mov	a1,(36,sp)
    282a:	dd f6 64 00 	call	8d20 <___eqdf2>,[],0
    282e:	00 00 00 
    2831:	5d 24       	mov	(36,sp),a1
    2833:	a0 00       	cmp	0,d0
    2835:	c8 14       	beq	2849 <.L84>

00002837 <.Loc.1726.1>:
    2837:	5e 84       	mov	(132,sp),a2

00002839 <.LVL481>:
    2839:	bb          	cmp	a2,a3
    283a:	c5 05       	bhi	283f <.L0_141>
    283c:	cc c2 07    	jmp	2ffe <.L282>

0000283f <.L0_141>:
    283f:	80 30       	mov	48,d0

00002841 <.L89>:
    2841:	f0 52       	movbu	d0,(a2)
    2843:	49          	inc	a2
    2844:	4b 84       	mov	a2,(132,sp)

00002846 <.Loc.1726.1>:
    2846:	be          	cmp	a3,a2
    2847:	c9 fa       	bne	2841 <.L89>

00002849 <.L84>:
    2849:	f1 de       	mov	a3,d2

0000284b <.LVL483>:
    284b:	5e 40       	mov	(64,sp),a2
    284d:	f1 1a       	sub	a2,d2
    284f:	4a 4c       	mov	d2,(76,sp)

00002851 <.LBE27>:
    2851:	5a 54       	mov	(84,sp),d2

00002853 <.LVL485>:
    2853:	aa 67       	cmp	103,d2
    2855:	c9 05       	bne	285a <.L0_142>
    2857:	cc 21 05    	jmp	2d78 <.L90>

0000285a <.L0_142>:
    285a:	aa 47       	cmp	71,d2
    285c:	c9 05       	bne	2861 <.L0_143>
    285e:	cc 1a 05    	jmp	2d78 <.L90>

00002861 <.L0_143>:
    2861:	5a 54       	mov	(84,sp),d2
    2863:	aa 66       	cmp	102,d2
    2865:	c8 05       	beq	286a <.L0_144>
    2867:	cc 69 07    	jmp	2fd0 <.L452>

0000286a <.L0_144>:
    286a:	59 7c       	mov	(124,sp),d1
    286c:	a5 00       	cmp	0,d1
    286e:	c1 05       	bgt	2873 <.L0_145>
    2870:	cc 0e 07    	jmp	2f7e <.L107>

00002873 <.L0_145>:
    2873:	af 00       	cmp	0,d3
    2875:	c8 05       	beq	287a <.L0_146>
    2877:	cc 99 06    	jmp	2f10 <.L108>

0000287a <.L0_146>:
    287a:	58 28       	mov	(40,sp),d0
    287c:	f8 e0 01    	and	1,d0
    287f:	c8 05       	beq	2884 <.L0_147>
    2881:	cc 8f 06    	jmp	2f10 <.L108>

00002884 <.L0_147>:
    2884:	46 30       	mov	d1,(48,sp)

00002886 <.Loc.1190.1>:
    2886:	46 34       	mov	d1,(52,sp)

00002888 <.L110>:
    2888:	46 60       	mov	d1,(96,sp)

0000288a <.L105>:
    288a:	f8 b9 48    	movbu	(72,sp),d1
    288d:	a5 00       	cmp	0,d1
    288f:	c9 05       	bne	2894 <.L0_148>
    2891:	cc aa 04    	jmp	2d3b <.L120>

00002894 <.L0_148>:
    2894:	80 2d       	mov	45,d0
    2896:	f8 92 79    	movbu	d0,(121,sp)

00002899 <.LVL490>:
    2899:	5a 44       	mov	(68,sp),d2
    289b:	4a 28       	mov	d2,(40,sp)

0000289d <.Loc.790.1>:
    289d:	90 00       	mov	0,a0
    289f:	43 50       	mov	a0,(80,sp)

000028a1 <.Loc.1517.1>:
    28a1:	5c 30       	mov	(48,sp),a0
    28a3:	41          	inc	a0
    28a4:	43 30       	mov	a0,(48,sp)

000028a6 <.LVL491>:
    28a6:	cc 14 ef    	jmp	17ba <.L160>

000028a9 <.L145>:
    28a9:	58 28       	mov	(40,sp),d0
    28ab:	fa b2 54 05 	mov	(1364,sp),a2
    28af:	f8 e0 40    	and	64,d0
    28b2:	c9 05       	bne	28b7 <.L0_149>
    28b4:	cc c3 f5    	jmp	1e77 <.L146>

000028b7 <.L0_149>:
    28b7:	f0 6a       	movhu	(a2),d2
    28b9:	f1 e6       	mov	d1,a2

000028bb <.LVL494>:
    28bb:	fa b3 54 05 	mov	(1364,sp),a3
    28bf:	53          	inc4	a3

000028c0 <.LVL495>:
    28c0:	fa 9c 54 05 	mov	a3,(1364,sp)
    28c4:	cc 88 f3    	jmp	1c4c <.L144>

000028c7 <.L128>:
    28c7:	58 28       	mov	(40,sp),d0
    28c9:	fa b2 54 05 	mov	(1364,sp),a2

000028cd <.LVL497>:
    28cd:	f8 e0 40    	and	64,d0
    28d0:	c9 05       	bne	28d5 <.L0_150>
    28d2:	cc 89 f7    	jmp	205b <.L129>

000028d5 <.L0_150>:
    28d5:	f0 6a       	movhu	(a2),d2
    28d7:	f1 e6       	mov	d1,a2

000028d9 <.LVL499>:
    28d9:	fa b3 54 05 	mov	(1364,sp),a3
    28dd:	53          	inc4	a3

000028de <.LVL500>:
    28de:	fa 9c 54 05 	mov	a3,(1364,sp)

000028e2 <.Loc.1250.1>:
    28e2:	84          	mov	d1,d0

000028e3 <.LVL501>:
    28e3:	04          	clr	d1
    28e4:	f8 96 79    	movbu	d1,(121,sp)
    28e7:	cc 8f f3    	jmp	1c76 <.L64>

000028ea <.L62>:
    28ea:	58 28       	mov	(40,sp),d0
    28ec:	fa b2 54 05 	mov	(1364,sp),a2

000028f0 <.LVL503>:
    28f0:	f8 e0 40    	and	64,d0
    28f3:	c9 05       	bne	28f8 <.L0_151>
    28f5:	cc 06 f7    	jmp	1ffb <.L63>

000028f8 <.L0_151>:
    28f8:	72          	mov	(a2),d0
    28f9:	82          	mov	d0,d2
    28fa:	1a          	exth	d2
    28fb:	88          	mov	d2,d0
    28fc:	f8 c8 1f    	asr	31,d0
    28ff:	f1 e2       	mov	d0,a2

00002901 <.LVL505>:
    2901:	fa b3 54 05 	mov	(1364,sp),a3
    2905:	53          	inc4	a3

00002906 <.LVL506>:
    2906:	fa 9c 54 05 	mov	a3,(1364,sp)
    290a:	cc b2 f4    	jmp	1dbc <.L61>

0000290d <.L141>:
    290d:	58 28       	mov	(40,sp),d0
    290f:	fa b2 54 05 	mov	(1364,sp),a2

00002913 <.LVL508>:
    2913:	f8 e0 40    	and	64,d0
    2916:	c9 05       	bne	291b <.L0_152>
    2918:	cc 12 f7    	jmp	202a <.L142>

0000291b <.L0_152>:
    291b:	f0 6a       	movhu	(a2),d2
    291d:	f1 e6       	mov	d1,a2

0000291f <.LVL510>:
    291f:	fa b3 54 05 	mov	(1364,sp),a3
    2923:	53          	inc4	a3

00002924 <.LVL511>:
    2924:	fa 9c 54 05 	mov	a3,(1364,sp)

00002928 <.Loc.1374.1>:
    2928:	80 01       	mov	1,d0

0000292a <.LVL512>:
    292a:	04          	clr	d1
    292b:	f8 96 79    	movbu	d1,(121,sp)
    292e:	cc 48 f3    	jmp	1c76 <.L64>

00002931 <.L122>:
    2931:	58 28       	mov	(40,sp),d0
    2933:	f8 e0 10    	and	16,d0
    2936:	c9 1b       	bne	2951 <.L125>

00002938 <.Loc.1236.1>:
    2938:	58 28       	mov	(40,sp),d0
    293a:	f8 e0 40    	and	64,d0
    293d:	c8 14       	beq	2951 <.L125>

0000293f <.LVL514>:
    293f:	fa b2 54 05 	mov	(1364,sp),a2

00002943 <.LVL515>:
    2943:	f0 02       	mov	(a2),a0
    2945:	5a 3c       	mov	(60,sp),d2

00002947 <.LVL516>:
    2947:	f0 78       	movhu	d2,(a0)
    2949:	52          	inc4	a2

0000294a <.LVL517>:
    294a:	fa 98 54 05 	mov	a2,(1364,sp)
    294e:	cc cf ed    	jmp	171d <.L382>

00002951 <.L125>:
    2951:	fa b2 54 05 	mov	(1364,sp),a2

00002955 <.LVL519>:
    2955:	f0 02       	mov	(a2),a0
    2957:	5a 3c       	mov	(60,sp),d2

00002959 <.LVL520>:
    2959:	68          	mov	d2,(a0)
    295a:	52          	inc4	a2

0000295b <.LVL521>:
    295b:	fa 98 54 05 	mov	a2,(1364,sp)
    295f:	cc be ed    	jmp	171d <.L382>

00002962 <.L49>:
    2962:	f0 4a       	movbu	(a2),d2

00002964 <.LVL523>:
    2964:	49          	inc	a2

00002965 <.LVL524>:
    2965:	cc 25 ee    	jmp	178a <.L381>

00002968 <.L190>:
    2968:	3c          	mov	sp,a0
    2969:	fa d0 98 00 	add	152,a0
    296d:	43 0c       	mov	a0,(12,sp)
    296f:	fa b4 48 05 	mov	(1352,sp),d0
    2973:	fa b5 4c 05 	mov	(1356,sp),d1
    2977:	dd 9f 3a 00 	call	6416 <___sprint_r>,[],0
    297b:	00 00 00 

0000297e <.LVL526>:
    297e:	a0 00       	cmp	0,d0
    2980:	c8 05       	beq	2985 <.L0_153>
    2982:	cc 1f f1    	jmp	1aa1 <.L18>

00002985 <.L0_153>:
    2985:	3d          	mov	sp,a1
    2986:	fa d1 34 01 	add	308,a1
    298a:	5b a0       	mov	(160,sp),d3
    298c:	cc 77 f8    	jmp	2203 <.L191>

0000298f <.L442>:
    298f:	fc cc 97 95 	mov	38295,d0
    2993:	00 00 
    2995:	61          	mov	d0,(a1)
    2996:	80 01       	mov	1,d0
    2998:	f8 11 04    	mov	d0,(4,a1)
    299b:	e3          	add	d0,d3
    299c:	4e a0       	mov	d3,(160,sp)

0000299e <.LVL528>:
    299e:	58 9c       	mov	(156,sp),d0
    29a0:	40          	inc	d0
    29a1:	42 9c       	mov	d0,(156,sp)
    29a3:	a0 07       	cmp	7,d0
    29a5:	c3 05       	ble	29aa <.L0_154>
    29a7:	cc 06 01    	jmp	2aad <.L202>

000029aa <.L0_154>:
    29aa:	21 08       	add	8,a1

000029ac <.L203>:
    29ac:	ba 00       	cmp	0,a2
    29ae:	c9 12       	bne	29c0 <.L0_155>

000029b0 <.Loc.1553.1>:
    29b0:	5f 4c       	mov	(76,sp),a3
    29b2:	bf 00       	cmp	0,a3
    29b4:	c9 0c       	bne	29c0 <.L0_155>
    29b6:	58 28       	mov	(40,sp),d0
    29b8:	f8 e0 01    	and	1,d0
    29bb:	c9 05       	bne	29c0 <.L0_155>
    29bd:	cc 3e ef    	jmp	18fb <.L186>

000029c0 <.L0_155>:
    29c0:	5a 5c       	mov	(92,sp),d2
    29c2:	69          	mov	d2,(a1)
    29c3:	5f 68       	mov	(104,sp),a3
    29c5:	f8 3d 04    	mov	a3,(4,a1)
    29c8:	f1 5f       	add	a3,d3
    29ca:	4e a0       	mov	d3,(160,sp)

000029cc <.LVL530>:
    29cc:	5a 9c       	mov	(156,sp),d2
    29ce:	48          	inc	d2
    29cf:	4a 9c       	mov	d2,(156,sp)
    29d1:	aa 07       	cmp	7,d2
    29d3:	c3 05       	ble	29d8 <.L0_156>
    29d5:	cc 68 04    	jmp	2e3d <.L205>

000029d8 <.L0_156>:
    29d8:	21 08       	add	8,a1

000029da <.L206>:
    29da:	9f 00       	mov	0,a3
    29dc:	f1 3b       	sub	a2,a3
    29de:	9e          	mov	a3,a2

000029df <.LVL532>:
    29df:	bf 00       	cmp	0,a3
    29e1:	c1 05       	bgt	29e6 <.L0_157>
    29e3:	cc a7 f1    	jmp	1b8a <.L207>

000029e6 <.L0_157>:
    29e6:	fc dc 10 97 	mov	38672,a0
    29ea:	00 00 

000029ec <.Loc.1555.1>:
    29ec:	bf 10       	cmp	16,a3
    29ee:	c3 29       	ble	2a17 <.L208>

000029f0 <.Loc.1555.1>:
    29f0:	9f 10       	mov	16,a3
    29f2:	8d          	mov	d3,d1
    29f3:	f1 db       	mov	a2,d3
    29f5:	96          	mov	a1,a2

000029f6 <.LVL533>:
    29f6:	91          	mov	a0,a1

000029f7 <.L211>:
    29f7:	f0 16       	mov	a1,(a2)
    29f9:	f8 3e 04    	mov	a3,(4,a2)
    29fc:	29 10       	add	16,d1
    29fe:	46 a0       	mov	d1,(160,sp)

00002a00 <.LVL535>:
    2a00:	48          	inc	d2
    2a01:	4a 9c       	mov	d2,(156,sp)
    2a03:	aa 07       	cmp	7,d2
    2a05:	c3 05       	ble	2a0a <.L0_158>
    2a07:	cc 6b 01    	jmp	2b72 <.L209>

00002a0a <.L0_158>:
    2a0a:	22 08       	add	8,a2

00002a0c <.L210>:
    2a0c:	2b f0       	add	-16,d3
    2a0e:	af 10       	cmp	16,d3
    2a10:	c1 e7       	bgt	29f7 <.L211>
    2a12:	94          	mov	a1,a0
    2a13:	99          	mov	a2,a1
    2a14:	f1 ee       	mov	d3,a2

00002a16 <.LVL538>:
    2a16:	87          	mov	d1,d3

00002a17 <.L208>:
    2a17:	f0 11       	mov	a0,(a1)
    2a19:	f8 39 04    	mov	a2,(4,a1)
    2a1c:	f1 5b       	add	a2,d3
    2a1e:	4e a0       	mov	d3,(160,sp)

00002a20 <.LVL540>:
    2a20:	48          	inc	d2
    2a21:	4a 9c       	mov	d2,(156,sp)
    2a23:	aa 07       	cmp	7,d2
    2a25:	c3 05       	ble	2a2a <.L0_159>
    2a27:	cc 3d f1    	jmp	1b64 <.L212>

00002a2a <.L0_159>:
    2a2a:	21 08       	add	8,a1

00002a2c <.LVL541>:
    2a2c:	5e 40       	mov	(64,sp),a2

00002a2e <.LVL542>:
    2a2e:	f0 19       	mov	a2,(a1)
    2a30:	5f 4c       	mov	(76,sp),a3
    2a32:	f8 3d 04    	mov	a3,(4,a1)
    2a35:	f1 5f       	add	a3,d3
    2a37:	cc 5e f1    	jmp	1b95 <.L410>

00002a3a <.L449>:
    2a3a:	5a 54       	mov	(84,sp),d2
    2a3c:	aa 47       	cmp	71,d2
    2a3e:	c3 05       	ble	2a43 <.L0_160>
    2a40:	cc 0f 03    	jmp	2d4f <.L277>

00002a43 <.L0_160>:
    2a43:	fc de 66 95 	mov	38246,a2
    2a47:	00 00 
    2a49:	4b 40       	mov	a2,(64,sp)

00002a4b <.LVL544>:
    2a4b:	5a 28       	mov	(40,sp),d2
    2a4d:	fc e2 7f ff 	and	-129,d2
    2a51:	ff ff 
    2a53:	4a 28       	mov	d2,(40,sp)

00002a55 <.LVL545>:
    2a55:	f8 b8 79    	movbu	(121,sp),d0

00002a58 <.L460>:
    2a58:	90 03       	mov	3,a0
    2a5a:	43 30       	mov	a0,(48,sp)

00002a5c <.Loc.1099.1>:
    2a5c:	43 34       	mov	a0,(52,sp)

00002a5e <.Loc.790.1>:
    2a5e:	9a 00       	mov	0,a2

00002a60 <.LVL546>:
    2a60:	4b 50       	mov	a2,(80,sp)

00002a62 <.Loc.795.1>:
    2a62:	4b 60       	mov	a2,(96,sp)
    2a64:	cc e4 f3    	jmp	1e48 <.L453>

00002a67 <.L136>:
    2a67:	5c 34       	mov	(52,sp),a0

00002a69 <.LVL548>:
    2a69:	43 30       	mov	a0,(48,sp)
    2a6b:	b0 00       	cmp	0,a0
    2a6d:	c2 05       	bge	2a72 <.L0_161>
    2a6f:	cc b8 00    	jmp	2b27 <.L454>

00002a72 <.L0_161>:
    2a72:	f8 b8 79    	movbu	(121,sp),d0

00002a75 <.LBB33>:
    2a75:	fa 99 54 05 	mov	d2,(1364,sp)

00002a79 <.Loc.790.1>:
    2a79:	9f 00       	mov	0,a3
    2a7b:	4f 50       	mov	a3,(80,sp)

00002a7d <.Loc.795.1>:
    2a7d:	4f 60       	mov	a3,(96,sp)

00002a7f <.L456>:
    2a7f:	14          	extbu	d0
    2a80:	a0 00       	cmp	0,d0
    2a82:	c8 05       	beq	2a87 <.L0_162>
    2a84:	cc 4c f2    	jmp	1cd0 <.L0_49>

00002a87 <.L0_162>:
    2a87:	cc 33 ed    	jmp	17ba <.L160>

00002a8a <.L276>:
    2a8a:	fc de 62 95 	mov	38242,a2
    2a8e:	00 00 
    2a90:	4b 40       	mov	a2,(64,sp)

00002a92 <.LVL551>:
    2a92:	5a 28       	mov	(40,sp),d2
    2a94:	fc e2 7f ff 	and	-129,d2
    2a98:	ff ff 
    2a9a:	4a 28       	mov	d2,(40,sp)

00002a9c <.LVL552>:
    2a9c:	cc a0 f3    	jmp	1e3c <.L404>

00002a9f <.L425>:
    2a9f:	8f ff       	mov	-1,d3

00002aa1 <.LVL554>:
    2aa1:	92          	mov	a0,a2

00002aa2 <.LVL555>:
    2aa2:	cc 78 f1    	jmp	1c1a <.L455>

00002aa5 <.L443>:
    2aa5:	08          	clr	d2

00002aa6 <.LVL557>:
    2aa6:	cc 4b fa    	jmp	24f1 <.L0_111>

00002aa9 <.L444>:
    2aa9:	08          	clr	d2

00002aaa <.LVL559>:
    2aaa:	cc f7 fa    	jmp	25a1 <.L0_116>

00002aad <.L202>:
    2aad:	3e          	mov	sp,a2
    2aae:	fa d2 98 00 	add	152,a2
    2ab2:	4b 0c       	mov	a2,(12,sp)
    2ab4:	fa b4 48 05 	mov	(1352,sp),d0
    2ab8:	fa b5 4c 05 	mov	(1356,sp),d1
    2abc:	dd 5a 39 00 	call	6416 <___sprint_r>,[],0
    2ac0:	00 00 00 

00002ac3 <.LVL561>:
    2ac3:	a0 00       	cmp	0,d0
    2ac5:	c8 05       	beq	2aca <.L0_163>
    2ac7:	cc da ef    	jmp	1aa1 <.L18>

00002aca <.L0_163>:
    2aca:	5e 7c       	mov	(124,sp),a2

00002acc <.Loc.1552.1>:
    2acc:	3d          	mov	sp,a1
    2acd:	fa d1 34 01 	add	308,a1
    2ad1:	5b a0       	mov	(160,sp),d3
    2ad3:	cc d9 fe    	jmp	29ac <.L203>

00002ad6 <.L252>:
    2ad6:	3c          	mov	sp,a0
    2ad7:	fa d0 98 00 	add	152,a0
    2adb:	f1 d0       	mov	a0,d0
    2add:	cc bc f8    	jmp	2399 <.L407>

00002ae0 <.L79>:
    2ae0:	80 03       	mov	3,d0
    2ae2:	42 10       	mov	d0,(16,sp)
    2ae4:	4e 14       	mov	d3,(20,sp)

00002ae6 <.Loc.1164.1>:
    2ae6:	3c          	mov	sp,a0
    2ae7:	20 7c       	add	124,a0

00002ae9 <.Loc.1715.1>:
    2ae9:	43 18       	mov	a0,(24,sp)
    2aeb:	3c          	mov	sp,a0
    2aec:	fa d0 80 00 	add	128,a0
    2af0:	43 1c       	mov	a0,(28,sp)
    2af2:	3c          	mov	sp,a0
    2af3:	fa d0 84 00 	add	132,a0
    2af7:	43 20       	mov	a0,(32,sp)
    2af9:	4a 0c       	mov	d2,(12,sp)
    2afb:	f1 d9       	mov	a2,d1
    2afd:	fa b4 48 05 	mov	(1352,sp),d0
    2b01:	47 24       	mov	a1,(36,sp)
    2b03:	dd 83 08 00 	call	3386 <__dtoa_r>,[],0
    2b07:	00 00 00 

00002b0a <.LVL564>:
    2b0a:	43 40       	mov	a0,(64,sp)

00002b0c <.LVL565>:
    2b0c:	93          	mov	a0,a3
    2b0d:	f1 6f       	add	d3,a3

00002b0f <.LVL566>:
    2b0f:	4e 30       	mov	d3,(48,sp)
    2b11:	5d 24       	mov	(36,sp),a1

00002b13 <.L267>:
    2b13:	5c 40       	mov	(64,sp),a0
    2b15:	f0 40       	movbu	(a0),d0
    2b17:	a0 30       	cmp	48,d0
    2b19:	c8 2e       	beq	2b47 <.L86>

00002b1b <.L402>:
    2b1b:	58 7c       	mov	(124,sp),d0

00002b1d <.Loc.1722.1>:
    2b1d:	f1 63       	add	d0,a3
    2b1f:	cc 01 fd    	jmp	2820 <.L0_140>

00002b22 <.L451>:
    2b22:	5f 84       	mov	(132,sp),a3

00002b24 <.LVL570>:
    2b24:	cc 25 fd    	jmp	2849 <.L84>

00002b27 <.L454>:
    2b27:	9a 00       	mov	0,a2
    2b29:	4b 30       	mov	a2,(48,sp)
    2b2b:	f8 b8 79    	movbu	(121,sp),d0

00002b2e <.LBB36>:
    2b2e:	fa 99 54 05 	mov	d2,(1364,sp)

00002b32 <.Loc.790.1>:
    2b32:	9f 00       	mov	0,a3
    2b34:	4f 50       	mov	a3,(80,sp)

00002b36 <.Loc.795.1>:
    2b36:	4f 60       	mov	a3,(96,sp)
    2b38:	cc 47 ff    	jmp	2a7f <.L456>

00002b3b <.L76>:
    2b3b:	af 00       	cmp	0,d3
    2b3d:	c8 05       	beq	2b42 <.L0_164>
    2b3f:	cc 59 fc    	jmp	2798 <.L0_133>

00002b42 <.L0_164>:
    2b42:	8f 01       	mov	1,d3

00002b44 <.LVL573>:
    2b44:	cc 54 fc    	jmp	2798 <.L0_133>

00002b47 <.L86>:
    2b47:	00          	clr	d0
    2b48:	42 0c       	mov	d0,(12,sp)
    2b4a:	42 10       	mov	d0,(16,sp)
    2b4c:	f1 d8       	mov	a2,d0
    2b4e:	89          	mov	d2,d1
    2b4f:	47 24       	mov	a1,(36,sp)
    2b51:	dd 24 62 00 	call	8d75 <___nedf2>,[],0
    2b55:	00 00 00 
    2b58:	5d 24       	mov	(36,sp),a1
    2b5a:	a0 00       	cmp	0,d0
    2b5c:	c8 bf       	beq	2b1b <.L402>

00002b5e <.Loc.1721.1>:
    2b5e:	80 01       	mov	1,d0
    2b60:	59 30       	mov	(48,sp),d1
    2b62:	f1 04       	sub	d1,d0
    2b64:	42 7c       	mov	d0,(124,sp)

00002b66 <.Loc.1722.1>:
    2b66:	f1 63       	add	d0,a3
    2b68:	cc b8 fc    	jmp	2820 <.L0_140>

00002b6b <.L423>:
    2b6b:	8a ff       	mov	-1,d2
    2b6d:	4a 3c       	mov	d2,(60,sp)
    2b6f:	cc a9 ee    	jmp	1a18 <.L0_29>

00002b72 <.L209>:
    2b72:	3c          	mov	sp,a0
    2b73:	fa d0 98 00 	add	152,a0
    2b77:	43 0c       	mov	a0,(12,sp)
    2b79:	fa b4 48 05 	mov	(1352,sp),d0
    2b7d:	fa b5 4c 05 	mov	(1356,sp),d1
    2b81:	47 24       	mov	a1,(36,sp)
    2b83:	dd 93 38 00 	call	6416 <___sprint_r>,[],0
    2b87:	00 00 00 

00002b8a <.LVL579>:
    2b8a:	5d 24       	mov	(36,sp),a1
    2b8c:	a0 00       	cmp	0,d0
    2b8e:	c8 05       	beq	2b93 <.L0_165>
    2b90:	cc 11 ef    	jmp	1aa1 <.L18>

00002b93 <.L0_165>:
    2b93:	3e          	mov	sp,a2

00002b94 <.LVL580>:
    2b94:	fa d2 34 01 	add	308,a2
    2b98:	59 a0       	mov	(160,sp),d1
    2b9a:	5a 9c       	mov	(156,sp),d2
    2b9c:	cc 70 fe    	jmp	2a0c <.L210>

00002b9f <.L430>:
    2b9f:	49          	inc	a2

00002ba0 <.LVL582>:
    2ba0:	5a 28       	mov	(40,sp),d2
    2ba2:	f8 e6 20    	or	32,d2
    2ba5:	4a 28       	mov	d2,(40,sp)

00002ba7 <.LVL583>:
    2ba7:	f8 48 01    	movbu	(1,a0),d2

00002baa <.LVL584>:
    2baa:	49          	inc	a2

00002bab <.LVL585>:
    2bab:	cc df eb    	jmp	178a <.L381>

00002bae <.L193>:
    2bae:	3c          	mov	sp,a0
    2baf:	fa d0 98 00 	add	152,a0
    2bb3:	43 0c       	mov	a0,(12,sp)
    2bb5:	fa b4 48 05 	mov	(1352,sp),d0
    2bb9:	fa b5 4c 05 	mov	(1356,sp),d1
    2bbd:	dd 59 38 00 	call	6416 <___sprint_r>,[],0
    2bc1:	00 00 00 

00002bc4 <.LVL587>:
    2bc4:	a0 00       	cmp	0,d0
    2bc6:	c8 05       	beq	2bcb <.L0_166>
    2bc8:	cc d9 ee    	jmp	1aa1 <.L18>

00002bcb <.L0_166>:
    2bcb:	3d          	mov	sp,a1
    2bcc:	fa d1 34 01 	add	308,a1
    2bd0:	5b a0       	mov	(160,sp),d3
    2bd2:	cc 5d f6    	jmp	222f <.L194>

00002bd5 <.L438>:
    2bd5:	3c          	mov	sp,a0

00002bd6 <.LVL589>:
    2bd6:	fa d0 cc 00 	add	204,a0
    2bda:	5e 40       	mov	(64,sp),a2
    2bdc:	f1 38       	sub	a2,a0
    2bde:	43 34       	mov	a0,(52,sp)
    2be0:	cc d6 f0    	jmp	1cb6 <.L155>

00002be3 <.L133>:
    2be3:	58 40       	mov	(64,sp),d0
    2be5:	47 24       	mov	a1,(36,sp)
    2be7:	dd ec 37 00 	call	63d3 <_strlen>,[],0
    2beb:	00 00 00 

00002bee <.LVL591>:
    2bee:	42 34       	mov	d0,(52,sp)

00002bf0 <.LVL592>:
    2bf0:	42 30       	mov	d0,(48,sp)
    2bf2:	5d 24       	mov	(36,sp),a1
    2bf4:	a0 00       	cmp	0,d0
    2bf6:	c0 1a       	blt	2c10 <.L457>
    2bf8:	f8 b8 79    	movbu	(121,sp),d0

00002bfb <.LVL593>:
    2bfb:	fa 99 54 05 	mov	d2,(1364,sp)

00002bff <.Loc.790.1>:
    2bff:	9a 00       	mov	0,a2

00002c01 <.LVL594>:
    2c01:	4b 50       	mov	a2,(80,sp)

00002c03 <.Loc.795.1>:
    2c03:	4b 60       	mov	a2,(96,sp)

00002c05 <.L458>:
    2c05:	14          	extbu	d0
    2c06:	a0 00       	cmp	0,d0
    2c08:	c8 05       	beq	2c0d <.L0_167>
    2c0a:	cc c6 f0    	jmp	1cd0 <.L0_49>

00002c0d <.L0_167>:
    2c0d:	cc ad eb    	jmp	17ba <.L160>

00002c10 <.L457>:
    2c10:	90 00       	mov	0,a0
    2c12:	43 30       	mov	a0,(48,sp)
    2c14:	f8 b8 79    	movbu	(121,sp),d0

00002c17 <.LVL597>:
    2c17:	fa 99 54 05 	mov	d2,(1364,sp)

00002c1b <.Loc.790.1>:
    2c1b:	9a 00       	mov	0,a2

00002c1d <.LVL598>:
    2c1d:	4b 50       	mov	a2,(80,sp)

00002c1f <.Loc.795.1>:
    2c1f:	4b 60       	mov	a2,(96,sp)
    2c21:	ca e4       	bra	2c05 <.L458>

00002c23 <.L418>:
    2c23:	fc dc 00 97 	mov	38656,a0
    2c27:	00 00 
    2c29:	43 64       	mov	a0,(100,sp)
    2c2b:	cc f3 eb    	jmp	181e <.L163>

00002c2e <.L216>:
    2c2e:	3c          	mov	sp,a0
    2c2f:	fa d0 98 00 	add	152,a0
    2c33:	43 0c       	mov	a0,(12,sp)
    2c35:	fa b4 48 05 	mov	(1352,sp),d0
    2c39:	fa b5 4c 05 	mov	(1356,sp),d1
    2c3d:	dd d9 37 00 	call	6416 <___sprint_r>,[],0
    2c41:	00 00 00 

00002c44 <.LVL601>:
    2c44:	a0 00       	cmp	0,d0
    2c46:	c8 05       	beq	2c4b <.L0_168>
    2c48:	cc 59 ee    	jmp	1aa1 <.L18>

00002c4b <.L0_168>:
    2c4b:	3d          	mov	sp,a1
    2c4c:	fa d1 34 01 	add	308,a1
    2c50:	5b a0       	mov	(160,sp),d3

00002c52 <.LVL602>:
    2c52:	aa 00       	cmp	0,d2
    2c54:	c0 05       	blt	2c59 <.L0_169>
    2c56:	cc 9b f8    	jmp	24f1 <.L0_111>

00002c59 <.L0_169>:
    2c59:	cc 4c fe    	jmp	2aa5 <.L443>

00002c5c <.L226>:
    2c5c:	3c          	mov	sp,a0
    2c5d:	fa d0 98 00 	add	152,a0
    2c61:	43 0c       	mov	a0,(12,sp)
    2c63:	fa b4 48 05 	mov	(1352,sp),d0
    2c67:	fa b5 4c 05 	mov	(1356,sp),d1
    2c6b:	dd ab 37 00 	call	6416 <___sprint_r>,[],0
    2c6f:	00 00 00 

00002c72 <.LVL604>:
    2c72:	a0 00       	cmp	0,d0
    2c74:	c8 05       	beq	2c79 <.L0_170>
    2c76:	cc 2b ee    	jmp	1aa1 <.L18>

00002c79 <.L0_170>:
    2c79:	59 7c       	mov	(124,sp),d1

00002c7b <.Loc.1582.1>:
    2c7b:	3d          	mov	sp,a1
    2c7c:	fa d1 34 01 	add	308,a1
    2c80:	5b a0       	mov	(160,sp),d3
    2c82:	cc ef f8    	jmp	2571 <.L225>

00002c85 <.L420>:
    2c85:	fc dc 00 97 	mov	38656,a0
    2c89:	00 00 
    2c8b:	43 64       	mov	a0,(100,sp)

00002c8d <.LBE39>:
    2c8d:	5e 64       	mov	(100,sp),a2

00002c8f <.LVL606>:
    2c8f:	f0 19       	mov	a2,(a1)
    2c91:	f8 3d 04    	mov	a3,(4,a1)
    2c94:	f1 5f       	add	a3,d3
    2c96:	4e a0       	mov	d3,(160,sp)

00002c98 <.LVL607>:
    2c98:	48          	inc	d2
    2c99:	4a 9c       	mov	d2,(156,sp)
    2c9b:	aa 07       	cmp	7,d2
    2c9d:	c1 05       	bgt	2ca2 <.L0_171>
    2c9f:	cc bc ec    	jmp	195b <.L0_25>

00002ca2 <.L0_171>:
    2ca2:	cc 28 ef    	jmp	1bca <.L421>

00002ca5 <.L229>:
    2ca5:	3e          	mov	sp,a2
    2ca6:	fa d2 98 00 	add	152,a2
    2caa:	4b 0c       	mov	a2,(12,sp)
    2cac:	fa b4 48 05 	mov	(1352,sp),d0
    2cb0:	fa b5 4c 05 	mov	(1356,sp),d1
    2cb4:	dd 62 37 00 	call	6416 <___sprint_r>,[],0
    2cb8:	00 00 00 

00002cbb <.LVL609>:
    2cbb:	a0 00       	cmp	0,d0
    2cbd:	c8 05       	beq	2cc2 <.L0_172>
    2cbf:	cc e2 ed    	jmp	1aa1 <.L18>

00002cc2 <.L0_172>:
    2cc2:	58 7c       	mov	(124,sp),d0
    2cc4:	5e 4c       	mov	(76,sp),a2
    2cc6:	f1 22       	sub	d0,a2

00002cc8 <.Loc.1583.1>:
    2cc8:	3d          	mov	sp,a1
    2cc9:	fa d1 34 01 	add	308,a1
    2ccd:	5b a0       	mov	(160,sp),d3

00002ccf <.LVL610>:
    2ccf:	aa 00       	cmp	0,d2
    2cd1:	c0 05       	blt	2cd6 <.L0_173>
    2cd3:	cc ce f8    	jmp	25a1 <.L0_116>

00002cd6 <.L0_173>:
    2cd6:	cc d3 fd    	jmp	2aa9 <.L444>

00002cd9 <.L426>:
    2cd9:	4e 34       	mov	d3,(52,sp)
    2cdb:	af 06       	cmp	6,d3
    2cdd:	c7 1d       	bls	2cfa <.L131>
    2cdf:	9f 06       	mov	6,a3
    2ce1:	4f 34       	mov	a3,(52,sp)
    2ce3:	4f 30       	mov	a3,(48,sp)

00002ce5 <.L132>:
    2ce5:	fa 99 54 05 	mov	d2,(1364,sp)

00002ce9 <.Loc.1283.1>:
    2ce9:	fc de 90 95 	mov	38288,a2
    2ced:	00 00 
    2cef:	4b 40       	mov	a2,(64,sp)

00002cf1 <.L459>:
    2cf1:	9a 00       	mov	0,a2
    2cf3:	4b 50       	mov	a2,(80,sp)
    2cf5:	4b 60       	mov	a2,(96,sp)
    2cf7:	cc c3 ea    	jmp	17ba <.L160>

00002cfa <.L131>:
    2cfa:	5c 34       	mov	(52,sp),a0
    2cfc:	43 30       	mov	a0,(48,sp)
    2cfe:	b0 00       	cmp	0,a0
    2d00:	c2 e5       	bge	2ce5 <.L132>
    2d02:	5e 40       	mov	(64,sp),a2
    2d04:	4b 30       	mov	a2,(48,sp)

00002d06 <.Loc.1276.1>:
    2d06:	fa 99 54 05 	mov	d2,(1364,sp)

00002d0a <.Loc.1283.1>:
    2d0a:	fc de 90 95 	mov	38288,a2
    2d0e:	00 00 
    2d10:	4b 40       	mov	a2,(64,sp)
    2d12:	ca df       	bra	2cf1 <.L459>

00002d14 <.L223>:
    2d14:	3c          	mov	sp,a0
    2d15:	fa d0 98 00 	add	152,a0
    2d19:	43 0c       	mov	a0,(12,sp)
    2d1b:	fa b4 48 05 	mov	(1352,sp),d0
    2d1f:	fa b5 4c 05 	mov	(1356,sp),d1
    2d23:	dd f3 36 00 	call	6416 <___sprint_r>,[],0
    2d27:	00 00 00 

00002d2a <.LVL615>:
    2d2a:	a0 00       	cmp	0,d0
    2d2c:	c8 05       	beq	2d31 <.L0_174>
    2d2e:	cc 73 ed    	jmp	1aa1 <.L18>

00002d31 <.L0_174>:
    2d31:	3d          	mov	sp,a1
    2d32:	fa d1 34 01 	add	308,a1
    2d36:	5b a0       	mov	(160,sp),d3
    2d38:	cc 09 f8    	jmp	2541 <.L218>

00002d3b <.L120>:
    2d3b:	f8 b8 79    	movbu	(121,sp),d0

00002d3e <.LBE26>:
    2d3e:	5a 44       	mov	(68,sp),d2
    2d40:	4a 28       	mov	d2,(40,sp)

00002d42 <.Loc.790.1>:
    2d42:	46 50       	mov	d1,(80,sp)

00002d44 <.LVL617>:
    2d44:	14          	extbu	d0
    2d45:	a0 00       	cmp	0,d0
    2d47:	c8 05       	beq	2d4c <.L0_175>
    2d49:	cc 87 ef    	jmp	1cd0 <.L0_49>

00002d4c <.L0_175>:
    2d4c:	cc 6e ea    	jmp	17ba <.L160>

00002d4f <.L277>:
    2d4f:	fc de 6a 95 	mov	38250,a2
    2d53:	00 00 
    2d55:	4b 40       	mov	a2,(64,sp)

00002d57 <.LVL620>:
    2d57:	5a 28       	mov	(40,sp),d2
    2d59:	fc e2 7f ff 	and	-129,d2
    2d5d:	ff ff 
    2d5f:	4a 28       	mov	d2,(40,sp)

00002d61 <.LVL621>:
    2d61:	f8 b8 79    	movbu	(121,sp),d0
    2d64:	cc f4 fc    	jmp	2a58 <.L460>

00002d67 <.L69>:
    2d67:	80 2d       	mov	45,d0
    2d69:	f8 92 79    	movbu	d0,(121,sp)

00002d6c <.Loc.1086.1>:
    2d6c:	5a 54       	mov	(84,sp),d2
    2d6e:	aa 47       	cmp	71,d2
    2d70:	c3 05       	ble	2d75 <.L0_176>
    2d72:	cc 18 fd    	jmp	2a8a <.L276>

00002d75 <.L0_176>:
    2d75:	cc b5 f0    	jmp	1e2a <.L0_60>

00002d78 <.L90>:
    2d78:	59 7c       	mov	(124,sp),d1
    2d7a:	84          	mov	d1,d0

00002d7b <.LVL624>:
    2d7b:	a5 fd       	cmp	-3,d1
    2d7d:	c0 2c       	blt	2da9 <.L92>

00002d7f <.Loc.1168.1>:
    2d7f:	a7          	cmp	d1,d3
    2d80:	c0 29       	blt	2da9 <.L92>

00002d82 <.Loc.1196.1>:
    2d82:	5e 4c       	mov	(76,sp),a2
    2d84:	f1 99       	cmp	a2,d1
    2d86:	c2 05       	bge	2d8b <.L0_177>
    2d88:	cc fb 00    	jmp	2e83 <.L114>

00002d8b <.L0_177>:
    2d8b:	5a 28       	mov	(40,sp),d2
    2d8d:	f8 e2 01    	and	1,d2
    2d90:	c8 05       	beq	2d95 <.L0_178>
    2d92:	cc be 01    	jmp	2f50 <.L115>

00002d95 <.L0_178>:
    2d95:	46 30       	mov	d1,(48,sp)
    2d97:	a5 00       	cmp	0,d1
    2d99:	c2 05       	bge	2d9e <.L0_179>
    2d9b:	cc 6f 02    	jmp	300a <.L462>

00002d9e <.L0_179>:
    2d9e:	42 34       	mov	d0,(52,sp)

00002da0 <.LVL626>:
    2da0:	8a 67       	mov	103,d2
    2da2:	4a 54       	mov	d2,(84,sp)

00002da4 <.L473>:
    2da4:	46 60       	mov	d1,(96,sp)
    2da6:	cc e4 fa    	jmp	288a <.L105>

00002da9 <.L92>:
    2da9:	5a 54       	mov	(84,sp),d2
    2dab:	2a fe       	add	-2,d2
    2dad:	4a 54       	mov	d2,(84,sp)

00002daf <.L94>:
    2daf:	28 ff       	add	-1,d0
    2db1:	42 7c       	mov	d0,(124,sp)

00002db3 <.LBB42>:
    2db3:	5a 54       	mov	(84,sp),d2

00002db5 <.LVL631>:
    2db5:	f8 9a 8a    	movbu	d2,(138,sp)

00002db8 <.LVL632>:
    2db8:	f8 ea 06    	bnc	2dbe <.L0_180>
    2dbb:	cc 0a 02    	jmp	2fc5 <.L463>

00002dbe <.L0_180>:
    2dbe:	85 2b       	mov	43,d1
    2dc0:	f8 96 8b    	movbu	d1,(139,sp)

00002dc3 <.L97>:
    2dc3:	a0 09       	cmp	9,d0
    2dc5:	c3 05       	ble	2dca <.L0_181>
    2dc7:	cc e3 00    	jmp	2eaa <.L464>

00002dca <.L0_181>:
    2dca:	85 30       	mov	48,d1
    2dcc:	f8 96 8c    	movbu	d1,(140,sp)

00002dcf <.LVL634>:
    2dcf:	28 30       	add	48,d0

00002dd1 <.LVL635>:
    2dd1:	f8 92 8d    	movbu	d0,(141,sp)

00002dd4 <.LVL636>:
    2dd4:	3c          	mov	sp,a0
    2dd5:	fa d0 8e 00 	add	142,a0
    2dd9:	f1 d0       	mov	a0,d0

00002ddb <.LVL637>:
    2ddb:	3c          	mov	sp,a0
    2ddc:	fa d0 8a 00 	add	138,a0

00002de0 <.Loc.1765.1>:
    2de0:	f1 10       	sub	a0,d0

00002de2 <.LVL638>:
    2de2:	42 70       	mov	d0,(112,sp)

00002de4 <.LBE42>:
    2de4:	5e 4c       	mov	(76,sp),a2
    2de6:	f1 62       	add	d0,a2
    2de8:	4b 34       	mov	a2,(52,sp)

00002dea <.LVL640>:
    2dea:	5f 4c       	mov	(76,sp),a3
    2dec:	bf 01       	cmp	1,a3
    2dee:	c3 14       	ble	2e02 <.L465>

00002df0 <.L103>:
    2df0:	5c 34       	mov	(52,sp),a0
    2df2:	20 01       	add	1,a0
    2df4:	43 34       	mov	a0,(52,sp)

00002df6 <.LVL642>:
    2df6:	43 30       	mov	a0,(48,sp)
    2df8:	f8 eb 20    	bns	2e18 <.L466>

00002dfb <.Loc.795.1>:
    2dfb:	9f 00       	mov	0,a3
    2dfd:	4f 60       	mov	a3,(96,sp)
    2dff:	cc 8b fa    	jmp	288a <.L105>

00002e02 <.L465>:
    2e02:	58 28       	mov	(40,sp),d0
    2e04:	f8 e0 01    	and	1,d0
    2e07:	c9 e9       	bne	2df0 <.L103>
    2e09:	4b 30       	mov	a2,(48,sp)
    2e0b:	ba 00       	cmp	0,a2
    2e0d:	c2 05       	bge	2e12 <.L0_182>
    2e0f:	cc f3 01    	jmp	3002 <.L467>

00002e12 <.L0_182>:
    2e12:	08          	clr	d2
    2e13:	4a 60       	mov	d2,(96,sp)
    2e15:	cc 75 fa    	jmp	288a <.L105>

00002e18 <.L466>:
    2e18:	9a 00       	mov	0,a2
    2e1a:	4b 30       	mov	a2,(48,sp)
    2e1c:	9f 00       	mov	0,a3
    2e1e:	4f 60       	mov	a3,(96,sp)
    2e20:	cc 6a fa    	jmp	288a <.L105>

00002e23 <.L427>:
    2e23:	4e 30       	mov	d3,(48,sp)
    2e25:	f8 b8 79    	movbu	(121,sp),d0

00002e28 <.LBB48>:
    2e28:	4e 34       	mov	d3,(52,sp)

00002e2a <.Loc.1276.1>:
    2e2a:	fa 99 54 05 	mov	d2,(1364,sp)

00002e2e <.Loc.790.1>:
    2e2e:	43 50       	mov	a0,(80,sp)

00002e30 <.Loc.795.1>:
    2e30:	43 60       	mov	a0,(96,sp)

00002e32 <.LBE48>:
    2e32:	14          	extbu	d0
    2e33:	a0 00       	cmp	0,d0
    2e35:	c8 05       	beq	2e3a <.L0_183>
    2e37:	cc 99 ee    	jmp	1cd0 <.L0_49>

00002e3a <.L0_183>:
    2e3a:	cc 80 e9    	jmp	17ba <.L160>

00002e3d <.L205>:
    2e3d:	3c          	mov	sp,a0
    2e3e:	fa d0 98 00 	add	152,a0
    2e42:	43 0c       	mov	a0,(12,sp)
    2e44:	fa b4 48 05 	mov	(1352,sp),d0
    2e48:	fa b5 4c 05 	mov	(1356,sp),d1
    2e4c:	dd ca 35 00 	call	6416 <___sprint_r>,[],0
    2e50:	00 00 00 

00002e53 <.LVL649>:
    2e53:	a0 00       	cmp	0,d0
    2e55:	c8 05       	beq	2e5a <.L0_184>
    2e57:	cc 4a ec    	jmp	1aa1 <.L18>

00002e5a <.L0_184>:
    2e5a:	5e 7c       	mov	(124,sp),a2

00002e5c <.Loc.1554.1>:
    2e5c:	3d          	mov	sp,a1
    2e5d:	fa d1 34 01 	add	308,a1
    2e61:	5b a0       	mov	(160,sp),d3
    2e63:	5a 9c       	mov	(156,sp),d2
    2e65:	cc 75 fb    	jmp	29da <.L206>

00002e68 <.L278>:
    2e68:	8f 06       	mov	6,d3

00002e6a <.LVL651>:
    2e6a:	cc 2e f9    	jmp	2798 <.L0_133>

00002e6d <.L450>:
    2e6d:	fc c2 00 00 	add	-2147483648,d2
    2e71:	00 80 

00002e73 <.LVL653>:
    2e73:	80 2d       	mov	45,d0
    2e75:	f8 92 48    	movbu	d0,(72,sp)
    2e78:	cc 33 f9    	jmp	27ab <.L77>

00002e7b <.L80>:
    2e7b:	f1 ef       	mov	d3,a3
    2e7d:	4d          	inc	a3
    2e7e:	4f 30       	mov	a3,(48,sp)

00002e80 <.LVL655>:
    2e80:	cc 4b f9    	jmp	27cb <.L81>

00002e83 <.L114>:
    2e83:	a5 00       	cmp	0,d1
    2e85:	c1 05       	bgt	2e8a <.L0_185>
    2e87:	cc e2 00    	jmp	2f69 <.L468>

00002e8a <.L0_185>:
    2e8a:	80 01       	mov	1,d0

00002e8c <.Loc.1201.1>:
    2e8c:	5e 4c       	mov	(76,sp),a2
    2e8e:	f1 62       	add	d0,a2
    2e90:	4b 34       	mov	a2,(52,sp)

00002e92 <.LVL657>:
    2e92:	4b 30       	mov	a2,(48,sp)
    2e94:	f8 eb 0c    	bns	2ea0 <.L469>

00002e97 <.L119>:
    2e97:	8a 67       	mov	103,d2
    2e99:	4a 54       	mov	d2,(84,sp)

00002e9b <.L470>:
    2e9b:	46 60       	mov	d1,(96,sp)
    2e9d:	cc ed f9    	jmp	288a <.L105>

00002ea0 <.L469>:
    2ea0:	9f 00       	mov	0,a3
    2ea2:	4f 30       	mov	a3,(48,sp)

00002ea4 <.Loc.1201.1>:
    2ea4:	8a 67       	mov	103,d2
    2ea6:	4a 54       	mov	d2,(84,sp)
    2ea8:	ca f3       	bra	2e9b <.L470>

00002eaa <.L464>:
    2eaa:	3e          	mov	sp,a2
    2eab:	fa d2 98 00 	add	152,a2

00002eaf <.L99>:
    2eaf:	22 ff       	add	-1,a2
    2eb1:	fc ce 67 66 	mov	1717986919,d2
    2eb5:	66 66 
    2eb7:	cb          	nop	
    2eb8:	cb          	nop	
    2eb9:	f2 42       	mul	d0,d2
    2ebb:	f2 e1       	mov	mdr,d1
    2ebd:	f8 c9 02    	asr	2,d1
    2ec0:	82          	mov	d0,d2
    2ec1:	f8 ca 1f    	asr	31,d2
    2ec4:	f1 09       	sub	d2,d1
    2ec6:	f1 e4       	mov	d1,a0
    2ec8:	f1 70       	add	a0,a0
    2eca:	86          	mov	d1,d2
    2ecb:	56          	asl2	d2
    2ecc:	ea          	add	d2,d2
    2ecd:	f1 68       	add	d2,a0
    2ecf:	f1 10       	sub	a0,d0

00002ed1 <.LVL664>:
    2ed1:	28 30       	add	48,d0
    2ed3:	f0 52       	movbu	d0,(a2)

00002ed5 <.Loc.1756.1>:
    2ed5:	84          	mov	d1,d0

00002ed6 <.LVL665>:
    2ed6:	a5 09       	cmp	9,d1
    2ed8:	c1 d7       	bgt	2eaf <.L99>

00002eda <.Loc.1757.1>:
    2eda:	9b          	mov	a2,a3
    2edb:	23 ff       	add	-1,a3

00002edd <.LVL666>:
    2edd:	28 30       	add	48,d0

00002edf <.LVL667>:
    2edf:	81          	mov	d0,d1

00002ee0 <.LVL668>:
    2ee0:	f8 52 ff    	movbu	d0,(-1,a2)

00002ee3 <.Loc.1758.1>:
    2ee3:	3c          	mov	sp,a0
    2ee4:	fa d0 98 00 	add	152,a0
    2ee8:	b3          	cmp	a0,a3
    2ee9:	c4 05       	bcs	2eee <.L0_186>
    2eeb:	cc f1 00    	jmp	2fdc <.L283>

00002eee <.L0_186>:
    2eee:	3c          	mov	sp,a0
    2eef:	fa d0 9b 00 	add	155,a0
    2ef3:	f1 d0       	mov	a0,d0

00002ef5 <.LVL669>:
    2ef5:	f1 18       	sub	a2,d0
    2ef7:	3c          	mov	sp,a0
    2ef8:	fa d0 8a 00 	add	138,a0
    2efc:	f1 50       	add	a0,d0
    2efe:	3c          	mov	sp,a0
    2eff:	fa d0 8c 00 	add	140,a0

00002f03 <.L102>:
    2f03:	f0 54       	movbu	d1,(a0)
    2f05:	41          	inc	a0

00002f06 <.LVL671>:
    2f06:	f1 a0       	cmp	d0,a0
    2f08:	c8 1d       	beq	2f25 <.L471>
    2f0a:	f8 47 01    	movbu	(1,a3),d1
    2f0d:	4d          	inc	a3
    2f0e:	ca f5       	bra	2f03 <.L102>

00002f10 <.L108>:
    2f10:	8c          	mov	d3,d0
    2f11:	40          	inc	d0
    2f12:	e4          	add	d1,d0
    2f13:	42 34       	mov	d0,(52,sp)

00002f15 <.LVL673>:
    2f15:	42 30       	mov	d0,(48,sp)
    2f17:	f8 eb 06    	bns	2f1d <.L0_187>
    2f1a:	cc 6e f9    	jmp	2888 <.L110>

00002f1d <.L0_187>:
    2f1d:	08          	clr	d2

00002f1e <.LVL674>:
    2f1e:	4a 30       	mov	d2,(48,sp)

00002f20 <.LVL675>:
    2f20:	46 60       	mov	d1,(96,sp)
    2f22:	cc 68 f9    	jmp	288a <.L105>

00002f25 <.L471>:
    2f25:	3c          	mov	sp,a0

00002f26 <.LVL677>:
    2f26:	fa d0 99 00 	add	153,a0
    2f2a:	f1 d0       	mov	a0,d0
    2f2c:	f1 18       	sub	a2,d0
    2f2e:	3e          	mov	sp,a2
    2f2f:	fa d2 8c 00 	add	140,a2
    2f33:	f1 58       	add	a2,d0

00002f35 <.LVL678>:
    2f35:	3c          	mov	sp,a0
    2f36:	fa d0 8a 00 	add	138,a0

00002f3a <.Loc.1765.1>:
    2f3a:	f1 10       	sub	a0,d0

00002f3c <.LVL679>:
    2f3c:	42 70       	mov	d0,(112,sp)

00002f3e <.LBE45>:
    2f3e:	5e 4c       	mov	(76,sp),a2
    2f40:	f1 62       	add	d0,a2
    2f42:	4b 34       	mov	a2,(52,sp)

00002f44 <.LVL681>:
    2f44:	5f 4c       	mov	(76,sp),a3
    2f46:	bf 01       	cmp	1,a3
    2f48:	c3 05       	ble	2f4d <.L0_188>
    2f4a:	cc a6 fe    	jmp	2df0 <.L103>

00002f4d <.L0_188>:
    2f4d:	cc b5 fe    	jmp	2e02 <.L465>

00002f50 <.L115>:
    2f50:	f1 e4       	mov	d1,a0
    2f52:	20 01       	add	1,a0
    2f54:	43 34       	mov	a0,(52,sp)

00002f56 <.LVL683>:
    2f56:	43 30       	mov	a0,(48,sp)
    2f58:	f8 eb 06    	bns	2f5e <.L0_189>
    2f5b:	cc 3c ff    	jmp	2e97 <.L119>

00002f5e <.L0_189>:
    2f5e:	9a 00       	mov	0,a2
    2f60:	4b 30       	mov	a2,(48,sp)

00002f62 <.Loc.1201.1>:
    2f62:	8a 67       	mov	103,d2
    2f64:	4a 54       	mov	d2,(84,sp)
    2f66:	cc 35 ff    	jmp	2e9b <.L470>

00002f69 <.L468>:
    2f69:	80 02       	mov	2,d0
    2f6b:	f1 04       	sub	d1,d0

00002f6d <.Loc.1201.1>:
    2f6d:	5e 4c       	mov	(76,sp),a2
    2f6f:	f1 62       	add	d0,a2
    2f71:	4b 34       	mov	a2,(52,sp)

00002f73 <.LVL685>:
    2f73:	4b 30       	mov	a2,(48,sp)
    2f75:	f8 eb 06    	bns	2f7b <.L0_190>
    2f78:	cc 1f ff    	jmp	2e97 <.L119>

00002f7b <.L0_190>:
    2f7b:	cc 25 ff    	jmp	2ea0 <.L469>

00002f7e <.L107>:
    2f7e:	af 00       	cmp	0,d3
    2f80:	c9 30       	bne	2fb0 <.L112>

00002f82 <.Loc.1193.1>:
    2f82:	58 28       	mov	(40,sp),d0
    2f84:	f8 e0 01    	and	1,d0
    2f87:	c9 29       	bne	2fb0 <.L112>
    2f89:	90 01       	mov	1,a0
    2f8b:	43 30       	mov	a0,(48,sp)

00002f8d <.Loc.1195.1>:
    2f8d:	43 34       	mov	a0,(52,sp)

00002f8f <.LVL687>:
    2f8f:	46 60       	mov	d1,(96,sp)
    2f91:	cc f9 f8    	jmp	288a <.L105>

00002f94 <.L52>:
    2f94:	fa b5 54 05 	mov	(1364,sp),d1
    2f98:	29 04       	add	4,d1

00002f9a <.LVL689>:
    2f9a:	fa b3 54 05 	mov	(1364,sp),a3
    2f9e:	7f          	mov	(a3),d3
    2f9f:	f8 4a 01    	movbu	(1,a2),d2

00002fa2 <.LVL691>:
    2fa2:	92          	mov	a0,a2

00002fa3 <.LVL692>:
    2fa3:	fa 95 54 05 	mov	d1,(1364,sp)

00002fa7 <.Loc.914.1>:
    2fa7:	af 00       	cmp	0,d3
    2fa9:	c0 2c       	blt	2fd5 <.L472>
    2fab:	16          	extbu	d2

00002fac <.LVL693>:
    2fac:	49          	inc	a2
    2fad:	cc dd e7    	jmp	178a <.L381>

00002fb0 <.L112>:
    2fb0:	2b 02       	add	2,d3

00002fb2 <.LVL695>:
    2fb2:	4e 34       	mov	d3,(52,sp)
    2fb4:	4e 30       	mov	d3,(48,sp)
    2fb6:	f8 eb 06    	bns	2fbc <.L0_191>
    2fb9:	cc cf f8    	jmp	2888 <.L110>

00002fbc <.L0_191>:
    2fbc:	90 00       	mov	0,a0
    2fbe:	43 30       	mov	a0,(48,sp)

00002fc0 <.LVL696>:
    2fc0:	46 60       	mov	d1,(96,sp)
    2fc2:	cc c8 f8    	jmp	288a <.L105>

00002fc5 <.L463>:
    2fc5:	f2 30       	not	d0

00002fc7 <.LVL698>:
    2fc7:	40          	inc	d0

00002fc8 <.LVL699>:
    2fc8:	85 2d       	mov	45,d1
    2fca:	f8 96 8b    	movbu	d1,(139,sp)

00002fcd <.LVL700>:
    2fcd:	cc f6 fd    	jmp	2dc3 <.L97>

00002fd0 <.L452>:
    2fd0:	58 7c       	mov	(124,sp),d0
    2fd2:	cc dd fd    	jmp	2daf <.L94>

00002fd5 <.L472>:
    2fd5:	8f ff       	mov	-1,d3

00002fd7 <.LVL703>:
    2fd7:	16          	extbu	d2

00002fd8 <.LVL704>:
    2fd8:	49          	inc	a2
    2fd9:	cc b1 e7    	jmp	178a <.L381>

00002fdc <.L283>:
    2fdc:	3e          	mov	sp,a2
    2fdd:	fa d2 8c 00 	add	140,a2
    2fe1:	f1 d8       	mov	a2,d0

00002fe3 <.LVL706>:
    2fe3:	3c          	mov	sp,a0
    2fe4:	fa d0 8a 00 	add	138,a0

00002fe8 <.Loc.1765.1>:
    2fe8:	f1 10       	sub	a0,d0

00002fea <.LVL707>:
    2fea:	42 70       	mov	d0,(112,sp)

00002fec <.LBE47>:
    2fec:	5e 4c       	mov	(76,sp),a2

00002fee <.LVL709>:
    2fee:	f1 62       	add	d0,a2
    2ff0:	4b 34       	mov	a2,(52,sp)

00002ff2 <.LVL710>:
    2ff2:	5f 4c       	mov	(76,sp),a3

00002ff4 <.LVL711>:
    2ff4:	bf 01       	cmp	1,a3
    2ff6:	c3 05       	ble	2ffb <.L0_192>
    2ff8:	cc f8 fd    	jmp	2df0 <.L103>

00002ffb <.L0_192>:
    2ffb:	cc 07 fe    	jmp	2e02 <.L465>

00002ffe <.L282>:
    2ffe:	9b          	mov	a2,a3

00002fff <.LVL713>:
    2fff:	cc 4a f8    	jmp	2849 <.L84>

00003002 <.L467>:
    3002:	42 30       	mov	d0,(48,sp)

00003004 <.LBE32>:
    3004:	08          	clr	d2
    3005:	4a 60       	mov	d2,(96,sp)
    3007:	cc 83 f8    	jmp	288a <.L105>

0000300a <.L462>:
    300a:	4a 30       	mov	d2,(48,sp)

0000300c <.LVL716>:
    300c:	42 34       	mov	d0,(52,sp)
    300e:	8a 67       	mov	103,d2
    3010:	4a 54       	mov	d2,(84,sp)
    3012:	cc 92 fd    	jmp	2da4 <.L473>

00003015 <_vfprintf>:
    3015:	f8 fe ec    	add	-20,sp

00003018 <.LCFI2>:
    3018:	f1 e0       	mov	d0,a0

0000301a <.Loc.535.1>:
    301a:	46 0c       	mov	d1,(12,sp)
    301c:	58 20       	mov	(32,sp),d0

0000301e <.LVL718>:
    301e:	42 10       	mov	d0,(16,sp)
    3020:	fc a4 08 9c 	mov	(9c08 <__impure_ptr>),d0
    3024:	00 00 
    3026:	f1 d1       	mov	a0,d1

00003028 <.LVL719>:
    3028:	cd 55 e6 00 	call	167d <__vfprintf_r>,[],0
    302c:	00 

0000302d <.LVL720>:
    302d:	df 00 14    	ret	[],20

00003030 <___swsetup_r>:
    3030:	cf f0       	movm	[d2,d3,a2,a3],(sp)

00003032 <.LCFI0>:
    3032:	f8 fe f4    	add	-12,sp

00003035 <.LCFI1>:
    3035:	f1 e3       	mov	d0,a3
    3037:	f1 e6       	mov	d1,a2

00003039 <.Loc.39.1>:
    3039:	fc a0 08 9c 	mov	(9c08 <__impure_ptr>),a0
    303d:	00 00 
    303f:	b0 00       	cmp	0,a0
    3041:	c8 0c       	beq	304d <.L0_0>

00003043 <.Loc.39.1>:
    3043:	f8 00 38    	mov	(56,a0),d0

00003046 <.LVL1>:
    3046:	a0 00       	cmp	0,d0
    3048:	c9 05       	bne	304d <.L0_0>
    304a:	cc 84 00    	jmp	30ce <.L29>

0000304d <.L0_0>:
    304d:	f8 6a 0c    	movhu	(12,a2),d2
    3050:	89          	mov	d2,d1
    3051:	f8 e1 08    	and	8,d1
    3054:	19          	exth	d1
    3055:	a5 00       	cmp	0,d1
    3057:	c8 28       	beq	307f <.L3>
    3059:	f8 06 10    	mov	(16,a2),d1

0000305c <.Loc.70.1>:
    305c:	a5 00       	cmp	0,d1
    305e:	c9 05       	bne	3063 <.L0_1>
    3060:	cc b0 00    	jmp	3110 <.L30>

00003063 <.L0_1>:
    3063:	88          	mov	d2,d0
    3064:	f8 e0 01    	and	1,d0
    3067:	c9 3e       	bne	30a5 <.L31>

00003069 <.L12>:
    3069:	f8 e2 02    	and	2,d2
    306c:	1a          	exth	d2
    306d:	aa 00       	cmp	0,d2
    306f:	c9 05       	bne	3074 <.L14>

00003071 <.Loc.85.1>:
    3071:	f8 02 14    	mov	(20,a2),d0

00003074 <.L14>:
    3074:	f8 12 08    	mov	d0,(8,a2)

00003077 <.Loc.87.1>:
    3077:	a5 00       	cmp	0,d1
    3079:	c8 3d       	beq	30b6 <.L32>

0000307b <.L16>:
	...

0000307c <.L6>:
    307c:	df f0 1c    	ret	[d2,d3,a2,a3],28

0000307f <.L3>:
    307f:	88          	mov	d2,d0
    3080:	f8 e0 10    	and	16,d0
    3083:	18          	exth	d0
    3084:	a0 00       	cmp	0,d0
    3086:	c9 05       	bne	308b <.L0_2>
    3088:	cc b3 00    	jmp	313b <.L33>

0000308b <.L0_2>:
    308b:	88          	mov	d2,d0
    308c:	f8 e0 04    	and	4,d0
    308f:	18          	exth	d0
    3090:	a0 00       	cmp	0,d0
    3092:	c9 48       	bne	30da <.L7>
    3094:	f8 06 10    	mov	(16,a2),d1

00003097 <.Loc.62.1>:
    3097:	88          	mov	d2,d0
    3098:	f8 e4 08    	or	8,d0
    309b:	82          	mov	d0,d2
    309c:	f8 72 0c    	movhu	d0,(12,a2)

0000309f <.L34>:
    309f:	a5 00       	cmp	0,d1
    30a1:	c9 c2       	bne	3063 <.L0_1>
    30a3:	ca 6d       	bra	3110 <.L30>

000030a5 <.L31>:
    30a5:	00          	clr	d0
    30a6:	f8 12 08    	mov	d0,(8,a2)

000030a9 <.Loc.82.1>:
    30a9:	f8 02 14    	mov	(20,a2),d0
    30ac:	f2 30       	not	d0
    30ae:	40          	inc	d0
    30af:	f8 12 18    	mov	d0,(24,a2)

000030b2 <.Loc.87.1>:
    30b2:	a5 00       	cmp	0,d1
    30b4:	c9 c7       	bne	307b <.L16>

000030b6 <.L32>:
    30b6:	f8 6a 0c    	movhu	(12,a2),d2
    30b9:	8b          	mov	d2,d3
    30ba:	f8 e3 80    	and	128,d3
    30bd:	1b          	exth	d3

000030be <.Loc.93.1>:
    30be:	84          	mov	d1,d0

000030bf <.Loc.87.1>:
    30bf:	af 00       	cmp	0,d3
    30c1:	c8 bb       	beq	307c <.L6>

000030c3 <.Loc.90.1>:
    30c3:	f8 e6 40    	or	64,d2
    30c6:	f8 7a 0c    	movhu	d2,(12,a2)

000030c9 <.Loc.91.1>:
    30c9:	80 ff       	mov	-1,d0

000030cb <.Loc.94.1>:
    30cb:	df f0 1c    	ret	[d2,d3,a2,a3],28

000030ce <.L29>:
    30ce:	f1 d0       	mov	a0,d0
    30d0:	dd 76 18 00 	call	4946 <___sinit>,[],0
    30d4:	00 00 00 

000030d7 <.LVL4>:
    30d7:	cc 76 ff    	jmp	304d <.L0_0>

000030da <.L7>:
    30da:	f8 06 30    	mov	(48,a2),d1
    30dd:	a5 00       	cmp	0,d1
    30df:	c8 19       	beq	30f8 <.L9>

000030e1 <.Loc.57.1>:
    30e1:	f1 d8       	mov	a2,d0
    30e3:	28 40       	add	64,d0
    30e5:	a1          	cmp	d0,d1
    30e6:	c8 0e       	beq	30f4 <.L10>

000030e8 <.Loc.57.1>:
    30e8:	f1 dc       	mov	a3,d0
    30ea:	dd 6a 1a 00 	call	4b54 <__free_r>,[],0
    30ee:	00 00 00 

000030f1 <.LVL5>:
    30f1:	f8 6a 0c    	movhu	(12,a2),d2

000030f4 <.L10>:
    30f4:	00          	clr	d0
    30f5:	f8 12 30    	mov	d0,(48,a2)

000030f8 <.L9>:
    30f8:	fc e2 db ff 	and	-37,d2
    30fc:	ff ff 

000030fe <.Loc.59.1>:
    30fe:	00          	clr	d0
    30ff:	f8 12 04    	mov	d0,(4,a2)

00003102 <.Loc.60.1>:
    3102:	f8 06 10    	mov	(16,a2),d1
    3105:	66          	mov	d1,(a2)

00003106 <.Loc.62.1>:
    3106:	88          	mov	d2,d0
    3107:	f8 e4 08    	or	8,d0
    310a:	82          	mov	d0,d2
    310b:	f8 72 0c    	movhu	d0,(12,a2)
    310e:	ca 91       	bra	309f <.L34>

00003110 <.L30>:
    3110:	88          	mov	d2,d0
    3111:	fa e0 80 02 	and	640,d0
    3115:	fa c8 00 02 	cmp	512,d0
    3119:	c9 05       	bne	311e <.L0_3>
    311b:	cc 48 ff    	jmp	3063 <.L0_1>

0000311e <.L0_3>:
    311e:	f1 dc       	mov	a3,d0
    3120:	f1 d9       	mov	a2,d1
    3122:	dd ef 1d 00 	call	4f11 <___smakebuf_r>,[],0
    3126:	00 00 00 

00003129 <.LVL6>:
    3129:	f8 6a 0c    	movhu	(12,a2),d2
    312c:	f8 06 10    	mov	(16,a2),d1

0000312f <.Loc.74.1>:
    312f:	88          	mov	d2,d0
    3130:	f8 e0 01    	and	1,d0
    3133:	c9 05       	bne	3138 <.L0_4>
    3135:	cc 34 ff    	jmp	3069 <.L12>

00003138 <.L0_4>:
    3138:	cc 6d ff    	jmp	30a5 <.L31>

0000313b <.L33>:
    313b:	80 09       	mov	9,d0
    313d:	63          	mov	d0,(a3)

0000313e <.Loc.50.1>:
    313e:	f8 e6 40    	or	64,d2
    3141:	f8 7a 0c    	movhu	d2,(12,a2)

00003144 <.Loc.51.1>:
    3144:	80 ff       	mov	-1,d0

00003146 <.Loc.94.1>:
    3146:	df f0 1c    	ret	[d2,d3,a2,a3],28

00003149 <___call_exitprocs>:
    3149:	cf f0       	movm	[d2,d3,a2,a3],(sp)

0000314b <.LCFI0>:
    314b:	f8 fe e8    	add	-24,sp

0000314e <.LCFI1>:
    314e:	42 2c       	mov	d0,(44,sp)
    3150:	87          	mov	d1,d3

00003151 <.L35>:
    3151:	fc a1 58 95 	mov	(9558 <__global_impure_ptr>),a1
    3155:	00 00 
    3157:	fa 21 48 01 	mov	(328,a1),a0

0000315b <.LVL2>:
    315b:	fa d1 48 01 	add	328,a1
    315f:	47 14       	mov	a1,(20,sp)

00003161 <.L38>:
    3161:	b0 00       	cmp	0,a0
    3163:	c8 38       	beq	319b <.L1>

00003165 <.LVL4>:
    3165:	f8 00 04    	mov	(4,a0),d0
    3168:	82          	mov	d0,d2
    3169:	2a ff       	add	-1,d2

0000316b <.LVL5>:
    316b:	f8 eb 26    	bns	3191 <.L3>

0000316e <.Loc.64.1>:
    316e:	92          	mov	a0,a2
    316f:	fa d2 88 00 	add	136,a2

00003173 <.LVL6>:
    3173:	89          	mov	d2,d1
    3174:	55          	asl2	d1
    3175:	f1 66       	add	d1,a2

00003177 <.LVL7>:
    3177:	40          	inc	d0
    3178:	54          	asl2	d0
    3179:	93          	mov	a0,a3
    317a:	f1 63       	add	d0,a3

0000317c <.L12>:
    317c:	af 00       	cmp	0,d3
    317e:	c8 20       	beq	319e <.L4>

00003180 <.Loc.97.1>:
    3180:	fa 02 80 00 	mov	(128,a2),d0
    3184:	ac          	cmp	d3,d0
    3185:	c8 19       	beq	319e <.L4>

00003187 <.L5>:
    3187:	2a ff       	add	-1,d2

00003189 <.LVL9>:
    3189:	22 fc       	add	-4,a2
    318b:	23 fc       	add	-4,a3
    318d:	aa ff       	cmp	-1,d2
    318f:	c9 ed       	bne	317c <.L12>

00003191 <.L3>:
    3191:	fc cc 00 00 	mov	0,d0
    3195:	00 00 
    3197:	a0 00       	cmp	0,d0
    3199:	c9 6f       	bne	3208 <.L40>

0000319b <.L1>:
    319b:	df f0 28    	ret	[d2,d3,a2,a3],40

0000319e <.L4>:
    319e:	f0 07       	mov	(a3),a1

000031a0 <.LVL13>:
    31a0:	f8 00 04    	mov	(4,a0),d0
    31a3:	28 ff       	add	-1,d0
    31a5:	a8          	cmp	d2,d0
    31a6:	c8 54       	beq	31fa <.L41>

000031a8 <.Loc.106.1>:
    31a8:	00          	clr	d0
    31a9:	63          	mov	d0,(a3)

000031aa <.L7>:
    31aa:	b5 00       	cmp	0,a1
    31ac:	c8 db       	beq	3187 <.L5>

000031ae <.Loc.112.1>:
    31ae:	f8 04 04    	mov	(4,a0),d1
    31b1:	46 10       	mov	d1,(16,sp)

000031b3 <.LVL14>:
    31b3:	80 01       	mov	1,d0
    31b5:	f2 98       	asl	d2,d0

000031b7 <.Loc.115.1>:
    31b7:	fa 04 88 01 	mov	(392,a0),d1

000031bb <.LVL15>:
    31bb:	f2 01       	and	d0,d1
    31bd:	c8 35       	beq	31f2 <.L42>

000031bf <.Loc.117.1>:
    31bf:	fa 04 8c 01 	mov	(396,a0),d1
    31c3:	f2 04       	and	d1,d0
    31c5:	c9 3a       	bne	31ff <.L10>

000031c7 <.Loc.118.1>:
    31c7:	58 2c       	mov	(44,sp),d0
    31c9:	76          	mov	(a2),d1
    31ca:	43 0c       	mov	a0,(12,sp)
    31cc:	f0 f1       	calls	(a1)

000031ce <.LVL16>:
    31ce:	5c 0c       	mov	(12,sp),a0

000031d0 <.L9>:
    31d0:	f8 00 04    	mov	(4,a0),d0
    31d3:	5d 10       	mov	(16,sp),a1
    31d5:	f1 94       	cmp	a1,d0
    31d7:	c8 05       	beq	31dc <.L0_0>
    31d9:	cc 78 ff    	jmp	3151 <.L35>

000031dc <.L0_0>:
    31dc:	5d 14       	mov	(20,sp),a1
    31de:	71          	mov	(a1),d0
    31df:	f1 90       	cmp	a0,d0
    31e1:	c8 05       	beq	31e6 <.L0_1>
    31e3:	cc 6e ff    	jmp	3151 <.L35>

000031e6 <.L0_1>:
    31e6:	2a ff       	add	-1,d2

000031e8 <.LVL17>:
    31e8:	22 fc       	add	-4,a2
    31ea:	23 fc       	add	-4,a3
    31ec:	aa ff       	cmp	-1,d2
    31ee:	c9 8e       	bne	317c <.L12>
    31f0:	ca a1       	bra	3191 <.L3>

000031f2 <.L42>:
    31f2:	43 0c       	mov	a0,(12,sp)
    31f4:	f0 f1       	calls	(a1)

000031f6 <.LVL19>:
    31f6:	5c 0c       	mov	(12,sp),a0
    31f8:	ca d8       	bra	31d0 <.L9>

000031fa <.L41>:
    31fa:	f8 18 04    	mov	d2,(4,a0)
    31fd:	ca ad       	bra	31aa <.L7>

000031ff <.L10>:
    31ff:	72          	mov	(a2),d0
    3200:	43 0c       	mov	a0,(12,sp)
    3202:	f0 f1       	calls	(a1)

00003204 <.LVL22>:
    3204:	5c 0c       	mov	(12,sp),a0
    3206:	ca ca       	bra	31d0 <.L9>

00003208 <.L40>:
    3208:	f8 00 04    	mov	(4,a0),d0
    320b:	a0 00       	cmp	0,d0
    320d:	70          	mov	(a0),d0
    320e:	c9 19       	bne	3227 <.L14>

00003210 <.Loc.139.1>:
    3210:	a0 00       	cmp	0,d0
    3212:	c8 15       	beq	3227 <.L14>

00003214 <.Loc.142.1>:
    3214:	5d 14       	mov	(20,sp),a1
    3216:	61          	mov	d0,(a1)

00003217 <.Loc.147.1>:
    3217:	f1 d0       	mov	a0,d0
    3219:	dd e7 cd ff 	call	0 <.Lframe0>,[],0
    321d:	ff 00 00 

00003220 <.LVL24>:
    3220:	5d 14       	mov	(20,sp),a1
    3222:	f0 01       	mov	(a1),a0

00003224 <.LVL25>:
    3224:	cc 3d ff    	jmp	3161 <.L38>

00003227 <.L14>:
    3227:	43 14       	mov	a0,(20,sp)

00003229 <.LVL27>:
    3229:	f1 e0       	mov	d0,a0
    322b:	cc 36 ff    	jmp	3161 <.L38>

0000322e <_quorem>:
    322e:	cf f0       	movm	[d2,d3,a2,a3],(sp)

00003230 <.LCFI0>:
    3230:	f8 fe dc    	add	-36,sp

00003233 <.LCFI1>:
    3233:	42 38       	mov	d0,(56,sp)
    3235:	46 3c       	mov	d1,(60,sp)

00003237 <.Loc.49.1>:
    3237:	f1 e4       	mov	d1,a0
    3239:	f8 00 10    	mov	(16,a0),d0

0000323c <.LVL1>:
    323c:	5d 38       	mov	(56,sp),a1
    323e:	f8 05 10    	mov	(16,a1),d1

00003241 <.LVL2>:
    3241:	a4          	cmp	d1,d0
    3242:	c3 05       	ble	3247 <.L0_0>
    3244:	cc 3e 01    	jmp	3382 <.L11>

00003247 <.L0_0>:
    3247:	92          	mov	a0,a2
    3248:	22 14       	add	20,a2

0000324a <.LVL3>:
    324a:	82          	mov	d0,d2
    324b:	2a ff       	add	-1,d2

0000324d <.LVL4>:
    324d:	28 04       	add	4,d0
    324f:	54          	asl2	d0
    3250:	f1 60       	add	d0,a0

00003252 <.LVL5>:
    3252:	43 10       	mov	a0,(16,sp)

00003254 <.LVL6>:
    3254:	21 14       	add	20,a1
    3256:	47 14       	mov	a1,(20,sp)

00003258 <.LVL7>:
    3258:	5c 38       	mov	(56,sp),a0

0000325a <.LVL8>:
    325a:	f1 60       	add	d0,a0
    325c:	5d 10       	mov	(16,sp),a1

0000325e <.LVL9>:
    325e:	75          	mov	(a1),d1
    325f:	44          	inc	d1
    3260:	7c          	mov	(a0),d3
    3261:	00          	clr	d0
    3262:	f2 f2       	mov	d0,mdr
    3264:	f2 77       	divu	d1,d3
    3266:	4e 18       	mov	d3,(24,sp)

00003268 <.LVL10>:
    3268:	a3          	cmp	d0,d3
    3269:	c9 05       	bne	326e <.L0_1>
    326b:	cc 94 00    	jmp	32ff <.L3>

0000326e <.L0_1>:
    326e:	9b          	mov	a2,a3
    326f:	5c 14       	mov	(20,sp),a0
    3271:	42 0c       	mov	d0,(12,sp)
    3273:	4b 1c       	mov	a2,(28,sp)
    3275:	4a 20       	mov	d2,(32,sp)
    3277:	f1 ee       	mov	d3,a2

00003279 <.LVL11>:
    3279:	83          	mov	d0,d3

0000327a <.L4>:
    327a:	73          	mov	(a3),d0

0000327b <.LVL13>:
    327b:	53          	inc4	a3

0000327c <.Loc.73.1>:
    327c:	82          	mov	d0,d2
    327d:	1e          	exthu	d2
    327e:	f1 d9       	mov	a2,d1
    3280:	cb          	nop	
    3281:	cb          	nop	
    3282:	f2 46       	mul	d1,d2
    3284:	59 0c       	mov	(12,sp),d1
    3286:	e6          	add	d1,d2

00003287 <.LVL15>:
    3287:	89          	mov	d2,d1
    3288:	f8 c5 10    	lsr	16,d1
    328b:	f1 e5       	mov	d1,a1
    328d:	f8 c4 10    	lsr	16,d0

00003290 <.LVL16>:
    3290:	f1 d9       	mov	a2,d1
    3292:	cb          	nop	
    3293:	cb          	nop	
    3294:	f2 44       	mul	d1,d0
    3296:	f1 61       	add	d0,a1
    3298:	f1 d5       	mov	a1,d1
    329a:	f2 f6       	mov	d1,mdr

0000329c <.LVL17>:
    329c:	f1 d4       	mov	a1,d0
    329e:	f8 c4 10    	lsr	16,d0
    32a1:	42 0c       	mov	d0,(12,sp)

000032a3 <.LVL18>:
    32a3:	74          	mov	(a0),d1

000032a4 <.LVL19>:
    32a4:	84          	mov	d1,d0

000032a5 <.LVL20>:
    32a5:	1c          	exthu	d0
    32a6:	ec          	add	d3,d0
    32a7:	1e          	exthu	d2

000032a8 <.LVL21>:
    32a8:	f1 08       	sub	d2,d0

000032aa <.LVL22>:
    32aa:	f8 c5 10    	lsr	16,d1
    32ad:	f2 e2       	mov	mdr,d2
    32af:	1e          	exthu	d2
    32b0:	f1 09       	sub	d2,d1

000032b2 <.Loc.77.1>:
    32b2:	82          	mov	d0,d2
    32b3:	f8 ca 10    	asr	16,d2

000032b6 <.LVL23>:
    32b6:	e9          	add	d2,d1

000032b7 <.LVL24>:
    32b7:	87          	mov	d1,d3
    32b8:	f8 cb 10    	asr	16,d3

000032bb <.LVL25>:
    32bb:	f8 c1 10    	asl	16,d1

000032be <.LVL26>:
    32be:	1c          	exthu	d0

000032bf <.LVL27>:
    32bf:	f2 11       	or	d0,d1
    32c1:	64          	mov	d1,(a0)
    32c2:	50          	inc4	a0

000032c3 <.LVL28>:
    32c3:	5d 10       	mov	(16,sp),a1

000032c5 <.LVL29>:
    32c5:	bd          	cmp	a3,a1
    32c6:	c6 b4       	bcc	327a <.L4>
    32c8:	5a 20       	mov	(32,sp),d2

000032ca <.LVL30>:
    32ca:	f1 db       	mov	a2,d3

000032cc <.LVL31>:
    32cc:	5e 1c       	mov	(28,sp),a2

000032ce <.LVL32>:
    32ce:	88          	mov	d2,d0
    32cf:	28 05       	add	5,d0
    32d1:	54          	asl2	d0
    32d2:	5d 38       	mov	(56,sp),a1
    32d4:	f1 61       	add	d0,a1
    32d6:	71          	mov	(a1),d0
    32d7:	a0 00       	cmp	0,d0
    32d9:	c9 26       	bne	32ff <.L3>

000032db <.LVL33>:
    32db:	94          	mov	a1,a0

000032dc <.LVL34>:
    32dc:	20 fc       	add	-4,a0

000032de <.LVL35>:
    32de:	58 14       	mov	(20,sp),d0
    32e0:	f1 90       	cmp	a0,d0
    32e2:	c6 18       	bcc	32fa <.L5>

000032e4 <.Loc.96.1>:
    32e4:	f8 01 fc    	mov	(-4,a1),d0
    32e7:	a0 00       	cmp	0,d0
    32e9:	c9 11       	bne	32fa <.L5>
    32eb:	59 14       	mov	(20,sp),d1

000032ed <.L19>:
    32ed:	2a ff       	add	-1,d2

000032ef <.Loc.96.1>:
    32ef:	20 fc       	add	-4,a0
    32f1:	f1 91       	cmp	a0,d1
    32f3:	c6 07       	bcc	32fa <.L5>

000032f5 <.Loc.96.1>:
    32f5:	70          	mov	(a0),d0
    32f6:	a0 00       	cmp	0,d0
    32f8:	c8 f5       	beq	32ed <.L19>

000032fa <.L5>:
    32fa:	5c 38       	mov	(56,sp),a0

000032fc <.LVL38>:
    32fc:	f8 18 10    	mov	d2,(16,a0)

000032ff <.L3>:
    32ff:	58 38       	mov	(56,sp),d0
    3301:	59 3c       	mov	(60,sp),d1
    3303:	dd 72 2a 00 	call	5d75 <___mcmp>,[],0
    3307:	00 00 00 

0000330a <.LVL40>:
    330a:	a0 00       	cmp	0,d0
    330c:	c0 71       	blt	337d <.L7>

0000330e <.Loc.103.1>:
    330e:	4c          	inc	d3

0000330f <.LVL41>:
    330f:	4e 18       	mov	d3,(24,sp)

00003311 <.LVL42>:
    3311:	5c 14       	mov	(20,sp),a0

00003313 <.Loc.104.1>:
    3313:	95 00       	mov	0,a1
    3315:	5b 10       	mov	(16,sp),d3

00003317 <.LVL43>:
    3317:	f2 fa       	mov	d2,mdr

00003319 <.L8>:
    3319:	7a          	mov	(a2),d2

0000331a <.LVL45>:
    331a:	52          	inc4	a2

0000331b <.LVL46>:
    331b:	f0 0c       	mov	(a0),a3
    331d:	f1 dc       	mov	a3,d0
    331f:	1c          	exthu	d0
    3320:	f1 54       	add	a1,d0
    3322:	89          	mov	d2,d1
    3323:	1d          	exthu	d1
    3324:	f1 04       	sub	d1,d0

00003326 <.LVL47>:
    3326:	f1 dd       	mov	a3,d1
    3328:	f8 c5 10    	lsr	16,d1
    332b:	f8 c6 10    	lsr	16,d2

0000332e <.LVL48>:
    332e:	f1 eb       	mov	d2,a3
    3330:	f1 09       	sub	d2,d1

00003332 <.Loc.116.1>:
    3332:	82          	mov	d0,d2

00003333 <.LVL49>:
    3333:	f8 ca 10    	asr	16,d2

00003336 <.LVL50>:
    3336:	e9          	add	d2,d1

00003337 <.LVL51>:
    3337:	86          	mov	d1,d2

00003338 <.LVL52>:
    3338:	f8 ca 10    	asr	16,d2
    333b:	f1 e9       	mov	d2,a1

0000333d <.LVL53>:
    333d:	f8 c1 10    	asl	16,d1

00003340 <.LVL54>:
    3340:	1c          	exthu	d0

00003341 <.LVL55>:
    3341:	f2 11       	or	d0,d1
    3343:	64          	mov	d1,(a0)
    3344:	50          	inc4	a0

00003345 <.Loc.131.1>:
    3345:	f1 9b       	cmp	a2,d3
    3347:	c6 d2       	bcc	3319 <.L8>
    3349:	f2 e2       	mov	mdr,d2

0000334b <.LVL57>:
    334b:	f2 e0       	mov	mdr,d0
    334d:	28 05       	add	5,d0
    334f:	54          	asl2	d0
    3350:	5d 38       	mov	(56,sp),a1

00003352 <.LVL58>:
    3352:	f1 61       	add	d0,a1

00003354 <.LVL59>:
    3354:	71          	mov	(a1),d0
    3355:	a0 00       	cmp	0,d0
    3357:	c9 26       	bne	337d <.L7>

00003359 <.LVL60>:
    3359:	94          	mov	a1,a0
    335a:	20 fc       	add	-4,a0

0000335c <.LVL61>:
    335c:	58 14       	mov	(20,sp),d0
    335e:	f1 90       	cmp	a0,d0
    3360:	c6 18       	bcc	3378 <.L9>

00003362 <.Loc.136.1>:
    3362:	f8 01 fc    	mov	(-4,a1),d0
    3365:	a0 00       	cmp	0,d0
    3367:	c9 11       	bne	3378 <.L9>
    3369:	59 14       	mov	(20,sp),d1

0000336b <.L18>:
    336b:	2a ff       	add	-1,d2

0000336d <.Loc.136.1>:
    336d:	20 fc       	add	-4,a0
    336f:	f1 91       	cmp	a0,d1
    3371:	c6 07       	bcc	3378 <.L9>

00003373 <.Loc.136.1>:
    3373:	70          	mov	(a0),d0
    3374:	a0 00       	cmp	0,d0
    3376:	c8 f5       	beq	336b <.L18>

00003378 <.L9>:
    3378:	5c 38       	mov	(56,sp),a0

0000337a <.LVL64>:
    337a:	f8 18 10    	mov	d2,(16,a0)

0000337d <.L7>:
    337d:	58 18       	mov	(24,sp),d0

0000337f <.Loc.142.1>:
    337f:	df f0 34    	ret	[d2,d3,a2,a3],52

00003382 <.L11>:
	...

00003383 <.LVL67>:
    3383:	df f0 34    	ret	[d2,d3,a2,a3],52

00003386 <__dtoa_r>:
    3386:	cf f0       	movm	[d2,d3,a2,a3],(sp)

00003388 <.LCFI2>:
    3388:	fa fe 7c ff 	add	-132,sp

0000338c <.LCFI3>:
    338c:	f1 e3       	mov	d0,a3
    338e:	46 9c       	mov	d1,(156,sp)
    3390:	46 34       	mov	d1,(52,sp)
    3392:	5a a0       	mov	(160,sp),d2
    3394:	5e b0       	mov	(176,sp),a2

00003396 <.LVL69>:
    3396:	4a 24       	mov	d2,(36,sp)

00003398 <.Loc.239.1>:
    3398:	f8 07 40    	mov	(64,a3),d1
    339b:	a5 00       	cmp	0,d1
    339d:	c8 1e       	beq	33bb <.L32>

0000339f <.Loc.241.1>:
    339f:	f8 0f 44    	mov	(68,a3),d3
    33a2:	f1 e4       	mov	d1,a0
    33a4:	f8 1c 04    	mov	d3,(4,a0)

000033a7 <.Loc.242.1>:
    33a7:	80 01       	mov	1,d0

000033a9 <.LVL70>:
    33a9:	f2 9c       	asl	d3,d0
    33ab:	f8 10 08    	mov	d0,(8,a0)

000033ae <.Loc.243.1>:
    33ae:	f1 dc       	mov	a3,d0
    33b0:	dd d4 24 00 	call	5884 <__Bfree>,[],0
    33b4:	00 00 00 

000033b7 <.LVL71>:
    33b7:	00          	clr	d0
    33b8:	f8 13 40    	mov	d0,(64,a3)

000033bb <.L32>:
    33bb:	aa 00       	cmp	0,d2
    33bd:	c2 05       	bge	33c2 <.L0_2>
    33bf:	cc 8d 00    	jmp	344c <.L294>

000033c2 <.L0_2>:
    33c2:	00          	clr	d0
    33c3:	62          	mov	d0,(a2)

000033c4 <.L34>:
    33c4:	88          	mov	d2,d0
    33c5:	fc e0 00 00 	and	2146435072,d0
    33c9:	f0 7f 
    33cb:	fc c8 00 00 	cmp	2146435072,d0
    33cf:	f0 7f 
    33d1:	c8 39       	beq	340a <.L295>

000033d3 <.Loc.282.1>:
    33d3:	0c          	clr	d3
    33d4:	4e 0c       	mov	d3,(12,sp)
    33d6:	4e 10       	mov	d3,(16,sp)
    33d8:	58 34       	mov	(52,sp),d0
    33da:	59 24       	mov	(36,sp),d1
    33dc:	dd 44 59 00 	call	8d20 <___eqdf2>,[],0
    33e0:	00 00 00 
    33e3:	ac          	cmp	d3,d0
    33e4:	c9 74       	bne	3458 <.L279>

000033e6 <.Loc.284.1>:
    33e6:	80 01       	mov	1,d0
    33e8:	5d ac       	mov	(172,sp),a1
    33ea:	61          	mov	d0,(a1)

000033eb <.LVL73>:
    33eb:	5e b4       	mov	(180,sp),a2
    33ed:	f1 ae       	cmp	d3,a2
    33ef:	c9 05       	bne	33f4 <.L0_3>
    33f1:	cc c7 06    	jmp	3ab8 <.L162>

000033f4 <.L0_3>:
    33f4:	fc cc 98 95 	mov	38296,d0
    33f8:	00 00 
    33fa:	62          	mov	d0,(a2)

000033fb <.Loc.288.1>:
    33fb:	fc dd 97 95 	mov	38295,a1
    33ff:	00 00 
    3401:	47 20       	mov	a1,(32,sp)

00003403 <.L228>:
    3403:	5c 20       	mov	(32,sp),a0
    3405:	f1 d0       	mov	a0,d0
    3407:	df f0 94    	ret	[d2,d3,a2,a3],148

0000340a <.L295>:
    340a:	2c 0f 27    	mov	9999,d0
    340d:	5d ac       	mov	(172,sp),a1
    340f:	61          	mov	d0,(a1)

00003410 <.Loc.267.1>:
    3410:	5b 34       	mov	(52,sp),d3
    3412:	af 00       	cmp	0,d3
    3414:	c8 05       	beq	3419 <.L0_4>
    3416:	cc e8 05    	jmp	39fe <.L160>

00003419 <.L0_4>:
    3419:	fc e2 ff ff 	and	1048575,d2
    341d:	0f 00 
    341f:	c9 05       	bne	3424 <.L0_5>
    3421:	cc fd 09    	jmp	3e1e <.L161>

00003424 <.L0_5>:
    3424:	fc dd 29 97 	mov	38697,a1
    3428:	00 00 
    342a:	47 20       	mov	a1,(32,sp)

0000342c <.L36>:
    342c:	5e b4       	mov	(180,sp),a2
    342e:	ba 00       	cmp	0,a2
    3430:	c8 d3       	beq	3403 <.L228>

00003432 <.Loc.273.1>:
    3432:	5d 20       	mov	(32,sp),a1
    3434:	f8 41 03    	movbu	(3,a1),d0
    3437:	a0 00       	cmp	0,d0
    3439:	c9 05       	bne	343e <.L0_6>
    343b:	cc bd 06    	jmp	3af8 <.L38>

0000343e <.L0_6>:
    343e:	f1 d4       	mov	a1,d0
    3440:	28 08       	add	8,d0

00003442 <.Loc.271.1>:
    3442:	5e b4       	mov	(180,sp),a2
    3444:	62          	mov	d0,(a2)

00003445 <.L304>:
    3445:	5c 20       	mov	(32,sp),a0
    3447:	f1 d0       	mov	a0,d0
    3449:	df f0 94    	ret	[d2,d3,a2,a3],148

0000344c <.L294>:
    344c:	80 01       	mov	1,d0
    344e:	62          	mov	d0,(a2)

0000344f <.Loc.251.1>:
    344f:	ea          	add	d2,d2
    3450:	f8 c6 01    	lsr	1,d2
    3453:	4a 24       	mov	d2,(36,sp)
    3455:	cc 6f ff    	jmp	33c4 <.L34>

00003458 <.L279>:
    3458:	3e          	mov	sp,a2
    3459:	fa d2 80 00 	add	128,a2
    345d:	4b 10       	mov	a2,(16,sp)
    345f:	3c          	mov	sp,a0
    3460:	20 7c       	add	124,a0
    3462:	43 14       	mov	a0,(20,sp)
    3464:	58 24       	mov	(36,sp),d0
    3466:	42 0c       	mov	d0,(12,sp)
    3468:	59 34       	mov	(52,sp),d1
    346a:	f1 dc       	mov	a3,d0
    346c:	dd 77 2b 00 	call	5fe3 <___d2b>,[],0
    3470:	00 00 00 

00003473 <.LVL78>:
    3473:	43 30       	mov	a0,(48,sp)

00003475 <.LVL79>:
    3475:	89          	mov	d2,d1
    3476:	f8 c5 14    	lsr	20,d1
    3479:	fa e1 ff 07 	and	2047,d1
    347d:	f1 e6       	mov	d1,a2

0000347f <.LVL80>:
    347f:	c8 05       	beq	3484 <.L0_7>
    3481:	cc 88 05    	jmp	3a09 <.L296>

00003484 <.L0_7>:
    3484:	5b 7c       	mov	(124,sp),d3
    3486:	4e 20       	mov	d3,(32,sp)

00003488 <.LVL82>:
    3488:	5e 80       	mov	(128,sp),a2
    348a:	f1 6e       	add	d3,a2

0000348c <.LVL83>:
    348c:	fc da ef fb 	cmp	-1041,a2
    3490:	ff ff 
    3492:	c2 05       	bge	3497 <.L0_8>
    3494:	cc d2 09    	jmp	3e66 <.L44>

00003497 <.L0_8>:
    3497:	2c 0e fc    	mov	-1010,d0
    349a:	f1 18       	sub	a2,d0
    349c:	f2 92       	asl	d0,d2
    349e:	88          	mov	d2,d0
    349f:	f1 d9       	mov	a2,d1
    34a1:	fa c1 12 04 	add	1042,d1
    34a5:	5a 34       	mov	(52,sp),d2
    34a7:	f2 a6       	lsr	d1,d2
    34a9:	f2 18       	or	d2,d0

000034ab <.LVL84>:
    34ab:	dd 57 5b 00 	call	9002 <___floatunsidf>,[],0
    34af:	00 00 00 

000034b2 <.LVL85>:
    34b2:	fc c1 00 00 	add	-32505856,d1
    34b6:	10 fe 

000034b8 <.Loc.349.1>:
    34b8:	22 ff       	add	-1,a2

000034ba <.LVL87>:
    34ba:	95 01       	mov	1,a1
    34bc:	47 4c       	mov	a1,(76,sp)

000034be <.L43>:
    34be:	95 00       	mov	0,a1
    34c0:	47 0c       	mov	a1,(12,sp)
    34c2:	fc dc 00 00 	mov	1073217536,a0
    34c6:	f8 3f 
    34c8:	43 10       	mov	a0,(16,sp)
    34ca:	47 18       	mov	a1,(24,sp)
    34cc:	dd 54 54 00 	call	8920 <___subdf3>,[],0
    34d0:	00 00 00 
    34d3:	fc dc 61 43 	mov	1668236129,a0
    34d7:	6f 63 
    34d9:	43 0c       	mov	a0,(12,sp)
    34db:	fc dc a7 87 	mov	1070761895,a0
    34df:	d2 3f 
    34e1:	43 10       	mov	a0,(16,sp)
    34e3:	dd 95 54 00 	call	8978 <___muldf3>,[],0
    34e7:	00 00 00 
    34ea:	fc dc b3 c8 	mov	-1956591437,a0
    34ee:	60 8b 
    34f0:	43 0c       	mov	a0,(12,sp)
    34f2:	fc dc 28 8a 	mov	1069976104,a0
    34f6:	c6 3f 
    34f8:	43 10       	mov	a0,(16,sp)
    34fa:	dd d6 53 00 	call	88d0 <___adddf3>,[],0
    34fe:	00 00 00 
    3501:	83          	mov	d0,d3
    3502:	86          	mov	d1,d2
    3503:	f1 d8       	mov	a2,d0
    3505:	dd c4 59 00 	call	8ec9 <___floatsidf>,[],0
    3509:	00 00 00 
    350c:	fc dc fb 79 	mov	1352628731,a0
    3510:	9f 50 
    3512:	43 0c       	mov	a0,(12,sp)
    3514:	fc dc 13 44 	mov	1070810131,a0
    3518:	d3 3f 
    351a:	43 10       	mov	a0,(16,sp)
    351c:	dd 5c 54 00 	call	8978 <___muldf3>,[],0
    3520:	00 00 00 
    3523:	42 0c       	mov	d0,(12,sp)
    3525:	46 10       	mov	d1,(16,sp)
    3527:	8c          	mov	d3,d0
    3528:	89          	mov	d2,d1
    3529:	dd a7 53 00 	call	88d0 <___adddf3>,[],0
    352d:	00 00 00 
    3530:	83          	mov	d0,d3
    3531:	86          	mov	d1,d2

00003532 <.LVL95>:
    3532:	dd 58 5a 00 	call	8f8a <___fixdfsi>,[],0
    3536:	00 00 00 

00003539 <.LVL96>:
    3539:	42 40       	mov	d0,(64,sp)

0000353b <.LVL97>:
    353b:	5d 18       	mov	(24,sp),a1
    353d:	47 0c       	mov	a1,(12,sp)
    353f:	47 10       	mov	a1,(16,sp)
    3541:	8c          	mov	d3,d0

00003542 <.LVL98>:
    3542:	89          	mov	d2,d1
    3543:	dd 31 59 00 	call	8e74 <___ltdf2>,[],0
    3547:	00 00 00 
    354a:	a0 00       	cmp	0,d0
    354c:	c2 05       	bge	3551 <.L0_9>
    354e:	cc 79 05    	jmp	3ac7 <.L297>

00003551 <.L0_9>:
    3551:	5b 40       	mov	(64,sp),d3
    3553:	af 16       	cmp	22,d3
    3555:	c7 05       	bls	355a <.L0_10>
    3557:	cc 9a 05    	jmp	3af1 <.L0_42>

0000355a <.L0_10>:
    355a:	57          	asl2	d3
    355b:	ef          	add	d3,d3

0000355c <.LVL102>:
    355c:	f1 ec       	mov	d3,a0
    355e:	fc d0 88 97 	add	38792,a0
    3562:	00 00 
    3564:	70          	mov	(a0),d0
    3565:	f8 04 04    	mov	(4,a0),d1
    3568:	5a 34       	mov	(52,sp),d2
    356a:	4a 0c       	mov	d2,(12,sp)
    356c:	5b 24       	mov	(36,sp),d3
    356e:	4e 10       	mov	d3,(16,sp)
    3570:	dd 5a 58 00 	call	8dca <___gtdf2>,[],0
    3574:	00 00 00 
    3577:	a0 00       	cmp	0,d0
    3579:	c1 05       	bgt	357e <.L0_11>
    357b:	cc 0b 09    	jmp	3e86 <.L280>

0000357e <.L0_11>:
    357e:	5a 40       	mov	(64,sp),d2
    3580:	2a ff       	add	-1,d2
    3582:	4a 40       	mov	d2,(64,sp)

00003584 <.LVL104>:
    3584:	0c          	clr	d3
    3585:	4e 5c       	mov	d3,(92,sp)

00003587 <.L49>:
    3587:	58 20       	mov	(32,sp),d0
    3589:	f1 18       	sub	a2,d0
    358b:	28 ff       	add	-1,d0

0000358d <.LVL106>:
    358d:	f8 ea 06    	bnc	3593 <.L0_12>
    3590:	cc ad 08    	jmp	3e3d <.L298>

00003593 <.L0_12>:
    3593:	42 48       	mov	d0,(72,sp)

00003595 <.Loc.371.1>:
    3595:	9a 00       	mov	0,a2

00003597 <.LVL107>:
    3597:	4b 50       	mov	a2,(80,sp)

00003599 <.L51>:
    3599:	5a 40       	mov	(64,sp),d2
    359b:	aa 00       	cmp	0,d2
    359d:	c2 05       	bge	35a2 <.L0_13>
    359f:	cc 8a 08    	jmp	3e29 <.L52>

000035a2 <.L0_13>:
    35a2:	5b 48       	mov	(72,sp),d3
    35a4:	eb          	add	d2,d3
    35a5:	4e 48       	mov	d3,(72,sp)

000035a7 <.LVL110>:
    35a7:	4a 58       	mov	d2,(88,sp)

000035a9 <.Loc.381.1>:
    35a9:	95 00       	mov	0,a1
    35ab:	47 28       	mov	a1,(40,sp)

000035ad <.L53>:
    35ad:	5e a4       	mov	(164,sp),a2
    35af:	ba 09       	cmp	9,a2
    35b1:	c7 05       	bls	35b6 <.L0_14>
    35b3:	cc 4f 05    	jmp	3b02 <.L166>

000035b6 <.L0_14>:
    35b6:	8f 01       	mov	1,d3

000035b8 <.Loc.394.1>:
    35b8:	ba 05       	cmp	5,a2
    35ba:	c3 07       	ble	35c1 <.L55>

000035bc <.Loc.396.1>:
    35bc:	22 fc       	add	-4,a2

000035be <.LVL113>:
    35be:	4b a4       	mov	a2,(164,sp)

000035c0 <.LVL114>:
    35c0:	0c          	clr	d3

000035c1 <.L55>:
    35c1:	5a a4       	mov	(164,sp),d2
    35c3:	aa 03       	cmp	3,d2
    35c5:	c9 05       	bne	35ca <.L0_15>
    35c7:	cc 3d 0d    	jmp	4304 <.L169>

000035ca <.L0_15>:
    35ca:	c1 05       	bgt	35cf <.L0_16>
    35cc:	cc fa 08    	jmp	3ec6 <.L299>

000035cf <.L0_16>:
    35cf:	5d a4       	mov	(164,sp),a1
    35d1:	b5 04       	cmp	4,a1
    35d3:	c9 05       	bne	35d8 <.L0_17>
    35d5:	cc 49 0d    	jmp	431e <.L58>

000035d8 <.L0_17>:
    35d8:	b5 05       	cmp	5,a1
    35da:	c8 05       	beq	35df <.L0_18>
    35dc:	cc 2a 05    	jmp	3b06 <.L54>

000035df <.L0_18>:
    35df:	8a 01       	mov	1,d2
    35e1:	4a 54       	mov	d2,(84,sp)

000035e3 <.LVL116>:
    35e3:	5c a8       	mov	(168,sp),a0
    35e5:	5a 40       	mov	(64,sp),d2

000035e7 <.LVL117>:
    35e7:	f1 68       	add	d2,a0
    35e9:	43 64       	mov	a0,(100,sp)
    35eb:	f1 d2       	mov	a0,d2
    35ed:	48          	inc	d2

000035ee <.LVL118>:
    35ee:	4a 44       	mov	d2,(68,sp)
    35f0:	aa 00       	cmp	0,d2
    35f2:	c1 05       	bgt	35f7 <.L0_19>
    35f4:	cc e7 09    	jmp	3fdb <.L61>

000035f7 <.L0_19>:
    35f7:	04          	clr	d1
    35f8:	f8 17 44    	mov	d1,(68,a3)
    35fb:	aa 17       	cmp	23,d2
    35fd:	c7 15       	bls	3612 <.L64>
    35ff:	90 01       	mov	1,a0
    3601:	80 04       	mov	4,d0

00003603 <.L65>:
    3603:	f1 d1       	mov	a0,d1

00003605 <.Loc.428.1>:
    3605:	e0          	add	d0,d0

00003606 <.LVL121>:
    3606:	41          	inc	a0

00003607 <.Loc.427.1>:
    3607:	f1 e1       	mov	d0,a1
    3609:	21 14       	add	20,a1
    360b:	f1 a9       	cmp	d2,a1
    360d:	c7 f6       	bls	3603 <.L65>
    360f:	f8 17 44    	mov	d1,(68,a3)

00003612 <.L64>:
    3612:	f1 dc       	mov	a3,d0
    3614:	dd 02 22 00 	call	5816 <__Balloc>,[],0
    3618:	00 00 00 

0000361b <.LVL123>:
    361b:	43 20       	mov	a0,(32,sp)
    361d:	f8 33 40    	mov	a0,(64,a3)

00003620 <.LVL124>:
    3620:	aa 0e       	cmp	14,d2
    3622:	c7 05       	bls	3627 <.L0_20>
    3624:	cc 76 02    	jmp	389a <.L66>

00003627 <.L0_20>:
    3627:	af 00       	cmp	0,d3
    3629:	c9 05       	bne	362e <.L0_21>
    362b:	cc 6f 02    	jmp	389a <.L66>

0000362e <.L0_21>:
    362e:	5a 40       	mov	(64,sp),d2
    3630:	aa 00       	cmp	0,d2
    3632:	c1 05       	bgt	3637 <.L0_22>
    3634:	cc 44 0d    	jmp	4378 <.L67>

00003637 <.L0_22>:
    3637:	88          	mov	d2,d0
    3638:	f8 e0 0f    	and	15,d0
    363b:	54          	asl2	d0
    363c:	e0          	add	d0,d0
    363d:	fc c0 88 97 	add	38792,d0
    3641:	00 00 
    3643:	f1 e1       	mov	d0,a1
    3645:	f0 01       	mov	(a1),a0

00003647 <.LVL126>:
    3647:	f8 0d 04    	mov	(4,a1),d3

0000364a <.LVL127>:
    364a:	f8 ca 04    	asr	4,d2

0000364d <.LVL128>:
    364d:	88          	mov	d2,d0
    364e:	f8 e0 10    	and	16,d0
    3651:	c9 05       	bne	3656 <.L0_23>
    3653:	cc e3 0c    	jmp	4336 <.L172>

00003656 <.L0_23>:
    3656:	f8 e2 0f    	and	15,d2

00003659 <.Loc.450.1>:
    3659:	fc a4 80 97 	mov	(9780 <___mprec_bigtens+0x20>),d0
    365d:	00 00 
    365f:	42 0c       	mov	d0,(12,sp)
    3661:	fc a4 84 97 	mov	(9784 <___mprec_bigtens+0x24>),d0
    3665:	00 00 
    3667:	42 10       	mov	d0,(16,sp)
    3669:	58 34       	mov	(52,sp),d0
    366b:	59 24       	mov	(36,sp),d1
    366d:	43 1c       	mov	a0,(28,sp)
    366f:	dd 3a 55 00 	call	8ba9 <___divdf3>,[],0
    3673:	00 00 00 

00003676 <.LVL130>:
    3676:	42 38       	mov	d0,(56,sp)
    3678:	46 60       	mov	d1,(96,sp)

0000367a <.LVL131>:
    367a:	95 03       	mov	3,a1
    367c:	5c 1c       	mov	(28,sp),a0

0000367e <.L68>:
    367e:	aa 00       	cmp	0,d2
    3680:	c8 36       	beq	36b6 <.L69>
    3682:	fc de 60 97 	mov	38752,a2
    3686:	00 00 
    3688:	f1 d0       	mov	a0,d0
    368a:	8d          	mov	d3,d1
    368b:	47 2c       	mov	a1,(44,sp)

0000368d <.L71>:
    368d:	8b          	mov	d2,d3
    368e:	f8 e3 01    	and	1,d3
    3691:	c8 17       	beq	36a8 <.L70>

00003693 <.Loc.456.1>:
    3693:	5c 2c       	mov	(44,sp),a0
    3695:	41          	inc	a0
    3696:	43 2c       	mov	a0,(44,sp)

00003698 <.LVL134>:
    3698:	f0 02       	mov	(a2),a0

0000369a <.LVL135>:
    369a:	43 0c       	mov	a0,(12,sp)
    369c:	f8 22 04    	mov	(4,a2),a0
    369f:	43 10       	mov	a0,(16,sp)
    36a1:	dd d7 52 00 	call	8978 <___muldf3>,[],0
    36a5:	00 00 00 

000036a8 <.L70>:
    36a8:	f8 ca 01    	asr	1,d2
    36ab:	22 08       	add	8,a2
    36ad:	aa 00       	cmp	0,d2
    36af:	c9 de       	bne	368d <.L71>
    36b1:	5d 2c       	mov	(44,sp),a1
    36b3:	f1 e0       	mov	d0,a0
    36b5:	87          	mov	d1,d3

000036b6 <.L69>:
    36b6:	43 0c       	mov	a0,(12,sp)
    36b8:	4e 10       	mov	d3,(16,sp)
    36ba:	58 38       	mov	(56,sp),d0
    36bc:	59 60       	mov	(96,sp),d1
    36be:	47 18       	mov	a1,(24,sp)
    36c0:	dd e9 54 00 	call	8ba9 <___divdf3>,[],0
    36c4:	00 00 00 

000036c7 <.LVL139>:
    36c7:	83          	mov	d0,d3
    36c8:	f1 e6       	mov	d1,a2
    36ca:	5d 18       	mov	(24,sp),a1

000036cc <.L72>:
    36cc:	5a 5c       	mov	(92,sp),d2
    36ce:	aa 00       	cmp	0,d2
    36d0:	c8 21       	beq	36f1 <.L0_24>

000036d2 <.Loc.471.1>:
    36d2:	08          	clr	d2
    36d3:	4a 0c       	mov	d2,(12,sp)
    36d5:	fc cc 00 00 	mov	1072693248,d0
    36d9:	f0 3f 
    36db:	42 10       	mov	d0,(16,sp)
    36dd:	8c          	mov	d3,d0
    36de:	f1 d9       	mov	a2,d1
    36e0:	47 18       	mov	a1,(24,sp)
    36e2:	dd 92 57 00 	call	8e74 <___ltdf2>,[],0
    36e6:	00 00 00 

000036e9 <.LVL141>:
    36e9:	5d 18       	mov	(24,sp),a1

000036eb <.LVL142>:
    36eb:	a8          	cmp	d2,d0
    36ec:	c2 05       	bge	36f1 <.L0_24>
    36ee:	cc 75 09    	jmp	4063 <.L300>

000036f1 <.L0_24>:
    36f1:	f1 d4       	mov	a1,d0
    36f3:	dd d6 57 00 	call	8ec9 <___floatsidf>,[],0
    36f7:	00 00 00 

000036fa <.LVL143>:
    36fa:	4e 0c       	mov	d3,(12,sp)
    36fc:	4b 10       	mov	a2,(16,sp)
    36fe:	dd 7a 52 00 	call	8978 <___muldf3>,[],0
    3702:	00 00 00 
    3705:	90 00       	mov	0,a0
    3707:	43 0c       	mov	a0,(12,sp)
    3709:	fc dc 00 00 	mov	1075576832,a0
    370d:	1c 40 
    370f:	43 10       	mov	a0,(16,sp)
    3711:	dd bf 51 00 	call	88d0 <___adddf3>,[],0
    3715:	00 00 00 
    3718:	82          	mov	d0,d2

00003719 <.Loc.481.1>:
    3719:	fc c1 00 00 	add	-54525952,d1
    371d:	c0 fc 
    371f:	46 38       	mov	d1,(56,sp)

00003721 <.Loc.482.1>:
    3721:	5d 44       	mov	(68,sp),a1
    3723:	b5 00       	cmp	0,a1
    3725:	c9 05       	bne	372a <.L0_25>
    3727:	cc 58 0a    	jmp	417f <.L159>

0000372a <.L0_25>:
    372a:	5d 40       	mov	(64,sp),a1
    372c:	47 78       	mov	a1,(120,sp)
    372e:	5d 44       	mov	(68,sp),a1
    3730:	47 68       	mov	a1,(104,sp)

00003732 <.L79>:
    3732:	5d 54       	mov	(84,sp),a1

00003734 <.LVL147>:
    3734:	58 68       	mov	(104,sp),d0
    3736:	54          	asl2	d0
    3737:	e0          	add	d0,d0
    3738:	f1 e0       	mov	d0,a0
    373a:	fc d0 80 97 	add	38784,a0
    373e:	00 00 

00003740 <.Loc.493.1>:
    3740:	b5 00       	cmp	0,a1
    3742:	c9 05       	bne	3747 <.L0_26>
    3744:	cc 38 0d    	jmp	447c <.L82>

00003747 <.L0_26>:
    3747:	74          	mov	(a0),d1
    3748:	f8 00 04    	mov	(4,a0),d0
    374b:	46 0c       	mov	d1,(12,sp)
    374d:	42 10       	mov	d0,(16,sp)
    374f:	00          	clr	d0
    3750:	fc cd 00 00 	mov	1071644672,d1
    3754:	e0 3f 
    3756:	dd 53 54 00 	call	8ba9 <___divdf3>,[],0
    375a:	00 00 00 
    375d:	4a 0c       	mov	d2,(12,sp)
    375f:	5a 38       	mov	(56,sp),d2
    3761:	4a 10       	mov	d2,(16,sp)
    3763:	dd bd 51 00 	call	8920 <___subdf3>,[],0
    3767:	00 00 00 
    376a:	42 6c       	mov	d0,(108,sp)
    376c:	46 70       	mov	d1,(112,sp)

0000376e <.LVL150>:
    376e:	8c          	mov	d3,d0
    376f:	f1 d9       	mov	a2,d1
    3771:	dd 19 58 00 	call	8f8a <___fixdfsi>,[],0
    3775:	00 00 00 
    3778:	f1 e0       	mov	d0,a0

0000377a <.LVL152>:
    377a:	43 1c       	mov	a0,(28,sp)
    377c:	dd 4d 57 00 	call	8ec9 <___floatsidf>,[],0
    3780:	00 00 00 

00003783 <.LVL153>:
    3783:	42 0c       	mov	d0,(12,sp)
    3785:	46 10       	mov	d1,(16,sp)
    3787:	8c          	mov	d3,d0
    3788:	f1 d9       	mov	a2,d1
    378a:	dd 96 51 00 	call	8920 <___subdf3>,[],0
    378e:	00 00 00 
    3791:	82          	mov	d0,d2
    3792:	87          	mov	d1,d3

00003793 <.Loc.503.1>:
    3793:	5c 1c       	mov	(28,sp),a0

00003795 <.LVL155>:
    3795:	f1 d0       	mov	a0,d0
    3797:	28 30       	add	48,d0
    3799:	f1 e2       	mov	d0,a2
    379b:	5d 20       	mov	(32,sp),a1
    379d:	f0 51       	movbu	d0,(a1)
    379f:	45          	inc	a1
    37a0:	47 38       	mov	a1,(56,sp)

000037a2 <.LVL156>:
    37a2:	4a 0c       	mov	d2,(12,sp)
    37a4:	46 10       	mov	d1,(16,sp)
    37a6:	58 6c       	mov	(108,sp),d0
    37a8:	59 70       	mov	(112,sp),d1
    37aa:	dd 20 56 00 	call	8dca <___gtdf2>,[],0
    37ae:	00 00 00 

000037b1 <.LVL157>:
    37b1:	a0 00       	cmp	0,d0
    37b3:	c3 05       	ble	37b8 <.L0_27>
    37b5:	cc bd 0e    	jmp	4672 <.L178>

000037b8 <.L0_27>:
    37b8:	4a 0c       	mov	d2,(12,sp)
    37ba:	4e 10       	mov	d3,(16,sp)
    37bc:	00          	clr	d0
    37bd:	fc cd 00 00 	mov	1072693248,d1
    37c1:	f0 3f 
    37c3:	dd 5d 51 00 	call	8920 <___subdf3>,[],0
    37c7:	00 00 00 
    37ca:	42 0c       	mov	d0,(12,sp)
    37cc:	46 10       	mov	d1,(16,sp)
    37ce:	58 6c       	mov	(108,sp),d0
    37d0:	59 70       	mov	(112,sp),d1
    37d2:	dd f8 55 00 	call	8dca <___gtdf2>,[],0
    37d6:	00 00 00 
    37d9:	a0 00       	cmp	0,d0
    37db:	c3 05       	ble	37e0 <.L0_28>
    37dd:	cc 24 0e    	jmp	4601 <.L291>

000037e0 <.L0_28>:
    37e0:	58 68       	mov	(104,sp),d0
    37e2:	a0 01       	cmp	1,d0
    37e4:	c1 05       	bgt	37e9 <.L0_29>
    37e6:	cc b4 00    	jmp	389a <.L66>

000037e9 <.L0_29>:
    37e9:	5d 20       	mov	(32,sp),a1
    37eb:	f1 61       	add	d0,a1
    37ed:	47 60       	mov	a1,(96,sp)
    37ef:	4f 74       	mov	a3,(116,sp)
    37f1:	5e 6c       	mov	(108,sp),a2
    37f3:	5f 70       	mov	(112,sp),a3

000037f5 <.L85>:
    37f5:	95 00       	mov	0,a1
    37f7:	47 0c       	mov	a1,(12,sp)
    37f9:	fc cc 00 00 	mov	1076101120,d0
    37fd:	24 40 
    37ff:	42 10       	mov	d0,(16,sp)
    3801:	f1 d8       	mov	a2,d0
    3803:	f1 dd       	mov	a3,d1
    3805:	dd 73 51 00 	call	8978 <___muldf3>,[],0
    3809:	00 00 00 
    380c:	f1 e2       	mov	d0,a2
    380e:	f1 e7       	mov	d1,a3

00003810 <.Loc.511.1>:
    3810:	04          	clr	d1
    3811:	46 0c       	mov	d1,(12,sp)
    3813:	fc dc 00 00 	mov	1076101120,a0
    3817:	24 40 
    3819:	43 10       	mov	a0,(16,sp)
    381b:	88          	mov	d2,d0
    381c:	8d          	mov	d3,d1
    381d:	dd 5b 51 00 	call	8978 <___muldf3>,[],0
    3821:	00 00 00 
    3824:	83          	mov	d0,d3
    3825:	86          	mov	d1,d2

00003826 <.Loc.501.1>:
    3826:	dd 64 57 00 	call	8f8a <___fixdfsi>,[],0
    382a:	00 00 00 
    382d:	f1 e0       	mov	d0,a0

0000382f <.LVL165>:
    382f:	43 1c       	mov	a0,(28,sp)
    3831:	dd 98 56 00 	call	8ec9 <___floatsidf>,[],0
    3835:	00 00 00 

00003838 <.LVL166>:
    3838:	42 0c       	mov	d0,(12,sp)
    383a:	46 10       	mov	d1,(16,sp)
    383c:	8c          	mov	d3,d0
    383d:	89          	mov	d2,d1
    383e:	dd e2 50 00 	call	8920 <___subdf3>,[],0
    3842:	00 00 00 
    3845:	82          	mov	d0,d2
    3846:	87          	mov	d1,d3

00003847 <.Loc.503.1>:
    3847:	5c 1c       	mov	(28,sp),a0

00003849 <.LVL168>:
    3849:	f1 d0       	mov	a0,d0
    384b:	28 30       	add	48,d0
    384d:	f8 92 68    	movbu	d0,(104,sp)
    3850:	5d 38       	mov	(56,sp),a1
    3852:	f0 51       	movbu	d0,(a1)
    3854:	45          	inc	a1
    3855:	47 38       	mov	a1,(56,sp)

00003857 <.LVL169>:
    3857:	4b 0c       	mov	a2,(12,sp)
    3859:	4f 10       	mov	a3,(16,sp)
    385b:	88          	mov	d2,d0
    385c:	dd 18 56 00 	call	8e74 <___ltdf2>,[],0
    3860:	00 00 00 

00003863 <.LVL170>:
    3863:	a0 00       	cmp	0,d0
    3865:	c2 05       	bge	386a <.L0_30>
    3867:	cc a8 0d    	jmp	460f <.L301>

0000386a <.L0_30>:
    386a:	4a 0c       	mov	d2,(12,sp)
    386c:	4e 10       	mov	d3,(16,sp)
    386e:	00          	clr	d0
    386f:	fc cd 00 00 	mov	1072693248,d1
    3873:	f0 3f 
    3875:	dd ab 50 00 	call	8920 <___subdf3>,[],0
    3879:	00 00 00 
    387c:	4b 0c       	mov	a2,(12,sp)
    387e:	4f 10       	mov	a3,(16,sp)
    3880:	dd f4 55 00 	call	8e74 <___ltdf2>,[],0
    3884:	00 00 00 
    3887:	a0 00       	cmp	0,d0
    3889:	c2 05       	bge	388e <.L0_31>
    388b:	cc 6f 0d    	jmp	45fa <.L180>

0000388e <.L0_31>:
    388e:	5d 38       	mov	(56,sp),a1
    3890:	5c 60       	mov	(96,sp),a0
    3892:	b1          	cmp	a0,a1
    3893:	c8 05       	beq	3898 <.L0_32>
    3895:	cc 60 ff    	jmp	37f5 <.L85>

00003898 <.L0_32>:
    3898:	5f 74       	mov	(116,sp),a3

0000389a <.L66>:
    389a:	58 80       	mov	(128,sp),d0
    389c:	a0 00       	cmp	0,d0
    389e:	c2 05       	bge	38a3 <.L0_33>
    38a0:	cc 88 02    	jmp	3b28 <.L94>

000038a3 <.L0_33>:
    38a3:	5a 40       	mov	(64,sp),d2
    38a5:	aa 0e       	cmp	14,d2
    38a7:	c3 05       	ble	38ac <.L0_34>
    38a9:	cc 7f 02    	jmp	3b28 <.L94>

000038ac <.L0_34>:
    38ac:	56          	asl2	d2
    38ad:	ea          	add	d2,d2
    38ae:	f1 e8       	mov	d2,a0
    38b0:	fc d0 88 97 	add	38792,a0
    38b4:	00 00 
    38b6:	7c          	mov	(a0),d3
    38b7:	4e 2c       	mov	d3,(44,sp)
    38b9:	f8 20 04    	mov	(4,a0),a0
    38bc:	43 28       	mov	a0,(40,sp)

000038be <.LVL174>:
    38be:	5c a8       	mov	(168,sp),a0

000038c0 <.LVL175>:
    38c0:	b0 00       	cmp	0,a0
    38c2:	c2 05       	bge	38c7 <.L0_35>
    38c4:	cc 1e 07    	jmp	3fe2 <.L95>

000038c7 <.L0_35>:
    38c7:	5d 2c       	mov	(44,sp),a1
    38c9:	47 0c       	mov	a1,(12,sp)
    38cb:	5e 28       	mov	(40,sp),a2
    38cd:	4b 10       	mov	a2,(16,sp)
    38cf:	58 34       	mov	(52,sp),d0
    38d1:	59 24       	mov	(36,sp),d1
    38d3:	dd d6 52 00 	call	8ba9 <___divdf3>,[],0
    38d7:	00 00 00 
    38da:	dd b0 56 00 	call	8f8a <___fixdfsi>,[],0
    38de:	00 00 00 
    38e1:	f1 e1       	mov	d0,a1

000038e3 <.LVL179>:
    38e3:	47 18       	mov	a1,(24,sp)
    38e5:	dd e4 55 00 	call	8ec9 <___floatsidf>,[],0
    38e9:	00 00 00 

000038ec <.LVL180>:
    38ec:	5a 2c       	mov	(44,sp),d2
    38ee:	4a 0c       	mov	d2,(12,sp)
    38f0:	4b 10       	mov	a2,(16,sp)
    38f2:	dd 86 50 00 	call	8978 <___muldf3>,[],0
    38f6:	00 00 00 
    38f9:	42 0c       	mov	d0,(12,sp)
    38fb:	46 10       	mov	d1,(16,sp)
    38fd:	58 34       	mov	(52,sp),d0
    38ff:	59 24       	mov	(36,sp),d1
    3901:	dd 1f 50 00 	call	8920 <___subdf3>,[],0
    3905:	00 00 00 
    3908:	f2 f2       	mov	d0,mdr
    390a:	f1 e4       	mov	d1,a0

0000390c <.Loc.572.1>:
    390c:	5d 18       	mov	(24,sp),a1

0000390e <.LVL183>:
    390e:	f1 d6       	mov	a1,d2
    3910:	2a 30       	add	48,d2
    3912:	5e 20       	mov	(32,sp),a2
    3914:	f0 5a       	movbu	d2,(a2)
    3916:	49          	inc	a2
    3917:	4b 38       	mov	a2,(56,sp)

00003919 <.LVL184>:
    3919:	5a 44       	mov	(68,sp),d2
    391b:	aa 01       	cmp	1,d2
    391d:	c9 05       	bne	3922 <.L0_36>
    391f:	cc 6c 09    	jmp	428b <.L96>

00003922 <.L0_36>:
    3922:	90 00       	mov	0,a0
    3924:	fc dd 00 00 	mov	1076101120,a1
    3928:	24 40 

0000392a <.LVL185>:
    392a:	43 0c       	mov	a0,(12,sp)
    392c:	47 10       	mov	a1,(16,sp)
    392e:	43 1c       	mov	a0,(28,sp)
    3930:	47 18       	mov	a1,(24,sp)
    3932:	dd 46 50 00 	call	8978 <___muldf3>,[],0
    3936:	00 00 00 
    3939:	82          	mov	d0,d2
    393a:	87          	mov	d1,d3
    393b:	5c 1c       	mov	(28,sp),a0
    393d:	43 0c       	mov	a0,(12,sp)
    393f:	43 10       	mov	a0,(16,sp)
    3941:	dd df 53 00 	call	8d20 <___eqdf2>,[],0
    3945:	00 00 00 
    3948:	a0 00       	cmp	0,d0
    394a:	c9 05       	bne	394f <.L0_37>
    394c:	cc 88 00    	jmp	39d4 <.L83>

0000394f <.L0_37>:
    394f:	5e 20       	mov	(32,sp),a2

00003951 <.LVL188>:
    3951:	22 02       	add	2,a2
    3953:	58 20       	mov	(32,sp),d0
    3955:	59 44       	mov	(68,sp),d1
    3957:	e4          	add	d1,d0
    3958:	42 34       	mov	d0,(52,sp)
    395a:	4f 24       	mov	a3,(36,sp)

0000395c <.L99>:
    395c:	5c 2c       	mov	(44,sp),a0
    395e:	43 0c       	mov	a0,(12,sp)
    3960:	5d 28       	mov	(40,sp),a1
    3962:	47 10       	mov	a1,(16,sp)
    3964:	88          	mov	d2,d0
    3965:	8d          	mov	d3,d1
    3966:	dd 43 52 00 	call	8ba9 <___divdf3>,[],0
    396a:	00 00 00 
    396d:	dd 1d 56 00 	call	8f8a <___fixdfsi>,[],0
    3971:	00 00 00 
    3974:	f1 e3       	mov	d0,a3

00003976 <.LVL192>:
    3976:	dd 53 55 00 	call	8ec9 <___floatsidf>,[],0
    397a:	00 00 00 

0000397d <.LVL193>:
    397d:	5c 2c       	mov	(44,sp),a0
    397f:	43 0c       	mov	a0,(12,sp)
    3981:	5d 28       	mov	(40,sp),a1
    3983:	47 10       	mov	a1,(16,sp)
    3985:	dd f3 4f 00 	call	8978 <___muldf3>,[],0
    3989:	00 00 00 
    398c:	42 0c       	mov	d0,(12,sp)
    398e:	46 10       	mov	d1,(16,sp)
    3990:	88          	mov	d2,d0
    3991:	8d          	mov	d3,d1
    3992:	dd 8e 4f 00 	call	8920 <___subdf3>,[],0
    3996:	00 00 00 

00003999 <.Loc.206.2>:
    3999:	4b 38       	mov	a2,(56,sp)

0000399b <.Loc.572.1>:
    399b:	f1 de       	mov	a3,d2
    399d:	2a 30       	add	48,d2
    399f:	f8 5a ff    	movbu	d2,(-1,a2)

000039a2 <.LVL196>:
    39a2:	5a 34       	mov	(52,sp),d2
    39a4:	f1 aa       	cmp	d2,a2
    39a6:	c9 05       	bne	39ab <.L0_38>
    39a8:	cc dc 08    	jmp	4284 <.L302>

000039ab <.L0_38>:
    39ab:	90 00       	mov	0,a0
    39ad:	43 0c       	mov	a0,(12,sp)
    39af:	fc dd 00 00 	mov	1076101120,a1
    39b3:	24 40 
    39b5:	47 10       	mov	a1,(16,sp)
    39b7:	dd c1 4f 00 	call	8978 <___muldf3>,[],0
    39bb:	00 00 00 
    39be:	82          	mov	d0,d2
    39bf:	87          	mov	d1,d3
    39c0:	49          	inc	a2

000039c1 <.LVL198>:
    39c1:	00          	clr	d0
    39c2:	42 0c       	mov	d0,(12,sp)
    39c4:	42 10       	mov	d0,(16,sp)
    39c6:	88          	mov	d2,d0
    39c7:	dd 59 53 00 	call	8d20 <___eqdf2>,[],0
    39cb:	00 00 00 
    39ce:	a0 00       	cmp	0,d0
    39d0:	c9 8c       	bne	395c <.L99>
    39d2:	5f 24       	mov	(36,sp),a3

000039d4 <.L83>:
    39d4:	f1 dc       	mov	a3,d0
    39d6:	59 30       	mov	(48,sp),d1
    39d8:	dd ac 1e 00 	call	5884 <__Bfree>,[],0
    39dc:	00 00 00 

000039df <.LVL201>:
    39df:	00          	clr	d0
    39e0:	5d 38       	mov	(56,sp),a1
    39e2:	f0 51       	movbu	d0,(a1)

000039e4 <.Loc.858.1>:
    39e4:	58 40       	mov	(64,sp),d0
    39e6:	40          	inc	d0
    39e7:	5e ac       	mov	(172,sp),a2
    39e9:	62          	mov	d0,(a2)

000039ea <.Loc.859.1>:
    39ea:	5d b4       	mov	(180,sp),a1
    39ec:	b5 00       	cmp	0,a1
    39ee:	c9 05       	bne	39f3 <.L0_39>
    39f0:	cc 13 fa    	jmp	3403 <.L228>

000039f3 <.L0_39>:
    39f3:	5e 38       	mov	(56,sp),a2
    39f5:	f0 19       	mov	a2,(a1)

000039f7 <.Loc.862.1>:
    39f7:	5c 20       	mov	(32,sp),a0
    39f9:	f1 d0       	mov	a0,d0
    39fb:	df f0 94    	ret	[d2,d3,a2,a3],148

000039fe <.L160>:
    39fe:	fc de 29 97 	mov	38697,a2
    3a02:	00 00 
    3a04:	4b 20       	mov	a2,(32,sp)
    3a06:	cc 26 fa    	jmp	342c <.L36>

00003a09 <.L296>:
    3a09:	58 34       	mov	(52,sp),d0

00003a0b <.Loc.299.1>:
    3a0b:	59 24       	mov	(36,sp),d1

00003a0d <.LVL204>:
    3a0d:	fc e1 ff ff 	and	1048575,d1
    3a11:	0f 00 

00003a13 <.Loc.300.1>:
    3a13:	fc e5 00 00 	or	1072693248,d1
    3a17:	f0 3f 

00003a19 <.Loc.328.1>:
    3a19:	fa d2 01 fc 	add	-1023,a2

00003a1d <.LVL205>:
    3a1d:	5a 7c       	mov	(124,sp),d2
    3a1f:	4a 20       	mov	d2,(32,sp)

00003a21 <.Loc.334.1>:
    3a21:	4e 4c       	mov	d3,(76,sp)

00003a23 <.LVL206>:
    3a23:	95 00       	mov	0,a1
    3a25:	47 0c       	mov	a1,(12,sp)
    3a27:	fc dc 00 00 	mov	1073217536,a0
    3a2b:	f8 3f 

00003a2d <.LVL207>:
    3a2d:	43 10       	mov	a0,(16,sp)
    3a2f:	47 18       	mov	a1,(24,sp)
    3a31:	dd ef 4e 00 	call	8920 <___subdf3>,[],0
    3a35:	00 00 00 
    3a38:	fc dc 61 43 	mov	1668236129,a0
    3a3c:	6f 63 
    3a3e:	43 0c       	mov	a0,(12,sp)
    3a40:	fc dc a7 87 	mov	1070761895,a0
    3a44:	d2 3f 
    3a46:	43 10       	mov	a0,(16,sp)
    3a48:	dd 30 4f 00 	call	8978 <___muldf3>,[],0
    3a4c:	00 00 00 
    3a4f:	fc dc b3 c8 	mov	-1956591437,a0
    3a53:	60 8b 
    3a55:	43 0c       	mov	a0,(12,sp)
    3a57:	fc dc 28 8a 	mov	1069976104,a0
    3a5b:	c6 3f 
    3a5d:	43 10       	mov	a0,(16,sp)
    3a5f:	dd 71 4e 00 	call	88d0 <___adddf3>,[],0
    3a63:	00 00 00 
    3a66:	83          	mov	d0,d3
    3a67:	86          	mov	d1,d2
    3a68:	f1 d8       	mov	a2,d0
    3a6a:	dd 5f 54 00 	call	8ec9 <___floatsidf>,[],0
    3a6e:	00 00 00 
    3a71:	fc dc fb 79 	mov	1352628731,a0
    3a75:	9f 50 
    3a77:	43 0c       	mov	a0,(12,sp)
    3a79:	fc dc 13 44 	mov	1070810131,a0
    3a7d:	d3 3f 
    3a7f:	43 10       	mov	a0,(16,sp)
    3a81:	dd f7 4e 00 	call	8978 <___muldf3>,[],0
    3a85:	00 00 00 
    3a88:	42 0c       	mov	d0,(12,sp)
    3a8a:	46 10       	mov	d1,(16,sp)
    3a8c:	8c          	mov	d3,d0
    3a8d:	89          	mov	d2,d1
    3a8e:	dd 42 4e 00 	call	88d0 <___adddf3>,[],0
    3a92:	00 00 00 
    3a95:	83          	mov	d0,d3
    3a96:	86          	mov	d1,d2

00003a97 <.LVL214>:
    3a97:	dd f3 54 00 	call	8f8a <___fixdfsi>,[],0
    3a9b:	00 00 00 

00003a9e <.LVL215>:
    3a9e:	42 40       	mov	d0,(64,sp)

00003aa0 <.LVL216>:
    3aa0:	5d 18       	mov	(24,sp),a1
    3aa2:	47 0c       	mov	a1,(12,sp)
    3aa4:	47 10       	mov	a1,(16,sp)
    3aa6:	8c          	mov	d3,d0

00003aa7 <.LVL217>:
    3aa7:	89          	mov	d2,d1
    3aa8:	dd cc 53 00 	call	8e74 <___ltdf2>,[],0
    3aac:	00 00 00 
    3aaf:	a0 00       	cmp	0,d0
    3ab1:	c0 05       	blt	3ab6 <.L0_40>
    3ab3:	cc 9e fa    	jmp	3551 <.L0_9>

00003ab6 <.L0_40>:
    3ab6:	ca 11       	bra	3ac7 <.L297>

00003ab8 <.L162>:
    3ab8:	fc dd 97 95 	mov	38295,a1
    3abc:	00 00 
    3abe:	47 20       	mov	a1,(32,sp)

00003ac0 <.Loc.862.1>:
    3ac0:	5c 20       	mov	(32,sp),a0
    3ac2:	f1 d0       	mov	a0,d0
    3ac4:	df f0 94    	ret	[d2,d3,a2,a3],148

00003ac7 <.L297>:
    3ac7:	58 40       	mov	(64,sp),d0
    3ac9:	dd 00 54 00 	call	8ec9 <___floatsidf>,[],0
    3acd:	00 00 00 
    3ad0:	4e 0c       	mov	d3,(12,sp)
    3ad2:	4a 10       	mov	d2,(16,sp)
    3ad4:	dd a1 52 00 	call	8d75 <___nedf2>,[],0
    3ad8:	00 00 00 
    3adb:	a0 00       	cmp	0,d0
    3add:	c9 05       	bne	3ae2 <.L0_41>
    3adf:	cc 72 fa    	jmp	3551 <.L0_9>

00003ae2 <.L0_41>:
    3ae2:	5a 40       	mov	(64,sp),d2
    3ae4:	2a ff       	add	-1,d2
    3ae6:	4a 40       	mov	d2,(64,sp)

00003ae8 <.LVL223>:
    3ae8:	5b 40       	mov	(64,sp),d3
    3aea:	af 16       	cmp	22,d3
    3aec:	c5 05       	bhi	3af1 <.L0_42>
    3aee:	cc 6c fa    	jmp	355a <.L0_10>

00003af1 <.L0_42>:
    3af1:	95 01       	mov	1,a1
    3af3:	47 5c       	mov	a1,(92,sp)
    3af5:	cc 92 fa    	jmp	3587 <.L49>

00003af8 <.L38>:
    3af8:	58 20       	mov	(32,sp),d0
    3afa:	28 03       	add	3,d0

00003afc <.Loc.271.1>:
    3afc:	5e b4       	mov	(180,sp),a2
    3afe:	62          	mov	d0,(a2)
    3aff:	cc 46 f9    	jmp	3445 <.L304>

00003b02 <.L166>:
    3b02:	9a 00       	mov	0,a2
    3b04:	4b a4       	mov	a2,(164,sp)

00003b06 <.L54>:
    3b06:	08          	clr	d2
    3b07:	f8 1b 44    	mov	d2,(68,a3)

00003b0a <.Loc.430.1>:
    3b0a:	f1 dc       	mov	a3,d0
    3b0c:	89          	mov	d2,d1
    3b0d:	dd 09 1d 00 	call	5816 <__Balloc>,[],0
    3b11:	00 00 00 

00003b14 <.LVL228>:
    3b14:	43 20       	mov	a0,(32,sp)
    3b16:	f8 33 40    	mov	a0,(64,a3)

00003b19 <.LVL229>:
    3b19:	8f ff       	mov	-1,d3
    3b1b:	4e 44       	mov	d3,(68,sp)
    3b1d:	4e 64       	mov	d3,(100,sp)
    3b1f:	4a a8       	mov	d2,(168,sp)
    3b21:	95 01       	mov	1,a1
    3b23:	47 54       	mov	a1,(84,sp)
    3b25:	cc 75 fd    	jmp	389a <.L66>

00003b28 <.L94>:
    3b28:	5b 54       	mov	(84,sp),d3
    3b2a:	af 00       	cmp	0,d3
    3b2c:	c9 05       	bne	3b31 <.L0_43>
    3b2e:	cc 1b 03    	jmp	3e49 <.L185>

00003b31 <.L0_43>:
    3b31:	5d a4       	mov	(164,sp),a1
    3b33:	b5 01       	cmp	1,a1
    3b35:	c1 05       	bgt	3b3a <.L0_44>
    3b37:	cc ff 04    	jmp	4036 <.L305>

00003b3a <.L0_44>:
    3b3a:	58 44       	mov	(68,sp),d0
    3b3c:	28 ff       	add	-1,d0

00003b3e <.LVL231>:
    3b3e:	5a 28       	mov	(40,sp),d2
    3b40:	a2          	cmp	d0,d2
    3b41:	c2 05       	bge	3b46 <.L0_45>
    3b43:	cc e2 07    	jmp	4325 <.L112>

00003b46 <.L0_45>:
    3b46:	8b          	mov	d2,d3
    3b47:	f1 03       	sub	d0,d3

00003b49 <.L113>:
    3b49:	5e 44       	mov	(68,sp),a2

00003b4b <.Loc.626.1>:
    3b4b:	5a 50       	mov	(80,sp),d2

00003b4d <.Loc.624.1>:
    3b4d:	ba 00       	cmp	0,a2
    3b4f:	c2 05       	bge	3b54 <.L0_46>
    3b51:	cc 16 0a    	jmp	4567 <.L306>

00003b54 <.L0_46>:
    3b54:	58 44       	mov	(68,sp),d0

00003b56 <.LVL233>:
    3b56:	5d 50       	mov	(80,sp),a1
    3b58:	f1 61       	add	d0,a1
    3b5a:	47 50       	mov	a1,(80,sp)

00003b5c <.LVL234>:
    3b5c:	5e 48       	mov	(72,sp),a2
    3b5e:	f1 62       	add	d0,a2
    3b60:	4b 48       	mov	a2,(72,sp)

00003b62 <.LVL235>:
    3b62:	f1 dc       	mov	a3,d0
    3b64:	85 01       	mov	1,d1
    3b66:	dd 3d 1f 00 	call	5aa3 <___i2b>,[],0
    3b6a:	00 00 00 

00003b6d <.LVL236>:
    3b6d:	43 4c       	mov	a0,(76,sp)

00003b6f <.L108>:
    3b6f:	aa 00       	cmp	0,d2
    3b71:	c8 1f       	beq	3b90 <.L114>

00003b73 <.Loc.634.1>:
    3b73:	5e 48       	mov	(72,sp),a2
    3b75:	ba 00       	cmp	0,a2
    3b77:	c3 19       	ble	3b90 <.L114>

00003b79 <.Loc.636.1>:
    3b79:	f1 d8       	mov	a2,d0
    3b7b:	f1 aa       	cmp	d2,a2
    3b7d:	c3 05       	ble	3b82 <.L0_47>
    3b7f:	cc 42 04    	jmp	3fc1 <.L307>

00003b82 <.L0_47>:
    3b82:	5d 50       	mov	(80,sp),a1
    3b84:	f1 21       	sub	d0,a1
    3b86:	47 50       	mov	a1,(80,sp)

00003b88 <.LVL239>:
    3b88:	f1 02       	sub	d0,d2

00003b8a <.Loc.639.1>:
    3b8a:	5e 48       	mov	(72,sp),a2
    3b8c:	f1 22       	sub	d0,a2
    3b8e:	4b 48       	mov	a2,(72,sp)

00003b90 <.L114>:
    3b90:	5d 28       	mov	(40,sp),a1
    3b92:	b5 00       	cmp	0,a1
    3b94:	c3 44       	ble	3bd8 <.L0_49>

00003b96 <.Loc.643.1>:
    3b96:	5e 54       	mov	(84,sp),a2
    3b98:	ba 00       	cmp	0,a2
    3b9a:	c9 05       	bne	3b9f <.L0_48>
    3b9c:	cc 42 07    	jmp	42de <.L117>

00003b9f <.L0_48>:
    3b9f:	af 00       	cmp	0,d3
    3ba1:	c3 2e       	ble	3bcf <.L118>

00003ba3 <.Loc.647.1>:
    3ba3:	4e 0c       	mov	d3,(12,sp)
    3ba5:	f1 dc       	mov	a3,d0
    3ba7:	59 4c       	mov	(76,sp),d1
    3ba9:	dd 56 20 00 	call	5bff <___pow5mult>,[],0
    3bad:	00 00 00 

00003bb0 <.LVL242>:
    3bb0:	43 4c       	mov	a0,(76,sp)

00003bb2 <.LVL243>:
    3bb2:	5d 30       	mov	(48,sp),a1
    3bb4:	47 0c       	mov	a1,(12,sp)
    3bb6:	f1 dc       	mov	a3,d0
    3bb8:	f1 d1       	mov	a0,d1
    3bba:	dd 03 1f 00 	call	5abd <___multiply>,[],0
    3bbe:	00 00 00 

00003bc1 <.LVL244>:
    3bc1:	92          	mov	a0,a2

00003bc2 <.LVL245>:
    3bc2:	f1 dc       	mov	a3,d0
    3bc4:	59 30       	mov	(48,sp),d1
    3bc6:	dd be 1c 00 	call	5884 <__Bfree>,[],0
    3bca:	00 00 00 

00003bcd <.LVL246>:
    3bcd:	4b 30       	mov	a2,(48,sp)

00003bcf <.L118>:
    3bcf:	58 28       	mov	(40,sp),d0
    3bd1:	f1 0c       	sub	d3,d0

00003bd3 <.LVL248>:
    3bd3:	c8 05       	beq	3bd8 <.L0_49>
    3bd5:	cc 4f 04    	jmp	4024 <.L308>

00003bd8 <.L0_49>:
    3bd8:	f1 dc       	mov	a3,d0
    3bda:	85 01       	mov	1,d1
    3bdc:	dd c7 1e 00 	call	5aa3 <___i2b>,[],0
    3be0:	00 00 00 

00003be3 <.LVL250>:
    3be3:	43 28       	mov	a0,(40,sp)

00003be5 <.LVL251>:
    3be5:	5b 58       	mov	(88,sp),d3

00003be7 <.LVL252>:
    3be7:	af 00       	cmp	0,d3
    3be9:	c3 11       	ble	3bfa <.L119>

00003beb <.Loc.660.1>:
    3beb:	4e 0c       	mov	d3,(12,sp)
    3bed:	f1 dc       	mov	a3,d0
    3bef:	f1 d1       	mov	a0,d1
    3bf1:	dd 0e 20 00 	call	5bff <___pow5mult>,[],0
    3bf5:	00 00 00 

00003bf8 <.LVL253>:
    3bf8:	43 28       	mov	a0,(40,sp)

00003bfa <.L119>:
    3bfa:	5d a4       	mov	(164,sp),a1
    3bfc:	b5 01       	cmp	1,a1
    3bfe:	c1 05       	bgt	3c03 <.L0_50>
    3c00:	cc 8f 03    	jmp	3f8f <.L309>

00003c03 <.L0_50>:
    3c03:	0c          	clr	d3

00003c04 <.L120>:
    3c04:	5d 58       	mov	(88,sp),a1
    3c06:	b5 00       	cmp	0,a1
    3c08:	c8 05       	beq	3c0d <.L0_51>
    3c0a:	cc 60 06    	jmp	426a <.L310>

00003c0d <.L0_51>:
    3c0d:	85 01       	mov	1,d1

00003c0f <.L121>:
    3c0f:	58 48       	mov	(72,sp),d0
    3c11:	e4          	add	d1,d0
    3c12:	f8 e0 1f    	and	31,d0

00003c15 <.LVL256>:
    3c15:	c9 05       	bne	3c1a <.L0_52>
    3c17:	cc 3d 02    	jmp	3e54 <.L192>

00003c1a <.L0_52>:
    3c1a:	85 20       	mov	32,d1
    3c1c:	f1 01       	sub	d0,d1

00003c1e <.LVL257>:
    3c1e:	a5 04       	cmp	4,d1
    3c20:	c1 05       	bgt	3c25 <.L0_53>
    3c22:	cc 57 0a    	jmp	4679 <.L123>

00003c25 <.L0_53>:
    3c25:	85 1c       	mov	28,d1

00003c27 <.LVL258>:
    3c27:	f1 01       	sub	d0,d1

00003c29 <.LVL259>:
    3c29:	5d 50       	mov	(80,sp),a1
    3c2b:	f1 65       	add	d1,a1
    3c2d:	47 50       	mov	a1,(80,sp)

00003c2f <.LVL260>:
    3c2f:	e6          	add	d1,d2

00003c30 <.Loc.707.1>:
    3c30:	5e 48       	mov	(72,sp),a2
    3c32:	f1 66       	add	d1,a2
    3c34:	4b 48       	mov	a2,(72,sp)

00003c36 <.L124>:
    3c36:	5d 50       	mov	(80,sp),a1
    3c38:	b5 00       	cmp	0,a1
    3c3a:	c3 11       	ble	3c4b <.L125>

00003c3c <.Loc.710.1>:
    3c3c:	47 0c       	mov	a1,(12,sp)
    3c3e:	f1 dc       	mov	a3,d0
    3c40:	59 30       	mov	(48,sp),d1

00003c42 <.LVL263>:
    3c42:	dd 85 20 00 	call	5cc7 <___lshift>,[],0
    3c46:	00 00 00 

00003c49 <.LVL264>:
    3c49:	43 30       	mov	a0,(48,sp)

00003c4b <.L125>:
    3c4b:	5e 48       	mov	(72,sp),a2
    3c4d:	ba 00       	cmp	0,a2
    3c4f:	c3 11       	ble	3c60 <.L126>

00003c51 <.Loc.712.1>:
    3c51:	4b 0c       	mov	a2,(12,sp)
    3c53:	f1 dc       	mov	a3,d0
    3c55:	59 28       	mov	(40,sp),d1
    3c57:	dd 70 20 00 	call	5cc7 <___lshift>,[],0
    3c5b:	00 00 00 

00003c5e <.LVL266>:
    3c5e:	43 28       	mov	a0,(40,sp)

00003c60 <.L126>:
    3c60:	5d 5c       	mov	(92,sp),a1
    3c62:	b5 00       	cmp	0,a1
    3c64:	c8 05       	beq	3c69 <.L0_54>
    3c66:	cc 7d 02    	jmp	3ee3 <.L311>

00003c69 <.L0_54>:
    3c69:	5d 44       	mov	(68,sp),a1
    3c6b:	b5 00       	cmp	0,a1
    3c6d:	c1 05       	bgt	3c72 <.L0_55>
    3c6f:	cc bb 02    	jmp	3f2a <.L0_75>

00003c72 <.L0_55>:
    3c72:	5d 54       	mov	(84,sp),a1

00003c74 <.LVL269>:
    3c74:	b5 00       	cmp	0,a1
    3c76:	c9 05       	bne	3c7b <.L0_56>
    3c78:	cc 14 02    	jmp	3e8c <.L313>

00003c7b <.L0_56>:
    3c7b:	aa 00       	cmp	0,d2
    3c7d:	c3 11       	ble	3c8e <.L132>

00003c7f <.Loc.741.1>:
    3c7f:	4a 0c       	mov	d2,(12,sp)
    3c81:	f1 dc       	mov	a3,d0
    3c83:	59 4c       	mov	(76,sp),d1
    3c85:	dd 42 20 00 	call	5cc7 <___lshift>,[],0
    3c89:	00 00 00 

00003c8c <.LVL270>:
    3c8c:	43 4c       	mov	a0,(76,sp)

00003c8e <.L132>:
    3c8e:	af 00       	cmp	0,d3
    3c90:	c8 05       	beq	3c95 <.L0_57>
    3c92:	cc 52 07    	jmp	43e4 <.L314>

00003c95 <.L0_57>:
    3c95:	5a 4c       	mov	(76,sp),d2

00003c97 <.LVL272>:
    3c97:	4a 24       	mov	d2,(36,sp)
    3c99:	5e 20       	mov	(32,sp),a2

00003c9b <.Loc.206.2>:
    3c9b:	f1 d8       	mov	a2,d0
    3c9d:	28 ff       	add	-1,d0
    3c9f:	5b 44       	mov	(68,sp),d3

00003ca1 <.LVL273>:
    3ca1:	e3          	add	d0,d3
    3ca2:	4e 44       	mov	d3,(68,sp)
    3ca4:	5a 4c       	mov	(76,sp),d2

00003ca6 <.Loc.766.1>:
    3ca6:	5b 34       	mov	(52,sp),d3
    3ca8:	f8 e3 01    	and	1,d3
    3cab:	4e 34       	mov	d3,(52,sp)

00003cad <.L149>:
    3cad:	58 30       	mov	(48,sp),d0
    3caf:	59 28       	mov	(40,sp),d1
    3cb1:	cd 7d f5 00 	call	322e <_quorem>,[],0
    3cb5:	00 

00003cb6 <.LVL275>:
    3cb6:	42 38       	mov	d0,(56,sp)
    3cb8:	28 30       	add	48,d0
    3cba:	42 3c       	mov	d0,(60,sp)

00003cbc <.LVL276>:
    3cbc:	58 30       	mov	(48,sp),d0

00003cbe <.LVL277>:
    3cbe:	89          	mov	d2,d1
    3cbf:	dd b6 20 00 	call	5d75 <___mcmp>,[],0
    3cc3:	00 00 00 

00003cc6 <.LVL278>:
    3cc6:	83          	mov	d0,d3

00003cc7 <.LVL279>:
    3cc7:	5d 24       	mov	(36,sp),a1
    3cc9:	47 0c       	mov	a1,(12,sp)
    3ccb:	f1 dc       	mov	a3,d0

00003ccd <.LVL280>:
    3ccd:	59 28       	mov	(40,sp),d1
    3ccf:	dd e0 20 00 	call	5daf <___mdiff>,[],0
    3cd3:	00 00 00 

00003cd6 <.LVL281>:
    3cd6:	f8 00 0c    	mov	(12,a0),d0
    3cd9:	a0 00       	cmp	0,d0
    3cdb:	c9 05       	bne	3ce0 <.L0_58>
    3cdd:	cc b6 00    	jmp	3d93 <.L0_64>

00003ce0 <.L0_58>:
    3ce0:	f1 dc       	mov	a3,d0
    3ce2:	f1 d1       	mov	a0,d1
    3ce4:	dd a0 1b 00 	call	5884 <__Bfree>,[],0
    3ce8:	00 00 00 

00003ceb <.LVL283>:
    3ceb:	95 01       	mov	1,a1

00003ced <.L135>:
    3ced:	af 00       	cmp	0,d3
    3cef:	c2 05       	bge	3cf4 <.L0_59>
    3cf1:	cc db 03    	jmp	40cc <.L195>

00003cf4 <.L0_59>:
    3cf4:	c9 11       	bne	3d05 <.L0_60>
    3cf6:	5b a4       	mov	(164,sp),d3

00003cf8 <.LVL285>:
    3cf8:	af 00       	cmp	0,d3
    3cfa:	c9 0b       	bne	3d05 <.L0_60>

00003cfc <.Loc.778.1>:
    3cfc:	5b 34       	mov	(52,sp),d3
    3cfe:	af 00       	cmp	0,d3
    3d00:	c9 05       	bne	3d05 <.L0_60>
    3d02:	cc ca 03    	jmp	40cc <.L195>

00003d05 <.L0_60>:
    3d05:	5b 3c       	mov	(60,sp),d3

00003d07 <.Loc.793.1>:
    3d07:	b5 00       	cmp	0,a1
    3d09:	c3 05       	ble	3d0e <.L0_61>
    3d0b:	cc 2f 07    	jmp	443a <.L316>

00003d0e <.L0_61>:
    3d0e:	f0 5e       	movbu	d3,(a2)

00003d10 <.Loc.206.2>:
    3d10:	f1 db       	mov	a2,d3
    3d12:	4c          	inc	d3

00003d13 <.LVL286>:
    3d13:	5d 44       	mov	(68,sp),a1
    3d15:	b6          	cmp	a1,a2
    3d16:	c9 05       	bne	3d1b <.L0_62>
    3d18:	cc 38 07    	jmp	4450 <.L196>

00003d1b <.L0_62>:
    3d1b:	9a 0a       	mov	10,a2
    3d1d:	4b 0c       	mov	a2,(12,sp)
    3d1f:	9a 00       	mov	0,a2
    3d21:	4b 10       	mov	a2,(16,sp)
    3d23:	f1 dc       	mov	a3,d0
    3d25:	59 30       	mov	(48,sp),d1
    3d27:	dd 78 1b 00 	call	589f <___multadd>,[],0
    3d2b:	00 00 00 

00003d2e <.LVL287>:
    3d2e:	43 30       	mov	a0,(48,sp)

00003d30 <.LVL288>:
    3d30:	5d 24       	mov	(36,sp),a1
    3d32:	f1 96       	cmp	a1,d2
    3d34:	c9 05       	bne	3d39 <.L0_63>
    3d36:	cc a5 04    	jmp	41db <.L317>

00003d39 <.L0_63>:
    3d39:	85 0a       	mov	10,d1
    3d3b:	46 0c       	mov	d1,(12,sp)
    3d3d:	4b 10       	mov	a2,(16,sp)
    3d3f:	f1 dc       	mov	a3,d0
    3d41:	89          	mov	d2,d1
    3d42:	dd 5d 1b 00 	call	589f <___multadd>,[],0
    3d46:	00 00 00 

00003d49 <.LVL289>:
    3d49:	f1 d2       	mov	a0,d2

00003d4b <.Loc.813.1>:
    3d4b:	90 0a       	mov	10,a0
    3d4d:	43 0c       	mov	a0,(12,sp)
    3d4f:	4b 10       	mov	a2,(16,sp)
    3d51:	f1 dc       	mov	a3,d0
    3d53:	59 24       	mov	(36,sp),d1
    3d55:	dd 4a 1b 00 	call	589f <___multadd>,[],0
    3d59:	00 00 00 

00003d5c <.LVL291>:
    3d5c:	43 24       	mov	a0,(36,sp)

00003d5e <.LVL292>:
    3d5e:	f1 ee       	mov	d3,a2

00003d60 <.L321>:
    3d60:	58 30       	mov	(48,sp),d0
    3d62:	59 28       	mov	(40,sp),d1
    3d64:	cd ca f4 00 	call	322e <_quorem>,[],0
    3d68:	00 

00003d69 <.LVL294>:
    3d69:	42 38       	mov	d0,(56,sp)
    3d6b:	28 30       	add	48,d0
    3d6d:	42 3c       	mov	d0,(60,sp)

00003d6f <.LVL295>:
    3d6f:	58 30       	mov	(48,sp),d0

00003d71 <.LVL296>:
    3d71:	89          	mov	d2,d1
    3d72:	dd 03 20 00 	call	5d75 <___mcmp>,[],0
    3d76:	00 00 00 

00003d79 <.LVL297>:
    3d79:	83          	mov	d0,d3

00003d7a <.LVL298>:
    3d7a:	5d 24       	mov	(36,sp),a1
    3d7c:	47 0c       	mov	a1,(12,sp)
    3d7e:	f1 dc       	mov	a3,d0

00003d80 <.LVL299>:
    3d80:	59 28       	mov	(40,sp),d1
    3d82:	dd 2d 20 00 	call	5daf <___mdiff>,[],0
    3d86:	00 00 00 

00003d89 <.LVL300>:
    3d89:	f8 00 0c    	mov	(12,a0),d0
    3d8c:	a0 00       	cmp	0,d0
    3d8e:	c8 05       	beq	3d93 <.L0_64>
    3d90:	cc 50 ff    	jmp	3ce0 <.L0_58>

00003d93 <.L0_64>:
    3d93:	58 30       	mov	(48,sp),d0
    3d95:	f1 d1       	mov	a0,d1
    3d97:	43 1c       	mov	a0,(28,sp)
    3d99:	dd dc 1f 00 	call	5d75 <___mcmp>,[],0
    3d9d:	00 00 00 

00003da0 <.LVL301>:
    3da0:	f1 e1       	mov	d0,a1

00003da2 <.LVL302>:
    3da2:	f1 dc       	mov	a3,d0

00003da4 <.LVL303>:
    3da4:	5c 1c       	mov	(28,sp),a0
    3da6:	f1 d1       	mov	a0,d1
    3da8:	47 18       	mov	a1,(24,sp)
    3daa:	dd da 1a 00 	call	5884 <__Bfree>,[],0
    3dae:	00 00 00 

00003db1 <.LVL304>:
    3db1:	5d 18       	mov	(24,sp),a1
    3db3:	b5 00       	cmp	0,a1
    3db5:	c8 05       	beq	3dba <.L0_65>
    3db7:	cc 36 ff    	jmp	3ced <.L135>

00003dba <.L0_65>:
    3dba:	58 a4       	mov	(164,sp),d0
    3dbc:	a0 00       	cmp	0,d0
    3dbe:	c8 05       	beq	3dc3 <.L0_66>
    3dc0:	cc 2d ff    	jmp	3ced <.L135>

00003dc3 <.L0_66>:
    3dc3:	59 34       	mov	(52,sp),d1
    3dc5:	a5 00       	cmp	0,d1
    3dc7:	c8 05       	beq	3dcc <.L0_67>
    3dc9:	cc 24 ff    	jmp	3ced <.L135>

00003dcc <.L0_67>:
    3dcc:	58 3c       	mov	(60,sp),d0
    3dce:	a0 39       	cmp	57,d0
    3dd0:	c9 05       	bne	3dd5 <.L0_68>
    3dd2:	cc 30 03    	jmp	4102 <.L0_90>

00003dd5 <.L0_68>:
    3dd5:	af 00       	cmp	0,d3
    3dd7:	c3 08       	ble	3ddf <.L141>

00003dd9 <.Loc.771.1>:
    3dd9:	5b 38       	mov	(56,sp),d3

00003ddb <.LVL305>:
    3ddb:	2b 31       	add	49,d3
    3ddd:	4e 3c       	mov	d3,(60,sp)

00003ddf <.L141>:
    3ddf:	5b 3c       	mov	(60,sp),d3
    3de1:	f0 5e       	movbu	d3,(a2)
    3de3:	49          	inc	a2

00003de4 <.LVL307>:
    3de4:	4b 38       	mov	a2,(56,sp)

00003de6 <.LVL308>:
    3de6:	5d 24       	mov	(36,sp),a1
    3de8:	47 4c       	mov	a1,(76,sp)

00003dea <.L138>:
    3dea:	f1 dc       	mov	a3,d0
    3dec:	59 28       	mov	(40,sp),d1
    3dee:	dd 96 1a 00 	call	5884 <__Bfree>,[],0
    3df2:	00 00 00 

00003df5 <.LVL310>:
    3df5:	5e 4c       	mov	(76,sp),a2
    3df7:	ba 00       	cmp	0,a2
    3df9:	c9 05       	bne	3dfe <.L0_69>
    3dfb:	cc d9 fb    	jmp	39d4 <.L83>

00003dfe <.L0_69>:
    3dfe:	aa 00       	cmp	0,d2
    3e00:	c8 10       	beq	3e10 <.L158>

00003e02 <.Loc.851.1>:
    3e02:	f1 9a       	cmp	a2,d2
    3e04:	c8 0c       	beq	3e10 <.L158>

00003e06 <.Loc.852.1>:
    3e06:	f1 dc       	mov	a3,d0
    3e08:	89          	mov	d2,d1
    3e09:	dd 7b 1a 00 	call	5884 <__Bfree>,[],0
    3e0d:	00 00 00 

00003e10 <.L158>:
    3e10:	f1 dc       	mov	a3,d0
    3e12:	59 4c       	mov	(76,sp),d1
    3e14:	dd 70 1a 00 	call	5884 <__Bfree>,[],0
    3e18:	00 00 00 

00003e1b <.LVL312>:
    3e1b:	cc b9 fb    	jmp	39d4 <.L83>

00003e1e <.L161>:
    3e1e:	fc dd 20 97 	mov	38688,a1
    3e22:	00 00 
    3e24:	47 20       	mov	a1,(32,sp)
    3e26:	cc 06 f6    	jmp	342c <.L36>

00003e29 <.L52>:
    3e29:	5b 50       	mov	(80,sp),d3
    3e2b:	5a 40       	mov	(64,sp),d2
    3e2d:	f1 0b       	sub	d2,d3
    3e2f:	4e 50       	mov	d3,(80,sp)

00003e31 <.LVL315>:
    3e31:	f2 32       	not	d2
    3e33:	48          	inc	d2
    3e34:	4a 28       	mov	d2,(40,sp)

00003e36 <.LVL316>:
    3e36:	95 00       	mov	0,a1
    3e38:	47 58       	mov	a1,(88,sp)
    3e3a:	cc 73 f7    	jmp	35ad <.L53>

00003e3d <.L298>:
    3e3d:	0c          	clr	d3
    3e3e:	f1 03       	sub	d0,d3
    3e40:	4e 50       	mov	d3,(80,sp)

00003e42 <.LVL318>:
    3e42:	95 00       	mov	0,a1
    3e44:	47 48       	mov	a1,(72,sp)
    3e46:	cc 53 f7    	jmp	3599 <.L51>

00003e49 <.L185>:
    3e49:	5b 28       	mov	(40,sp),d3

00003e4b <.Loc.596.1>:
    3e4b:	5a 50       	mov	(80,sp),d2

00003e4d <.Loc.598.1>:
    3e4d:	5d 54       	mov	(84,sp),a1
    3e4f:	47 4c       	mov	a1,(76,sp)
    3e51:	cc 1e fd    	jmp	3b6f <.L108>

00003e54 <.L192>:
    3e54:	85 1c       	mov	28,d1

00003e56 <.LVL321>:
    3e56:	5d 50       	mov	(80,sp),a1
    3e58:	f1 65       	add	d1,a1
    3e5a:	47 50       	mov	a1,(80,sp)

00003e5c <.LVL322>:
    3e5c:	e6          	add	d1,d2

00003e5d <.Loc.707.1>:
    3e5d:	5e 48       	mov	(72,sp),a2
    3e5f:	f1 66       	add	d1,a2
    3e61:	4b 48       	mov	a2,(72,sp)

00003e63 <.LVL324>:
    3e63:	cc d3 fd    	jmp	3c36 <.L124>

00003e66 <.L44>:
    3e66:	2c ee fb    	mov	-1042,d0
    3e69:	f1 18       	sub	a2,d0

00003e6b <.Loc.344.1>:
    3e6b:	5b 34       	mov	(52,sp),d3
    3e6d:	f2 93       	asl	d0,d3
    3e6f:	8c          	mov	d3,d0

00003e70 <.LVL326>:
    3e70:	dd 92 51 00 	call	9002 <___floatunsidf>,[],0
    3e74:	00 00 00 

00003e77 <.LVL327>:
    3e77:	fc c1 00 00 	add	-32505856,d1
    3e7b:	10 fe 

00003e7d <.Loc.349.1>:
    3e7d:	22 ff       	add	-1,a2

00003e7f <.LVL328>:
    3e7f:	95 01       	mov	1,a1
    3e81:	47 4c       	mov	a1,(76,sp)
    3e83:	cc 3b f6    	jmp	34be <.L43>

00003e86 <.L280>:
    3e86:	08          	clr	d2
    3e87:	4a 5c       	mov	d2,(92,sp)
    3e89:	cc fe f6    	jmp	3587 <.L49>

00003e8c <.L313>:
    3e8c:	5e 20       	mov	(32,sp),a2

00003e8e <.Loc.823.1>:
    3e8e:	8f 0a       	mov	10,d3

00003e90 <.LVL331>:
    3e90:	f1 d6       	mov	a1,d2

00003e92 <.LVL332>:
    3e92:	5c 30       	mov	(48,sp),a0

00003e94 <.L131>:
    3e94:	f1 d0       	mov	a0,d0
    3e96:	59 28       	mov	(40,sp),d1
    3e98:	43 1c       	mov	a0,(28,sp)
    3e9a:	cd 94 f3 00 	call	322e <_quorem>,[],0
    3e9e:	00 

00003e9f <.LVL334>:
    3e9f:	28 30       	add	48,d0

00003ea1 <.LVL335>:
    3ea1:	f0 52       	movbu	d0,(a2)
    3ea3:	49          	inc	a2

00003ea4 <.Loc.206.2>:
    3ea4:	f1 d9       	mov	a2,d1
    3ea6:	5d 20       	mov	(32,sp),a1
    3ea8:	f1 15       	sub	a1,d1

00003eaa <.Loc.821.1>:
    3eaa:	5c 1c       	mov	(28,sp),a0
    3eac:	5d 44       	mov	(68,sp),a1
    3eae:	f1 a5       	cmp	d1,a1
    3eb0:	c1 05       	bgt	3eb5 <.L0_70>
    3eb2:	cc 42 03    	jmp	41f4 <.L150>

00003eb5 <.L0_70>:
    3eb5:	4e 0c       	mov	d3,(12,sp)
    3eb7:	4a 10       	mov	d2,(16,sp)
    3eb9:	f1 dc       	mov	a3,d0

00003ebb <.LVL337>:
    3ebb:	f1 d1       	mov	a0,d1
    3ebd:	dd e2 19 00 	call	589f <___multadd>,[],0
    3ec1:	00 00 00 

00003ec4 <.LVL338>:
    3ec4:	ca d0       	bra	3e94 <.L131>

00003ec6 <.L299>:
    3ec6:	aa 02       	cmp	2,d2
    3ec8:	c8 05       	beq	3ecd <.L0_71>
    3eca:	cc 3c fc    	jmp	3b06 <.L54>

00003ecd <.L0_71>:
    3ecd:	95 00       	mov	0,a1
    3ecf:	47 54       	mov	a1,(84,sp)

00003ed1 <.L56>:
    3ed1:	5e a8       	mov	(168,sp),a2
    3ed3:	ba 00       	cmp	0,a2
    3ed5:	c1 05       	bgt	3eda <.L0_72>
    3ed7:	cc fc 00    	jmp	3fd3 <.L170>

00003eda <.L0_72>:
    3eda:	f1 da       	mov	a2,d2

00003edc <.LVL341>:
    3edc:	4b 64       	mov	a2,(100,sp)
    3ede:	4b 44       	mov	a2,(68,sp)
    3ee0:	cc 17 f7    	jmp	35f7 <.L0_19>

00003ee3 <.L311>:
    3ee3:	58 30       	mov	(48,sp),d0
    3ee5:	59 28       	mov	(40,sp),d1
    3ee7:	dd 8e 1e 00 	call	5d75 <___mcmp>,[],0
    3eeb:	00 00 00 

00003eee <.LVL343>:
    3eee:	a0 00       	cmp	0,d0
    3ef0:	c0 05       	blt	3ef5 <.L0_73>
    3ef2:	cc 77 fd    	jmp	3c69 <.L0_54>

00003ef5 <.L0_73>:
    3ef5:	58 40       	mov	(64,sp),d0
    3ef7:	28 ff       	add	-1,d0
    3ef9:	42 40       	mov	d0,(64,sp)

00003efb <.LVL344>:
    3efb:	95 0a       	mov	10,a1
    3efd:	47 0c       	mov	a1,(12,sp)
    3eff:	9a 00       	mov	0,a2
    3f01:	4b 10       	mov	a2,(16,sp)
    3f03:	f1 dc       	mov	a3,d0

00003f05 <.LVL345>:
    3f05:	59 30       	mov	(48,sp),d1
    3f07:	47 18       	mov	a1,(24,sp)
    3f09:	dd 96 19 00 	call	589f <___multadd>,[],0
    3f0d:	00 00 00 

00003f10 <.LVL346>:
    3f10:	43 30       	mov	a0,(48,sp)

00003f12 <.LVL347>:
    3f12:	5d 18       	mov	(24,sp),a1
    3f14:	59 54       	mov	(84,sp),d1
    3f16:	f1 99       	cmp	a2,d1
    3f18:	c8 05       	beq	3f1d <.L0_74>
    3f1a:	cc 32 07    	jmp	464c <.L318>

00003f1d <.L0_74>:
    3f1d:	5e 64       	mov	(100,sp),a2
    3f1f:	4b 44       	mov	a2,(68,sp)

00003f21 <.LVL348>:
    3f21:	5d 44       	mov	(68,sp),a1
    3f23:	b5 00       	cmp	0,a1
    3f25:	c3 05       	ble	3f2a <.L0_75>
    3f27:	cc 4b fd    	jmp	3c72 <.L0_55>

00003f2a <.L0_75>:
    3f2a:	5e a4       	mov	(164,sp),a2
    3f2c:	ba 02       	cmp	2,a2
    3f2e:	c1 05       	bgt	3f33 <.L0_76>
    3f30:	cc 42 fd    	jmp	3c72 <.L0_55>

00003f33 <.L0_76>:
    3f33:	b5 00       	cmp	0,a1
    3f35:	c8 05       	beq	3f3a <.L0_77>
    3f37:	cc 97 02    	jmp	41ce <.L81>

00003f3a <.L0_77>:
    3f3a:	80 05       	mov	5,d0
    3f3c:	42 0c       	mov	d0,(12,sp)
    3f3e:	47 10       	mov	a1,(16,sp)
    3f40:	f1 dc       	mov	a3,d0
    3f42:	59 28       	mov	(40,sp),d1
    3f44:	dd 5b 19 00 	call	589f <___multadd>,[],0
    3f48:	00 00 00 

00003f4b <.LVL350>:
    3f4b:	43 28       	mov	a0,(40,sp)

00003f4d <.LVL351>:
    3f4d:	58 30       	mov	(48,sp),d0
    3f4f:	f1 d1       	mov	a0,d1
    3f51:	dd 24 1e 00 	call	5d75 <___mcmp>,[],0
    3f55:	00 00 00 

00003f58 <.LVL352>:
    3f58:	a0 00       	cmp	0,d0
    3f5a:	c1 05       	bgt	3f5f <.L0_78>
    3f5c:	cc 72 02    	jmp	41ce <.L81>

00003f5f <.L0_78>:
    3f5f:	80 31       	mov	49,d0
    3f61:	5d 20       	mov	(32,sp),a1
    3f63:	f0 51       	movbu	d0,(a1)
    3f65:	45          	inc	a1
    3f66:	47 38       	mov	a1,(56,sp)

00003f68 <.LVL354>:
    3f68:	5a 40       	mov	(64,sp),d2
    3f6a:	48          	inc	d2
    3f6b:	4a 40       	mov	d2,(64,sp)

00003f6d <.L129>:
    3f6d:	f1 dc       	mov	a3,d0
    3f6f:	59 28       	mov	(40,sp),d1
    3f71:	dd 13 19 00 	call	5884 <__Bfree>,[],0
    3f75:	00 00 00 

00003f78 <.LVL356>:
    3f78:	5d 4c       	mov	(76,sp),a1
    3f7a:	b5 00       	cmp	0,a1
    3f7c:	c9 05       	bne	3f81 <.L0_79>
    3f7e:	cc 56 fa    	jmp	39d4 <.L83>

00003f81 <.L0_79>:
    3f81:	f1 dc       	mov	a3,d0
    3f83:	59 4c       	mov	(76,sp),d1
    3f85:	dd ff 18 00 	call	5884 <__Bfree>,[],0
    3f89:	00 00 00 

00003f8c <.LVL357>:
    3f8c:	cc 48 fa    	jmp	39d4 <.L83>

00003f8f <.L309>:
    3f8f:	5b 34       	mov	(52,sp),d3
    3f91:	af 00       	cmp	0,d3
    3f93:	c8 05       	beq	3f98 <.L0_80>
    3f95:	cc 6e fc    	jmp	3c03 <.L0_50>

00003f98 <.L0_80>:
    3f98:	58 24       	mov	(36,sp),d0
    3f9a:	fc e0 ff ff 	and	1048575,d0
    3f9e:	0f 00 
    3fa0:	c8 05       	beq	3fa5 <.L0_81>
    3fa2:	cc 61 fc    	jmp	3c03 <.L0_50>

00003fa5 <.L0_81>:
    3fa5:	5b 24       	mov	(36,sp),d3
    3fa7:	fc ef 00 00 	btst	2146435072,d3
    3fab:	f0 7f 
    3fad:	c9 05       	bne	3fb2 <.L0_82>
    3faf:	cc 69 06    	jmp	4618 <.L190>

00003fb2 <.L0_82>:
    3fb2:	5d 50       	mov	(80,sp),a1
    3fb4:	45          	inc	a1
    3fb5:	47 50       	mov	a1,(80,sp)

00003fb7 <.LVL359>:
    3fb7:	5e 48       	mov	(72,sp),a2
    3fb9:	49          	inc	a2
    3fba:	4b 48       	mov	a2,(72,sp)

00003fbc <.LVL360>:
    3fbc:	8f 01       	mov	1,d3
    3fbe:	cc 46 fc    	jmp	3c04 <.L120>

00003fc1 <.L307>:
    3fc1:	88          	mov	d2,d0

00003fc2 <.LVL362>:
    3fc2:	5d 50       	mov	(80,sp),a1
    3fc4:	f1 21       	sub	d0,a1
    3fc6:	47 50       	mov	a1,(80,sp)

00003fc8 <.LVL363>:
    3fc8:	f1 02       	sub	d0,d2

00003fca <.Loc.639.1>:
    3fca:	5e 48       	mov	(72,sp),a2

00003fcc <.LVL365>:
    3fcc:	f1 22       	sub	d0,a2
    3fce:	4b 48       	mov	a2,(72,sp)

00003fd0 <.LVL366>:
    3fd0:	cc c0 fb    	jmp	3b90 <.L114>

00003fd3 <.L170>:
    3fd3:	8a 01       	mov	1,d2

00003fd5 <.LVL368>:
    3fd5:	4a 64       	mov	d2,(100,sp)
    3fd7:	4a 44       	mov	d2,(68,sp)
    3fd9:	4a a8       	mov	d2,(168,sp)

00003fdb <.L61>:
    3fdb:	04          	clr	d1
    3fdc:	f8 17 44    	mov	d1,(68,a3)
    3fdf:	cc 33 f6    	jmp	3612 <.L64>

00003fe2 <.L95>:
    3fe2:	5b 44       	mov	(68,sp),d3

00003fe4 <.LVL371>:
    3fe4:	af 00       	cmp	0,d3
    3fe6:	c3 05       	ble	3feb <.L0_83>
    3fe8:	cc df f8    	jmp	38c7 <.L0_35>

00003feb <.L0_83>:
    3feb:	c8 05       	beq	3ff0 <.L0_84>
    3fed:	cc 4c 06    	jmp	4639 <.L183>

00003ff0 <.L0_84>:
    3ff0:	4e 0c       	mov	d3,(12,sp)
    3ff2:	fc cc 00 00 	mov	1075052544,d0
    3ff6:	14 40 
    3ff8:	42 10       	mov	d0,(16,sp)
    3ffa:	58 2c       	mov	(44,sp),d0
    3ffc:	59 28       	mov	(40,sp),d1
    3ffe:	dd 7a 49 00 	call	8978 <___muldf3>,[],0
    4002:	00 00 00 
    4005:	5a 34       	mov	(52,sp),d2
    4007:	4a 0c       	mov	d2,(12,sp)
    4009:	5b 24       	mov	(36,sp),d3
    400b:	4e 10       	mov	d3,(16,sp)
    400d:	dd 12 4e 00 	call	8e1f <___gedf2>,[],0
    4011:	00 00 00 
    4014:	a0 00       	cmp	0,d0
    4016:	c0 05       	blt	401b <.L0_85>
    4018:	cc 0e 06    	jmp	4626 <.L184>

0000401b <.L0_85>:
    401b:	5d 44       	mov	(68,sp),a1
    401d:	47 28       	mov	a1,(40,sp)
    401f:	47 4c       	mov	a1,(76,sp)
    4021:	cc 3e ff    	jmp	3f5f <.L0_78>

00004024 <.L308>:
    4024:	42 0c       	mov	d0,(12,sp)
    4026:	f1 dc       	mov	a3,d0

00004028 <.LVL376>:
    4028:	59 30       	mov	(48,sp),d1
    402a:	dd d5 1b 00 	call	5bff <___pow5mult>,[],0
    402e:	00 00 00 

00004031 <.LVL377>:
    4031:	43 30       	mov	a0,(48,sp)

00004033 <.LVL378>:
    4033:	cc a5 fb    	jmp	3bd8 <.L0_49>

00004036 <.L305>:
    4036:	5e 4c       	mov	(76,sp),a2
    4038:	ba 00       	cmp	0,a2
    403a:	c9 05       	bne	403f <.L0_86>
    403c:	cc 56 05    	jmp	4592 <.L110>

0000403f <.L0_86>:
    403f:	fa c0 33 04 	add	1075,d0
    4043:	5b 28       	mov	(40,sp),d3

00004045 <.Loc.596.1>:
    4045:	5a 50       	mov	(80,sp),d2

00004047 <.LVL380>:
    4047:	5d 50       	mov	(80,sp),a1
    4049:	f1 61       	add	d0,a1
    404b:	47 50       	mov	a1,(80,sp)

0000404d <.LVL381>:
    404d:	5e 48       	mov	(72,sp),a2
    404f:	f1 62       	add	d0,a2
    4051:	4b 48       	mov	a2,(72,sp)

00004053 <.LVL382>:
    4053:	f1 dc       	mov	a3,d0

00004055 <.LVL383>:
    4055:	85 01       	mov	1,d1
    4057:	dd 4c 1a 00 	call	5aa3 <___i2b>,[],0
    405b:	00 00 00 

0000405e <.LVL384>:
    405e:	43 4c       	mov	a0,(76,sp)

00004060 <.LVL385>:
    4060:	cc 0f fb    	jmp	3b6f <.L108>

00004063 <.L300>:
    4063:	5c 44       	mov	(68,sp),a0
    4065:	f1 a8       	cmp	d2,a0
    4067:	c9 05       	bne	406c <.L0_87>
    4069:	cc e3 00    	jmp	414c <.L77>

0000406c <.L0_87>:
    406c:	58 64       	mov	(100,sp),d0
    406e:	a8          	cmp	d2,d0
    406f:	c1 05       	bgt	4074 <.L0_88>
    4071:	cc 29 f8    	jmp	389a <.L66>

00004074 <.L0_88>:
    4074:	59 40       	mov	(64,sp),d1
    4076:	29 ff       	add	-1,d1
    4078:	46 78       	mov	d1,(120,sp)

0000407a <.LVL388>:
    407a:	4a 0c       	mov	d2,(12,sp)
    407c:	fc cc 00 00 	mov	1076101120,d0
    4080:	24 40 

00004082 <.LVL389>:
    4082:	42 10       	mov	d0,(16,sp)
    4084:	8c          	mov	d3,d0
    4085:	f1 d9       	mov	a2,d1

00004087 <.LVL390>:
    4087:	dd f1 48 00 	call	8978 <___muldf3>,[],0
    408b:	00 00 00 

0000408e <.LVL391>:
    408e:	83          	mov	d0,d3
    408f:	f1 e6       	mov	d1,a2

00004091 <.LVL392>:
    4091:	5d 18       	mov	(24,sp),a1
    4093:	f1 d4       	mov	a1,d0
    4095:	40          	inc	d0

00004096 <.LVL393>:
    4096:	dd 33 4e 00 	call	8ec9 <___floatsidf>,[],0
    409a:	00 00 00 

0000409d <.LVL394>:
    409d:	42 0c       	mov	d0,(12,sp)
    409f:	46 10       	mov	d1,(16,sp)
    40a1:	8c          	mov	d3,d0
    40a2:	f1 d9       	mov	a2,d1
    40a4:	dd d4 48 00 	call	8978 <___muldf3>,[],0
    40a8:	00 00 00 
    40ab:	4a 0c       	mov	d2,(12,sp)
    40ad:	fc dc 00 00 	mov	1075576832,a0
    40b1:	1c 40 
    40b3:	43 10       	mov	a0,(16,sp)
    40b5:	dd 1b 48 00 	call	88d0 <___adddf3>,[],0
    40b9:	00 00 00 
    40bc:	82          	mov	d0,d2

000040bd <.Loc.481.1>:
    40bd:	fc c1 00 00 	add	-54525952,d1
    40c1:	c0 fc 
    40c3:	46 38       	mov	d1,(56,sp)
    40c5:	5d 64       	mov	(100,sp),a1
    40c7:	47 68       	mov	a1,(104,sp)
    40c9:	cc 69 f6    	jmp	3732 <.L79>

000040cc <.L195>:
    40cc:	5b 3c       	mov	(60,sp),d3

000040ce <.Loc.782.1>:
    40ce:	b5 00       	cmp	0,a1
    40d0:	c1 05       	bgt	40d5 <.L0_89>
    40d2:	cc 0d fd    	jmp	3ddf <.L141>

000040d5 <.L0_89>:
    40d5:	80 01       	mov	1,d0
    40d7:	42 0c       	mov	d0,(12,sp)
    40d9:	f1 dc       	mov	a3,d0
    40db:	59 30       	mov	(48,sp),d1
    40dd:	dd ea 1b 00 	call	5cc7 <___lshift>,[],0
    40e1:	00 00 00 

000040e4 <.LVL398>:
    40e4:	43 30       	mov	a0,(48,sp)

000040e6 <.LVL399>:
    40e6:	f1 d0       	mov	a0,d0
    40e8:	59 28       	mov	(40,sp),d1
    40ea:	dd 8b 1c 00 	call	5d75 <___mcmp>,[],0
    40ee:	00 00 00 

000040f1 <.LVL400>:
    40f1:	a0 00       	cmp	0,d0
    40f3:	c3 3b       	ble	412e <.L319>

000040f5 <.Loc.787.1>:
    40f5:	58 38       	mov	(56,sp),d0

000040f7 <.LVL401>:
    40f7:	28 31       	add	49,d0
    40f9:	42 3c       	mov	d0,(60,sp)

000040fb <.LVL402>:
    40fb:	af 39       	cmp	57,d3
    40fd:	c8 05       	beq	4102 <.L0_90>
    40ff:	cc e0 fc    	jmp	3ddf <.L141>

00004102 <.L0_90>:
    4102:	80 39       	mov	57,d0
    4104:	f0 52       	movbu	d0,(a2)
    4106:	49          	inc	a2

00004107 <.LVL404>:
    4107:	4b 38       	mov	a2,(56,sp)

00004109 <.LVL405>:
    4109:	5d 24       	mov	(36,sp),a1
    410b:	47 4c       	mov	a1,(76,sp)

0000410d <.L145>:
    410d:	5c 38       	mov	(56,sp),a0

0000410f <.Loc.206.2>:
    410f:	5b 20       	mov	(32,sp),d3
    4111:	4c          	inc	d3
    4112:	f1 ee       	mov	d3,a2

00004114 <.L155>:
    4114:	f1 d1       	mov	a0,d1

00004116 <.LVL407>:
    4116:	91          	mov	a0,a1
    4117:	21 ff       	add	-1,a1

00004119 <.LVL408>:
    4119:	83          	mov	d0,d3
    411a:	17          	extbu	d3
    411b:	af 39       	cmp	57,d3
    411d:	c8 05       	beq	4122 <.L0_91>
    411f:	cc 13 03    	jmp	4432 <.L320>

00004122 <.L0_91>:
    4122:	b8          	cmp	a2,a0
    4123:	c9 05       	bne	4128 <.L0_92>
    4125:	cc 37 01    	jmp	425c <.L154>

00004128 <.L0_92>:
    4128:	f8 40 fe    	movbu	(-2,a0),d0
    412b:	94          	mov	a1,a0
    412c:	ca e8       	bra	4114 <.L155>

0000412e <.L319>:
    412e:	c8 05       	beq	4133 <.L0_93>
    4130:	cc af fc    	jmp	3ddf <.L141>

00004133 <.L0_93>:
    4133:	58 3c       	mov	(60,sp),d0

00004135 <.LVL410>:
    4135:	f8 e0 01    	and	1,d0
    4138:	c9 05       	bne	413d <.L0_94>
    413a:	cc a5 fc    	jmp	3ddf <.L141>

0000413d <.L0_94>:
    413d:	58 38       	mov	(56,sp),d0
    413f:	28 31       	add	49,d0
    4141:	42 3c       	mov	d0,(60,sp)

00004143 <.LVL411>:
    4143:	af 39       	cmp	57,d3
    4145:	c8 05       	beq	414a <.L0_95>
    4147:	cc 98 fc    	jmp	3ddf <.L141>

0000414a <.L0_95>:
    414a:	ca b8       	bra	4102 <.L0_90>

0000414c <.L77>:
    414c:	f1 d4       	mov	a1,d0
    414e:	dd 7b 4d 00 	call	8ec9 <___floatsidf>,[],0
    4152:	00 00 00 

00004155 <.LVL413>:
    4155:	42 0c       	mov	d0,(12,sp)
    4157:	46 10       	mov	d1,(16,sp)
    4159:	8c          	mov	d3,d0
    415a:	f1 d9       	mov	a2,d1
    415c:	dd 1c 48 00 	call	8978 <___muldf3>,[],0
    4160:	00 00 00 
    4163:	5a 44       	mov	(68,sp),d2
    4165:	4a 0c       	mov	d2,(12,sp)
    4167:	fc dc 00 00 	mov	1075576832,a0
    416b:	1c 40 
    416d:	43 10       	mov	a0,(16,sp)
    416f:	dd 61 47 00 	call	88d0 <___adddf3>,[],0
    4173:	00 00 00 
    4176:	82          	mov	d0,d2

00004177 <.Loc.481.1>:
    4177:	fc c1 00 00 	add	-54525952,d1
    417b:	c0 fc 
    417d:	46 38       	mov	d1,(56,sp)

0000417f <.L159>:
    417f:	00          	clr	d0
    4180:	42 0c       	mov	d0,(12,sp)
    4182:	fc cc 00 00 	mov	1075052544,d0
    4186:	14 40 
    4188:	42 10       	mov	d0,(16,sp)
    418a:	8c          	mov	d3,d0
    418b:	f1 d9       	mov	a2,d1
    418d:	dd 93 47 00 	call	8920 <___subdf3>,[],0
    4191:	00 00 00 
    4194:	f1 e2       	mov	d0,a2
    4196:	87          	mov	d1,d3

00004197 <.Loc.486.1>:
    4197:	4a 0c       	mov	d2,(12,sp)
    4199:	5c 38       	mov	(56,sp),a0
    419b:	43 10       	mov	a0,(16,sp)
    419d:	dd 2d 4c 00 	call	8dca <___gtdf2>,[],0
    41a1:	00 00 00 
    41a4:	a0 00       	cmp	0,d0
    41a6:	c3 05       	ble	41ab <.L0_96>
    41a8:	cc b1 03    	jmp	4559 <.L176>

000041ab <.L0_96>:
    41ab:	58 38       	mov	(56,sp),d0
    41ad:	fc c0 00 00 	add	-2147483648,d0
    41b1:	00 80 
    41b3:	4a 0c       	mov	d2,(12,sp)
    41b5:	42 10       	mov	d0,(16,sp)
    41b7:	f1 d8       	mov	a2,d0
    41b9:	8d          	mov	d3,d1
    41ba:	dd ba 4c 00 	call	8e74 <___ltdf2>,[],0
    41be:	00 00 00 
    41c1:	a0 00       	cmp	0,d0
    41c3:	c0 05       	blt	41c8 <.L0_97>
    41c5:	cc d5 f6    	jmp	389a <.L66>

000041c8 <.L0_97>:
    41c8:	95 00       	mov	0,a1
    41ca:	47 28       	mov	a1,(40,sp)
    41cc:	47 4c       	mov	a1,(76,sp)

000041ce <.L81>:
    41ce:	58 a8       	mov	(168,sp),d0
    41d0:	f2 30       	not	d0
    41d2:	42 40       	mov	d0,(64,sp)

000041d4 <.LVL421>:
    41d4:	5d 20       	mov	(32,sp),a1
    41d6:	47 38       	mov	a1,(56,sp)
    41d8:	cc 95 fd    	jmp	3f6d <.L129>

000041db <.L317>:
    41db:	80 0a       	mov	10,d0
    41dd:	42 0c       	mov	d0,(12,sp)
    41df:	4b 10       	mov	a2,(16,sp)
    41e1:	f1 dc       	mov	a3,d0
    41e3:	89          	mov	d2,d1
    41e4:	dd bb 16 00 	call	589f <___multadd>,[],0
    41e8:	00 00 00 

000041eb <.LVL423>:
    41eb:	f1 d2       	mov	a0,d2

000041ed <.LVL424>:
    41ed:	43 24       	mov	a0,(36,sp)

000041ef <.LVL425>:
    41ef:	f1 ee       	mov	d3,a2
    41f1:	cc 6f fb    	jmp	3d60 <.L321>

000041f4 <.L150>:
    41f4:	42 3c       	mov	d0,(60,sp)
    41f6:	43 30       	mov	a0,(48,sp)

000041f8 <.Loc.206.2>:
    41f8:	58 44       	mov	(68,sp),d0

000041fa <.LVL427>:
    41fa:	a0 00       	cmp	0,d0
    41fc:	c3 55       	ble	4251 <.L322>
    41fe:	5e 20       	mov	(32,sp),a2

00004200 <.LVL428>:
    4200:	f1 62       	add	d0,a2
    4202:	4b 38       	mov	a2,(56,sp)

00004204 <.Loc.598.1>:
    4204:	08          	clr	d2

00004205 <.L146>:
    4205:	80 01       	mov	1,d0
    4207:	42 0c       	mov	d0,(12,sp)
    4209:	f1 dc       	mov	a3,d0
    420b:	59 30       	mov	(48,sp),d1
    420d:	dd ba 1a 00 	call	5cc7 <___lshift>,[],0
    4211:	00 00 00 

00004214 <.LVL430>:
    4214:	43 30       	mov	a0,(48,sp)

00004216 <.LVL431>:
    4216:	f1 d0       	mov	a0,d0
    4218:	59 28       	mov	(40,sp),d1
    421a:	dd 5b 1b 00 	call	5d75 <___mcmp>,[],0
    421e:	00 00 00 

00004221 <.LVL432>:
    4221:	a0 00       	cmp	0,d0
    4223:	c3 11       	ble	4234 <.L323>

00004225 <.L152>:
    4225:	5d 38       	mov	(56,sp),a1
    4227:	f8 41 ff    	movbu	(-1,a1),d0
    422a:	5c 38       	mov	(56,sp),a0

0000422c <.Loc.206.2>:
    422c:	5b 20       	mov	(32,sp),d3
    422e:	4c          	inc	d3
    422f:	f1 ee       	mov	d3,a2
    4231:	cc e3 fe    	jmp	4114 <.L155>

00004234 <.L323>:
    4234:	c9 09       	bne	423d <.L290>
    4236:	58 3c       	mov	(60,sp),d0

00004238 <.LVL435>:
    4238:	f8 e0 01    	and	1,d0
    423b:	c9 ea       	bne	4225 <.L152>

0000423d <.L290>:
    423d:	5c 38       	mov	(56,sp),a0

0000423f <.L256>:
    423f:	f1 d1       	mov	a0,d1
    4241:	29 ff       	add	-1,d1

00004243 <.LVL437>:
    4243:	f8 40 ff    	movbu	(-1,a0),d0
    4246:	a0 30       	cmp	48,d0
    4248:	c8 05       	beq	424d <.L0_98>
    424a:	cc 18 03    	jmp	4562 <.L324>

0000424d <.L0_98>:
    424d:	f1 e4       	mov	d1,a0
    424f:	ca f0       	bra	423f <.L256>

00004251 <.L322>:
    4251:	80 01       	mov	1,d0
    4253:	5e 20       	mov	(32,sp),a2

00004255 <.LVL439>:
    4255:	f1 62       	add	d0,a2
    4257:	4b 38       	mov	a2,(56,sp)

00004259 <.Loc.598.1>:
    4259:	08          	clr	d2
    425a:	ca ab       	bra	4205 <.L146>

0000425c <.L154>:
    425c:	46 38       	mov	d1,(56,sp)

0000425e <.Loc.836.1>:
    425e:	5b 40       	mov	(64,sp),d3
    4260:	4c          	inc	d3
    4261:	4e 40       	mov	d3,(64,sp)

00004263 <.LVL441>:
    4263:	80 31       	mov	49,d0
    4265:	f0 51       	movbu	d0,(a1)

00004267 <.LVL442>:
    4267:	cc 83 fb    	jmp	3dea <.L138>

0000426a <.L310>:
    426a:	5e 28       	mov	(40,sp),a2
    426c:	f8 02 10    	mov	(16,a2),d0
    426f:	28 04       	add	4,d0
    4271:	54          	asl2	d0
    4272:	98          	mov	a2,a0
    4273:	f1 60       	add	d0,a0
    4275:	70          	mov	(a0),d0
    4276:	dd 72 17 00 	call	59e8 <___hi0bits>,[],0
    427a:	00 00 00 

0000427d <.LVL444>:
    427d:	85 20       	mov	32,d1
    427f:	f1 01       	sub	d0,d1
    4281:	cc 8e f9    	jmp	3c0f <.L121>

00004284 <.L302>:
    4284:	f2 f2       	mov	d0,mdr
    4286:	f1 e4       	mov	d1,a0
    4288:	9d          	mov	a3,a1
    4289:	5f 24       	mov	(36,sp),a3

0000428b <.L96>:
    428b:	f2 e2       	mov	mdr,d2
    428d:	4a 0c       	mov	d2,(12,sp)
    428f:	43 10       	mov	a0,(16,sp)
    4291:	f2 e0       	mov	mdr,d0
    4293:	f1 d1       	mov	a0,d1
    4295:	47 18       	mov	a1,(24,sp)
    4297:	dd 39 46 00 	call	88d0 <___adddf3>,[],0
    429b:	00 00 00 

0000429e <.LVL447>:
    429e:	82          	mov	d0,d2
    429f:	87          	mov	d1,d3

000042a0 <.Loc.576.1>:
    42a0:	42 0c       	mov	d0,(12,sp)
    42a2:	46 10       	mov	d1,(16,sp)
    42a4:	58 2c       	mov	(44,sp),d0
    42a6:	59 28       	mov	(40,sp),d1
    42a8:	dd cc 4b 00 	call	8e74 <___ltdf2>,[],0
    42ac:	00 00 00 
    42af:	5d 18       	mov	(24,sp),a1

000042b1 <.LVL449>:
    42b1:	a0 00       	cmp	0,d0
    42b3:	c0 05       	blt	42b8 <.L0_99>
    42b5:	cc 8e 00    	jmp	4343 <.L284>

000042b8 <.L0_99>:
    42b8:	5d 38       	mov	(56,sp),a1

000042ba <.LVL450>:
    42ba:	f8 4d ff    	movbu	(-1,a1),d3
    42bd:	f1 ee       	mov	d3,a2

000042bf <.L84>:
    42bf:	5c 38       	mov	(56,sp),a0

000042c1 <.Loc.206.2>:
    42c1:	59 20       	mov	(32,sp),d1
    42c3:	44          	inc	d1
    42c4:	f1 db       	mov	a2,d3

000042c6 <.L104>:
    42c6:	f1 d0       	mov	a0,d0

000042c8 <.LVL453>:
    42c8:	91          	mov	a0,a1
    42c9:	21 ff       	add	-1,a1

000042cb <.LVL454>:
    42cb:	8e          	mov	d3,d2
    42cc:	16          	extbu	d2
    42cd:	aa 39       	cmp	57,d2
    42cf:	c8 05       	beq	42d4 <.L0_100>
    42d1:	cc b5 02    	jmp	4586 <.L325>

000042d4 <.L0_100>:
    42d4:	f1 a4       	cmp	d1,a0
    42d6:	c8 1c       	beq	42f2 <.L103>
    42d8:	f8 4c fe    	movbu	(-2,a0),d3
    42db:	94          	mov	a1,a0
    42dc:	ca ea       	bra	42c6 <.L104>

000042de <.L117>:
    42de:	5e 28       	mov	(40,sp),a2
    42e0:	4b 0c       	mov	a2,(12,sp)
    42e2:	f1 dc       	mov	a3,d0
    42e4:	59 30       	mov	(48,sp),d1
    42e6:	dd 19 19 00 	call	5bff <___pow5mult>,[],0
    42ea:	00 00 00 

000042ed <.LVL456>:
    42ed:	43 30       	mov	a0,(48,sp)

000042ef <.LVL457>:
    42ef:	cc e9 f8    	jmp	3bd8 <.L0_49>

000042f2 <.L103>:
    42f2:	42 38       	mov	d0,(56,sp)

000042f4 <.Loc.582.1>:
    42f4:	5a 40       	mov	(64,sp),d2
    42f6:	48          	inc	d2
    42f7:	4a 40       	mov	d2,(64,sp)

000042f9 <.LVL459>:
    42f9:	80 30       	mov	48,d0
    42fb:	f0 51       	movbu	d0,(a1)

000042fd <.Loc.584.1>:
    42fd:	80 31       	mov	49,d0

000042ff <.Loc.586.1>:
    42ff:	f0 51       	movbu	d0,(a1)

00004301 <.LVL460>:
    4301:	cc d3 f6    	jmp	39d4 <.L83>

00004304 <.L169>:
    4304:	08          	clr	d2

00004305 <.LVL462>:
    4305:	4a 54       	mov	d2,(84,sp)

00004307 <.LVL463>:
    4307:	5c a8       	mov	(168,sp),a0
    4309:	5a 40       	mov	(64,sp),d2

0000430b <.LVL464>:
    430b:	f1 68       	add	d2,a0
    430d:	43 64       	mov	a0,(100,sp)
    430f:	f1 d2       	mov	a0,d2
    4311:	48          	inc	d2

00004312 <.LVL465>:
    4312:	4a 44       	mov	d2,(68,sp)
    4314:	aa 00       	cmp	0,d2
    4316:	c3 05       	ble	431b <.L0_101>
    4318:	cc df f2    	jmp	35f7 <.L0_19>

0000431b <.L0_101>:
    431b:	cc c0 fc    	jmp	3fdb <.L61>

0000431e <.L58>:
    431e:	9a 01       	mov	1,a2
    4320:	4b 54       	mov	a2,(84,sp)
    4322:	cc af fb    	jmp	3ed1 <.L56>

00004325 <.L112>:
    4325:	81          	mov	d0,d1
    4326:	5b 28       	mov	(40,sp),d3
    4328:	f1 0d       	sub	d3,d1

0000432a <.LVL468>:
    432a:	5d 58       	mov	(88,sp),a1
    432c:	f1 65       	add	d1,a1
    432e:	47 58       	mov	a1,(88,sp)

00004330 <.LVL469>:
    4330:	42 28       	mov	d0,(40,sp)

00004332 <.Loc.622.1>:
    4332:	0c          	clr	d3
    4333:	cc 16 f8    	jmp	3b49 <.L113>

00004336 <.L172>:
    4336:	5e 34       	mov	(52,sp),a2
    4338:	4b 38       	mov	a2,(56,sp)
    433a:	5d 24       	mov	(36,sp),a1
    433c:	47 60       	mov	a1,(96,sp)

0000433e <.Loc.441.1>:
    433e:	95 02       	mov	2,a1
    4340:	cc 3e f3    	jmp	367e <.L68>

00004343 <.L284>:
    4343:	4a 0c       	mov	d2,(12,sp)
    4345:	4e 10       	mov	d3,(16,sp)
    4347:	58 2c       	mov	(44,sp),d0
    4349:	59 28       	mov	(40,sp),d1
    434b:	47 18       	mov	a1,(24,sp)
    434d:	dd d3 49 00 	call	8d20 <___eqdf2>,[],0
    4351:	00 00 00 

00004354 <.LVL472>:
    4354:	5d 18       	mov	(24,sp),a1

00004356 <.LVL473>:
    4356:	a0 00       	cmp	0,d0
    4358:	c8 05       	beq	435d <.L0_102>
    435a:	cc 7a f6    	jmp	39d4 <.L83>

0000435d <.L0_102>:
    435d:	f1 d4       	mov	a1,d0
    435f:	f8 e0 01    	and	1,d0
    4362:	c9 05       	bne	4367 <.L0_103>
    4364:	cc 70 f6    	jmp	39d4 <.L83>

00004367 <.L0_103>:
    4367:	5d 38       	mov	(56,sp),a1

00004369 <.LVL474>:
    4369:	f8 41 ff    	movbu	(-1,a1),d0
    436c:	f1 e2       	mov	d0,a2

0000436e <.LVL475>:
    436e:	5c 38       	mov	(56,sp),a0

00004370 <.Loc.206.2>:
    4370:	59 20       	mov	(32,sp),d1
    4372:	44          	inc	d1
    4373:	f1 db       	mov	a2,d3
    4375:	cc 51 ff    	jmp	42c6 <.L104>

00004378 <.L67>:
    4378:	5a 40       	mov	(64,sp),d2

0000437a <.LVL477>:
    437a:	f2 32       	not	d2
    437c:	2a 01       	add	1,d2

0000437e <.LVL478>:
    437e:	c9 05       	bne	4383 <.L0_104>
    4380:	cc 38 02    	jmp	45b8 <.L173>

00004383 <.L0_104>:
    4383:	88          	mov	d2,d0
    4384:	f8 e0 0f    	and	15,d0
    4387:	54          	asl2	d0
    4388:	e0          	add	d0,d0
    4389:	f1 e0       	mov	d0,a0

0000438b <.LVL479>:
    438b:	fc d0 88 97 	add	38792,a0
    438f:	00 00 
    4391:	74          	mov	(a0),d1
    4392:	f8 00 04    	mov	(4,a0),d0
    4395:	46 0c       	mov	d1,(12,sp)
    4397:	42 10       	mov	d0,(16,sp)
    4399:	58 34       	mov	(52,sp),d0
    439b:	59 24       	mov	(36,sp),d1
    439d:	dd db 45 00 	call	8978 <___muldf3>,[],0
    43a1:	00 00 00 
    43a4:	83          	mov	d0,d3

000043a5 <.LVL481>:
    43a5:	f1 e6       	mov	d1,a2

000043a7 <.Loc.464.1>:
    43a7:	f8 ca 04    	asr	4,d2

000043aa <.LVL482>:
    43aa:	aa 00       	cmp	0,d2
    43ac:	c9 05       	bne	43b1 <.L0_105>
    43ae:	cc bf 02    	jmp	466d <.L174>

000043b1 <.L0_105>:
    43b1:	fc dc 60 97 	mov	38752,a0
    43b5:	00 00 

000043b7 <.Loc.441.1>:
    43b7:	95 02       	mov	2,a1
    43b9:	92          	mov	a0,a2

000043ba <.L74>:
    43ba:	8b          	mov	d2,d3
    43bb:	f8 e3 01    	and	1,d3
    43be:	c8 17       	beq	43d5 <.L73>

000043c0 <.Loc.467.1>:
    43c0:	45          	inc	a1

000043c1 <.LVL484>:
    43c1:	f0 02       	mov	(a2),a0
    43c3:	43 0c       	mov	a0,(12,sp)
    43c5:	f8 22 04    	mov	(4,a2),a0
    43c8:	43 10       	mov	a0,(16,sp)
    43ca:	47 18       	mov	a1,(24,sp)
    43cc:	dd ac 45 00 	call	8978 <___muldf3>,[],0
    43d0:	00 00 00 

000043d3 <.LVL485>:
    43d3:	5d 18       	mov	(24,sp),a1

000043d5 <.L73>:
    43d5:	f8 ca 01    	asr	1,d2
    43d8:	22 08       	add	8,a2
    43da:	aa 00       	cmp	0,d2
    43dc:	c9 de       	bne	43ba <.L74>
    43de:	83          	mov	d0,d3
    43df:	f1 e6       	mov	d1,a2
    43e1:	cc eb f2    	jmp	36cc <.L72>

000043e4 <.L314>:
    43e4:	f1 dc       	mov	a3,d0
    43e6:	5e 4c       	mov	(76,sp),a2
    43e8:	f8 06 04    	mov	(4,a2),d1
    43eb:	dd 2b 14 00 	call	5816 <__Balloc>,[],0
    43ef:	00 00 00 

000043f2 <.LVL489>:
    43f2:	f1 d2       	mov	a0,d2

000043f4 <.LVL490>:
    43f4:	f8 02 10    	mov	(16,a2),d0
    43f7:	28 02       	add	2,d0
    43f9:	54          	asl2	d0
    43fa:	42 0c       	mov	d0,(12,sp)
    43fc:	f1 d0       	mov	a0,d0
    43fe:	28 0c       	add	12,d0
    4400:	f1 d9       	mov	a2,d1
    4402:	29 0c       	add	12,d1
    4404:	dd bb 13 00 	call	57bf <_memcpy>,[],0
    4408:	00 00 00 

0000440b <.LVL491>:
    440b:	80 01       	mov	1,d0
    440d:	42 0c       	mov	d0,(12,sp)
    440f:	f1 dc       	mov	a3,d0
    4411:	89          	mov	d2,d1
    4412:	dd b5 18 00 	call	5cc7 <___lshift>,[],0
    4416:	00 00 00 

00004419 <.LVL492>:
    4419:	43 24       	mov	a0,(36,sp)

0000441b <.LVL493>:
    441b:	5e 20       	mov	(32,sp),a2

0000441d <.Loc.206.2>:
    441d:	f1 d8       	mov	a2,d0
    441f:	28 ff       	add	-1,d0
    4421:	5b 44       	mov	(68,sp),d3

00004423 <.LVL494>:
    4423:	e3          	add	d0,d3
    4424:	4e 44       	mov	d3,(68,sp)
    4426:	5a 4c       	mov	(76,sp),d2

00004428 <.Loc.766.1>:
    4428:	5b 34       	mov	(52,sp),d3
    442a:	f8 e3 01    	and	1,d3
    442d:	4e 34       	mov	d3,(52,sp)
    442f:	cc 7e f8    	jmp	3cad <.L149>

00004432 <.L320>:
    4432:	43 38       	mov	a0,(56,sp)

00004434 <.Loc.840.1>:
    4434:	40          	inc	d0
    4435:	f0 51       	movbu	d0,(a1)

00004437 <.LVL496>:
    4437:	cc b3 f9    	jmp	3dea <.L138>

0000443a <.L316>:
    443a:	af 39       	cmp	57,d3
    443c:	c9 05       	bne	4441 <.L0_106>
    443e:	cc c4 fc    	jmp	4102 <.L0_90>

00004441 <.L0_106>:
    4441:	58 3c       	mov	(60,sp),d0
    4443:	40          	inc	d0
    4444:	f0 52       	movbu	d0,(a2)
    4446:	49          	inc	a2

00004447 <.LVL498>:
    4447:	4b 38       	mov	a2,(56,sp)

00004449 <.LVL499>:
    4449:	5e 24       	mov	(36,sp),a2

0000444b <.LVL500>:
    444b:	4b 4c       	mov	a2,(76,sp)
    444d:	cc 9d f9    	jmp	3dea <.L138>

00004450 <.L196>:
    4450:	4e 38       	mov	d3,(56,sp)

00004452 <.Loc.805.1>:
    4452:	5b 24       	mov	(36,sp),d3

00004454 <.LVL502>:
    4454:	4e 4c       	mov	d3,(76,sp)

00004456 <.LVL503>:
    4456:	80 01       	mov	1,d0
    4458:	42 0c       	mov	d0,(12,sp)
    445a:	f1 dc       	mov	a3,d0
    445c:	59 30       	mov	(48,sp),d1
    445e:	dd 69 18 00 	call	5cc7 <___lshift>,[],0
    4462:	00 00 00 

00004465 <.LVL504>:
    4465:	43 30       	mov	a0,(48,sp)

00004467 <.LVL505>:
    4467:	f1 d0       	mov	a0,d0
    4469:	59 28       	mov	(40,sp),d1
    446b:	dd 0a 19 00 	call	5d75 <___mcmp>,[],0
    446f:	00 00 00 

00004472 <.LVL506>:
    4472:	a0 00       	cmp	0,d0
    4474:	c3 05       	ble	4479 <.L0_107>
    4476:	cc af fd    	jmp	4225 <.L152>

00004479 <.L0_107>:
    4479:	cc bb fd    	jmp	4234 <.L323>

0000447c <.L82>:
    447c:	70          	mov	(a0),d0
    447d:	f8 04 04    	mov	(4,a0),d1
    4480:	4a 0c       	mov	d2,(12,sp)
    4482:	5a 38       	mov	(56,sp),d2
    4484:	4a 10       	mov	d2,(16,sp)
    4486:	dd f2 44 00 	call	8978 <___muldf3>,[],0
    448a:	00 00 00 
    448d:	42 6c       	mov	d0,(108,sp)
    448f:	46 70       	mov	d1,(112,sp)

00004491 <.LVL509>:
    4491:	8c          	mov	d3,d0
    4492:	f1 d9       	mov	a2,d1
    4494:	dd f6 4a 00 	call	8f8a <___fixdfsi>,[],0
    4498:	00 00 00 
    449b:	82          	mov	d0,d2

0000449c <.LVL511>:
    449c:	dd 2d 4a 00 	call	8ec9 <___floatsidf>,[],0
    44a0:	00 00 00 

000044a3 <.LVL512>:
    44a3:	42 0c       	mov	d0,(12,sp)
    44a5:	46 10       	mov	d1,(16,sp)
    44a7:	8c          	mov	d3,d0
    44a8:	f1 d9       	mov	a2,d1
    44aa:	dd 76 44 00 	call	8920 <___subdf3>,[],0
    44ae:	00 00 00 
    44b1:	83          	mov	d0,d3
    44b2:	f1 e4       	mov	d1,a0

000044b4 <.Loc.523.1>:
    44b4:	2a 30       	add	48,d2

000044b6 <.LVL514>:
    44b6:	5d 20       	mov	(32,sp),a1
    44b8:	f0 59       	movbu	d2,(a1)
    44ba:	45          	inc	a1
    44bb:	47 38       	mov	a1,(56,sp)

000044bd <.LVL515>:
    44bd:	5a 68       	mov	(104,sp),d2

000044bf <.LVL516>:
    44bf:	aa 01       	cmp	1,d2
    44c1:	c8 59       	beq	451a <.L93>

000044c3 <.Loc.206.2>:
    44c3:	5d 20       	mov	(32,sp),a1

000044c5 <.LVL517>:
    44c5:	5a 68       	mov	(104,sp),d2
    44c7:	f1 69       	add	d2,a1
    44c9:	47 60       	mov	a1,(96,sp)

000044cb <.Loc.523.1>:
    44cb:	5e 38       	mov	(56,sp),a2

000044cd <.Loc.519.1>:
    44cd:	4f 74       	mov	a3,(116,sp)

000044cf <.L92>:
    44cf:	08          	clr	d2
    44d0:	4a 0c       	mov	d2,(12,sp)
    44d2:	fc cf 00 00 	mov	1076101120,d3
    44d6:	24 40 
    44d8:	4e 10       	mov	d3,(16,sp)
    44da:	dd 9e 44 00 	call	8978 <___muldf3>,[],0
    44de:	00 00 00 
    44e1:	83          	mov	d0,d3
    44e2:	f1 e7       	mov	d1,a3

000044e4 <.Loc.521.1>:
    44e4:	dd a6 4a 00 	call	8f8a <___fixdfsi>,[],0
    44e8:	00 00 00 
    44eb:	82          	mov	d0,d2

000044ec <.LVL521>:
    44ec:	dd dd 49 00 	call	8ec9 <___floatsidf>,[],0
    44f0:	00 00 00 

000044f3 <.LVL522>:
    44f3:	42 0c       	mov	d0,(12,sp)
    44f5:	46 10       	mov	d1,(16,sp)
    44f7:	8c          	mov	d3,d0
    44f8:	f1 dd       	mov	a3,d1
    44fa:	dd 26 44 00 	call	8920 <___subdf3>,[],0
    44fe:	00 00 00 

00004501 <.Loc.523.1>:
    4501:	2a 30       	add	48,d2

00004503 <.LVL524>:
    4503:	f0 5a       	movbu	d2,(a2)
    4505:	49          	inc	a2

00004506 <.Loc.524.1>:
    4506:	5c 60       	mov	(96,sp),a0
    4508:	b2          	cmp	a0,a2
    4509:	c9 c6       	bne	44cf <.L92>
    450b:	5f 74       	mov	(116,sp),a3
    450d:	83          	mov	d0,d3
    450e:	f1 e4       	mov	d1,a0

00004510 <.Loc.206.2>:
    4510:	58 68       	mov	(104,sp),d0
    4512:	28 ff       	add	-1,d0
    4514:	5d 38       	mov	(56,sp),a1
    4516:	f1 61       	add	d0,a1
    4518:	47 38       	mov	a1,(56,sp)

0000451a <.L93>:
    451a:	08          	clr	d2
    451b:	fc de 00 00 	mov	1071644672,a2
    451f:	e0 3f 
    4521:	4a 0c       	mov	d2,(12,sp)
    4523:	4b 10       	mov	a2,(16,sp)
    4525:	58 6c       	mov	(108,sp),d0
    4527:	59 70       	mov	(112,sp),d1
    4529:	43 1c       	mov	a0,(28,sp)
    452b:	dd a5 43 00 	call	88d0 <___adddf3>,[],0
    452f:	00 00 00 
    4532:	4e 0c       	mov	d3,(12,sp)
    4534:	5c 1c       	mov	(28,sp),a0
    4536:	43 10       	mov	a0,(16,sp)
    4538:	dd 3c 49 00 	call	8e74 <___ltdf2>,[],0
    453c:	00 00 00 
    453f:	5c 1c       	mov	(28,sp),a0
    4541:	a8          	cmp	d2,d0
    4542:	c2 7f       	bge	45c1 <.L282>
    4544:	5d 38       	mov	(56,sp),a1
    4546:	f8 4d ff    	movbu	(-1,a1),d3
    4549:	f1 ee       	mov	d3,a2
    454b:	5a 78       	mov	(120,sp),d2
    454d:	4a 40       	mov	d2,(64,sp)
    454f:	5c 38       	mov	(56,sp),a0

00004551 <.Loc.206.2>:
    4551:	59 20       	mov	(32,sp),d1
    4553:	44          	inc	d1
    4554:	f1 db       	mov	a2,d3
    4556:	cc 70 fd    	jmp	42c6 <.L104>

00004559 <.L176>:
    4559:	9a 00       	mov	0,a2
    455b:	4b 28       	mov	a2,(40,sp)
    455d:	4b 4c       	mov	a2,(76,sp)
    455f:	cc 00 fa    	jmp	3f5f <.L0_78>

00004562 <.L324>:
    4562:	43 38       	mov	a0,(56,sp)
    4564:	cc 86 f8    	jmp	3dea <.L138>

00004567 <.L306>:
    4567:	f1 1a       	sub	a2,d2

00004569 <.LVL532>:
	...

0000456a <.LVL533>:
    456a:	5d 50       	mov	(80,sp),a1
    456c:	f1 61       	add	d0,a1
    456e:	47 50       	mov	a1,(80,sp)

00004570 <.LVL534>:
    4570:	5e 48       	mov	(72,sp),a2
    4572:	f1 62       	add	d0,a2
    4574:	4b 48       	mov	a2,(72,sp)

00004576 <.LVL535>:
    4576:	f1 dc       	mov	a3,d0

00004578 <.LVL536>:
    4578:	85 01       	mov	1,d1
    457a:	dd 29 15 00 	call	5aa3 <___i2b>,[],0
    457e:	00 00 00 

00004581 <.LVL537>:
    4581:	43 4c       	mov	a0,(76,sp)

00004583 <.LVL538>:
    4583:	cc ec f5    	jmp	3b6f <.L108>

00004586 <.L325>:
    4586:	f1 ee       	mov	d3,a2
    4588:	43 38       	mov	a0,(56,sp)
    458a:	f1 d8       	mov	a2,d0
    458c:	40          	inc	d0

0000458d <.Loc.586.1>:
    458d:	f0 51       	movbu	d0,(a1)

0000458f <.LVL540>:
    458f:	cc 45 f4    	jmp	39d4 <.L83>

00004592 <.L110>:
    4592:	80 36       	mov	54,d0
    4594:	59 7c       	mov	(124,sp),d1
    4596:	f1 04       	sub	d1,d0
    4598:	5b 28       	mov	(40,sp),d3

0000459a <.Loc.596.1>:
    459a:	5a 50       	mov	(80,sp),d2

0000459c <.LVL542>:
    459c:	5d 50       	mov	(80,sp),a1
    459e:	f1 61       	add	d0,a1
    45a0:	47 50       	mov	a1,(80,sp)

000045a2 <.LVL543>:
    45a2:	5e 48       	mov	(72,sp),a2
    45a4:	f1 62       	add	d0,a2
    45a6:	4b 48       	mov	a2,(72,sp)

000045a8 <.LVL544>:
    45a8:	f1 dc       	mov	a3,d0

000045aa <.LVL545>:
    45aa:	85 01       	mov	1,d1

000045ac <.LVL546>:
    45ac:	dd f7 14 00 	call	5aa3 <___i2b>,[],0
    45b0:	00 00 00 

000045b3 <.LVL547>:
    45b3:	43 4c       	mov	a0,(76,sp)

000045b5 <.LVL548>:
    45b5:	cc ba f5    	jmp	3b6f <.L108>

000045b8 <.L173>:
    45b8:	5b 34       	mov	(52,sp),d3

000045ba <.LVL550>:
    45ba:	5e 24       	mov	(36,sp),a2

000045bc <.Loc.441.1>:
    45bc:	95 02       	mov	2,a1
    45be:	cc 0e f1    	jmp	36cc <.L72>

000045c1 <.L282>:
    45c1:	5d 6c       	mov	(108,sp),a1
    45c3:	47 0c       	mov	a1,(12,sp)
    45c5:	5d 70       	mov	(112,sp),a1
    45c7:	47 10       	mov	a1,(16,sp)
    45c9:	88          	mov	d2,d0
    45ca:	f1 d9       	mov	a2,d1
    45cc:	43 1c       	mov	a0,(28,sp)
    45ce:	dd 52 43 00 	call	8920 <___subdf3>,[],0
    45d2:	00 00 00 
    45d5:	4e 0c       	mov	d3,(12,sp)
    45d7:	5c 1c       	mov	(28,sp),a0
    45d9:	43 10       	mov	a0,(16,sp)
    45db:	dd ef 47 00 	call	8dca <___gtdf2>,[],0
    45df:	00 00 00 
    45e2:	a0 00       	cmp	0,d0
    45e4:	c1 05       	bgt	45e9 <.L0_108>
    45e6:	cc b4 f2    	jmp	389a <.L66>

000045e9 <.L0_108>:
    45e9:	5c 38       	mov	(56,sp),a0

000045eb <.L255>:
    45eb:	f1 d1       	mov	a0,d1
    45ed:	29 ff       	add	-1,d1

000045ef <.LVL555>:
    45ef:	f8 40 ff    	movbu	(-1,a0),d0
    45f2:	a0 30       	cmp	48,d0
    45f4:	c9 29       	bne	461d <.L326>

000045f6 <.Loc.530.1>:
    45f6:	f1 e4       	mov	d1,a0
    45f8:	ca f3       	bra	45eb <.L255>

000045fa <.L180>:
    45fa:	f8 ba 68    	movbu	(104,sp),d2
    45fd:	f1 ea       	mov	d2,a2
    45ff:	5f 74       	mov	(116,sp),a3

00004601 <.L291>:
    4601:	5b 78       	mov	(120,sp),d3
    4603:	4e 40       	mov	d3,(64,sp)
    4605:	5c 38       	mov	(56,sp),a0

00004607 <.Loc.206.2>:
    4607:	59 20       	mov	(32,sp),d1
    4609:	44          	inc	d1
    460a:	f1 db       	mov	a2,d3
    460c:	cc ba fc    	jmp	42c6 <.L104>

0000460f <.L301>:
    460f:	5f 74       	mov	(116,sp),a3

00004611 <.Loc.504.1>:
    4611:	5b 78       	mov	(120,sp),d3
    4613:	4e 40       	mov	d3,(64,sp)
    4615:	cc bf f3    	jmp	39d4 <.L83>

00004618 <.L190>:
    4618:	5b 34       	mov	(52,sp),d3
    461a:	cc ea f5    	jmp	3c04 <.L120>

0000461d <.L326>:
    461d:	43 38       	mov	a0,(56,sp)

0000461f <.Loc.530.1>:
    461f:	5e 78       	mov	(120,sp),a2
    4621:	4b 40       	mov	a2,(64,sp)
    4623:	cc b1 f3    	jmp	39d4 <.L83>

00004626 <.L184>:
    4626:	5a 44       	mov	(68,sp),d2
    4628:	4a 28       	mov	d2,(40,sp)
    462a:	4a 4c       	mov	d2,(76,sp)

0000462c <.LVL562>:
    462c:	58 a8       	mov	(168,sp),d0
    462e:	f2 30       	not	d0
    4630:	42 40       	mov	d0,(64,sp)

00004632 <.LVL563>:
    4632:	5d 20       	mov	(32,sp),a1
    4634:	47 38       	mov	a1,(56,sp)
    4636:	cc 37 f9    	jmp	3f6d <.L129>

00004639 <.L183>:
    4639:	9a 00       	mov	0,a2
    463b:	4b 28       	mov	a2,(40,sp)
    463d:	4b 4c       	mov	a2,(76,sp)

0000463f <.LVL565>:
    463f:	58 a8       	mov	(168,sp),d0
    4641:	f2 30       	not	d0
    4643:	42 40       	mov	d0,(64,sp)

00004645 <.LVL566>:
    4645:	5d 20       	mov	(32,sp),a1
    4647:	47 38       	mov	a1,(56,sp)
    4649:	cc 24 f9    	jmp	3f6d <.L129>

0000464c <.L318>:
    464c:	47 0c       	mov	a1,(12,sp)
    464e:	4b 10       	mov	a2,(16,sp)
    4650:	f1 dc       	mov	a3,d0
    4652:	59 4c       	mov	(76,sp),d1
    4654:	dd 4b 12 00 	call	589f <___multadd>,[],0
    4658:	00 00 00 

0000465b <.LVL568>:
    465b:	43 4c       	mov	a0,(76,sp)

0000465d <.LVL569>:
    465d:	5d 64       	mov	(100,sp),a1
    465f:	47 44       	mov	a1,(68,sp)

00004661 <.LVL570>:
    4661:	5d 44       	mov	(68,sp),a1
    4663:	b5 00       	cmp	0,a1
    4665:	c3 05       	ble	466a <.L0_109>
    4667:	cc 0b f6    	jmp	3c72 <.L0_55>

0000466a <.L0_109>:
    466a:	cc c0 f8    	jmp	3f2a <.L0_75>

0000466d <.L174>:
    466d:	95 02       	mov	2,a1
    466f:	cc 5d f0    	jmp	36cc <.L72>

00004672 <.L178>:
    4672:	5a 78       	mov	(120,sp),d2
    4674:	4a 40       	mov	d2,(64,sp)
    4676:	cc 5e f3    	jmp	39d4 <.L83>

00004679 <.L123>:
    4679:	c9 05       	bne	467e <.L0_110>
    467b:	cc bb f5    	jmp	3c36 <.L124>

0000467e <.L0_110>:
    467e:	85 3c       	mov	60,d1

00004680 <.LVL574>:
    4680:	f1 01       	sub	d0,d1

00004682 <.LVL575>:
    4682:	5d 50       	mov	(80,sp),a1
    4684:	f1 65       	add	d1,a1
    4686:	47 50       	mov	a1,(80,sp)

00004688 <.LVL576>:
    4688:	e6          	add	d1,d2

00004689 <.Loc.707.1>:
    4689:	5e 48       	mov	(72,sp),a2
    468b:	f1 66       	add	d1,a2
    468d:	4b 48       	mov	a2,(72,sp)

0000468f <.LVL578>:
    468f:	cc a7 f5    	jmp	3c36 <.L124>

00004692 <___sflush_r>:
    4692:	cf f0       	movm	[d2,d3,a2,a3],(sp)

00004694 <.LCFI0>:
    4694:	f8 fe ec    	add	-20,sp

00004697 <.LCFI1>:
    4697:	f1 e3       	mov	d0,a3
    4699:	f1 e6       	mov	d1,a2

0000469b <.Loc.80.1>:
    469b:	f8 62 0c    	movhu	(12,a2),d0

0000469e <.LVL1>:
    469e:	81          	mov	d0,d1

0000469f <.LVL2>:
    469f:	f8 e1 08    	and	8,d1
    46a2:	19          	exth	d1
    46a3:	a5 00       	cmp	0,d1
    46a5:	c8 05       	beq	46aa <.L0_0>
    46a7:	cc a2 00    	jmp	4749 <.L2>

000046aa <.L0_0>:
    46aa:	81          	mov	d0,d1
    46ab:	fa e5 00 08 	or	2048,d1
    46af:	87          	mov	d1,d3
    46b0:	f8 76 0c    	movhu	d1,(12,a2)

000046b3 <.Loc.95.1>:
    46b3:	f8 06 04    	mov	(4,a2),d1
    46b6:	a5 00       	cmp	0,d1
    46b8:	c1 05       	bgt	46bd <.L0_1>
    46ba:	cc de 00    	jmp	4798 <.L56>

000046bd <.L0_1>:
    46bd:	f8 22 28    	mov	(40,a2),a0
    46c0:	b0 00       	cmp	0,a0
    46c2:	c9 05       	bne	46c7 <.L0_2>
    46c4:	cc b8 00    	jmp	477c <.L54>

000046c7 <.L0_2>:
    46c7:	7b          	mov	(a3),d2

000046c8 <.LVL3>:
    46c8:	04          	clr	d1
    46c9:	67          	mov	d1,(a3)

000046ca <.Loc.110.1>:
    46ca:	fa e0 00 10 	and	4096,d0

000046ce <.LVL4>:
    46ce:	18          	exth	d0
    46cf:	a4          	cmp	d1,d0
    46d0:	c9 05       	bne	46d5 <.L0_3>
    46d2:	cc d3 00    	jmp	47a5 <.L6>

000046d5 <.L0_3>:
    46d5:	f8 02 50    	mov	(80,a2),d0

000046d8 <.L7>:
    46d8:	f8 e3 04    	and	4,d3
    46db:	1b          	exth	d3
    46dc:	af 00       	cmp	0,d3
    46de:	c8 13       	beq	46f1 <.L12>

000046e0 <.Loc.139.1>:
    46e0:	f8 06 04    	mov	(4,a2),d1
    46e3:	f1 04       	sub	d1,d0

000046e5 <.Loc.140.1>:
    46e5:	f8 06 30    	mov	(48,a2),d1
    46e8:	a5 00       	cmp	0,d1
    46ea:	c8 07       	beq	46f1 <.L12>

000046ec <.Loc.141.1>:
    46ec:	f8 06 3c    	mov	(60,a2),d1
    46ef:	f1 04       	sub	d1,d0

000046f1 <.L12>:
    46f1:	f8 06 1c    	mov	(28,a2),d1
    46f4:	42 0c       	mov	d0,(12,sp)
    46f6:	0c          	clr	d3
    46f7:	4e 10       	mov	d3,(16,sp)
    46f9:	f1 dc       	mov	a3,d0

000046fb <.LVL8>:
    46fb:	f0 f0       	calls	(a0)

000046fd <.LVL9>:
    46fd:	a0 ff       	cmp	-1,d0
    46ff:	c9 05       	bne	4704 <.L0_4>
    4701:	cc be 00    	jmp	47bf <.L57>

00004704 <.L0_4>:
    4704:	f8 66 0c    	movhu	(12,a2),d1
    4707:	f2 f6       	mov	d1,mdr
    4709:	f2 e1       	mov	mdr,d1
    470b:	fc e1 ff f7 	and	-2049,d1
    470f:	ff ff 
    4711:	f8 76 0c    	movhu	d1,(12,a2)

00004714 <.Loc.156.1>:
    4714:	f8 1e 04    	mov	d3,(4,a2)

00004717 <.Loc.157.1>:
    4717:	f8 22 10    	mov	(16,a2),a0
    471a:	f0 12       	mov	a0,(a2)

0000471c <.L53>:
    471c:	f2 e1       	mov	mdr,d1
    471e:	fa e1 00 10 	and	4096,d1
    4722:	19          	exth	d1
    4723:	a5 00       	cmp	0,d1
    4725:	c8 05       	beq	472a <.L17>

00004727 <.Loc.159.1>:
    4727:	f8 12 50    	mov	d0,(80,a2)

0000472a <.L17>:
    472a:	6b          	mov	d2,(a3)

0000472b <.Loc.161.1>:
    472b:	f8 06 30    	mov	(48,a2),d1
    472e:	a5 00       	cmp	0,d1
    4730:	c8 4c       	beq	477c <.L54>

00004732 <.Loc.162.1>:
    4732:	f1 d8       	mov	a2,d0
    4734:	28 40       	add	64,d0
    4736:	a1          	cmp	d0,d1
    4737:	c8 0b       	beq	4742 <.L18>

00004739 <.Loc.162.1>:
    4739:	f1 dc       	mov	a3,d0
    473b:	dd 19 04 00 	call	4b54 <__free_r>,[],0
    473f:	00 00 00 

00004742 <.L18>:
    4742:	00          	clr	d0
    4743:	f8 12 30    	mov	d0,(48,a2)

00004746 <.LBE2>:
    4746:	df f0 24    	ret	[d2,d3,a2,a3],36

00004749 <.L2>:
    4749:	f8 0e 10    	mov	(16,a2),d3

0000474c <.LVL13>:
    474c:	af 00       	cmp	0,d3
    474e:	c8 2e       	beq	477c <.L54>

00004750 <.Loc.177.1>:
    4750:	7a          	mov	(a2),d2
    4751:	f1 0e       	sub	d3,d2

00004753 <.LVL14>:
    4753:	6e          	mov	d3,(a2)

00004754 <.Loc.185.1>:
    4754:	f8 e0 03    	and	3,d0

00004757 <.LVL15>:
    4757:	c9 29       	bne	4780 <.L24>

00004759 <.Loc.185.1>:
    4759:	f8 02 14    	mov	(20,a2),d0
    475c:	f8 12 08    	mov	d0,(8,a2)

0000475f <.Loc.187.1>:
    475f:	aa 00       	cmp	0,d2
    4761:	c3 1b       	ble	477c <.L54>

00004763 <.L41>:
    4763:	f8 06 1c    	mov	(28,a2),d1
    4766:	4e 0c       	mov	d3,(12,sp)
    4768:	4a 10       	mov	d2,(16,sp)
    476a:	f8 22 24    	mov	(36,a2),a0
    476d:	f1 dc       	mov	a3,d0
    476f:	f0 f0       	calls	(a0)

00004771 <.LVL17>:
    4771:	a0 00       	cmp	0,d0
    4773:	c3 17       	ble	478a <.L58>

00004775 <.Loc.195.1>:
    4775:	e3          	add	d0,d3

00004776 <.Loc.196.1>:
    4776:	f1 02       	sub	d0,d2

00004778 <.Loc.187.1>:
    4778:	aa 00       	cmp	0,d2
    477a:	c1 e9       	bgt	4763 <.L41>

0000477c <.L54>:
	...

0000477d <.L59>:
    477d:	df f0 24    	ret	[d2,d3,a2,a3],36

00004780 <.L24>:
    4780:	00          	clr	d0
    4781:	f8 12 08    	mov	d0,(8,a2)

00004784 <.Loc.187.1>:
    4784:	aa 00       	cmp	0,d2
    4786:	c1 dd       	bgt	4763 <.L41>
    4788:	ca f4       	bra	477c <.L54>

0000478a <.L58>:
    478a:	f8 62 0c    	movhu	(12,a2),d0

0000478d <.LVL23>:
    478d:	f8 e4 40    	or	64,d0
    4790:	f8 72 0c    	movhu	d0,(12,a2)

00004793 <.Loc.193.1>:
    4793:	80 ff       	mov	-1,d0

00004795 <.Loc.199.1>:
    4795:	df f0 24    	ret	[d2,d3,a2,a3],36

00004798 <.L56>:
    4798:	f8 06 3c    	mov	(60,a2),d1
    479b:	a5 00       	cmp	0,d1
    479d:	c3 05       	ble	47a2 <.L0_5>
    479f:	cc 1e ff    	jmp	46bd <.L0_1>

000047a2 <.L0_5>:
	...

000047a3 <.LVL25>:
    47a3:	ca da       	bra	477d <.L59>

000047a5 <.L6>:
    47a5:	f8 06 1c    	mov	(28,a2),d1
    47a8:	42 0c       	mov	d0,(12,sp)
    47aa:	80 01       	mov	1,d0
    47ac:	42 10       	mov	d0,(16,sp)
    47ae:	f1 dc       	mov	a3,d0
    47b0:	f0 f0       	calls	(a0)

000047b2 <.LVL27>:
    47b2:	a0 ff       	cmp	-1,d0
    47b4:	c8 48       	beq	47fc <.L60>

000047b6 <.L8>:
    47b6:	f8 6e 0c    	movhu	(12,a2),d3
    47b9:	f8 22 28    	mov	(40,a2),a0
    47bc:	cc 1c ff    	jmp	46d8 <.L7>

000047bf <.L57>:
    47bf:	77          	mov	(a3),d1
    47c0:	ad          	cmp	d3,d1
    47c1:	c9 1c       	bne	47dd <.L61>

000047c3 <.Loc.155.1>:
    47c3:	f8 6e 0c    	movhu	(12,a2),d3
    47c6:	f2 fe       	mov	d3,mdr
    47c8:	f2 e3       	mov	mdr,d3
    47ca:	fc e3 ff f7 	and	-2049,d3
    47ce:	ff ff 
    47d0:	f8 7e 0c    	movhu	d3,(12,a2)

000047d3 <.Loc.156.1>:
    47d3:	f8 16 04    	mov	d1,(4,a2)

000047d6 <.Loc.157.1>:
    47d6:	f8 06 10    	mov	(16,a2),d1
    47d9:	66          	mov	d1,(a2)
    47da:	cc 42 ff    	jmp	471c <.L53>

000047dd <.L61>:
    47dd:	a5 1d       	cmp	29,d1
    47df:	c8 06       	beq	47e5 <.L15>

000047e1 <.Loc.151.1>:
    47e1:	a5 16       	cmp	22,d1
    47e3:	c9 26       	bne	4809 <.L52>

000047e5 <.L15>:
    47e5:	f8 62 0c    	movhu	(12,a2),d0

000047e8 <.LVL28>:
    47e8:	fc e0 ff f7 	and	-2049,d0
    47ec:	ff ff 
    47ee:	f8 72 0c    	movhu	d0,(12,a2)

000047f1 <.Loc.156.1>:
    47f1:	00          	clr	d0
    47f2:	f8 12 04    	mov	d0,(4,a2)

000047f5 <.Loc.157.1>:
    47f5:	f8 02 10    	mov	(16,a2),d0
    47f8:	62          	mov	d0,(a2)
    47f9:	cc 31 ff    	jmp	472a <.L17>

000047fc <.L60>:
    47fc:	77          	mov	(a3),d1
    47fd:	a5 00       	cmp	0,d1
    47ff:	c8 b7       	beq	47b6 <.L8>

00004801 <.LBB5>:
    4801:	a5 1d       	cmp	29,d1
    4803:	c8 12       	beq	4815 <.L10>

00004805 <.Loc.125.1>:
    4805:	a5 16       	cmp	22,d1
    4807:	c8 0e       	beq	4815 <.L10>

00004809 <.L52>:
    4809:	f8 66 0c    	movhu	(12,a2),d1
    480c:	f8 e5 40    	or	64,d1
    480f:	f8 76 0c    	movhu	d1,(12,a2)

00004812 <.LBE8>:
    4812:	df f0 24    	ret	[d2,d3,a2,a3],36

00004815 <.L10>:
    4815:	6b          	mov	d2,(a3)

00004816 <.Loc.127.1>:
	...

00004817 <.LVL33>:
    4817:	cc 66 ff    	jmp	477d <.L59>

0000481a <__fflush_r>:
    481a:	cf 30       	movm	[a2,a3],(sp)

0000481c <.LCFI2>:
    481c:	f8 fe f4    	add	-12,sp

0000481f <.LCFI3>:
    481f:	f1 e2       	mov	d0,a2
    4821:	f1 e7       	mov	d1,a3

00004823 <.Loc.224.1>:
    4823:	a0 00       	cmp	0,d0
    4825:	c8 09       	beq	482e <.L64>

00004827 <.Loc.224.1>:
    4827:	f8 02 38    	mov	(56,a2),d0

0000482a <.LVL35>:
    482a:	a0 00       	cmp	0,d0
    482c:	c8 19       	beq	4845 <.L71>

0000482e <.L64>:
    482e:	f8 63 0c    	movhu	(12,a3),d0
    4831:	18          	exth	d0
    4832:	a0 00       	cmp	0,d0
    4834:	c9 05       	bne	4839 <.L72>

00004836 <.L65>:
    4836:	df 30 14    	ret	[a2,a3],20

00004839 <.L72>:
    4839:	f1 d8       	mov	a2,d0
    483b:	f1 dd       	mov	a3,d1
    483d:	cd 55 fe 00 	call	4692 <___sflush_r>,[],0
    4841:	00 

00004842 <.LVL37>:
    4842:	df 30 14    	ret	[a2,a3],20

00004845 <.L71>:
    4845:	f1 d8       	mov	a2,d0
    4847:	dd ff 00 00 	call	4946 <___sinit>,[],0
    484b:	00 00 00 

0000484e <.LVL39>:
    484e:	f8 63 0c    	movhu	(12,a3),d0
    4851:	18          	exth	d0
    4852:	a0 00       	cmp	0,d0
    4854:	c8 e2       	beq	4836 <.L65>
    4856:	ca e3       	bra	4839 <.L72>

00004858 <_fflush>:
    4858:	f8 fe f4    	add	-12,sp

0000485b <.LCFI4>:
    485b:	81          	mov	d0,d1

0000485c <.Loc.241.1>:
    485c:	a0 00       	cmp	0,d0
    485e:	c8 10       	beq	486e <.L78>

00004860 <.Loc.244.1>:
    4860:	fc a4 08 9c 	mov	(9c08 <__impure_ptr>),d0
    4864:	00 00 

00004866 <.LVL41>:
    4866:	cd b4 ff 00 	call	481a <__fflush_r>,[],0
    486a:	00 

0000486b <.LVL42>:
    486b:	df 00 0c    	ret	[],12

0000486e <.L78>:
    486e:	fc a4 58 95 	mov	(9558 <__global_impure_ptr>),d0
    4872:	00 00 

00004874 <.LVL44>:
    4874:	fc cd 1a 48 	mov	18458,d1
    4878:	00 00 

0000487a <.LVL45>:
    487a:	dd 9b 05 00 	call	4e15 <__fwalk_reent>,[],0
    487e:	00 00 00 

00004881 <.LVL46>:
    4881:	df 00 0c    	ret	[],12

00004884 <___fp_lock>:
	...

00004885 <.LVL1>:
    4885:	de 00 00    	retf	[],0

00004888 <___fp_unlock>:
	...

00004889 <.LVL3>:
    4889:	de 00 00    	retf	[],0

0000488c <__cleanup_r>:
    488c:	f8 fe f4    	add	-12,sp

0000488f <.LCFI0>:
    488f:	fc cd 84 73 	mov	29572,d1
    4893:	00 00 
    4895:	dd 28 05 00 	call	4dbd <__fwalk>,[],0
    4899:	00 00 00 

0000489c <.LVL5>:
    489c:	df 00 0c    	ret	[],12

0000489f <_std.isra.0>:
    489f:	cf 20       	movm	[a2],(sp)

000048a1 <.LCFI1>:
    48a1:	f8 fe f0    	add	-16,sp

000048a4 <.LCFI2>:
    48a4:	f1 e2       	mov	d0,a2

000048a6 <.Loc.45.1>:
    48a6:	90 00       	mov	0,a0
    48a8:	f0 12       	mov	a0,(a2)

000048aa <.Loc.46.1>:
    48aa:	f8 32 04    	mov	a0,(4,a2)

000048ad <.Loc.47.1>:
    48ad:	f8 32 08    	mov	a0,(8,a2)

000048b0 <.Loc.48.1>:
    48b0:	f8 76 0c    	movhu	d1,(12,a2)

000048b3 <.Loc.49.1>:
    48b3:	f8 32 64    	mov	a0,(100,a2)

000048b6 <.Loc.50.1>:
    48b6:	58 20       	mov	(32,sp),d0

000048b8 <.LVL8>:
    48b8:	f8 72 0e    	movhu	d0,(14,a2)

000048bb <.Loc.51.1>:
    48bb:	f8 32 10    	mov	a0,(16,a2)

000048be <.Loc.52.1>:
    48be:	f8 32 14    	mov	a0,(20,a2)

000048c1 <.Loc.53.1>:
    48c1:	f8 32 18    	mov	a0,(24,a2)

000048c4 <.Loc.54.1>:
    48c4:	80 08       	mov	8,d0
    48c6:	42 0c       	mov	d0,(12,sp)
    48c8:	f1 d8       	mov	a2,d0
    48ca:	28 5c       	add	92,d0
    48cc:	f1 d1       	mov	a0,d1

000048ce <.LVL9>:
    48ce:	dd 17 cd ff 	call	15e5 <_memset>,[],0
    48d2:	ff 00 00 

000048d5 <.LVL10>:
    48d5:	f8 3a 1c    	mov	a2,(28,a2)

000048d8 <.Loc.56.1>:
    48d8:	fc cc 9b 62 	mov	25243,d0
    48dc:	00 00 
    48de:	f8 12 20    	mov	d0,(32,a2)

000048e1 <.Loc.58.1>:
    48e1:	fc cc d6 62 	mov	25302,d0
    48e5:	00 00 
    48e7:	f8 12 24    	mov	d0,(36,a2)

000048ea <.Loc.64.1>:
    48ea:	fc cc 41 63 	mov	25409,d0
    48ee:	00 00 
    48f0:	f8 12 28    	mov	d0,(40,a2)

000048f3 <.Loc.65.1>:
    48f3:	fc cc 7b 63 	mov	25467,d0
    48f7:	00 00 
    48f9:	f8 12 2c    	mov	d0,(44,a2)

000048fc <.Loc.78.1>:
    48fc:	df 20 14    	ret	[a2],20

000048ff <___sfmoreglue>:
    48ff:	cf e0       	movm	[d2,d3,a2],(sp)

00004901 <.LCFI3>:
    4901:	f8 fe f0    	add	-16,sp

00004904 <.LCFI4>:
    4904:	87          	mov	d1,d3

00004905 <.Loc.88.1>:
    4905:	8a 68       	mov	104,d2
    4907:	cb          	nop	
    4908:	cb          	nop	
    4909:	f2 46       	mul	d1,d2
    490b:	89          	mov	d2,d1

0000490c <.LVL12>:
    490c:	29 0c       	add	12,d1
    490e:	dd 11 07 00 	call	501f <__malloc_r>,[],0
    4912:	00 00 00 

00004915 <.LVL13>:
    4915:	92          	mov	a0,a2

00004916 <.LVL14>:
    4916:	b0 00       	cmp	0,a0
    4918:	c8 17       	beq	492f <.L6>

0000491a <.Loc.91.1>:
    491a:	f1 d0       	mov	a0,d0
    491c:	28 0c       	add	12,d0

0000491e <.LVL15>:
    491e:	04          	clr	d1
    491f:	64          	mov	d1,(a0)

00004920 <.Loc.93.1>:
    4920:	f8 1c 04    	mov	d3,(4,a0)

00004923 <.Loc.94.1>:
    4923:	f8 10 08    	mov	d0,(8,a0)

00004926 <.Loc.95.1>:
    4926:	4a 0c       	mov	d2,(12,sp)
    4928:	dd bd cc ff 	call	15e5 <_memset>,[],0
    492c:	ff 00 00 

0000492f <.L6>:
    492f:	98          	mov	a2,a0
    4930:	f1 d8       	mov	a2,d0
    4932:	df e0 1c    	ret	[d2,d3,a2],28

00004935 <__cleanup>:
    4935:	f8 fe f4    	add	-12,sp

00004938 <.LCFI5>:
    4938:	fc a4 58 95 	mov	(9558 <__global_impure_ptr>),d0
    493c:	00 00 
    493e:	cd 4e ff 00 	call	488c <__cleanup_r>,[],0
    4942:	00 

00004943 <.LVL17>:
    4943:	df 00 0c    	ret	[],12

00004946 <___sinit>:
    4946:	cf a0       	movm	[d2,a2],(sp)

00004948 <.LCFI6>:
    4948:	f8 fe f0    	add	-16,sp

0000494b <.LCFI7>:
    494b:	f1 e2       	mov	d0,a2

0000494d <.Loc.187.1>:
    494d:	f8 06 38    	mov	(56,a2),d1
    4950:	a5 00       	cmp	0,d1
    4952:	c8 05       	beq	4957 <.L16>

00004954 <.Loc.228.1>:
    4954:	df a0 18    	ret	[d2,a2],24

00004957 <.L16>:
    4957:	fc cc 8c 48 	mov	18572,d0
    495b:	00 00 

0000495d <.LVL19>:
    495d:	f8 12 3c    	mov	d0,(60,a2)

00004960 <.Loc.195.1>:
    4960:	8a 01       	mov	1,d2
    4962:	f8 1a 38    	mov	d2,(56,a2)

00004965 <.Loc.197.1>:
    4965:	fa 16 e0 02 	mov	d1,(736,a2)

00004969 <.Loc.199.1>:
    4969:	80 03       	mov	3,d0
    496b:	fa 12 e4 02 	mov	d0,(740,a2)

0000496f <.Loc.200.1>:
    496f:	f1 d8       	mov	a2,d0
    4971:	fa c0 ec 02 	add	748,d0
    4975:	fa 12 e8 02 	mov	d0,(744,a2)

00004979 <.Loc.209.1>:
    4979:	f8 02 04    	mov	(4,a2),d0
    497c:	46 0c       	mov	d1,(12,sp)
    497e:	85 04       	mov	4,d1
    4980:	cd 1f ff 00 	call	489f <_std.isra.0>,[],0
    4984:	00 

00004985 <.LVL20>:
    4985:	f8 02 08    	mov	(8,a2),d0
    4988:	4a 0c       	mov	d2,(12,sp)
    498a:	85 09       	mov	9,d1
    498c:	cd 13 ff 00 	call	489f <_std.isra.0>,[],0
    4990:	00 

00004991 <.LVL21>:
    4991:	f8 02 0c    	mov	(12,a2),d0
    4994:	85 02       	mov	2,d1
    4996:	46 0c       	mov	d1,(12,sp)
    4998:	85 12       	mov	18,d1
    499a:	cd 05 ff 00 	call	489f <_std.isra.0>,[],0
    499e:	00 

0000499f <.LVL22>:
    499f:	df a0 18    	ret	[d2,a2],24

000049a2 <___sfp>:
    49a2:	cf f0       	movm	[d2,d3,a2,a3],(sp)

000049a4 <.LCFI8>:
    49a4:	f8 fe f0    	add	-16,sp

000049a7 <.LCFI9>:
    49a7:	83          	mov	d0,d3

000049a8 <.Loc.113.1>:
    49a8:	fc a3 58 95 	mov	(9558 <__global_impure_ptr>),a3
    49ac:	00 00 
    49ae:	f8 03 38    	mov	(56,a3),d0

000049b1 <.LVL24>:
    49b1:	a0 00       	cmp	0,d0
    49b3:	c8 70       	beq	4a23 <.L37>

000049b5 <.Loc.115.1>:
    49b5:	fa d3 e0 02 	add	736,a3

000049b9 <.L27>:
    49b9:	f8 2b 08    	mov	(8,a3),a2

000049bc <.LVL26>:
    49bc:	f8 07 04    	mov	(4,a3),d1

000049bf <.LVL27>:
    49bf:	29 ff       	add	-1,d1
    49c1:	f8 eb 59    	bns	4a1a <.L20>

000049c4 <.Loc.118.1>:
    49c4:	f8 62 0c    	movhu	(12,a2),d0
    49c7:	a0 00       	cmp	0,d0
    49c9:	c8 11       	beq	49da <.L21>

000049cb <.L35>:
    49cb:	22 68       	add	104,a2
    49cd:	29 ff       	add	-1,d1
    49cf:	a5 ff       	cmp	-1,d1
    49d1:	c8 49       	beq	4a1a <.L20>

000049d3 <.Loc.118.1>:
    49d3:	f8 6a 0c    	movhu	(12,a2),d2
    49d6:	aa 00       	cmp	0,d2
    49d8:	c9 f3       	bne	49cb <.L35>

000049da <.L21>:
    49da:	80 ff       	mov	-1,d0
    49dc:	f8 72 0e    	movhu	d0,(14,a2)

000049df <.Loc.130.1>:
    49df:	80 01       	mov	1,d0
    49e1:	f8 72 0c    	movhu	d0,(12,a2)

000049e4 <.Loc.131.1>:
    49e4:	08          	clr	d2
    49e5:	f8 1a 64    	mov	d2,(100,a2)

000049e8 <.Loc.137.1>:
    49e8:	6a          	mov	d2,(a2)

000049e9 <.Loc.138.1>:
    49e9:	f8 1a 08    	mov	d2,(8,a2)

000049ec <.Loc.139.1>:
    49ec:	f8 1a 04    	mov	d2,(4,a2)

000049ef <.Loc.140.1>:
    49ef:	f8 1a 10    	mov	d2,(16,a2)

000049f2 <.Loc.141.1>:
    49f2:	f8 1a 14    	mov	d2,(20,a2)

000049f5 <.Loc.142.1>:
    49f5:	f8 1a 18    	mov	d2,(24,a2)

000049f8 <.Loc.143.1>:
    49f8:	80 08       	mov	8,d0
    49fa:	42 0c       	mov	d0,(12,sp)
    49fc:	f1 d8       	mov	a2,d0
    49fe:	28 5c       	add	92,d0
    4a00:	89          	mov	d2,d1

00004a01 <.LVL31>:
    4a01:	dd e4 cb ff 	call	15e5 <_memset>,[],0
    4a05:	ff 00 00 

00004a08 <.LVL32>:
    4a08:	f8 1a 30    	mov	d2,(48,a2)

00004a0b <.Loc.146.1>:
    4a0b:	f8 1a 34    	mov	d2,(52,a2)

00004a0e <.Loc.147.1>:
    4a0e:	f8 1a 44    	mov	d2,(68,a2)

00004a11 <.Loc.148.1>:
    4a11:	f8 1a 48    	mov	d2,(72,a2)

00004a14 <.Loc.151.1>:
    4a14:	98          	mov	a2,a0
    4a15:	f1 d8       	mov	a2,d0
    4a17:	df f0 20    	ret	[d2,d3,a2,a3],32

00004a1a <.L20>:
    4a1a:	f0 03       	mov	(a3),a0
    4a1c:	b0 00       	cmp	0,a0
    4a1e:	c8 12       	beq	4a30 <.L38>

00004a20 <.L25>:
    4a20:	93          	mov	a0,a3

00004a21 <.Loc.123.1>:
    4a21:	ca 98       	bra	49b9 <.L27>

00004a23 <.L37>:
    4a23:	f1 dc       	mov	a3,d0
    4a25:	cd 21 ff 00 	call	4946 <___sinit>,[],0
    4a29:	00 

00004a2a <.LVL36>:
    4a2a:	fa d3 e0 02 	add	736,a3

00004a2e <.LVL37>:
    4a2e:	ca 8b       	bra	49b9 <.L27>

00004a30 <.L38>:
    4a30:	8c          	mov	d3,d0
    4a31:	85 04       	mov	4,d1

00004a33 <.LVL39>:
    4a33:	cd cc fe 00 	call	48ff <___sfmoreglue>,[],0
    4a37:	00 

00004a38 <.LVL40>:
    4a38:	f0 13       	mov	a0,(a3)

00004a3a <.Loc.120.1>:
    4a3a:	b0 00       	cmp	0,a0
    4a3c:	c9 e4       	bne	4a20 <.L25>

00004a3e <.Loc.125.1>:
    4a3e:	80 0c       	mov	12,d0
    4a40:	f1 ed       	mov	d3,a1
    4a42:	61          	mov	d0,(a1)

00004a43 <.Loc.126.1>:
    4a43:	92          	mov	a0,a2

00004a44 <.LVL41>:
    4a44:	98          	mov	a2,a0
    4a45:	f1 d8       	mov	a2,d0
    4a47:	df f0 20    	ret	[d2,d3,a2,a3],32

00004a4a <___sfp_lock_acquire>:
    4a4a:	de 00 00    	retf	[],0

00004a4d <___sfp_lock_release>:
    4a4d:	de 00 00    	retf	[],0

00004a50 <___sinit_lock_acquire>:
    4a50:	de 00 00    	retf	[],0

00004a53 <___sinit_lock_release>:
    4a53:	de 00 00    	retf	[],0

00004a56 <___fp_lock_all>:
    4a56:	f8 fe f4    	add	-12,sp

00004a59 <.LCFI10>:
    4a59:	fc a4 08 9c 	mov	(9c08 <__impure_ptr>),d0
    4a5d:	00 00 
    4a5f:	fc cd 84 48 	mov	18564,d1
    4a63:	00 00 
    4a65:	dd 58 03 00 	call	4dbd <__fwalk>,[],0
    4a69:	00 00 00 

00004a6c <.LVL42>:
    4a6c:	df 00 0c    	ret	[],12

00004a6f <___fp_unlock_all>:
    4a6f:	f8 fe f4    	add	-12,sp

00004a72 <.LCFI11>:
    4a72:	fc a4 08 9c 	mov	(9c08 <__impure_ptr>),d0
    4a76:	00 00 
    4a78:	fc cd 88 48 	mov	18568,d1
    4a7c:	00 00 
    4a7e:	dd 3f 03 00 	call	4dbd <__fwalk>,[],0
    4a82:	00 00 00 

00004a85 <.LVL43>:
    4a85:	df 00 0c    	ret	[],12

00004a88 <__malloc_trim_r>:
    4a88:	cf f0       	movm	[d2,d3,a2,a3],(sp)

00004a8a <.LCFI0>:
    4a8a:	f8 fe f4    	add	-12,sp

00004a8d <.LCFI1>:
    4a8d:	f1 e2       	mov	d0,a2
    4a8f:	f1 e7       	mov	d1,a3

00004a91 <.Loc.3317.1>:
    4a91:	dd 7f 0d 00 	call	5810 <___malloc_lock>,[],0
    4a95:	00 00 00 

00004a98 <.LVL2>:
    4a98:	fc a0 bc a0 	mov	(a0bc <___malloc_av_+0x8>),a0
    4a9c:	00 00 
    4a9e:	f8 0c 04    	mov	(4,a0),d3
    4aa1:	f8 c7 02    	lsr	2,d3
    4aa4:	57          	asl2	d3

00004aa5 <.LVL3>:
    4aa5:	8e          	mov	d3,d2
    4aa6:	fa c2 ef 0f 	add	4079,d2
    4aaa:	f1 1e       	sub	a3,d2
    4aac:	fc e2 00 f0 	and	-4096,d2
    4ab0:	ff ff 
    4ab2:	fa c2 00 f0 	add	-4096,d2

00004ab6 <.Loc.3322.1>:
    4ab6:	fa ca ff 0f 	cmp	4095,d2
    4aba:	c3 17       	ble	4ad1 <.L4>

00004abc <.Loc.3331.1>:
    4abc:	f1 d8       	mov	a2,d0
    4abe:	04          	clr	d1
    4abf:	dd a6 17 00 	call	6265 <__sbrk_r>,[],0
    4ac3:	00 00 00 

00004ac6 <.LVL5>:
    4ac6:	fc a4 bc a0 	mov	(a0bc <___malloc_av_+0x8>),d0
    4aca:	00 00 
    4acc:	ec          	add	d3,d0
    4acd:	f1 a0       	cmp	d0,a0
    4acf:	c8 0f       	beq	4ade <.L7>

00004ad1 <.L4>:
    4ad1:	f1 d8       	mov	a2,d0
    4ad3:	dd 40 0d 00 	call	5813 <___malloc_unlock>,[],0
    4ad7:	00 00 00 

00004ada <.LVL7>:
	...

00004adb <.L3>:
    4adb:	df f0 1c    	ret	[d2,d3,a2,a3],28

00004ade <.L7>:
    4ade:	f1 d8       	mov	a2,d0
    4ae0:	04          	clr	d1
    4ae1:	f1 09       	sub	d2,d1
    4ae3:	dd 82 17 00 	call	6265 <__sbrk_r>,[],0
    4ae7:	00 00 00 

00004aea <.LVL9>:
    4aea:	fc d8 ff ff 	cmp	-1,a0
    4aee:	ff ff 
    4af0:	c8 2c       	beq	4b1c <.L8>

00004af2 <.Loc.3360.1>:
    4af2:	f1 0b       	sub	d2,d3

00004af4 <.LVL10>:
    4af4:	f8 e7 01    	or	1,d3
    4af7:	fc a0 bc a0 	mov	(a0bc <___malloc_av_+0x8>),a0
    4afb:	00 00 

00004afd <.LVL11>:
    4afd:	f8 1c 04    	mov	d3,(4,a0)

00004b00 <.Loc.3361.1>:
    4b00:	fc a4 cc a4 	mov	(a4cc <___malloc_current_mallinfo>),d0
    4b04:	00 00 
    4b06:	f1 08       	sub	d2,d0
    4b08:	fc 81 cc a4 	mov	d0,(a4cc <___malloc_current_mallinfo>)
    4b0c:	00 00 

00004b0e <.Loc.3363.1>:
    4b0e:	f1 d8       	mov	a2,d0
    4b10:	dd 03 0d 00 	call	5813 <___malloc_unlock>,[],0
    4b14:	00 00 00 

00004b17 <.LVL12>:
    4b17:	80 01       	mov	1,d0

00004b19 <.Loc.3368.1>:
    4b19:	df f0 1c    	ret	[d2,d3,a2,a3],28

00004b1c <.L8>:
    4b1c:	f1 d8       	mov	a2,d0
    4b1e:	04          	clr	d1
    4b1f:	dd 46 17 00 	call	6265 <__sbrk_r>,[],0
    4b23:	00 00 00 

00004b26 <.LVL14>:
    4b26:	fc a1 bc a0 	mov	(a0bc <___malloc_av_+0x8>),a1
    4b2a:	00 00 
    4b2c:	f1 d0       	mov	a0,d0
    4b2e:	f1 14       	sub	a1,d0

00004b30 <.LVL15>:
    4b30:	a0 0f       	cmp	15,d0
    4b32:	c3 9f       	ble	4ad1 <.L4>

00004b34 <.Loc.3349.1>:
    4b34:	fc a5 ac a0 	mov	(a0ac <___malloc_sbrk_base>),d1
    4b38:	00 00 
    4b3a:	f1 24       	sub	d1,a0

00004b3c <.LVL16>:
    4b3c:	fc 80 cc a4 	mov	a0,(a4cc <___malloc_current_mallinfo>)
    4b40:	00 00 

00004b42 <.Loc.3350.1>:
    4b42:	f8 e4 01    	or	1,d0

00004b45 <.LVL17>:
    4b45:	f8 11 04    	mov	d0,(4,a1)

00004b48 <.Loc.3324.1>:
    4b48:	f1 d8       	mov	a2,d0
    4b4a:	dd c9 0c 00 	call	5813 <___malloc_unlock>,[],0
    4b4e:	00 00 00 

00004b51 <.LVL18>:
    4b51:	00          	clr	d0
    4b52:	ca 89       	bra	4adb <.L3>

00004b54 <__free_r>:
    4b54:	cf f0       	movm	[d2,d3,a2,a3],(sp)

00004b56 <.LCFI2>:
    4b56:	f8 fe f4    	add	-12,sp

00004b59 <.LCFI3>:
    4b59:	83          	mov	d0,d3
    4b5a:	f1 e6       	mov	d1,a2

00004b5c <.Loc.2644.1>:
    4b5c:	a5 00       	cmp	0,d1
    4b5e:	c9 05       	bne	4b63 <.L0_0>
    4b60:	cc e0 00    	jmp	4c40 <.L10>

00004b63 <.L0_0>:
    4b63:	dd ad 0c 00 	call	5810 <___malloc_lock>,[],0
    4b67:	00 00 00 

00004b6a <.LVL20>:
    4b6a:	99          	mov	a2,a1
    4b6b:	21 f8       	add	-8,a1

00004b6d <.LVL21>:
    4b6d:	f8 06 fc    	mov	(-4,a2),d1

00004b70 <.LVL22>:
    4b70:	86          	mov	d1,d2
    4b71:	f8 c6 01    	lsr	1,d2
    4b74:	ea          	add	d2,d2

00004b75 <.LVL23>:
    4b75:	94          	mov	a1,a0
    4b76:	f1 68       	add	d2,a0

00004b78 <.LVL24>:
    4b78:	f8 00 04    	mov	(4,a0),d0
    4b7b:	f8 c4 02    	lsr	2,d0
    4b7e:	54          	asl2	d0

00004b7f <.LVL25>:
    4b7f:	fc a3 bc a0 	mov	(a0bc <___malloc_av_+0x8>),a3
    4b83:	00 00 
    4b85:	b3          	cmp	a0,a3
    4b86:	c9 05       	bne	4b8b <.L0_1>
    4b88:	cc fc 00    	jmp	4c84 <.L41>

00004b8b <.L0_1>:
    4b8b:	f8 10 04    	mov	d0,(4,a0)

00004b8e <.LVL26>:
    4b8e:	f8 e1 01    	and	1,d1

00004b91 <.LVL27>:
    4b91:	c8 05       	beq	4b96 <.L0_2>
    4b93:	cc b0 00    	jmp	4c43 <.L32>

00004b96 <.L0_2>:
    4b96:	f8 2a f8    	mov	(-8,a2),a2

00004b99 <.LVL28>:
    4b99:	f1 39       	sub	a2,a1

00004b9b <.LVL29>:
    4b9b:	f1 5a       	add	a2,d2

00004b9d <.Loc.2697.1>:
    4b9d:	f8 29 08    	mov	(8,a1),a2

00004ba0 <.LVL31>:
    4ba0:	fc da bc a0 	cmp	41148,a2
    4ba4:	00 00 
    4ba6:	c9 05       	bne	4bab <.L0_3>
    4ba8:	cc 21 01    	jmp	4cc9 <.L33>

00004bab <.L0_3>:
    4bab:	f8 2d 0c    	mov	(12,a1),a3

00004bae <.LVL32>:
    4bae:	f8 3e 0c    	mov	a3,(12,a2)
    4bb1:	f8 3b 08    	mov	a2,(8,a3)

00004bb4 <.Loc.2689.1>:
    4bb4:	f1 e6       	mov	d1,a2

00004bb6 <.L16>:
    4bb6:	93          	mov	a0,a3
    4bb7:	f1 63       	add	d0,a3
    4bb9:	f8 07 04    	mov	(4,a3),d1
    4bbc:	f8 e1 01    	and	1,d1
    4bbf:	c9 1e       	bne	4bdd <.L17>

00004bc1 <.Loc.2705.1>:
    4bc1:	e2          	add	d0,d2

00004bc2 <.Loc.2707.1>:
    4bc2:	f8 2c 08    	mov	(8,a0),a3
    4bc5:	ba 00       	cmp	0,a2
    4bc7:	c9 0d       	bne	4bd4 <.L0_4>

00004bc9 <.Loc.2707.1>:
    4bc9:	fc db bc a0 	cmp	41148,a3
    4bcd:	00 00 
    4bcf:	c9 05       	bne	4bd4 <.L0_4>
    4bd1:	cc 22 01    	jmp	4cf3 <.L42>

00004bd4 <.L0_4>:
    4bd4:	f8 20 0c    	mov	(12,a0),a0

00004bd7 <.LVL35>:
    4bd7:	f8 33 0c    	mov	a0,(12,a3)
    4bda:	f8 3c 08    	mov	a3,(8,a0)

00004bdd <.L17>:
    4bdd:	88          	mov	d2,d0

00004bde <.LVL37>:
    4bde:	f8 e4 01    	or	1,d0
    4be1:	f8 11 04    	mov	d0,(4,a1)

00004be4 <.Loc.2718.1>:
    4be4:	94          	mov	a1,a0
    4be5:	f1 68       	add	d2,a0
    4be7:	68          	mov	d2,(a0)

00004be8 <.Loc.2719.1>:
    4be8:	ba 00       	cmp	0,a2
    4bea:	c9 4e       	bne	4c38 <.L15>

00004bec <.Loc.2720.1>:
    4bec:	fa ca ff 01 	cmp	511,d2
    4bf0:	c7 58       	bls	4c48 <.L43>

00004bf2 <.Loc.2720.1>:
    4bf2:	88          	mov	d2,d0
    4bf3:	f8 c4 09    	lsr	9,d0
    4bf6:	a0 04       	cmp	4,d0
    4bf8:	c7 05       	bls	4bfd <.L0_5>
    4bfa:	cc 20 01    	jmp	4d1a <.L22>

00004bfd <.L0_5>:
    4bfd:	89          	mov	d2,d1
    4bfe:	f8 c5 06    	lsr	6,d1
    4c01:	29 38       	add	56,d1
    4c03:	84          	mov	d1,d0
    4c04:	e0          	add	d0,d0

00004c05 <.LVL38>:
    4c05:	54          	asl2	d0
    4c06:	fc c0 b4 a0 	add	41140,d0
    4c0a:	00 00 

00004c0c <.LVL39>:
    4c0c:	f1 e2       	mov	d0,a2

00004c0e <.LVL40>:
    4c0e:	f8 22 08    	mov	(8,a2),a0

00004c11 <.LVL41>:
    4c11:	f1 a0       	cmp	d0,a0
    4c13:	c9 05       	bne	4c18 <.L0_6>
    4c15:	cc b9 00    	jmp	4cce <.L44>

00004c18 <.L0_6>:
    4c18:	f8 04 04    	mov	(4,a0),d1
    4c1b:	f8 c5 02    	lsr	2,d1
    4c1e:	55          	asl2	d1
    4c1f:	a6          	cmp	d1,d2
    4c20:	c6 09       	bcc	4c29 <.L30>

00004c22 <.Loc.2720.1>:
    4c22:	f8 20 08    	mov	(8,a0),a0
    4c25:	f1 90       	cmp	a0,d0
    4c27:	c9 f1       	bne	4c18 <.L0_6>

00004c29 <.L30>:
    4c29:	f8 28 0c    	mov	(12,a0),a2

00004c2c <.LVL44>:
    4c2c:	f8 39 0c    	mov	a2,(12,a1)
    4c2f:	f8 31 08    	mov	a0,(8,a1)
    4c32:	f8 36 08    	mov	a1,(8,a2)
    4c35:	f8 34 0c    	mov	a1,(12,a0)

00004c38 <.L15>:
    4c38:	8c          	mov	d3,d0
    4c39:	dd da 0b 00 	call	5813 <___malloc_unlock>,[],0
    4c3d:	00 00 00 

00004c40 <.L10>:
    4c40:	df f0 1c    	ret	[d2,d3,a2,a3],28

00004c43 <.L32>:
    4c43:	9a 00       	mov	0,a2

00004c45 <.LVL48>:
    4c45:	cc 71 ff    	jmp	4bb6 <.L16>

00004c48 <.L43>:
    4c48:	f8 c6 03    	lsr	3,d2

00004c4b <.LVL50>:
    4c4b:	89          	mov	d2,d1
    4c4c:	f8 c9 02    	asr	2,d1
    4c4f:	80 01       	mov	1,d0
    4c51:	f2 94       	asl	d1,d0
    4c53:	fc a5 b8 a0 	mov	(a0b8 <___malloc_av_+0x4>),d1
    4c57:	00 00 
    4c59:	f2 14       	or	d1,d0
    4c5b:	fc 81 b8 a0 	mov	d0,(a0b8 <___malloc_av_+0x4>)
    4c5f:	00 00 
    4c61:	56          	asl2	d2
    4c62:	ea          	add	d2,d2

00004c63 <.LVL51>:
    4c63:	f1 e8       	mov	d2,a0

00004c65 <.LVL52>:
    4c65:	fc d0 b4 a0 	add	41140,a0
    4c69:	00 00 

00004c6b <.LVL53>:
    4c6b:	f8 28 08    	mov	(8,a0),a2

00004c6e <.LVL54>:
    4c6e:	f8 31 0c    	mov	a0,(12,a1)
    4c71:	f8 39 08    	mov	a2,(8,a1)
    4c74:	f8 34 08    	mov	a1,(8,a0)
    4c77:	f8 36 0c    	mov	a1,(12,a2)

00004c7a <.Loc.2683.1>:
    4c7a:	8c          	mov	d3,d0
    4c7b:	dd 98 0b 00 	call	5813 <___malloc_unlock>,[],0
    4c7f:	00 00 00 

00004c82 <.LVL55>:
    4c82:	ca be       	bra	4c40 <.L10>

00004c84 <.L41>:
    4c84:	e2          	add	d0,d2

00004c85 <.Loc.2671.1>:
    4c85:	f8 e1 01    	and	1,d1

00004c88 <.LVL58>:
    4c88:	c9 14       	bne	4c9c <.L13>

00004c8a <.Loc.2673.1>:
    4c8a:	f8 02 f8    	mov	(-8,a2),d0

00004c8d <.LVL59>:
    4c8d:	f1 21       	sub	d0,a1

00004c8f <.Loc.2675.1>:
    4c8f:	e2          	add	d0,d2

00004c90 <.Loc.2676.1>:
    4c90:	f8 29 0c    	mov	(12,a1),a2

00004c93 <.LVL62>:
    4c93:	f8 21 08    	mov	(8,a1),a0

00004c96 <.LVL63>:
    4c96:	f8 38 0c    	mov	a2,(12,a0)
    4c99:	f8 32 08    	mov	a0,(8,a2)

00004c9c <.L13>:
    4c9c:	88          	mov	d2,d0
    4c9d:	f8 e4 01    	or	1,d0
    4ca0:	f8 11 04    	mov	d0,(4,a1)

00004ca3 <.Loc.2680.1>:
    4ca3:	fc 84 bc a0 	mov	a1,(a0bc <___malloc_av_+0x8>)
    4ca7:	00 00 

00004ca9 <.Loc.2681.1>:
    4ca9:	fc a4 b0 a0 	mov	(a0b0 <___malloc_trim_threshold>),d0
    4cad:	00 00 
    4caf:	a2          	cmp	d0,d2
    4cb0:	c4 88       	bcs	4c38 <.L15>

00004cb2 <.Loc.2682.1>:
    4cb2:	8c          	mov	d3,d0
    4cb3:	fc a5 fc a4 	mov	(a4fc <___malloc_top_pad>),d1
    4cb7:	00 00 
    4cb9:	cd cf fd 00 	call	4a88 <__malloc_trim_r>,[],0
    4cbd:	00 

00004cbe <.LVL65>:
    4cbe:	8c          	mov	d3,d0
    4cbf:	dd 54 0b 00 	call	5813 <___malloc_unlock>,[],0
    4cc3:	00 00 00 

00004cc6 <.LVL66>:
    4cc6:	cc 7a ff    	jmp	4c40 <.L10>

00004cc9 <.L33>:
    4cc9:	9a 01       	mov	1,a2
    4ccb:	cc eb fe    	jmp	4bb6 <.L16>

00004cce <.L44>:
    4cce:	f8 c9 02    	asr	2,d1

00004cd1 <.LVL69>:
    4cd1:	8a 01       	mov	1,d2

00004cd3 <.LVL70>:
    4cd3:	f2 96       	asl	d1,d2
    4cd5:	fc a4 b8 a0 	mov	(a0b8 <___malloc_av_+0x4>),d0
    4cd9:	00 00 

00004cdb <.LVL71>:
    4cdb:	f2 12       	or	d0,d2
    4cdd:	fc 89 b8 a0 	mov	d2,(a0b8 <___malloc_av_+0x4>)
    4ce1:	00 00 
    4ce3:	92          	mov	a0,a2

00004ce4 <.LVL72>:
    4ce4:	f8 39 0c    	mov	a2,(12,a1)
    4ce7:	f8 31 08    	mov	a0,(8,a1)
    4cea:	f8 36 08    	mov	a1,(8,a2)
    4ced:	f8 34 0c    	mov	a1,(12,a0)
    4cf0:	cc 48 ff    	jmp	4c38 <.L15>

00004cf3 <.L42>:
    4cf3:	fc 84 c8 a0 	mov	a1,(a0c8 <___malloc_av_+0x14>)
    4cf7:	00 00 
    4cf9:	fc 84 c4 a0 	mov	a1,(a0c4 <___malloc_av_+0x10>)
    4cfd:	00 00 
    4cff:	f8 3d 0c    	mov	a3,(12,a1)
    4d02:	f8 3d 08    	mov	a3,(8,a1)

00004d05 <.Loc.2717.1>:
    4d05:	88          	mov	d2,d0

00004d06 <.LVL74>:
    4d06:	f8 e4 01    	or	1,d0
    4d09:	f8 11 04    	mov	d0,(4,a1)

00004d0c <.Loc.2718.1>:
    4d0c:	f1 69       	add	d2,a1

00004d0e <.LVL75>:
    4d0e:	69          	mov	d2,(a1)

00004d0f <.Loc.2683.1>:
    4d0f:	8c          	mov	d3,d0
    4d10:	dd 03 0b 00 	call	5813 <___malloc_unlock>,[],0
    4d14:	00 00 00 

00004d17 <.LVL76>:
    4d17:	cc 29 ff    	jmp	4c40 <.L10>

00004d1a <.L22>:
    4d1a:	a0 14       	cmp	20,d0
    4d1c:	c5 1c       	bhi	4d38 <.L24>

00004d1e <.Loc.2720.1>:
    4d1e:	81          	mov	d0,d1
    4d1f:	29 5b       	add	91,d1
    4d21:	84          	mov	d1,d0
    4d22:	e0          	add	d0,d0

00004d23 <.LVL78>:
    4d23:	54          	asl2	d0
    4d24:	fc c0 b4 a0 	add	41140,d0
    4d28:	00 00 

00004d2a <.LVL79>:
    4d2a:	f1 e2       	mov	d0,a2

00004d2c <.LVL80>:
    4d2c:	f8 22 08    	mov	(8,a2),a0

00004d2f <.LVL81>:
    4d2f:	f1 a0       	cmp	d0,a0
    4d31:	c8 05       	beq	4d36 <.L0_7>
    4d33:	cc e5 fe    	jmp	4c18 <.L0_6>

00004d36 <.L0_7>:
    4d36:	ca 98       	bra	4cce <.L44>

00004d38 <.L24>:
    4d38:	a0 54       	cmp	84,d0
    4d3a:	c5 20       	bhi	4d5a <.L25>

00004d3c <.Loc.2720.1>:
    4d3c:	89          	mov	d2,d1
    4d3d:	f8 c5 0c    	lsr	12,d1
    4d40:	29 6e       	add	110,d1
    4d42:	84          	mov	d1,d0
    4d43:	e0          	add	d0,d0

00004d44 <.LVL83>:
    4d44:	54          	asl2	d0
    4d45:	fc c0 b4 a0 	add	41140,d0
    4d49:	00 00 

00004d4b <.LVL84>:
    4d4b:	f1 e2       	mov	d0,a2

00004d4d <.LVL85>:
    4d4d:	f8 22 08    	mov	(8,a2),a0

00004d50 <.LVL86>:
    4d50:	f1 a0       	cmp	d0,a0
    4d52:	c8 05       	beq	4d57 <.L0_8>
    4d54:	cc c4 fe    	jmp	4c18 <.L0_6>

00004d57 <.L0_8>:
    4d57:	cc 77 ff    	jmp	4cce <.L44>

00004d5a <.L25>:
    4d5a:	fa c8 54 01 	cmp	340,d0
    4d5e:	c5 20       	bhi	4d7e <.L26>

00004d60 <.Loc.2720.1>:
    4d60:	89          	mov	d2,d1
    4d61:	f8 c5 0f    	lsr	15,d1
    4d64:	29 77       	add	119,d1
    4d66:	84          	mov	d1,d0
    4d67:	e0          	add	d0,d0

00004d68 <.LVL88>:
    4d68:	54          	asl2	d0
    4d69:	fc c0 b4 a0 	add	41140,d0
    4d6d:	00 00 

00004d6f <.LVL89>:
    4d6f:	f1 e2       	mov	d0,a2

00004d71 <.LVL90>:
    4d71:	f8 22 08    	mov	(8,a2),a0

00004d74 <.LVL91>:
    4d74:	f1 a0       	cmp	d0,a0
    4d76:	c8 05       	beq	4d7b <.L0_9>
    4d78:	cc a0 fe    	jmp	4c18 <.L0_6>

00004d7b <.L0_9>:
    4d7b:	cc 53 ff    	jmp	4cce <.L44>

00004d7e <.L26>:
    4d7e:	fa c8 54 05 	cmp	1364,d0
    4d82:	c5 20       	bhi	4da2 <.L34>

00004d84 <.Loc.2720.1>:
    4d84:	89          	mov	d2,d1
    4d85:	f8 c5 12    	lsr	18,d1
    4d88:	29 7c       	add	124,d1
    4d8a:	84          	mov	d1,d0
    4d8b:	e0          	add	d0,d0

00004d8c <.LVL93>:
    4d8c:	54          	asl2	d0
    4d8d:	fc c0 b4 a0 	add	41140,d0
    4d91:	00 00 

00004d93 <.LVL94>:
    4d93:	f1 e2       	mov	d0,a2

00004d95 <.LVL95>:
    4d95:	f8 22 08    	mov	(8,a2),a0

00004d98 <.LVL96>:
    4d98:	f1 a0       	cmp	d0,a0
    4d9a:	c8 05       	beq	4d9f <.L0_10>
    4d9c:	cc 7c fe    	jmp	4c18 <.L0_6>

00004d9f <.L0_10>:
    4d9f:	cc 2f ff    	jmp	4cce <.L44>

00004da2 <.L34>:
    4da2:	2c fc 00    	mov	252,d0
    4da5:	85 7e       	mov	126,d1

00004da7 <.LVL98>:
    4da7:	54          	asl2	d0
    4da8:	fc c0 b4 a0 	add	41140,d0
    4dac:	00 00 

00004dae <.LVL99>:
    4dae:	f1 e2       	mov	d0,a2

00004db0 <.LVL100>:
    4db0:	f8 22 08    	mov	(8,a2),a0

00004db3 <.LVL101>:
    4db3:	f1 a0       	cmp	d0,a0
    4db5:	c8 05       	beq	4dba <.L0_11>
    4db7:	cc 61 fe    	jmp	4c18 <.L0_6>

00004dba <.L0_11>:
    4dba:	cc 14 ff    	jmp	4cce <.L44>

00004dbd <__fwalk>:
    4dbd:	cf f0       	movm	[d2,d3,a2,a3],(sp)

00004dbf <.LCFI0>:
    4dbf:	f8 fe f0    	add	-16,sp

00004dc2 <.LCFI1>:
    4dc2:	46 28       	mov	d1,(40,sp)

00004dc4 <.LVL1>:
    4dc4:	f1 e3       	mov	d0,a3
    4dc6:	fa d3 e0 02 	add	736,a3
    4dca:	c8 45       	beq	4e0f <.L7>
    4dcc:	04          	clr	d1

00004dcd <.L6>:
    4dcd:	f8 2b 08    	mov	(8,a3),a2

00004dd0 <.LVL4>:
    4dd0:	f8 0b 04    	mov	(4,a3),d2

00004dd3 <.LVL5>:
    4dd3:	2a ff       	add	-1,d2
    4dd5:	f8 eb 30    	bns	4e05 <.L3>

00004dd8 <.L12>:
    4dd8:	f8 6e 0c    	movhu	(12,a2),d3
    4ddb:	8c          	mov	d3,d0
    4ddc:	18          	exth	d0
    4ddd:	a0 00       	cmp	0,d0
    4ddf:	c8 1e       	beq	4dfd <.L4>

00004de1 <.Loc.51.1>:
    4de1:	1f          	exthu	d3
    4de2:	af 01       	cmp	1,d3
    4de4:	c7 19       	bls	4dfd <.L4>

00004de6 <.Loc.51.1>:
    4de6:	f8 62 0e    	movhu	(14,a2),d0
    4de9:	fc c8 ff ff 	cmp	65535,d0
    4ded:	00 00 
    4def:	c8 0e       	beq	4dfd <.L4>

00004df1 <.Loc.52.1>:
    4df1:	f1 d8       	mov	a2,d0
    4df3:	46 0c       	mov	d1,(12,sp)
    4df5:	5c 28       	mov	(40,sp),a0
    4df7:	f0 f0       	calls	(a0)

00004df9 <.LVL7>:
    4df9:	59 0c       	mov	(12,sp),d1
    4dfb:	f2 11       	or	d0,d1

00004dfd <.L4>:
    4dfd:	22 68       	add	104,a2
    4dff:	2a ff       	add	-1,d2
    4e01:	aa ff       	cmp	-1,d2
    4e03:	c9 d5       	bne	4dd8 <.L12>

00004e05 <.L3>:
    4e05:	f0 0f       	mov	(a3),a3
    4e07:	bf 00       	cmp	0,a3
    4e09:	c9 c4       	bne	4dcd <.L6>

00004e0b <.Loc.56.1>:
    4e0b:	84          	mov	d1,d0
    4e0c:	df f0 20    	ret	[d2,d3,a2,a3],32

00004e0f <.L7>:
    4e0f:	f1 dd       	mov	a3,d1

00004e11 <.LVL13>:
    4e11:	84          	mov	d1,d0

00004e12 <.LVL14>:
    4e12:	df f0 20    	ret	[d2,d3,a2,a3],32

00004e15 <__fwalk_reent>:
    4e15:	cf f0       	movm	[d2,d3,a2,a3],(sp)

00004e17 <.LCFI2>:
    4e17:	f8 fe f4    	add	-12,sp

00004e1a <.LCFI3>:
    4e1a:	42 20       	mov	d0,(32,sp)
    4e1c:	46 24       	mov	d1,(36,sp)

00004e1e <.LVL16>:
    4e1e:	f1 e3       	mov	d0,a3
    4e20:	fa d3 e0 02 	add	736,a3
    4e24:	c8 43       	beq	4e67 <.L25>
    4e26:	08          	clr	d2

00004e27 <.L24>:
    4e27:	f8 2b 08    	mov	(8,a3),a2

00004e2a <.LVL19>:
    4e2a:	f8 0f 04    	mov	(4,a3),d3

00004e2d <.LVL20>:
    4e2d:	2b ff       	add	-1,d3
    4e2f:	f8 eb 2e    	bns	4e5d <.L21>

00004e32 <.L30>:
    4e32:	f8 62 0c    	movhu	(12,a2),d0
    4e35:	81          	mov	d0,d1
    4e36:	19          	exth	d1
    4e37:	a5 00       	cmp	0,d1
    4e39:	c8 1c       	beq	4e55 <.L22>

00004e3b <.Loc.81.1>:
    4e3b:	1c          	exthu	d0
    4e3c:	a0 01       	cmp	1,d0
    4e3e:	c7 17       	bls	4e55 <.L22>

00004e40 <.Loc.81.1>:
    4e40:	f8 62 0e    	movhu	(14,a2),d0
    4e43:	fc c8 ff ff 	cmp	65535,d0
    4e47:	00 00 
    4e49:	c8 0c       	beq	4e55 <.L22>

00004e4b <.Loc.82.1>:
    4e4b:	58 20       	mov	(32,sp),d0
    4e4d:	f1 d9       	mov	a2,d1
    4e4f:	5c 24       	mov	(36,sp),a0
    4e51:	f0 f0       	calls	(a0)

00004e53 <.LVL22>:
    4e53:	f2 12       	or	d0,d2

00004e55 <.L22>:
    4e55:	22 68       	add	104,a2
    4e57:	2b ff       	add	-1,d3
    4e59:	af ff       	cmp	-1,d3
    4e5b:	c9 d7       	bne	4e32 <.L30>

00004e5d <.L21>:
    4e5d:	f0 0f       	mov	(a3),a3
    4e5f:	bf 00       	cmp	0,a3
    4e61:	c9 c6       	bne	4e27 <.L24>

00004e63 <.Loc.86.1>:
    4e63:	88          	mov	d2,d0
    4e64:	df f0 1c    	ret	[d2,d3,a2,a3],28

00004e67 <.L25>:
    4e67:	f1 de       	mov	a3,d2

00004e69 <.Loc.86.1>:
    4e69:	88          	mov	d2,d0

00004e6a <.LVL28>:
    4e6a:	df f0 1c    	ret	[d2,d3,a2,a3],28

00004e6d <__setlocale_r>:
    4e6d:	cf 80       	movm	[d2],(sp)

00004e6f <.LCFI0>:
    4e6f:	f8 fe f4    	add	-12,sp

00004e72 <.LCFI1>:
    4e72:	5a 1c       	mov	(28,sp),d2

00004e74 <.Loc.278.1>:
    4e74:	aa 00       	cmp	0,d2
    4e76:	c8 14       	beq	4e8a <.L5>

00004e78 <.Loc.280.1>:
    4e78:	88          	mov	d2,d0

00004e79 <.LVL1>:
    4e79:	fc cd 2d 97 	mov	38701,d1
    4e7d:	00 00 

00004e7f <.LVL2>:
    4e7f:	dd 0f 15 00 	call	638e <_strcmp>,[],0
    4e83:	00 00 00 

00004e86 <.LVL3>:
    4e86:	a0 00       	cmp	0,d0
    4e88:	c9 0d       	bne	4e95 <.L13>

00004e8a <.L5>:
    4e8a:	fc cc 5c 95 	mov	38236,d0
    4e8e:	00 00 

00004e90 <.Loc.413.1>:
    4e90:	f1 e0       	mov	d0,a0
    4e92:	df 80 10    	ret	[d2],16

00004e95 <.L13>:
    4e95:	88          	mov	d2,d0
    4e96:	fc cd 5c 95 	mov	38236,d1
    4e9a:	00 00 
    4e9c:	dd f2 14 00 	call	638e <_strcmp>,[],0
    4ea0:	00 00 00 

00004ea3 <.LVL4>:
    4ea3:	a0 00       	cmp	0,d0
    4ea5:	c8 e5       	beq	4e8a <.L5>

00004ea7 <.Loc.281.1>:
    4ea7:	88          	mov	d2,d0
    4ea8:	fc cd 4b 95 	mov	38219,d1
    4eac:	00 00 
    4eae:	dd e0 14 00 	call	638e <_strcmp>,[],0
    4eb2:	00 00 00 

00004eb5 <.LVL5>:
    4eb5:	a0 00       	cmp	0,d0
    4eb7:	c8 d3       	beq	4e8a <.L5>

00004eb9 <.Loc.282.1>:
	...

00004eba <.Loc.413.1>:
    4eba:	f1 e0       	mov	d0,a0
    4ebc:	df 80 10    	ret	[d2],16

00004ebf <___locale_charset>:
    4ebf:	fc cc 34 a0 	mov	41012,d0
    4ec3:	00 00 

00004ec5 <.Loc.938.1>:
    4ec5:	f1 e0       	mov	d0,a0
    4ec7:	de 00 00    	retf	[],0

00004eca <___locale_mb_cur_max>:
    4eca:	fc a4 30 a0 	mov	(a030 <___mb_cur_max>),d0
    4ece:	00 00 
    4ed0:	de 00 00    	retf	[],0

00004ed3 <___locale_msgcharset>:
    4ed3:	fc cc 54 a0 	mov	41044,d0
    4ed7:	00 00 

00004ed9 <.Loc.959.1>:
    4ed9:	f1 e0       	mov	d0,a0
    4edb:	de 00 00    	retf	[],0

00004ede <___locale_cjk_lang>:
    4ede:	00          	clr	d0
    4edf:	de 00 00    	retf	[],0

00004ee2 <__localeconv_r>:
    4ee2:	fc cc 74 a0 	mov	41076,d0
    4ee6:	00 00 

00004ee8 <.LVL7>:
    4ee8:	f1 e0       	mov	d0,a0
    4eea:	de 00 00    	retf	[],0

00004eed <_setlocale>:
    4eed:	f8 fe f0    	add	-16,sp

00004ef0 <.LCFI2>:
    4ef0:	f1 e0       	mov	d0,a0

00004ef2 <.Loc.1029.1>:
    4ef2:	46 0c       	mov	d1,(12,sp)
    4ef4:	fc a4 08 9c 	mov	(9c08 <__impure_ptr>),d0
    4ef8:	00 00 

00004efa <.LVL9>:
    4efa:	f1 d1       	mov	a0,d1

00004efc <.LVL10>:
    4efc:	cd 71 ff 00 	call	4e6d <__setlocale_r>,[],0
    4f00:	00 

00004f01 <.LVL11>:
    4f01:	f1 d0       	mov	a0,d0

00004f03 <.Loc.1030.1>:
    4f03:	df 00 10    	ret	[],16

00004f06 <_localeconv>:
    4f06:	fc cc 74 a0 	mov	41076,d0
    4f0a:	00 00 

00004f0c <.Loc.1037.1>:
    4f0c:	f1 e0       	mov	d0,a0
    4f0e:	de 00 00    	retf	[],0

00004f11 <___smakebuf_r>:
    4f11:	cf f0       	movm	[d2,d3,a2,a3],(sp)

00004f13 <.LCFI0>:
    4f13:	f8 fe b4    	add	-76,sp

00004f16 <.LCFI1>:
    4f16:	f1 e3       	mov	d0,a3
    4f18:	f1 e6       	mov	d1,a2

00004f1a <.Loc.50.1>:
    4f1a:	f8 6a 0c    	movhu	(12,a2),d2
    4f1d:	8b          	mov	d2,d3
    4f1e:	f8 e3 02    	and	2,d3
    4f21:	1b          	exth	d3
    4f22:	af 00       	cmp	0,d3
    4f24:	c8 05       	beq	4f29 <.L0_0>
    4f26:	cc 9e 00    	jmp	4fc4 <.L24>

00004f29 <.L0_0>:
    4f29:	f8 66 0e    	movhu	(14,a2),d1

00004f2c <.LVL1>:
    4f2c:	19          	exth	d1
    4f2d:	a5 00       	cmp	0,d1
    4f2f:	c0 6d       	blt	4f9c <.L4>

00004f31 <.Loc.59.1>:
    4f31:	3c          	mov	sp,a0
    4f32:	20 10       	add	16,a0
    4f34:	43 0c       	mov	a0,(12,sp)
    4f36:	f1 dc       	mov	a3,d0
    4f38:	dd 7e 25 00 	call	74b6 <__fstat_r>,[],0
    4f3c:	00 00 00 

00004f3f <.LVL2>:
    4f3f:	a0 00       	cmp	0,d0
    4f41:	c0 58       	blt	4f99 <.L26>

00004f43 <.Loc.73.1>:
    4f43:	58 14       	mov	(20,sp),d0
    4f45:	fa e0 00 f0 	and	61440,d0
    4f49:	8a 01       	mov	1,d2
    4f4b:	fa c8 00 20 	cmp	8192,d0
    4f4f:	c8 03       	beq	4f52 <.L8>
    4f51:	8e          	mov	d3,d2

00004f52 <.L8>:
    4f52:	fc c8 00 80 	cmp	32768,d0
    4f56:	00 00 
    4f58:	c9 05       	bne	4f5d <.L0_1>
    4f5a:	cc a4 00    	jmp	4ffe <.L27>

00004f5d <.L0_1>:
    4f5d:	f8 62 0c    	movhu	(12,a2),d0
    4f60:	fa e4 00 08 	or	2048,d0
    4f64:	f8 72 0c    	movhu	d0,(12,a2)

00004f67 <.Loc.77.1>:
    4f67:	2f 00 04    	mov	1024,d3

00004f6a <.L7>:
    4f6a:	f1 dc       	mov	a3,d0
    4f6c:	8d          	mov	d3,d1
    4f6d:	dd b2 00 00 	call	501f <__malloc_r>,[],0
    4f71:	00 00 00 

00004f74 <.LVL5>:
    4f74:	b0 00       	cmp	0,a0
    4f76:	c8 3b       	beq	4fb1 <.L28>

00004f78 <.Loc.106.1>:
    4f78:	fc cc 8c 48 	mov	18572,d0
    4f7c:	00 00 
    4f7e:	f8 13 3c    	mov	d0,(60,a3)

00004f81 <.Loc.107.1>:
    4f81:	f8 62 0c    	movhu	(12,a2),d0
    4f84:	f8 e4 80    	or	128,d0
    4f87:	f8 72 0c    	movhu	d0,(12,a2)

00004f8a <.Loc.108.1>:
    4f8a:	f0 12       	mov	a0,(a2)
    4f8c:	f8 32 10    	mov	a0,(16,a2)

00004f8f <.Loc.109.1>:
    4f8f:	f8 1e 14    	mov	d3,(20,a2)

00004f92 <.Loc.110.1>:
    4f92:	aa 00       	cmp	0,d2
    4f94:	c9 4d       	bne	4fe1 <.L29>

00004f96 <.L1>:
    4f96:	df f0 5c    	ret	[d2,d3,a2,a3],92

00004f99 <.L26>:
    4f99:	f8 6a 0c    	movhu	(12,a2),d2

00004f9c <.L4>:
    4f9c:	88          	mov	d2,d0
    4f9d:	f8 e0 80    	and	128,d0
    4fa0:	18          	exth	d0
    4fa1:	a0 00       	cmp	0,d0
    4fa3:	c8 31       	beq	4fd4 <.L14>

00004fa5 <.Loc.65.1>:
    4fa5:	8f 40       	mov	64,d3

00004fa7 <.LVL9>:
    4fa7:	fa e6 00 08 	or	2048,d2
    4fab:	f8 7a 0c    	movhu	d2,(12,a2)

00004fae <.Loc.62.1>:
    4fae:	08          	clr	d2

00004faf <.Loc.69.1>:
    4faf:	ca bb       	bra	4f6a <.L7>

00004fb1 <.L28>:
    4fb1:	f8 62 0c    	movhu	(12,a2),d0
    4fb4:	81          	mov	d0,d1
    4fb5:	fa e1 00 02 	and	512,d1
    4fb9:	19          	exth	d1
    4fba:	a5 00       	cmp	0,d1
    4fbc:	c9 da       	bne	4f96 <.L1>

00004fbe <.Loc.99.1>:
    4fbe:	f8 e4 02    	or	2,d0
    4fc1:	f8 72 0c    	movhu	d0,(12,a2)

00004fc4 <.L24>:
    4fc4:	f1 d8       	mov	a2,d0
    4fc6:	28 43       	add	67,d0
    4fc8:	62          	mov	d0,(a2)
    4fc9:	f8 12 10    	mov	d0,(16,a2)

00004fcc <.Loc.101.1>:
    4fcc:	80 01       	mov	1,d0
    4fce:	f8 12 14    	mov	d0,(20,a2)

00004fd1 <.Loc.113.1>:
    4fd1:	df f0 5c    	ret	[d2,d3,a2,a3],92

00004fd4 <.L14>:
    4fd4:	2f 00 04    	mov	1024,d3

00004fd7 <.LVL13>:
    4fd7:	fa e6 00 08 	or	2048,d2
    4fdb:	f8 7a 0c    	movhu	d2,(12,a2)

00004fde <.Loc.62.1>:
    4fde:	08          	clr	d2
    4fdf:	ca 8b       	bra	4f6a <.L7>

00004fe1 <.L29>:
    4fe1:	f8 66 0e    	movhu	(14,a2),d1
    4fe4:	f1 dc       	mov	a3,d0
    4fe6:	19          	exth	d1
    4fe7:	dd c0 28 00 	call	78a7 <__isatty_r>,[],0
    4feb:	00 00 00 

00004fee <.LVL15>:
    4fee:	a0 00       	cmp	0,d0
    4ff0:	c8 a6       	beq	4f96 <.L1>

00004ff2 <.Loc.111.1>:
    4ff2:	f8 62 0c    	movhu	(12,a2),d0
    4ff5:	f8 e4 01    	or	1,d0
    4ff8:	f8 72 0c    	movhu	d0,(12,a2)

00004ffb <.Loc.113.1>:
    4ffb:	df f0 5c    	ret	[d2,d3,a2,a3],92

00004ffe <.L27>:
    4ffe:	f8 02 28    	mov	(40,a2),d0
    5001:	fc c8 41 63 	cmp	25409,d0
    5005:	00 00 
    5007:	c8 05       	beq	500c <.L0_2>
    5009:	cc 54 ff    	jmp	4f5d <.L0_1>

0000500c <.L0_2>:
    500c:	f8 62 0c    	movhu	(12,a2),d0
    500f:	fa e4 00 04 	or	1024,d0
    5013:	f8 72 0c    	movhu	d0,(12,a2)

00005016 <.Loc.89.1>:
    5016:	2f 00 04    	mov	1024,d3
    5019:	f8 1e 4c    	mov	d3,(76,a2)
    501c:	cc 4e ff    	jmp	4f6a <.L7>

0000501f <__malloc_r>:
    501f:	cf f0       	movm	[d2,d3,a2,a3],(sp)

00005021 <.LCFI0>:
    5021:	f8 fe e8    	add	-24,sp

00005024 <.LCFI1>:
    5024:	f1 e3       	mov	d0,a3

00005026 <.Loc.2348.1>:
    5026:	86          	mov	d1,d2
    5027:	2a 0b       	add	11,d2
    5029:	aa 16       	cmp	22,d2
    502b:	c7 63       	bls	508e <.L72>

0000502d <.Loc.2348.1>:
    502d:	fc e2 f8 ff 	and	-8,d2
    5031:	ff ff 

00005033 <.LVL1>:
    5033:	f8 eb 60    	bns	5093 <.L3>
    5036:	a9          	cmp	d2,d1
    5037:	c5 5c       	bhi	5093 <.L3>

00005039 <.L4>:
    5039:	f1 dc       	mov	a3,d0

0000503b <.LVL3>:
    503b:	dd d5 07 00 	call	5810 <___malloc_lock>,[],0
    503f:	00 00 00 

00005042 <.LVL4>:
    5042:	fa ca f7 01 	cmp	503,d2
    5046:	c5 56       	bhi	509c <.L6>

00005048 <.LVL5>:
    5048:	88          	mov	d2,d0
    5049:	f8 c4 03    	lsr	3,d0

0000504c <.LVL6>:
    504c:	f1 e8       	mov	d2,a0
    504e:	fc d0 b4 a0 	add	41140,a0
    5052:	00 00 

00005054 <.LVL7>:
    5054:	f8 28 0c    	mov	(12,a0),a2

00005057 <.LVL8>:
    5057:	b2          	cmp	a0,a2
    5058:	c9 05       	bne	505d <.L0_0>
    505a:	cc e8 01    	jmp	5242 <.L126>

0000505d <.L0_0>:
    505d:	f8 02 04    	mov	(4,a2),d0

00005060 <.LVL9>:
    5060:	f8 c4 02    	lsr	2,d0
    5063:	54          	asl2	d0

00005064 <.LVL10>:
    5064:	f8 26 0c    	mov	(12,a2),a1

00005067 <.LVL11>:
    5067:	f8 22 08    	mov	(8,a2),a0

0000506a <.LVL12>:
    506a:	f8 34 0c    	mov	a1,(12,a0)
    506d:	f8 31 08    	mov	a0,(8,a1)

00005070 <.Loc.2382.1>:
    5070:	98          	mov	a2,a0
    5071:	f1 60       	add	d0,a0

00005073 <.LVL13>:
    5073:	f8 00 04    	mov	(4,a0),d0

00005076 <.L120>:
    5076:	f8 e4 01    	or	1,d0
    5079:	f8 10 04    	mov	d0,(4,a0)

0000507c <.Loc.2589.1>:
    507c:	f1 dc       	mov	a3,d0
    507e:	dd 95 07 00 	call	5813 <___malloc_unlock>,[],0
    5082:	00 00 00 

00005085 <.LVL15>:
    5085:	f1 d8       	mov	a2,d0
    5087:	28 08       	add	8,d0

00005089 <.L5>:
    5089:	f1 e0       	mov	d0,a0
    508b:	df f0 28    	ret	[d2,d3,a2,a3],40

0000508e <.L72>:
    508e:	8a 10       	mov	16,d2

00005090 <.Loc.2351.1>:
    5090:	a9          	cmp	d2,d1
    5091:	c7 a8       	bls	5039 <.L4>

00005093 <.L3>:
    5093:	80 0c       	mov	12,d0

00005095 <.LVL18>:
    5095:	63          	mov	d0,(a3)

00005096 <.Loc.2354.1>:
	...

00005097 <.Loc.2593.1>:
    5097:	f1 e0       	mov	d0,a0
    5099:	df f0 28    	ret	[d2,d3,a2,a3],40

0000509c <.L6>:
    509c:	8b          	mov	d2,d3
    509d:	f8 c7 09    	lsr	9,d3
    50a0:	af 00       	cmp	0,d3
    50a2:	c9 05       	bne	50a7 <.L0_1>
    50a4:	cc 83 01    	jmp	5227 <.L127>

000050a7 <.L0_1>:
    50a7:	af 04       	cmp	4,d3
    50a9:	c7 05       	bls	50ae <.L0_2>
    50ab:	cc a2 02    	jmp	534d <.L12>

000050ae <.L0_2>:
    50ae:	8b          	mov	d2,d3
    50af:	f8 c7 06    	lsr	6,d3
    50b2:	2b 38       	add	56,d3
    50b4:	8c          	mov	d3,d0
    50b5:	e0          	add	d0,d0

000050b6 <.LVL20>:
    50b6:	54          	asl2	d0
    50b7:	f1 e0       	mov	d0,a0
    50b9:	fc d0 b4 a0 	add	41140,a0
    50bd:	00 00 

000050bf <.LVL21>:
    50bf:	f8 28 0c    	mov	(12,a0),a2

000050c2 <.LVL22>:
    50c2:	b8          	cmp	a2,a0
    50c3:	c8 20       	beq	50e3 <.L16>

000050c5 <.L22>:
    50c5:	f8 02 04    	mov	(4,a2),d0
    50c8:	f8 c4 02    	lsr	2,d0
    50cb:	54          	asl2	d0

000050cc <.LVL23>:
    50cc:	81          	mov	d0,d1
    50cd:	f1 09       	sub	d2,d1

000050cf <.LVL24>:
    50cf:	a5 0f       	cmp	15,d1
    50d1:	c3 05       	ble	50d6 <.L0_3>
    50d3:	cc c8 01    	jmp	529b <.L128>

000050d6 <.L0_3>:
    50d6:	a5 00       	cmp	0,d1
    50d8:	c0 05       	blt	50dd <.L0_4>
    50da:	cc 97 01    	jmp	5271 <.L129>

000050dd <.L0_4>:
    50dd:	f8 2a 0c    	mov	(12,a2),a2
    50e0:	b8          	cmp	a2,a0
    50e1:	c9 e4       	bne	50c5 <.L22>

000050e3 <.L16>:
    50e3:	4c          	inc	d3

000050e4 <.LVL27>:
    50e4:	f2 fe       	mov	d3,mdr

000050e6 <.L9>:
    50e6:	fc a2 c4 a0 	mov	(a0c4 <___malloc_av_+0x10>),a2
    50ea:	00 00 
    50ec:	fc da bc a0 	cmp	41148,a2
    50f0:	00 00 
    50f2:	c9 05       	bne	50f7 <.L0_5>
    50f4:	cc 28 03    	jmp	541c <.L130>

000050f7 <.L0_5>:
    50f7:	f8 02 04    	mov	(4,a2),d0
    50fa:	f8 c4 02    	lsr	2,d0
    50fd:	54          	asl2	d0

000050fe <.LVL30>:
    50fe:	81          	mov	d0,d1
    50ff:	f1 09       	sub	d2,d1

00005101 <.LVL31>:
    5101:	a5 0f       	cmp	15,d1
    5103:	c3 05       	ble	5108 <.L0_6>
    5105:	cc c5 02    	jmp	53ca <.L131>

00005108 <.L0_6>:
    5108:	fc dc bc a0 	mov	41148,a0
    510c:	00 00 
    510e:	fc 80 c8 a0 	mov	a0,(a0c8 <___malloc_av_+0x14>)
    5112:	00 00 
    5114:	fc 80 c4 a0 	mov	a0,(a0c4 <___malloc_av_+0x10>)
    5118:	00 00 

0000511a <.Loc.2442.1>:
    511a:	a5 00       	cmp	0,d1
    511c:	c0 05       	blt	5121 <.L0_7>
    511e:	cc 5f 01    	jmp	527d <.L121>

00005121 <.L0_7>:
    5121:	fa c8 ff 01 	cmp	511,d0
    5125:	c7 05       	bls	512a <.L0_8>
    5127:	cc 51 02    	jmp	5378 <.L27>

0000512a <.L0_8>:
    512a:	f8 c4 03    	lsr	3,d0

0000512d <.LVL32>:
    512d:	83          	mov	d0,d3
    512e:	f8 cb 02    	asr	2,d3
    5131:	85 01       	mov	1,d1

00005133 <.LVL33>:
    5133:	f2 9d       	asl	d3,d1
    5135:	fc a7 b8 a0 	mov	(a0b8 <___malloc_av_+0x4>),d3
    5139:	00 00 
    513b:	f2 1d       	or	d3,d1
    513d:	46 10       	mov	d1,(16,sp)
    513f:	fc 85 b8 a0 	mov	d1,(a0b8 <___malloc_av_+0x4>)
    5143:	00 00 
    5145:	54          	asl2	d0
    5146:	e0          	add	d0,d0

00005147 <.LVL34>:
    5147:	f1 e0       	mov	d0,a0
    5149:	fc d0 b4 a0 	add	41140,a0
    514d:	00 00 

0000514f <.LVL35>:
    514f:	f8 24 08    	mov	(8,a0),a1

00005152 <.LVL36>:
    5152:	f8 32 0c    	mov	a0,(12,a2)
    5155:	f8 36 08    	mov	a1,(8,a2)
    5158:	f8 38 08    	mov	a2,(8,a0)
    515b:	f8 39 0c    	mov	a2,(12,a1)

0000515e <.L24>:
    515e:	f2 e0       	mov	mdr,d0
    5160:	f8 c8 02    	asr	2,d0
    5163:	8f 01       	mov	1,d3
    5165:	f2 93       	asl	d0,d3

00005167 <.LVL38>:
    5167:	a7          	cmp	d1,d3
    5168:	c7 05       	bls	516d <.L0_9>
    516a:	cc 39 01    	jmp	52a3 <.L38>

0000516d <.L0_9>:
    516d:	84          	mov	d1,d0
    516e:	f2 0c       	and	d3,d0
    5170:	c8 05       	beq	5175 <.L0_10>
    5172:	cc 95 02    	jmp	5407 <.L110>

00005175 <.L0_10>:
    5175:	f2 e0       	mov	mdr,d0
    5177:	f8 c4 02    	lsr	2,d0
    517a:	54          	asl2	d0
    517b:	f1 e0       	mov	d0,a0
    517d:	50          	inc4	a0
    517e:	f1 d0       	mov	a0,d0
    5180:	f2 f2       	mov	d0,mdr

00005182 <.LVL39>:
    5182:	ef          	add	d3,d3

00005183 <.Loc.2470.1>:
    5183:	84          	mov	d1,d0

00005184 <.LVL41>:
    5184:	f2 0c       	and	d3,d0
    5186:	c8 05       	beq	518b <.L0_11>
    5188:	cc 7f 02    	jmp	5407 <.L110>

0000518b <.L0_11>:
    518b:	f1 d0       	mov	a0,d0
    518d:	f1 e8       	mov	d2,a0

0000518f <.LVL42>:
    518f:	86          	mov	d1,d2

00005190 <.L90>:
    5190:	28 04       	add	4,d0

00005192 <.Loc.2473.1>:
    5192:	ef          	add	d3,d3

00005193 <.Loc.2470.1>:
    5193:	89          	mov	d2,d1
    5194:	f2 0d       	and	d3,d1
    5196:	c8 fa       	beq	5190 <.L90>
    5198:	f2 f2       	mov	d0,mdr
    519a:	4e 14       	mov	d3,(20,sp)
    519c:	f1 d2       	mov	a0,d2

0000519e <.LVL45>:
    519e:	f2 e3       	mov	mdr,d3

000051a0 <.LVL46>:
    51a0:	57          	asl2	d3
    51a1:	ef          	add	d3,d3
    51a2:	fc c3 b4 a0 	add	41140,d3
    51a6:	00 00 

000051a8 <.LVL47>:
    51a8:	f1 ec       	mov	d3,a0
    51aa:	f2 e0       	mov	mdr,d0
    51ac:	f1 e1       	mov	d0,a1

000051ae <.L48>:
    51ae:	f8 28 0c    	mov	(12,a0),a2
    51b1:	b8          	cmp	a2,a0
    51b2:	c8 20       	beq	51d2 <.L41>

000051b4 <.L47>:
    51b4:	f8 02 04    	mov	(4,a2),d0
    51b7:	f8 c4 02    	lsr	2,d0
    51ba:	54          	asl2	d0

000051bb <.LVL50>:
    51bb:	81          	mov	d0,d1
    51bc:	f1 09       	sub	d2,d1

000051be <.LVL51>:
    51be:	a5 0f       	cmp	15,d1
    51c0:	c3 05       	ble	51c5 <.L0_12>
    51c2:	cc 65 02    	jmp	5427 <.L132>

000051c5 <.L0_12>:
    51c5:	a5 00       	cmp	0,d1
    51c7:	c0 05       	blt	51cc <.L0_13>
    51c9:	cc a8 02    	jmp	5471 <.L133>

000051cc <.L0_13>:
    51cc:	f8 2a 0c    	mov	(12,a2),a2
    51cf:	b8          	cmp	a2,a0
    51d0:	c9 e4       	bne	51b4 <.L47>

000051d2 <.L41>:
    51d2:	20 08       	add	8,a0

000051d4 <.Loc.2526.1>:
    51d4:	45          	inc	a1
    51d5:	f1 d4       	mov	a1,d0
    51d7:	f8 e0 03    	and	3,d0
    51da:	c9 d4       	bne	51ae <.L48>
    51dc:	f1 ec       	mov	d3,a0

000051de <.LVL56>:
    51de:	f2 e0       	mov	mdr,d0

000051e0 <.L51>:
    51e0:	81          	mov	d0,d1
    51e1:	f8 e1 03    	and	3,d1
    51e4:	c9 05       	bne	51e9 <.L0_14>
    51e6:	cc 40 05    	jmp	5726 <.L134>

000051e9 <.L0_14>:
    51e9:	28 ff       	add	-1,d0

000051eb <.Loc.2538.1>:
    51eb:	f1 d1       	mov	a0,d1
    51ed:	29 f8       	add	-8,d1

000051ef <.LVL59>:
    51ef:	f0 00       	mov	(a0),a0
    51f1:	f1 a4       	cmp	d1,a0
    51f3:	c8 ed       	beq	51e0 <.L51>
    51f5:	58 10       	mov	(16,sp),d0

000051f7 <.L50>:
    51f7:	5b 14       	mov	(20,sp),d3
    51f9:	ef          	add	d3,d3
    51fa:	4e 14       	mov	d3,(20,sp)

000051fc <.LVL61>:
    51fc:	a3          	cmp	d0,d3
    51fd:	c7 05       	bls	5202 <.L0_15>
    51ff:	cc a4 00    	jmp	52a3 <.L38>

00005202 <.L0_15>:
    5202:	af 00       	cmp	0,d3
    5204:	c9 05       	bne	5209 <.L0_16>
    5206:	cc 9d 00    	jmp	52a3 <.L38>

00005209 <.L0_16>:
    5209:	8d          	mov	d3,d1
    520a:	f2 01       	and	d0,d1
    520c:	c9 05       	bne	5211 <.L0_17>
    520e:	cc 15 04    	jmp	5623 <.L135>

00005211 <.L0_17>:
    5211:	f1 d4       	mov	a1,d0
    5213:	f2 f2       	mov	d0,mdr

00005215 <.L144>:
    5215:	f2 e3       	mov	mdr,d3
    5217:	57          	asl2	d3
    5218:	ef          	add	d3,d3
    5219:	fc c3 b4 a0 	add	41140,d3
    521d:	00 00 

0000521f <.LVL63>:
    521f:	f1 ec       	mov	d3,a0
    5221:	f2 e0       	mov	mdr,d0
    5223:	f1 e1       	mov	d0,a1
    5225:	ca 89       	bra	51ae <.L48>

00005227 <.L127>:
    5227:	8b          	mov	d2,d3
    5228:	f8 c7 03    	lsr	3,d3
    522b:	8c          	mov	d3,d0
    522c:	e0          	add	d0,d0

0000522d <.LVL65>:
    522d:	54          	asl2	d0
    522e:	f1 e0       	mov	d0,a0
    5230:	fc d0 b4 a0 	add	41140,a0
    5234:	00 00 

00005236 <.LVL66>:
    5236:	f8 28 0c    	mov	(12,a0),a2

00005239 <.LVL67>:
    5239:	b8          	cmp	a2,a0
    523a:	c8 05       	beq	523f <.L0_18>
    523c:	cc 89 fe    	jmp	50c5 <.L22>

0000523f <.L0_18>:
    523f:	cc a4 fe    	jmp	50e3 <.L16>

00005242 <.L126>:
    5242:	f1 d9       	mov	a2,d1
    5244:	29 08       	add	8,d1

00005246 <.LVL69>:
    5246:	f8 2a 14    	mov	(20,a2),a2

00005249 <.Loc.2388.1>:
    5249:	28 02       	add	2,d0

0000524b <.LVL71>:
    524b:	83          	mov	d0,d3
    524c:	f2 f2       	mov	d0,mdr

0000524e <.Loc.2378.1>:
    524e:	f1 99       	cmp	a2,d1
    5250:	c9 05       	bne	5255 <.L0_19>
    5252:	cc 94 fe    	jmp	50e6 <.L9>

00005255 <.L0_19>:
    5255:	f8 02 04    	mov	(4,a2),d0

00005258 <.LVL72>:
    5258:	f8 c4 02    	lsr	2,d0
    525b:	54          	asl2	d0

0000525c <.LVL73>:
    525c:	f8 26 0c    	mov	(12,a2),a1

0000525f <.LVL74>:
    525f:	f8 22 08    	mov	(8,a2),a0

00005262 <.LVL75>:
    5262:	f8 34 0c    	mov	a1,(12,a0)
    5265:	f8 31 08    	mov	a0,(8,a1)

00005268 <.Loc.2382.1>:
    5268:	98          	mov	a2,a0
    5269:	f1 60       	add	d0,a0

0000526b <.LVL76>:
    526b:	f8 00 04    	mov	(4,a0),d0

0000526e <.LVL77>:
    526e:	cc 08 fe    	jmp	5076 <.L120>

00005271 <.L129>:
    5271:	f8 26 0c    	mov	(12,a2),a1

00005274 <.LVL79>:
    5274:	f8 22 08    	mov	(8,a2),a0

00005277 <.LVL80>:
    5277:	f8 34 0c    	mov	a1,(12,a0)
    527a:	f8 31 08    	mov	a0,(8,a1)

0000527d <.L121>:
    527d:	98          	mov	a2,a0
    527e:	f1 60       	add	d0,a0
    5280:	f8 04 04    	mov	(4,a0),d1

00005283 <.LVL82>:
    5283:	f8 e5 01    	or	1,d1
    5286:	f8 14 04    	mov	d1,(4,a0)

00005289 <.Loc.2446.1>:
    5289:	f1 dc       	mov	a3,d0

0000528b <.LVL83>:
    528b:	dd 88 05 00 	call	5813 <___malloc_unlock>,[],0
    528f:	00 00 00 

00005292 <.LVL84>:
    5292:	f1 d8       	mov	a2,d0
    5294:	28 08       	add	8,d0

00005296 <.Loc.2593.1>:
    5296:	f1 e0       	mov	d0,a0
    5298:	df f0 28    	ret	[d2,d3,a2,a3],40

0000529b <.L128>:
    529b:	2b ff       	add	-1,d3

0000529d <.Loc.2417.1>:
    529d:	4c          	inc	d3

0000529e <.LVL87>:
    529e:	f2 fe       	mov	d3,mdr

000052a0 <.LVL88>:
    52a0:	cc 46 fe    	jmp	50e6 <.L9>

000052a3 <.L38>:
    52a3:	fc a2 bc a0 	mov	(a0bc <___malloc_av_+0x8>),a2
    52a7:	00 00 

000052a9 <.LVL90>:
    52a9:	f8 0e 04    	mov	(4,a2),d3

000052ac <.LVL91>:
    52ac:	f8 c7 02    	lsr	2,d3
    52af:	57          	asl2	d3

000052b0 <.LVL92>:
    52b0:	ab          	cmp	d2,d3
    52b1:	c4 09       	bcs	52ba <.L55>

000052b3 <.Loc.2560.1>:
    52b3:	8c          	mov	d3,d0
    52b4:	f1 08       	sub	d2,d0

000052b6 <.LVL93>:
    52b6:	a0 0f       	cmp	15,d0
    52b8:	c1 6f       	bgt	5327 <.L0_24>

000052ba <.L55>:
    52ba:	f1 d9       	mov	a2,d1
    52bc:	ed          	add	d3,d1
    52bd:	46 14       	mov	d1,(20,sp)

000052bf <.LVL95>:
    52bf:	fc a1 fc a4 	mov	(a4fc <___malloc_top_pad>),a1
    52c3:	00 00 
    52c5:	f1 69       	add	d2,a1

000052c7 <.LVL96>:
    52c7:	fc a4 ac a0 	mov	(a0ac <___malloc_sbrk_base>),d0
    52cb:	00 00 
    52cd:	a0 ff       	cmp	-1,d0
    52cf:	c9 05       	bne	52d4 <.L0_20>
    52d1:	cc b9 03    	jmp	568a <.L136>

000052d4 <.L0_20>:
    52d4:	f1 d5       	mov	a1,d1

000052d6 <.LVL97>:
    52d6:	fa c1 0f 10 	add	4111,d1
    52da:	fc e1 00 f0 	and	-4096,d1
    52de:	ff ff 
    52e0:	46 10       	mov	d1,(16,sp)

000052e2 <.L58>:
    52e2:	f1 dc       	mov	a3,d0
    52e4:	59 10       	mov	(16,sp),d1
    52e6:	dd 7f 0f 00 	call	6265 <__sbrk_r>,[],0
    52ea:	00 00 00 

000052ed <.LVL99>:
    52ed:	91          	mov	a0,a1

000052ee <.LVL100>:
    52ee:	fc d8 ff ff 	cmp	-1,a0
    52f2:	ff ff 
    52f4:	c8 16       	beq	530a <.L0_22>
    52f6:	58 14       	mov	(20,sp),d0
    52f8:	f1 90       	cmp	a0,d0
    52fa:	c5 05       	bhi	52ff <.L0_21>
    52fc:	cc d5 01    	jmp	54d1 <.L61>

000052ff <.L0_21>:
    52ff:	fc da b4 a0 	cmp	41140,a2
    5303:	00 00 
    5305:	c9 05       	bne	530a <.L0_22>
    5307:	cc ca 01    	jmp	54d1 <.L61>

0000530a <.L0_22>:
    530a:	fc a2 bc a0 	mov	(a0bc <___malloc_av_+0x8>),a2
    530e:	00 00 

00005310 <.LVL101>:
    5310:	f8 06 04    	mov	(4,a2),d1
    5313:	f8 c5 02    	lsr	2,d1
    5316:	55          	asl2	d1

00005317 <.L60>:
    5317:	84          	mov	d1,d0
    5318:	f1 08       	sub	d2,d0

0000531a <.LVL103>:
    531a:	a9          	cmp	d2,d1
    531b:	c6 05       	bcc	5320 <.L0_23>
    531d:	cc c1 02    	jmp	55de <.L71>

00005320 <.L0_23>:
    5320:	a0 0f       	cmp	15,d0
    5322:	c1 05       	bgt	5327 <.L0_24>
    5324:	cc ba 02    	jmp	55de <.L71>

00005327 <.L0_24>:
    5327:	89          	mov	d2,d1
    5328:	f8 e5 01    	or	1,d1
    532b:	f8 16 04    	mov	d1,(4,a2)

0000532e <.Loc.2586.1>:
    532e:	98          	mov	a2,a0
    532f:	f1 68       	add	d2,a0
    5331:	fc 80 bc a0 	mov	a0,(a0bc <___malloc_av_+0x8>)
    5335:	00 00 

00005337 <.Loc.2587.1>:
    5337:	f8 e4 01    	or	1,d0

0000533a <.LVL105>:
    533a:	f8 10 04    	mov	d0,(4,a0)

0000533d <.Loc.2589.1>:
    533d:	f1 dc       	mov	a3,d0
    533f:	dd d4 04 00 	call	5813 <___malloc_unlock>,[],0
    5343:	00 00 00 

00005346 <.LVL106>:
    5346:	f1 d8       	mov	a2,d0
    5348:	28 08       	add	8,d0
    534a:	cc 3f fd    	jmp	5089 <.L5>

0000534d <.L12>:
    534d:	af 14       	cmp	20,d3
    534f:	c5 05       	bhi	5354 <.L0_25>
    5351:	cc 4a 01    	jmp	549b <.L137>

00005354 <.L0_25>:
    5354:	af 54       	cmp	84,d3
    5356:	c7 05       	bls	535b <.L0_26>
    5358:	cc dc 02    	jmp	5634 <.L14>

0000535b <.L0_26>:
    535b:	8b          	mov	d2,d3
    535c:	f8 c7 0c    	lsr	12,d3
    535f:	2b 6e       	add	110,d3
    5361:	8c          	mov	d3,d0
    5362:	e0          	add	d0,d0

00005363 <.LVL108>:
    5363:	54          	asl2	d0
    5364:	f1 e0       	mov	d0,a0
    5366:	fc d0 b4 a0 	add	41140,a0
    536a:	00 00 

0000536c <.LVL109>:
    536c:	f8 28 0c    	mov	(12,a0),a2

0000536f <.LVL110>:
    536f:	b8          	cmp	a2,a0
    5370:	c8 05       	beq	5375 <.L0_27>
    5372:	cc 53 fd    	jmp	50c5 <.L22>

00005375 <.L0_27>:
    5375:	cc 6e fd    	jmp	50e3 <.L16>

00005378 <.L27>:
    5378:	81          	mov	d0,d1

00005379 <.LVL112>:
    5379:	f8 c5 09    	lsr	9,d1
    537c:	a5 04       	cmp	4,d1
    537e:	c5 05       	bhi	5383 <.L0_28>
    5380:	cc 34 01    	jmp	54b4 <.L138>

00005383 <.L0_28>:
    5383:	a5 14       	cmp	20,d1
    5385:	c7 05       	bls	538a <.L0_29>
    5387:	cc 0c 03    	jmp	5693 <.L30>

0000538a <.L0_29>:
    538a:	29 5b       	add	91,d1
    538c:	87          	mov	d1,d3
    538d:	ef          	add	d3,d3

0000538e <.LVL113>:
    538e:	57          	asl2	d3
    538f:	f1 ec       	mov	d3,a0
    5391:	fc d0 b4 a0 	add	41140,a0
    5395:	00 00 

00005397 <.LVL114>:
    5397:	f8 24 08    	mov	(8,a0),a1

0000539a <.LVL115>:
    539a:	b1          	cmp	a0,a1
    539b:	c9 05       	bne	53a0 <.L0_30>
    539d:	cc 19 02    	jmp	55b6 <.L139>

000053a0 <.L0_30>:
    53a0:	f8 05 04    	mov	(4,a1),d1
    53a3:	f8 c5 02    	lsr	2,d1
    53a6:	55          	asl2	d1
    53a7:	a4          	cmp	d1,d0
    53a8:	c6 08       	bcc	53b0 <.L36>

000053aa <.Loc.2452.1>:
    53aa:	f8 25 08    	mov	(8,a1),a1
    53ad:	b4          	cmp	a1,a0
    53ae:	c9 f2       	bne	53a0 <.L0_30>

000053b0 <.L36>:
    53b0:	f8 21 0c    	mov	(12,a1),a0
    53b3:	fc a5 b8 a0 	mov	(a0b8 <___malloc_av_+0x4>),d1
    53b7:	00 00 
    53b9:	46 10       	mov	d1,(16,sp)
    53bb:	f8 32 0c    	mov	a0,(12,a2)
    53be:	f8 36 08    	mov	a1,(8,a2)
    53c1:	f8 38 08    	mov	a2,(8,a0)
    53c4:	f8 39 0c    	mov	a2,(12,a1)
    53c7:	cc 97 fd    	jmp	515e <.L24>

000053ca <.L131>:
    53ca:	98          	mov	a2,a0
    53cb:	f1 68       	add	d2,a0

000053cd <.LVL120>:
    53cd:	f8 e6 01    	or	1,d2
    53d0:	f8 1a 04    	mov	d2,(4,a2)

000053d3 <.Loc.2498.1>:
    53d3:	fc 80 c8 a0 	mov	a0,(a0c8 <___malloc_av_+0x14>)
    53d7:	00 00 
    53d9:	fc 80 c4 a0 	mov	a0,(a0c4 <___malloc_av_+0x10>)
    53dd:	00 00 
    53df:	fc cc bc a0 	mov	41148,d0
    53e3:	00 00 

000053e5 <.LVL121>:
    53e5:	f8 10 0c    	mov	d0,(12,a0)
    53e8:	f8 10 08    	mov	d0,(8,a0)

000053eb <.Loc.2499.1>:
    53eb:	84          	mov	d1,d0
    53ec:	f8 e4 01    	or	1,d0
    53ef:	f8 10 04    	mov	d0,(4,a0)

000053f2 <.Loc.2500.1>:
    53f2:	f1 64       	add	d1,a0

000053f4 <.LVL122>:
    53f4:	64          	mov	d1,(a0)

000053f5 <.Loc.2502.1>:
    53f5:	f1 dc       	mov	a3,d0
    53f7:	dd 1c 04 00 	call	5813 <___malloc_unlock>,[],0
    53fb:	00 00 00 

000053fe <.LVL123>:
    53fe:	f1 d8       	mov	a2,d0
    5400:	28 08       	add	8,d0

00005402 <.L140>:
    5402:	f1 e0       	mov	d0,a0
    5404:	df f0 28    	ret	[d2,d3,a2,a3],40

00005407 <.L110>:
    5407:	4e 14       	mov	d3,(20,sp)

00005409 <.LVL125>:
    5409:	f2 e3       	mov	mdr,d3
    540b:	57          	asl2	d3
    540c:	ef          	add	d3,d3
    540d:	fc c3 b4 a0 	add	41140,d3
    5411:	00 00 

00005413 <.LVL126>:
    5413:	f1 ec       	mov	d3,a0
    5415:	f2 e0       	mov	mdr,d0
    5417:	f1 e1       	mov	d0,a1
    5419:	cc 95 fd    	jmp	51ae <.L48>

0000541c <.L130>:
    541c:	fc a5 b8 a0 	mov	(a0b8 <___malloc_av_+0x4>),d1
    5420:	00 00 
    5422:	46 10       	mov	d1,(16,sp)
    5424:	cc 3a fd    	jmp	515e <.L24>

00005427 <.L132>:
    5427:	98          	mov	a2,a0
    5428:	f1 68       	add	d2,a0

0000542a <.LVL129>:
    542a:	f8 e6 01    	or	1,d2
    542d:	f8 1a 04    	mov	d2,(4,a2)

00005430 <.Loc.2497.1>:
    5430:	f8 02 0c    	mov	(12,a2),d0

00005433 <.LVL130>:
    5433:	f8 0a 08    	mov	(8,a2),d2

00005436 <.LVL131>:
    5436:	f1 e9       	mov	d2,a1

00005438 <.LVL132>:
    5438:	f8 11 0c    	mov	d0,(12,a1)
    543b:	f1 e1       	mov	d0,a1
    543d:	f8 19 08    	mov	d2,(8,a1)

00005440 <.Loc.2498.1>:
    5440:	fc 80 c8 a0 	mov	a0,(a0c8 <___malloc_av_+0x14>)
    5444:	00 00 
    5446:	fc 80 c4 a0 	mov	a0,(a0c4 <___malloc_av_+0x10>)
    544a:	00 00 
    544c:	fc cc bc a0 	mov	41148,d0
    5450:	00 00 

00005452 <.LVL133>:
    5452:	f8 10 0c    	mov	d0,(12,a0)
    5455:	f8 10 08    	mov	d0,(8,a0)

00005458 <.Loc.2499.1>:
    5458:	84          	mov	d1,d0
    5459:	f8 e4 01    	or	1,d0
    545c:	f8 10 04    	mov	d0,(4,a0)

0000545f <.Loc.2500.1>:
    545f:	f1 64       	add	d1,a0

00005461 <.LVL134>:
    5461:	64          	mov	d1,(a0)

00005462 <.Loc.2502.1>:
    5462:	f1 dc       	mov	a3,d0
    5464:	dd af 03 00 	call	5813 <___malloc_unlock>,[],0
    5468:	00 00 00 

0000546b <.LVL135>:
    546b:	f1 d8       	mov	a2,d0
    546d:	28 08       	add	8,d0
    546f:	ca 93       	bra	5402 <.L140>

00005471 <.L133>:
    5471:	98          	mov	a2,a0
    5472:	f1 60       	add	d0,a0

00005474 <.LVL137>:
    5474:	f8 04 04    	mov	(4,a0),d1

00005477 <.LVL138>:
    5477:	f8 e5 01    	or	1,d1
    547a:	f8 14 04    	mov	d1,(4,a0)

0000547d <.Loc.2509.1>:
    547d:	f8 26 0c    	mov	(12,a2),a1

00005480 <.LVL139>:
    5480:	f8 22 08    	mov	(8,a2),a0

00005483 <.LVL140>:
    5483:	f8 34 0c    	mov	a1,(12,a0)
    5486:	f8 31 08    	mov	a0,(8,a1)

00005489 <.Loc.2511.1>:
    5489:	f1 dc       	mov	a3,d0

0000548b <.LVL141>:
    548b:	dd 88 03 00 	call	5813 <___malloc_unlock>,[],0
    548f:	00 00 00 

00005492 <.LVL142>:
    5492:	f1 d8       	mov	a2,d0
    5494:	28 08       	add	8,d0

00005496 <.Loc.2593.1>:
    5496:	f1 e0       	mov	d0,a0
    5498:	df f0 28    	ret	[d2,d3,a2,a3],40

0000549b <.L137>:
    549b:	2b 5b       	add	91,d3
    549d:	8c          	mov	d3,d0
    549e:	e0          	add	d0,d0

0000549f <.LVL144>:
    549f:	54          	asl2	d0
    54a0:	f1 e0       	mov	d0,a0
    54a2:	fc d0 b4 a0 	add	41140,a0
    54a6:	00 00 

000054a8 <.LVL145>:
    54a8:	f8 28 0c    	mov	(12,a0),a2

000054ab <.LVL146>:
    54ab:	b8          	cmp	a2,a0
    54ac:	c8 05       	beq	54b1 <.L0_31>
    54ae:	cc 17 fc    	jmp	50c5 <.L22>

000054b1 <.L0_31>:
    54b1:	cc 32 fc    	jmp	50e3 <.L16>

000054b4 <.L138>:
    54b4:	81          	mov	d0,d1
    54b5:	f8 c5 06    	lsr	6,d1
    54b8:	29 38       	add	56,d1
    54ba:	87          	mov	d1,d3
    54bb:	ef          	add	d3,d3

000054bc <.LVL148>:
    54bc:	57          	asl2	d3
    54bd:	f1 ec       	mov	d3,a0
    54bf:	fc d0 b4 a0 	add	41140,a0
    54c3:	00 00 

000054c5 <.LVL149>:
    54c5:	f8 24 08    	mov	(8,a0),a1

000054c8 <.LVL150>:
    54c8:	b1          	cmp	a0,a1
    54c9:	c8 05       	beq	54ce <.L0_32>
    54cb:	cc d5 fe    	jmp	53a0 <.L0_30>

000054ce <.L0_32>:
    54ce:	cc e8 00    	jmp	55b6 <.L139>

000054d1 <.L61>:
    54d1:	fc a4 cc a4 	mov	(a4cc <___malloc_current_mallinfo>),d0
    54d5:	00 00 
    54d7:	59 10       	mov	(16,sp),d1
    54d9:	e4          	add	d1,d0
    54da:	fc 81 cc a4 	mov	d0,(a4cc <___malloc_current_mallinfo>)
    54de:	00 00 

000054e0 <.Loc.2174.1>:
    54e0:	59 14       	mov	(20,sp),d1
    54e2:	f1 95       	cmp	a1,d1
    54e4:	c9 05       	bne	54e9 <.L0_33>
    54e6:	cc 07 01    	jmp	55ed <.L141>

000054e9 <.L0_33>:
    54e9:	fc a5 ac a0 	mov	(a0ac <___malloc_sbrk_base>),d1
    54ed:	00 00 
    54ef:	a5 ff       	cmp	-1,d1
    54f1:	c9 05       	bne	54f6 <.L0_34>
    54f3:	cc e4 01    	jmp	56d7 <.L142>

000054f6 <.L0_34>:
    54f6:	94          	mov	a1,a0

000054f7 <.LVL152>:
    54f7:	59 14       	mov	(20,sp),d1
    54f9:	f1 24       	sub	d1,a0
    54fb:	f1 50       	add	a0,d0
    54fd:	fc 81 cc a4 	mov	d0,(a4cc <___malloc_current_mallinfo>)
    5501:	00 00 

00005503 <.L65>:
    5503:	f1 d4       	mov	a1,d0
    5505:	f8 e0 07    	and	7,d0

00005508 <.LVL153>:
    5508:	c9 05       	bne	550d <.L0_35>
    550a:	cc 4d 01    	jmp	5657 <.L75>

0000550d <.L0_35>:
    550d:	f1 21       	sub	d0,a1

0000550f <.LVL155>:
    550f:	21 08       	add	8,a1

00005511 <.LVL156>:
    5511:	2d 08 10    	mov	4104,d1
    5514:	f1 01       	sub	d0,d1

00005516 <.L66>:
    5516:	58 10       	mov	(16,sp),d0

00005518 <.LVL158>:
    5518:	f1 54       	add	a1,d0
    551a:	fa e0 ff 0f 	and	4095,d0
    551e:	f1 01       	sub	d0,d1
    5520:	46 10       	mov	d1,(16,sp)

00005522 <.LVL159>:
    5522:	f1 dc       	mov	a3,d0
    5524:	47 0c       	mov	a1,(12,sp)
    5526:	dd 3f 0d 00 	call	6265 <__sbrk_r>,[],0
    552a:	00 00 00 

0000552d <.LVL160>:
    552d:	5d 0c       	mov	(12,sp),a1
    552f:	fc d8 ff ff 	cmp	-1,a0
    5533:	ff ff 
    5535:	c9 05       	bne	553a <.L0_36>
    5537:	cc 97 01    	jmp	56ce <.L76>

0000553a <.L0_36>:
    553a:	f1 34       	sub	a1,a0

0000553c <.LVL161>:
    553c:	59 10       	mov	(16,sp),d1
    553e:	f1 51       	add	a0,d1
    5540:	f8 e5 01    	or	1,d1

00005543 <.L67>:
    5543:	fc a4 cc a4 	mov	(a4cc <___malloc_current_mallinfo>),d0
    5547:	00 00 
    5549:	5c 10       	mov	(16,sp),a0
    554b:	f1 50       	add	a0,d0
    554d:	fc 81 cc a4 	mov	d0,(a4cc <___malloc_current_mallinfo>)
    5551:	00 00 

00005553 <.Loc.2212.1>:
    5553:	fc 84 bc a0 	mov	a1,(a0bc <___malloc_av_+0x8>)
    5557:	00 00 

00005559 <.Loc.2214.1>:
    5559:	f8 15 04    	mov	d1,(4,a1)

0000555c <.Loc.2216.1>:
    555c:	fc da b4 a0 	cmp	41140,a2
    5560:	00 00 
    5562:	c8 2b       	beq	558d <.L117>

00005564 <.Loc.2223.1>:
    5564:	af 0f       	cmp	15,d3
    5566:	c5 05       	bhi	556b <.L0_37>
    5568:	cc f5 00    	jmp	565d <.L143>

0000556b <.L0_37>:
    556b:	2b f4       	add	-12,d3

0000556d <.LVL162>:
    556d:	fc e3 f8 ff 	and	-8,d3
    5571:	ff ff 

00005573 <.LVL163>:
    5573:	f8 06 04    	mov	(4,a2),d1
    5576:	f8 e1 01    	and	1,d1
    5579:	f2 1d       	or	d3,d1
    557b:	f8 16 04    	mov	d1,(4,a2)

0000557e <.Loc.2232.1>:
    557e:	98          	mov	a2,a0
    557f:	f1 6c       	add	d3,a0
    5581:	85 05       	mov	5,d1
    5583:	f8 14 04    	mov	d1,(4,a0)

00005586 <.Loc.2234.1>:
    5586:	f8 14 08    	mov	d1,(8,a0)

00005589 <.Loc.2237.1>:
    5589:	af 0f       	cmp	15,d3
    558b:	c5 7c       	bhi	5607 <.L106>

0000558d <.L117>:
    558d:	96          	mov	a1,a2

0000558e <.L63>:
    558e:	fc a5 f8 a4 	mov	(a4f8 <___malloc_max_sbrked_mem>),d1
    5592:	00 00 
    5594:	a4          	cmp	d1,d0
    5595:	c7 08       	bls	559d <.L69>

00005597 <.Loc.2243.1>:
    5597:	fc 81 f8 a4 	mov	d0,(a4f8 <___malloc_max_sbrked_mem>)
    559b:	00 00 

0000559d <.L69>:
    559d:	fc a5 f4 a4 	mov	(a4f4 <___malloc_max_total_mem>),d1
    55a1:	00 00 
    55a3:	a4          	cmp	d1,d0
    55a4:	c7 08       	bls	55ac <.L119>

000055a6 <.Loc.2249.1>:
    55a6:	fc 81 f4 a4 	mov	d0,(a4f4 <___malloc_max_total_mem>)
    55aa:	00 00 

000055ac <.L119>:
    55ac:	f8 06 04    	mov	(4,a2),d1
    55af:	f8 c5 02    	lsr	2,d1
    55b2:	55          	asl2	d1
    55b3:	cc 64 fd    	jmp	5317 <.L60>

000055b6 <.L139>:
    55b6:	84          	mov	d1,d0

000055b7 <.LVL166>:
    55b7:	f8 c8 02    	asr	2,d0
    55ba:	85 01       	mov	1,d1

000055bc <.LVL167>:
    55bc:	f2 91       	asl	d0,d1
    55be:	fc a4 b8 a0 	mov	(a0b8 <___malloc_av_+0x4>),d0
    55c2:	00 00 
    55c4:	f2 11       	or	d0,d1
    55c6:	46 10       	mov	d1,(16,sp)
    55c8:	fc 85 b8 a0 	mov	d1,(a0b8 <___malloc_av_+0x4>)
    55cc:	00 00 
    55ce:	94          	mov	a1,a0

000055cf <.LVL168>:
    55cf:	f8 32 0c    	mov	a0,(12,a2)
    55d2:	f8 36 08    	mov	a1,(8,a2)
    55d5:	f8 38 08    	mov	a2,(8,a0)
    55d8:	f8 39 0c    	mov	a2,(12,a1)
    55db:	cc 83 fb    	jmp	515e <.L24>

000055de <.L71>:
    55de:	f1 dc       	mov	a3,d0

000055e0 <.LVL170>:
    55e0:	dd 33 02 00 	call	5813 <___malloc_unlock>,[],0
    55e4:	00 00 00 

000055e7 <.LVL171>:
	...

000055e8 <.Loc.2593.1>:
    55e8:	f1 e0       	mov	d0,a0
    55ea:	df f0 28    	ret	[d2,d3,a2,a3],40

000055ed <.L141>:
    55ed:	fa e1 ff 0f 	and	4095,d1
    55f1:	c8 05       	beq	55f6 <.L0_38>
    55f3:	cc f6 fe    	jmp	54e9 <.L0_33>

000055f6 <.L0_38>:
    55f6:	fc a2 bc a0 	mov	(a0bc <___malloc_av_+0x8>),a2
    55fa:	00 00 

000055fc <.LVL174>:
    55fc:	59 10       	mov	(16,sp),d1
    55fe:	e7          	add	d1,d3

000055ff <.LVL175>:
    55ff:	f8 e7 01    	or	1,d3

00005602 <.LVL176>:
    5602:	f8 1e 04    	mov	d3,(4,a2)
    5605:	ca 89       	bra	558e <.L63>

00005607 <.L106>:
    5607:	f1 dc       	mov	a3,d0
    5609:	f1 d9       	mov	a2,d1
    560b:	29 08       	add	8,d1
    560d:	dd 47 f5 ff 	call	4b54 <__free_r>,[],0
    5611:	ff 00 00 

00005614 <.LVL178>:
    5614:	fc a4 cc a4 	mov	(a4cc <___malloc_current_mallinfo>),d0
    5618:	00 00 
    561a:	fc a2 bc a0 	mov	(a0bc <___malloc_av_+0x8>),a2
    561e:	00 00 

00005620 <.LVL179>:
    5620:	cc 6e ff    	jmp	558e <.L63>

00005623 <.L135>:
    5623:	8d          	mov	d3,d1

00005624 <.L88>:
    5624:	51          	inc4	a1

00005625 <.Loc.2548.1>:
    5625:	e5          	add	d1,d1

00005626 <.Loc.2545.1>:
    5626:	83          	mov	d0,d3
    5627:	f2 07       	and	d1,d3
    5629:	c8 fb       	beq	5624 <.L88>
    562b:	46 14       	mov	d1,(20,sp)

0000562d <.Loc.2452.1>:
    562d:	f1 d4       	mov	a1,d0
    562f:	f2 f2       	mov	d0,mdr
    5631:	cc e4 fb    	jmp	5215 <.L144>

00005634 <.L14>:
    5634:	fa cb 54 01 	cmp	340,d3
    5638:	c5 2f       	bhi	5667 <.L15>

0000563a <.Loc.2393.1>:
    563a:	8b          	mov	d2,d3
    563b:	f8 c7 0f    	lsr	15,d3
    563e:	2b 77       	add	119,d3
    5640:	8c          	mov	d3,d0
    5641:	e0          	add	d0,d0

00005642 <.LVL185>:
    5642:	54          	asl2	d0
    5643:	f1 e0       	mov	d0,a0
    5645:	fc d0 b4 a0 	add	41140,a0
    5649:	00 00 

0000564b <.LVL186>:
    564b:	f8 28 0c    	mov	(12,a0),a2

0000564e <.LVL187>:
    564e:	b8          	cmp	a2,a0
    564f:	c8 05       	beq	5654 <.L0_39>
    5651:	cc 74 fa    	jmp	50c5 <.L22>

00005654 <.L0_39>:
    5654:	cc 8f fa    	jmp	50e3 <.L16>

00005657 <.L75>:
    5657:	2d 00 10    	mov	4096,d1
    565a:	cc bc fe    	jmp	5516 <.L66>

0000565d <.L143>:
    565d:	80 01       	mov	1,d0
    565f:	f8 11 04    	mov	d0,(4,a1)
    5662:	96          	mov	a1,a2

00005663 <.LVL190>:
    5663:	04          	clr	d1
    5664:	cc b3 fc    	jmp	5317 <.L60>

00005667 <.L15>:
    5667:	fa cb 54 05 	cmp	1364,d3
    566b:	c5 49       	bhi	56b4 <.L73>

0000566d <.Loc.2393.1>:
    566d:	8b          	mov	d2,d3
    566e:	f8 c7 12    	lsr	18,d3
    5671:	2b 7c       	add	124,d3
    5673:	8c          	mov	d3,d0
    5674:	e0          	add	d0,d0

00005675 <.LVL192>:
    5675:	54          	asl2	d0
    5676:	f1 e0       	mov	d0,a0
    5678:	fc d0 b4 a0 	add	41140,a0
    567c:	00 00 

0000567e <.LVL193>:
    567e:	f8 28 0c    	mov	(12,a0),a2

00005681 <.LVL194>:
    5681:	b8          	cmp	a2,a0
    5682:	c8 05       	beq	5687 <.L0_40>
    5684:	cc 41 fa    	jmp	50c5 <.L22>

00005687 <.L0_40>:
    5687:	cc 5c fa    	jmp	50e3 <.L16>

0000568a <.L136>:
    568a:	f1 d4       	mov	a1,d0
    568c:	28 10       	add	16,d0
    568e:	42 10       	mov	d0,(16,sp)
    5690:	cc 52 fc    	jmp	52e2 <.L58>

00005693 <.L30>:
    5693:	a5 54       	cmp	84,d1
    5695:	c5 4b       	bhi	56e0 <.L31>

00005697 <.Loc.2452.1>:
    5697:	81          	mov	d0,d1
    5698:	f8 c5 0c    	lsr	12,d1
    569b:	29 6e       	add	110,d1
    569d:	87          	mov	d1,d3
    569e:	ef          	add	d3,d3

0000569f <.LVL197>:
    569f:	57          	asl2	d3
    56a0:	f1 ec       	mov	d3,a0
    56a2:	fc d0 b4 a0 	add	41140,a0
    56a6:	00 00 

000056a8 <.LVL198>:
    56a8:	f8 24 08    	mov	(8,a0),a1

000056ab <.LVL199>:
    56ab:	b1          	cmp	a0,a1
    56ac:	c8 05       	beq	56b1 <.L0_41>
    56ae:	cc f2 fc    	jmp	53a0 <.L0_30>

000056b1 <.L0_41>:
    56b1:	cc 05 ff    	jmp	55b6 <.L139>

000056b4 <.L73>:
    56b4:	2c fc 00    	mov	252,d0
    56b7:	8f 7e       	mov	126,d3

000056b9 <.LVL201>:
    56b9:	54          	asl2	d0
    56ba:	f1 e0       	mov	d0,a0
    56bc:	fc d0 b4 a0 	add	41140,a0
    56c0:	00 00 

000056c2 <.LVL202>:
    56c2:	f8 28 0c    	mov	(12,a0),a2

000056c5 <.LVL203>:
    56c5:	b8          	cmp	a2,a0
    56c6:	c8 05       	beq	56cb <.L0_42>
    56c8:	cc fd f9    	jmp	50c5 <.L22>

000056cb <.L0_42>:
    56cb:	cc 18 fa    	jmp	50e3 <.L16>

000056ce <.L76>:
    56ce:	85 01       	mov	1,d1

000056d0 <.Loc.2205.1>:
    56d0:	90 00       	mov	0,a0

000056d2 <.LVL205>:
    56d2:	43 10       	mov	a0,(16,sp)
    56d4:	cc 6f fe    	jmp	5543 <.L67>

000056d7 <.L142>:
    56d7:	fc 84 ac a0 	mov	a1,(a0ac <___malloc_sbrk_base>)
    56db:	00 00 
    56dd:	cc 26 fe    	jmp	5503 <.L65>

000056e0 <.L31>:
    56e0:	fa c9 54 01 	cmp	340,d1
    56e4:	c5 1f       	bhi	5703 <.L32>

000056e6 <.Loc.2452.1>:
    56e6:	81          	mov	d0,d1
    56e7:	f8 c5 0f    	lsr	15,d1
    56ea:	29 77       	add	119,d1
    56ec:	87          	mov	d1,d3
    56ed:	ef          	add	d3,d3

000056ee <.LVL208>:
    56ee:	57          	asl2	d3
    56ef:	f1 ec       	mov	d3,a0
    56f1:	fc d0 b4 a0 	add	41140,a0
    56f5:	00 00 

000056f7 <.LVL209>:
    56f7:	f8 24 08    	mov	(8,a0),a1

000056fa <.LVL210>:
    56fa:	b1          	cmp	a0,a1
    56fb:	c8 05       	beq	5700 <.L0_43>
    56fd:	cc a3 fc    	jmp	53a0 <.L0_30>

00005700 <.L0_43>:
    5700:	cc b6 fe    	jmp	55b6 <.L139>

00005703 <.L32>:
    5703:	fa c9 54 05 	cmp	1364,d1
    5707:	c5 32       	bhi	5739 <.L74>

00005709 <.Loc.2452.1>:
    5709:	81          	mov	d0,d1
    570a:	f8 c5 12    	lsr	18,d1
    570d:	29 7c       	add	124,d1
    570f:	87          	mov	d1,d3
    5710:	ef          	add	d3,d3

00005711 <.LVL212>:
    5711:	57          	asl2	d3
    5712:	f1 ec       	mov	d3,a0
    5714:	fc d0 b4 a0 	add	41140,a0
    5718:	00 00 

0000571a <.LVL213>:
    571a:	f8 24 08    	mov	(8,a0),a1

0000571d <.LVL214>:
    571d:	b1          	cmp	a0,a1
    571e:	c8 05       	beq	5723 <.L0_44>
    5720:	cc 80 fc    	jmp	53a0 <.L0_30>

00005723 <.L0_44>:
    5723:	cc 93 fe    	jmp	55b6 <.L139>

00005726 <.L134>:
    5726:	58 14       	mov	(20,sp),d0

00005728 <.LVL216>:
    5728:	f2 30       	not	d0
    572a:	59 10       	mov	(16,sp),d1
    572c:	f2 04       	and	d1,d0
    572e:	42 10       	mov	d0,(16,sp)
    5730:	fc 81 b8 a0 	mov	d0,(a0b8 <___malloc_av_+0x4>)
    5734:	00 00 

00005736 <.Loc.2535.1>:
    5736:	cc c1 fa    	jmp	51f7 <.L50>

00005739 <.L74>:
    5739:	2f fc 00    	mov	252,d3
    573c:	85 7e       	mov	126,d1

0000573e <.LVL218>:
    573e:	57          	asl2	d3
    573f:	f1 ec       	mov	d3,a0
    5741:	fc d0 b4 a0 	add	41140,a0
    5745:	00 00 

00005747 <.LVL219>:
    5747:	f8 24 08    	mov	(8,a0),a1

0000574a <.LVL220>:
    574a:	b1          	cmp	a0,a1
    574b:	c8 05       	beq	5750 <.L0_45>
    574d:	cc 53 fc    	jmp	53a0 <.L0_30>

00005750 <.L0_45>:
    5750:	cc 66 fe    	jmp	55b6 <.L139>

00005753 <_memchr>:
    5753:	cf f0       	movm	[d2,d3,a2,a3],(sp)

00005755 <.Lend_of_prologue>:
    5755:	f1 e0       	mov	d0,a0

00005757 <.Loc.10.1>:
    5757:	86          	mov	d1,d2

00005758 <.Loc.11.1>:
    5758:	5d 1c       	mov	(28,sp),a1

0000575a <.Loc.13.1>:
    575a:	b5 03       	cmp	3,a1

0000575c <.Loc.14.1>:
    575c:	c7 4c       	bls	57a8 <.L44>

0000575e <.Loc.15.1>:
    575e:	f1 d3       	mov	a0,d3

00005760 <.Loc.16.1>:
    5760:	f8 ef 03    	btst	3,d3

00005763 <.Loc.17.1>:
    5763:	c9 45       	bne	57a8 <.L44>

00005765 <.Loc.18.1>:
    5765:	92          	mov	a0,a2

00005766 <.Loc.19.1>:
    5766:	9f 00       	mov	0,a3

00005768 <.Loc.20.1>:
    5768:	04          	clr	d1

00005769 <.Loc.21.1>:
    5769:	db          	setlb	

0000576a <.Loc.22.1>:
    576a:	f1 dc       	mov	a3,d0

0000576c <.Loc.23.1>:
    576c:	f8 c0 08    	asl	8,d0

0000576f <.Loc.24.1>:
    576f:	f1 eb       	mov	d2,a3

00005771 <.Loc.25.1>:
    5771:	f1 63       	add	d0,a3

00005773 <.Loc.26.1>:
    5773:	44          	inc	d1

00005774 <.Loc.27.1>:
    5774:	a5 03       	cmp	3,d1

00005776 <.Loc.28.1>:
    5776:	d7          	lls	

00005777 <.Loc.29.1>:
    5777:	b5 03       	cmp	3,a1

00005779 <.Loc.30.1>:
    5779:	c7 2e       	bls	57a7 <.L48>

0000577b <.L33>:
    577b:	72          	mov	(a2),d0

0000577c <.Loc.33.1>:
    577c:	f1 df       	mov	a3,d3

0000577e <.Loc.34.1>:
    577e:	f2 2c       	xor	d3,d0

00005780 <.Loc.35.1>:
    5780:	81          	mov	d0,d1

00005781 <.Loc.36.1>:
    5781:	f2 31       	not	d1

00005783 <.Loc.37.1>:
    5783:	fc c0 ff fe 	add	-16843009,d0
    5787:	fe fe 

00005789 <.Loc.38.1>:
    5789:	f2 04       	and	d1,d0

0000578b <.Loc.39.1>:
    578b:	fc ec 80 80 	btst	-2139062144,d0
    578f:	80 80 

00005791 <.Loc.40.1>:
    5791:	c8 0f       	beq	57a0 <.L34>

00005793 <.Loc.41.1>:
    5793:	98          	mov	a2,a0

00005794 <.Loc.42.1>:
    5794:	04          	clr	d1

00005795 <.Loc.43.1>:
    5795:	db          	setlb	

00005796 <.Loc.44.1>:
    5796:	f0 40       	movbu	(a0),d0

00005798 <.Loc.45.1>:
    5798:	a8          	cmp	d2,d0

00005799 <.Loc.46.1>:
    5799:	c8 23       	beq	57bc <.Lepilogue>

0000579b <.Loc.47.1>:
    579b:	41          	inc	a0

0000579c <.Loc.48.1>:
    579c:	44          	inc	d1

0000579d <.Loc.49.1>:
    579d:	a5 03       	cmp	3,d1

0000579f <.Loc.50.1>:
    579f:	d7          	lls	

000057a0 <.L34>:
    57a0:	21 fc       	add	-4,a1

000057a2 <.Loc.53.1>:
    57a2:	52          	inc4	a2

000057a3 <.Loc.54.1>:
    57a3:	b5 03       	cmp	3,a1

000057a5 <.Loc.55.1>:
    57a5:	c5 d6       	bhi	577b <.L33>

000057a7 <.L48>:
    57a7:	98          	mov	a2,a0

000057a8 <.L44>:
    57a8:	b5 00       	cmp	0,a1

000057aa <.Loc.61.1>:
    57aa:	c8 10       	beq	57ba <.L50>

000057ac <.Loc.62.1>:
    57ac:	db          	setlb	

000057ad <.Loc.63.1>:
    57ad:	f0 40       	movbu	(a0),d0

000057af <.Loc.64.1>:
    57af:	a8          	cmp	d2,d0

000057b0 <.Loc.65.1>:
    57b0:	c8 0c       	beq	57bc <.Lepilogue>

000057b2 <.Loc.66.1>:
    57b2:	41          	inc	a0

000057b3 <.Loc.67.1>:
    57b3:	fc d5 01 00 	sub	1,a1
    57b7:	00 00 

000057b9 <.Loc.68.1>:
    57b9:	d9          	lne	

000057ba <.L50>:
    57ba:	90 00       	mov	0,a0

000057bc <.Lepilogue>:
    57bc:	df f0 10    	ret	[d2,d3,a2,a3],16

000057bf <_memcpy>:
    57bf:	cf f0       	movm	[d2,d3,a2,a3],(sp)

000057c1 <.Lend_of_prologue>:
    57c1:	82          	mov	d0,d2

000057c2 <.Loc.10.1>:
    57c2:	f1 e4       	mov	d1,a0

000057c4 <.Loc.11.1>:
    57c4:	f1 e9       	mov	d2,a1

000057c6 <.Loc.12.1>:
    57c6:	59 1c       	mov	(28,sp),d1

000057c8 <.Loc.14.1>:
    57c8:	f1 d0       	mov	a0,d0

000057ca <.Loc.15.1>:
    57ca:	f2 18       	or	d2,d0

000057cc <.Loc.16.1>:
    57cc:	f8 ec 03    	btst	3,d0

000057cf <.Loc.17.1>:
    57cf:	c9 2a       	bne	57f9 <.L37>

000057d1 <.Loc.18.1>:
    57d1:	a5 0f       	cmp	15,d1

000057d3 <.Loc.19.1>:
    57d3:	c7 18       	bls	57eb <.L34>

000057d5 <.Loc.20.1>:
    57d5:	db          	setlb	

000057d6 <.Loc.21.1>:
    57d6:	70          	mov	(a0),d0

000057d7 <.Loc.22.1>:
    57d7:	61          	mov	d0,(a1)

000057d8 <.Loc.23.1>:
    57d8:	50          	inc4	a0

000057d9 <.Loc.24.1>:
    57d9:	51          	inc4	a1

000057da <.Loc.25.1>:
    57da:	70          	mov	(a0),d0

000057db <.Loc.26.1>:
    57db:	61          	mov	d0,(a1)

000057dc <.Loc.27.1>:
    57dc:	50          	inc4	a0

000057dd <.Loc.28.1>:
    57dd:	51          	inc4	a1

000057de <.Loc.29.1>:
    57de:	70          	mov	(a0),d0

000057df <.Loc.30.1>:
    57df:	61          	mov	d0,(a1)

000057e0 <.Loc.31.1>:
    57e0:	50          	inc4	a0

000057e1 <.Loc.32.1>:
    57e1:	51          	inc4	a1

000057e2 <.Loc.33.1>:
    57e2:	70          	mov	(a0),d0

000057e3 <.Loc.34.1>:
    57e3:	61          	mov	d0,(a1)

000057e4 <.Loc.35.1>:
    57e4:	50          	inc4	a0

000057e5 <.Loc.36.1>:
    57e5:	51          	inc4	a1

000057e6 <.Loc.37.1>:
    57e6:	29 f0       	add	-16,d1

000057e8 <.Loc.38.1>:
    57e8:	a5 0f       	cmp	15,d1

000057ea <.Loc.39.1>:
    57ea:	d5          	lhi	

000057eb <.L34>:
    57eb:	a5 03       	cmp	3,d1

000057ed <.Loc.42.1>:
    57ed:	c7 0c       	bls	57f9 <.L37>

000057ef <.Loc.43.1>:
    57ef:	db          	setlb	

000057f0 <.Loc.44.1>:
    57f0:	70          	mov	(a0),d0

000057f1 <.Loc.45.1>:
    57f1:	61          	mov	d0,(a1)

000057f2 <.Loc.46.1>:
    57f2:	50          	inc4	a0

000057f3 <.Loc.47.1>:
    57f3:	51          	inc4	a1

000057f4 <.Loc.48.1>:
    57f4:	29 fc       	add	-4,d1

000057f6 <.Loc.49.1>:
    57f6:	a5 03       	cmp	3,d1

000057f8 <.Loc.50.1>:
    57f8:	d5          	lhi	

000057f9 <.L37>:
    57f9:	a5 00       	cmp	0,d1

000057fb <.Loc.54.1>:
    57fb:	c8 10       	beq	580b <.L36>

000057fd <.Loc.55.1>:
    57fd:	db          	setlb	

000057fe <.Loc.56.1>:
    57fe:	f0 40       	movbu	(a0),d0

00005800 <.Loc.57.1>:
    5800:	f0 51       	movbu	d0,(a1)

00005802 <.Loc.58.1>:
    5802:	41          	inc	a0

00005803 <.Loc.59.1>:
    5803:	45          	inc	a1

00005804 <.Loc.60.1>:
    5804:	fc c5 01 00 	sub	1,d1
    5808:	00 00 

0000580a <.Loc.61.1>:
    580a:	d9          	lne	

0000580b <.L36>:
    580b:	f1 e8       	mov	d2,a0

0000580d <.Loc.65.1>:
    580d:	df f0 10    	ret	[d2,d3,a2,a3],16

00005810 <___malloc_lock>:
    5810:	de 00 00    	retf	[],0

00005813 <___malloc_unlock>:
    5813:	de 00 00    	retf	[],0

00005816 <__Balloc>:
    5816:	cf e0       	movm	[d2,d3,a2],(sp)

00005818 <.LCFI0>:
    5818:	f8 fe f0    	add	-16,sp

0000581b <.LCFI1>:
    581b:	f1 e2       	mov	d0,a2
    581d:	86          	mov	d1,d2

0000581e <.Loc.103.1>:
    581e:	f8 22 4c    	mov	(76,a2),a0
    5821:	b0 00       	cmp	0,a0
    5823:	c8 1b       	beq	583e <.L11>

00005825 <.L2>:
    5825:	88          	mov	d2,d0
    5826:	54          	asl2	d0
    5827:	f1 60       	add	d0,a0
    5829:	f0 04       	mov	(a0),a1

0000582b <.LVL2>:
    582b:	b5 00       	cmp	0,a1
    582d:	c8 2f       	beq	585c <.L4>

0000582f <.Loc.117.1>:
    582f:	71          	mov	(a1),d0
    5830:	60          	mov	d0,(a0)

00005831 <.Loc.131.1>:
    5831:	00          	clr	d0
    5832:	f8 11 10    	mov	d0,(16,a1)
    5835:	f8 11 0c    	mov	d0,(12,a1)

00005838 <.L3>:
    5838:	94          	mov	a1,a0
    5839:	f1 d4       	mov	a1,d0
    583b:	df e0 1c    	ret	[d2,d3,a2],28

0000583e <.L11>:
    583e:	80 21       	mov	33,d0

00005840 <.LVL4>:
    5840:	42 0c       	mov	d0,(12,sp)
    5842:	f1 d8       	mov	a2,d0
    5844:	85 04       	mov	4,d1

00005846 <.LVL5>:
    5846:	dd d2 19 00 	call	7218 <__calloc_r>,[],0
    584a:	00 00 00 

0000584d <.LVL6>:
    584d:	f8 32 4c    	mov	a0,(76,a2)

00005850 <.Loc.109.1>:
    5850:	b0 00       	cmp	0,a0
    5852:	c9 d3       	bne	5825 <.L2>

00005854 <.L6>:
    5854:	95 00       	mov	0,a1

00005856 <.Loc.133.1>:
    5856:	94          	mov	a1,a0
    5857:	f1 d4       	mov	a1,d0
    5859:	df e0 1c    	ret	[d2,d3,a2],28

0000585c <.L4>:
    585c:	85 01       	mov	1,d1
    585e:	87          	mov	d1,d3
    585f:	f2 9b       	asl	d2,d3

00005861 <.Loc.123.1>:
    5861:	8c          	mov	d3,d0
    5862:	28 05       	add	5,d0
    5864:	54          	asl2	d0
    5865:	42 0c       	mov	d0,(12,sp)
    5867:	f1 d8       	mov	a2,d0
    5869:	dd af 19 00 	call	7218 <__calloc_r>,[],0
    586d:	00 00 00 

00005870 <.LVL9>:
    5870:	91          	mov	a0,a1

00005871 <.LVL10>:
    5871:	b0 00       	cmp	0,a0
    5873:	c8 e1       	beq	5854 <.L6>

00005875 <.Loc.128.1>:
    5875:	f8 18 04    	mov	d2,(4,a0)

00005878 <.Loc.129.1>:
    5878:	f8 1c 08    	mov	d3,(8,a0)

0000587b <.Loc.131.1>:
    587b:	00          	clr	d0
    587c:	f8 11 10    	mov	d0,(16,a1)
    587f:	f8 11 0c    	mov	d0,(12,a1)
    5882:	ca b6       	bra	5838 <.L3>

00005884 <__Bfree>:
    5884:	cf 80       	movm	[d2],(sp)

00005886 <.LCFI2>:
    5886:	a5 00       	cmp	0,d1
    5888:	c8 14       	beq	589c <.L13>

0000588a <.Loc.141.1>:
    588a:	f1 e4       	mov	d1,a0
    588c:	f8 08 04    	mov	(4,a0),d2
    588f:	56          	asl2	d2
    5890:	f1 e1       	mov	d0,a1
    5892:	f8 21 4c    	mov	(76,a1),a0
    5895:	f1 68       	add	d2,a0
    5897:	70          	mov	(a0),d0

00005898 <.LVL12>:
    5898:	f1 e5       	mov	d1,a1

0000589a <.LVL13>:
    589a:	61          	mov	d0,(a1)

0000589b <.Loc.142.1>:
    589b:	64          	mov	d1,(a0)

0000589c <.L13>:
    589c:	de 80 04    	retf	[d2],4

0000589f <___multadd>:
    589f:	cf f0       	movm	[d2,d3,a2,a3],(sp)

000058a1 <.LCFI3>:
    58a1:	f8 fe e8    	add	-24,sp

000058a4 <.LCFI4>:
    58a4:	42 2c       	mov	d0,(44,sp)
    58a6:	f1 e7       	mov	d1,a3
    58a8:	5c 34       	mov	(52,sp),a0
    58aa:	59 38       	mov	(56,sp),d1

000058ac <.LVL15>:
    58ac:	f8 2b 10    	mov	(16,a3),a2

000058af <.LVL16>:
    58af:	9d          	mov	a3,a1
    58b0:	21 14       	add	20,a1

000058b2 <.LVL17>:
    58b2:	08          	clr	d2
    58b3:	4f 14       	mov	a3,(20,sp)
    58b5:	43 10       	mov	a0,(16,sp)
    58b7:	f1 e4       	mov	d1,a0

000058b9 <.L21>:
    58b9:	75          	mov	(a1),d1

000058ba <.LVL19>:
    58ba:	87          	mov	d1,d3
    58bb:	1f          	exthu	d3
    58bc:	58 10       	mov	(16,sp),d0
    58be:	cb          	nop	
    58bf:	cb          	nop	
    58c0:	f2 43       	mul	d0,d3
    58c2:	f1 53       	add	a0,d3

000058c4 <.LVL20>:
    58c4:	8c          	mov	d3,d0
    58c5:	f8 c4 10    	lsr	16,d0
    58c8:	f1 e0       	mov	d0,a0

000058ca <.LVL21>:
    58ca:	84          	mov	d1,d0
    58cb:	f8 c4 10    	lsr	16,d0
    58ce:	59 10       	mov	(16,sp),d1

000058d0 <.LVL22>:
    58d0:	cb          	nop	
    58d1:	cb          	nop	
    58d2:	f2 44       	mul	d1,d0
    58d4:	f1 50       	add	a0,d0

000058d6 <.LVL23>:
    58d6:	81          	mov	d0,d1
    58d7:	f8 c5 10    	lsr	16,d1
    58da:	f1 e4       	mov	d1,a0

000058dc <.LVL24>:
    58dc:	f8 c0 10    	asl	16,d0

000058df <.LVL25>:
    58df:	1f          	exthu	d3

000058e0 <.LVL26>:
    58e0:	ec          	add	d3,d0
    58e1:	61          	mov	d0,(a1)
    58e2:	51          	inc4	a1

000058e3 <.LVL27>:
    58e3:	48          	inc	d2
    58e4:	f1 aa       	cmp	d2,a2
    58e6:	c1 d3       	bgt	58b9 <.L21>
    58e8:	87          	mov	d1,d3
    58e9:	5f 14       	mov	(20,sp),a3

000058eb <.LVL29>:
    58eb:	a5 00       	cmp	0,d1
    58ed:	c8 16       	beq	5903 <.L22>

000058ef <.Loc.180.1>:
    58ef:	f8 03 08    	mov	(8,a3),d0
    58f2:	f1 a2       	cmp	d0,a2
    58f4:	c2 15       	bge	5909 <.L29>

000058f6 <.LVL30>:
    58f6:	f1 d8       	mov	a2,d0
    58f8:	28 05       	add	5,d0
    58fa:	54          	asl2	d0
    58fb:	9c          	mov	a3,a0
    58fc:	f1 60       	add	d0,a0
    58fe:	6c          	mov	d3,(a0)

000058ff <.LVL31>:
    58ff:	49          	inc	a2

00005900 <.LVL32>:
    5900:	f8 3b 10    	mov	a2,(16,a3)

00005903 <.L22>:
    5903:	9c          	mov	a3,a0
    5904:	f1 dc       	mov	a3,d0
    5906:	df f0 28    	ret	[d2,d3,a2,a3],40

00005909 <.L29>:
    5909:	f8 07 04    	mov	(4,a3),d1

0000590c <.LVL35>:
    590c:	58 2c       	mov	(44,sp),d0
    590e:	44          	inc	d1
    590f:	cd 07 ff 00 	call	5816 <__Balloc>,[],0
    5913:	00 

00005914 <.LVL36>:
    5914:	f1 d2       	mov	a0,d2

00005916 <.LVL37>:
    5916:	f8 03 10    	mov	(16,a3),d0
    5919:	28 02       	add	2,d0
    591b:	54          	asl2	d0
    591c:	42 0c       	mov	d0,(12,sp)
    591e:	f1 d0       	mov	a0,d0
    5920:	28 0c       	add	12,d0
    5922:	f1 dd       	mov	a3,d1
    5924:	29 0c       	add	12,d1
    5926:	dd 99 fe ff 	call	57bf <_memcpy>,[],0
    592a:	ff 00 00 

0000592d <.LBB8>:
    592d:	f8 03 04    	mov	(4,a3),d0
    5930:	54          	asl2	d0
    5931:	5d 2c       	mov	(44,sp),a1
    5933:	f8 21 4c    	mov	(76,a1),a0
    5936:	f1 60       	add	d0,a0
    5938:	70          	mov	(a0),d0
    5939:	63          	mov	d0,(a3)

0000593a <.Loc.142.1>:
    593a:	f0 1c       	mov	a3,(a0)

0000593c <.Loc.185.1>:
    593c:	f1 eb       	mov	d2,a3

0000593e <.LBE8>:
    593e:	f1 d8       	mov	a2,d0
    5940:	28 05       	add	5,d0
    5942:	54          	asl2	d0
    5943:	9c          	mov	a3,a0
    5944:	f1 60       	add	d0,a0

00005946 <.LVL40>:
    5946:	6c          	mov	d3,(a0)

00005947 <.LVL41>:
    5947:	49          	inc	a2

00005948 <.LVL42>:
    5948:	f8 3b 10    	mov	a2,(16,a3)
    594b:	ca b8       	bra	5903 <.L22>

0000594d <___s2b>:
    594d:	cf f0       	movm	[d2,d3,a2,a3],(sp)

0000594f <.LCFI5>:
    594f:	f8 fe e8    	add	-24,sp

00005952 <.LCFI6>:
    5952:	82          	mov	d0,d2
    5953:	f1 e6       	mov	d1,a2

00005955 <.Loc.205.1>:
    5955:	58 38       	mov	(56,sp),d0

00005957 <.LVL44>:
    5957:	28 08       	add	8,d0
    5959:	fc cf 39 8e 	mov	954437177,d3
    595d:	e3 38 
    595f:	81          	mov	d0,d1

00005960 <.LVL45>:
    5960:	cb          	nop	
    5961:	cb          	nop	
    5962:	f2 4d       	mul	d3,d1
    5964:	f2 e3       	mov	mdr,d3
    5966:	f8 cb 01    	asr	1,d3
    5969:	f8 c8 1f    	asr	31,d0
    596c:	f1 03       	sub	d0,d3

0000596e <.LVL46>:
    596e:	af 01       	cmp	1,d3
    5970:	c3 75       	ble	59e5 <.L39>
    5972:	80 01       	mov	1,d0
    5974:	04          	clr	d1

00005975 <.L33>:
    5975:	e0          	add	d0,d0

00005976 <.LVL48>:
    5976:	44          	inc	d1

00005977 <.LVL49>:
    5977:	a3          	cmp	d0,d3
    5978:	c1 fd       	bgt	5975 <.L33>

0000597a <.L32>:
    597a:	88          	mov	d2,d0
    597b:	cd 9b fe 00 	call	5816 <__Balloc>,[],0
    597f:	00 

00005980 <.LVL51>:
    5980:	f1 d1       	mov	a0,d1

00005982 <.LVL52>:
    5982:	58 3c       	mov	(60,sp),d0
    5984:	f8 10 14    	mov	d0,(20,a0)

00005987 <.Loc.210.1>:
    5987:	80 01       	mov	1,d0
    5989:	f8 10 10    	mov	d0,(16,a0)

0000598c <.LVL53>:
    598c:	58 34       	mov	(52,sp),d0
    598e:	a0 09       	cmp	9,d0
    5990:	c3 4f       	ble	59df <.L34>

00005992 <.Loc.220.1>:
    5992:	98          	mov	a2,a0
    5993:	20 09       	add	9,a0
    5995:	43 14       	mov	a0,(20,sp)

00005997 <.LVL54>:
    5997:	f1 62       	add	d0,a2

00005999 <.Loc.220.1>:
    5999:	93          	mov	a0,a3

0000599a <.Loc.222.1>:
    599a:	8f 0a       	mov	10,d3

0000599c <.L35>:
    599c:	f0 43       	movbu	(a3),d0
    599e:	28 d0       	add	-48,d0
    59a0:	4d          	inc	a3
    59a1:	4e 0c       	mov	d3,(12,sp)
    59a3:	42 10       	mov	d0,(16,sp)
    59a5:	88          	mov	d2,d0
    59a6:	cd f9 fe 00 	call	589f <___multadd>,[],0
    59aa:	00 

000059ab <.LVL57>:
    59ab:	f1 d1       	mov	a0,d1

000059ad <.LVL58>:
    59ad:	bb          	cmp	a2,a3
    59ae:	c9 ee       	bne	599c <.L35>
    59b0:	5e 14       	mov	(20,sp),a2
    59b2:	58 34       	mov	(52,sp),d0
    59b4:	f1 62       	add	d0,a2

000059b6 <.Loc.224.1>:
    59b6:	22 f8       	add	-8,a2

000059b8 <.L36>:
    59b8:	5c 38       	mov	(56,sp),a0
    59ba:	f1 a0       	cmp	d0,a0
    59bc:	c3 1d       	ble	59d9 <.L37>

000059be <.Loc.194.1>:
    59be:	93          	mov	a0,a3
    59bf:	f1 23       	sub	d0,a3
    59c1:	f1 7b       	add	a2,a3

000059c3 <.Loc.229.1>:
    59c3:	8f 0a       	mov	10,d3

000059c5 <.L38>:
    59c5:	f0 42       	movbu	(a2),d0
    59c7:	28 d0       	add	-48,d0
    59c9:	49          	inc	a2
    59ca:	4e 0c       	mov	d3,(12,sp)
    59cc:	42 10       	mov	d0,(16,sp)
    59ce:	88          	mov	d2,d0
    59cf:	cd d0 fe 00 	call	589f <___multadd>,[],0
    59d3:	00 

000059d4 <.LVL62>:
    59d4:	f1 d1       	mov	a0,d1

000059d6 <.LVL63>:
    59d6:	be          	cmp	a3,a2
    59d7:	c9 ee       	bne	59c5 <.L38>

000059d9 <.L37>:
    59d9:	f1 e4       	mov	d1,a0
    59db:	84          	mov	d1,d0
    59dc:	df f0 28    	ret	[d2,d3,a2,a3],40

000059df <.L34>:
    59df:	22 0a       	add	10,a2

000059e1 <.Loc.217.1>:
    59e1:	80 09       	mov	9,d0
    59e3:	ca d5       	bra	59b8 <.L36>

000059e5 <.L39>:
    59e5:	04          	clr	d1
    59e6:	ca 94       	bra	597a <.L32>

000059e8 <___hi0bits>:
    59e8:	fc ec 00 00 	btst	-65536,d0
    59ec:	ff ff 
    59ee:	c9 3d       	bne	5a2b <.L51>

000059f0 <.LVL68>:
    59f0:	f8 c0 10    	asl	16,d0

000059f3 <.LVL69>:
    59f3:	85 10       	mov	16,d1

000059f5 <.L46>:
    59f5:	fc ec 00 00 	btst	-16777216,d0
    59f9:	00 ff 
    59fb:	c9 07       	bne	5a02 <.L47>

000059fd <.Loc.246.1>:
    59fd:	29 08       	add	8,d1

000059ff <.Loc.247.1>:
    59ff:	f8 c0 08    	asl	8,d0

00005a02 <.L47>:
    5a02:	fc ec 00 00 	btst	-268435456,d0
    5a06:	00 f0 
    5a08:	c9 06       	bne	5a0e <.L48>

00005a0a <.Loc.251.1>:
    5a0a:	29 04       	add	4,d1

00005a0c <.Loc.252.1>:
    5a0c:	54          	asl2	d0
    5a0d:	54          	asl2	d0

00005a0e <.L48>:
    5a0e:	fc ec 00 00 	btst	-1073741824,d0
    5a12:	00 c0 
    5a14:	c9 05       	bne	5a19 <.L49>

00005a16 <.Loc.256.1>:
    5a16:	29 02       	add	2,d1

00005a18 <.Loc.257.1>:
    5a18:	54          	asl2	d0

00005a19 <.L49>:
    5a19:	a0 00       	cmp	0,d0
    5a1b:	c0 0c       	blt	5a27 <.L50>

00005a1d <.LVL77>:
    5a1d:	fc e0 00 00 	and	1073741824,d0
    5a21:	00 40 

00005a23 <.LVL78>:
    5a23:	c9 0b       	bne	5a2e <.L54>

00005a25 <.Loc.263.1>:
    5a25:	85 20       	mov	32,d1

00005a27 <.L50>:
    5a27:	84          	mov	d1,d0
    5a28:	de 00 00    	retf	[],0

00005a2b <.L51>:
    5a2b:	04          	clr	d1
    5a2c:	ca c9       	bra	59f5 <.L46>

00005a2e <.L54>:
    5a2e:	44          	inc	d1

00005a2f <.LVL82>:
    5a2f:	84          	mov	d1,d0
    5a30:	de 00 00    	retf	[],0

00005a33 <___lo0bits>:
    5a33:	cf 80       	movm	[d2],(sp)

00005a35 <.LCFI7>:
    5a35:	f1 e0       	mov	d0,a0

00005a37 <.Loc.272.1>:
    5a37:	74          	mov	(a0),d1

00005a38 <.LVL84>:
    5a38:	84          	mov	d1,d0

00005a39 <.LVL85>:
    5a39:	f8 e0 07    	and	7,d0
    5a3c:	c8 17       	beq	5a53 <.L57>

00005a3e <.Loc.276.1>:
    5a3e:	84          	mov	d1,d0
    5a3f:	f8 e0 01    	and	1,d0
    5a42:	c9 54       	bne	5a96 <.L65>

00005a44 <.Loc.278.1>:
    5a44:	84          	mov	d1,d0
    5a45:	f8 e0 02    	and	2,d0
    5a48:	c9 52       	bne	5a9a <.L69>

00005a4a <.Loc.283.1>:
    5a4a:	f8 c5 02    	lsr	2,d1

00005a4d <.LVL86>:
    5a4d:	64          	mov	d1,(a0)

00005a4e <.Loc.284.1>:
    5a4e:	80 02       	mov	2,d0

00005a50 <.Loc.316.1>:
    5a50:	de 80 04    	retf	[d2],4

00005a53 <.L57>:
    5a53:	86          	mov	d1,d2
    5a54:	1e          	exthu	d2
    5a55:	aa 00       	cmp	0,d2
    5a57:	c9 07       	bne	5a5e <.L60>

00005a59 <.LVL88>:
    5a59:	f8 c5 10    	lsr	16,d1

00005a5c <.Loc.289.1>:
    5a5c:	80 10       	mov	16,d0

00005a5e <.L60>:
    5a5e:	86          	mov	d1,d2
    5a5f:	16          	extbu	d2
    5a60:	aa 00       	cmp	0,d2
    5a62:	c9 07       	bne	5a69 <.L61>

00005a64 <.Loc.294.1>:
    5a64:	28 08       	add	8,d0

00005a66 <.Loc.295.1>:
    5a66:	f8 c5 08    	lsr	8,d1

00005a69 <.L61>:
    5a69:	86          	mov	d1,d2
    5a6a:	f8 e2 0f    	and	15,d2
    5a6d:	c9 07       	bne	5a74 <.L62>

00005a6f <.Loc.299.1>:
    5a6f:	28 04       	add	4,d0

00005a71 <.Loc.300.1>:
    5a71:	f8 c5 04    	lsr	4,d1

00005a74 <.L62>:
    5a74:	86          	mov	d1,d2
    5a75:	f8 e2 03    	and	3,d2
    5a78:	c9 07       	bne	5a7f <.L63>

00005a7a <.Loc.304.1>:
    5a7a:	28 02       	add	2,d0

00005a7c <.Loc.305.1>:
    5a7c:	f8 c5 02    	lsr	2,d1

00005a7f <.L63>:
    5a7f:	86          	mov	d1,d2
    5a80:	f8 e2 01    	and	1,d2
    5a83:	c9 0f       	bne	5a92 <.L64>

00005a85 <.LVL97>:
    5a85:	f8 c5 01    	lsr	1,d1

00005a88 <.Loc.311.1>:
    5a88:	a5 00       	cmp	0,d1
    5a8a:	c9 07       	bne	5a91 <.L70>

00005a8c <.Loc.312.1>:
    5a8c:	80 20       	mov	32,d0

00005a8e <.LVL99>:
    5a8e:	de 80 04    	retf	[d2],4

00005a91 <.L70>:
    5a91:	40          	inc	d0

00005a92 <.L64>:
    5a92:	64          	mov	d1,(a0)

00005a93 <.Loc.316.1>:
    5a93:	de 80 04    	retf	[d2],4

00005a96 <.L65>:
	...

00005a97 <.Loc.316.1>:
    5a97:	de 80 04    	retf	[d2],4

00005a9a <.L69>:
    5a9a:	f8 c5 01    	lsr	1,d1

00005a9d <.LVL103>:
    5a9d:	64          	mov	d1,(a0)

00005a9e <.Loc.281.1>:
    5a9e:	80 01       	mov	1,d0

00005aa0 <.Loc.316.1>:
    5aa0:	de 80 04    	retf	[d2],4

00005aa3 <___i2b>:
    5aa3:	cf 80       	movm	[d2],(sp)

00005aa5 <.LCFI8>:
    5aa5:	f8 fe f4    	add	-12,sp

00005aa8 <.LCFI9>:
    5aa8:	86          	mov	d1,d2

00005aa9 <.Loc.323.1>:
    5aa9:	85 01       	mov	1,d1

00005aab <.LVL105>:
    5aab:	cd 6b fd 00 	call	5816 <__Balloc>,[],0
    5aaf:	00 

00005ab0 <.LVL106>:
    5ab0:	f1 d0       	mov	a0,d0

00005ab2 <.Loc.324.1>:
    5ab2:	f8 18 14    	mov	d2,(20,a0)

00005ab5 <.Loc.325.1>:
    5ab5:	85 01       	mov	1,d1
    5ab7:	f8 14 10    	mov	d1,(16,a0)

00005aba <.Loc.327.1>:
    5aba:	df 80 10    	ret	[d2],16

00005abd <___multiply>:
    5abd:	cf f0       	movm	[d2,d3,a2,a3],(sp)

00005abf <.LCFI10>:
    5abf:	f8 fe d8    	add	-40,sp

00005ac2 <.LCFI11>:
    5ac2:	f1 e7       	mov	d1,a3
    5ac4:	5e 44       	mov	(68,sp),a2

00005ac6 <.Loc.340.1>:
    5ac6:	f8 0b 10    	mov	(16,a3),d2
    5ac9:	f8 0e 10    	mov	(16,a2),d3
    5acc:	ae          	cmp	d3,d2
    5acd:	c2 0a       	bge	5ad7 <.L74>
    5acf:	89          	mov	d2,d1

00005ad0 <.LVL109>:
    5ad0:	8e          	mov	d3,d2
    5ad1:	87          	mov	d1,d3
    5ad2:	f1 dd       	mov	a3,d1
    5ad4:	9b          	mov	a2,a3

00005ad5 <.LVL110>:
    5ad5:	f1 e6       	mov	d1,a2

00005ad7 <.L74>:
    5ad7:	f8 07 04    	mov	(4,a3),d1

00005ada <.LVL112>:
    5ada:	f1 e9       	mov	d2,a1
    5adc:	f1 6d       	add	d3,a1
    5ade:	47 1c       	mov	a1,(28,sp)

00005ae0 <.LVL113>:
    5ae0:	f8 23 08    	mov	(8,a3),a0
    5ae3:	b1          	cmp	a0,a1
    5ae4:	c3 03       	ble	5ae7 <.L75>

00005ae6 <.Loc.351.1>:
    5ae6:	44          	inc	d1

00005ae7 <.L75>:
    5ae7:	cd 2f fd 00 	call	5816 <__Balloc>,[],0
    5aeb:	00 

00005aec <.LVL115>:
    5aec:	43 20       	mov	a0,(32,sp)

00005aee <.LVL116>:
    5aee:	f1 d0       	mov	a0,d0
    5af0:	28 14       	add	20,d0

00005af2 <.LVL117>:
    5af2:	59 1c       	mov	(28,sp),d1
    5af4:	29 05       	add	5,d1
    5af6:	55          	asl2	d1
    5af7:	f1 64       	add	d1,a0

00005af9 <.LVL118>:
    5af9:	43 24       	mov	a0,(36,sp)

00005afb <.LVL119>:
    5afb:	f1 e0       	mov	d0,a0

00005afd <.LVL120>:
    5afd:	04          	clr	d1

00005afe <.Loc.353.1>:
    5afe:	5d 24       	mov	(36,sp),a1
    5b00:	f1 94       	cmp	a1,d0
    5b02:	c6 09       	bcc	5b0b <.L80>
    5b04:	5d 24       	mov	(36,sp),a1

00005b06 <.L99>:
    5b06:	64          	mov	d1,(a0)

00005b07 <.Loc.353.1>:
    5b07:	50          	inc4	a0
    5b08:	b1          	cmp	a0,a1
    5b09:	c5 fd       	bhi	5b06 <.L99>

00005b0b <.L80>:
    5b0b:	f1 dd       	mov	a3,d1
    5b0d:	29 14       	add	20,d1
    5b0f:	46 18       	mov	d1,(24,sp)

00005b11 <.LVL124>:
    5b11:	2a 05       	add	5,d2

00005b13 <.LVL125>:
    5b13:	56          	asl2	d2

00005b14 <.LVL126>:
    5b14:	f1 5e       	add	a3,d2

00005b16 <.LVL127>:
    5b16:	98          	mov	a2,a0

00005b17 <.LVL128>:
    5b17:	20 14       	add	20,a0
    5b19:	43 0c       	mov	a0,(12,sp)

00005b1b <.LVL129>:
    5b1b:	2b 05       	add	5,d3

00005b1d <.LVL130>:
    5b1d:	57          	asl2	d3

00005b1e <.LVL131>:
    5b1e:	f1 6e       	add	d3,a2

00005b20 <.LVL132>:
    5b20:	4b 14       	mov	a2,(20,sp)

00005b22 <.LVL133>:
    5b22:	42 10       	mov	d0,(16,sp)
    5b24:	b8          	cmp	a2,a0
    5b25:	c4 05       	bcs	5b2a <.L0_0>
    5b27:	cc a9 00    	jmp	5bd0 <.L0_1>

00005b2a <.L0_0>:
    5b2a:	5c 0c       	mov	(12,sp),a0

00005b2c <.LVL135>:
    5b2c:	70          	mov	(a0),d0
    5b2d:	81          	mov	d0,d1
    5b2e:	1d          	exthu	d1
    5b2f:	f1 e7       	mov	d1,a3

00005b31 <.LVL136>:
    5b31:	a5 00       	cmp	0,d1
    5b33:	c8 40       	beq	5b73 <.L83>
    5b35:	5c 10       	mov	(16,sp),a0
    5b37:	5d 18       	mov	(24,sp),a1
    5b39:	9a 00       	mov	0,a2
    5b3b:	f1 eb       	mov	d2,a3
    5b3d:	86          	mov	d1,d2

00005b3e <.L84>:
    5b3e:	71          	mov	(a1),d0
    5b3f:	81          	mov	d0,d1
    5b40:	1d          	exthu	d1
    5b41:	cb          	nop	
    5b42:	cb          	nop	
    5b43:	f2 49       	mul	d2,d1
    5b45:	7c          	mov	(a0),d3
    5b46:	1f          	exthu	d3
    5b47:	ed          	add	d3,d1
    5b48:	f1 59       	add	a2,d1

00005b4a <.LVL138>:
    5b4a:	f8 c4 10    	lsr	16,d0
    5b4d:	cb          	nop	
    5b4e:	cb          	nop	
    5b4f:	f2 48       	mul	d2,d0
    5b51:	7c          	mov	(a0),d3
    5b52:	f8 c7 10    	lsr	16,d3
    5b55:	ec          	add	d3,d0

00005b56 <.Loc.371.1>:
    5b56:	87          	mov	d1,d3
    5b57:	f8 c7 10    	lsr	16,d3

00005b5a <.LVL139>:
    5b5a:	ec          	add	d3,d0

00005b5b <.LVL140>:
    5b5b:	51          	inc4	a1

00005b5c <.Loc.373.1>:
    5b5c:	83          	mov	d0,d3

00005b5d <.LVL142>:
    5b5d:	f8 c7 10    	lsr	16,d3
    5b60:	f1 ee       	mov	d3,a2

00005b62 <.LVL143>:
    5b62:	f8 c0 10    	asl	16,d0

00005b65 <.LVL144>:
    5b65:	1d          	exthu	d1

00005b66 <.LVL145>:
    5b66:	f2 14       	or	d1,d0
    5b68:	60          	mov	d0,(a0)
    5b69:	50          	inc4	a0

00005b6a <.Loc.376.1>:
    5b6a:	b7          	cmp	a1,a3
    5b6b:	c5 d3       	bhi	5b3e <.L84>
    5b6d:	f1 de       	mov	a3,d2

00005b6f <.LVL147>:
    5b6f:	6c          	mov	d3,(a0)
    5b70:	5c 0c       	mov	(12,sp),a0

00005b72 <.LVL148>:
    5b72:	70          	mov	(a0),d0

00005b73 <.L83>:
    5b73:	f8 c4 10    	lsr	16,d0
    5b76:	f1 e2       	mov	d0,a2

00005b78 <.LVL150>:
    5b78:	a0 00       	cmp	0,d0
    5b7a:	c8 43       	beq	5bbd <.L85>

00005b7c <.LVL151>:
    5b7c:	5d 10       	mov	(16,sp),a1
    5b7e:	71          	mov	(a1),d0

00005b7f <.LVL152>:
    5b7f:	83          	mov	d0,d3

00005b80 <.Loc.381.1>:
    5b80:	5c 18       	mov	(24,sp),a0

00005b82 <.Loc.383.1>:
    5b82:	9f 00       	mov	0,a3
    5b84:	f1 d9       	mov	a2,d1
    5b86:	f1 ea       	mov	d2,a2

00005b88 <.LVL153>:
    5b88:	86          	mov	d1,d2

00005b89 <.L86>:
    5b89:	f0 64       	movhu	(a0),d1
    5b8b:	cb          	nop	
    5b8c:	cb          	nop	
    5b8d:	f2 49       	mul	d2,d1
    5b8f:	f8 c7 10    	lsr	16,d3
    5b92:	ed          	add	d3,d1
    5b93:	f1 67       	add	d1,a3

00005b95 <.LVL155>:
    5b95:	f1 df       	mov	a3,d3
    5b97:	f8 c3 10    	asl	16,d3
    5b9a:	1c          	exthu	d0

00005b9b <.LVL156>:
    5b9b:	f2 13       	or	d0,d3
    5b9d:	6d          	mov	d3,(a1)
    5b9e:	51          	inc4	a1

00005b9f <.Loc.390.1>:
    5b9f:	7d          	mov	(a1),d3
    5ba0:	8c          	mov	d3,d0
    5ba1:	1c          	exthu	d0
    5ba2:	f8 64 02    	movhu	(2,a0),d1
    5ba5:	cb          	nop	
    5ba6:	cb          	nop	
    5ba7:	f2 49       	mul	d2,d1
    5ba9:	e4          	add	d1,d0

00005baa <.Loc.388.1>:
    5baa:	f1 dd       	mov	a3,d1
    5bac:	f8 c5 10    	lsr	16,d1

00005baf <.LVL158>:
    5baf:	e4          	add	d1,d0

00005bb0 <.LVL159>:
    5bb0:	50          	inc4	a0

00005bb1 <.Loc.391.1>:
    5bb1:	81          	mov	d0,d1

00005bb2 <.LVL161>:
    5bb2:	f8 c5 10    	lsr	16,d1
    5bb5:	f1 e7       	mov	d1,a3

00005bb7 <.LVL162>:
    5bb7:	b2          	cmp	a0,a2
    5bb8:	c5 d1       	bhi	5b89 <.L86>
    5bba:	f1 da       	mov	a2,d2

00005bbc <.LVL163>:
    5bbc:	61          	mov	d0,(a1)

00005bbd <.L85>:
    5bbd:	5c 0c       	mov	(12,sp),a0
    5bbf:	50          	inc4	a0
    5bc0:	43 0c       	mov	a0,(12,sp)

00005bc2 <.LVL165>:
    5bc2:	5d 10       	mov	(16,sp),a1
    5bc4:	51          	inc4	a1
    5bc5:	47 10       	mov	a1,(16,sp)

00005bc7 <.LVL166>:
    5bc7:	58 14       	mov	(20,sp),d0
    5bc9:	f1 90       	cmp	a0,d0
    5bcb:	c7 05       	bls	5bd0 <.L0_1>
    5bcd:	cc 5d ff    	jmp	5b2a <.L0_0>

00005bd0 <.L0_1>:
    5bd0:	5d 1c       	mov	(28,sp),a1
    5bd2:	b5 00       	cmp	0,a1
    5bd4:	c3 1e       	ble	5bf2 <.L82>
    5bd6:	5c 24       	mov	(36,sp),a0

00005bd8 <.LVL168>:
    5bd8:	20 fc       	add	-4,a0

00005bda <.LVL169>:
    5bda:	5d 24       	mov	(36,sp),a1
    5bdc:	f8 01 fc    	mov	(-4,a1),d0
    5bdf:	a0 00       	cmp	0,d0
    5be1:	c9 11       	bne	5bf2 <.L82>
    5be3:	58 1c       	mov	(28,sp),d0

00005be5 <.L97>:
    5be5:	28 ff       	add	-1,d0
    5be7:	c8 09       	beq	5bf0 <.L111>

00005be9 <.Loc.416.1>:
    5be9:	20 fc       	add	-4,a0
    5beb:	74          	mov	(a0),d1
    5bec:	a5 00       	cmp	0,d1
    5bee:	c8 f7       	beq	5be5 <.L97>

00005bf0 <.L111>:
    5bf0:	42 1c       	mov	d0,(28,sp)

00005bf2 <.L82>:
    5bf2:	5b 1c       	mov	(28,sp),d3
    5bf4:	5d 20       	mov	(32,sp),a1
    5bf6:	f8 1d 10    	mov	d3,(16,a1)

00005bf9 <.Loc.419.1>:
    5bf9:	94          	mov	a1,a0
    5bfa:	f1 d4       	mov	a1,d0
    5bfc:	df f0 38    	ret	[d2,d3,a2,a3],56

00005bff <___pow5mult>:
    5bff:	cf f0       	movm	[d2,d3,a2,a3],(sp)

00005c01 <.LCFI12>:
    5c01:	f8 fe e8    	add	-24,sp

00005c04 <.LCFI13>:
    5c04:	f1 e1       	mov	d0,a1
    5c06:	f1 e7       	mov	d1,a3
    5c08:	5a 34       	mov	(52,sp),d2

00005c0a <.Loc.429.1>:
    5c0a:	88          	mov	d2,d0

00005c0b <.LVL175>:
    5c0b:	f8 e0 03    	and	3,d0

00005c0e <.LVL176>:
    5c0e:	c9 5f       	bne	5c6d <.L140>

00005c10 <.L115>:
    5c10:	f8 ca 02    	asr	2,d2

00005c13 <.LVL178>:
    5c13:	aa 00       	cmp	0,d2
    5c15:	c8 52       	beq	5c67 <.L116>

00005c17 <.Loc.435.1>:
    5c17:	f8 29 48    	mov	(72,a1),a2

00005c1a <.LVL179>:
    5c1a:	ba 00       	cmp	0,a2
    5c1c:	c9 05       	bne	5c21 <.L0_2>
    5c1e:	cc 89 00    	jmp	5ca7 <.L141>

00005c21 <.L0_2>:
    5c21:	88          	mov	d2,d0
    5c22:	f8 e0 01    	and	1,d0
    5c25:	c9 16       	bne	5c3b <.L142>

00005c27 <.L119>:
    5c27:	f8 ca 01    	asr	1,d2
    5c2a:	aa 00       	cmp	0,d2
    5c2c:	c8 3b       	beq	5c67 <.L116>

00005c2e <.L144>:
    5c2e:	7e          	mov	(a2),d3

00005c2f <.LVL182>:
    5c2f:	af 00       	cmp	0,d3
    5c31:	c8 58       	beq	5c89 <.L143>
    5c33:	f1 ee       	mov	d3,a2

00005c35 <.LVL183>:
    5c35:	88          	mov	d2,d0
    5c36:	f8 e0 01    	and	1,d0
    5c39:	c8 ee       	beq	5c27 <.L119>

00005c3b <.L142>:
    5c3b:	4b 0c       	mov	a2,(12,sp)
    5c3d:	f1 d4       	mov	a1,d0
    5c3f:	f1 dd       	mov	a3,d1
    5c41:	47 14       	mov	a1,(20,sp)
    5c43:	cd 7a fe 00 	call	5abd <___multiply>,[],0
    5c47:	00 

00005c48 <.LVL185>:
    5c48:	f1 d3       	mov	a0,d3

00005c4a <.LBB10>:
    5c4a:	5d 14       	mov	(20,sp),a1
    5c4c:	bf 00       	cmp	0,a3
    5c4e:	c8 56       	beq	5ca4 <.L121>

00005c50 <.Loc.141.1>:
    5c50:	f8 03 04    	mov	(4,a3),d0
    5c53:	54          	asl2	d0
    5c54:	f8 05 4c    	mov	(76,a1),d1
    5c57:	e4          	add	d1,d0
    5c58:	f1 e0       	mov	d0,a0
    5c5a:	74          	mov	(a0),d1
    5c5b:	67          	mov	d1,(a3)

00005c5c <.Loc.142.1>:
    5c5c:	f0 1c       	mov	a3,(a0)

00005c5e <.Loc.447.1>:
    5c5e:	f1 ef       	mov	d3,a3

00005c60 <.LBE10>:
    5c60:	f8 ca 01    	asr	1,d2
    5c63:	aa 00       	cmp	0,d2
    5c65:	c9 c9       	bne	5c2e <.L144>

00005c67 <.L116>:
    5c67:	9c          	mov	a3,a0
    5c68:	f1 dc       	mov	a3,d0
    5c6a:	df f0 28    	ret	[d2,d3,a2,a3],40

00005c6d <.L140>:
    5c6d:	54          	asl2	d0

00005c6e <.LVL191>:
    5c6e:	f1 e0       	mov	d0,a0
    5c70:	fc 00 4c 98 	mov	(38988,a0),d0
    5c74:	00 00 
    5c76:	42 0c       	mov	d0,(12,sp)
    5c78:	00          	clr	d0
    5c79:	42 10       	mov	d0,(16,sp)
    5c7b:	f1 d4       	mov	a1,d0
    5c7d:	47 14       	mov	a1,(20,sp)
    5c7f:	cd 20 fc 00 	call	589f <___multadd>,[],0
    5c83:	00 

00005c84 <.LVL192>:
    5c84:	93          	mov	a0,a3

00005c85 <.LVL193>:
    5c85:	5d 14       	mov	(20,sp),a1
    5c87:	ca 89       	bra	5c10 <.L115>

00005c89 <.L143>:
    5c89:	4b 0c       	mov	a2,(12,sp)
    5c8b:	f1 d4       	mov	a1,d0
    5c8d:	f1 d9       	mov	a2,d1
    5c8f:	47 14       	mov	a1,(20,sp)
    5c91:	cd 2c fe 00 	call	5abd <___multiply>,[],0
    5c95:	00 

00005c96 <.LVL195>:
    5c96:	f0 12       	mov	a0,(a2)

00005c98 <.LVL196>:
    5c98:	6c          	mov	d3,(a0)
    5c99:	92          	mov	a0,a2

00005c9a <.LVL197>:
    5c9a:	5d 14       	mov	(20,sp),a1

00005c9c <.LVL198>:
    5c9c:	88          	mov	d2,d0
    5c9d:	f8 e0 01    	and	1,d0
    5ca0:	c8 87       	beq	5c27 <.L119>
    5ca2:	ca 99       	bra	5c3b <.L142>

00005ca4 <.L121>:
    5ca4:	93          	mov	a0,a3

00005ca5 <.LVL200>:
    5ca5:	ca 82       	bra	5c27 <.L119>

00005ca7 <.L141>:
    5ca7:	f1 d4       	mov	a1,d0
    5ca9:	2d 71 02    	mov	625,d1
    5cac:	47 14       	mov	a1,(20,sp)
    5cae:	cd f5 fd 00 	call	5aa3 <___i2b>,[],0
    5cb2:	00 

00005cb3 <.LVL202>:
    5cb3:	92          	mov	a0,a2

00005cb4 <.LVL203>:
    5cb4:	5d 14       	mov	(20,sp),a1
    5cb6:	f8 31 48    	mov	a0,(72,a1)

00005cb9 <.LVL204>:
    5cb9:	00          	clr	d0
    5cba:	60          	mov	d0,(a0)

00005cbb <.Loc.443.1>:
    5cbb:	88          	mov	d2,d0
    5cbc:	f8 e0 01    	and	1,d0
    5cbf:	c9 05       	bne	5cc4 <.L0_3>
    5cc1:	cc 66 ff    	jmp	5c27 <.L119>

00005cc4 <.L0_3>:
    5cc4:	cc 77 ff    	jmp	5c3b <.L142>

00005cc7 <___lshift>:
    5cc7:	cf f0       	movm	[d2,d3,a2,a3],(sp)

00005cc9 <.LCFI14>:
    5cc9:	f8 fe ec    	add	-20,sp

00005ccc <.LCFI15>:
    5ccc:	42 28       	mov	d0,(40,sp)
    5cce:	f1 e7       	mov	d1,a3

00005cd0 <.Loc.469.1>:
    5cd0:	5a 30       	mov	(48,sp),d2
    5cd2:	f8 ca 05    	asr	5,d2

00005cd5 <.LVL206>:
    5cd5:	f8 07 04    	mov	(4,a3),d1

00005cd8 <.LVL207>:
    5cd8:	f8 03 10    	mov	(16,a3),d0

00005cdb <.LVL208>:
    5cdb:	e8          	add	d2,d0
    5cdc:	42 10       	mov	d0,(16,sp)
    5cde:	83          	mov	d0,d3
    5cdf:	4c          	inc	d3

00005ce0 <.LVL209>:
    5ce0:	f8 03 08    	mov	(8,a3),d0

00005ce3 <.LVL210>:
    5ce3:	a3          	cmp	d0,d3
    5ce4:	c3 07       	ble	5ceb <.L147>

00005ce6 <.L160>:
    5ce6:	44          	inc	d1

00005ce7 <.Loc.475.1>:
    5ce7:	e0          	add	d0,d0
    5ce8:	a3          	cmp	d0,d3
    5ce9:	c1 fd       	bgt	5ce6 <.L160>

00005ceb <.L147>:
    5ceb:	58 28       	mov	(40,sp),d0

00005ced <.LVL213>:
    5ced:	cd 29 fb 00 	call	5816 <__Balloc>,[],0
    5cf1:	00 

00005cf2 <.LVL214>:
    5cf2:	43 0c       	mov	a0,(12,sp)

00005cf4 <.LVL215>:
    5cf4:	91          	mov	a0,a1
    5cf5:	21 14       	add	20,a1

00005cf7 <.LVL216>:
    5cf7:	aa 00       	cmp	0,d2
    5cf9:	c3 11       	ble	5d0a <.L149>
	...

00005cfc <.Loc.480.1>:
    5cfc:	81          	mov	d0,d1

00005cfd <.L150>:
    5cfd:	65          	mov	d1,(a1)
    5cfe:	51          	inc4	a1

00005cff <.Loc.479.1>:
    5cff:	40          	inc	d0

00005d00 <.LVL219>:
    5d00:	a8          	cmp	d2,d0
    5d01:	c9 fc       	bne	5cfd <.L150>
    5d03:	28 05       	add	5,d0

00005d05 <.LVL220>:
    5d05:	54          	asl2	d0

00005d06 <.LVL221>:
    5d06:	5d 0c       	mov	(12,sp),a1

00005d08 <.LVL222>:
    5d08:	f1 61       	add	d0,a1

00005d0a <.L149>:
    5d0a:	9e          	mov	a3,a2
    5d0b:	22 14       	add	20,a2

00005d0d <.Loc.482.1>:
    5d0d:	f8 03 10    	mov	(16,a3),d0
    5d10:	28 05       	add	5,d0
    5d12:	54          	asl2	d0
    5d13:	f1 5c       	add	a3,d0

00005d15 <.LVL224>:
    5d15:	5a 30       	mov	(48,sp),d2

00005d17 <.LVL225>:
    5d17:	f8 e2 1f    	and	31,d2
    5d1a:	f1 e8       	mov	d2,a0

00005d1c <.LVL226>:
    5d1c:	c8 47       	beq	5d63 <.L159>

00005d1e <.Loc.486.1>:
    5d1e:	85 20       	mov	32,d1
    5d20:	f1 09       	sub	d2,d1
    5d22:	f2 f6       	mov	d1,mdr

00005d24 <.LVL227>:
    5d24:	08          	clr	d2

00005d25 <.LVL228>:
    5d25:	f1 d1       	mov	a0,d1

00005d27 <.LVL229>:
    5d27:	f1 ec       	mov	d3,a0

00005d29 <.LVL230>:
    5d29:	87          	mov	d1,d3

00005d2a <.L152>:
    5d2a:	76          	mov	(a2),d1
    5d2b:	f2 9d       	asl	d3,d1
    5d2d:	f2 16       	or	d1,d2

00005d2f <.LVL232>:
    5d2f:	69          	mov	d2,(a1)
    5d30:	51          	inc4	a1

00005d31 <.Loc.491.1>:
    5d31:	7a          	mov	(a2),d2
    5d32:	f2 e1       	mov	mdr,d1
    5d34:	f2 a6       	lsr	d1,d2

00005d36 <.LVL234>:
    5d36:	52          	inc4	a2

00005d37 <.Loc.493.1>:
    5d37:	f1 98       	cmp	a2,d0
    5d39:	c5 f1       	bhi	5d2a <.L152>
    5d3b:	f1 d3       	mov	a0,d3

00005d3d <.LVL236>:
    5d3d:	69          	mov	d2,(a1)
    5d3e:	aa 00       	cmp	0,d2
    5d40:	c8 06       	beq	5d46 <.L153>

00005d42 <.LVL237>:
    5d42:	5b 10       	mov	(16,sp),d3

00005d44 <.LVL238>:
    5d44:	2b 02       	add	2,d3

00005d46 <.L153>:
    5d46:	2b ff       	add	-1,d3

00005d48 <.LVL240>:
    5d48:	5d 0c       	mov	(12,sp),a1

00005d4a <.LVL241>:
    5d4a:	f8 1d 10    	mov	d3,(16,a1)

00005d4d <.LBB14>:
    5d4d:	f8 03 04    	mov	(4,a3),d0

00005d50 <.LVL243>:
    5d50:	54          	asl2	d0
    5d51:	5d 28       	mov	(40,sp),a1
    5d53:	f8 21 4c    	mov	(76,a1),a0
    5d56:	f1 60       	add	d0,a0
    5d58:	70          	mov	(a0),d0
    5d59:	63          	mov	d0,(a3)

00005d5a <.Loc.142.1>:
    5d5a:	f0 1c       	mov	a3,(a0)

00005d5c <.LBE14>:
    5d5c:	5c 0c       	mov	(12,sp),a0
    5d5e:	f1 d0       	mov	a0,d0
    5d60:	df f0 24    	ret	[d2,d3,a2,a3],36

00005d63 <.L159>:
    5d63:	76          	mov	(a2),d1
    5d64:	65          	mov	d1,(a1)
    5d65:	51          	inc4	a1
    5d66:	52          	inc4	a2

00005d67 <.Loc.515.1>:
    5d67:	f1 98       	cmp	a2,d0
    5d69:	c7 dd       	bls	5d46 <.L153>

00005d6b <.Loc.514.1>:
    5d6b:	76          	mov	(a2),d1
    5d6c:	65          	mov	d1,(a1)
    5d6d:	51          	inc4	a1
    5d6e:	52          	inc4	a2

00005d6f <.Loc.515.1>:
    5d6f:	f1 98       	cmp	a2,d0
    5d71:	c5 f2       	bhi	5d63 <.L159>
    5d73:	ca d3       	bra	5d46 <.L153>

00005d75 <___mcmp>:
    5d75:	cf c0       	movm	[d2,d3],(sp)

00005d77 <.LCFI16>:
    5d77:	f1 e0       	mov	d0,a0

00005d79 <.Loc.527.1>:
    5d79:	f8 00 10    	mov	(16,a0),d0

00005d7c <.LVL250>:
    5d7c:	f1 e5       	mov	d1,a1
    5d7e:	f8 09 10    	mov	(16,a1),d2

00005d81 <.LVL251>:
    5d81:	f1 08       	sub	d2,d0
    5d83:	c9 1c       	bne	5d9f <.L172>

00005d85 <.Loc.537.1>:
    5d85:	f1 d3       	mov	a0,d3
    5d87:	2b 14       	add	20,d3

00005d89 <.LVL253>:
    5d89:	2a 05       	add	5,d2

00005d8b <.LVL254>:
    5d8b:	56          	asl2	d2
    5d8c:	f1 68       	add	d2,a0

00005d8e <.LVL255>:
    5d8e:	f1 e9       	mov	d2,a1
    5d90:	f1 65       	add	d1,a1

00005d92 <.L174>:
    5d92:	20 fc       	add	-4,a0
    5d94:	74          	mov	(a0),d1
    5d95:	21 fc       	add	-4,a1
    5d97:	79          	mov	(a1),d2
    5d98:	a9          	cmp	d2,d1
    5d99:	c9 09       	bne	5da2 <.L178>

00005d9b <.Loc.545.1>:
    5d9b:	f1 93       	cmp	a0,d3
    5d9d:	c4 f5       	bcs	5d92 <.L174>

00005d9f <.L172>:
    5d9f:	de c0 08    	retf	[d2,d3],8

00005da2 <.L178>:
    5da2:	a6          	cmp	d1,d2
    5da3:	c5 07       	bhi	5daa <.L179>
    5da5:	80 01       	mov	1,d0

00005da7 <.LVL261>:
    5da7:	de c0 08    	retf	[d2,d3],8

00005daa <.L179>:
    5daa:	80 ff       	mov	-1,d0

00005dac <.LVL263>:
    5dac:	de c0 08    	retf	[d2,d3],8

00005daf <___mdiff>:
    5daf:	cf f0       	movm	[d2,d3,a2,a3],(sp)

00005db1 <.LCFI17>:
    5db1:	f8 fe ec    	add	-20,sp

00005db4 <.LCFI18>:
    5db4:	83          	mov	d0,d3
    5db5:	f1 e6       	mov	d1,a2
    5db7:	5f 30       	mov	(48,sp),a3

00005db9 <.Loc.563.1>:
    5db9:	84          	mov	d1,d0

00005dba <.LVL265>:
    5dba:	f1 dd       	mov	a3,d1

00005dbc <.LVL266>:
    5dbc:	cd b9 ff 00 	call	5d75 <___mcmp>,[],0
    5dc0:	00 

00005dc1 <.LVL267>:
    5dc1:	82          	mov	d0,d2

00005dc2 <.LVL268>:
    5dc2:	a0 00       	cmp	0,d0
    5dc4:	c9 05       	bne	5dc9 <.L0_4>
    5dc6:	cc f6 00    	jmp	5ebc <.L200>

00005dc9 <.L0_4>:
    5dc9:	c2 05       	bge	5dce <.L0_5>
    5dcb:	cc b5 00    	jmp	5e80 <.L190>

00005dce <.L0_5>:
    5dce:	08          	clr	d2

00005dcf <.LVL269>:
    5dcf:	8c          	mov	d3,d0
    5dd0:	f8 06 04    	mov	(4,a2),d1
    5dd3:	cd 43 fa 00 	call	5816 <__Balloc>,[],0
    5dd7:	00 

00005dd8 <.LVL270>:
    5dd8:	43 0c       	mov	a0,(12,sp)

00005dda <.LVL271>:
    5dda:	f8 18 0c    	mov	d2,(12,a0)

00005ddd <.Loc.582.1>:
    5ddd:	f8 0a 10    	mov	(16,a2),d2

00005de0 <.LVL272>:
    5de0:	98          	mov	a2,a0

00005de1 <.LVL273>:
    5de1:	20 14       	add	20,a0

00005de3 <.LVL274>:
    5de3:	88          	mov	d2,d0
    5de4:	28 05       	add	5,d0
    5de6:	54          	asl2	d0
    5de7:	f1 62       	add	d0,a2

00005de9 <.LVL275>:
    5de9:	f1 d9       	mov	a2,d1

00005deb <.LVL276>:
    5deb:	9e          	mov	a3,a2
    5dec:	22 14       	add	20,a2

00005dee <.LVL277>:
    5dee:	f8 03 10    	mov	(16,a3),d0
    5df1:	28 05       	add	5,d0
    5df3:	54          	asl2	d0
    5df4:	f1 5c       	add	a3,d0

00005df6 <.LVL278>:
    5df6:	5d 0c       	mov	(12,sp),a1
    5df8:	21 14       	add	20,a1

00005dfa <.LVL279>:
    5dfa:	9f 00       	mov	0,a3
    5dfc:	46 10       	mov	d1,(16,sp)
    5dfe:	f2 fa       	mov	d2,mdr
    5e00:	82          	mov	d0,d2

00005e01 <.L185>:
    5e01:	7c          	mov	(a0),d3
    5e02:	8c          	mov	d3,d0
    5e03:	1c          	exthu	d0
    5e04:	f1 5c       	add	a3,d0
    5e06:	76          	mov	(a2),d1
    5e07:	1d          	exthu	d1
    5e08:	f1 04       	sub	d1,d0

00005e0a <.LVL281>:
    5e0a:	f8 c7 10    	lsr	16,d3
    5e0d:	76          	mov	(a2),d1
    5e0e:	f8 c5 10    	lsr	16,d1
    5e11:	f1 07       	sub	d1,d3

00005e13 <.Loc.594.1>:
    5e13:	81          	mov	d0,d1
    5e14:	f8 c9 10    	asr	16,d1

00005e17 <.LVL282>:
    5e17:	e7          	add	d1,d3

00005e18 <.LVL283>:
    5e18:	50          	inc4	a0
    5e19:	52          	inc4	a2

00005e1a <.Loc.597.1>:
    5e1a:	8d          	mov	d3,d1

00005e1b <.LVL286>:
    5e1b:	f8 c9 10    	asr	16,d1
    5e1e:	f1 e7       	mov	d1,a3

00005e20 <.LVL287>:
    5e20:	f8 c3 10    	asl	16,d3

00005e23 <.LVL288>:
    5e23:	1c          	exthu	d0

00005e24 <.LVL289>:
    5e24:	f2 13       	or	d0,d3
    5e26:	6d          	mov	d3,(a1)
    5e27:	51          	inc4	a1

00005e28 <.Loc.601.1>:
    5e28:	f1 9a       	cmp	a2,d2
    5e2a:	c5 d7       	bhi	5e01 <.L185>
    5e2c:	f2 e2       	mov	mdr,d2

00005e2e <.LVL291>:
    5e2e:	58 10       	mov	(16,sp),d0

00005e30 <.Loc.599.1>:
    5e30:	47 10       	mov	a1,(16,sp)

00005e32 <.Loc.596.1>:
    5e32:	92          	mov	a0,a2

00005e33 <.LVL292>:
    5e33:	f1 90       	cmp	a0,d0
    5e35:	c7 30       	bls	5e65 <.L186>

00005e37 <.LVL293>:
    5e37:	f1 e3       	mov	d0,a3

00005e39 <.L194>:
    5e39:	7c          	mov	(a0),d3
    5e3a:	8c          	mov	d3,d0
    5e3b:	1c          	exthu	d0
    5e3c:	e4          	add	d1,d0

00005e3d <.LVL294>:
    5e3d:	81          	mov	d0,d1
    5e3e:	f8 c9 10    	asr	16,d1

00005e41 <.LVL295>:
    5e41:	f8 c7 10    	lsr	16,d3
    5e44:	e7          	add	d1,d3

00005e45 <.LVL296>:
    5e45:	50          	inc4	a0

00005e46 <.Loc.608.1>:
    5e46:	8d          	mov	d3,d1

00005e47 <.LVL298>:
    5e47:	f8 c9 10    	asr	16,d1

00005e4a <.LVL299>:
    5e4a:	f8 c3 10    	asl	16,d3

00005e4d <.LVL300>:
    5e4d:	1c          	exthu	d0

00005e4e <.LVL301>:
    5e4e:	f2 13       	or	d0,d3
    5e50:	6d          	mov	d3,(a1)
    5e51:	51          	inc4	a1

00005e52 <.Loc.602.1>:
    5e52:	b3          	cmp	a0,a3
    5e53:	c5 e6       	bhi	5e39 <.L194>

00005e55 <.Loc.552.1>:
    5e55:	f1 d9       	mov	a2,d1

00005e57 <.LVL303>:
    5e57:	f2 31       	not	d1
    5e59:	f1 5d       	add	a3,d1
    5e5b:	f8 c5 02    	lsr	2,d1
    5e5e:	55          	asl2	d1
    5e5f:	29 04       	add	4,d1
    5e61:	5d 10       	mov	(16,sp),a1

00005e63 <.LVL304>:
    5e63:	f1 65       	add	d1,a1

00005e65 <.L186>:
    5e65:	21 fc       	add	-4,a1
    5e67:	af 00       	cmp	0,d3
    5e69:	c9 0b       	bne	5e74 <.L188>

00005e6b <.L193>:
    5e6b:	2a ff       	add	-1,d2

00005e6d <.Loc.629.1>:
    5e6d:	21 fc       	add	-4,a1
    5e6f:	71          	mov	(a1),d0
    5e70:	a0 00       	cmp	0,d0
    5e72:	c8 f9       	beq	5e6b <.L193>

00005e74 <.L188>:
    5e74:	5c 0c       	mov	(12,sp),a0

00005e76 <.LVL309>:
    5e76:	f8 18 10    	mov	d2,(16,a0)

00005e79 <.Loc.633.1>:
    5e79:	5c 0c       	mov	(12,sp),a0
    5e7b:	f1 d0       	mov	a0,d0
    5e7d:	df f0 24    	ret	[d2,d3,a2,a3],36

00005e80 <.L190>:
    5e80:	f1 d8       	mov	a2,d0

00005e82 <.LVL311>:
    5e82:	9e          	mov	a3,a2

00005e83 <.LVL312>:
    5e83:	f1 e3       	mov	d0,a3

00005e85 <.Loc.576.1>:
    5e85:	8a 01       	mov	1,d2

00005e87 <.LVL313>:
    5e87:	8c          	mov	d3,d0

00005e88 <.LVL314>:
    5e88:	f8 06 04    	mov	(4,a2),d1
    5e8b:	cd 8b f9 00 	call	5816 <__Balloc>,[],0
    5e8f:	00 

00005e90 <.LVL315>:
    5e90:	43 0c       	mov	a0,(12,sp)

00005e92 <.LVL316>:
    5e92:	f8 18 0c    	mov	d2,(12,a0)

00005e95 <.Loc.582.1>:
    5e95:	f8 0a 10    	mov	(16,a2),d2

00005e98 <.LVL317>:
    5e98:	98          	mov	a2,a0

00005e99 <.LVL318>:
    5e99:	20 14       	add	20,a0

00005e9b <.LVL319>:
    5e9b:	88          	mov	d2,d0
    5e9c:	28 05       	add	5,d0
    5e9e:	54          	asl2	d0
    5e9f:	f1 62       	add	d0,a2

00005ea1 <.LVL320>:
    5ea1:	f1 d9       	mov	a2,d1

00005ea3 <.LVL321>:
    5ea3:	9e          	mov	a3,a2
    5ea4:	22 14       	add	20,a2

00005ea6 <.LVL322>:
    5ea6:	f8 03 10    	mov	(16,a3),d0
    5ea9:	28 05       	add	5,d0
    5eab:	54          	asl2	d0
    5eac:	f1 5c       	add	a3,d0

00005eae <.LVL323>:
    5eae:	5d 0c       	mov	(12,sp),a1
    5eb0:	21 14       	add	20,a1

00005eb2 <.LVL324>:
    5eb2:	9f 00       	mov	0,a3

00005eb4 <.LVL325>:
    5eb4:	46 10       	mov	d1,(16,sp)
    5eb6:	f2 fa       	mov	d2,mdr
    5eb8:	82          	mov	d0,d2

00005eb9 <.LVL326>:
    5eb9:	cc 48 ff    	jmp	5e01 <.L185>

00005ebc <.L200>:
    5ebc:	8c          	mov	d3,d0

00005ebd <.LVL328>:
    5ebd:	89          	mov	d2,d1
    5ebe:	cd 58 f9 00 	call	5816 <__Balloc>,[],0
    5ec2:	00 

00005ec3 <.LVL329>:
    5ec3:	43 0c       	mov	a0,(12,sp)

00005ec5 <.LVL330>:
    5ec5:	80 01       	mov	1,d0
    5ec7:	f8 10 10    	mov	d0,(16,a0)

00005eca <.Loc.568.1>:
    5eca:	f8 18 14    	mov	d2,(20,a0)

00005ecd <.Loc.633.1>:
    5ecd:	5c 0c       	mov	(12,sp),a0
    5ecf:	f1 d0       	mov	a0,d0
    5ed1:	df f0 24    	ret	[d2,d3,a2,a3],36

00005ed4 <___ulp>:
    5ed4:	cf 80       	movm	[d2],(sp)

00005ed6 <.LCFI19>:
    5ed6:	fc e1 00 00 	and	2146435072,d1
    5eda:	f0 7f 
    5edc:	fc c1 00 00 	add	-54525952,d1
    5ee0:	c0 fc 

00005ee2 <.LVL332>:
	...

00005ee3 <.LVL333>:
    5ee3:	a5 00       	cmp	0,d1
    5ee5:	c3 05       	ble	5eea <.L203>

00005ee7 <.Loc.679.1>:
    5ee7:	de 80 04    	retf	[d2],4

00005eea <.L203>:
    5eea:	f1 04       	sub	d1,d0
    5eec:	f8 c8 14    	asr	20,d0

00005eef <.LVL334>:
    5eef:	a0 13       	cmp	19,d0
    5ef1:	c3 17       	ble	5f08 <.L209>

00005ef3 <.Loc.670.1>:
    5ef3:	04          	clr	d1

00005ef4 <.LVL335>:
    5ef4:	a0 32       	cmp	50,d0
    5ef6:	c1 0d       	bgt	5f03 <.L207>

00005ef8 <.Loc.673.1>:
    5ef8:	8a 33       	mov	51,d2
    5efa:	f1 02       	sub	d0,d2
    5efc:	80 01       	mov	1,d0

00005efe <.LVL336>:
    5efe:	f2 98       	asl	d2,d0

00005f00 <.Loc.679.1>:
    5f00:	de 80 04    	retf	[d2],4

00005f03 <.L207>:
    5f03:	80 01       	mov	1,d0

00005f05 <.LVL338>:
    5f05:	de 80 04    	retf	[d2],4

00005f08 <.L209>:
    5f08:	fc cd 00 00 	mov	524288,d1
    5f0c:	08 00 
    5f0e:	f2 b1       	asr	d0,d1

00005f10 <.Loc.665.1>:
	...

00005f11 <.LVL340>:
    5f11:	de 80 04    	retf	[d2],4

00005f14 <___b2d>:
    5f14:	cf f0       	movm	[d2,d3,a2,a3],(sp)

00005f16 <.LCFI20>:
    5f16:	f8 fe e8    	add	-24,sp

00005f19 <.LCFI21>:
    5f19:	f1 e7       	mov	d1,a3

00005f1b <.Loc.695.1>:
    5f1b:	81          	mov	d0,d1

00005f1c <.LVL342>:
    5f1c:	29 14       	add	20,d1
    5f1e:	46 10       	mov	d1,(16,sp)

00005f20 <.LVL343>:
    5f20:	f1 e0       	mov	d0,a0
    5f22:	f8 08 10    	mov	(16,a0),d2
    5f25:	2a 05       	add	5,d2
    5f27:	56          	asl2	d2
    5f28:	f1 ea       	mov	d2,a2
    5f2a:	f1 62       	add	d0,a2

00005f2c <.LVL344>:
    5f2c:	98          	mov	a2,a0
    5f2d:	20 fc       	add	-4,a0

00005f2f <.LVL345>:
    5f2f:	f8 06 fc    	mov	(-4,a2),d1

00005f32 <.LVL346>:
    5f32:	46 0c       	mov	d1,(12,sp)

00005f34 <.LVL347>:
    5f34:	84          	mov	d1,d0

00005f35 <.LVL348>:
    5f35:	43 14       	mov	a0,(20,sp)
    5f37:	cd b1 fa 00 	call	59e8 <___hi0bits>,[],0
    5f3b:	00 

00005f3c <.LVL349>:
    5f3c:	85 20       	mov	32,d1
    5f3e:	f1 01       	sub	d0,d1
    5f40:	67          	mov	d1,(a3)

00005f41 <.Loc.705.1>:
    5f41:	5c 14       	mov	(20,sp),a0

00005f43 <.LVL350>:
    5f43:	a0 0a       	cmp	10,d0
    5f45:	c1 2e       	bgt	5f73 <.L212>

00005f47 <.Loc.707.1>:
    5f47:	95 0b       	mov	11,a1
    5f49:	f1 21       	sub	d0,a1
    5f4b:	59 0c       	mov	(12,sp),d1
    5f4d:	f1 d6       	mov	a1,d2
    5f4f:	f2 a9       	lsr	d2,d1
    5f51:	fc e5 00 00 	or	1072693248,d1
    5f55:	f0 3f 

00005f57 <.Loc.708.1>:
    5f57:	5b 10       	mov	(16,sp),d3
    5f59:	f1 93       	cmp	a0,d3
    5f5b:	c6 6f       	bcc	5fca <.L218>

00005f5d <.LVL352>:
    5f5d:	f8 22 f8    	mov	(-8,a2),a0
    5f60:	f1 d3       	mov	a0,d3
    5f62:	f2 ab       	lsr	d2,d3
    5f64:	f1 ec       	mov	d3,a0

00005f66 <.Loc.710.1>:
    5f66:	28 15       	add	21,d0

00005f68 <.LVL353>:
    5f68:	5a 0c       	mov	(12,sp),d2
    5f6a:	f2 92       	asl	d0,d2
    5f6c:	f1 d0       	mov	a0,d0

00005f6e <.LVL354>:
    5f6e:	f2 18       	or	d2,d0

00005f70 <.L214>:
    5f70:	df f0 28    	ret	[d2,d3,a2,a3],40

00005f73 <.L212>:
    5f73:	59 10       	mov	(16,sp),d1
    5f75:	f1 91       	cmp	a0,d1
    5f77:	c6 3e       	bcc	5fb5 <.L219>

00005f79 <.Loc.714.1>:
    5f79:	98          	mov	a2,a0

00005f7a <.LVL356>:
    5f7a:	20 f8       	add	-8,a0

00005f7c <.LVL357>:
    5f7c:	f8 2a f8    	mov	(-8,a2),a2

00005f7f <.LVL358>:
    5f7f:	f1 e1       	mov	d0,a1
    5f81:	21 f5       	add	-11,a1

00005f83 <.LVL359>:
    5f83:	c8 3a       	beq	5fbd <.L216>

00005f85 <.L222>:
    5f85:	9f 2b       	mov	43,a3

00005f87 <.LVL360>:
    5f87:	f1 23       	sub	d0,a3
    5f89:	59 0c       	mov	(12,sp),d1
    5f8b:	f1 d6       	mov	a1,d2
    5f8d:	f2 99       	asl	d2,d1
    5f8f:	fc e5 00 00 	or	1072693248,d1
    5f93:	f0 3f 
    5f95:	f1 d8       	mov	a2,d0
    5f97:	f1 df       	mov	a3,d3
    5f99:	f2 ac       	lsr	d3,d0
    5f9b:	f2 11       	or	d0,d1

00005f9d <.Loc.718.1>:
    5f9d:	5a 10       	mov	(16,sp),d2
    5f9f:	f1 a8       	cmp	d2,a0
    5fa1:	c7 37       	bls	5fd8 <.L220>

00005fa3 <.LVL361>:
    5fa3:	f8 0c fc    	mov	(-4,a0),d3
    5fa6:	f1 dc       	mov	a3,d0
    5fa8:	f2 a3       	lsr	d0,d3

00005faa <.LVL362>:
    5faa:	f1 d8       	mov	a2,d0
    5fac:	f1 d6       	mov	a1,d2
    5fae:	f2 98       	asl	d2,d0
    5fb0:	f2 1c       	or	d3,d0

00005fb2 <.L223>:
    5fb2:	df f0 28    	ret	[d2,d3,a2,a3],40

00005fb5 <.L219>:
    5fb5:	9a 00       	mov	0,a2

00005fb7 <.LVL365>:
    5fb7:	f1 e1       	mov	d0,a1
    5fb9:	21 f5       	add	-11,a1

00005fbb <.LVL366>:
    5fbb:	c9 ca       	bne	5f85 <.L222>

00005fbd <.L216>:
    5fbd:	59 0c       	mov	(12,sp),d1
    5fbf:	fc e5 00 00 	or	1072693248,d1
    5fc3:	f0 3f 

00005fc5 <.Loc.727.1>:
    5fc5:	f1 d8       	mov	a2,d0

00005fc7 <.Loc.756.1>:
    5fc7:	df f0 28    	ret	[d2,d3,a2,a3],40

00005fca <.L218>:
    5fca:	90 00       	mov	0,a0

00005fcc <.LVL368>:
    5fcc:	28 15       	add	21,d0

00005fce <.LVL369>:
    5fce:	5a 0c       	mov	(12,sp),d2
    5fd0:	f2 92       	asl	d0,d2
    5fd2:	f1 d0       	mov	a0,d0

00005fd4 <.LVL370>:
    5fd4:	f2 18       	or	d2,d0
    5fd6:	ca 9a       	bra	5f70 <.L214>

00005fd8 <.L220>:
    5fd8:	0c          	clr	d3

00005fd9 <.LVL372>:
    5fd9:	f1 d8       	mov	a2,d0
    5fdb:	f1 d6       	mov	a1,d2
    5fdd:	f2 98       	asl	d2,d0
    5fdf:	f2 1c       	or	d3,d0
    5fe1:	ca d1       	bra	5fb2 <.L223>

00005fe3 <___d2b>:
    5fe3:	cf e0       	movm	[d2,d3,a2],(sp)

00005fe5 <.LCFI22>:
    5fe5:	f8 fe ec    	add	-20,sp

00005fe8 <.LCFI23>:
    5fe8:	46 28       	mov	d1,(40,sp)
    5fea:	87          	mov	d1,d3
    5feb:	5a 2c       	mov	(44,sp),d2

00005fed <.Loc.785.1>:
    5fed:	85 01       	mov	1,d1
    5fef:	cd 27 f8 00 	call	5816 <__Balloc>,[],0
    5ff3:	00 

00005ff4 <.LVL374>:
    5ff4:	92          	mov	a0,a2

00005ff5 <.LVL375>:
    5ff5:	88          	mov	d2,d0
    5ff6:	fc e0 ff ff 	and	1048575,d0
    5ffa:	0f 00 

00005ffc <.Loc.792.1>:
    5ffc:	ea          	add	d2,d2
    5ffd:	f8 c6 01    	lsr	1,d2

00006000 <.Loc.799.1>:
    6000:	f8 c6 14    	lsr	20,d2

00006003 <.LVL378>:
    6003:	aa 00       	cmp	0,d2
    6005:	c8 08       	beq	600d <.L236>

00006007 <.Loc.800.1>:
    6007:	fc e4 00 00 	or	1048576,d0
    600b:	10 00 

0000600d <.L236>:
    600d:	42 10       	mov	d0,(16,sp)

0000600f <.LVL380>:
    600f:	af 00       	cmp	0,d3
    6011:	c8 5b       	beq	606c <.L228>

00006013 <.Loc.806.1>:
    6013:	4e 0c       	mov	d3,(12,sp)

00006015 <.LVL381>:
    6015:	3c          	mov	sp,a0

00006016 <.LVL382>:
    6016:	20 0c       	add	12,a0
    6018:	f1 d0       	mov	a0,d0
    601a:	cd 19 fa 00 	call	5a33 <___lo0bits>,[],0
    601e:	00 

0000601f <.LVL383>:
    601f:	a0 00       	cmp	0,d0
    6021:	c8 7a       	beq	609b <.L229>

00006023 <.Loc.810.1>:
    6023:	5c 10       	mov	(16,sp),a0
    6025:	04          	clr	d1
    6026:	f1 01       	sub	d0,d1
    6028:	f1 d3       	mov	a0,d3
    602a:	f2 97       	asl	d1,d3
    602c:	8d          	mov	d3,d1
    602d:	5b 0c       	mov	(12,sp),d3
    602f:	f2 1d       	or	d3,d1
    6031:	f8 16 14    	mov	d1,(20,a2)

00006034 <.Loc.811.1>:
    6034:	f1 d1       	mov	a0,d1
    6036:	f2 a1       	lsr	d0,d1
    6038:	46 10       	mov	d1,(16,sp)

0000603a <.Loc.815.1>:
    603a:	f8 16 18    	mov	d1,(24,a2)
    603d:	a5 00       	cmp	0,d1
    603f:	c8 6a       	beq	60a9 <.L235>

00006041 <.L239>:
    6041:	8f 02       	mov	2,d3
    6043:	f8 1e 10    	mov	d3,(16,a2)

00006046 <.L232>:
    6046:	aa 00       	cmp	0,d2
    6048:	c9 3e       	bne	6086 <.L238>

0000604a <.L233>:
    604a:	fa c0 ce fb 	add	-1074,d0

0000604e <.LVL385>:
    604e:	5c 30       	mov	(48,sp),a0
    6050:	60          	mov	d0,(a0)

00006051 <.Loc.902.1>:
    6051:	8c          	mov	d3,d0

00006052 <.LVL386>:
    6052:	28 04       	add	4,d0
    6054:	54          	asl2	d0
    6055:	98          	mov	a2,a0
    6056:	f1 60       	add	d0,a0

00006058 <.LVL387>:
    6058:	70          	mov	(a0),d0
    6059:	cd 8f f9 00 	call	59e8 <___hi0bits>,[],0
    605d:	00 

0000605e <.LVL388>:
    605e:	f8 c3 05    	asl	5,d3

00006061 <.LVL389>:
    6061:	f1 03       	sub	d0,d3
    6063:	5c 34       	mov	(52,sp),a0
    6065:	6c          	mov	d3,(a0)

00006066 <.Loc.909.1>:
    6066:	98          	mov	a2,a0
    6067:	f1 d8       	mov	a2,d0
    6069:	df e0 20    	ret	[d2,d3,a2],32

0000606c <.L228>:
    606c:	3c          	mov	sp,a0

0000606d <.LVL391>:
    606d:	20 10       	add	16,a0
    606f:	f1 d0       	mov	a0,d0
    6071:	cd c2 f9 00 	call	5a33 <___lo0bits>,[],0
    6075:	00 

00006076 <.LVL392>:
    6076:	59 10       	mov	(16,sp),d1
    6078:	f8 16 14    	mov	d1,(20,a2)

0000607b <.Loc.826.1>:
    607b:	8f 01       	mov	1,d3
    607d:	f8 1e 10    	mov	d3,(16,a2)

00006080 <.LVL393>:
    6080:	28 20       	add	32,d0

00006082 <.LVL394>:
    6082:	aa 00       	cmp	0,d2
    6084:	c8 c6       	beq	604a <.L233>

00006086 <.L238>:
    6086:	fa c2 cd fb 	add	-1075,d2

0000608a <.LVL396>:
    608a:	e2          	add	d0,d2

0000608b <.LVL397>:
    608b:	5c 30       	mov	(48,sp),a0
    608d:	68          	mov	d2,(a0)

0000608e <.Loc.894.1>:
    608e:	85 35       	mov	53,d1
    6090:	f1 01       	sub	d0,d1
    6092:	5c 34       	mov	(52,sp),a0
    6094:	64          	mov	d1,(a0)

00006095 <.Loc.909.1>:
    6095:	98          	mov	a2,a0
    6096:	f1 d8       	mov	a2,d0

00006098 <.LVL398>:
    6098:	df e0 20    	ret	[d2,d3,a2],32

0000609b <.L229>:
    609b:	59 0c       	mov	(12,sp),d1
    609d:	f8 16 14    	mov	d1,(20,a2)
    60a0:	59 10       	mov	(16,sp),d1

000060a2 <.Loc.815.1>:
    60a2:	f8 16 18    	mov	d1,(24,a2)
    60a5:	a5 00       	cmp	0,d1
    60a7:	c9 9a       	bne	6041 <.L239>

000060a9 <.L235>:
    60a9:	8f 01       	mov	1,d3
    60ab:	f8 1e 10    	mov	d3,(16,a2)

000060ae <.LVL400>:
    60ae:	ca 98       	bra	6046 <.L232>

000060b0 <___ratio>:
    60b0:	cf f0       	movm	[d2,d3,a2,a3],(sp)

000060b2 <.LCFI24>:
    60b2:	f8 fe e0    	add	-32,sp

000060b5 <.LCFI25>:
    60b5:	f1 e3       	mov	d0,a3
    60b7:	f1 e6       	mov	d1,a2

000060b9 <.Loc.920.1>:
    60b9:	3c          	mov	sp,a0
    60ba:	20 18       	add	24,a0
    60bc:	f1 d1       	mov	a0,d1

000060be <.LVL402>:
    60be:	cd 56 fe 00 	call	5f14 <___b2d>,[],0
    60c2:	00 

000060c3 <.LVL403>:
    60c3:	f1 e1       	mov	d0,a1
    60c5:	87          	mov	d1,d3

000060c6 <.Loc.921.1>:
    60c6:	f1 d8       	mov	a2,d0
    60c8:	3c          	mov	sp,a0
    60c9:	20 1c       	add	28,a0
    60cb:	f1 d1       	mov	a0,d1
    60cd:	47 14       	mov	a1,(20,sp)
    60cf:	cd 45 fe 00 	call	5f14 <___b2d>,[],0
    60d3:	00 

000060d4 <.LVL404>:
    60d4:	5c 18       	mov	(24,sp),a0
    60d6:	5a 1c       	mov	(28,sp),d2
    60d8:	f1 28       	sub	d2,a0
    60da:	f8 0b 10    	mov	(16,a3),d2
    60dd:	f8 2a 10    	mov	(16,a2),a2

000060e0 <.LVL406>:
    60e0:	f1 1a       	sub	a2,d2
    60e2:	f8 c2 05    	asl	5,d2
    60e5:	f1 52       	add	a0,d2

000060e7 <.LVL407>:
    60e7:	5d 14       	mov	(20,sp),a1
    60e9:	aa 00       	cmp	0,d2
    60eb:	c3 17       	ble	6102 <.L242>

000060ed <.Loc.943.1>:
    60ed:	f8 c2 14    	asl	20,d2

000060f0 <.LVL408>:
    60f0:	eb          	add	d2,d3

000060f1 <.Loc.950.1>:
    60f1:	42 0c       	mov	d0,(12,sp)
    60f3:	46 10       	mov	d1,(16,sp)
    60f5:	f1 d4       	mov	a1,d0
    60f7:	8d          	mov	d3,d1
    60f8:	dd b1 2a 00 	call	8ba9 <___divdf3>,[],0
    60fc:	00 00 00 

000060ff <.LVL409>:
    60ff:	df f0 30    	ret	[d2,d3,a2,a3],48

00006102 <.L242>:
    6102:	f8 c2 14    	asl	20,d2

00006105 <.LVL411>:
    6105:	f1 09       	sub	d2,d1

00006107 <.Loc.950.1>:
    6107:	42 0c       	mov	d0,(12,sp)
    6109:	46 10       	mov	d1,(16,sp)
    610b:	f1 d4       	mov	a1,d0
    610d:	8d          	mov	d3,d1
    610e:	dd 9b 2a 00 	call	8ba9 <___divdf3>,[],0
    6112:	00 00 00 

00006115 <.LVL412>:
    6115:	df f0 30    	ret	[d2,d3,a2,a3],48

00006118 <__mprec_log10>:
    6118:	cf e0       	movm	[d2,d3,a2],(sp)

0000611a <.LCFI26>:
    611a:	f8 fe ec    	add	-20,sp

0000611d <.LCFI27>:
    611d:	82          	mov	d0,d2

0000611e <.LVL414>:
    611e:	a0 17       	cmp	23,d0
    6120:	c3 23       	ble	6143 <.L252>
	...

00006123 <.LVL415>:
    6123:	fc cd 00 00 	mov	1072693248,d1
    6127:	f0 3f 

00006129 <.Loc.987.1>:
    6129:	f1 e2       	mov	d0,a2
    612b:	fc cf 00 00 	mov	1076101120,d3
    612f:	24 40 

00006131 <.L249>:
    6131:	4b 0c       	mov	a2,(12,sp)
    6133:	4e 10       	mov	d3,(16,sp)
    6135:	dd 43 28 00 	call	8978 <___muldf3>,[],0
    6139:	00 00 00 

0000613c <.LVL417>:
    613c:	2a ff       	add	-1,d2

0000613e <.Loc.985.1>:
    613e:	c9 f3       	bne	6131 <.L249>

00006140 <.Loc.991.1>:
    6140:	df e0 20    	ret	[d2,d3,a2],32

00006143 <.L252>:
    6143:	56          	asl2	d2
    6144:	ea          	add	d2,d2
    6145:	f1 e8       	mov	d2,a0
    6147:	fc d0 88 97 	add	38792,a0
    614b:	00 00 
    614d:	70          	mov	(a0),d0

0000614e <.LVL420>:
    614e:	f8 04 04    	mov	(4,a0),d1

00006151 <.Loc.991.1>:
    6151:	df e0 20    	ret	[d2,d3,a2],32

00006154 <___copybits>:
    6154:	cf b0       	movm	[d2,a2,a3],(sp)

00006156 <.LCFI28>:
    6156:	f1 e0       	mov	d0,a0
    6158:	5f 18       	mov	(24,sp),a3

0000615a <.Loc.1004.1>:
    615a:	29 ff       	add	-1,d1

0000615c <.LVL422>:
    615c:	f8 c9 05    	asr	5,d1

0000615f <.LVL423>:
    615f:	44          	inc	d1
    6160:	55          	asl2	d1
    6161:	82          	mov	d0,d2
    6162:	e6          	add	d1,d2

00006163 <.Loc.1005.1>:
    6163:	9d          	mov	a3,a1
    6164:	21 14       	add	20,a1

00006166 <.Loc.1007.1>:
    6166:	f8 07 10    	mov	(16,a3),d1
    6169:	29 05       	add	5,d1
    616b:	55          	asl2	d1
    616c:	f1 5d       	add	a3,d1

0000616e <.LVL426>:
    616e:	f1 a5       	cmp	d1,a1
    6170:	c6 18       	bcc	6188 <.L255>
    6172:	f1 e2       	mov	d0,a2

00006174 <.L256>:
    6174:	71          	mov	(a1),d0
    6175:	62          	mov	d0,(a2)
    6176:	52          	inc4	a2
    6177:	51          	inc4	a1

00006178 <.Loc.1008.1>:
    6178:	f1 95       	cmp	a1,d1
    617a:	c5 fa       	bhi	6174 <.L256>

0000617c <.Loc.994.1>:
    617c:	f1 1d       	sub	a3,d1

0000617e <.LVL430>:
    617e:	29 eb       	add	-21,d1
    6180:	f8 c5 02    	lsr	2,d1
    6183:	55          	asl2	d1
    6184:	29 04       	add	4,d1
    6186:	f1 64       	add	d1,a0

00006188 <.L255>:
	...

00006189 <.Loc.1018.1>:
    6189:	f1 92       	cmp	a0,d2
    618b:	c7 08       	bls	6193 <.L254>

0000618d <.L260>:
    618d:	60          	mov	d0,(a0)
    618e:	50          	inc4	a0

0000618f <.Loc.1018.1>:
    618f:	f1 92       	cmp	a0,d2
    6191:	c5 fc       	bhi	618d <.L260>

00006193 <.L254>:
    6193:	de b0 0c    	retf	[d2,a2,a3],12

00006196 <___any_on>:
    6196:	cf e0       	movm	[d2,d3,a2],(sp)

00006198 <.LCFI29>:
    6198:	f1 e1       	mov	d0,a1
    619a:	21 14       	add	20,a1

0000619c <.LVL434>:
    619c:	f1 e2       	mov	d0,a2
    619e:	f8 22 10    	mov	(16,a2),a0

000061a1 <.LVL435>:
    61a1:	86          	mov	d1,d2
    61a2:	f8 ca 05    	asr	5,d2

000061a5 <.LVL436>:
    61a5:	f1 a8       	cmp	d2,a0
    61a7:	c0 06       	blt	61ad <.L267>

000061a9 <.Loc.1036.1>:
    61a9:	f1 e8       	mov	d2,a0

000061ab <.LVL437>:
    61ab:	c1 27       	bgt	61d2 <.L268>

000061ad <.L267>:
    61ad:	f1 d1       	mov	a0,d1

000061af <.LVL439>:
    61af:	29 05       	add	5,d1
    61b1:	55          	asl2	d1
    61b2:	f1 e6       	mov	d1,a2
    61b4:	f1 62       	add	d0,a2

000061b6 <.LVL440>:
    61b6:	b9          	cmp	a2,a1
    61b7:	c6 34       	bcc	61eb <.L275>

000061b9 <.Loc.1045.1>:
    61b9:	98          	mov	a2,a0
    61ba:	20 fc       	add	-4,a0

000061bc <.LVL441>:
    61bc:	f8 02 fc    	mov	(-4,a2),d0

000061bf <.LVL442>:
    61bf:	a0 00       	cmp	0,d0
    61c1:	c9 0c       	bne	61cd <.L277>

000061c3 <.L278>:
    61c3:	b1          	cmp	a0,a1
    61c4:	c6 27       	bcc	61eb <.L275>

000061c6 <.Loc.1045.1>:
    61c6:	20 fc       	add	-4,a0
    61c8:	70          	mov	(a0),d0
    61c9:	a0 00       	cmp	0,d0
    61cb:	c8 f8       	beq	61c3 <.L278>

000061cd <.L277>:
    61cd:	80 01       	mov	1,d0

000061cf <.L270>:
    61cf:	de e0 0c    	retf	[d2,d3,a2],12

000061d2 <.L268>:
    61d2:	f8 e1 1f    	and	31,d1
    61d5:	c8 d8       	beq	61ad <.L267>

000061d7 <.Loc.1036.1>:
    61d7:	2a 05       	add	5,d2

000061d9 <.LVL447>:
    61d9:	56          	asl2	d2
    61da:	f1 ea       	mov	d2,a2
    61dc:	f1 62       	add	d0,a2
    61de:	7e          	mov	(a2),d3

000061df <.LVL448>:
    61df:	8e          	mov	d3,d2
    61e0:	f2 a6       	lsr	d1,d2

000061e2 <.LVL449>:
    61e2:	f2 96       	asl	d1,d2

000061e4 <.LVL450>:
    61e4:	ae          	cmp	d3,d2
    61e5:	c8 c8       	beq	61ad <.L267>

000061e7 <.Loc.1040.1>:
    61e7:	80 01       	mov	1,d0

000061e9 <.LVL451>:
    61e9:	ca e6       	bra	61cf <.L270>

000061eb <.L275>:
	...

000061ec <.Loc.1048.1>:
    61ec:	de e0 0c    	retf	[d2,d3,a2],12

000061ef <___fpclassifyd>:
    61ef:	a5 00       	cmp	0,d1
    61f1:	c8 1f       	beq	6210 <.L2>

000061f3 <.Loc.16.1>:
    61f3:	fc c9 00 00 	cmp	-2147483648,d1
    61f7:	00 80 
    61f9:	c8 17       	beq	6210 <.L2>

000061fb <.L3>:
    61fb:	f1 e4       	mov	d1,a0
    61fd:	fc d0 00 00 	add	-1048576,a0
    6201:	f0 ff 
    6203:	fc d8 ff ff 	cmp	2145386495,a0
    6207:	df 7f 
    6209:	c5 10       	bhi	6219 <.L23>

0000620b <.L9>:
    620b:	80 04       	mov	4,d0

0000620d <.LVL1>:
    620d:	de 00 00    	retf	[],0

00006210 <.L2>:
    6210:	a0 00       	cmp	0,d0
    6212:	c9 e9       	bne	61fb <.L3>

00006214 <.Loc.18.1>:
    6214:	80 02       	mov	2,d0

00006216 <.LVL3>:
    6216:	de 00 00    	retf	[],0

00006219 <.L23>:
    6219:	f1 e4       	mov	d1,a0
    621b:	fc d0 00 00 	add	2146435072,a0
    621f:	f0 7f 

00006221 <.Loc.19.1>:
    6221:	fc d8 ff ff 	cmp	2145386495,a0
    6225:	df 7f 
    6227:	c7 e4       	bls	620b <.L9>

00006229 <.Loc.22.1>:
    6229:	fc c9 ff ff 	cmp	1048575,d1
    622d:	0f 00 
    622f:	c5 07       	bhi	6236 <.L24>

00006231 <.L11>:
    6231:	80 03       	mov	3,d0

00006233 <.LVL5>:
    6233:	de 00 00    	retf	[],0

00006236 <.L24>:
    6236:	f1 e4       	mov	d1,a0
    6238:	fc d0 00 00 	add	-2147483648,a0
    623c:	00 80 

0000623e <.Loc.22.1>:
    623e:	fc d8 ff ff 	cmp	1048575,a0
    6242:	0f 00 
    6244:	c7 ed       	bls	6231 <.L11>

00006246 <.Loc.26.1>:
    6246:	fc c9 00 00 	cmp	2146435072,d1
    624a:	f0 7f 
    624c:	c8 0e       	beq	625a <.L5>

0000624e <.Loc.26.1>:
    624e:	fc c9 00 00 	cmp	-1048576,d1
    6252:	f0 ff 
    6254:	c8 06       	beq	625a <.L5>

00006256 <.Loc.30.1>:
	...

00006257 <.LVL7>:
    6257:	de 00 00    	retf	[],0

0000625a <.L5>:
    625a:	85 01       	mov	1,d1

0000625c <.LVL9>:
    625c:	a0 00       	cmp	0,d0
    625e:	c8 03       	beq	6261 <.L6>
    6260:	04          	clr	d1

00006261 <.L6>:
    6261:	84          	mov	d1,d0

00006262 <.LVL10>:
    6262:	de 00 00    	retf	[],0

00006265 <__sbrk_r>:
    6265:	cf 20       	movm	[a2],(sp)

00006267 <.LCFI0>:
    6267:	f8 fe f4    	add	-12,sp

0000626a <.LCFI1>:
    626a:	f1 e2       	mov	d0,a2

0000626c <.Loc.57.1>:
    626c:	90 00       	mov	0,a0
    626e:	fc 80 04 a5 	mov	a0,(a504 <_errno>)
    6272:	00 00 

00006274 <.Loc.58.1>:
    6274:	84          	mov	d1,d0

00006275 <.LVL1>:
    6275:	dd e5 b2 ff 	call	155a <__sbrk>,[],0
    6279:	ff 00 00 

0000627c <.LVL2>:
    627c:	f1 d0       	mov	a0,d0
    627e:	fc d8 ff ff 	cmp	-1,a0
    6282:	ff ff 
    6284:	c8 07       	beq	628b <.L7>

00006286 <.L2>:
    6286:	f1 e0       	mov	d0,a0
    6288:	df 20 10    	ret	[a2],16

0000628b <.L7>:
    628b:	fc a5 04 a5 	mov	(a504 <_errno>),d1
    628f:	00 00 
    6291:	a5 00       	cmp	0,d1
    6293:	c8 f3       	beq	6286 <.L2>

00006295 <.Loc.59.1>:
    6295:	66          	mov	d1,(a2)

00006296 <.Loc.61.1>:
    6296:	f1 e0       	mov	d0,a0
    6298:	df 20 10    	ret	[a2],16

0000629b <___sread>:
    629b:	cf 20       	movm	[a2],(sp)

0000629d <.LCFI0>:
    629d:	f8 fe ec    	add	-20,sp

000062a0 <.LCFI1>:
    62a0:	f1 e6       	mov	d1,a2

000062a2 <.LVL1>:
    62a2:	f8 66 0e    	movhu	(14,a2),d1

000062a5 <.LVL2>:
    62a5:	5c 24       	mov	(36,sp),a0
    62a7:	43 0c       	mov	a0,(12,sp)
    62a9:	5c 28       	mov	(40,sp),a0
    62ab:	43 10       	mov	a0,(16,sp)
    62ad:	19          	exth	d1
    62ae:	dd 35 17 00 	call	79e3 <__read_r>,[],0
    62b2:	00 00 00 

000062b5 <.LVL3>:
    62b5:	a0 00       	cmp	0,d0
    62b7:	c0 0c       	blt	62c3 <.L2>

000062b9 <.Loc.58.1>:
    62b9:	f8 06 50    	mov	(80,a2),d1
    62bc:	e1          	add	d0,d1
    62bd:	f8 16 50    	mov	d1,(80,a2)

000062c0 <.Loc.62.1>:
    62c0:	df 20 18    	ret	[a2],24

000062c3 <.L2>:
    62c3:	f8 66 0c    	movhu	(12,a2),d1
    62c6:	fc e1 ff ef 	and	-4097,d1
    62ca:	ff ff 
    62cc:	f8 76 0c    	movhu	d1,(12,a2)

000062cf <.Loc.62.1>:
    62cf:	df 20 18    	ret	[a2],24

000062d2 <___seofread>:
	...

000062d3 <.LVL5>:
    62d3:	de 00 00    	retf	[],0

000062d6 <___swrite>:
    62d6:	cf a0       	movm	[d2,a2],(sp)

000062d8 <.LCFI2>:
    62d8:	f8 fe ec    	add	-20,sp

000062db <.LCFI3>:
    62db:	82          	mov	d0,d2
    62dc:	f1 e6       	mov	d1,a2

000062de <.LVL7>:
    62de:	f8 66 0c    	movhu	(12,a2),d1

000062e1 <.LVL8>:
    62e1:	84          	mov	d1,d0

000062e2 <.LVL9>:
    62e2:	fa e0 00 01 	and	256,d0
    62e6:	18          	exth	d0
    62e7:	a0 00       	cmp	0,d0
    62e9:	c9 22       	bne	630b <.L13>

000062eb <.Loc.90.1>:
    62eb:	fc e1 ff ef 	and	-4097,d1
    62ef:	ff ff 
    62f1:	f8 76 0c    	movhu	d1,(12,a2)

000062f4 <.Loc.97.1>:
    62f4:	f8 66 0e    	movhu	(14,a2),d1
    62f7:	58 28       	mov	(40,sp),d0
    62f9:	42 0c       	mov	d0,(12,sp)
    62fb:	58 2c       	mov	(44,sp),d0
    62fd:	42 10       	mov	d0,(16,sp)
    62ff:	88          	mov	d2,d0
    6300:	19          	exth	d1
    6301:	dd e5 0e 00 	call	71e6 <__write_r>,[],0
    6305:	00 00 00 

00006308 <.LVL10>:
    6308:	df a0 1c    	ret	[d2,a2],28

0000630b <.L13>:
    630b:	f8 66 0e    	movhu	(14,a2),d1
    630e:	00          	clr	d0
    630f:	42 0c       	mov	d0,(12,sp)
    6311:	80 02       	mov	2,d0
    6313:	42 10       	mov	d0,(16,sp)
    6315:	88          	mov	d2,d0
    6316:	19          	exth	d1
    6317:	dd bc 15 00 	call	78d3 <__lseek_r>,[],0
    631b:	00 00 00 

0000631e <.LVL12>:
    631e:	f8 66 0c    	movhu	(12,a2),d1

00006321 <.Loc.90.1>:
    6321:	fc e1 ff ef 	and	-4097,d1
    6325:	ff ff 
    6327:	f8 76 0c    	movhu	d1,(12,a2)

0000632a <.Loc.97.1>:
    632a:	f8 66 0e    	movhu	(14,a2),d1
    632d:	58 28       	mov	(40,sp),d0
    632f:	42 0c       	mov	d0,(12,sp)
    6331:	58 2c       	mov	(44,sp),d0
    6333:	42 10       	mov	d0,(16,sp)
    6335:	88          	mov	d2,d0
    6336:	19          	exth	d1
    6337:	dd af 0e 00 	call	71e6 <__write_r>,[],0
    633b:	00 00 00 

0000633e <.LVL13>:
    633e:	df a0 1c    	ret	[d2,a2],28

00006341 <___sseek>:
    6341:	cf 20       	movm	[a2],(sp)

00006343 <.LCFI4>:
    6343:	f8 fe ec    	add	-20,sp

00006346 <.LCFI5>:
    6346:	f1 e6       	mov	d1,a2

00006348 <.LVL15>:
    6348:	f8 66 0e    	movhu	(14,a2),d1

0000634b <.LVL16>:
    634b:	5c 24       	mov	(36,sp),a0
    634d:	43 0c       	mov	a0,(12,sp)
    634f:	5c 28       	mov	(40,sp),a0
    6351:	43 10       	mov	a0,(16,sp)
    6353:	19          	exth	d1
    6354:	dd 7f 15 00 	call	78d3 <__lseek_r>,[],0
    6358:	00 00 00 

0000635b <.LVL17>:
    635b:	f8 66 0c    	movhu	(12,a2),d1

0000635e <.Loc.118.1>:
    635e:	a0 ff       	cmp	-1,d0
    6360:	c8 0f       	beq	636f <.L19>

00006362 <.Loc.122.1>:
    6362:	fa e5 00 10 	or	4096,d1
    6366:	f8 76 0c    	movhu	d1,(12,a2)

00006369 <.Loc.123.1>:
    6369:	f8 12 50    	mov	d0,(80,a2)

0000636c <.Loc.126.1>:
    636c:	df 20 18    	ret	[a2],24

0000636f <.L19>:
    636f:	fc e1 ff ef 	and	-4097,d1
    6373:	ff ff 
    6375:	f8 76 0c    	movhu	d1,(12,a2)

00006378 <.Loc.126.1>:
    6378:	df 20 18    	ret	[a2],24

0000637b <___sclose>:
    637b:	f8 fe f4    	add	-12,sp

0000637e <.LCFI6>:
    637e:	f1 e4       	mov	d1,a0
    6380:	f8 64 0e    	movhu	(14,a0),d1

00006383 <.LVL20>:
    6383:	19          	exth	d1
    6384:	dd 0f 0f 00 	call	7293 <__close_r>,[],0
    6388:	00 00 00 

0000638b <.LVL21>:
    638b:	df 00 0c    	ret	[],12

0000638e <_strcmp>:
    638e:	cf f0       	movm	[d2,d3,a2,a3],(sp)

00006390 <.Lend_of_prologue>:
    6390:	f1 e0       	mov	d0,a0

00006392 <.Loc.10.1>:
    6392:	f1 e5       	mov	d1,a1

00006394 <.Loc.12.1>:
    6394:	f2 14       	or	d1,d0

00006396 <.Loc.13.1>:
    6396:	f8 ec 03    	btst	3,d0

00006399 <.Loc.14.1>:
    6399:	c9 26       	bne	63bf <.L11>

0000639b <.Loc.15.1>:
    639b:	74          	mov	(a0),d1

0000639c <.Loc.16.1>:
    639c:	71          	mov	(a1),d0

0000639d <.Loc.17.1>:
    639d:	a1          	cmp	d0,d1

0000639e <.Loc.18.1>:
    639e:	c9 21       	bne	63bf <.L11>

000063a0 <.Loc.19.1>:
    63a0:	fc cf ff fe 	mov	-16843009,d3
    63a4:	fe fe 

000063a6 <.Loc.20.1>:
    63a6:	db          	setlb	

000063a7 <.Loc.21.1>:
    63a7:	70          	mov	(a0),d0

000063a8 <.Loc.22.1>:
    63a8:	8d          	mov	d3,d1

000063a9 <.Loc.23.1>:
    63a9:	e1          	add	d0,d1

000063aa <.Loc.24.1>:
    63aa:	f2 30       	not	d0

000063ac <.Loc.25.1>:
    63ac:	f2 01       	and	d0,d1

000063ae <.Loc.26.1>:
    63ae:	fc e1 80 80 	and	-2139062144,d1
    63b2:	80 80 

000063b4 <.Loc.27.1>:
    63b4:	c8 05       	beq	63b9 <.L6>

000063b6 <.Loc.28.1>:
	...

000063b7 <.Loc.29.1>:
    63b7:	ca 19       	bra	63d0 <.Lepilogue>

000063b9 <.L6>:
    63b9:	50          	inc4	a0

000063ba <.Loc.32.1>:
    63ba:	51          	inc4	a1

000063bb <.Loc.33.1>:
    63bb:	74          	mov	(a0),d1

000063bc <.Loc.34.1>:
    63bc:	71          	mov	(a1),d0

000063bd <.Loc.35.1>:
    63bd:	a1          	cmp	d0,d1

000063be <.Loc.36.1>:
    63be:	d8          	leq	

000063bf <.L11>:
    63bf:	db          	setlb	

000063c0 <.Loc.40.1>:
    63c0:	f0 49       	movbu	(a1),d2

000063c2 <.Loc.41.1>:
    63c2:	f0 40       	movbu	(a0),d0

000063c4 <.Loc.42.1>:
    63c4:	a0 00       	cmp	0,d0

000063c6 <.Loc.43.1>:
    63c6:	c8 08       	beq	63ce <.L9>

000063c8 <.Loc.44.1>:
    63c8:	a8          	cmp	d2,d0

000063c9 <.Loc.45.1>:
    63c9:	c9 05       	bne	63ce <.L9>

000063cb <.Loc.46.1>:
    63cb:	41          	inc	a0

000063cc <.Loc.47.1>:
    63cc:	45          	inc	a1

000063cd <.Loc.48.1>:
    63cd:	da          	lra	

000063ce <.L9>:
    63ce:	f1 08       	sub	d2,d0

000063d0 <.Lepilogue>:
    63d0:	df f0 10    	ret	[d2,d3,a2,a3],16

000063d3 <_strlen>:
    63d3:	cf f0       	movm	[d2,d3,a2,a3],(sp)

000063d5 <.Lend_of_prologue>:
    63d5:	f1 e0       	mov	d0,a0

000063d7 <.Loc.10.1>:
    63d7:	92          	mov	a0,a2

000063d8 <.Loc.12.1>:
    63d8:	f8 ec 03    	btst	3,d0

000063db <.Loc.13.1>:
    63db:	c9 2e       	bne	6409 <.L21>

000063dd <.Loc.14.1>:
    63dd:	70          	mov	(a0),d0

000063de <.Loc.15.1>:
    63de:	fc dd ff fe 	mov	-16843009,a1
    63e2:	fe fe 

000063e4 <.Loc.16.1>:
    63e4:	f1 d5       	mov	a1,d1

000063e6 <.Loc.17.1>:
    63e6:	e1          	add	d0,d1

000063e7 <.Loc.18.1>:
    63e7:	f2 30       	not	d0

000063e9 <.Loc.19.1>:
    63e9:	f2 01       	and	d0,d1

000063eb <.Loc.20.1>:
    63eb:	fc ce 80 80 	mov	-2139062144,d2
    63ef:	80 80 

000063f1 <.Loc.21.1>:
    63f1:	fc ed 80 80 	btst	-2139062144,d1
    63f5:	80 80 

000063f7 <.Loc.22.1>:
    63f7:	c9 12       	bne	6409 <.L21>

000063f9 <.Loc.23.1>:
    63f9:	db          	setlb	

000063fa <.Loc.24.1>:
    63fa:	50          	inc4	a0

000063fb <.Loc.25.1>:
    63fb:	70          	mov	(a0),d0

000063fc <.Loc.26.1>:
    63fc:	f1 d5       	mov	a1,d1

000063fe <.Loc.27.1>:
    63fe:	e1          	add	d0,d1

000063ff <.Loc.28.1>:
    63ff:	f2 30       	not	d0

00006401 <.Loc.29.1>:
    6401:	f2 01       	and	d0,d1

00006403 <.Loc.30.1>:
    6403:	f2 09       	and	d2,d1

00006405 <.Loc.31.1>:
    6405:	d8          	leq	

00006406 <.Loc.32.1>:
    6406:	ca 03       	bra	6409 <.L21>

00006408 <.L19>:
    6408:	41          	inc	a0

00006409 <.L21>:
    6409:	f0 4c       	movbu	(a0),d3

0000640b <.Loc.38.1>:
    640b:	af 00       	cmp	0,d3

0000640d <.Loc.39.1>:
    640d:	c9 fb       	bne	6408 <.L19>

0000640f <.Loc.40.1>:
    640f:	f1 38       	sub	a2,a0

00006411 <.Loc.41.1>:
    6411:	f1 d0       	mov	a0,d0

00006413 <.Loc.43.1>:
    6413:	df f0 10    	ret	[d2,d3,a2,a3],16

00006416 <___sprint_r>:
    6416:	cf f0       	movm	[d2,d3,a2,a3],(sp)

00006418 <.LCFI0>:
    6418:	f8 fe ec    	add	-20,sp

0000641b <.LCFI1>:
    641b:	83          	mov	d0,d3
    641c:	46 2c       	mov	d1,(44,sp)

0000641e <.Loc.300.1>:
    641e:	5c 30       	mov	(48,sp),a0
    6420:	f8 00 08    	mov	(8,a0),d0

00006423 <.LVL2>:
    6423:	a0 00       	cmp	0,d0
    6425:	c8 5e       	beq	6483 <.L14>

00006427 <.LBB6>:
    6427:	5d 2c       	mov	(44,sp),a1
    6429:	f8 05 64    	mov	(100,a1),d1

0000642c <.LBB8>:
    642c:	5c 30       	mov	(48,sp),a0

0000642e <.LBE8>:
    642e:	fa e1 00 20 	and	8192,d1
    6432:	c8 57       	beq	6489 <.L4>

00006434 <.LBB9>:
    6434:	f0 00       	mov	(a0),a0
    6436:	43 10       	mov	a0,(16,sp)

00006438 <.L6>:
    6438:	5d 10       	mov	(16,sp),a1
    643a:	f0 01       	mov	(a1),a0

0000643c <.LVL6>:
    643c:	f8 09 04    	mov	(4,a1),d2
    643f:	f8 c6 02    	lsr	2,d2

00006442 <.LVL7>:
    6442:	aa 00       	cmp	0,d2
    6444:	c3 21       	ble	6465 <.L9>
    6446:	92          	mov	a0,a2
    6447:	9f 00       	mov	0,a3

00006449 <.L8>:
    6449:	76          	mov	(a2),d1
    644a:	5c 2c       	mov	(44,sp),a0
    644c:	43 0c       	mov	a0,(12,sp)
    644e:	8c          	mov	d3,d0
    644f:	dd 47 0f 00 	call	7396 <__fputwc_r>,[],0
    6453:	00 00 00 

00006456 <.LVL9>:
    6456:	a0 ff       	cmp	-1,d0
    6458:	c8 1f       	beq	6477 <.L7>

0000645a <.Loc.314.1>:
    645a:	4d          	inc	a3

0000645b <.LVL10>:
    645b:	52          	inc4	a2
    645c:	f1 9e       	cmp	a3,d2
    645e:	c9 eb       	bne	6449 <.L8>
    6460:	5d 30       	mov	(48,sp),a1
    6462:	f8 01 08    	mov	(8,a1),d0

00006465 <.L9>:
    6465:	56          	asl2	d2

00006466 <.LVL12>:
    6466:	f1 08       	sub	d2,d0
    6468:	5c 30       	mov	(48,sp),a0
    646a:	f8 10 08    	mov	d0,(8,a0)
    646d:	5d 10       	mov	(16,sp),a1
    646f:	21 08       	add	8,a1
    6471:	47 10       	mov	a1,(16,sp)

00006473 <.LVL13>:
    6473:	a0 00       	cmp	0,d0
    6475:	c9 c3       	bne	6438 <.L6>

00006477 <.L7>:
    6477:	04          	clr	d1
    6478:	5d 30       	mov	(48,sp),a1
    647a:	f8 15 08    	mov	d1,(8,a1)

0000647d <.Loc.325.1>:
    647d:	f8 15 04    	mov	d1,(4,a1)

00006480 <.L3>:
    6480:	df f0 24    	ret	[d2,d3,a2,a3],36

00006483 <.L14>:
    6483:	f8 10 04    	mov	d0,(4,a0)

00006486 <.Loc.327.1>:
    6486:	df f0 24    	ret	[d2,d3,a2,a3],36

00006489 <.L4>:
    6489:	43 0c       	mov	a0,(12,sp)
    648b:	8c          	mov	d3,d0
    648c:	59 2c       	mov	(44,sp),d1
    648e:	dd 56 10 00 	call	74e4 <___sfvwrite_r>,[],0
    6492:	00 00 00 

00006495 <.LVL18>:
    6495:	04          	clr	d1
    6496:	5d 30       	mov	(48,sp),a1
    6498:	f8 15 08    	mov	d1,(8,a1)

0000649b <.Loc.325.1>:
    649b:	f8 15 04    	mov	d1,(4,a1)
    649e:	ca e2       	bra	6480 <.L3>

000064a0 <__vfiprintf_r>:
    64a0:	cf f0       	movm	[d2,d3,a2,a3],(sp)

000064a2 <.LCFI2>:
    64a2:	fa fe 18 fb 	add	-1256,sp

000064a6 <.LCFI3>:
    64a6:	fa 91 fc 04 	mov	d0,(1276,sp)
    64aa:	fa 95 00 05 	mov	d1,(1280,sp)

000064ae <.LVL20>:
    64ae:	f1 e1       	mov	d0,a1
    64b0:	a0 00       	cmp	0,d0
    64b2:	c8 0c       	beq	64be <.L0_0>

000064b4 <.Loc.710.1>:
    64b4:	f8 01 38    	mov	(56,a1),d0

000064b7 <.LVL21>:
    64b7:	a0 00       	cmp	0,d0
    64b9:	c9 05       	bne	64be <.L0_0>
    64bb:	cc 7b 03    	jmp	6836 <.L241>

000064be <.L0_0>:
    64be:	fa b2 00 05 	mov	(1280,sp),a2
    64c2:	f8 62 0c    	movhu	(12,a2),d0
    64c5:	81          	mov	d0,d1
    64c6:	fa e1 00 20 	and	8192,d1
    64ca:	19          	exth	d1
    64cb:	a5 00       	cmp	0,d1
    64cd:	c9 17       	bne	64e4 <.L18>

000064cf <.Loc.713.1>:
    64cf:	81          	mov	d0,d1
    64d0:	fa e5 00 20 	or	8192,d1
    64d4:	84          	mov	d1,d0
    64d5:	f8 76 0c    	movhu	d1,(12,a2)
    64d8:	f8 06 64    	mov	(100,a2),d1
    64db:	fc e1 ff df 	and	-8193,d1
    64df:	ff ff 
    64e1:	f8 16 64    	mov	d1,(100,a2)

000064e4 <.L18>:
    64e4:	81          	mov	d0,d1
    64e5:	f8 e1 08    	and	8,d1
    64e8:	19          	exth	d1
    64e9:	a5 00       	cmp	0,d1
    64eb:	c9 05       	bne	64f0 <.L0_1>
    64ed:	cc f5 03    	jmp	68e2 <.L19>

000064f0 <.L0_1>:
    64f0:	fa b1 00 05 	mov	(1280,sp),a1
    64f4:	f8 05 10    	mov	(16,a1),d1
    64f7:	a5 00       	cmp	0,d1
    64f9:	c9 05       	bne	64fe <.L0_2>
    64fb:	cc e7 03    	jmp	68e2 <.L19>

000064fe <.L0_2>:
    64fe:	81          	mov	d0,d1
    64ff:	f8 e1 1a    	and	26,d1
    6502:	a5 0a       	cmp	10,d1
    6504:	c9 05       	bne	6509 <.L0_3>
    6506:	cc 98 02    	jmp	679e <.L242>

00006509 <.L0_3>:
    6509:	3e          	mov	sp,a2
    650a:	fa d2 e8 00 	add	232,a2
    650e:	4b 4c       	mov	a2,(76,sp)

00006510 <.Loc.743.1>:
    6510:	00          	clr	d0
    6511:	42 54       	mov	d0,(84,sp)

00006513 <.Loc.744.1>:
    6513:	42 50       	mov	d0,(80,sp)

00006515 <.LVL24>:
    6515:	fa b0 04 05 	mov	(1284,sp),a0
    6519:	43 1c       	mov	a0,(28,sp)

0000651b <.Loc.597.1>:
    651b:	42 40       	mov	d0,(64,sp)

0000651d <.Loc.745.1>:
    651d:	42 34       	mov	d0,(52,sp)

0000651f <.Loc.742.1>:
    651f:	9b          	mov	a2,a3

00006520 <.L222>:
    6520:	5d 1c       	mov	(28,sp),a1
    6522:	f0 41       	movbu	(a1),d0
    6524:	a0 00       	cmp	0,d0
    6526:	c9 05       	bne	652b <.L0_4>
    6528:	cc 64 02    	jmp	678c <.L0_26>

0000652b <.L0_4>:
    652b:	a0 25       	cmp	37,d0
    652d:	c9 05       	bne	6532 <.L0_5>
    652f:	cc 5d 02    	jmp	678c <.L0_26>

00006532 <.L0_5>:
    6532:	96          	mov	a1,a2

00006533 <.L30>:
    6533:	49          	inc	a2

00006534 <.Loc.772.1>:
    6534:	f0 42       	movbu	(a2),d0
    6536:	a0 00       	cmp	0,d0
    6538:	c8 06       	beq	653e <.L233>

0000653a <.Loc.772.1>:
    653a:	a0 25       	cmp	37,d0
    653c:	c9 f7       	bne	6533 <.L30>

0000653e <.L233>:
    653e:	f1 da       	mov	a2,d2
    6540:	5d 1c       	mov	(28,sp),a1

00006542 <.LVL29>:
    6542:	f1 16       	sub	a1,d2

00006544 <.LVL30>:
    6544:	aa 00       	cmp	0,d2
    6546:	c8 21       	beq	6567 <.L27>

00006548 <.Loc.776.1>:
    6548:	5d 1c       	mov	(28,sp),a1
    654a:	f0 17       	mov	a1,(a3)
    654c:	f8 1b 04    	mov	d2,(4,a3)
    654f:	59 54       	mov	(84,sp),d1
    6551:	e9          	add	d2,d1
    6552:	46 54       	mov	d1,(84,sp)

00006554 <.LVL31>:
    6554:	58 50       	mov	(80,sp),d0
    6556:	40          	inc	d0
    6557:	42 50       	mov	d0,(80,sp)
    6559:	a0 07       	cmp	7,d0
    655b:	c3 05       	ble	6560 <.L0_6>
    655d:	cc 7c 08    	jmp	6dd9 <.L31>

00006560 <.L0_6>:
    6560:	23 08       	add	8,a3

00006562 <.LVL32>:
    6562:	58 34       	mov	(52,sp),d0
    6564:	e8          	add	d2,d0
    6565:	42 34       	mov	d0,(52,sp)

00006567 <.L27>:
    6567:	f0 42       	movbu	(a2),d0
    6569:	a0 00       	cmp	0,d0
    656b:	c9 05       	bne	6570 <.L0_7>
    656d:	cc 5c 0b    	jmp	70c9 <.L34>

00006570 <.L0_7>:
    6570:	99          	mov	a2,a1
    6571:	45          	inc	a1
    6572:	47 1c       	mov	a1,(28,sp)

00006574 <.LVL35>:
    6574:	04          	clr	d1
    6575:	f8 96 49    	movbu	d1,(73,sp)

00006578 <.Loc.792.1>:
    6578:	fc dd ff ff 	mov	-1,a1
    657c:	ff ff 

0000657e <.LVL36>:
    657e:	08          	clr	d2
    657f:	4a 2c       	mov	d2,(44,sp)

00006581 <.Loc.789.1>:
    6581:	4a 18       	mov	d2,(24,sp)
    6583:	f8 42 01    	movbu	(1,a2),d0
    6586:	5c 1c       	mov	(28,sp),a0

00006588 <.LVL37>:
    6588:	41          	inc	a0

00006589 <.L221>:
    6589:	82          	mov	d0,d2
    658a:	2a e0       	add	-32,d2
    658c:	aa 58       	cmp	88,d2
    658e:	c5 05       	bhi	6593 <.L0_8>
    6590:	cc 01 02    	jmp	6791 <.L243>

00006593 <.L0_8>:
    6593:	43 1c       	mov	a0,(28,sp)
    6595:	f8 96 49    	movbu	d1,(73,sp)

00006598 <.Loc.1490.1>:
    6598:	a0 00       	cmp	0,d0
    659a:	c9 05       	bne	659f <.L0_9>
    659c:	cc 2d 0b    	jmp	70c9 <.L34>

0000659f <.L0_9>:
    659f:	f8 92 58    	movbu	d0,(88,sp)

000065a2 <.LVL40>:
	...

000065a3 <.LVL41>:
    65a3:	f8 92 49    	movbu	d0,(73,sp)

000065a6 <.Loc.1497.1>:
    65a6:	95 01       	mov	1,a1

000065a8 <.LVL42>:
    65a8:	47 28       	mov	a1,(40,sp)

000065aa <.Loc.1495.1>:
    65aa:	47 24       	mov	a1,(36,sp)

000065ac <.Loc.1493.1>:
    65ac:	3e          	mov	sp,a2
    65ad:	22 58       	add	88,a2
    65af:	f1 db       	mov	a2,d3

000065b1 <.L76>:
    65b1:	08          	clr	d2
    65b2:	4a 30       	mov	d2,(48,sp)

000065b4 <.L119>:
    65b4:	5a 18       	mov	(24,sp),d2
    65b6:	f8 e2 02    	and	2,d2
    65b9:	4a 20       	mov	d2,(32,sp)
    65bb:	c8 08       	beq	65c3 <.L120>

000065bd <.Loc.1519.1>:
    65bd:	5c 28       	mov	(40,sp),a0
    65bf:	20 02       	add	2,a0
    65c1:	43 28       	mov	a0,(40,sp)

000065c3 <.L120>:
    65c3:	5a 18       	mov	(24,sp),d2
    65c5:	f8 e2 84    	and	132,d2
    65c8:	4a 38       	mov	d2,(56,sp)
    65ca:	c8 05       	beq	65cf <.L0_10>
    65cc:	cc 89 07    	jmp	6d55 <.L238>

000065cf <.L0_10>:
    65cf:	5e 2c       	mov	(44,sp),a2
    65d1:	5c 28       	mov	(40,sp),a0
    65d3:	f1 32       	sub	a0,a2

000065d5 <.LVL46>:
    65d5:	ba 00       	cmp	0,a2
    65d7:	c1 05       	bgt	65dc <.L0_11>
    65d9:	cc 7c 07    	jmp	6d55 <.L238>

000065dc <.L0_11>:
    65dc:	59 54       	mov	(84,sp),d1
    65de:	58 50       	mov	(80,sp),d0

000065e0 <.Loc.1523.1>:
    65e0:	ba 10       	cmp	16,a2
    65e2:	c1 05       	bgt	65e7 <.L0_12>
    65e4:	cc 60 0b    	jmp	7144 <.L244>

000065e7 <.L0_12>:
    65e7:	fc ce c0 99 	mov	39360,d2
    65eb:	00 00 
    65ed:	4a 3c       	mov	d2,(60,sp)

000065ef <.Loc.1523.1>:
    65ef:	8a 10       	mov	16,d2
    65f1:	4e 44       	mov	d3,(68,sp)
    65f3:	9d          	mov	a3,a1
    65f4:	9b          	mov	a2,a3

000065f5 <.LVL47>:
    65f5:	fa b7 fc 04 	mov	(1276,sp),d3

000065f9 <.LVL48>:
    65f9:	fa b2 00 05 	mov	(1280,sp),a2

000065fd <.L125>:
    65fd:	fc dc c0 99 	mov	39360,a0
    6601:	00 00 
    6603:	f0 11       	mov	a0,(a1)
    6605:	f8 19 04    	mov	d2,(4,a1)
    6608:	29 10       	add	16,d1
    660a:	46 54       	mov	d1,(84,sp)

0000660c <.LVL50>:
    660c:	40          	inc	d0
    660d:	42 50       	mov	d0,(80,sp)
    660f:	a0 07       	cmp	7,d0
    6611:	c3 05       	ble	6616 <.L0_13>
    6613:	cc aa 06    	jmp	6cbd <.L123>

00006616 <.L0_13>:
    6616:	21 08       	add	8,a1

00006618 <.LVL51>:
    6618:	23 f0       	add	-16,a3
    661a:	bf 10       	cmp	16,a3
    661c:	c1 e1       	bgt	65fd <.L125>

0000661e <.L265>:
    661e:	5b 44       	mov	(68,sp),d3
    6620:	9e          	mov	a3,a2
    6621:	97          	mov	a1,a3

00006622 <.L122>:
    6622:	5a 3c       	mov	(60,sp),d2
    6624:	6b          	mov	d2,(a3)
    6625:	f8 3b 04    	mov	a2,(4,a3)
    6628:	f1 59       	add	a2,d1
    662a:	46 54       	mov	d1,(84,sp)

0000662c <.LVL54>:
    662c:	40          	inc	d0
    662d:	42 50       	mov	d0,(80,sp)
    662f:	a0 07       	cmp	7,d0
    6631:	c3 05       	ble	6636 <.L0_14>
    6633:	cc 04 07    	jmp	6d37 <.L126>

00006636 <.L0_14>:
    6636:	23 08       	add	8,a3

00006638 <.L121>:
    6638:	f8 ba 49    	movbu	(73,sp),d2
    663b:	aa 00       	cmp	0,d2

0000663d <.LVL56>:
    663d:	c8 1d       	beq	665a <.L127>

0000663f <.Loc.1527.1>:
    663f:	3c          	mov	sp,a0
    6640:	20 49       	add	73,a0
    6642:	f0 13       	mov	a0,(a3)
    6644:	90 01       	mov	1,a0
    6646:	f8 33 04    	mov	a0,(4,a3)
    6649:	f1 51       	add	a0,d1
    664b:	46 54       	mov	d1,(84,sp)

0000664d <.LVL57>:
    664d:	f1 50       	add	a0,d0
    664f:	42 50       	mov	d0,(80,sp)
    6651:	a0 07       	cmp	7,d0
    6653:	c3 05       	ble	6658 <.L0_15>
    6655:	cc 53 08    	jmp	6ea8 <.L128>

00006658 <.L0_15>:
    6658:	23 08       	add	8,a3

0000665a <.L127>:
    665a:	5a 20       	mov	(32,sp),d2
    665c:	aa 00       	cmp	0,d2
    665e:	c8 1c       	beq	667a <.L129>

00006660 <.Loc.1529.1>:
    6660:	3c          	mov	sp,a0
    6661:	20 4a       	add	74,a0
    6663:	f0 13       	mov	a0,(a3)
    6665:	90 02       	mov	2,a0
    6667:	f8 33 04    	mov	a0,(4,a3)
    666a:	f1 51       	add	a0,d1
    666c:	46 54       	mov	d1,(84,sp)

0000666e <.LVL59>:
    666e:	40          	inc	d0
    666f:	42 50       	mov	d0,(80,sp)
    6671:	a0 07       	cmp	7,d0
    6673:	c3 05       	ble	6678 <.L0_16>
    6675:	cc 58 08    	jmp	6ecd <.L130>

00006678 <.L0_16>:
    6678:	23 08       	add	8,a3

0000667a <.L129>:
    667a:	5a 38       	mov	(56,sp),d2
    667c:	fa ca 80 00 	cmp	128,d2
    6680:	c9 05       	bne	6685 <.L0_17>
    6682:	cc c0 01    	jmp	6842 <.L245>

00006685 <.L0_17>:
    6685:	5e 30       	mov	(48,sp),a2
    6687:	5d 24       	mov	(36,sp),a1
    6689:	f1 36       	sub	a1,a2

0000668b <.LVL62>:
    668b:	ba 00       	cmp	0,a2
    668d:	c3 5a       	ble	66e7 <.L137>

0000668f <.Loc.1536.1>:
    668f:	ba 10       	cmp	16,a2
    6691:	c1 05       	bgt	6696 <.L0_18>
    6693:	cc 2b 0a    	jmp	70be <.L246>

00006696 <.L0_18>:
    6696:	fc dc d0 99 	mov	39376,a0
    669a:	00 00 
    669c:	43 20       	mov	a0,(32,sp)

0000669e <.Loc.1536.1>:
    669e:	8a 10       	mov	16,d2
    66a0:	4e 30       	mov	d3,(48,sp)
    66a2:	9d          	mov	a3,a1
    66a3:	9b          	mov	a2,a3

000066a4 <.LVL63>:
    66a4:	fa b7 fc 04 	mov	(1276,sp),d3
    66a8:	fa b2 00 05 	mov	(1280,sp),a2

000066ac <.L141>:
    66ac:	fc dc d0 99 	mov	39376,a0
    66b0:	00 00 
    66b2:	f0 11       	mov	a0,(a1)
    66b4:	f8 19 04    	mov	d2,(4,a1)
    66b7:	29 10       	add	16,d1
    66b9:	46 54       	mov	d1,(84,sp)

000066bb <.LVL65>:
    66bb:	40          	inc	d0
    66bc:	42 50       	mov	d0,(80,sp)
    66be:	a0 07       	cmp	7,d0
    66c0:	c3 05       	ble	66c5 <.L0_19>
    66c2:	cc d2 05    	jmp	6c94 <.L139>

000066c5 <.L0_19>:
    66c5:	21 08       	add	8,a1

000066c7 <.LVL66>:
    66c7:	23 f0       	add	-16,a3
    66c9:	bf 10       	cmp	16,a3
    66cb:	c1 e1       	bgt	66ac <.L141>

000066cd <.L264>:
    66cd:	5b 30       	mov	(48,sp),d3
    66cf:	9e          	mov	a3,a2
    66d0:	97          	mov	a1,a3

000066d1 <.L138>:
    66d1:	5a 20       	mov	(32,sp),d2
    66d3:	6b          	mov	d2,(a3)
    66d4:	f8 3b 04    	mov	a2,(4,a3)
    66d7:	f1 59       	add	a2,d1
    66d9:	46 54       	mov	d1,(84,sp)

000066db <.LVL69>:
    66db:	40          	inc	d0
    66dc:	42 50       	mov	d0,(80,sp)
    66de:	a0 07       	cmp	7,d0
    66e0:	c3 05       	ble	66e5 <.L0_20>
    66e2:	cc 1d 07    	jmp	6dff <.L142>

000066e5 <.L0_20>:
    66e5:	23 08       	add	8,a3

000066e7 <.L137>:
    66e7:	6f          	mov	d3,(a3)
    66e8:	5d 24       	mov	(36,sp),a1
    66ea:	f8 37 04    	mov	a1,(4,a3)
    66ed:	f1 55       	add	a1,d1
    66ef:	46 54       	mov	d1,(84,sp)

000066f1 <.LVL71>:
    66f1:	40          	inc	d0
    66f2:	42 50       	mov	d0,(80,sp)
    66f4:	a0 07       	cmp	7,d0
    66f6:	c3 05       	ble	66fb <.L0_21>
    66f8:	cc be 06    	jmp	6db6 <.L143>

000066fb <.L0_21>:
    66fb:	23 08       	add	8,a3

000066fd <.L144>:
    66fd:	58 18       	mov	(24,sp),d0
    66ff:	f8 e0 04    	and	4,d0
    6702:	c8 63       	beq	6765 <.L0_24>

00006704 <.Loc.1606.1>:
    6704:	5b 2c       	mov	(44,sp),d3
    6706:	5a 28       	mov	(40,sp),d2
    6708:	f1 0b       	sub	d2,d3

0000670a <.LVL73>:
    670a:	af 00       	cmp	0,d3
    670c:	c3 59       	ble	6765 <.L0_24>
    670e:	58 50       	mov	(80,sp),d0

00006710 <.Loc.1606.1>:
    6710:	af 10       	cmp	16,d3
    6712:	c1 05       	bgt	6717 <.L0_22>
    6714:	cc 51 0a    	jmp	7165 <.L247>

00006717 <.L0_22>:
    6717:	fc dd c0 99 	mov	39360,a1
    671b:	00 00 
    671d:	47 3c       	mov	a1,(60,sp)

0000671f <.Loc.1606.1>:
    671f:	9a 10       	mov	16,a2
    6721:	3c          	mov	sp,a0
    6722:	20 4c       	add	76,a0
    6724:	f1 d2       	mov	a0,d2
    6726:	9d          	mov	a3,a1
    6727:	f1 ef       	mov	d3,a3

00006729 <.LVL74>:
    6729:	fa b7 fc 04 	mov	(1276,sp),d3

0000672d <.L151>:
    672d:	fc dc c0 99 	mov	39360,a0
    6731:	00 00 
    6733:	f0 11       	mov	a0,(a1)
    6735:	f8 39 04    	mov	a2,(4,a1)
    6738:	29 10       	add	16,d1
    673a:	46 54       	mov	d1,(84,sp)

0000673c <.LVL76>:
    673c:	40          	inc	d0
    673d:	42 50       	mov	d0,(80,sp)
    673f:	a0 07       	cmp	7,d0
    6741:	c3 05       	ble	6746 <.L0_23>
    6743:	cc a3 05    	jmp	6ce6 <.L149>

00006746 <.L0_23>:
    6746:	21 08       	add	8,a1

00006748 <.LVL77>:
    6748:	23 f0       	add	-16,a3
    674a:	bf 10       	cmp	16,a3
    674c:	c1 e1       	bgt	672d <.L151>

0000674e <.L266>:
    674e:	f1 df       	mov	a3,d3
    6750:	97          	mov	a1,a3

00006751 <.LVL79>:
    6751:	5d 3c       	mov	(60,sp),a1

00006753 <.LVL80>:
    6753:	f0 17       	mov	a1,(a3)
    6755:	f8 1f 04    	mov	d3,(4,a3)
    6758:	ed          	add	d3,d1
    6759:	46 54       	mov	d1,(84,sp)

0000675b <.LVL81>:
    675b:	40          	inc	d0
    675c:	42 50       	mov	d0,(80,sp)
    675e:	a0 07       	cmp	7,d0
    6760:	c3 05       	ble	6765 <.L0_24>
    6762:	cc 2d 08    	jmp	6f8f <.L248>

00006765 <.L0_24>:
    6765:	58 28       	mov	(40,sp),d0
    6767:	5a 2c       	mov	(44,sp),d2
    6769:	a8          	cmp	d2,d0
    676a:	c2 03       	bge	676d <.L152>
    676c:	88          	mov	d2,d0

0000676d <.L152>:
    676d:	5a 34       	mov	(52,sp),d2
    676f:	e2          	add	d0,d2
    6770:	4a 34       	mov	d2,(52,sp)

00006772 <.LVL83>:
    6772:	a5 00       	cmp	0,d1
    6774:	c8 05       	beq	6779 <.L0_25>
    6776:	cc 34 01    	jmp	68aa <.L153>

00006779 <.L0_25>:
    6779:	00          	clr	d0
    677a:	42 50       	mov	d0,(80,sp)

0000677c <.LVL84>:
    677c:	3f          	mov	sp,a3
    677d:	fa d3 e8 00 	add	232,a3

00006781 <.LVL85>:
    6781:	5d 1c       	mov	(28,sp),a1
    6783:	f0 41       	movbu	(a1),d0
    6785:	a0 00       	cmp	0,d0
    6787:	c8 05       	beq	678c <.L0_26>
    6789:	cc a2 fd    	jmp	652b <.L0_4>

0000678c <.L0_26>:
    678c:	5e 1c       	mov	(28,sp),a2
    678e:	cc d9 fd    	jmp	6567 <.L27>

00006791 <.L243>:
    6791:	56          	asl2	d2
    6792:	f1 ea       	mov	d2,a2
    6794:	fc 0a 5c 98 	mov	(39004,a2),d2
    6798:	00 00 
    679a:	f1 ea       	mov	d2,a2
    679c:	f0 f6       	jmp	(a2)

0000679e <.L242>:
    679e:	fa b2 00 05 	mov	(1280,sp),a2
    67a2:	f8 66 0e    	movhu	(14,a2),d1

000067a5 <.Loc.722.1>:
    67a5:	86          	mov	d1,d2
    67a6:	1a          	exth	d2
    67a7:	aa 00       	cmp	0,d2
    67a9:	c2 05       	bge	67ae <.L0_27>
    67ab:	cc 5e fd    	jmp	6509 <.L0_3>

000067ae <.L0_27>:
    67ae:	fc e0 fd ff 	and	-3,d0
    67b2:	ff ff 
    67b4:	f8 93 8c    	movhu	d0,(140,sp)

000067b7 <.Loc.350.1>:
    67b7:	f8 02 64    	mov	(100,a2),d0
    67ba:	42 e4       	mov	d0,(228,sp)

000067bc <.Loc.351.1>:
    67bc:	f8 97 8e    	movhu	d1,(142,sp)

000067bf <.Loc.352.1>:
    67bf:	f8 02 1c    	mov	(28,a2),d0
    67c2:	42 9c       	mov	d0,(156,sp)

000067c4 <.Loc.353.1>:
    67c4:	f8 02 24    	mov	(36,a2),d0
    67c7:	42 a4       	mov	d0,(164,sp)

000067c9 <.Loc.356.1>:
    67c9:	3c          	mov	sp,a0
    67ca:	fa d0 e8 00 	add	232,a0
    67ce:	43 80       	mov	a0,(128,sp)
    67d0:	43 90       	mov	a0,(144,sp)

000067d2 <.Loc.357.1>:
    67d2:	2c 00 04    	mov	1024,d0
    67d5:	42 88       	mov	d0,(136,sp)
    67d7:	42 94       	mov	d0,(148,sp)

000067d9 <.Loc.358.1>:
    67d9:	00          	clr	d0
    67da:	42 98       	mov	d0,(152,sp)

000067dc <.Loc.364.1>:
    67dc:	fa b1 04 05 	mov	(1284,sp),a1
    67e0:	47 0c       	mov	a1,(12,sp)
    67e2:	fa b2 08 05 	mov	(1288,sp),a2

000067e6 <.LVL90>:
    67e6:	4b 10       	mov	a2,(16,sp)
    67e8:	fa b4 fc 04 	mov	(1276,sp),d0
    67ec:	3c          	mov	sp,a0
    67ed:	2d 80 00    	mov	128,d1
    67f0:	f1 51       	add	a0,d1
    67f2:	cd ae fc 00 	call	64a0 <__vfiprintf_r>,[],0
    67f6:	00 

000067f7 <.LVL91>:
    67f7:	42 34       	mov	d0,(52,sp)

000067f9 <.LVL92>:
    67f9:	a0 00       	cmp	0,d0
    67fb:	c0 1a       	blt	6815 <.L0_28>
    67fd:	fa b4 fc 04 	mov	(1276,sp),d0

00006801 <.LVL93>:
    6801:	3d          	mov	sp,a1
    6802:	2d 80 00    	mov	128,d1
    6805:	f1 55       	add	a1,d1
    6807:	dd 13 e0 ff 	call	481a <__fflush_r>,[],0
    680b:	ff 00 00 

0000680e <.LVL94>:
    680e:	a0 00       	cmp	0,d0
    6810:	c8 05       	beq	6815 <.L0_28>
    6812:	cc 2b 09    	jmp	713d <.L250>

00006815 <.L0_28>:
    6815:	f8 bc 8c    	movhu	(140,sp),d0
    6818:	f8 e0 40    	and	64,d0
    681b:	18          	exth	d0
    681c:	a0 00       	cmp	0,d0
    681e:	c8 0f       	beq	682d <.L182>

00006820 <.Loc.368.1>:
    6820:	fa b1 00 05 	mov	(1280,sp),a1
    6824:	f8 61 0c    	movhu	(12,a1),d0
    6827:	f8 e4 40    	or	64,d0
    682a:	f8 71 0c    	movhu	d0,(12,a1)

0000682d <.L182>:
    682d:	58 34       	mov	(52,sp),d0
    682f:	fa fe e8 04 	add	1256,sp
    6833:	df f0 10    	ret	[d2,d3,a2,a3],16

00006836 <.L241>:
    6836:	f1 d4       	mov	a1,d0
    6838:	dd 0e e1 ff 	call	4946 <___sinit>,[],0
    683c:	ff 00 00 

0000683f <.LVL97>:
    683f:	cc 7f fc    	jmp	64be <.L0_0>

00006842 <.L245>:
    6842:	5e 2c       	mov	(44,sp),a2
    6844:	5c 28       	mov	(40,sp),a0
    6846:	f1 32       	sub	a0,a2

00006848 <.LVL99>:
    6848:	ba 00       	cmp	0,a2
    684a:	c1 05       	bgt	684f <.L0_29>
    684c:	cc 39 fe    	jmp	6685 <.L0_17>

0000684f <.L0_29>:
    684f:	ba 10       	cmp	16,a2
    6851:	c1 05       	bgt	6856 <.L0_30>
    6853:	cc 31 09    	jmp	7184 <.L251>

00006856 <.L0_30>:
    6856:	fc ce d0 99 	mov	39376,d2
    685a:	00 00 
    685c:	4a 20       	mov	d2,(32,sp)

0000685e <.Loc.1533.1>:
    685e:	8a 10       	mov	16,d2
    6860:	4e 38       	mov	d3,(56,sp)
    6862:	9d          	mov	a3,a1
    6863:	9b          	mov	a2,a3

00006864 <.LVL100>:
    6864:	fa b7 fc 04 	mov	(1276,sp),d3
    6868:	fa b2 00 05 	mov	(1280,sp),a2

0000686c <.L135>:
    686c:	fc dc d0 99 	mov	39376,a0
    6870:	00 00 
    6872:	f0 11       	mov	a0,(a1)
    6874:	f8 19 04    	mov	d2,(4,a1)
    6877:	29 10       	add	16,d1
    6879:	46 54       	mov	d1,(84,sp)

0000687b <.LVL102>:
    687b:	40          	inc	d0
    687c:	42 50       	mov	d0,(80,sp)
    687e:	a0 07       	cmp	7,d0
    6880:	c3 05       	ble	6885 <.L0_31>
    6882:	cc 8c 04    	jmp	6d0e <.L133>

00006885 <.L0_31>:
    6885:	21 08       	add	8,a1

00006887 <.LVL103>:
    6887:	23 f0       	add	-16,a3
    6889:	bf 10       	cmp	16,a3
    688b:	c1 e1       	bgt	686c <.L135>

0000688d <.L267>:
    688d:	5b 38       	mov	(56,sp),d3
    688f:	9e          	mov	a3,a2
    6890:	97          	mov	a1,a3

00006891 <.L132>:
    6891:	5a 20       	mov	(32,sp),d2
    6893:	6b          	mov	d2,(a3)
    6894:	f8 3b 04    	mov	a2,(4,a3)
    6897:	f1 59       	add	a2,d1
    6899:	46 54       	mov	d1,(84,sp)

0000689b <.LVL106>:
    689b:	40          	inc	d0
    689c:	42 50       	mov	d0,(80,sp)
    689e:	a0 07       	cmp	7,d0
    68a0:	c3 05       	ble	68a5 <.L0_32>
    68a2:	cc dd 07    	jmp	707f <.L136>

000068a5 <.L0_32>:
    68a5:	23 08       	add	8,a3

000068a7 <.LVL107>:
    68a7:	cc de fd    	jmp	6685 <.L0_17>

000068aa <.L153>:
    68aa:	3c          	mov	sp,a0
    68ab:	20 4c       	add	76,a0
    68ad:	43 0c       	mov	a0,(12,sp)
    68af:	fa b4 fc 04 	mov	(1276,sp),d0
    68b3:	fa b5 00 05 	mov	(1280,sp),d1
    68b7:	cd 5f fb 00 	call	6416 <___sprint_r>,[],0
    68bb:	00 

000068bc <.LVL109>:
    68bc:	a0 00       	cmp	0,d0
    68be:	c9 05       	bne	68c3 <.L0_33>
    68c0:	cc b9 fe    	jmp	6779 <.L0_25>

000068c3 <.L0_33>:
    68c3:	fa b2 00 05 	mov	(1280,sp),a2
    68c7:	f8 62 0c    	movhu	(12,a2),d0
    68ca:	f8 e0 40    	and	64,d0
    68cd:	18          	exth	d0
    68ce:	a0 00       	cmp	0,d0
    68d0:	c9 05       	bne	68d5 <.L0_34>
    68d2:	cc 5b ff    	jmp	682d <.L182>

000068d5 <.L0_34>:
    68d5:	8a ff       	mov	-1,d2
    68d7:	4a 34       	mov	d2,(52,sp)

000068d9 <.Loc.1628.1>:
    68d9:	58 34       	mov	(52,sp),d0
    68db:	fa fe e8 04 	add	1256,sp
    68df:	df f0 10    	ret	[d2,d3,a2,a3],16

000068e2 <.L19>:
    68e2:	fa b4 fc 04 	mov	(1276,sp),d0
    68e6:	fa b5 00 05 	mov	(1280,sp),d1
    68ea:	dd 46 c7 ff 	call	3030 <___swsetup_r>,[],0
    68ee:	ff 00 00 

000068f1 <.LVL113>:
    68f1:	a0 00       	cmp	0,d0
    68f3:	c9 e2       	bne	68d5 <.L0_34>
    68f5:	fa b1 00 05 	mov	(1280,sp),a1
    68f9:	f8 61 0c    	movhu	(12,a1),d0

000068fc <.Loc.722.1>:
    68fc:	81          	mov	d0,d1
    68fd:	f8 e1 1a    	and	26,d1
    6900:	a5 0a       	cmp	10,d1
    6902:	c8 05       	beq	6907 <.L0_35>
    6904:	cc 05 fc    	jmp	6509 <.L0_3>

00006907 <.L0_35>:
    6907:	cc 97 fe    	jmp	679e <.L242>

0000690a <.L40>:
    690a:	fa b4 08 05 	mov	(1288,sp),d0

0000690e <.LVL115>:
    690e:	28 04       	add	4,d0

00006910 <.LVL116>:
    6910:	fa b2 08 05 	mov	(1288,sp),a2
    6914:	f0 0a       	mov	(a2),a2
    6916:	4b 2c       	mov	a2,(44,sp)

00006918 <.LVL117>:
    6918:	ba 00       	cmp	0,a2
    691a:	c0 05       	blt	691f <.L0_36>
    691c:	cc 69 06    	jmp	6f85 <.L252>

0000691f <.L0_36>:
    691f:	5a 2c       	mov	(44,sp),d2
    6921:	f2 32       	not	d2
    6923:	48          	inc	d2
    6924:	4a 2c       	mov	d2,(44,sp)

00006926 <.LVL118>:
    6926:	fa 91 08 05 	mov	d0,(1288,sp)

0000692a <.L42>:
    692a:	5a 18       	mov	(24,sp),d2
    692c:	f8 e6 04    	or	4,d2
    692f:	4a 18       	mov	d2,(24,sp)

00006931 <.LVL120>:
    6931:	f0 40       	movbu	(a0),d0

00006933 <.LVL121>:
    6933:	41          	inc	a0

00006934 <.LVL122>:
    6934:	cc 55 fc    	jmp	6589 <.L221>

00006937 <.L60>:
    6937:	43 1c       	mov	a0,(28,sp)
    6939:	f8 96 49    	movbu	d1,(73,sp)

0000693c <.LVL124>:
    693c:	fc de 7f 95 	mov	38271,a2
    6940:	00 00 
    6942:	4b 40       	mov	a2,(64,sp)

00006944 <.L65>:
    6944:	59 18       	mov	(24,sp),d1
    6946:	f8 e1 20    	and	32,d1
    6949:	c9 05       	bne	694e <.L0_37>
    694b:	cc 5b 02    	jmp	6ba6 <.L0_55>

0000694e <.L0_37>:
    694e:	fa b0 08 05 	mov	(1288,sp),a0

00006952 <.LVL127>:
    6952:	78          	mov	(a0),d2
    6953:	f8 28 04    	mov	(4,a0),a2
    6956:	20 08       	add	8,a0

00006958 <.LVL128>:
    6958:	fa 90 08 05 	mov	a0,(1288,sp)

0000695c <.L103>:
    695c:	59 18       	mov	(24,sp),d1
    695e:	f8 e1 01    	and	1,d1
    6961:	c8 0b       	beq	696c <.L0_38>

00006963 <.Loc.1384.1>:
    6963:	f1 d9       	mov	a2,d1
    6965:	f2 19       	or	d2,d1
    6967:	c8 05       	beq	696c <.L0_38>
    6969:	cc d5 06    	jmp	703e <.L253>

0000696c <.L0_38>:
    696c:	8f 02       	mov	2,d3

0000696e <.L89>:
	...

0000696f <.LVL131>:
    696f:	f8 92 49    	movbu	d0,(73,sp)
    6972:	f8 92 20    	movbu	d0,(32,sp)

00006975 <.L83>:
    6975:	b5 00       	cmp	0,a1
    6977:	c0 0c       	blt	6983 <.L107>

00006979 <.Loc.1401.1>:
    6979:	59 18       	mov	(24,sp),d1
    697b:	fc e1 7f ff 	and	-129,d1
    697f:	ff ff 
    6981:	46 18       	mov	d1,(24,sp)

00006983 <.L107>:
    6983:	f1 d9       	mov	a2,d1
    6985:	f2 19       	or	d2,d1
    6987:	c8 05       	beq	698c <.L0_39>
    6989:	cc d3 03    	jmp	6d5c <.L108>

0000698c <.L0_39>:
    698c:	b5 00       	cmp	0,a1
    698e:	c8 05       	beq	6993 <.L0_40>
    6990:	cc cc 03    	jmp	6d5c <.L108>

00006993 <.L0_40>:
    6993:	8e          	mov	d3,d2

00006994 <.LVL134>:
    6994:	16          	extbu	d2
    6995:	aa 00       	cmp	0,d2
    6997:	c8 05       	beq	699c <.L0_41>
    6999:	cc 64 05    	jmp	6efd <.L169>

0000699c <.L0_41>:
    699c:	58 18       	mov	(24,sp),d0
    699e:	f8 e0 01    	and	1,d0
    69a1:	c9 05       	bne	69a6 <.L0_42>
    69a3:	cc 0a 06    	jmp	6fad <.L170>

000069a6 <.L0_42>:
    69a6:	80 30       	mov	48,d0
    69a8:	f8 92 7f    	movbu	d0,(127,sp)
    69ab:	8a 01       	mov	1,d2
    69ad:	4a 24       	mov	d2,(36,sp)
    69af:	3c          	mov	sp,a0
    69b0:	8f 7f       	mov	127,d3

000069b2 <.LVL136>:
    69b2:	f1 53       	add	a0,d3

000069b4 <.L114>:
    69b4:	47 30       	mov	a1,(48,sp)

000069b6 <.L98>:
    69b6:	5a 24       	mov	(36,sp),d2
    69b8:	4a 28       	mov	d2,(40,sp)
    69ba:	5c 30       	mov	(48,sp),a0
    69bc:	f1 92       	cmp	a0,d2
    69be:	c2 04       	bge	69c2 <.L118>
    69c0:	43 28       	mov	a0,(40,sp)

000069c2 <.L118>:
    69c2:	f8 b8 20    	movbu	(32,sp),d0
    69c5:	a0 00       	cmp	0,d0
    69c7:	c9 05       	bne	69cc <.L0_43>
    69c9:	cc eb fb    	jmp	65b4 <.L119>

000069cc <.L0_43>:
    69cc:	5d 28       	mov	(40,sp),a1
    69ce:	45          	inc	a1
    69cf:	47 28       	mov	a1,(40,sp)

000069d1 <.LVL140>:
    69d1:	cc e3 fb    	jmp	65b4 <.L119>

000069d4 <.L54>:
    69d4:	43 1c       	mov	a0,(28,sp)
    69d6:	f8 96 49    	movbu	d1,(73,sp)

000069d9 <.Loc.1230.1>:
    69d9:	58 18       	mov	(24,sp),d0

000069db <.LVL142>:
    69db:	f8 e0 20    	and	32,d0
    69de:	c8 05       	beq	69e3 <.L0_44>
    69e0:	cc 46 06    	jmp	7026 <.L254>

000069e3 <.L0_44>:
    69e3:	58 18       	mov	(24,sp),d0
    69e5:	f8 e0 10    	and	16,d0
    69e8:	c8 05       	beq	69ed <.L0_45>
    69ea:	cc 84 06    	jmp	706e <.L87>

000069ed <.L0_45>:
    69ed:	58 18       	mov	(24,sp),d0
    69ef:	f8 e0 40    	and	64,d0
    69f2:	c9 05       	bne	69f7 <.L0_46>
    69f4:	cc 7a 06    	jmp	706e <.L87>

000069f7 <.L0_46>:
    69f7:	fa b1 08 05 	mov	(1288,sp),a1

000069fb <.LVL144>:
    69fb:	f0 01       	mov	(a1),a0

000069fd <.LVL145>:
    69fd:	5a 34       	mov	(52,sp),d2
    69ff:	f0 78       	movhu	d2,(a0)
    6a01:	51          	inc4	a1

00006a02 <.LVL146>:
    6a02:	fa 94 08 05 	mov	a1,(1288,sp)
    6a06:	cc 1a fb    	jmp	6520 <.L222>

00006a09 <.L58>:
    6a09:	43 1c       	mov	a0,(28,sp)

00006a0b <.Loc.1275.1>:
	...

00006a0c <.LVL148>:
    6a0c:	f8 92 49    	movbu	d0,(73,sp)

00006a0f <.Loc.1276.1>:
    6a0f:	fa b6 08 05 	mov	(1288,sp),d2
    6a13:	2a 04       	add	4,d2

00006a15 <.LVL149>:
    6a15:	fa b0 08 05 	mov	(1288,sp),a0

00006a19 <.LVL150>:
    6a19:	7c          	mov	(a0),d3

00006a1a <.LVL151>:
    6a1a:	af 00       	cmp	0,d3
    6a1c:	c9 05       	bne	6a21 <.L0_47>
    6a1e:	cc f3 06    	jmp	7111 <.L255>

00006a21 <.L0_47>:
    6a21:	b5 00       	cmp	0,a1
    6a23:	c2 05       	bge	6a28 <.L0_48>
    6a25:	cc 7f 06    	jmp	70a4 <.L95>

00006a28 <.L0_48>:
    6a28:	47 0c       	mov	a1,(12,sp)
    6a2a:	8c          	mov	d3,d0
    6a2b:	04          	clr	d1
    6a2c:	47 14       	mov	a1,(20,sp)
    6a2e:	dd 25 ed ff 	call	5753 <_memchr>,[],0
    6a32:	ff 00 00 

00006a35 <.LVL152>:
    6a35:	5d 14       	mov	(20,sp),a1
    6a37:	b0 00       	cmp	0,a0
    6a39:	c9 05       	bne	6a3e <.L0_49>
    6a3b:	cc 54 07    	jmp	718f <.L96>

00006a3e <.L0_49>:
    6a3e:	f1 2c       	sub	d3,a0

00006a40 <.LVL153>:
    6a40:	43 24       	mov	a0,(36,sp)

00006a42 <.LVL154>:
    6a42:	f8 b8 49    	movbu	(73,sp),d0
    6a45:	f8 92 20    	movbu	d0,(32,sp)

00006a48 <.Loc.1361.1>:
    6a48:	b4          	cmp	a1,a0
    6a49:	c1 05       	bgt	6a4e <.L0_50>
    6a4b:	cc 69 06    	jmp	70b4 <.L237>

00006a4e <.L0_50>:
    6a4e:	47 24       	mov	a1,(36,sp)

00006a50 <.Loc.1276.1>:
    6a50:	fa 99 08 05 	mov	d2,(1288,sp)

00006a54 <.Loc.790.1>:
    6a54:	08          	clr	d2

00006a55 <.LVL155>:
    6a55:	4a 30       	mov	d2,(48,sp)
    6a57:	cc 5f ff    	jmp	69b6 <.L98>

00006a5a <.L57>:
    6a5a:	5a 18       	mov	(24,sp),d2
    6a5c:	f8 e6 20    	or	32,d2
    6a5f:	4a 18       	mov	d2,(24,sp)

00006a61 <.LVL157>:
    6a61:	f0 40       	movbu	(a0),d0

00006a63 <.Loc.805.1>:
    6a63:	41          	inc	a0

00006a64 <.LVL159>:
    6a64:	cc 25 fb    	jmp	6589 <.L221>

00006a67 <.L56>:
    6a67:	43 1c       	mov	a0,(28,sp)

00006a69 <.LVL161>:
    6a69:	fa b2 08 05 	mov	(1288,sp),a2
    6a6d:	7a          	mov	(a2),d2
    6a6e:	9a 00       	mov	0,a2

00006a70 <.LVL162>:
    6a70:	58 18       	mov	(24,sp),d0

00006a72 <.LVL163>:
    6a72:	f8 e4 02    	or	2,d0
    6a75:	42 18       	mov	d0,(24,sp)

00006a77 <.LVL164>:
    6a77:	80 30       	mov	48,d0

00006a79 <.LVL165>:
    6a79:	f8 92 4a    	movbu	d0,(74,sp)

00006a7c <.LVL166>:
    6a7c:	80 78       	mov	120,d0
    6a7e:	f8 92 4b    	movbu	d0,(75,sp)

00006a81 <.Loc.1264.1>:
    6a81:	fa b0 08 05 	mov	(1288,sp),a0

00006a85 <.LVL167>:
    6a85:	50          	inc4	a0

00006a86 <.LVL168>:
    6a86:	fa 90 08 05 	mov	a0,(1288,sp)

00006a8a <.Loc.1266.1>:
    6a8a:	fc cc 7f 95 	mov	38271,d0
    6a8e:	00 00 
    6a90:	42 40       	mov	d0,(64,sp)

00006a92 <.Loc.1265.1>:
    6a92:	8f 02       	mov	2,d3

00006a94 <.LVL169>:
	...

00006a95 <.LVL170>:
    6a95:	f8 92 49    	movbu	d0,(73,sp)
    6a98:	f8 92 20    	movbu	d0,(32,sp)
    6a9b:	cc da fe    	jmp	6975 <.L83>

00006a9e <.L39>:
    6a9e:	5a 18       	mov	(24,sp),d2
    6aa0:	f8 e6 01    	or	1,d2
    6aa3:	4a 18       	mov	d2,(24,sp)

00006aa5 <.LVL172>:
    6aa5:	f0 40       	movbu	(a0),d0

00006aa7 <.Loc.805.1>:
    6aa7:	41          	inc	a0

00006aa8 <.LVL174>:
    6aa8:	cc e1 fa    	jmp	6589 <.L221>

00006aab <.L38>:
    6aab:	84          	mov	d1,d0

00006aac <.LVL176>:
    6aac:	14          	extbu	d0
    6aad:	a0 00       	cmp	0,d0
    6aaf:	c8 05       	beq	6ab4 <.L0_51>
    6ab1:	cc a8 05    	jmp	7059 <.L66>

00006ab4 <.L0_51>:
    6ab4:	85 20       	mov	32,d1
    6ab6:	f0 40       	movbu	(a0),d0

00006ab8 <.LVL177>:
    6ab8:	41          	inc	a0

00006ab9 <.LVL178>:
    6ab9:	cc d0 fa    	jmp	6589 <.L221>

00006abc <.L47>:
    6abc:	43 1c       	mov	a0,(28,sp)

00006abe <.Loc.1246.1>:
    6abe:	5a 18       	mov	(24,sp),d2
    6ac0:	f8 e6 10    	or	16,d2
    6ac3:	4a 18       	mov	d2,(24,sp)

00006ac5 <.L63>:
    6ac5:	58 18       	mov	(24,sp),d0

00006ac7 <.LVL181>:
    6ac7:	f8 e0 20    	and	32,d0
    6aca:	c9 05       	bne	6acf <.L0_52>
    6acc:	cc 70 04    	jmp	6f3c <.L88>

00006acf <.L0_52>:
    6acf:	fa b0 08 05 	mov	(1288,sp),a0

00006ad3 <.LVL183>:
    6ad3:	78          	mov	(a0),d2
    6ad4:	f8 28 04    	mov	(4,a0),a2
    6ad7:	20 08       	add	8,a0

00006ad9 <.LVL184>:
    6ad9:	fa 90 08 05 	mov	a0,(1288,sp)

00006add <.Loc.1250.1>:
    6add:	0c          	clr	d3

00006ade <.LVL185>:
    6ade:	00          	clr	d0
    6adf:	f8 92 49    	movbu	d0,(73,sp)
    6ae2:	f8 92 20    	movbu	d0,(32,sp)
    6ae5:	cc 90 fe    	jmp	6975 <.L83>

00006ae8 <.L46>:
    6ae8:	43 1c       	mov	a0,(28,sp)
    6aea:	f8 96 49    	movbu	d1,(73,sp)

00006aed <.Loc.1042.1>:
    6aed:	5a 18       	mov	(24,sp),d2
    6aef:	f8 e6 10    	or	16,d2
    6af2:	4a 18       	mov	d2,(24,sp)

00006af4 <.LVL187>:
    6af4:	58 18       	mov	(24,sp),d0

00006af6 <.LVL188>:
    6af6:	f8 e0 20    	and	32,d0
    6af9:	c8 2d       	beq	6b26 <.L77>

00006afb <.L256>:
    6afb:	fa b0 08 05 	mov	(1288,sp),a0

00006aff <.LVL190>:
    6aff:	f8 00 04    	mov	(4,a0),d0
    6b02:	78          	mov	(a0),d2
    6b03:	f1 e2       	mov	d0,a2
    6b05:	20 08       	add	8,a0

00006b07 <.LVL191>:
    6b07:	fa 90 08 05 	mov	a0,(1288,sp)

00006b0b <.LVL192>:
    6b0b:	a0 00       	cmp	0,d0
    6b0d:	c0 47       	blt	6b54 <.L81>

00006b0f <.L258>:
    6b0f:	f8 b8 49    	movbu	(73,sp),d0
    6b12:	f8 92 20    	movbu	d0,(32,sp)

00006b15 <.Loc.1057.1>:
    6b15:	8f 01       	mov	1,d3
    6b17:	cc 5e fe    	jmp	6975 <.L83>

00006b1a <.L51>:
    6b1a:	43 1c       	mov	a0,(28,sp)
    6b1c:	f8 96 49    	movbu	d1,(73,sp)

00006b1f <.Loc.1046.1>:
    6b1f:	58 18       	mov	(24,sp),d0

00006b21 <.LVL195>:
    6b21:	f8 e0 20    	and	32,d0
    6b24:	c9 d7       	bne	6afb <.L256>

00006b26 <.L77>:
    6b26:	58 18       	mov	(24,sp),d0
    6b28:	f8 e0 10    	and	16,d0
    6b2b:	c8 05       	beq	6b30 <.L0_53>
    6b2d:	cc dd 04    	jmp	700a <.L257>

00006b30 <.L0_53>:
    6b30:	58 18       	mov	(24,sp),d0
    6b32:	fa b2 08 05 	mov	(1288,sp),a2
    6b36:	f8 e0 40    	and	64,d0
    6b39:	c9 05       	bne	6b3e <.L0_54>
    6b3b:	cc d3 04    	jmp	700e <.L80>

00006b3e <.L0_54>:
    6b3e:	72          	mov	(a2),d0
    6b3f:	82          	mov	d0,d2
    6b40:	1a          	exth	d2
    6b41:	88          	mov	d2,d0
    6b42:	f8 c8 1f    	asr	31,d0
    6b45:	f1 e2       	mov	d0,a2

00006b47 <.LVL197>:
    6b47:	fa b0 08 05 	mov	(1288,sp),a0

00006b4b <.LVL198>:
    6b4b:	50          	inc4	a0

00006b4c <.LVL199>:
    6b4c:	fa 90 08 05 	mov	a0,(1288,sp)

00006b50 <.L272>:
    6b50:	a0 00       	cmp	0,d0
    6b52:	c2 bd       	bge	6b0f <.L258>

00006b54 <.L81>:
    6b54:	00          	clr	d0
    6b55:	f1 e0       	mov	d0,a0
    6b57:	f1 d9       	mov	a2,d1
    6b59:	f1 28       	sub	d2,a0
    6b5b:	f1 84       	subc	d1,d0
    6b5d:	f1 e2       	mov	d0,a2
    6b5f:	f1 d2       	mov	a0,d2

00006b61 <.LVL202>:
    6b61:	80 2d       	mov	45,d0

00006b63 <.LVL203>:
    6b63:	f8 92 49    	movbu	d0,(73,sp)
    6b66:	f8 92 20    	movbu	d0,(32,sp)

00006b69 <.Loc.1057.1>:
    6b69:	8f 01       	mov	1,d3
    6b6b:	cc 0a fe    	jmp	6975 <.L83>

00006b6e <.L50>:
    6b6e:	43 1c       	mov	a0,(28,sp)

00006b70 <.LVL205>:
    6b70:	fa b0 08 05 	mov	(1288,sp),a0

00006b74 <.LVL206>:
    6b74:	70          	mov	(a0),d0

00006b75 <.LVL207>:
    6b75:	f8 92 58    	movbu	d0,(88,sp)

00006b78 <.LVL208>:
    6b78:	00          	clr	d0
    6b79:	f8 92 49    	movbu	d0,(73,sp)

00006b7c <.Loc.1036.1>:
    6b7c:	50          	inc4	a0

00006b7d <.LVL209>:
    6b7d:	fa 90 08 05 	mov	a0,(1288,sp)

00006b81 <.Loc.1497.1>:
    6b81:	95 01       	mov	1,a1

00006b83 <.LVL210>:
    6b83:	47 28       	mov	a1,(40,sp)

00006b85 <.Loc.1495.1>:
    6b85:	47 24       	mov	a1,(36,sp)

00006b87 <.Loc.1493.1>:
    6b87:	3e          	mov	sp,a2
    6b88:	22 58       	add	88,a2
    6b8a:	f1 db       	mov	a2,d3
    6b8c:	cc 25 fa    	jmp	65b1 <.L76>

00006b8f <.L49>:
    6b8f:	43 1c       	mov	a0,(28,sp)
    6b91:	f8 96 49    	movbu	d1,(73,sp)

00006b94 <.Loc.1377.1>:
    6b94:	fc ce 6e 95 	mov	38254,d2
    6b98:	00 00 
    6b9a:	4a 40       	mov	d2,(64,sp)

00006b9c <.LVL212>:
    6b9c:	59 18       	mov	(24,sp),d1
    6b9e:	f8 e1 20    	and	32,d1
    6ba1:	c8 05       	beq	6ba6 <.L0_55>
    6ba3:	cc ab fd    	jmp	694e <.L0_37>

00006ba6 <.L0_55>:
    6ba6:	5b 18       	mov	(24,sp),d3
    6ba8:	f8 e3 10    	and	16,d3
    6bab:	c8 05       	beq	6bb0 <.L0_56>
    6bad:	cc 0e 04    	jmp	6fbb <.L260>

00006bb0 <.L0_56>:
    6bb0:	59 18       	mov	(24,sp),d1
    6bb2:	fa b2 08 05 	mov	(1288,sp),a2
    6bb6:	f8 e1 40    	and	64,d1
    6bb9:	c9 05       	bne	6bbe <.L0_57>
    6bbb:	cc 04 04    	jmp	6fbf <.L105>

00006bbe <.L0_57>:
    6bbe:	f0 6a       	movhu	(a2),d2
    6bc0:	f1 ee       	mov	d3,a2

00006bc2 <.LVL215>:
    6bc2:	fa b0 08 05 	mov	(1288,sp),a0

00006bc6 <.LVL216>:
    6bc6:	50          	inc4	a0

00006bc7 <.LVL217>:
    6bc7:	fa 90 08 05 	mov	a0,(1288,sp)
    6bcb:	cc 91 fd    	jmp	695c <.L103>

00006bce <.L48>:
    6bce:	43 1c       	mov	a0,(28,sp)

00006bd0 <.Loc.1370.1>:
    6bd0:	5a 18       	mov	(24,sp),d2
    6bd2:	f8 e6 10    	or	16,d2
    6bd5:	4a 18       	mov	d2,(24,sp)

00006bd7 <.L62>:
    6bd7:	58 18       	mov	(24,sp),d0

00006bd9 <.LVL220>:
    6bd9:	f8 e0 20    	and	32,d0
    6bdc:	c9 05       	bne	6be1 <.L0_58>
    6bde:	cc 2d 03    	jmp	6f0b <.L99>

00006be1 <.L0_58>:
    6be1:	fa b0 08 05 	mov	(1288,sp),a0

00006be5 <.LVL222>:
    6be5:	78          	mov	(a0),d2
    6be6:	f8 28 04    	mov	(4,a0),a2
    6be9:	20 08       	add	8,a0

00006beb <.LVL223>:
    6beb:	fa 90 08 05 	mov	a0,(1288,sp)

00006bef <.Loc.1374.1>:
    6bef:	8f 01       	mov	1,d3

00006bf1 <.LVL224>:
    6bf1:	00          	clr	d0
    6bf2:	f8 92 49    	movbu	d0,(73,sp)
    6bf5:	f8 92 20    	movbu	d0,(32,sp)
    6bf8:	cc 7d fd    	jmp	6975 <.L83>

00006bfb <.L53>:
    6bfb:	92          	mov	a0,a2

00006bfc <.Loc.969.1>:
    6bfc:	f0 40       	movbu	(a0),d0

00006bfe <.LVL226>:
    6bfe:	a0 6c       	cmp	108,d0
    6c00:	c9 05       	bne	6c05 <.L0_59>
    6c02:	cc 5d 04    	jmp	705f <.L261>

00006c05 <.L0_59>:
    6c05:	5a 18       	mov	(24,sp),d2
    6c07:	f8 e6 10    	or	16,d2
    6c0a:	4a 18       	mov	d2,(24,sp)

00006c0c <.LVL227>:
    6c0c:	41          	inc	a0

00006c0d <.LVL228>:
    6c0d:	cc 7c f9    	jmp	6589 <.L221>

00006c10 <.L52>:
    6c10:	5a 18       	mov	(24,sp),d2
    6c12:	f8 e6 40    	or	64,d2
    6c15:	4a 18       	mov	d2,(24,sp)

00006c17 <.LVL230>:
    6c17:	f0 40       	movbu	(a0),d0

00006c19 <.Loc.805.1>:
    6c19:	41          	inc	a0

00006c1a <.LVL232>:
    6c1a:	cc 6f f9    	jmp	6589 <.L221>

00006c1d <.L41>:
    6c1d:	85 2b       	mov	43,d1
    6c1f:	f0 40       	movbu	(a0),d0

00006c21 <.Loc.805.1>:
    6c21:	41          	inc	a0

00006c22 <.LVL235>:
    6c22:	cc 67 f9    	jmp	6589 <.L221>

00006c25 <.L43>:
    6c25:	f0 40       	movbu	(a0),d0
    6c27:	92          	mov	a0,a2
    6c28:	49          	inc	a2

00006c29 <.LVL238>:
    6c29:	a0 2a       	cmp	42,d0
    6c2b:	c9 05       	bne	6c30 <.L0_60>
    6c2d:	cc 73 05    	jmp	71a0 <.L69>

00006c30 <.L0_60>:
    6c30:	f1 e0       	mov	d0,a0
    6c32:	20 d0       	add	-48,a0
    6c34:	08          	clr	d2
    6c35:	b0 09       	cmp	9,a0
    6c37:	c7 05       	bls	6c3c <.L0_61>
    6c39:	cc f4 04    	jmp	712d <.L262>

00006c3c <.L0_61>:
    6c3c:	88          	mov	d2,d0

00006c3d <.LVL241>:
    6c3d:	e0          	add	d0,d0
    6c3e:	56          	asl2	d2
    6c3f:	ea          	add	d2,d2
    6c40:	e2          	add	d0,d2
    6c41:	f1 52       	add	a0,d2

00006c43 <.LVL242>:
    6c43:	f0 42       	movbu	(a2),d0

00006c45 <.LVL243>:
    6c45:	49          	inc	a2

00006c46 <.Loc.919.1>:
    6c46:	f1 e0       	mov	d0,a0
    6c48:	20 d0       	add	-48,a0
    6c4a:	b0 09       	cmp	9,a0
    6c4c:	c7 f0       	bls	6c3c <.L0_61>
    6c4e:	f1 e9       	mov	d2,a1

00006c50 <.LVL245>:
    6c50:	aa 00       	cmp	0,d2
    6c52:	c2 05       	bge	6c57 <.L0_62>
    6c54:	cc b3 04    	jmp	7107 <.L263>

00006c57 <.L0_62>:
    6c57:	98          	mov	a2,a0

00006c58 <.L273>:
    6c58:	82          	mov	d0,d2

00006c59 <.LVL247>:
    6c59:	2a e0       	add	-32,d2
    6c5b:	aa 58       	cmp	88,d2
    6c5d:	c7 05       	bls	6c62 <.L0_63>
    6c5f:	cc 34 f9    	jmp	6593 <.L0_8>

00006c62 <.L0_63>:
    6c62:	cc 2f fb    	jmp	6791 <.L243>

00006c65 <.L162>:
    6c65:	0c          	clr	d3

00006c66 <.L45>:
    6c66:	8e          	mov	d3,d2
    6c67:	ea          	add	d2,d2
    6c68:	57          	asl2	d3
    6c69:	ef          	add	d3,d3

00006c6a <.LVL250>:
    6c6a:	eb          	add	d2,d3
    6c6b:	28 d0       	add	-48,d0

00006c6d <.LVL251>:
    6c6d:	e3          	add	d0,d3

00006c6e <.LVL252>:
    6c6e:	f0 40       	movbu	(a0),d0

00006c70 <.LVL253>:
    6c70:	41          	inc	a0

00006c71 <.Loc.939.1>:
    6c71:	82          	mov	d0,d2
    6c72:	2a d0       	add	-48,d2
    6c74:	aa 09       	cmp	9,d2
    6c76:	c7 f0       	bls	6c66 <.L45>

00006c78 <.Loc.937.1>:
    6c78:	4e 2c       	mov	d3,(44,sp)

00006c7a <.LVL255>:
    6c7a:	82          	mov	d0,d2
    6c7b:	2a e0       	add	-32,d2
    6c7d:	aa 58       	cmp	88,d2
    6c7f:	c7 05       	bls	6c84 <.L0_64>
    6c81:	cc 12 f9    	jmp	6593 <.L0_8>

00006c84 <.L0_64>:
    6c84:	cc 0d fb    	jmp	6791 <.L243>

00006c87 <.L44>:
    6c87:	5a 18       	mov	(24,sp),d2
    6c89:	f8 e6 80    	or	128,d2
    6c8c:	4a 18       	mov	d2,(24,sp)

00006c8e <.LVL257>:
    6c8e:	f0 40       	movbu	(a0),d0

00006c90 <.Loc.805.1>:
    6c90:	41          	inc	a0

00006c91 <.LVL259>:
    6c91:	cc f8 f8    	jmp	6589 <.L221>

00006c94 <.L139>:
    6c94:	3d          	mov	sp,a1

00006c95 <.LVL261>:
    6c95:	21 4c       	add	76,a1
    6c97:	47 0c       	mov	a1,(12,sp)
    6c99:	8c          	mov	d3,d0
    6c9a:	f1 d9       	mov	a2,d1
    6c9c:	cd 7a f7 00 	call	6416 <___sprint_r>,[],0
    6ca0:	00 

00006ca1 <.LVL262>:
    6ca1:	a0 00       	cmp	0,d0
    6ca3:	c8 05       	beq	6ca8 <.L0_65>
    6ca5:	cc 1e fc    	jmp	68c3 <.L0_33>

00006ca8 <.L0_65>:
    6ca8:	3d          	mov	sp,a1
    6ca9:	fa d1 e8 00 	add	232,a1
    6cad:	59 54       	mov	(84,sp),d1
    6caf:	58 50       	mov	(80,sp),d0

00006cb1 <.LVL263>:
    6cb1:	23 f0       	add	-16,a3
    6cb3:	bf 10       	cmp	16,a3
    6cb5:	c3 05       	ble	6cba <.L0_66>
    6cb7:	cc f5 f9    	jmp	66ac <.L141>

00006cba <.L0_66>:
    6cba:	cc 13 fa    	jmp	66cd <.L264>

00006cbd <.L123>:
    6cbd:	3d          	mov	sp,a1

00006cbe <.LVL266>:
    6cbe:	21 4c       	add	76,a1
    6cc0:	47 0c       	mov	a1,(12,sp)
    6cc2:	8c          	mov	d3,d0
    6cc3:	f1 d9       	mov	a2,d1
    6cc5:	cd 51 f7 00 	call	6416 <___sprint_r>,[],0
    6cc9:	00 

00006cca <.LVL267>:
    6cca:	a0 00       	cmp	0,d0
    6ccc:	c8 05       	beq	6cd1 <.L0_67>
    6cce:	cc f5 fb    	jmp	68c3 <.L0_33>

00006cd1 <.L0_67>:
    6cd1:	3d          	mov	sp,a1
    6cd2:	fa d1 e8 00 	add	232,a1
    6cd6:	59 54       	mov	(84,sp),d1
    6cd8:	58 50       	mov	(80,sp),d0

00006cda <.LVL268>:
    6cda:	23 f0       	add	-16,a3
    6cdc:	bf 10       	cmp	16,a3
    6cde:	c3 05       	ble	6ce3 <.L0_68>
    6ce0:	cc 1d f9    	jmp	65fd <.L125>

00006ce3 <.L0_68>:
    6ce3:	cc 3b f9    	jmp	661e <.L265>

00006ce6 <.L149>:
    6ce6:	4a 0c       	mov	d2,(12,sp)
    6ce8:	8c          	mov	d3,d0
    6ce9:	fa b5 00 05 	mov	(1280,sp),d1
    6ced:	cd 29 f7 00 	call	6416 <___sprint_r>,[],0
    6cf1:	00 

00006cf2 <.LVL271>:
    6cf2:	a0 00       	cmp	0,d0
    6cf4:	c8 05       	beq	6cf9 <.L0_69>
    6cf6:	cc cd fb    	jmp	68c3 <.L0_33>

00006cf9 <.L0_69>:
    6cf9:	3d          	mov	sp,a1
    6cfa:	fa d1 e8 00 	add	232,a1
    6cfe:	59 54       	mov	(84,sp),d1
    6d00:	58 50       	mov	(80,sp),d0

00006d02 <.LVL272>:
    6d02:	23 f0       	add	-16,a3
    6d04:	bf 10       	cmp	16,a3
    6d06:	c3 05       	ble	6d0b <.L0_70>
    6d08:	cc 25 fa    	jmp	672d <.L151>

00006d0b <.L0_70>:
    6d0b:	cc 43 fa    	jmp	674e <.L266>

00006d0e <.L133>:
    6d0e:	3d          	mov	sp,a1

00006d0f <.LVL275>:
    6d0f:	21 4c       	add	76,a1
    6d11:	47 0c       	mov	a1,(12,sp)
    6d13:	8c          	mov	d3,d0
    6d14:	f1 d9       	mov	a2,d1
    6d16:	cd 00 f7 00 	call	6416 <___sprint_r>,[],0
    6d1a:	00 

00006d1b <.LVL276>:
    6d1b:	a0 00       	cmp	0,d0
    6d1d:	c8 05       	beq	6d22 <.L0_71>
    6d1f:	cc a4 fb    	jmp	68c3 <.L0_33>

00006d22 <.L0_71>:
    6d22:	3d          	mov	sp,a1
    6d23:	fa d1 e8 00 	add	232,a1
    6d27:	59 54       	mov	(84,sp),d1
    6d29:	58 50       	mov	(80,sp),d0

00006d2b <.LVL277>:
    6d2b:	23 f0       	add	-16,a3
    6d2d:	bf 10       	cmp	16,a3
    6d2f:	c3 05       	ble	6d34 <.L0_72>
    6d31:	cc 3b fb    	jmp	686c <.L135>

00006d34 <.L0_72>:
    6d34:	cc 59 fb    	jmp	688d <.L267>

00006d37 <.L126>:
    6d37:	3c          	mov	sp,a0
    6d38:	20 4c       	add	76,a0
    6d3a:	43 0c       	mov	a0,(12,sp)
    6d3c:	fa b4 fc 04 	mov	(1276,sp),d0
    6d40:	fa b5 00 05 	mov	(1280,sp),d1
    6d44:	cd d2 f6 00 	call	6416 <___sprint_r>,[],0
    6d48:	00 

00006d49 <.LVL280>:
    6d49:	a0 00       	cmp	0,d0
    6d4b:	c8 05       	beq	6d50 <.L0_73>
    6d4d:	cc 76 fb    	jmp	68c3 <.L0_33>

00006d50 <.L0_73>:
    6d50:	3f          	mov	sp,a3

00006d51 <.LVL281>:
    6d51:	fa d3 e8 00 	add	232,a3

00006d55 <.L238>:
    6d55:	59 54       	mov	(84,sp),d1
    6d57:	58 50       	mov	(80,sp),d0
    6d59:	cc df f8    	jmp	6638 <.L121>

00006d5c <.L108>:
    6d5c:	8c          	mov	d3,d0
    6d5d:	14          	extbu	d0
    6d5e:	a0 01       	cmp	1,d0
    6d60:	c9 05       	bne	6d65 <.L0_74>
    6d62:	cc c2 00    	jmp	6e24 <.L111>

00006d65 <.L0_74>:
    6d65:	3c          	mov	sp,a0
    6d66:	fa d0 80 00 	add	128,a0

00006d6a <.Loc.1415.1>:
    6d6a:	a0 02       	cmp	2,d0
    6d6c:	c9 05       	bne	6d71 <.L0_75>
    6d6e:	cc 07 01    	jmp	6e75 <.L166>

00006d71 <.L0_75>:
    6d71:	f1 d9       	mov	a2,d1

00006d73 <.L110>:
    6d73:	20 ff       	add	-1,a0
    6d75:	88          	mov	d2,d0
    6d76:	f8 e0 07    	and	7,d0
    6d79:	28 30       	add	48,d0
    6d7b:	83          	mov	d0,d3
    6d7c:	f0 50       	movbu	d0,(a0)

00006d7e <.Loc.1419.1>:
    6d7e:	84          	mov	d1,d0
    6d7f:	f8 c0 1d    	asl	29,d0
    6d82:	f8 c6 03    	lsr	3,d2

00006d85 <.LVL286>:
    6d85:	f2 12       	or	d0,d2
    6d87:	f8 c5 03    	lsr	3,d1

00006d8a <.LVL287>:
    6d8a:	88          	mov	d2,d0
    6d8b:	f2 14       	or	d1,d0
    6d8d:	c9 e6       	bne	6d73 <.L110>
    6d8f:	8d          	mov	d3,d1

00006d90 <.LVL288>:
    6d90:	f1 d3       	mov	a0,d3

00006d92 <.Loc.1422.1>:
    6d92:	58 18       	mov	(24,sp),d0
    6d94:	f8 e0 01    	and	1,d0
    6d97:	c8 11       	beq	6da8 <.L236>

00006d99 <.Loc.1422.1>:
    6d99:	15          	extbu	d1
    6d9a:	a5 30       	cmp	48,d1
    6d9c:	c9 05       	bne	6da1 <.L0_76>
    6d9e:	cc 5b 03    	jmp	70f9 <.L268>

00006da1 <.L0_76>:
    6da1:	2b ff       	add	-1,d3

00006da3 <.LVL289>:
    6da3:	80 30       	mov	48,d0
    6da5:	f8 50 ff    	movbu	d0,(-1,a0)

00006da8 <.L236>:
    6da8:	3e          	mov	sp,a2
    6da9:	fa d2 80 00 	add	128,a2
    6dad:	f1 2e       	sub	d3,a2
    6daf:	4b 24       	mov	a2,(36,sp)

00006db1 <.LBB20>:
    6db1:	47 30       	mov	a1,(48,sp)
    6db3:	cc 03 fc    	jmp	69b6 <.L98>

00006db6 <.L143>:
    6db6:	3e          	mov	sp,a2

00006db7 <.LVL292>:
    6db7:	22 4c       	add	76,a2
    6db9:	4b 0c       	mov	a2,(12,sp)
    6dbb:	fa b4 fc 04 	mov	(1276,sp),d0
    6dbf:	fa b5 00 05 	mov	(1280,sp),d1
    6dc3:	cd 53 f6 00 	call	6416 <___sprint_r>,[],0
    6dc7:	00 

00006dc8 <.LVL293>:
    6dc8:	a0 00       	cmp	0,d0
    6dca:	c8 05       	beq	6dcf <.L0_77>
    6dcc:	cc f7 fa    	jmp	68c3 <.L0_33>

00006dcf <.L0_77>:
    6dcf:	3f          	mov	sp,a3

00006dd0 <.LVL294>:
    6dd0:	fa d3 e8 00 	add	232,a3
    6dd4:	59 54       	mov	(84,sp),d1
    6dd6:	cc 27 f9    	jmp	66fd <.L144>

00006dd9 <.L31>:
    6dd9:	3c          	mov	sp,a0
    6dda:	20 4c       	add	76,a0
    6ddc:	43 0c       	mov	a0,(12,sp)
    6dde:	fa b4 fc 04 	mov	(1276,sp),d0
    6de2:	fa b5 00 05 	mov	(1280,sp),d1
    6de6:	cd 30 f6 00 	call	6416 <___sprint_r>,[],0
    6dea:	00 

00006deb <.LVL296>:
    6deb:	a0 00       	cmp	0,d0
    6ded:	c8 05       	beq	6df2 <.L0_78>
    6def:	cc d4 fa    	jmp	68c3 <.L0_33>

00006df2 <.L0_78>:
    6df2:	3f          	mov	sp,a3

00006df3 <.LVL297>:
    6df3:	fa d3 e8 00 	add	232,a3

00006df7 <.LVL298>:
    6df7:	58 34       	mov	(52,sp),d0
    6df9:	e8          	add	d2,d0
    6dfa:	42 34       	mov	d0,(52,sp)

00006dfc <.LVL299>:
    6dfc:	cc 6b f7    	jmp	6567 <.L27>

00006dff <.L142>:
    6dff:	3c          	mov	sp,a0
    6e00:	20 4c       	add	76,a0
    6e02:	43 0c       	mov	a0,(12,sp)
    6e04:	fa b4 fc 04 	mov	(1276,sp),d0
    6e08:	fa b5 00 05 	mov	(1280,sp),d1
    6e0c:	cd 0a f6 00 	call	6416 <___sprint_r>,[],0
    6e10:	00 

00006e11 <.LVL301>:
    6e11:	a0 00       	cmp	0,d0
    6e13:	c8 05       	beq	6e18 <.L0_79>
    6e15:	cc ae fa    	jmp	68c3 <.L0_33>

00006e18 <.L0_79>:
    6e18:	3f          	mov	sp,a3

00006e19 <.LVL302>:
    6e19:	fa d3 e8 00 	add	232,a3
    6e1d:	59 54       	mov	(84,sp),d1
    6e1f:	58 50       	mov	(80,sp),d0
    6e21:	cc c6 f8    	jmp	66e7 <.L137>

00006e24 <.L111>:
    6e24:	ba 00       	cmp	0,a2
    6e26:	c9 05       	bne	6e2b <.L0_80>
    6e28:	cc 44 01    	jmp	6f6c <.L269>

00006e2b <.L0_80>:
    6e2b:	3c          	mov	sp,a0
    6e2c:	fa d0 80 00 	add	128,a0

00006e30 <.Loc.1436.1>:
    6e30:	47 24       	mov	a1,(36,sp)
    6e32:	f1 d8       	mov	a2,d0
    6e34:	92          	mov	a0,a2

00006e35 <.LVL304>:
    6e35:	83          	mov	d0,d3

00006e36 <.L116>:
    6e36:	22 ff       	add	-1,a2
    6e38:	95 0a       	mov	10,a1
    6e3a:	47 0c       	mov	a1,(12,sp)
    6e3c:	00          	clr	d0
    6e3d:	42 10       	mov	d0,(16,sp)
    6e3f:	88          	mov	d2,d0
    6e40:	8d          	mov	d3,d1
    6e41:	dd e9 15 00 	call	842a <___umoddi3>,[],0
    6e45:	00 00 00 
    6e48:	28 30       	add	48,d0
    6e4a:	f0 52       	movbu	d0,(a2)

00006e4c <.Loc.1457.1>:
    6e4c:	85 0a       	mov	10,d1
    6e4e:	46 0c       	mov	d1,(12,sp)
    6e50:	90 00       	mov	0,a0
    6e52:	43 10       	mov	a0,(16,sp)
    6e54:	88          	mov	d2,d0
    6e55:	8d          	mov	d3,d1
    6e56:	dd d3 14 00 	call	8329 <___udivdi3>,[],0
    6e5a:	00 00 00 
    6e5d:	82          	mov	d0,d2

00006e5e <.LVL309>:
    6e5e:	87          	mov	d1,d3

00006e5f <.LVL310>:
    6e5f:	f2 14       	or	d1,d0

00006e61 <.LVL311>:
    6e61:	c9 d5       	bne	6e36 <.L116>
    6e63:	f1 db       	mov	a2,d3
    6e65:	5d 24       	mov	(36,sp),a1

00006e67 <.Loc.1408.1>:
    6e67:	3e          	mov	sp,a2

00006e68 <.LVL312>:
    6e68:	fa d2 80 00 	add	128,a2
    6e6c:	f1 2e       	sub	d3,a2
    6e6e:	4b 24       	mov	a2,(36,sp)

00006e70 <.LBB21>:
    6e70:	47 30       	mov	a1,(48,sp)
    6e72:	cc 44 fb    	jmp	69b6 <.L98>

00006e75 <.L166>:
    6e75:	5b 40       	mov	(64,sp),d3

00006e77 <.LVL315>:
    6e77:	f1 d8       	mov	a2,d0

00006e79 <.L112>:
    6e79:	20 ff       	add	-1,a0
    6e7b:	89          	mov	d2,d1
    6e7c:	f8 e1 0f    	and	15,d1
    6e7f:	f1 e6       	mov	d1,a2
    6e81:	f1 6e       	add	d3,a2
    6e83:	f0 46       	movbu	(a2),d1
    6e85:	f0 54       	movbu	d1,(a0)

00006e87 <.Loc.1464.1>:
    6e87:	81          	mov	d0,d1
    6e88:	f8 c1 1c    	asl	28,d1
    6e8b:	f8 c6 04    	lsr	4,d2

00006e8e <.LVL318>:
    6e8e:	f2 16       	or	d1,d2
    6e90:	f8 c4 04    	lsr	4,d0

00006e93 <.LVL319>:
    6e93:	89          	mov	d2,d1
    6e94:	f2 11       	or	d0,d1
    6e96:	c9 e3       	bne	6e79 <.L112>
    6e98:	f1 d3       	mov	a0,d3

00006e9a <.Loc.1408.1>:
    6e9a:	3e          	mov	sp,a2
    6e9b:	fa d2 80 00 	add	128,a2
    6e9f:	f1 32       	sub	a0,a2
    6ea1:	4b 24       	mov	a2,(36,sp)

00006ea3 <.LBB22>:
    6ea3:	47 30       	mov	a1,(48,sp)
    6ea5:	cc 11 fb    	jmp	69b6 <.L98>

00006ea8 <.L128>:
    6ea8:	3c          	mov	sp,a0
    6ea9:	20 4c       	add	76,a0
    6eab:	43 0c       	mov	a0,(12,sp)
    6ead:	fa b4 fc 04 	mov	(1276,sp),d0
    6eb1:	fa b5 00 05 	mov	(1280,sp),d1
    6eb5:	cd 61 f5 00 	call	6416 <___sprint_r>,[],0
    6eb9:	00 

00006eba <.LVL322>:
    6eba:	a0 00       	cmp	0,d0
    6ebc:	c8 05       	beq	6ec1 <.L0_81>
    6ebe:	cc 05 fa    	jmp	68c3 <.L0_33>

00006ec1 <.L0_81>:
    6ec1:	3f          	mov	sp,a3

00006ec2 <.LVL323>:
    6ec2:	fa d3 e8 00 	add	232,a3
    6ec6:	59 54       	mov	(84,sp),d1
    6ec8:	58 50       	mov	(80,sp),d0
    6eca:	cc 90 f7    	jmp	665a <.L127>

00006ecd <.L130>:
    6ecd:	3c          	mov	sp,a0
    6ece:	20 4c       	add	76,a0
    6ed0:	43 0c       	mov	a0,(12,sp)
    6ed2:	fa b4 fc 04 	mov	(1276,sp),d0
    6ed6:	fa b5 00 05 	mov	(1280,sp),d1
    6eda:	cd 3c f5 00 	call	6416 <___sprint_r>,[],0
    6ede:	00 

00006edf <.LVL325>:
    6edf:	a0 00       	cmp	0,d0
    6ee1:	c8 05       	beq	6ee6 <.L0_82>
    6ee3:	cc e0 f9    	jmp	68c3 <.L0_33>

00006ee6 <.L0_82>:
    6ee6:	3f          	mov	sp,a3

00006ee7 <.LVL326>:
    6ee7:	fa d3 e8 00 	add	232,a3
    6eeb:	59 54       	mov	(84,sp),d1
    6eed:	58 50       	mov	(80,sp),d0

00006eef <.LVL327>:
    6eef:	5a 38       	mov	(56,sp),d2
    6ef1:	fa ca 80 00 	cmp	128,d2
    6ef5:	c8 05       	beq	6efa <.L0_83>
    6ef7:	cc 8e f7    	jmp	6685 <.L0_17>

00006efa <.L0_83>:
    6efa:	cc 48 f9    	jmp	6842 <.L245>

00006efd <.L169>:
    6efd:	47 24       	mov	a1,(36,sp)

00006eff <.Loc.1408.1>:
    6eff:	3e          	mov	sp,a2
    6f00:	fa d2 80 00 	add	128,a2
    6f04:	f1 db       	mov	a2,d3

00006f06 <.LBB23>:
    6f06:	47 30       	mov	a1,(48,sp)
    6f08:	cc ae fa    	jmp	69b6 <.L98>

00006f0b <.L99>:
    6f0b:	59 18       	mov	(24,sp),d1
    6f0d:	f8 e1 10    	and	16,d1
    6f10:	c8 05       	beq	6f15 <.L0_84>
    6f12:	cc dc 00    	jmp	6fee <.L270>

00006f15 <.L0_84>:
    6f15:	58 18       	mov	(24,sp),d0
    6f17:	fa b2 08 05 	mov	(1288,sp),a2
    6f1b:	f8 e0 40    	and	64,d0
    6f1e:	c9 05       	bne	6f23 <.L0_85>
    6f20:	cc d2 00    	jmp	6ff2 <.L101>

00006f23 <.L0_85>:
    6f23:	f0 6a       	movhu	(a2),d2
    6f25:	f1 e6       	mov	d1,a2

00006f27 <.LVL332>:
    6f27:	fa b0 08 05 	mov	(1288,sp),a0

00006f2b <.LVL333>:
    6f2b:	50          	inc4	a0

00006f2c <.LVL334>:
    6f2c:	fa 90 08 05 	mov	a0,(1288,sp)

00006f30 <.Loc.1374.1>:
    6f30:	8f 01       	mov	1,d3

00006f32 <.LVL335>:
    6f32:	00          	clr	d0
    6f33:	f8 92 49    	movbu	d0,(73,sp)
    6f36:	f8 92 20    	movbu	d0,(32,sp)
    6f39:	cc 3c fa    	jmp	6975 <.L83>

00006f3c <.L88>:
    6f3c:	59 18       	mov	(24,sp),d1
    6f3e:	f8 e1 10    	and	16,d1
    6f41:	c8 05       	beq	6f46 <.L0_86>
    6f43:	cc 8b 00    	jmp	6fce <.L271>

00006f46 <.L0_86>:
    6f46:	58 18       	mov	(24,sp),d0
    6f48:	fa b2 08 05 	mov	(1288,sp),a2
    6f4c:	f8 e0 40    	and	64,d0
    6f4f:	c9 05       	bne	6f54 <.L0_87>
    6f51:	cc 81 00    	jmp	6fd2 <.L91>

00006f54 <.L0_87>:
    6f54:	f0 6a       	movhu	(a2),d2
    6f56:	f1 e6       	mov	d1,a2

00006f58 <.LVL338>:
    6f58:	fa b0 08 05 	mov	(1288,sp),a0

00006f5c <.LVL339>:
    6f5c:	50          	inc4	a0

00006f5d <.LVL340>:
    6f5d:	fa 90 08 05 	mov	a0,(1288,sp)

00006f61 <.Loc.1250.1>:
    6f61:	87          	mov	d1,d3

00006f62 <.LVL341>:
    6f62:	00          	clr	d0
    6f63:	f8 92 49    	movbu	d0,(73,sp)
    6f66:	f8 92 20    	movbu	d0,(32,sp)
    6f69:	cc 0c fa    	jmp	6975 <.L83>

00006f6c <.L269>:
    6f6c:	aa 09       	cmp	9,d2
    6f6e:	c7 05       	bls	6f73 <.L0_88>
    6f70:	cc bb fe    	jmp	6e2b <.L0_80>

00006f73 <.L0_88>:
    6f73:	88          	mov	d2,d0
    6f74:	28 30       	add	48,d0

00006f76 <.Loc.1484.1>:
    6f76:	f8 92 7f    	movbu	d0,(127,sp)
    6f79:	8a 01       	mov	1,d2

00006f7b <.LVL344>:
    6f7b:	4a 24       	mov	d2,(36,sp)
    6f7d:	3c          	mov	sp,a0
    6f7e:	8f 7f       	mov	127,d3

00006f80 <.LVL345>:
    6f80:	f1 53       	add	a0,d3
    6f82:	cc 32 fa    	jmp	69b4 <.L114>

00006f85 <.L252>:
    6f85:	fa 91 08 05 	mov	d0,(1288,sp)
    6f89:	f0 40       	movbu	(a0),d0

00006f8b <.LVL347>:
    6f8b:	41          	inc	a0

00006f8c <.LVL348>:
    6f8c:	cc fd f5    	jmp	6589 <.L221>

00006f8f <.L248>:
    6f8f:	3e          	mov	sp,a2
    6f90:	22 4c       	add	76,a2
    6f92:	4b 0c       	mov	a2,(12,sp)
    6f94:	fa b4 fc 04 	mov	(1276,sp),d0
    6f98:	fa b5 00 05 	mov	(1280,sp),d1
    6f9c:	cd 7a f4 00 	call	6416 <___sprint_r>,[],0
    6fa0:	00 

00006fa1 <.LVL350>:
    6fa1:	a0 00       	cmp	0,d0
    6fa3:	c8 05       	beq	6fa8 <.L0_89>
    6fa5:	cc 1e f9    	jmp	68c3 <.L0_33>

00006fa8 <.L0_89>:
    6fa8:	59 54       	mov	(84,sp),d1
    6faa:	cc bb f7    	jmp	6765 <.L0_24>

00006fad <.L170>:
    6fad:	47 24       	mov	a1,(36,sp)

00006faf <.Loc.1408.1>:
    6faf:	3c          	mov	sp,a0
    6fb0:	fa d0 80 00 	add	128,a0
    6fb4:	f1 d3       	mov	a0,d3

00006fb6 <.LBB24>:
    6fb6:	47 30       	mov	a1,(48,sp)
    6fb8:	cc fe f9    	jmp	69b6 <.L98>

00006fbb <.L260>:
    6fbb:	fa b2 08 05 	mov	(1288,sp),a2

00006fbf <.L105>:
    6fbf:	7a          	mov	(a2),d2
    6fc0:	f1 e6       	mov	d1,a2
    6fc2:	fa b0 08 05 	mov	(1288,sp),a0

00006fc6 <.LVL355>:
    6fc6:	50          	inc4	a0

00006fc7 <.LVL356>:
    6fc7:	fa 90 08 05 	mov	a0,(1288,sp)
    6fcb:	cc 91 f9    	jmp	695c <.L103>

00006fce <.L271>:
    6fce:	fa b2 08 05 	mov	(1288,sp),a2

00006fd2 <.L91>:
    6fd2:	7a          	mov	(a2),d2
    6fd3:	f1 e2       	mov	d0,a2
    6fd5:	fa b0 08 05 	mov	(1288,sp),a0

00006fd9 <.LVL359>:
    6fd9:	50          	inc4	a0

00006fda <.LVL360>:
    6fda:	fa 90 08 05 	mov	a0,(1288,sp)

00006fde <.Loc.1250.1>:
    6fde:	83          	mov	d0,d3

00006fdf <.LVL361>:
	...

00006fe0 <.LVL362>:
    6fe0:	f8 92 49    	movbu	d0,(73,sp)
    6fe3:	f8 92 20    	movbu	d0,(32,sp)
    6fe6:	cc 8f f9    	jmp	6975 <.L83>

00006fe9 <.L230>:
    6fe9:	43 1c       	mov	a0,(28,sp)
    6feb:	cc da fa    	jmp	6ac5 <.L63>

00006fee <.L270>:
    6fee:	fa b2 08 05 	mov	(1288,sp),a2

00006ff2 <.L101>:
    6ff2:	7a          	mov	(a2),d2
    6ff3:	f1 e2       	mov	d0,a2
    6ff5:	fa b0 08 05 	mov	(1288,sp),a0

00006ff9 <.LVL366>:
    6ff9:	50          	inc4	a0

00006ffa <.LVL367>:
    6ffa:	fa 90 08 05 	mov	a0,(1288,sp)

00006ffe <.Loc.1374.1>:
    6ffe:	8f 01       	mov	1,d3

00007000 <.LVL368>:
	...

00007001 <.LVL369>:
    7001:	f8 92 49    	movbu	d0,(73,sp)
    7004:	f8 92 20    	movbu	d0,(32,sp)
    7007:	cc 6e f9    	jmp	6975 <.L83>

0000700a <.L257>:
    700a:	fa b2 08 05 	mov	(1288,sp),a2

0000700e <.L80>:
    700e:	7a          	mov	(a2),d2
    700f:	88          	mov	d2,d0
    7010:	f8 c8 1f    	asr	31,d0
    7013:	f1 e2       	mov	d0,a2
    7015:	fa b0 08 05 	mov	(1288,sp),a0

00007019 <.LVL372>:
    7019:	50          	inc4	a0

0000701a <.LVL373>:
    701a:	fa 90 08 05 	mov	a0,(1288,sp)
    701e:	cc 32 fb    	jmp	6b50 <.L272>

00007021 <.L231>:
    7021:	43 1c       	mov	a0,(28,sp)
    7023:	cc b4 fb    	jmp	6bd7 <.L62>

00007026 <.L254>:
    7026:	fa b1 08 05 	mov	(1288,sp),a1

0000702a <.LVL376>:
    702a:	f0 01       	mov	(a1),a0

0000702c <.LVL377>:
    702c:	5a 34       	mov	(52,sp),d2
    702e:	68          	mov	d2,(a0)
    702f:	88          	mov	d2,d0
    7030:	f8 c8 1f    	asr	31,d0
    7033:	f8 10 04    	mov	d0,(4,a0)
    7036:	51          	inc4	a1

00007037 <.LVL378>:
    7037:	fa 94 08 05 	mov	a1,(1288,sp)
    703b:	cc e5 f4    	jmp	6520 <.L222>

0000703e <.L253>:
    703e:	85 30       	mov	48,d1
    7040:	f8 96 4a    	movbu	d1,(74,sp)

00007043 <.Loc.1386.1>:
    7043:	f8 92 4b    	movbu	d0,(75,sp)

00007046 <.Loc.1387.1>:
    7046:	58 18       	mov	(24,sp),d0

00007048 <.LVL380>:
    7048:	f8 e4 02    	or	2,d0
    704b:	42 18       	mov	d0,(24,sp)

0000704d <.LVL381>:
    704d:	8f 02       	mov	2,d3

0000704f <.LVL382>:
	...

00007050 <.LVL383>:
    7050:	f8 92 49    	movbu	d0,(73,sp)
    7053:	f8 92 20    	movbu	d0,(32,sp)
    7056:	cc 1f f9    	jmp	6975 <.L83>

00007059 <.L66>:
    7059:	f0 40       	movbu	(a0),d0

0000705b <.LVL385>:
    705b:	41          	inc	a0

0000705c <.LVL386>:
    705c:	cc 2d f5    	jmp	6589 <.L221>

0000705f <.L261>:
    705f:	41          	inc	a0

00007060 <.Loc.971.1>:
    7060:	5a 18       	mov	(24,sp),d2
    7062:	f8 e6 20    	or	32,d2
    7065:	4a 18       	mov	d2,(24,sp)

00007067 <.LVL389>:
    7067:	f8 42 01    	movbu	(1,a2),d0

0000706a <.LVL390>:
    706a:	41          	inc	a0

0000706b <.LVL391>:
    706b:	cc 1e f5    	jmp	6589 <.L221>

0000706e <.L87>:
    706e:	fa b1 08 05 	mov	(1288,sp),a1

00007072 <.LVL393>:
    7072:	f0 01       	mov	(a1),a0

00007074 <.LVL394>:
    7074:	5a 34       	mov	(52,sp),d2
    7076:	68          	mov	d2,(a0)
    7077:	51          	inc4	a1

00007078 <.LVL395>:
    7078:	fa 94 08 05 	mov	a1,(1288,sp)
    707c:	cc a4 f4    	jmp	6520 <.L222>

0000707f <.L136>:
    707f:	3c          	mov	sp,a0
    7080:	20 4c       	add	76,a0
    7082:	43 0c       	mov	a0,(12,sp)
    7084:	fa b4 fc 04 	mov	(1276,sp),d0
    7088:	fa b5 00 05 	mov	(1280,sp),d1
    708c:	cd 8a f3 00 	call	6416 <___sprint_r>,[],0
    7090:	00 

00007091 <.LVL397>:
    7091:	a0 00       	cmp	0,d0
    7093:	c8 05       	beq	7098 <.L0_90>
    7095:	cc 2e f8    	jmp	68c3 <.L0_33>

00007098 <.L0_90>:
    7098:	3f          	mov	sp,a3

00007099 <.LVL398>:
    7099:	fa d3 e8 00 	add	232,a3
    709d:	59 54       	mov	(84,sp),d1
    709f:	58 50       	mov	(80,sp),d0
    70a1:	cc e4 f5    	jmp	6685 <.L0_17>

000070a4 <.L95>:
    70a4:	8c          	mov	d3,d0
    70a5:	dd 2e f3 ff 	call	63d3 <_strlen>,[],0
    70a9:	ff 00 00 

000070ac <.LVL400>:
    70ac:	42 24       	mov	d0,(36,sp)

000070ae <.LVL401>:
    70ae:	f8 b8 49    	movbu	(73,sp),d0

000070b1 <.LVL402>:
    70b1:	f8 92 20    	movbu	d0,(32,sp)

000070b4 <.L237>:
    70b4:	fa 99 08 05 	mov	d2,(1288,sp)

000070b8 <.Loc.790.1>:
    70b8:	08          	clr	d2

000070b9 <.LVL403>:
    70b9:	4a 30       	mov	d2,(48,sp)
    70bb:	cc fb f8    	jmp	69b6 <.L98>

000070be <.L246>:
    70be:	fc ce d0 99 	mov	39376,d2
    70c2:	00 00 
    70c4:	4a 20       	mov	d2,(32,sp)
    70c6:	cc 0b f6    	jmp	66d1 <.L138>

000070c9 <.L34>:
    70c9:	58 54       	mov	(84,sp),d0
    70cb:	a0 00       	cmp	0,d0
    70cd:	c9 05       	bne	70d2 <.L0_91>
    70cf:	cc f4 f7    	jmp	68c3 <.L0_33>

000070d2 <.L0_91>:
    70d2:	3d          	mov	sp,a1
    70d3:	21 4c       	add	76,a1
    70d5:	47 0c       	mov	a1,(12,sp)
    70d7:	fa b4 fc 04 	mov	(1276,sp),d0
    70db:	fa b5 00 05 	mov	(1280,sp),d1
    70df:	cd 37 f3 00 	call	6416 <___sprint_r>,[],0
    70e3:	00 

000070e4 <.LVL406>:
    70e4:	fa b2 00 05 	mov	(1280,sp),a2
    70e8:	f8 62 0c    	movhu	(12,a2),d0
    70eb:	f8 e0 40    	and	64,d0
    70ee:	18          	exth	d0
    70ef:	a0 00       	cmp	0,d0
    70f1:	c8 05       	beq	70f6 <.L0_92>
    70f3:	cc e2 f7    	jmp	68d5 <.L0_34>

000070f6 <.L0_92>:
    70f6:	cc 37 f7    	jmp	682d <.L182>

000070f9 <.L268>:
    70f9:	3c          	mov	sp,a0
    70fa:	fa d0 80 00 	add	128,a0
    70fe:	f1 2c       	sub	d3,a0
    7100:	43 24       	mov	a0,(36,sp)

00007102 <.LBB25>:
    7102:	47 30       	mov	a1,(48,sp)
    7104:	cc b2 f8    	jmp	69b6 <.L98>

00007107 <.L263>:
    7107:	fc dd ff ff 	mov	-1,a1
    710b:	ff ff 

0000710d <.LBE25>:
    710d:	98          	mov	a2,a0

0000710e <.LVL410>:
    710e:	cc 4a fb    	jmp	6c58 <.L273>

00007111 <.L255>:
    7111:	47 24       	mov	a1,(36,sp)
    7113:	b5 06       	cmp	6,a1
    7115:	c7 3a       	bls	714f <.L93>
    7117:	95 06       	mov	6,a1

00007119 <.LVL412>:
    7119:	47 24       	mov	a1,(36,sp)
    711b:	47 28       	mov	a1,(40,sp)

0000711d <.L94>:
    711d:	fa 99 08 05 	mov	d2,(1288,sp)

00007121 <.Loc.1283.1>:
    7121:	fc cf 90 95 	mov	38288,d3
    7125:	00 00 

00007127 <.L274>:
    7127:	08          	clr	d2
    7128:	4a 30       	mov	d2,(48,sp)
    712a:	cc 8a f4    	jmp	65b4 <.L119>

0000712d <.L262>:
    712d:	98          	mov	a2,a0

0000712e <.Loc.919.1>:
    712e:	f1 e9       	mov	d2,a1

00007130 <.LVL415>:
    7130:	82          	mov	d0,d2
    7131:	2a e0       	add	-32,d2
    7133:	aa 58       	cmp	88,d2
    7135:	c7 05       	bls	713a <.L0_93>
    7137:	cc 5c f4    	jmp	6593 <.L0_8>

0000713a <.L0_93>:
    713a:	cc 57 f6    	jmp	6791 <.L243>

0000713d <.L250>:
    713d:	8a ff       	mov	-1,d2
    713f:	4a 34       	mov	d2,(52,sp)
    7141:	cc d4 f6    	jmp	6815 <.L0_28>

00007144 <.L244>:
    7144:	fc dd c0 99 	mov	39360,a1
    7148:	00 00 
    714a:	47 3c       	mov	a1,(60,sp)
    714c:	cc d6 f4    	jmp	6622 <.L122>

0000714f <.L93>:
    714f:	5e 24       	mov	(36,sp),a2
    7151:	4b 28       	mov	a2,(40,sp)
    7153:	ba 00       	cmp	0,a2
    7155:	c2 c8       	bge	711d <.L94>
    7157:	4e 28       	mov	d3,(40,sp)

00007159 <.LBE17>:
    7159:	fa 99 08 05 	mov	d2,(1288,sp)

0000715d <.Loc.1283.1>:
    715d:	fc cf 90 95 	mov	38288,d3
    7161:	00 00 
    7163:	ca c4       	bra	7127 <.L274>

00007165 <.L247>:
    7165:	fc dc c0 99 	mov	39360,a0
    7169:	00 00 
    716b:	43 3c       	mov	a0,(60,sp)

0000716d <.Loc.1606.1>:
    716d:	5d 3c       	mov	(60,sp),a1
    716f:	f0 17       	mov	a1,(a3)
    7171:	f8 1f 04    	mov	d3,(4,a3)
    7174:	ed          	add	d3,d1
    7175:	46 54       	mov	d1,(84,sp)

00007177 <.LVL420>:
    7177:	40          	inc	d0
    7178:	42 50       	mov	d0,(80,sp)
    717a:	a0 07       	cmp	7,d0
    717c:	c1 05       	bgt	7181 <.L0_94>
    717e:	cc e7 f5    	jmp	6765 <.L0_24>

00007181 <.L0_94>:
    7181:	cc 0e fe    	jmp	6f8f <.L248>

00007184 <.L251>:
    7184:	fc dd d0 99 	mov	39376,a1
    7188:	00 00 
    718a:	47 20       	mov	a1,(32,sp)
    718c:	cc 05 f7    	jmp	6891 <.L132>

0000718f <.L96>:
    718f:	f8 b8 49    	movbu	(73,sp),d0
    7192:	f8 92 20    	movbu	d0,(32,sp)

00007195 <.LBB27>:
    7195:	47 24       	mov	a1,(36,sp)

00007197 <.Loc.1276.1>:
    7197:	fa 99 08 05 	mov	d2,(1288,sp)

0000719b <.Loc.790.1>:
    719b:	43 30       	mov	a0,(48,sp)
    719d:	cc 19 f8    	jmp	69b6 <.L98>

000071a0 <.L69>:
    71a0:	f1 db       	mov	a2,d3

000071a2 <.LBE27>:
    71a2:	fa b6 08 05 	mov	(1288,sp),d2
    71a6:	2a 04       	add	4,d2

000071a8 <.LVL424>:
    71a8:	fa b2 08 05 	mov	(1288,sp),a2

000071ac <.LVL425>:
    71ac:	f0 06       	mov	(a2),a1
    71ae:	f8 40 01    	movbu	(1,a0),d0

000071b1 <.LVL427>:
    71b1:	f1 ec       	mov	d3,a0

000071b3 <.LVL428>:
    71b3:	fa 99 08 05 	mov	d2,(1288,sp)

000071b7 <.Loc.914.1>:
    71b7:	b5 00       	cmp	0,a1
    71b9:	c0 07       	blt	71c0 <.L275>
    71bb:	14          	extbu	d0

000071bc <.LVL429>:
    71bc:	41          	inc	a0
    71bd:	cc cc f3    	jmp	6589 <.L221>

000071c0 <.L275>:
    71c0:	fc dd ff ff 	mov	-1,a1
    71c4:	ff ff 

000071c6 <.LVL431>:
    71c6:	14          	extbu	d0

000071c7 <.LVL432>:
    71c7:	41          	inc	a0
    71c8:	cc c1 f3    	jmp	6589 <.L221>

000071cb <_vfiprintf>:
    71cb:	f8 fe ec    	add	-20,sp

000071ce <.LCFI4>:
    71ce:	f1 e0       	mov	d0,a0

000071d0 <.Loc.535.1>:
    71d0:	46 0c       	mov	d1,(12,sp)
    71d2:	58 20       	mov	(32,sp),d0

000071d4 <.LVL434>:
    71d4:	42 10       	mov	d0,(16,sp)
    71d6:	fc a4 08 9c 	mov	(9c08 <__impure_ptr>),d0
    71da:	00 00 
    71dc:	f1 d1       	mov	a0,d1

000071de <.LVL435>:
    71de:	cd c2 f2 00 	call	64a0 <__vfiprintf_r>,[],0
    71e2:	00 

000071e3 <.LVL436>:
    71e3:	df 00 14    	ret	[],20

000071e6 <__write_r>:
    71e6:	cf 20       	movm	[a2],(sp)

000071e8 <.LCFI0>:
    71e8:	f8 fe f0    	add	-16,sp

000071eb <.LCFI1>:
    71eb:	f1 e2       	mov	d0,a2

000071ed <.Loc.57.1>:
    71ed:	90 00       	mov	0,a0
    71ef:	fc 80 04 a5 	mov	a0,(a504 <_errno>)
    71f3:	00 00 

000071f5 <.Loc.58.1>:
    71f5:	5c 24       	mov	(36,sp),a0
    71f7:	43 0c       	mov	a0,(12,sp)
    71f9:	84          	mov	d1,d0

000071fa <.LVL1>:
    71fa:	59 20       	mov	(32,sp),d1

000071fc <.LVL2>:
    71fc:	dd 1b a3 ff 	call	1517 <__write>,[],0
    7200:	ff 00 00 

00007203 <.LVL3>:
    7203:	a0 ff       	cmp	-1,d0
    7205:	c8 05       	beq	720a <.L7>

00007207 <.L2>:
    7207:	df 20 14    	ret	[a2],20

0000720a <.L7>:
    720a:	fc a5 04 a5 	mov	(a504 <_errno>),d1
    720e:	00 00 
    7210:	a5 00       	cmp	0,d1
    7212:	c8 f5       	beq	7207 <.L2>

00007214 <.Loc.59.1>:
    7214:	66          	mov	d1,(a2)

00007215 <.Loc.61.1>:
    7215:	df 20 14    	ret	[a2],20

00007218 <__calloc_r>:
    7218:	cf a0       	movm	[d2,a2],(sp)

0000721a <.LCFI0>:
    721a:	f8 fe f0    	add	-16,sp

0000721d <.LCFI1>:
    721d:	5a 24       	mov	(36,sp),d2
    721f:	cb          	nop	
    7220:	cb          	nop	
    7221:	f2 49       	mul	d2,d1

00007223 <.LVL2>:
    7223:	dd fc dd ff 	call	501f <__malloc_r>,[],0
    7227:	ff 00 00 

0000722a <.LVL3>:
    722a:	92          	mov	a0,a2

0000722b <.LVL4>:
    722b:	b0 00       	cmp	0,a0
    722d:	c8 30       	beq	725d <.L2>

0000722f <.LVL5>:
    722f:	f8 04 fc    	mov	(-4,a0),d1
    7232:	f8 c5 02    	lsr	2,d1
    7235:	55          	asl2	d1

00007236 <.LBB2>:
    7236:	29 fc       	add	-4,d1

00007238 <.LVL6>:
    7238:	a5 24       	cmp	36,d1
    723a:	c5 29       	bhi	7263 <.L3>

0000723c <.LBB3>:
    723c:	a5 13       	cmp	19,d1
    723e:	c7 17       	bls	7255 <.L4>

00007240 <.Loc.3244.1>:
    7240:	00          	clr	d0
    7241:	60          	mov	d0,(a0)

00007242 <.LVL8>:
    7242:	f8 10 04    	mov	d0,(4,a0)

00007245 <.LVL9>:
    7245:	a5 1b       	cmp	27,d1
    7247:	c7 2e       	bls	7275 <.L12>

00007249 <.Loc.3244.1>:
    7249:	f8 10 08    	mov	d0,(8,a0)

0000724c <.LVL10>:
    724c:	f8 10 0c    	mov	d0,(12,a0)

0000724f <.LVL11>:
    724f:	a5 24       	cmp	36,d1
    7251:	c8 30       	beq	7281 <.L6>

00007253 <.Loc.3244.1>:
    7253:	20 10       	add	16,a0

00007255 <.L4>:
    7255:	00          	clr	d0
    7256:	60          	mov	d0,(a0)

00007257 <.LVL13>:
    7257:	f8 10 04    	mov	d0,(4,a0)

0000725a <.LVL14>:
    725a:	f8 10 08    	mov	d0,(8,a0)

0000725d <.L2>:
    725d:	98          	mov	a2,a0
    725e:	f1 d8       	mov	a2,d0
    7260:	df a0 18    	ret	[d2,a2],24

00007263 <.L3>:
    7263:	46 0c       	mov	d1,(12,sp)
    7265:	f1 d0       	mov	a0,d0
    7267:	04          	clr	d1

00007268 <.LVL17>:
    7268:	dd 7d a3 ff 	call	15e5 <_memset>,[],0
    726c:	ff 00 00 

0000726f <.LBE5>:
    726f:	98          	mov	a2,a0
    7270:	f1 d8       	mov	a2,d0
    7272:	df a0 18    	ret	[d2,a2],24

00007275 <.L12>:
    7275:	20 08       	add	8,a0

00007277 <.LVL20>:
    7277:	00          	clr	d0
    7278:	60          	mov	d0,(a0)

00007279 <.LVL21>:
    7279:	f8 10 04    	mov	d0,(4,a0)

0000727c <.LVL22>:
    727c:	f8 10 08    	mov	d0,(8,a0)
    727f:	ca de       	bra	725d <.L2>

00007281 <.L6>:
    7281:	f8 10 10    	mov	d0,(16,a0)

00007284 <.LVL24>:
    7284:	f8 10 14    	mov	d0,(20,a0)
    7287:	20 18       	add	24,a0

00007289 <.LVL25>:
    7289:	00          	clr	d0
    728a:	60          	mov	d0,(a0)

0000728b <.LVL26>:
    728b:	f8 10 04    	mov	d0,(4,a0)

0000728e <.LVL27>:
    728e:	f8 10 08    	mov	d0,(8,a0)
    7291:	ca cc       	bra	725d <.L2>

00007293 <__close_r>:
    7293:	cf 20       	movm	[a2],(sp)

00007295 <.LCFI0>:
    7295:	f8 fe f4    	add	-12,sp

00007298 <.LCFI1>:
    7298:	f1 e2       	mov	d0,a2

0000729a <.Loc.52.1>:
    729a:	90 00       	mov	0,a0
    729c:	fc 80 04 a5 	mov	a0,(a504 <_errno>)
    72a0:	00 00 

000072a2 <.Loc.53.1>:
    72a2:	84          	mov	d1,d0

000072a3 <.LVL1>:
    72a3:	dd 92 a2 ff 	call	1535 <__close>,[],0
    72a7:	ff 00 00 

000072aa <.LVL2>:
    72aa:	a0 ff       	cmp	-1,d0
    72ac:	c8 05       	beq	72b1 <.L7>

000072ae <.L2>:
    72ae:	df 20 10    	ret	[a2],16

000072b1 <.L7>:
    72b1:	fc a5 04 a5 	mov	(a504 <_errno>),d1
    72b5:	00 00 
    72b7:	a5 00       	cmp	0,d1
    72b9:	c8 f5       	beq	72ae <.L2>

000072bb <.Loc.54.1>:
    72bb:	66          	mov	d1,(a2)

000072bc <.Loc.56.1>:
    72bc:	df 20 10    	ret	[a2],16

000072bf <__fclose_r>:
    72bf:	cf b0       	movm	[d2,a2,a3],(sp)

000072c1 <.LCFI0>:
    72c1:	f8 fe f4    	add	-12,sp

000072c4 <.LCFI1>:
    72c4:	f1 e3       	mov	d0,a3
    72c6:	f1 e6       	mov	d1,a2

000072c8 <.Loc.74.1>:
    72c8:	a5 00       	cmp	0,d1
    72ca:	c8 14       	beq	72de <.L5>

000072cc <.Loc.77.1>:
    72cc:	a0 00       	cmp	0,d0
    72ce:	c8 09       	beq	72d7 <.L4>

000072d0 <.Loc.77.1>:
    72d0:	f8 03 38    	mov	(56,a3),d0

000072d3 <.LVL1>:
    72d3:	a0 00       	cmp	0,d0
    72d5:	c8 7c       	beq	7351 <.L31>

000072d7 <.L4>:
    72d7:	f8 62 0c    	movhu	(12,a2),d0
    72da:	a0 00       	cmp	0,d0
    72dc:	c9 07       	bne	72e3 <.L32>

000072de <.L5>:
    72de:	08          	clr	d2

000072df <.Loc.108.1>:
    72df:	88          	mov	d2,d0
    72e0:	df b0 18    	ret	[d2,a2,a3],24

000072e3 <.L32>:
    72e3:	f1 dc       	mov	a3,d0
    72e5:	f1 d9       	mov	a2,d1
    72e7:	dd 33 d5 ff 	call	481a <__fflush_r>,[],0
    72eb:	ff 00 00 

000072ee <.LVL3>:
    72ee:	82          	mov	d0,d2

000072ef <.LVL4>:
    72ef:	f8 22 2c    	mov	(44,a2),a0
    72f2:	b0 00       	cmp	0,a0
    72f4:	c8 0d       	beq	7301 <.L6>

000072f6 <.Loc.90.1>:
    72f6:	f1 dc       	mov	a3,d0

000072f8 <.LVL5>:
    72f8:	f8 06 1c    	mov	(28,a2),d1
    72fb:	f0 f0       	calls	(a0)

000072fd <.LVL6>:
    72fd:	a0 00       	cmp	0,d0
    72ff:	c0 76       	blt	7375 <.L33>

00007301 <.L6>:
    7301:	f8 62 0c    	movhu	(12,a2),d0
    7304:	f8 e0 80    	and	128,d0
    7307:	18          	exth	d0
    7308:	a0 00       	cmp	0,d0
    730a:	c9 5d       	bne	7367 <.L34>

0000730c <.L7>:
    730c:	f8 06 30    	mov	(48,a2),d1
    730f:	a5 00       	cmp	0,d1
    7311:	c8 16       	beq	7327 <.L8>

00007313 <.Loc.95.1>:
    7313:	f1 d8       	mov	a2,d0
    7315:	28 40       	add	64,d0
    7317:	a1          	cmp	d0,d1
    7318:	c8 0b       	beq	7323 <.L9>

0000731a <.Loc.95.1>:
    731a:	f1 dc       	mov	a3,d0
    731c:	dd 38 d8 ff 	call	4b54 <__free_r>,[],0
    7320:	ff 00 00 

00007323 <.L9>:
    7323:	00          	clr	d0
    7324:	f8 12 30    	mov	d0,(48,a2)

00007327 <.L8>:
    7327:	f8 06 44    	mov	(68,a2),d1
    732a:	a5 00       	cmp	0,d1
    732c:	c8 0f       	beq	733b <.L10>

0000732e <.Loc.97.1>:
    732e:	f1 dc       	mov	a3,d0
    7330:	dd 24 d8 ff 	call	4b54 <__free_r>,[],0
    7334:	ff 00 00 

00007337 <.LVL8>:
    7337:	00          	clr	d0
    7338:	f8 12 44    	mov	d0,(68,a2)

0000733b <.L10>:
    733b:	dd 0f d7 ff 	call	4a4a <___sfp_lock_acquire>,[],0
    733f:	ff 00 00 

00007342 <.LVL9>:
    7342:	00          	clr	d0
    7343:	f8 72 0c    	movhu	d0,(12,a2)

00007346 <.Loc.105.1>:
    7346:	dd 07 d7 ff 	call	4a4d <___sfp_lock_release>,[],0
    734a:	ff 00 00 

0000734d <.LVL10>:
    734d:	88          	mov	d2,d0
    734e:	df b0 18    	ret	[d2,a2,a3],24

00007351 <.L31>:
    7351:	f1 dc       	mov	a3,d0
    7353:	dd f3 d5 ff 	call	4946 <___sinit>,[],0
    7357:	ff 00 00 

0000735a <.LVL12>:
    735a:	f8 62 0c    	movhu	(12,a2),d0
    735d:	a0 00       	cmp	0,d0
    735f:	c9 05       	bne	7364 <.L0_0>
    7361:	cc 7d ff    	jmp	72de <.L5>

00007364 <.L0_0>:
    7364:	cc 7f ff    	jmp	72e3 <.L32>

00007367 <.L34>:
    7367:	f1 dc       	mov	a3,d0
    7369:	f8 06 10    	mov	(16,a2),d1
    736c:	dd e8 d7 ff 	call	4b54 <__free_r>,[],0
    7370:	ff 00 00 

00007373 <.LVL14>:
    7373:	ca 99       	bra	730c <.L7>

00007375 <.L33>:
    7375:	8a ff       	mov	-1,d2

00007377 <.Loc.92.1>:
    7377:	f8 62 0c    	movhu	(12,a2),d0
    737a:	f8 e0 80    	and	128,d0
    737d:	18          	exth	d0
    737e:	a0 00       	cmp	0,d0
    7380:	c8 8c       	beq	730c <.L7>
    7382:	ca e5       	bra	7367 <.L34>

00007384 <_fclose>:
    7384:	f8 fe f4    	add	-12,sp

00007387 <.LCFI2>:
    7387:	81          	mov	d0,d1

00007388 <.Loc.116.1>:
    7388:	fc a4 08 9c 	mov	(9c08 <__impure_ptr>),d0
    738c:	00 00 

0000738e <.LVL17>:
    738e:	cd 31 ff 00 	call	72bf <__fclose_r>,[],0
    7392:	00 

00007393 <.LVL18>:
    7393:	df 00 0c    	ret	[],12

00007396 <__fputwc_r>:
    7396:	cf f0       	movm	[d2,d3,a2,a3],(sp)

00007398 <.LCFI0>:
    7398:	f8 fe e8    	add	-24,sp

0000739b <.LCFI1>:
    739b:	42 2c       	mov	d0,(44,sp)
    739d:	87          	mov	d1,d3
    739e:	5e 34       	mov	(52,sp),a2

000073a0 <.Loc.164.1>:
    73a0:	f8 62 0c    	movhu	(12,a2),d0

000073a3 <.LVL1>:
    73a3:	81          	mov	d0,d1

000073a4 <.LVL2>:
    73a4:	fa e1 00 20 	and	8192,d1
    73a8:	19          	exth	d1
    73a9:	a5 00       	cmp	0,d1
    73ab:	c9 13       	bne	73be <.L2>

000073ad <.Loc.164.1>:
    73ad:	fa e4 00 20 	or	8192,d0
    73b1:	f8 72 0c    	movhu	d0,(12,a2)
    73b4:	f8 02 64    	mov	(100,a2),d0
    73b7:	fa e4 00 20 	or	8192,d0
    73bb:	f8 12 64    	mov	d0,(100,a2)

000073be <.L2>:
    73be:	dd 0c db ff 	call	4eca <___locale_mb_cur_max>,[],0
    73c2:	ff 00 00 

000073c5 <.LVL4>:
    73c5:	a0 01       	cmp	1,d0
    73c7:	c8 45       	beq	740c <.L30>

000073c9 <.L3>:
    73c9:	4e 0c       	mov	d3,(12,sp)
    73cb:	f1 d8       	mov	a2,d0
    73cd:	28 5c       	add	92,d0
    73cf:	42 10       	mov	d0,(16,sp)
    73d1:	58 2c       	mov	(44,sp),d0
    73d3:	3c          	mov	sp,a0
    73d4:	20 17       	add	23,a0
    73d6:	f1 d1       	mov	a0,d1
    73d8:	dd 48 0e 00 	call	8220 <__wcrtomb_r>,[],0
    73dc:	00 00 00 

000073df <.LVL5>:
    73df:	f1 e3       	mov	d0,a3

000073e1 <.LVL6>:
    73e1:	a0 ff       	cmp	-1,d0
    73e3:	c8 3b       	beq	741e <.L31>

000073e5 <.LVL7>:
    73e5:	a0 00       	cmp	0,d0
    73e7:	c8 21       	beq	7408 <.L8>

000073e9 <.Loc.137.1>:
    73e9:	08          	clr	d2

000073ea <.L4>:
    73ea:	f8 02 08    	mov	(8,a2),d0
    73ed:	28 ff       	add	-1,d0
    73ef:	f8 12 08    	mov	d0,(8,a2)
    73f2:	f8 eb 3a    	bns	742c <.L32>

000073f5 <.Loc.135.2>:
    73f5:	3d          	mov	sp,a1
    73f6:	21 17       	add	23,a1
    73f8:	f1 69       	add	d2,a1

000073fa <.Loc.149.1>:
    73fa:	f0 41       	movbu	(a1),d0
    73fc:	f0 06       	mov	(a2),a1
    73fe:	f0 51       	movbu	d0,(a1)
    7400:	72          	mov	(a2),d0
    7401:	40          	inc	d0
    7402:	62          	mov	d0,(a2)

00007403 <.L16>:
    7403:	48          	inc	d2

00007404 <.LVL9>:
    7404:	f1 9e       	cmp	a3,d2
    7406:	c4 e4       	bcs	73ea <.L4>

00007408 <.L8>:
    7408:	8c          	mov	d3,d0

00007409 <.LBE4>:
    7409:	df f0 28    	ret	[d2,d3,a2,a3],40

0000740c <.L30>:
    740c:	af 00       	cmp	0,d3
    740e:	c3 bb       	ble	73c9 <.L3>
    7410:	fa cb ff 00 	cmp	255,d3
    7414:	c1 b5       	bgt	73c9 <.L3>

00007416 <.Loc.136.1>:
    7416:	f8 9e 17    	movbu	d3,(23,sp)

00007419 <.LVL11>:
    7419:	f1 e3       	mov	d0,a3
    741b:	08          	clr	d2
    741c:	ca ce       	bra	73ea <.L4>

0000741e <.L31>:
    741e:	f8 62 0c    	movhu	(12,a2),d0

00007421 <.LVL13>:
    7421:	f8 e4 40    	or	64,d0
    7424:	f8 72 0c    	movhu	d0,(12,a2)

00007427 <.Loc.144.1>:
    7427:	f1 dc       	mov	a3,d0

00007429 <.LBE6>:
    7429:	df f0 28    	ret	[d2,d3,a2,a3],40

0000742c <.L32>:
    742c:	f8 06 18    	mov	(24,a2),d1
    742f:	a4          	cmp	d1,d0
    7430:	c0 29       	blt	7459 <.L10>

00007432 <.Loc.135.2>:
    7432:	3d          	mov	sp,a1
    7433:	21 17       	add	23,a1
    7435:	f1 69       	add	d2,a1

00007437 <.Loc.149.1>:
    7437:	f0 41       	movbu	(a1),d0
    7439:	f0 06       	mov	(a2),a1
    743b:	f0 51       	movbu	d0,(a1)
    743d:	f0 02       	mov	(a2),a0
    743f:	f0 44       	movbu	(a0),d1
    7441:	a5 0a       	cmp	10,d1
    7443:	c8 1d       	beq	7460 <.L27>
    7445:	80 01       	mov	1,d0
    7447:	a5 ff       	cmp	-1,d1
    7449:	c8 03       	beq	744c <.L12>
	...

0000744c <.L12>:
    744c:	41          	inc	a0
    744d:	f0 12       	mov	a0,(a2)
    744f:	14          	extbu	d0
    7450:	a0 00       	cmp	0,d0
    7452:	c8 b1       	beq	7403 <.L16>

00007454 <.L17>:
    7454:	80 ff       	mov	-1,d0

00007456 <.LBE10>:
    7456:	df f0 28    	ret	[d2,d3,a2,a3],40

00007459 <.L10>:
    7459:	3c          	mov	sp,a0
    745a:	20 17       	add	23,a0
    745c:	f1 68       	add	d2,a0

0000745e <.Loc.149.1>:
    745e:	f0 44       	movbu	(a0),d1

00007460 <.L27>:
    7460:	4b 0c       	mov	a2,(12,sp)
    7462:	58 2c       	mov	(44,sp),d0
    7464:	dd 93 0c 00 	call	80f7 <___swbuf_r>,[],0
    7468:	00 00 00 

0000746b <.LVL15>:
    746b:	a0 ff       	cmp	-1,d0
    746d:	c8 e7       	beq	7454 <.L17>

0000746f <.Loc.148.1>:
    746f:	48          	inc	d2

00007470 <.LVL16>:
    7470:	f1 9e       	cmp	a3,d2
    7472:	c6 05       	bcc	7477 <.L0_0>
    7474:	cc 76 ff    	jmp	73ea <.L4>

00007477 <.L0_0>:
    7477:	ca 91       	bra	7408 <.L8>

00007479 <_fputwc>:
    7479:	cf c0       	movm	[d2,d3],(sp)

0000747b <.LCFI2>:
    747b:	f8 fe f0    	add	-16,sp

0000747e <.LCFI3>:
    747e:	82          	mov	d0,d2
    747f:	87          	mov	d1,d3

00007480 <.Loc.175.1>:
    7480:	fc a4 08 9c 	mov	(9c08 <__impure_ptr>),d0
    7484:	00 00 

00007486 <.LVL18>:
    7486:	a0 00       	cmp	0,d0
    7488:	c8 0b       	beq	7493 <.L35>

0000748a <.Loc.175.1>:
    748a:	f1 e0       	mov	d0,a0
    748c:	f8 04 38    	mov	(56,a0),d1

0000748f <.LVL19>:
    748f:	a5 00       	cmp	0,d1
    7491:	c8 0d       	beq	749e <.L40>

00007493 <.L35>:
    7493:	4e 0c       	mov	d3,(12,sp)
    7495:	89          	mov	d2,d1
    7496:	cd 00 ff 00 	call	7396 <__fputwc_r>,[],0
    749a:	00 

0000749b <.LVL20>:
    749b:	df c0 18    	ret	[d2,d3],24

0000749e <.L40>:
    749e:	dd a8 d4 ff 	call	4946 <___sinit>,[],0
    74a2:	ff 00 00 

000074a5 <.LVL21>:
    74a5:	fc a4 08 9c 	mov	(9c08 <__impure_ptr>),d0
    74a9:	00 00 

000074ab <.Loc.176.1>:
    74ab:	4e 0c       	mov	d3,(12,sp)
    74ad:	89          	mov	d2,d1
    74ae:	cd e8 fe 00 	call	7396 <__fputwc_r>,[],0
    74b2:	00 

000074b3 <.LVL22>:
    74b3:	df c0 18    	ret	[d2,d3],24

000074b6 <__fstat_r>:
    74b6:	cf 20       	movm	[a2],(sp)

000074b8 <.LCFI0>:
    74b8:	f8 fe f4    	add	-12,sp

000074bb <.LCFI1>:
    74bb:	f1 e2       	mov	d0,a2

000074bd <.Loc.61.1>:
    74bd:	90 00       	mov	0,a0
    74bf:	fc 80 04 a5 	mov	a0,(a504 <_errno>)
    74c3:	00 00 

000074c5 <.Loc.62.1>:
    74c5:	84          	mov	d1,d0

000074c6 <.LVL1>:
    74c6:	59 1c       	mov	(28,sp),d1

000074c8 <.LVL2>:
    74c8:	dd 78 a0 ff 	call	1540 <__fstat>,[],0
    74cc:	ff 00 00 

000074cf <.LVL3>:
    74cf:	a0 ff       	cmp	-1,d0
    74d1:	c8 05       	beq	74d6 <.L7>

000074d3 <.L2>:
    74d3:	df 20 10    	ret	[a2],16

000074d6 <.L7>:
    74d6:	fc a5 04 a5 	mov	(a504 <_errno>),d1
    74da:	00 00 
    74dc:	a5 00       	cmp	0,d1
    74de:	c8 f5       	beq	74d3 <.L2>

000074e0 <.Loc.63.1>:
    74e0:	66          	mov	d1,(a2)

000074e1 <.Loc.65.1>:
    74e1:	df 20 10    	ret	[a2],16

000074e4 <___sfvwrite_r>:
    74e4:	cf f0       	movm	[d2,d3,a2,a3],(sp)

000074e6 <.LCFI0>:
    74e6:	f8 fe dc    	add	-36,sp

000074e9 <.LCFI1>:
    74e9:	42 38       	mov	d0,(56,sp)
    74eb:	f1 e6       	mov	d1,a2

000074ed <.LVL1>:
    74ed:	5c 40       	mov	(64,sp),a0
    74ef:	f8 00 08    	mov	(8,a0),d0

000074f2 <.LVL2>:
    74f2:	a0 00       	cmp	0,d0
    74f4:	c8 5d       	beq	7551 <.L12>

000074f6 <.Loc.63.1>:
    74f6:	f8 62 0c    	movhu	(12,a2),d0
    74f9:	81          	mov	d0,d1

000074fa <.LVL3>:
    74fa:	f8 e1 08    	and	8,d1
    74fd:	19          	exth	d1
    74fe:	a5 00       	cmp	0,d1
    7500:	c8 55       	beq	7555 <.L4>

00007502 <.Loc.63.1>:
    7502:	f8 06 10    	mov	(16,a2),d1
    7505:	a5 00       	cmp	0,d1
    7507:	c8 4e       	beq	7555 <.L4>

00007509 <.Loc.66.1>:
    7509:	5c 40       	mov	(64,sp),a0
    750b:	f0 00       	mov	(a0),a0
    750d:	43 18       	mov	a0,(24,sp)

0000750f <.LVL4>:
    750f:	81          	mov	d0,d1
    7510:	f8 e1 02    	and	2,d1
    7513:	19          	exth	d1
    7514:	a5 00       	cmp	0,d1
    7516:	c8 63       	beq	7579 <.L62>

00007518 <.L39>:
    7518:	0c          	clr	d3
    7519:	8e          	mov	d3,d2
    751a:	5f 18       	mov	(24,sp),a3

0000751c <.L51>:
    751c:	aa 00       	cmp	0,d2
    751e:	c9 05       	bne	7523 <.L0_0>
    7520:	cc d8 00    	jmp	75f8 <.L8>

00007523 <.L0_0>:
    7523:	f8 06 1c    	mov	(28,a2),d1
    7526:	4e 0c       	mov	d3,(12,sp)
    7528:	88          	mov	d2,d0
    7529:	fa ca 00 04 	cmp	1024,d2
    752d:	c7 05       	bls	7532 <.L9>
    752f:	2c 00 04    	mov	1024,d0

00007532 <.L9>:
    7532:	42 10       	mov	d0,(16,sp)
    7534:	f8 22 24    	mov	(36,a2),a0
    7537:	58 38       	mov	(56,sp),d0
    7539:	f0 f0       	calls	(a0)

0000753b <.LVL6>:
    753b:	a0 00       	cmp	0,d0
    753d:	c1 05       	bgt	7542 <.L0_1>
    753f:	cc e8 00    	jmp	7627 <.L23>

00007542 <.L0_1>:
    7542:	e3          	add	d0,d3

00007543 <.Loc.101.1>:
    7543:	f1 02       	sub	d0,d2

00007545 <.Loc.103.1>:
    7545:	5c 40       	mov	(64,sp),a0
    7547:	f8 04 08    	mov	(8,a0),d1
    754a:	f1 01       	sub	d0,d1
    754c:	f8 14 08    	mov	d1,(8,a0)
    754f:	c9 cd       	bne	751c <.L51>

00007551 <.L12>:
	...

00007552 <.Loc.267.1>:
    7552:	df f0 34    	ret	[d2,d3,a2,a3],52

00007555 <.L4>:
    7555:	58 38       	mov	(56,sp),d0
    7557:	f1 d9       	mov	a2,d1
    7559:	dd d7 ba ff 	call	3030 <___swsetup_r>,[],0
    755d:	ff 00 00 

00007560 <.LVL11>:
    7560:	a0 00       	cmp	0,d0
    7562:	c8 05       	beq	7567 <.L0_2>
    7564:	cc 3e 03    	jmp	78a2 <.L38>

00007567 <.L0_2>:
    7567:	f8 62 0c    	movhu	(12,a2),d0

0000756a <.Loc.66.1>:
    756a:	5c 40       	mov	(64,sp),a0
    756c:	f0 00       	mov	(a0),a0
    756e:	43 18       	mov	a0,(24,sp)

00007570 <.LVL12>:
    7570:	81          	mov	d0,d1
    7571:	f8 e1 02    	and	2,d1
    7574:	19          	exth	d1
    7575:	a5 00       	cmp	0,d1
    7577:	c9 a1       	bne	7518 <.L39>

00007579 <.L62>:
    7579:	82          	mov	d0,d2
    757a:	f8 e2 01    	and	1,d2
    757d:	c8 05       	beq	7582 <.L0_3>
    757f:	cc b6 00    	jmp	7635 <.L63>

00007582 <.L0_3>:
    7582:	8b          	mov	d2,d3
    7583:	f1 eb       	mov	d2,a3

00007585 <.L54>:
    7585:	bf 00       	cmp	0,a3
    7587:	c8 65       	beq	75ec <.L15>

00007589 <.L64>:
    7589:	f8 0a 08    	mov	(8,a2),d2

0000758c <.LVL14>:
    758c:	81          	mov	d0,d1
    758d:	fa e1 00 02 	and	512,d1
    7591:	19          	exth	d1
    7592:	a5 00       	cmp	0,d1
    7594:	c9 05       	bne	7599 <.L0_4>
    7596:	cc 8e 01    	jmp	7724 <.L16>

00007599 <.L0_4>:
    7599:	4a 1c       	mov	d2,(28,sp)
    759b:	f1 ab       	cmp	d2,a3
    759d:	c6 05       	bcc	75a2 <.L0_5>
    759f:	cc 0c 02    	jmp	77ab <.L17>

000075a2 <.L0_5>:
    75a2:	81          	mov	d0,d1
    75a3:	fa e1 80 04 	and	1152,d1
    75a7:	c8 05       	beq	75ac <.L0_6>
    75a9:	cc 49 02    	jmp	77f2 <.L18>

000075ac <.L0_6>:
    75ac:	72          	mov	(a2),d0

000075ad <.Loc.126.1>:
    75ad:	9d          	mov	a3,a1

000075ae <.Loc.123.1>:
    75ae:	4a 20       	mov	d2,(32,sp)

000075b0 <.Loc.126.1>:
    75b0:	f1 de       	mov	a3,d2

000075b2 <.LVL15>:
    75b2:	5c 1c       	mov	(28,sp),a0
    75b4:	43 0c       	mov	a0,(12,sp)
    75b6:	8d          	mov	d3,d1
    75b7:	47 14       	mov	a1,(20,sp)
    75b9:	dd 4c 03 00 	call	7905 <_memmove>,[],0
    75bd:	00 00 00 

000075c0 <.LVL16>:
    75c0:	f8 02 08    	mov	(8,a2),d0
    75c3:	59 20       	mov	(32,sp),d1
    75c5:	f1 04       	sub	d1,d0
    75c7:	f8 12 08    	mov	d0,(8,a2)

000075ca <.Loc.175.1>:
    75ca:	72          	mov	(a2),d0
    75cb:	5c 1c       	mov	(28,sp),a0
    75cd:	f1 50       	add	a0,d0
    75cf:	62          	mov	d0,(a2)

000075d0 <.LVL17>:
    75d0:	5d 14       	mov	(20,sp),a1

000075d2 <.L25>:
    75d2:	f1 57       	add	a1,d3

000075d4 <.Loc.203.1>:
    75d4:	f1 37       	sub	a1,a3

000075d6 <.Loc.205.1>:
    75d6:	5c 40       	mov	(64,sp),a0
    75d8:	f8 00 08    	mov	(8,a0),d0
    75db:	f1 08       	sub	d2,d0
    75dd:	f8 10 08    	mov	d0,(8,a0)
    75e0:	c9 05       	bne	75e5 <.L0_7>
    75e2:	cc 6f ff    	jmp	7551 <.L12>

000075e5 <.L0_7>:
    75e5:	f8 62 0c    	movhu	(12,a2),d0

000075e8 <.Loc.122.1>:
    75e8:	bf 00       	cmp	0,a3
    75ea:	c9 9f       	bne	7589 <.L64>

000075ec <.L15>:
    75ec:	5c 18       	mov	(24,sp),a0
    75ee:	7c          	mov	(a0),d3
    75ef:	f8 2c 04    	mov	(4,a0),a3
    75f2:	20 08       	add	8,a0
    75f4:	43 18       	mov	a0,(24,sp)

000075f6 <.LVL24>:
    75f6:	ca 8f       	bra	7585 <.L54>

000075f8 <.L8>:
    75f8:	7f          	mov	(a3),d3
    75f9:	f8 0b 04    	mov	(4,a3),d2
    75fc:	23 08       	add	8,a3
    75fe:	cc 1e ff    	jmp	751c <.L51>

00007601 <.L21>:
    7601:	43 0c       	mov	a0,(12,sp)
    7603:	58 38       	mov	(56,sp),d0
    7605:	f2 e1       	mov	mdr,d1
    7607:	dd 0e 04 00 	call	7a15 <__realloc_r>,[],0
    760b:	00 00 00 

0000760e <.LVL30>:
    760e:	91          	mov	a0,a1

0000760f <.LVL31>:
    760f:	b0 00       	cmp	0,a0
    7611:	c8 05       	beq	7616 <.L0_8>
    7613:	cc 49 02    	jmp	785c <.L24>

00007616 <.L0_8>:
    7616:	58 38       	mov	(56,sp),d0
    7618:	f8 06 10    	mov	(16,a2),d1
    761b:	dd 39 d5 ff 	call	4b54 <__free_r>,[],0
    761f:	ff 00 00 

00007622 <.L58>:
    7622:	80 0c       	mov	12,d0
    7624:	5c 38       	mov	(56,sp),a0
    7626:	60          	mov	d0,(a0)

00007627 <.L23>:
    7627:	f8 62 0c    	movhu	(12,a2),d0
    762a:	f8 e4 40    	or	64,d0
    762d:	f8 72 0c    	movhu	d0,(12,a2)

00007630 <.Loc.266.1>:
    7630:	80 ff       	mov	-1,d0

00007632 <.L70>:
    7632:	df f0 34    	ret	[d2,d3,a2,a3],52

00007635 <.L63>:
    7635:	f1 e7       	mov	d1,a3
    7637:	46 20       	mov	d1,(32,sp)
    7639:	46 1c       	mov	d1,(28,sp)
    763b:	86          	mov	d1,d2

0000763c <.L52>:
    763c:	aa 00       	cmp	0,d2
    763e:	c8 5e       	beq	769c <.L29>

00007640 <.L68>:
    7640:	59 20       	mov	(32,sp),d1
    7642:	a5 00       	cmp	0,d1
    7644:	c8 6c       	beq	76b0 <.L65>

00007646 <.L30>:
    7646:	9d          	mov	a3,a1
    7647:	f1 ab       	cmp	d2,a3
    7649:	c7 04       	bls	764d <.L32>
    764b:	f1 e9       	mov	d2,a1

0000764d <.L32>:
    764d:	f8 0e 08    	mov	(8,a2),d3
    7650:	f8 22 14    	mov	(20,a2),a0

00007653 <.LVL38>:
    7653:	72          	mov	(a2),d0
    7654:	f8 06 10    	mov	(16,a2),d1
    7657:	a4          	cmp	d1,d0
    7658:	c7 0b       	bls	7663 <.L0_9>

0000765a <.Loc.228.1>:
    765a:	f1 53       	add	a0,d3

0000765c <.LVL39>:
    765c:	f1 ad       	cmp	d3,a1
    765e:	c3 05       	ble	7663 <.L0_9>
    7660:	cc 9b 00    	jmp	76fb <.L66>

00007663 <.L0_9>:
    7663:	b1          	cmp	a0,a1
    7664:	c2 05       	bge	7669 <.L0_10>
    7666:	cc 1e 01    	jmp	7784 <.L35>

00007669 <.L0_10>:
    7669:	f8 06 1c    	mov	(28,a2),d1
    766c:	58 1c       	mov	(28,sp),d0
    766e:	42 0c       	mov	d0,(12,sp)
    7670:	43 10       	mov	a0,(16,sp)
    7672:	f8 22 24    	mov	(36,a2),a0

00007675 <.LVL41>:
    7675:	58 38       	mov	(56,sp),d0
    7677:	f0 f0       	calls	(a0)

00007679 <.LVL42>:
    7679:	83          	mov	d0,d3

0000767a <.LVL43>:
    767a:	a0 00       	cmp	0,d0
    767c:	c3 ab       	ble	7627 <.L23>

0000767e <.Loc.250.1>:
    767e:	f1 2f       	sub	d3,a3
    7680:	c8 51       	beq	76d1 <.L67>

00007682 <.L36>:
    7682:	59 1c       	mov	(28,sp),d1
    7684:	ed          	add	d3,d1
    7685:	46 1c       	mov	d1,(28,sp)

00007687 <.LVL46>:
    7687:	f1 0e       	sub	d3,d2

00007689 <.Loc.260.1>:
    7689:	5c 40       	mov	(64,sp),a0
    768b:	f8 00 08    	mov	(8,a0),d0
    768e:	f1 0c       	sub	d3,d0
    7690:	f8 10 08    	mov	d0,(8,a0)
    7693:	c9 05       	bne	7698 <.L0_11>
    7695:	cc bc fe    	jmp	7551 <.L12>

00007698 <.L0_11>:
    7698:	aa 00       	cmp	0,d2
    769a:	c9 a6       	bne	7640 <.L68>

0000769c <.L29>:
    769c:	5c 18       	mov	(24,sp),a0
    769e:	f0 00       	mov	(a0),a0
    76a0:	43 1c       	mov	a0,(28,sp)

000076a2 <.LVL50>:
    76a2:	5c 18       	mov	(24,sp),a0

000076a4 <.LVL51>:
    76a4:	f8 08 04    	mov	(4,a0),d2
    76a7:	20 08       	add	8,a0
    76a9:	43 18       	mov	a0,(24,sp)

000076ab <.LVL53>:
    76ab:	00          	clr	d0
    76ac:	42 20       	mov	d0,(32,sp)
    76ae:	ca 8e       	bra	763c <.L52>

000076b0 <.L65>:
    76b0:	4a 0c       	mov	d2,(12,sp)
    76b2:	58 1c       	mov	(28,sp),d0
    76b4:	85 0a       	mov	10,d1
    76b6:	dd 9d e0 ff 	call	5753 <_memchr>,[],0
    76ba:	ff 00 00 

000076bd <.LVL55>:
    76bd:	b0 00       	cmp	0,a0
    76bf:	c9 05       	bne	76c4 <.L0_12>
    76c1:	cc d7 01    	jmp	7898 <.L31>

000076c4 <.L0_12>:
    76c4:	93          	mov	a0,a3

000076c5 <.LVL56>:
    76c5:	4d          	inc	a3
    76c6:	5c 1c       	mov	(28,sp),a0

000076c8 <.LVL57>:
    76c8:	f1 33       	sub	a0,a3

000076ca <.LVL58>:
    76ca:	80 01       	mov	1,d0
    76cc:	42 20       	mov	d0,(32,sp)
    76ce:	cc 78 ff    	jmp	7646 <.L30>

000076d1 <.L67>:
    76d1:	58 38       	mov	(56,sp),d0
    76d3:	f1 d9       	mov	a2,d1
    76d5:	dd 45 d1 ff 	call	481a <__fflush_r>,[],0
    76d9:	ff 00 00 

000076dc <.LVL60>:
    76dc:	a0 00       	cmp	0,d0
    76de:	c8 05       	beq	76e3 <.L0_13>
    76e0:	cc 47 ff    	jmp	7627 <.L23>

000076e3 <.L0_13>:
    76e3:	4f 20       	mov	a3,(32,sp)

000076e5 <.Loc.257.1>:
    76e5:	59 1c       	mov	(28,sp),d1
    76e7:	ed          	add	d3,d1
    76e8:	46 1c       	mov	d1,(28,sp)

000076ea <.LVL61>:
    76ea:	f1 0e       	sub	d3,d2

000076ec <.Loc.260.1>:
    76ec:	5c 40       	mov	(64,sp),a0
    76ee:	f8 00 08    	mov	(8,a0),d0
    76f1:	f1 0c       	sub	d3,d0
    76f3:	f8 10 08    	mov	d0,(8,a0)
    76f6:	c9 a2       	bne	7698 <.L0_11>

000076f8 <.LVL63>:
    76f8:	cc 59 fe    	jmp	7551 <.L12>

000076fb <.L66>:
    76fb:	4e 0c       	mov	d3,(12,sp)
    76fd:	59 1c       	mov	(28,sp),d1
    76ff:	dd 06 02 00 	call	7905 <_memmove>,[],0
    7703:	00 00 00 

00007706 <.LVL65>:
    7706:	72          	mov	(a2),d0
    7707:	ec          	add	d3,d0
    7708:	62          	mov	d0,(a2)

00007709 <.Loc.234.1>:
    7709:	58 38       	mov	(56,sp),d0
    770b:	f1 d9       	mov	a2,d1
    770d:	dd 0d d1 ff 	call	481a <__fflush_r>,[],0
    7711:	ff 00 00 

00007714 <.LVL66>:
    7714:	a0 00       	cmp	0,d0
    7716:	c8 05       	beq	771b <.L0_14>
    7718:	cc 0f ff    	jmp	7627 <.L23>

0000771b <.L0_14>:
    771b:	f1 2f       	sub	d3,a3
    771d:	c8 05       	beq	7722 <.L0_15>
    771f:	cc 63 ff    	jmp	7682 <.L36>

00007722 <.L0_15>:
    7722:	ca af       	bra	76d1 <.L67>

00007724 <.L16>:
    7724:	72          	mov	(a2),d0
    7725:	f8 06 10    	mov	(16,a2),d1
    7728:	a4          	cmp	d1,d0
    7729:	c7 06       	bls	772f <.L26>

0000772b <.Loc.178.1>:
    772b:	f1 ab       	cmp	d2,a3
    772d:	c5 26       	bhi	7753 <.L69>

0000772f <.L26>:
    772f:	f8 22 14    	mov	(20,a2),a0

00007732 <.LVL69>:
    7732:	b3          	cmp	a0,a3
    7733:	c6 05       	bcc	7738 <.L0_16>
    7735:	cc a1 00    	jmp	77d6 <.L27>

00007738 <.L0_16>:
    7738:	f8 06 1c    	mov	(28,a2),d1
    773b:	4e 0c       	mov	d3,(12,sp)
    773d:	43 10       	mov	a0,(16,sp)
    773f:	f8 22 24    	mov	(36,a2),a0

00007742 <.LVL70>:
    7742:	58 38       	mov	(56,sp),d0
    7744:	f0 f0       	calls	(a0)

00007746 <.LVL71>:
    7746:	82          	mov	d0,d2

00007747 <.LVL72>:
    7747:	a0 00       	cmp	0,d0
    7749:	c1 05       	bgt	774e <.L0_17>
    774b:	cc dc fe    	jmp	7627 <.L23>

0000774e <.L0_17>:
    774e:	f1 e1       	mov	d0,a1
    7750:	cc 82 fe    	jmp	75d2 <.L25>

00007753 <.L69>:
    7753:	4a 0c       	mov	d2,(12,sp)
    7755:	8d          	mov	d3,d1
    7756:	4a 14       	mov	d2,(20,sp)
    7758:	dd ad 01 00 	call	7905 <_memmove>,[],0
    775c:	00 00 00 

0000775f <.LVL74>:
    775f:	72          	mov	(a2),d0
    7760:	e8          	add	d2,d0
    7761:	62          	mov	d0,(a2)

00007762 <.Loc.184.1>:
    7762:	58 38       	mov	(56,sp),d0
    7764:	f1 d9       	mov	a2,d1
    7766:	dd b4 d0 ff 	call	481a <__fflush_r>,[],0
    776a:	ff 00 00 

0000776d <.LVL75>:
    776d:	5d 14       	mov	(20,sp),a1
    776f:	a0 00       	cmp	0,d0
    7771:	c9 05       	bne	7776 <.L0_18>
    7773:	cc 5f fe    	jmp	75d2 <.L25>

00007776 <.L0_18>:
    7776:	f8 62 0c    	movhu	(12,a2),d0
    7779:	f8 e4 40    	or	64,d0
    777c:	f8 72 0c    	movhu	d0,(12,a2)

0000777f <.Loc.266.1>:
    777f:	80 ff       	mov	-1,d0
    7781:	cc b1 fe    	jmp	7632 <.L70>

00007784 <.L35>:
    7784:	47 0c       	mov	a1,(12,sp)
    7786:	59 1c       	mov	(28,sp),d1
    7788:	47 14       	mov	a1,(20,sp)
    778a:	dd 7b 01 00 	call	7905 <_memmove>,[],0
    778e:	00 00 00 

00007791 <.LVL77>:
    7791:	f8 02 08    	mov	(8,a2),d0
    7794:	5d 14       	mov	(20,sp),a1
    7796:	f1 14       	sub	a1,d0
    7798:	f8 12 08    	mov	d0,(8,a2)

0000779b <.Loc.248.1>:
    779b:	72          	mov	(a2),d0
    779c:	f1 54       	add	a1,d0
    779e:	62          	mov	d0,(a2)
    779f:	f1 d7       	mov	a1,d3

000077a1 <.LVL78>:
    77a1:	f1 2f       	sub	d3,a3
    77a3:	c8 05       	beq	77a8 <.L0_19>
    77a5:	cc dd fe    	jmp	7682 <.L36>

000077a8 <.L0_19>:
    77a8:	cc 29 ff    	jmp	76d1 <.L67>

000077ab <.L17>:
    77ab:	4f 20       	mov	a3,(32,sp)

000077ad <.LVL81>:
    77ad:	72          	mov	(a2),d0
    77ae:	9d          	mov	a3,a1
    77af:	f1 de       	mov	a3,d2
    77b1:	4f 1c       	mov	a3,(28,sp)

000077b3 <.Loc.173.1>:
    77b3:	5c 1c       	mov	(28,sp),a0
    77b5:	43 0c       	mov	a0,(12,sp)
    77b7:	8d          	mov	d3,d1
    77b8:	47 14       	mov	a1,(20,sp)
    77ba:	dd 4b 01 00 	call	7905 <_memmove>,[],0
    77be:	00 00 00 

000077c1 <.LVL82>:
    77c1:	f8 02 08    	mov	(8,a2),d0
    77c4:	59 20       	mov	(32,sp),d1
    77c6:	f1 04       	sub	d1,d0
    77c8:	f8 12 08    	mov	d0,(8,a2)

000077cb <.Loc.175.1>:
    77cb:	72          	mov	(a2),d0
    77cc:	5c 1c       	mov	(28,sp),a0
    77ce:	f1 50       	add	a0,d0
    77d0:	62          	mov	d0,(a2)
    77d1:	5d 14       	mov	(20,sp),a1
    77d3:	cc ff fd    	jmp	75d2 <.L25>

000077d6 <.L27>:
    77d6:	f1 de       	mov	a3,d2

000077d8 <.LVL84>:
    77d8:	4f 0c       	mov	a3,(12,sp)
    77da:	8d          	mov	d3,d1
    77db:	dd 2a 01 00 	call	7905 <_memmove>,[],0
    77df:	00 00 00 

000077e2 <.LVL85>:
    77e2:	f8 02 08    	mov	(8,a2),d0
    77e5:	f1 1c       	sub	a3,d0
    77e7:	f8 12 08    	mov	d0,(8,a2)

000077ea <.Loc.200.1>:
    77ea:	72          	mov	(a2),d0
    77eb:	f1 5c       	add	a3,d0
    77ed:	62          	mov	d0,(a2)
    77ee:	9d          	mov	a3,a1
    77ef:	cc e3 fd    	jmp	75d2 <.L25>

000077f2 <.L18>:
    77f2:	f8 06 10    	mov	(16,a2),d1
    77f5:	f2 f6       	mov	d1,mdr
    77f7:	f0 02       	mov	(a2),a0
    77f9:	f1 24       	sub	d1,a0
    77fb:	43 1c       	mov	a0,(28,sp)

000077fd <.LVL86>:
    77fd:	f8 22 14    	mov	(20,a2),a0

00007800 <.LVL87>:
    7800:	f1 d2       	mov	a0,d2

00007802 <.LVL88>:
    7802:	ea          	add	d2,d2
    7803:	f1 52       	add	a0,d2
    7805:	89          	mov	d2,d1
    7806:	f8 c5 1f    	lsr	31,d1
    7809:	e6          	add	d1,d2
    780a:	f8 ca 01    	asr	1,d2

0000780d <.LVL89>:
    780d:	f1 e8       	mov	d2,a0
    780f:	5d 1c       	mov	(28,sp),a1
    7811:	45          	inc	a1
    7812:	f1 7d       	add	a3,a1
    7814:	f1 96       	cmp	a1,d2
    7816:	c6 05       	bcc	781b <.L20>

00007818 <.Loc.139.1>:
    7818:	f1 d6       	mov	a1,d2
    781a:	94          	mov	a1,a0

0000781b <.L20>:
    781b:	fa e0 00 04 	and	1024,d0
    781f:	18          	exth	d0
    7820:	a0 00       	cmp	0,d0
    7822:	c9 05       	bne	7827 <.L0_20>
    7824:	cc dd fd    	jmp	7601 <.L21>

00007827 <.L0_20>:
    7827:	58 38       	mov	(56,sp),d0
    7829:	f1 d1       	mov	a0,d1
    782b:	dd f4 d7 ff 	call	501f <__malloc_r>,[],0
    782f:	ff 00 00 

00007832 <.LVL91>:
    7832:	b0 00       	cmp	0,a0
    7834:	c9 05       	bne	7839 <.L0_21>
    7836:	cc ec fd    	jmp	7622 <.L58>

00007839 <.L0_21>:
    7839:	f8 06 10    	mov	(16,a2),d1
    783c:	58 1c       	mov	(28,sp),d0
    783e:	42 0c       	mov	d0,(12,sp)
    7840:	f1 d0       	mov	a0,d0
    7842:	43 14       	mov	a0,(20,sp)
    7844:	dd 7b df ff 	call	57bf <_memcpy>,[],0
    7848:	ff 00 00 

0000784b <.LVL92>:
    784b:	f8 62 0c    	movhu	(12,a2),d0
    784e:	fc e0 7f fb 	and	-1153,d0
    7852:	ff ff 
    7854:	f8 e4 80    	or	128,d0
    7857:	f8 72 0c    	movhu	d0,(12,a2)
    785a:	5d 14       	mov	(20,sp),a1

0000785c <.L24>:
    785c:	f8 36 10    	mov	a1,(16,a2)

0000785f <.Loc.166.1>:
    785f:	58 1c       	mov	(28,sp),d0
    7861:	f1 54       	add	a1,d0
    7863:	62          	mov	d0,(a2)

00007864 <.Loc.167.1>:
    7864:	f8 1a 14    	mov	d2,(20,a2)

00007867 <.Loc.168.1>:
    7867:	4f 20       	mov	a3,(32,sp)

00007869 <.LVL94>:
    7869:	59 1c       	mov	(28,sp),d1
    786b:	f1 06       	sub	d1,d2

0000786d <.LVL95>:
    786d:	f8 1a 08    	mov	d2,(8,a2)
    7870:	9d          	mov	a3,a1

00007871 <.LVL96>:
    7871:	f1 de       	mov	a3,d2
    7873:	4f 1c       	mov	a3,(28,sp)

00007875 <.LBE3>:
    7875:	5c 1c       	mov	(28,sp),a0
    7877:	43 0c       	mov	a0,(12,sp)
    7879:	8d          	mov	d3,d1
    787a:	47 14       	mov	a1,(20,sp)
    787c:	dd 89 00 00 	call	7905 <_memmove>,[],0
    7880:	00 00 00 

00007883 <.LVL97>:
    7883:	f8 02 08    	mov	(8,a2),d0
    7886:	59 20       	mov	(32,sp),d1
    7888:	f1 04       	sub	d1,d0
    788a:	f8 12 08    	mov	d0,(8,a2)

0000788d <.Loc.175.1>:
    788d:	72          	mov	(a2),d0
    788e:	5c 1c       	mov	(28,sp),a0
    7890:	f1 50       	add	a0,d0
    7892:	62          	mov	d0,(a2)
    7893:	5d 14       	mov	(20,sp),a1
    7895:	cc 3d fd    	jmp	75d2 <.L25>

00007898 <.L31>:
    7898:	f1 eb       	mov	d2,a3

0000789a <.LVL99>:
    789a:	4d          	inc	a3

0000789b <.Loc.225.1>:
    789b:	85 01       	mov	1,d1
    789d:	46 20       	mov	d1,(32,sp)
    789f:	cc a7 fd    	jmp	7646 <.L30>

000078a2 <.L38>:
    78a2:	80 ff       	mov	-1,d0

000078a4 <.Loc.267.1>:
    78a4:	df f0 34    	ret	[d2,d3,a2,a3],52

000078a7 <__isatty_r>:
    78a7:	cf 20       	movm	[a2],(sp)

000078a9 <.LCFI0>:
    78a9:	f8 fe f4    	add	-12,sp

000078ac <.LCFI1>:
    78ac:	f1 e2       	mov	d0,a2

000078ae <.Loc.57.1>:
    78ae:	90 00       	mov	0,a0
    78b0:	fc 80 04 a5 	mov	a0,(a504 <_errno>)
    78b4:	00 00 

000078b6 <.Loc.58.1>:
    78b6:	84          	mov	d1,d0

000078b7 <.LVL1>:
    78b7:	dd b0 9c ff 	call	1567 <__isatty>,[],0
    78bb:	ff 00 00 

000078be <.LVL2>:
    78be:	a0 ff       	cmp	-1,d0
    78c0:	c8 05       	beq	78c5 <.L7>

000078c2 <.L2>:
    78c2:	df 20 10    	ret	[a2],16

000078c5 <.L7>:
    78c5:	fc a5 04 a5 	mov	(a504 <_errno>),d1
    78c9:	00 00 
    78cb:	a5 00       	cmp	0,d1
    78cd:	c8 f5       	beq	78c2 <.L2>

000078cf <.Loc.59.1>:
    78cf:	66          	mov	d1,(a2)

000078d0 <.Loc.61.1>:
    78d0:	df 20 10    	ret	[a2],16

000078d3 <__lseek_r>:
    78d3:	cf 20       	movm	[a2],(sp)

000078d5 <.LCFI0>:
    78d5:	f8 fe f0    	add	-16,sp

000078d8 <.LCFI1>:
    78d8:	f1 e2       	mov	d0,a2

000078da <.Loc.57.1>:
    78da:	90 00       	mov	0,a0
    78dc:	fc 80 04 a5 	mov	a0,(a504 <_errno>)
    78e0:	00 00 

000078e2 <.Loc.58.1>:
    78e2:	5c 24       	mov	(36,sp),a0
    78e4:	43 0c       	mov	a0,(12,sp)
    78e6:	84          	mov	d1,d0

000078e7 <.LVL1>:
    78e7:	59 20       	mov	(32,sp),d1

000078e9 <.LVL2>:
    78e9:	dd 62 9c ff 	call	154b <__lseek>,[],0
    78ed:	ff 00 00 

000078f0 <.LVL3>:
    78f0:	a0 ff       	cmp	-1,d0
    78f2:	c8 05       	beq	78f7 <.L7>

000078f4 <.L2>:
    78f4:	df 20 14    	ret	[a2],20

000078f7 <.L7>:
    78f7:	fc a5 04 a5 	mov	(a504 <_errno>),d1
    78fb:	00 00 
    78fd:	a5 00       	cmp	0,d1
    78ff:	c8 f5       	beq	78f4 <.L2>

00007901 <.Loc.59.1>:
    7901:	66          	mov	d1,(a2)

00007902 <.Loc.61.1>:
    7902:	df 20 14    	ret	[a2],20

00007905 <_memmove>:
    7905:	cf f0       	movm	[d2,d3,a2,a3],(sp)

00007907 <.LCFI0>:
    7907:	5a 1c       	mov	(28,sp),d2

00007909 <.LVL1>:
    7909:	a4          	cmp	d1,d0
    790a:	c7 24       	bls	792e <.L2>

0000790c <.Loc.92.1>:
    790c:	f1 e8       	mov	d2,a0
    790e:	f1 64       	add	d1,a0
    7910:	f1 90       	cmp	a0,d0
    7912:	c6 1c       	bcc	792e <.L2>

00007914 <.LVL2>:
    7914:	83          	mov	d0,d3
    7915:	f1 e9       	mov	d2,a1
    7917:	f1 61       	add	d0,a1

00007919 <.LVL3>:
    7919:	aa 00       	cmp	0,d2
    791b:	c8 0e       	beq	7929 <.L15>

0000791d <.L17>:
    791d:	21 ff       	add	-1,a1
    791f:	20 ff       	add	-1,a0
    7921:	f0 44       	movbu	(a0),d1
    7923:	f0 55       	movbu	d1,(a1)

00007925 <.Loc.97.1>:
    7925:	f1 ad       	cmp	d3,a1
    7927:	c9 f6       	bne	791d <.L17>

00007929 <.L15>:
    7929:	f1 e0       	mov	d0,a0
    792b:	df f0 10    	ret	[d2,d3,a2,a3],16

0000792e <.L2>:
    792e:	aa 0f       	cmp	15,d2
    7930:	c5 05       	bhi	7935 <.L0_0>
    7932:	cc 94 00    	jmp	79c6 <.L11>

00007935 <.L0_0>:
    7935:	87          	mov	d1,d3
    7936:	f2 13       	or	d0,d3
    7938:	f8 e3 03    	and	3,d3
    793b:	c8 05       	beq	7940 <.L0_1>
    793d:	cc 94 00    	jmp	79d1 <.L12>

00007940 <.L0_1>:
    7940:	f1 e7       	mov	d1,a3
    7942:	f1 e1       	mov	d0,a1
    7944:	f1 e8       	mov	d2,a0

00007946 <.L8>:
    7946:	7f          	mov	(a3),d3
    7947:	6d          	mov	d3,(a1)

00007948 <.LVL10>:
    7948:	f8 0f 04    	mov	(4,a3),d3
    794b:	f8 1d 04    	mov	d3,(4,a1)

0000794e <.LVL11>:
    794e:	f8 0f 08    	mov	(8,a3),d3
    7951:	f8 1d 08    	mov	d3,(8,a1)

00007954 <.LVL12>:
    7954:	f8 0f 0c    	mov	(12,a3),d3
    7957:	f8 1d 0c    	mov	d3,(12,a1)

0000795a <.Loc.26.2>:
    795a:	21 10       	add	16,a1

0000795c <.LVL13>:
    795c:	23 10       	add	16,a3

0000795e <.LVL14>:
    795e:	20 f0       	add	-16,a0

00007960 <.Loc.113.1>:
    7960:	b0 0f       	cmp	15,a0
    7962:	c5 e4       	bhi	7946 <.L8>

00007964 <.Loc.26.2>:
    7964:	f1 ea       	mov	d2,a2
    7966:	22 f0       	add	-16,a2
    7968:	f1 db       	mov	a2,d3
    796a:	fc e3 f0 ff 	and	-16,d3
    796e:	ff ff 
    7970:	f1 ee       	mov	d3,a2
    7972:	22 10       	add	16,a2
    7974:	f1 e0       	mov	d0,a0

00007976 <.LVL16>:
    7976:	f1 78       	add	a2,a0
    7978:	f1 d3       	mov	a0,d3
    797a:	f2 fe       	mov	d3,mdr
    797c:	f1 66       	add	d1,a2
    797e:	8b          	mov	d2,d3
    797f:	f8 e3 0f    	and	15,d3

00007982 <.LVL17>:
    7982:	af 03       	cmp	3,d3
    7984:	c7 56       	bls	79da <.L13>

00007986 <.Loc.123.1>:
    7986:	9b          	mov	a2,a3
    7987:	8d          	mov	d3,d1

00007988 <.L9>:
    7988:	f0 07       	mov	(a3),a1
    798a:	f0 14       	mov	a1,(a0)
    798c:	50          	inc4	a0
    798d:	53          	inc4	a3

0000798e <.Loc.126.1>:
    798e:	29 fc       	add	-4,d1

00007990 <.Loc.123.1>:
    7990:	a5 03       	cmp	3,d1
    7992:	c5 f6       	bhi	7988 <.L9>

00007994 <.Loc.26.2>:
    7994:	2b fc       	add	-4,d3
    7996:	f8 c7 02    	lsr	2,d3
    7999:	57          	asl2	d3
    799a:	2b 04       	add	4,d3
    799c:	f8 e2 03    	and	3,d2

0000799f <.Loc.125.1>:
    799f:	f1 6e       	add	d3,a2
    79a1:	f2 e1       	mov	mdr,d1

000079a3 <.LVL22>:
    79a3:	f1 e5       	mov	d1,a1
    79a5:	f1 6d       	add	d3,a1

000079a7 <.LVL23>:
    79a7:	aa 00       	cmp	0,d2
    79a9:	c8 80       	beq	7929 <.L15>

000079ab <.L7>:
    79ab:	94          	mov	a1,a0
    79ac:	f1 68       	add	d2,a0

000079ae <.L10>:
    79ae:	f0 46       	movbu	(a2),d1
    79b0:	f0 55       	movbu	d1,(a1)
    79b2:	45          	inc	a1
    79b3:	49          	inc	a2

000079b4 <.Loc.134.1>:
    79b4:	b1          	cmp	a0,a1
    79b5:	c9 05       	bne	79ba <.L0_2>
    79b7:	cc 72 ff    	jmp	7929 <.L15>

000079ba <.L0_2>:
    79ba:	f0 46       	movbu	(a2),d1
    79bc:	f0 55       	movbu	d1,(a1)
    79be:	45          	inc	a1
    79bf:	49          	inc	a2

000079c0 <.Loc.134.1>:
    79c0:	b1          	cmp	a0,a1
    79c1:	c9 ed       	bne	79ae <.L10>
    79c3:	cc 66 ff    	jmp	7929 <.L15>

000079c6 <.L11>:
    79c6:	f1 e6       	mov	d1,a2
    79c8:	f1 e1       	mov	d0,a1

000079ca <.LVL30>:
    79ca:	aa 00       	cmp	0,d2
    79cc:	c9 df       	bne	79ab <.L7>

000079ce <.LVL31>:
    79ce:	cc 5b ff    	jmp	7929 <.L15>

000079d1 <.L12>:
    79d1:	f1 e1       	mov	d0,a1
    79d3:	f1 e6       	mov	d1,a2

000079d5 <.Loc.26.2>:
    79d5:	94          	mov	a1,a0
    79d6:	f1 68       	add	d2,a0
    79d8:	ca d6       	bra	79ae <.L10>

000079da <.L13>:
    79da:	91          	mov	a0,a1

000079db <.Loc.123.1>:
    79db:	8e          	mov	d3,d2

000079dc <.LVL34>:
    79dc:	aa 00       	cmp	0,d2
    79de:	c9 cd       	bne	79ab <.L7>

000079e0 <.LVL35>:
    79e0:	cc 49 ff    	jmp	7929 <.L15>

000079e3 <__read_r>:
    79e3:	cf 20       	movm	[a2],(sp)

000079e5 <.LCFI0>:
    79e5:	f8 fe f0    	add	-16,sp

000079e8 <.LCFI1>:
    79e8:	f1 e2       	mov	d0,a2

000079ea <.Loc.57.1>:
    79ea:	90 00       	mov	0,a0
    79ec:	fc 80 04 a5 	mov	a0,(a504 <_errno>)
    79f0:	00 00 

000079f2 <.Loc.58.1>:
    79f2:	5c 24       	mov	(36,sp),a0
    79f4:	43 0c       	mov	a0,(12,sp)
    79f6:	84          	mov	d1,d0

000079f7 <.LVL1>:
    79f7:	59 20       	mov	(32,sp),d1

000079f9 <.LVL2>:
    79f9:	dd 0f 9b ff 	call	1508 <__read>,[],0
    79fd:	ff 00 00 

00007a00 <.LVL3>:
    7a00:	a0 ff       	cmp	-1,d0
    7a02:	c8 05       	beq	7a07 <.L7>

00007a04 <.L2>:
    7a04:	df 20 14    	ret	[a2],20

00007a07 <.L7>:
    7a07:	fc a5 04 a5 	mov	(a504 <_errno>),d1
    7a0b:	00 00 
    7a0d:	a5 00       	cmp	0,d1
    7a0f:	c8 f5       	beq	7a04 <.L2>

00007a11 <.Loc.59.1>:
    7a11:	66          	mov	d1,(a2)

00007a12 <.Loc.61.1>:
    7a12:	df 20 14    	ret	[a2],20

00007a15 <__realloc_r>:
    7a15:	cf f0       	movm	[d2,d3,a2,a3],(sp)

00007a17 <.LCFI0>:
    7a17:	f8 fe d8    	add	-40,sp

00007a1a <.LCFI1>:
    7a1a:	42 3c       	mov	d0,(60,sp)
    7a1c:	f1 e6       	mov	d1,a2

00007a1e <.Loc.2806.1>:
    7a1e:	a5 00       	cmp	0,d1
    7a20:	c9 05       	bne	7a25 <.L0_0>
    7a22:	cc 2c 02    	jmp	7c4e <.L48>

00007a25 <.L0_0>:
    7a25:	58 3c       	mov	(60,sp),d0
    7a27:	dd e9 dd ff 	call	5810 <___malloc_lock>,[],0
    7a2b:	ff 00 00 

00007a2e <.LVL1>:
    7a2e:	f1 da       	mov	a2,d2
    7a30:	2a f8       	add	-8,d2
    7a32:	4a 1c       	mov	d2,(28,sp)

00007a34 <.LVL2>:
    7a34:	f8 02 fc    	mov	(-4,a2),d0
    7a37:	83          	mov	d0,d3
    7a38:	f8 c7 02    	lsr	2,d3
    7a3b:	57          	asl2	d3

00007a3c <.LVL3>:
    7a3c:	59 44       	mov	(68,sp),d1
    7a3e:	29 0b       	add	11,d1
    7a40:	a5 16       	cmp	22,d1
    7a42:	c5 05       	bhi	7a47 <.L0_1>
    7a44:	cc 92 00    	jmp	7ad6 <.L40>

00007a47 <.L0_1>:
    7a47:	fc e1 f8 ff 	and	-8,d1
    7a4b:	ff ff 
    7a4d:	f1 e7       	mov	d1,a3

00007a4f <.LVL4>:
    7a4f:	46 18       	mov	d1,(24,sp)
    7a51:	f8 ea 06    	bnc	7a57 <.L0_2>
    7a54:	cc 69 01    	jmp	7bbd <.L5>

00007a57 <.L0_2>:
    7a57:	5d 44       	mov	(68,sp),a1
    7a59:	bd          	cmp	a3,a1
    7a5a:	c7 05       	bls	7a5f <.L0_3>
    7a5c:	cc 61 01    	jmp	7bbd <.L5>

00007a5f <.L0_3>:
    7a5f:	59 18       	mov	(24,sp),d1
    7a61:	a7          	cmp	d1,d3
    7a62:	c2 7c       	bge	7ade <.L7>

00007a64 <.Loc.2861.1>:
    7a64:	5c 1c       	mov	(28,sp),a0
    7a66:	f1 6c       	add	d3,a0

00007a68 <.LVL6>:
    7a68:	fc a1 bc a0 	mov	(a0bc <___malloc_av_+0x8>),a1
    7a6c:	00 00 
    7a6e:	47 20       	mov	a1,(32,sp)
    7a70:	b1          	cmp	a0,a1
    7a71:	c9 05       	bne	7a76 <.L0_4>
    7a73:	cc ec 01    	jmp	7c5f <.L8>

00007a76 <.L0_4>:
    7a76:	f8 04 04    	mov	(4,a0),d1
    7a79:	86          	mov	d1,d2

00007a7a <.LVL7>:
    7a7a:	f8 c6 01    	lsr	1,d2
    7a7d:	ea          	add	d2,d2
    7a7e:	91          	mov	a0,a1
    7a7f:	f1 69       	add	d2,a1
    7a81:	f8 09 04    	mov	(4,a1),d2
    7a84:	f8 e2 01    	and	1,d2
    7a87:	c8 05       	beq	7a8c <.L0_5>
    7a89:	cc 99 00    	jmp	7b22 <.L49>

00007a8c <.L0_5>:
    7a8c:	86          	mov	d1,d2
    7a8d:	f8 c6 02    	lsr	2,d2
    7a90:	56          	asl2	d2
    7a91:	f2 fa       	mov	d2,mdr

00007a93 <.LVL8>:
    7a93:	ee          	add	d3,d2

00007a94 <.LVL9>:
    7a94:	5d 18       	mov	(24,sp),a1
    7a96:	f1 96       	cmp	a1,d2
    7a98:	c2 05       	bge	7a9d <.L0_6>
    7a9a:	cc 8d 00    	jmp	7b27 <.L10>

00007a9d <.L0_6>:
    7a9d:	f8 24 0c    	mov	(12,a0),a1

00007aa0 <.LVL10>:
    7aa0:	f8 20 08    	mov	(8,a0),a0

00007aa3 <.LVL11>:
    7aa3:	f8 34 0c    	mov	a1,(12,a0)
    7aa6:	f8 31 08    	mov	a0,(8,a1)

00007aa9 <.LVL12>:
    7aa9:	5d 1c       	mov	(28,sp),a1

00007aab <.L11>:
    7aab:	8b          	mov	d2,d3

00007aac <.LVL14>:
    7aac:	f1 1f       	sub	a3,d3

00007aae <.LVL15>:
    7aae:	af 0f       	cmp	15,d3
    7ab0:	c5 38       	bhi	7ae8 <.L50>

00007ab2 <.L36>:
    7ab2:	f8 e0 01    	and	1,d0
    7ab5:	f2 18       	or	d2,d0
    7ab7:	f8 11 04    	mov	d0,(4,a1)

00007aba <.Loc.2991.1>:
    7aba:	f1 69       	add	d2,a1

00007abc <.LVL16>:
    7abc:	f8 01 04    	mov	(4,a1),d0
    7abf:	f8 e4 01    	or	1,d0
    7ac2:	f8 11 04    	mov	d0,(4,a1)

00007ac5 <.Loc.2995.1>:
    7ac5:	58 3c       	mov	(60,sp),d0
    7ac7:	dd 4c dd ff 	call	5813 <___malloc_unlock>,[],0
    7acb:	ff 00 00 

00007ace <.LVL17>:
    7ace:	f1 da       	mov	a2,d2

00007ad0 <.L45>:
    7ad0:	f1 e8       	mov	d2,a0
    7ad2:	88          	mov	d2,d0
    7ad3:	df f0 38    	ret	[d2,d3,a2,a3],56

00007ad6 <.L40>:
    7ad6:	90 10       	mov	16,a0
    7ad8:	43 18       	mov	a0,(24,sp)

00007ada <.Loc.2814.1>:
    7ada:	93          	mov	a0,a3
    7adb:	cc 7c ff    	jmp	7a57 <.L0_2>

00007ade <.L7>:
    7ade:	8e          	mov	d3,d2

00007adf <.LVL20>:
    7adf:	5d 1c       	mov	(28,sp),a1

00007ae1 <.LVL21>:
    7ae1:	8b          	mov	d2,d3

00007ae2 <.LVL22>:
    7ae2:	f1 1f       	sub	a3,d3

00007ae4 <.LVL23>:
    7ae4:	af 0f       	cmp	15,d3
    7ae6:	c7 cc       	bls	7ab2 <.L36>

00007ae8 <.L50>:
    7ae8:	94          	mov	a1,a0
    7ae9:	f1 7c       	add	a3,a0

00007aeb <.LVL25>:
    7aeb:	f8 e0 01    	and	1,d0
    7aee:	f1 dd       	mov	a3,d1
    7af0:	f2 14       	or	d1,d0
    7af2:	f8 11 04    	mov	d0,(4,a1)

00007af5 <.Loc.2984.1>:
    7af5:	8c          	mov	d3,d0
    7af6:	f8 e4 01    	or	1,d0
    7af9:	f8 10 04    	mov	d0,(4,a0)

00007afc <.Loc.2985.1>:
    7afc:	91          	mov	a0,a1
    7afd:	f1 6d       	add	d3,a1

00007aff <.LVL26>:
    7aff:	f8 01 04    	mov	(4,a1),d0
    7b02:	f8 e4 01    	or	1,d0
    7b05:	f8 11 04    	mov	d0,(4,a1)

00007b08 <.Loc.2986.1>:
    7b08:	58 3c       	mov	(60,sp),d0
    7b0a:	f1 d1       	mov	a0,d1
    7b0c:	29 08       	add	8,d1
    7b0e:	dd 46 d0 ff 	call	4b54 <__free_r>,[],0
    7b12:	ff 00 00 

00007b15 <.LVL27>:
    7b15:	58 3c       	mov	(60,sp),d0
    7b17:	dd fc dc ff 	call	5813 <___malloc_unlock>,[],0
    7b1b:	ff 00 00 

00007b1e <.LVL28>:
    7b1e:	f1 da       	mov	a2,d2

00007b20 <.LVL29>:
    7b20:	ca b0       	bra	7ad0 <.L45>

00007b22 <.L49>:
    7b22:	08          	clr	d2
    7b23:	f2 fa       	mov	d2,mdr

00007b25 <.Loc.2890.1>:
    7b25:	f1 e8       	mov	d2,a0

00007b27 <.L10>:
    7b27:	f8 e0 01    	and	1,d0
    7b2a:	c8 05       	beq	7b2f <.L0_7>
    7b2c:	cc ab 00    	jmp	7bd7 <.L0_13>

00007b2f <.L0_7>:
    7b2f:	f8 02 f8    	mov	(-8,a2),d0
    7b32:	5d 1c       	mov	(28,sp),a1
    7b34:	f1 21       	sub	d0,a1
    7b36:	47 10       	mov	a1,(16,sp)

00007b38 <.LVL32>:
    7b38:	f8 01 04    	mov	(4,a1),d0
    7b3b:	f8 c4 02    	lsr	2,d0
    7b3e:	54          	asl2	d0

00007b3f <.LVL33>:
    7b3f:	b0 00       	cmp	0,a0
    7b41:	c9 05       	bne	7b46 <.L0_8>
    7b43:	cc 86 00    	jmp	7bc9 <.L13>

00007b46 <.L0_8>:
    7b46:	5d 20       	mov	(32,sp),a1

00007b48 <.LVL34>:
    7b48:	ec          	add	d3,d0

00007b49 <.LVL35>:
    7b49:	42 20       	mov	d0,(32,sp)
    7b4b:	f2 e2       	mov	mdr,d2
    7b4d:	58 20       	mov	(32,sp),d0
    7b4f:	e2          	add	d0,d2

00007b50 <.Loc.2906.1>:
    7b50:	b4          	cmp	a1,a0
    7b51:	c9 05       	bne	7b56 <.L0_9>
    7b53:	cc f9 01    	jmp	7d4c <.L51>

00007b56 <.L0_9>:
    7b56:	59 18       	mov	(24,sp),d1
    7b58:	a6          	cmp	d1,d2
    7b59:	c0 73       	blt	7bcc <.L15>

00007b5b <.Loc.2926.1>:
    7b5b:	f8 00 0c    	mov	(12,a0),d0

00007b5e <.LVL36>:
    7b5e:	f8 20 08    	mov	(8,a0),a0

00007b61 <.LVL37>:
    7b61:	f8 10 0c    	mov	d0,(12,a0)
    7b64:	f1 e1       	mov	d0,a1
    7b66:	f8 31 08    	mov	a0,(8,a1)

00007b69 <.Loc.2927.1>:
    7b69:	5d 10       	mov	(16,sp),a1
    7b6b:	f8 01 0c    	mov	(12,a1),d0
    7b6e:	f8 21 08    	mov	(8,a1),a0
    7b71:	f8 10 0c    	mov	d0,(12,a0)
    7b74:	f1 e1       	mov	d0,a1
    7b76:	f8 31 08    	mov	a0,(8,a1)

00007b79 <.LVL40>:
    7b79:	5d 10       	mov	(16,sp),a1
    7b7b:	21 08       	add	8,a1

00007b7d <.LBB2>:
    7b7d:	8c          	mov	d3,d0

00007b7e <.LVL42>:
    7b7e:	28 fc       	add	-4,d0

00007b80 <.LVL43>:
    7b80:	a0 24       	cmp	36,d0
    7b82:	c7 05       	bls	7b87 <.L0_10>
    7b84:	cc 89 02    	jmp	7e0d <.L21>

00007b87 <.L0_10>:
    7b87:	a0 13       	cmp	19,d0
    7b89:	c5 05       	bhi	7b8e <.L0_11>
    7b8b:	cc 5c 01    	jmp	7ce7 <.L42>

00007b8e <.L0_11>:
    7b8e:	76          	mov	(a2),d1
    7b8f:	5c 10       	mov	(16,sp),a0

00007b91 <.LVL45>:
    7b91:	f8 14 08    	mov	d1,(8,a0)

00007b94 <.LVL46>:
    7b94:	f8 06 04    	mov	(4,a2),d1
    7b97:	f8 14 0c    	mov	d1,(12,a0)

00007b9a <.LVL47>:
    7b9a:	a0 1b       	cmp	27,d0
    7b9c:	c7 05       	bls	7ba1 <.L0_12>
    7b9e:	cc be 02    	jmp	7e5c <.L23>

00007ba1 <.L0_12>:
    7ba1:	20 10       	add	16,a0

00007ba3 <.LVL48>:
    7ba3:	22 08       	add	8,a2

00007ba5 <.LVL49>:
    7ba5:	72          	mov	(a2),d0

00007ba6 <.LVL50>:
    7ba6:	60          	mov	d0,(a0)

00007ba7 <.LVL51>:
    7ba7:	f8 02 04    	mov	(4,a2),d0
    7baa:	f8 10 04    	mov	d0,(4,a0)

00007bad <.LVL52>:
    7bad:	f8 02 08    	mov	(8,a2),d0
    7bb0:	f8 10 08    	mov	d0,(8,a0)
    7bb3:	5c 10       	mov	(16,sp),a0

00007bb5 <.LVL53>:
    7bb5:	f8 00 04    	mov	(4,a0),d0
    7bb8:	96          	mov	a1,a2

00007bb9 <.LVL54>:
    7bb9:	91          	mov	a0,a1

00007bba <.LVL55>:
    7bba:	cc f1 fe    	jmp	7aab <.L11>

00007bbd <.L5>:
    7bbd:	80 0c       	mov	12,d0
    7bbf:	5d 3c       	mov	(60,sp),a1
    7bc1:	61          	mov	d0,(a1)

00007bc2 <.Loc.2820.1>:
    7bc2:	08          	clr	d2

00007bc3 <.LVL57>:
    7bc3:	f1 e8       	mov	d2,a0
    7bc5:	88          	mov	d2,d0
    7bc6:	df f0 38    	ret	[d2,d3,a2,a3],56

00007bc9 <.L13>:
    7bc9:	ec          	add	d3,d0

00007bca <.LVL59>:
    7bca:	42 20       	mov	d0,(32,sp)

00007bcc <.L15>:
    7bcc:	5d 20       	mov	(32,sp),a1
    7bce:	58 18       	mov	(24,sp),d0
    7bd0:	f1 a1       	cmp	d0,a1
    7bd2:	c0 05       	blt	7bd7 <.L0_13>
    7bd4:	cc a8 00    	jmp	7c7c <.L52>

00007bd7 <.L0_13>:
    7bd7:	58 3c       	mov	(60,sp),d0
    7bd9:	59 44       	mov	(68,sp),d1
    7bdb:	dd 44 d4 ff 	call	501f <__malloc_r>,[],0
    7bdf:	ff 00 00 

00007be2 <.LVL62>:
    7be2:	f1 d2       	mov	a0,d2

00007be4 <.LVL63>:
    7be4:	b0 00       	cmp	0,a0
    7be6:	c8 59       	beq	7c3f <.L46>

00007be8 <.LVL64>:
    7be8:	f8 02 fc    	mov	(-4,a2),d0
    7beb:	20 f8       	add	-8,a0

00007bed <.LVL65>:
    7bed:	81          	mov	d0,d1
    7bee:	f8 c5 01    	lsr	1,d1
    7bf1:	e5          	add	d1,d1
    7bf2:	5d 1c       	mov	(28,sp),a1
    7bf4:	f1 55       	add	a1,d1
    7bf6:	f1 a4       	cmp	d1,a0
    7bf8:	c9 05       	bne	7bfd <.L0_14>
    7bfa:	cc 06 02    	jmp	7e00 <.L53>

00007bfd <.L0_14>:
    7bfd:	8c          	mov	d3,d0
    7bfe:	28 fc       	add	-4,d0

00007c00 <.LVL66>:
    7c00:	a0 24       	cmp	36,d0
    7c02:	c7 05       	bls	7c07 <.L0_15>
    7c04:	cc 2e 01    	jmp	7d32 <.L31>

00007c07 <.L0_15>:
    7c07:	a0 13       	cmp	19,d0
    7c09:	c5 05       	bhi	7c0e <.L0_16>
    7c0b:	cc c8 00    	jmp	7cd3 <.L44>

00007c0e <.L0_16>:
    7c0e:	76          	mov	(a2),d1
    7c0f:	f1 e9       	mov	d2,a1
    7c11:	65          	mov	d1,(a1)

00007c12 <.LVL68>:
    7c12:	f8 06 04    	mov	(4,a2),d1
    7c15:	f8 15 04    	mov	d1,(4,a1)

00007c18 <.LVL69>:
    7c18:	a0 1b       	cmp	27,d0
    7c1a:	c7 05       	bls	7c1f <.L0_17>
    7c1c:	cc b9 01    	jmp	7dd5 <.L33>

00007c1f <.L0_17>:
    7c1f:	f1 e8       	mov	d2,a0

00007c21 <.LVL70>:
    7c21:	20 08       	add	8,a0

00007c23 <.LVL71>:
    7c23:	99          	mov	a2,a1
    7c24:	21 08       	add	8,a1

00007c26 <.LVL72>:
    7c26:	71          	mov	(a1),d0

00007c27 <.LVL73>:
    7c27:	60          	mov	d0,(a0)

00007c28 <.LVL74>:
    7c28:	f8 01 04    	mov	(4,a1),d0
    7c2b:	f8 10 04    	mov	d0,(4,a0)

00007c2e <.LVL75>:
    7c2e:	f8 01 08    	mov	(8,a1),d0
    7c31:	f8 10 08    	mov	d0,(8,a0)

00007c34 <.L35>:
    7c34:	58 3c       	mov	(60,sp),d0
    7c36:	f1 d9       	mov	a2,d1
    7c38:	dd 1c cf ff 	call	4b54 <__free_r>,[],0
    7c3c:	ff 00 00 

00007c3f <.L46>:
    7c3f:	58 3c       	mov	(60,sp),d0
    7c41:	dd d2 db ff 	call	5813 <___malloc_unlock>,[],0
    7c45:	ff 00 00 

00007c48 <.LVL78>:
    7c48:	f1 e8       	mov	d2,a0
    7c4a:	88          	mov	d2,d0
    7c4b:	df f0 38    	ret	[d2,d3,a2,a3],56

00007c4e <.L48>:
    7c4e:	59 44       	mov	(68,sp),d1

00007c50 <.LVL80>:
    7c50:	dd cf d3 ff 	call	501f <__malloc_r>,[],0
    7c54:	ff 00 00 

00007c57 <.LVL81>:
    7c57:	f1 d2       	mov	a0,d2

00007c59 <.Loc.2999.1>:
    7c59:	f1 e8       	mov	d2,a0
    7c5b:	88          	mov	d2,d0
    7c5c:	df f0 38    	ret	[d2,d3,a2,a3],56

00007c5f <.L8>:
    7c5f:	5c 20       	mov	(32,sp),a0

00007c61 <.LVL83>:
    7c61:	f8 04 04    	mov	(4,a0),d1
    7c64:	f8 c5 02    	lsr	2,d1
    7c67:	55          	asl2	d1
    7c68:	f2 f6       	mov	d1,mdr

00007c6a <.LVL84>:
    7c6a:	f1 e4       	mov	d1,a0
    7c6c:	f1 6c       	add	d3,a0
    7c6e:	9d          	mov	a3,a1
    7c6f:	21 10       	add	16,a1
    7c71:	b4          	cmp	a1,a0
    7c72:	c0 05       	blt	7c77 <.L0_18>
    7c74:	cc 8c 00    	jmp	7d00 <.L39>

00007c77 <.L0_18>:
    7c77:	5c 20       	mov	(32,sp),a0
    7c79:	cc ae fe    	jmp	7b27 <.L10>

00007c7c <.L52>:
    7c7c:	5d 10       	mov	(16,sp),a1
    7c7e:	f8 01 0c    	mov	(12,a1),d0

00007c81 <.LVL86>:
    7c81:	f8 21 08    	mov	(8,a1),a0

00007c84 <.LVL87>:
    7c84:	f8 10 0c    	mov	d0,(12,a0)
    7c87:	f1 e1       	mov	d0,a1
    7c89:	f8 31 08    	mov	a0,(8,a1)

00007c8c <.LVL88>:
    7c8c:	5a 10       	mov	(16,sp),d2
    7c8e:	2a 08       	add	8,d2

00007c90 <.LBB12>:
    7c90:	8c          	mov	d3,d0

00007c91 <.LVL90>:
    7c91:	28 fc       	add	-4,d0

00007c93 <.LVL91>:
    7c93:	a0 24       	cmp	36,d0
    7c95:	c7 05       	bls	7c9a <.L0_19>
    7c97:	cc ad 01    	jmp	7e44 <.L25>

00007c9a <.L0_19>:
    7c9a:	a0 13       	cmp	19,d0
    7c9c:	c5 05       	bhi	7ca1 <.L0_20>
    7c9e:	cc 8a 01    	jmp	7e28 <.L43>

00007ca1 <.L0_20>:
    7ca1:	76          	mov	(a2),d1
    7ca2:	5d 10       	mov	(16,sp),a1

00007ca4 <.LVL93>:
    7ca4:	f8 15 08    	mov	d1,(8,a1)

00007ca7 <.LVL94>:
    7ca7:	f8 06 04    	mov	(4,a2),d1
    7caa:	f8 15 0c    	mov	d1,(12,a1)

00007cad <.LVL95>:
    7cad:	a0 1b       	cmp	27,d0
    7caf:	c7 05       	bls	7cb4 <.L0_21>
    7cb1:	cc fd 01    	jmp	7eae <.L27>

00007cb4 <.L0_21>:
    7cb4:	94          	mov	a1,a0

00007cb5 <.LVL96>:
    7cb5:	20 10       	add	16,a0

00007cb7 <.LVL97>:
    7cb7:	22 08       	add	8,a2

00007cb9 <.LVL98>:
    7cb9:	72          	mov	(a2),d0

00007cba <.LVL99>:
    7cba:	60          	mov	d0,(a0)

00007cbb <.LVL100>:
    7cbb:	f8 02 04    	mov	(4,a2),d0
    7cbe:	f8 10 04    	mov	d0,(4,a0)

00007cc1 <.LVL101>:
    7cc1:	f8 02 08    	mov	(8,a2),d0
    7cc4:	f8 10 08    	mov	d0,(8,a0)
    7cc7:	5d 10       	mov	(16,sp),a1
    7cc9:	f8 01 04    	mov	(4,a1),d0
    7ccc:	f1 ea       	mov	d2,a2

00007cce <.LVL102>:
    7cce:	5a 20       	mov	(32,sp),d2

00007cd0 <.LVL103>:
    7cd0:	cc db fd    	jmp	7aab <.L11>

00007cd3 <.L44>:
    7cd3:	f1 e8       	mov	d2,a0

00007cd5 <.LVL105>:
    7cd5:	99          	mov	a2,a1

00007cd6 <.LVL106>:
    7cd6:	71          	mov	(a1),d0

00007cd7 <.LVL107>:
    7cd7:	60          	mov	d0,(a0)

00007cd8 <.LVL108>:
    7cd8:	f8 01 04    	mov	(4,a1),d0
    7cdb:	f8 10 04    	mov	d0,(4,a0)

00007cde <.LVL109>:
    7cde:	f8 01 08    	mov	(8,a1),d0
    7ce1:	f8 10 08    	mov	d0,(8,a0)
    7ce4:	cc 50 ff    	jmp	7c34 <.L35>

00007ce7 <.L42>:
    7ce7:	94          	mov	a1,a0

00007ce8 <.LVL111>:
    7ce8:	72          	mov	(a2),d0

00007ce9 <.LVL112>:
    7ce9:	60          	mov	d0,(a0)

00007cea <.LVL113>:
    7cea:	f8 02 04    	mov	(4,a2),d0
    7ced:	f8 10 04    	mov	d0,(4,a0)

00007cf0 <.LVL114>:
    7cf0:	f8 02 08    	mov	(8,a2),d0
    7cf3:	f8 10 08    	mov	d0,(8,a0)
    7cf6:	5c 10       	mov	(16,sp),a0

00007cf8 <.LVL115>:
    7cf8:	f8 00 04    	mov	(4,a0),d0
    7cfb:	96          	mov	a1,a2

00007cfc <.LVL116>:
    7cfc:	91          	mov	a0,a1

00007cfd <.LVL117>:
    7cfd:	cc ae fd    	jmp	7aab <.L11>

00007d00 <.L39>:
    7d00:	5d 1c       	mov	(28,sp),a1
    7d02:	f1 7d       	add	a3,a1
    7d04:	fc 84 bc a0 	mov	a1,(a0bc <___malloc_av_+0x8>)
    7d08:	00 00 

00007d0a <.Loc.2873.1>:
    7d0a:	f1 d0       	mov	a0,d0
    7d0c:	f1 1c       	sub	a3,d0
    7d0e:	f8 e4 01    	or	1,d0
    7d11:	f8 11 04    	mov	d0,(4,a1)

00007d14 <.Loc.2874.1>:
    7d14:	f8 02 fc    	mov	(-4,a2),d0
    7d17:	f8 e0 01    	and	1,d0
    7d1a:	f1 de       	mov	a3,d2

00007d1c <.LVL119>:
    7d1c:	f2 18       	or	d2,d0
    7d1e:	f8 12 fc    	mov	d0,(-4,a2)

00007d21 <.Loc.2875.1>:
    7d21:	58 3c       	mov	(60,sp),d0
    7d23:	dd f0 da ff 	call	5813 <___malloc_unlock>,[],0
    7d27:	ff 00 00 

00007d2a <.LVL120>:
    7d2a:	f1 da       	mov	a2,d2

00007d2c <.Loc.2999.1>:
    7d2c:	f1 e8       	mov	d2,a0
    7d2e:	88          	mov	d2,d0
    7d2f:	df f0 38    	ret	[d2,d3,a2,a3],56

00007d32 <.L31>:
    7d32:	42 0c       	mov	d0,(12,sp)
    7d34:	88          	mov	d2,d0

00007d35 <.LVL122>:
    7d35:	f1 d9       	mov	a2,d1
    7d37:	dd ce fb ff 	call	7905 <_memmove>,[],0
    7d3b:	ff 00 00 

00007d3e <.LBE19>:
    7d3e:	58 3c       	mov	(60,sp),d0
    7d40:	f1 d9       	mov	a2,d1
    7d42:	dd 12 ce ff 	call	4b54 <__free_r>,[],0
    7d46:	ff 00 00 

00007d49 <.LVL124>:
    7d49:	cc f6 fe    	jmp	7c3f <.L46>

00007d4c <.L51>:
    7d4c:	4a 24       	mov	d2,(36,sp)
    7d4e:	f1 dc       	mov	a3,d0
    7d50:	28 10       	add	16,d0
    7d52:	a2          	cmp	d0,d2
    7d53:	c2 05       	bge	7d58 <.L0_22>
    7d55:	cc 77 fe    	jmp	7bcc <.L15>

00007d58 <.L0_22>:
    7d58:	5d 10       	mov	(16,sp),a1
    7d5a:	f8 01 0c    	mov	(12,a1),d0

00007d5d <.LVL126>:
    7d5d:	f8 21 08    	mov	(8,a1),a0

00007d60 <.LVL127>:
    7d60:	f8 10 0c    	mov	d0,(12,a0)
    7d63:	f1 e1       	mov	d0,a1
    7d65:	f8 31 08    	mov	a0,(8,a1)

00007d68 <.LVL128>:
    7d68:	5a 10       	mov	(16,sp),d2

00007d6a <.LVL129>:
    7d6a:	2a 08       	add	8,d2

00007d6c <.LBB20>:
    7d6c:	8c          	mov	d3,d0

00007d6d <.LVL131>:
    7d6d:	28 fc       	add	-4,d0

00007d6f <.LVL132>:
    7d6f:	a0 24       	cmp	36,d0
    7d71:	c7 05       	bls	7d76 <.L0_23>
    7d73:	cc d6 01    	jmp	7f49 <.L16>

00007d76 <.L0_23>:
    7d76:	a0 13       	cmp	19,d0
    7d78:	c5 05       	bhi	7d7d <.L0_24>
    7d7a:	cc 8f 01    	jmp	7f09 <.L41>

00007d7d <.L0_24>:
    7d7d:	76          	mov	(a2),d1
    7d7e:	5d 10       	mov	(16,sp),a1

00007d80 <.LVL134>:
    7d80:	f8 15 08    	mov	d1,(8,a1)

00007d83 <.LVL135>:
    7d83:	f8 06 04    	mov	(4,a2),d1
    7d86:	f8 15 0c    	mov	d1,(12,a1)

00007d89 <.LVL136>:
    7d89:	a0 1b       	cmp	27,d0
    7d8b:	c7 05       	bls	7d90 <.L0_25>
    7d8d:	cc f7 01    	jmp	7f84 <.L18>

00007d90 <.L0_25>:
    7d90:	94          	mov	a1,a0

00007d91 <.LVL137>:
    7d91:	20 10       	add	16,a0

00007d93 <.LVL138>:
    7d93:	22 08       	add	8,a2

00007d95 <.LVL139>:
    7d95:	72          	mov	(a2),d0

00007d96 <.LVL140>:
    7d96:	60          	mov	d0,(a0)

00007d97 <.LVL141>:
    7d97:	f8 02 04    	mov	(4,a2),d0
    7d9a:	f8 10 04    	mov	d0,(4,a0)

00007d9d <.LVL142>:
    7d9d:	f8 02 08    	mov	(8,a2),d0
    7da0:	f8 10 08    	mov	d0,(8,a0)

00007da3 <.L20>:
    7da3:	5c 10       	mov	(16,sp),a0
    7da5:	f1 7c       	add	a3,a0
    7da7:	fc 80 bc a0 	mov	a0,(a0bc <___malloc_av_+0x8>)
    7dab:	00 00 

00007dad <.Loc.2916.1>:
    7dad:	5b 24       	mov	(36,sp),d3

00007daf <.LVL144>:
    7daf:	f1 1f       	sub	a3,d3
    7db1:	f8 e7 01    	or	1,d3
    7db4:	f8 1c 04    	mov	d3,(4,a0)

00007db7 <.Loc.2917.1>:
    7db7:	5d 10       	mov	(16,sp),a1
    7db9:	f8 01 04    	mov	(4,a1),d0
    7dbc:	f8 e0 01    	and	1,d0
    7dbf:	f1 dd       	mov	a3,d1
    7dc1:	f2 14       	or	d1,d0
    7dc3:	f8 11 04    	mov	d0,(4,a1)

00007dc6 <.Loc.2918.1>:
    7dc6:	58 3c       	mov	(60,sp),d0
    7dc8:	dd 4b da ff 	call	5813 <___malloc_unlock>,[],0
    7dcc:	ff 00 00 

00007dcf <.L54>:
    7dcf:	f1 e8       	mov	d2,a0
    7dd1:	88          	mov	d2,d0
    7dd2:	df f0 38    	ret	[d2,d3,a2,a3],56

00007dd5 <.L33>:
    7dd5:	f8 06 08    	mov	(8,a2),d1
    7dd8:	f1 e8       	mov	d2,a0

00007dda <.LVL147>:
    7dda:	f8 15 08    	mov	d1,(8,a1)

00007ddd <.LVL148>:
    7ddd:	f8 06 0c    	mov	(12,a2),d1
    7de0:	f8 15 0c    	mov	d1,(12,a1)

00007de3 <.LVL149>:
    7de3:	a0 24       	cmp	36,d0
    7de5:	c9 05       	bne	7dea <.L0_26>
    7de7:	cc a3 00    	jmp	7e8a <.L34>

00007dea <.L0_26>:
    7dea:	20 10       	add	16,a0

00007dec <.LVL151>:
    7dec:	99          	mov	a2,a1
    7ded:	21 10       	add	16,a1

00007def <.LVL152>:
    7def:	71          	mov	(a1),d0

00007df0 <.LVL153>:
    7df0:	60          	mov	d0,(a0)

00007df1 <.LVL154>:
    7df1:	f8 01 04    	mov	(4,a1),d0
    7df4:	f8 10 04    	mov	d0,(4,a0)

00007df7 <.LVL155>:
    7df7:	f8 01 08    	mov	(8,a1),d0
    7dfa:	f8 10 08    	mov	d0,(8,a0)
    7dfd:	cc 37 fe    	jmp	7c34 <.L35>

00007e00 <.L53>:
    7e00:	f1 e8       	mov	d2,a0

00007e02 <.LVL157>:
    7e02:	f8 08 fc    	mov	(-4,a0),d2

00007e05 <.LVL158>:
    7e05:	f8 c6 02    	lsr	2,d2
    7e08:	56          	asl2	d2
    7e09:	ee          	add	d3,d2

00007e0a <.LVL159>:
    7e0a:	cc a1 fc    	jmp	7aab <.L11>

00007e0d <.L21>:
    7e0d:	42 0c       	mov	d0,(12,sp)
    7e0f:	f1 d4       	mov	a1,d0

00007e11 <.LVL161>:
    7e11:	f1 d9       	mov	a2,d1
    7e13:	47 14       	mov	a1,(20,sp)
    7e15:	dd f0 fa ff 	call	7905 <_memmove>,[],0
    7e19:	ff 00 00 

00007e1c <.LVL162>:
    7e1c:	5c 10       	mov	(16,sp),a0
    7e1e:	f8 00 04    	mov	(4,a0),d0
    7e21:	5d 14       	mov	(20,sp),a1
    7e23:	96          	mov	a1,a2

00007e24 <.LVL163>:
    7e24:	91          	mov	a0,a1
    7e25:	cc 86 fc    	jmp	7aab <.L11>

00007e28 <.L43>:
    7e28:	f1 e8       	mov	d2,a0

00007e2a <.LVL165>:
    7e2a:	72          	mov	(a2),d0

00007e2b <.LVL166>:
    7e2b:	60          	mov	d0,(a0)

00007e2c <.LVL167>:
    7e2c:	f8 02 04    	mov	(4,a2),d0
    7e2f:	f8 10 04    	mov	d0,(4,a0)

00007e32 <.LVL168>:
    7e32:	f8 02 08    	mov	(8,a2),d0
    7e35:	f8 10 08    	mov	d0,(8,a0)
    7e38:	5d 10       	mov	(16,sp),a1

00007e3a <.LVL169>:
    7e3a:	f8 01 04    	mov	(4,a1),d0
    7e3d:	f1 ea       	mov	d2,a2

00007e3f <.LVL170>:
    7e3f:	5a 20       	mov	(32,sp),d2

00007e41 <.LVL171>:
    7e41:	cc 6a fc    	jmp	7aab <.L11>

00007e44 <.L25>:
    7e44:	42 0c       	mov	d0,(12,sp)
    7e46:	88          	mov	d2,d0

00007e47 <.LVL173>:
    7e47:	f1 d9       	mov	a2,d1
    7e49:	dd bc fa ff 	call	7905 <_memmove>,[],0
    7e4d:	ff 00 00 

00007e50 <.LVL174>:
    7e50:	5d 10       	mov	(16,sp),a1
    7e52:	f8 01 04    	mov	(4,a1),d0
    7e55:	f1 ea       	mov	d2,a2

00007e57 <.LVL175>:
    7e57:	5a 20       	mov	(32,sp),d2

00007e59 <.LVL176>:
    7e59:	cc 52 fc    	jmp	7aab <.L11>

00007e5c <.L23>:
    7e5c:	f8 06 08    	mov	(8,a2),d1
    7e5f:	5c 10       	mov	(16,sp),a0

00007e61 <.LVL178>:
    7e61:	f8 14 10    	mov	d1,(16,a0)

00007e64 <.LVL179>:
    7e64:	f8 06 0c    	mov	(12,a2),d1
    7e67:	f8 14 14    	mov	d1,(20,a0)

00007e6a <.LVL180>:
    7e6a:	a0 24       	cmp	36,d0
    7e6c:	c8 73       	beq	7edf <.L24>

00007e6e <.Loc.2931.1>:
    7e6e:	20 18       	add	24,a0

00007e70 <.LVL181>:
    7e70:	22 10       	add	16,a2

00007e72 <.LVL182>:
    7e72:	72          	mov	(a2),d0

00007e73 <.LVL183>:
    7e73:	60          	mov	d0,(a0)

00007e74 <.LVL184>:
    7e74:	f8 02 04    	mov	(4,a2),d0
    7e77:	f8 10 04    	mov	d0,(4,a0)

00007e7a <.LVL185>:
    7e7a:	f8 02 08    	mov	(8,a2),d0
    7e7d:	f8 10 08    	mov	d0,(8,a0)
    7e80:	5c 10       	mov	(16,sp),a0

00007e82 <.LVL186>:
    7e82:	f8 00 04    	mov	(4,a0),d0
    7e85:	96          	mov	a1,a2

00007e86 <.LVL187>:
    7e86:	91          	mov	a0,a1

00007e87 <.LVL188>:
    7e87:	cc 24 fc    	jmp	7aab <.L11>

00007e8a <.L34>:
    7e8a:	f8 02 10    	mov	(16,a2),d0

00007e8d <.LVL190>:
    7e8d:	f8 10 10    	mov	d0,(16,a0)

00007e90 <.LVL191>:
    7e90:	f8 02 14    	mov	(20,a2),d0
    7e93:	f8 10 14    	mov	d0,(20,a0)
    7e96:	f1 e8       	mov	d2,a0
    7e98:	20 18       	add	24,a0

00007e9a <.LVL192>:
    7e9a:	99          	mov	a2,a1
    7e9b:	21 18       	add	24,a1

00007e9d <.LVL193>:
    7e9d:	71          	mov	(a1),d0
    7e9e:	60          	mov	d0,(a0)

00007e9f <.LVL194>:
    7e9f:	f8 01 04    	mov	(4,a1),d0
    7ea2:	f8 10 04    	mov	d0,(4,a0)

00007ea5 <.LVL195>:
    7ea5:	f8 01 08    	mov	(8,a1),d0
    7ea8:	f8 10 08    	mov	d0,(8,a0)
    7eab:	cc 89 fd    	jmp	7c34 <.L35>

00007eae <.L27>:
    7eae:	f8 06 08    	mov	(8,a2),d1
    7eb1:	5d 10       	mov	(16,sp),a1

00007eb3 <.LVL197>:
    7eb3:	f8 15 10    	mov	d1,(16,a1)

00007eb6 <.LVL198>:
    7eb6:	f8 06 0c    	mov	(12,a2),d1
    7eb9:	f8 15 14    	mov	d1,(20,a1)

00007ebc <.LVL199>:
    7ebc:	a0 24       	cmp	36,d0
    7ebe:	c8 5e       	beq	7f1c <.L28>

00007ec0 <.Loc.2943.1>:
    7ec0:	94          	mov	a1,a0

00007ec1 <.LVL200>:
    7ec1:	20 18       	add	24,a0

00007ec3 <.LVL201>:
    7ec3:	22 10       	add	16,a2

00007ec5 <.LVL202>:
    7ec5:	72          	mov	(a2),d0

00007ec6 <.LVL203>:
    7ec6:	60          	mov	d0,(a0)

00007ec7 <.LVL204>:
    7ec7:	f8 02 04    	mov	(4,a2),d0
    7eca:	f8 10 04    	mov	d0,(4,a0)

00007ecd <.LVL205>:
    7ecd:	f8 02 08    	mov	(8,a2),d0
    7ed0:	f8 10 08    	mov	d0,(8,a0)
    7ed3:	5d 10       	mov	(16,sp),a1
    7ed5:	f8 01 04    	mov	(4,a1),d0
    7ed8:	f1 ea       	mov	d2,a2

00007eda <.LVL206>:
    7eda:	5a 20       	mov	(32,sp),d2

00007edc <.LVL207>:
    7edc:	cc cf fb    	jmp	7aab <.L11>

00007edf <.L24>:
    7edf:	f8 02 10    	mov	(16,a2),d0

00007ee2 <.LVL209>:
    7ee2:	5c 10       	mov	(16,sp),a0

00007ee4 <.LVL210>:
    7ee4:	f8 10 18    	mov	d0,(24,a0)

00007ee7 <.LVL211>:
    7ee7:	f8 02 14    	mov	(20,a2),d0
    7eea:	f8 10 1c    	mov	d0,(28,a0)
    7eed:	20 20       	add	32,a0

00007eef <.LVL212>:
    7eef:	22 18       	add	24,a2

00007ef1 <.LVL213>:
    7ef1:	72          	mov	(a2),d0
    7ef2:	60          	mov	d0,(a0)

00007ef3 <.LVL214>:
    7ef3:	f8 02 04    	mov	(4,a2),d0
    7ef6:	f8 10 04    	mov	d0,(4,a0)

00007ef9 <.LVL215>:
    7ef9:	f8 02 08    	mov	(8,a2),d0
    7efc:	f8 10 08    	mov	d0,(8,a0)
    7eff:	5c 10       	mov	(16,sp),a0

00007f01 <.LVL216>:
    7f01:	f8 00 04    	mov	(4,a0),d0
    7f04:	96          	mov	a1,a2

00007f05 <.LVL217>:
    7f05:	91          	mov	a0,a1

00007f06 <.LVL218>:
    7f06:	cc a5 fb    	jmp	7aab <.L11>

00007f09 <.L41>:
    7f09:	f1 e8       	mov	d2,a0

00007f0b <.LVL220>:
    7f0b:	72          	mov	(a2),d0

00007f0c <.LVL221>:
    7f0c:	60          	mov	d0,(a0)

00007f0d <.LVL222>:
    7f0d:	f8 02 04    	mov	(4,a2),d0
    7f10:	f8 10 04    	mov	d0,(4,a0)

00007f13 <.LVL223>:
    7f13:	f8 02 08    	mov	(8,a2),d0
    7f16:	f8 10 08    	mov	d0,(8,a0)
    7f19:	cc 8a fe    	jmp	7da3 <.L20>

00007f1c <.L28>:
    7f1c:	f8 02 10    	mov	(16,a2),d0

00007f1f <.LVL225>:
    7f1f:	5d 10       	mov	(16,sp),a1

00007f21 <.LVL226>:
    7f21:	f8 11 18    	mov	d0,(24,a1)

00007f24 <.LVL227>:
    7f24:	f8 02 14    	mov	(20,a2),d0
    7f27:	f8 11 1c    	mov	d0,(28,a1)
    7f2a:	94          	mov	a1,a0

00007f2b <.LVL228>:
    7f2b:	20 20       	add	32,a0

00007f2d <.LVL229>:
    7f2d:	22 18       	add	24,a2

00007f2f <.LVL230>:
    7f2f:	72          	mov	(a2),d0
    7f30:	60          	mov	d0,(a0)

00007f31 <.LVL231>:
    7f31:	f8 02 04    	mov	(4,a2),d0
    7f34:	f8 10 04    	mov	d0,(4,a0)

00007f37 <.LVL232>:
    7f37:	f8 02 08    	mov	(8,a2),d0
    7f3a:	f8 10 08    	mov	d0,(8,a0)
    7f3d:	5d 10       	mov	(16,sp),a1
    7f3f:	f8 01 04    	mov	(4,a1),d0
    7f42:	f1 ea       	mov	d2,a2

00007f44 <.LVL233>:
    7f44:	5a 20       	mov	(32,sp),d2

00007f46 <.LVL234>:
    7f46:	cc 65 fb    	jmp	7aab <.L11>

00007f49 <.L16>:
    7f49:	42 0c       	mov	d0,(12,sp)
    7f4b:	88          	mov	d2,d0

00007f4c <.LVL236>:
    7f4c:	f1 d9       	mov	a2,d1
    7f4e:	dd b7 f9 ff 	call	7905 <_memmove>,[],0
    7f52:	ff 00 00 

00007f55 <.LBE33>:
    7f55:	5c 10       	mov	(16,sp),a0
    7f57:	f1 7c       	add	a3,a0
    7f59:	fc 80 bc a0 	mov	a0,(a0bc <___malloc_av_+0x8>)
    7f5d:	00 00 

00007f5f <.Loc.2916.1>:
    7f5f:	5b 24       	mov	(36,sp),d3

00007f61 <.LVL238>:
    7f61:	f1 1f       	sub	a3,d3
    7f63:	f8 e7 01    	or	1,d3
    7f66:	f8 1c 04    	mov	d3,(4,a0)

00007f69 <.Loc.2917.1>:
    7f69:	5d 10       	mov	(16,sp),a1
    7f6b:	f8 01 04    	mov	(4,a1),d0
    7f6e:	f8 e0 01    	and	1,d0
    7f71:	f1 dd       	mov	a3,d1
    7f73:	f2 14       	or	d1,d0
    7f75:	f8 11 04    	mov	d0,(4,a1)

00007f78 <.Loc.2918.1>:
    7f78:	58 3c       	mov	(60,sp),d0
    7f7a:	dd 99 d8 ff 	call	5813 <___malloc_unlock>,[],0
    7f7e:	ff 00 00 

00007f81 <.LVL239>:
    7f81:	cc 4e fe    	jmp	7dcf <.L54>

00007f84 <.L18>:
    7f84:	f8 06 08    	mov	(8,a2),d1
    7f87:	5d 10       	mov	(16,sp),a1

00007f89 <.LVL241>:
    7f89:	f8 15 10    	mov	d1,(16,a1)

00007f8c <.LVL242>:
    7f8c:	f8 06 0c    	mov	(12,a2),d1
    7f8f:	f8 15 14    	mov	d1,(20,a1)

00007f92 <.LVL243>:
    7f92:	a0 24       	cmp	36,d0
    7f94:	c8 18       	beq	7fac <.L19>

00007f96 <.Loc.2914.1>:
    7f96:	94          	mov	a1,a0

00007f97 <.LVL244>:
    7f97:	20 18       	add	24,a0

00007f99 <.LVL245>:
    7f99:	22 10       	add	16,a2

00007f9b <.LVL246>:
    7f9b:	72          	mov	(a2),d0

00007f9c <.LVL247>:
    7f9c:	60          	mov	d0,(a0)

00007f9d <.LVL248>:
    7f9d:	f8 02 04    	mov	(4,a2),d0
    7fa0:	f8 10 04    	mov	d0,(4,a0)

00007fa3 <.LVL249>:
    7fa3:	f8 02 08    	mov	(8,a2),d0
    7fa6:	f8 10 08    	mov	d0,(8,a0)
    7fa9:	cc fa fd    	jmp	7da3 <.L20>

00007fac <.L19>:
    7fac:	f8 02 10    	mov	(16,a2),d0

00007faf <.LVL251>:
    7faf:	5d 10       	mov	(16,sp),a1

00007fb1 <.LVL252>:
    7fb1:	f8 11 18    	mov	d0,(24,a1)

00007fb4 <.LVL253>:
    7fb4:	f8 02 14    	mov	(20,a2),d0
    7fb7:	f8 11 1c    	mov	d0,(28,a1)
    7fba:	94          	mov	a1,a0

00007fbb <.LVL254>:
    7fbb:	20 20       	add	32,a0

00007fbd <.LVL255>:
    7fbd:	22 18       	add	24,a2

00007fbf <.LVL256>:
    7fbf:	72          	mov	(a2),d0
    7fc0:	60          	mov	d0,(a0)

00007fc1 <.LVL257>:
    7fc1:	f8 02 04    	mov	(4,a2),d0
    7fc4:	f8 10 04    	mov	d0,(4,a0)

00007fc7 <.LVL258>:
    7fc7:	f8 02 08    	mov	(8,a2),d0
    7fca:	f8 10 08    	mov	d0,(8,a0)
    7fcd:	cc d6 fd    	jmp	7da3 <.L20>

00007fd0 <_cleanup_glue>:
    7fd0:	cf a0       	movm	[d2,a2],(sp)

00007fd2 <.LCFI0>:
    7fd2:	f8 fe f4    	add	-12,sp

00007fd5 <.LCFI1>:
    7fd5:	82          	mov	d0,d2
    7fd6:	f1 e6       	mov	d1,a2

00007fd8 <.Loc.38.1>:
    7fd8:	76          	mov	(a2),d1

00007fd9 <.LVL1>:
    7fd9:	a5 00       	cmp	0,d1
    7fdb:	c8 07       	beq	7fe2 <.L2>

00007fdd <.Loc.39.1>:
    7fdd:	cd f3 ff 00 	call	7fd0 <_cleanup_glue>,[],0
    7fe1:	00 

00007fe2 <.L2>:
    7fe2:	88          	mov	d2,d0
    7fe3:	f1 d9       	mov	a2,d1
    7fe5:	dd 6f cb ff 	call	4b54 <__free_r>,[],0
    7fe9:	ff 00 00 

00007fec <.LVL3>:
    7fec:	df a0 14    	ret	[d2,a2],20

00007fef <__reclaim_reent>:
    7fef:	cf e0       	movm	[d2,d3,a2],(sp)

00007ff1 <.LCFI2>:
    7ff1:	f8 fe f4    	add	-12,sp

00007ff4 <.LCFI3>:
    7ff4:	f1 e2       	mov	d0,a2

00007ff6 <.Loc.48.1>:
    7ff6:	fc a4 08 9c 	mov	(9c08 <__impure_ptr>),d0
    7ffa:	00 00 

00007ffc <.LVL5>:
    7ffc:	f1 a2       	cmp	d0,a2
    7ffe:	c9 05       	bne	8003 <.L0_0>
    8000:	cc 82 00    	jmp	8082 <.L8>

00008003 <.L0_0>:
    8003:	f8 26 4c    	mov	(76,a2),a1
    8006:	b5 00       	cmp	0,a1
    8008:	c8 32       	beq	803a <.L11>
    800a:	00          	clr	d0
    800b:	83          	mov	d0,d3

0000800c <.L14>:
    800c:	54          	asl2	d0
    800d:	94          	mov	a1,a0
    800e:	f1 60       	add	d0,a0
    8010:	74          	mov	(a0),d1

00008011 <.LVL6>:
    8011:	a5 00       	cmp	0,d1
    8013:	c8 16       	beq	8029 <.L12>

00008015 <.L33>:
    8015:	f1 e4       	mov	d1,a0
    8017:	78          	mov	(a0),d2

00008018 <.LVL8>:
    8018:	f1 d8       	mov	a2,d0
    801a:	dd 3a cb ff 	call	4b54 <__free_r>,[],0
    801e:	ff 00 00 

00008021 <.LVL9>:
    8021:	89          	mov	d2,d1

00008022 <.Loc.63.1>:
    8022:	aa 00       	cmp	0,d2
    8024:	c9 f1       	bne	8015 <.L33>
    8026:	f8 26 4c    	mov	(76,a2),a1

00008029 <.L12>:
    8029:	4c          	inc	d3

0000802a <.LVL11>:
    802a:	8c          	mov	d3,d0
    802b:	af 20       	cmp	32,d3
    802d:	c9 df       	bne	800c <.L14>

0000802f <.Loc.71.1>:
    802f:	f1 d8       	mov	a2,d0
    8031:	f1 d5       	mov	a1,d1

00008033 <.LVL12>:
    8033:	dd 21 cb ff 	call	4b54 <__free_r>,[],0
    8037:	ff 00 00 

0000803a <.L11>:
    803a:	f8 06 40    	mov	(64,a2),d1
    803d:	a5 00       	cmp	0,d1
    803f:	c8 0b       	beq	804a <.L15>

00008041 <.Loc.74.1>:
    8041:	f1 d8       	mov	a2,d0
    8043:	dd 11 cb ff 	call	4b54 <__free_r>,[],0
    8047:	ff 00 00 

0000804a <.L15>:
    804a:	fa 06 48 01 	mov	(328,a2),d1
    804e:	a5 00       	cmp	0,d1
    8050:	c8 1b       	beq	806b <.L19>

00008052 <.Loc.94.1>:
    8052:	f1 db       	mov	a2,d3
    8054:	fa c3 4c 01 	add	332,d3
    8058:	ad          	cmp	d3,d1
    8059:	c8 12       	beq	806b <.L19>

0000805b <.L32>:
    805b:	f1 e4       	mov	d1,a0
    805d:	78          	mov	(a0),d2

0000805e <.LVL16>:
    805e:	f1 d8       	mov	a2,d0
    8060:	dd f4 ca ff 	call	4b54 <__free_r>,[],0
    8064:	ff 00 00 

00008067 <.LVL17>:
    8067:	89          	mov	d2,d1

00008068 <.Loc.97.1>:
    8068:	ab          	cmp	d2,d3
    8069:	c9 f2       	bne	805b <.L32>

0000806b <.L19>:
    806b:	f8 06 54    	mov	(84,a2),d1
    806e:	a5 00       	cmp	0,d1
    8070:	c8 0b       	beq	807b <.L18>

00008072 <.Loc.107.1>:
    8072:	f1 d8       	mov	a2,d0
    8074:	dd e0 ca ff 	call	4b54 <__free_r>,[],0
    8078:	ff 00 00 

0000807b <.L18>:
    807b:	f8 02 38    	mov	(56,a2),d0
    807e:	a0 00       	cmp	0,d0
    8080:	c9 05       	bne	8085 <.L43>

00008082 <.L8>:
    8082:	df e0 18    	ret	[d2,d3,a2],24

00008085 <.L43>:
    8085:	f8 22 3c    	mov	(60,a2),a0
    8088:	f1 d8       	mov	a2,d0
    808a:	f0 f0       	calls	(a0)

0000808c <.LVL20>:
    808c:	fa 06 e0 02 	mov	(736,a2),d1
    8090:	a5 00       	cmp	0,d1
    8092:	c8 f0       	beq	8082 <.L8>

00008094 <.Loc.116.1>:
    8094:	f1 d8       	mov	a2,d0
    8096:	cd 3a ff 00 	call	7fd0 <_cleanup_glue>,[],0
    809a:	00 

0000809b <.LVL21>:
    809b:	df e0 18    	ret	[d2,d3,a2],24

0000809e <__wrapup_reent>:
    809e:	cf f0       	movm	[d2,d3,a2,a3],(sp)

000080a0 <.LCFI4>:
    80a0:	f8 fe f4    	add	-12,sp

000080a3 <.LCFI5>:
    80a3:	42 20       	mov	d0,(32,sp)

000080a5 <.Loc.137.1>:
    80a5:	a0 00       	cmp	0,d0
    80a7:	c8 3c       	beq	80e3 <.L59>

000080a9 <.Loc.144.1>:
    80a9:	5c 20       	mov	(32,sp),a0
    80ab:	fa 28 48 01 	mov	(328,a0),a2

000080af <.LVL23>:
    80af:	ba 00       	cmp	0,a2
    80b1:	c8 22       	beq	80d3 <.L52>

000080b3 <.L55>:
    80b3:	f8 0e 04    	mov	(4,a2),d3

000080b6 <.LVL25>:
    80b6:	8e          	mov	d3,d2
    80b7:	2a ff       	add	-1,d2

000080b9 <.LVL26>:
    80b9:	f8 eb 14    	bns	80cd <.L54>

000080bc <.Loc.132.1>:
    80bc:	4c          	inc	d3
    80bd:	57          	asl2	d3
    80be:	9b          	mov	a2,a3
    80bf:	f1 6f       	add	d3,a3

000080c1 <.L53>:
    80c1:	f0 03       	mov	(a3),a0
    80c3:	f0 f0       	calls	(a0)

000080c5 <.Loc.145.1>:
    80c5:	2a ff       	add	-1,d2
    80c7:	23 fc       	add	-4,a3
    80c9:	aa ff       	cmp	-1,d2
    80cb:	c9 f6       	bne	80c1 <.L53>

000080cd <.L54>:
    80cd:	f0 0a       	mov	(a2),a2
    80cf:	ba 00       	cmp	0,a2
    80d1:	c9 e2       	bne	80b3 <.L55>

000080d3 <.L52>:
    80d3:	5d 20       	mov	(32,sp),a1
    80d5:	f8 21 3c    	mov	(60,a1),a0
    80d8:	b0 00       	cmp	0,a0
    80da:	c8 06       	beq	80e0 <.L45>

000080dc <.Loc.149.1>:
    80dc:	58 20       	mov	(32,sp),d0
    80de:	f0 f0       	calls	(a0)

000080e0 <.L45>:
    80e0:	df f0 1c    	ret	[d2,d3,a2,a3],28

000080e3 <.L59>:
    80e3:	fc a1 08 9c 	mov	(9c08 <__impure_ptr>),a1
    80e7:	00 00 
    80e9:	47 20       	mov	a1,(32,sp)

000080eb <.LVL33>:
    80eb:	5c 20       	mov	(32,sp),a0
    80ed:	fa 28 48 01 	mov	(328,a0),a2

000080f1 <.LVL34>:
    80f1:	ba 00       	cmp	0,a2
    80f3:	c9 c0       	bne	80b3 <.L55>
    80f5:	ca de       	bra	80d3 <.L52>

000080f7 <___swbuf_r>:
    80f7:	cf f0       	movm	[d2,d3,a2,a3],(sp)

000080f9 <.LCFI0>:
    80f9:	f8 fe f4    	add	-12,sp

000080fc <.LCFI1>:
    80fc:	f1 e3       	mov	d0,a3
    80fe:	87          	mov	d1,d3
    80ff:	5e 28       	mov	(40,sp),a2

00008101 <.Loc.45.1>:
    8101:	a0 00       	cmp	0,d0
    8103:	c8 0c       	beq	810f <.L0_0>

00008105 <.Loc.45.1>:
    8105:	f8 03 38    	mov	(56,a3),d0

00008108 <.LVL1>:
    8108:	a0 00       	cmp	0,d0
    810a:	c9 05       	bne	810f <.L0_0>
    810c:	cc b9 00    	jmp	81c5 <.L22>

0000810f <.L0_0>:
    810f:	f8 02 18    	mov	(24,a2),d0
    8112:	f8 12 08    	mov	d0,(8,a2)

00008115 <.Loc.56.1>:
    8115:	f8 6a 0c    	movhu	(12,a2),d2
    8118:	88          	mov	d2,d0
    8119:	f8 e0 08    	and	8,d0
    811c:	18          	exth	d0
    811d:	a0 00       	cmp	0,d0
    811f:	c9 05       	bne	8124 <.L0_1>
    8121:	cc c2 00    	jmp	81e3 <.L0_3>

00008124 <.L0_1>:
    8124:	f8 02 10    	mov	(16,a2),d0
    8127:	a0 00       	cmp	0,d0
    8129:	c9 05       	bne	812e <.L0_2>
    812b:	cc b8 00    	jmp	81e3 <.L0_3>

0000812e <.L0_2>:
    812e:	17          	extbu	d3

0000812f <.Loc.60.1>:
    812f:	89          	mov	d2,d1
    8130:	fa e1 00 20 	and	8192,d1
    8134:	19          	exth	d1
    8135:	a5 00       	cmp	0,d1
    8137:	c8 33       	beq	816a <.L23>

00008139 <.L7>:
    8139:	f0 02       	mov	(a2),a0
    813b:	f1 d1       	mov	a0,d1
    813d:	f1 01       	sub	d0,d1
    813f:	84          	mov	d1,d0

00008140 <.LVL4>:
    8140:	f8 06 14    	mov	(20,a2),d1
    8143:	a4          	cmp	d1,d0
    8144:	c2 46       	bge	818a <.L8>

00008146 <.L24>:
    8146:	40          	inc	d0

00008147 <.LVL5>:
    8147:	f8 26 08    	mov	(8,a2),a1
    814a:	21 ff       	add	-1,a1
    814c:	f8 36 08    	mov	a1,(8,a2)

0000814f <.Loc.80.1>:
    814f:	f0 5c       	movbu	d3,(a0)
    8151:	41          	inc	a0
    8152:	f0 12       	mov	a0,(a2)

00008154 <.LVL6>:
    8154:	f8 06 14    	mov	(20,a2),d1
    8157:	a1          	cmp	d0,d1
    8158:	c8 58       	beq	81b0 <.L11>

0000815a <.L25>:
    815a:	f8 62 0c    	movhu	(12,a2),d0

0000815d <.LVL7>:
    815d:	f8 e0 01    	and	1,d0
    8160:	c8 06       	beq	8166 <.L6>
    8162:	af 0a       	cmp	10,d3
    8164:	c8 4c       	beq	81b0 <.L11>

00008166 <.L6>:
    8166:	8c          	mov	d3,d0
    8167:	df f0 1c    	ret	[d2,d3,a2,a3],28

0000816a <.L23>:
    816a:	fa e6 00 20 	or	8192,d2
    816e:	f8 7a 0c    	movhu	d2,(12,a2)
    8171:	f8 06 64    	mov	(100,a2),d1
    8174:	fc e1 ff df 	and	-8193,d1
    8178:	ff ff 
    817a:	f8 16 64    	mov	d1,(100,a2)

0000817d <.Loc.72.1>:
    817d:	f0 02       	mov	(a2),a0
    817f:	f1 d1       	mov	a0,d1
    8181:	f1 01       	sub	d0,d1
    8183:	84          	mov	d1,d0

00008184 <.LVL8>:
    8184:	f8 06 14    	mov	(20,a2),d1
    8187:	a4          	cmp	d1,d0
    8188:	c0 be       	blt	8146 <.L24>

0000818a <.L8>:
    818a:	f1 dc       	mov	a3,d0

0000818c <.LVL9>:
    818c:	f1 d9       	mov	a2,d1
    818e:	dd 8c c6 ff 	call	481a <__fflush_r>,[],0
    8192:	ff 00 00 

00008195 <.LVL10>:
    8195:	a0 00       	cmp	0,d0
    8197:	c9 28       	bne	81bf <.L10>
    8199:	f0 02       	mov	(a2),a0
    819b:	80 01       	mov	1,d0

0000819d <.Loc.79.1>:
    819d:	f8 26 08    	mov	(8,a2),a1
    81a0:	21 ff       	add	-1,a1
    81a2:	f8 36 08    	mov	a1,(8,a2)

000081a5 <.Loc.80.1>:
    81a5:	f0 5c       	movbu	d3,(a0)
    81a7:	41          	inc	a0
    81a8:	f0 12       	mov	a0,(a2)

000081aa <.LVL11>:
    81aa:	f8 06 14    	mov	(20,a2),d1
    81ad:	a1          	cmp	d0,d1
    81ae:	c9 ac       	bne	815a <.L25>

000081b0 <.L11>:
    81b0:	f1 dc       	mov	a3,d0
    81b2:	f1 d9       	mov	a2,d1
    81b4:	dd 66 c6 ff 	call	481a <__fflush_r>,[],0
    81b8:	ff 00 00 

000081bb <.LVL13>:
    81bb:	a0 00       	cmp	0,d0
    81bd:	c8 a9       	beq	8166 <.L6>

000081bf <.L10>:
    81bf:	8f ff       	mov	-1,d3

000081c1 <.LVL14>:
    81c1:	8c          	mov	d3,d0
    81c2:	df f0 1c    	ret	[d2,d3,a2,a3],28

000081c5 <.L22>:
    81c5:	f1 dc       	mov	a3,d0
    81c7:	dd 7f c7 ff 	call	4946 <___sinit>,[],0
    81cb:	ff 00 00 

000081ce <.LVL16>:
    81ce:	f8 02 18    	mov	(24,a2),d0
    81d1:	f8 12 08    	mov	d0,(8,a2)

000081d4 <.Loc.56.1>:
    81d4:	f8 6a 0c    	movhu	(12,a2),d2
    81d7:	88          	mov	d2,d0
    81d8:	f8 e0 08    	and	8,d0
    81db:	18          	exth	d0
    81dc:	a0 00       	cmp	0,d0
    81de:	c8 05       	beq	81e3 <.L0_3>
    81e0:	cc 44 ff    	jmp	8124 <.L0_1>

000081e3 <.L0_3>:
    81e3:	f1 dc       	mov	a3,d0
    81e5:	f1 d9       	mov	a2,d1
    81e7:	dd 49 ae ff 	call	3030 <___swsetup_r>,[],0
    81eb:	ff 00 00 

000081ee <.LVL18>:
    81ee:	a0 00       	cmp	0,d0
    81f0:	c9 cf       	bne	81bf <.L10>
    81f2:	f8 6a 0c    	movhu	(12,a2),d2
    81f5:	f8 02 10    	mov	(16,a2),d0

000081f8 <.Loc.58.1>:
    81f8:	17          	extbu	d3

000081f9 <.Loc.60.1>:
    81f9:	89          	mov	d2,d1
    81fa:	fa e1 00 20 	and	8192,d1
    81fe:	19          	exth	d1
    81ff:	a5 00       	cmp	0,d1
    8201:	c8 05       	beq	8206 <.L0_4>
    8203:	cc 36 ff    	jmp	8139 <.L7>

00008206 <.L0_4>:
    8206:	cc 64 ff    	jmp	816a <.L23>

00008209 <___swbuf>:
    8209:	f8 fe f0    	add	-16,sp

0000820c <.LCFI2>:
    820c:	f1 e0       	mov	d0,a0

0000820e <.Loc.95.1>:
    820e:	46 0c       	mov	d1,(12,sp)
    8210:	fc a4 08 9c 	mov	(9c08 <__impure_ptr>),d0
    8214:	00 00 

00008216 <.LVL21>:
    8216:	f1 d1       	mov	a0,d1

00008218 <.LVL22>:
    8218:	cd df fe 00 	call	80f7 <___swbuf_r>,[],0
    821c:	00 

0000821d <.LVL23>:
    821d:	df 00 10    	ret	[],16

00008220 <__wcrtomb_r>:
    8220:	cf f0       	movm	[d2,d3,a2,a3],(sp)

00008222 <.LCFI0>:
    8222:	f8 fe dc    	add	-36,sp

00008225 <.LCFI1>:
    8225:	f1 e2       	mov	d0,a2
    8227:	86          	mov	d1,d2
    8228:	5f 44       	mov	(68,sp),a3

0000822a <.LVL1>:
    822a:	fc a7 bc a4 	mov	(a4bc <___wctomb>),d3
    822e:	00 00 

00008230 <.Loc.27.1>:
    8230:	a5 00       	cmp	0,d1
    8232:	c8 28       	beq	825a <.L7>

00008234 <.Loc.30.1>:
    8234:	dd 8b cc ff 	call	4ebf <___locale_charset>,[],0
    8238:	ff 00 00 

0000823b <.LVL2>:
    823b:	58 40       	mov	(64,sp),d0
    823d:	42 0c       	mov	d0,(12,sp)
    823f:	43 10       	mov	a0,(16,sp)
    8241:	4f 14       	mov	a3,(20,sp)
    8243:	f1 d8       	mov	a2,d0
    8245:	89          	mov	d2,d1
    8246:	f1 ec       	mov	d3,a0
    8248:	f0 f0       	calls	(a0)

0000824a <.LVL3>:
    824a:	a0 ff       	cmp	-1,d0
    824c:	c8 05       	beq	8251 <.L8>

0000824e <.L5>:
    824e:	df f0 34    	ret	[d2,d3,a2,a3],52

00008251 <.L8>:
    8251:	04          	clr	d1
    8252:	67          	mov	d1,(a3)

00008253 <.Loc.35.1>:
    8253:	2d 8a 00    	mov	138,d1
    8256:	66          	mov	d1,(a2)

00008257 <.Loc.40.1>:
    8257:	df f0 34    	ret	[d2,d3,a2,a3],52

0000825a <.L7>:
    825a:	dd 65 cc ff 	call	4ebf <___locale_charset>,[],0
    825e:	ff 00 00 

00008261 <.LVL5>:
    8261:	4a 0c       	mov	d2,(12,sp)
    8263:	43 10       	mov	a0,(16,sp)
    8265:	4f 14       	mov	a3,(20,sp)
    8267:	f1 d8       	mov	a2,d0
    8269:	3c          	mov	sp,a0
    826a:	20 1a       	add	26,a0
    826c:	f1 d1       	mov	a0,d1
    826e:	f1 ec       	mov	d3,a0
    8270:	f0 f0       	calls	(a0)

00008272 <.LVL6>:
    8272:	a0 ff       	cmp	-1,d0
    8274:	c9 da       	bne	824e <.L5>
    8276:	ca db       	bra	8251 <.L8>

00008278 <_wcrtomb>:
    8278:	cf f0       	movm	[d2,d3,a2,a3],(sp)

0000827a <.LCFI2>:
    827a:	f8 fe dc    	add	-36,sp

0000827d <.LCFI3>:
    827d:	82          	mov	d0,d2
    827e:	87          	mov	d1,d3

0000827f <.LVL8>:
    827f:	fc a3 bc a4 	mov	(a4bc <___wctomb>),a3
    8283:	00 00 

00008285 <.Loc.63.1>:
    8285:	a0 00       	cmp	0,d0
    8287:	c8 34       	beq	82bb <.L16>

00008289 <.Loc.66.1>:
    8289:	fc a2 08 9c 	mov	(9c08 <__impure_ptr>),a2
    828d:	00 00 
    828f:	dd 30 cc ff 	call	4ebf <___locale_charset>,[],0
    8293:	ff 00 00 

00008296 <.LVL9>:
    8296:	4e 0c       	mov	d3,(12,sp)
    8298:	43 10       	mov	a0,(16,sp)
    829a:	5c 40       	mov	(64,sp),a0
    829c:	43 14       	mov	a0,(20,sp)
    829e:	f1 d8       	mov	a2,d0
    82a0:	89          	mov	d2,d1
    82a1:	f0 f3       	calls	(a3)

000082a3 <.LVL10>:
    82a3:	a0 ff       	cmp	-1,d0
    82a5:	c8 05       	beq	82aa <.L17>

000082a7 <.L14>:
    82a7:	df f0 34    	ret	[d2,d3,a2,a3],52

000082aa <.L17>:
    82aa:	04          	clr	d1
    82ab:	5c 40       	mov	(64,sp),a0
    82ad:	64          	mov	d1,(a0)

000082ae <.Loc.71.1>:
    82ae:	2d 8a 00    	mov	138,d1
    82b1:	fc a0 08 9c 	mov	(9c08 <__impure_ptr>),a0
    82b5:	00 00 
    82b7:	64          	mov	d1,(a0)

000082b8 <.Loc.77.1>:
    82b8:	df f0 34    	ret	[d2,d3,a2,a3],52

000082bb <.L16>:
    82bb:	fc a7 08 9c 	mov	(9c08 <__impure_ptr>),d3
    82bf:	00 00 
    82c1:	dd fe cb ff 	call	4ebf <___locale_charset>,[],0
    82c5:	ff 00 00 

000082c8 <.LVL13>:
    82c8:	4a 0c       	mov	d2,(12,sp)
    82ca:	43 10       	mov	a0,(16,sp)
    82cc:	5c 40       	mov	(64,sp),a0
    82ce:	43 14       	mov	a0,(20,sp)
    82d0:	8c          	mov	d3,d0
    82d1:	3c          	mov	sp,a0
    82d2:	20 1a       	add	26,a0
    82d4:	f1 d1       	mov	a0,d1
    82d6:	f0 f3       	calls	(a3)

000082d8 <.LVL14>:
    82d8:	a0 ff       	cmp	-1,d0
    82da:	c9 cd       	bne	82a7 <.L14>
    82dc:	ca ce       	bra	82aa <.L17>

000082de <___ascii_wctomb>:
    82de:	cf 80       	movm	[d2],(sp)

000082e0 <.LCFI0>:
    82e0:	5a 10       	mov	(16,sp),d2

000082e2 <.Loc.41.1>:
    82e2:	a5 00       	cmp	0,d1
    82e4:	c8 11       	beq	82f5 <.L4>

000082e6 <.Loc.47.1>:
    82e6:	fa ca ff 00 	cmp	255,d2
    82ea:	c5 0f       	bhi	82f9 <.L6>

000082ec <.Loc.54.1>:
    82ec:	f1 e4       	mov	d1,a0
    82ee:	f0 58       	movbu	d2,(a0)

000082f0 <.Loc.55.1>:
    82f0:	80 01       	mov	1,d0

000082f2 <.LVL2>:
    82f2:	de 80 04    	retf	[d2],4

000082f5 <.L4>:
    82f5:	84          	mov	d1,d0

000082f6 <.LVL4>:
    82f6:	de 80 04    	retf	[d2],4

000082f9 <.L6>:
    82f9:	2d 8a 00    	mov	138,d1

000082fc <.LVL6>:
    82fc:	f1 e0       	mov	d0,a0
    82fe:	64          	mov	d1,(a0)

000082ff <.Loc.51.1>:
    82ff:	80 ff       	mov	-1,d0

00008301 <.LVL7>:
    8301:	de 80 04    	retf	[d2],4

00008304 <__wctomb_r>:
    8304:	cf e0       	movm	[d2,d3,a2],(sp)

00008306 <.LCFI1>:
    8306:	f8 fe e8    	add	-24,sp

00008309 <.LCFI2>:
    8309:	83          	mov	d0,d3
    830a:	86          	mov	d1,d2

0000830b <.Loc.25.1>:
    830b:	fc a2 bc a4 	mov	(a4bc <___wctomb>),a2
    830f:	00 00 
    8311:	dd ae cb ff 	call	4ebf <___locale_charset>,[],0
    8315:	ff 00 00 

00008318 <.LVL9>:
    8318:	58 30       	mov	(48,sp),d0
    831a:	42 0c       	mov	d0,(12,sp)
    831c:	43 10       	mov	a0,(16,sp)
    831e:	58 34       	mov	(52,sp),d0
    8320:	42 14       	mov	d0,(20,sp)
    8322:	8c          	mov	d3,d0
    8323:	89          	mov	d2,d1
    8324:	f0 f2       	calls	(a2)

00008326 <.LVL10>:
    8326:	df e0 24    	ret	[d2,d3,a2],36

00008329 <___udivdi3>:
    8329:	cf f0       	movm	[d2,d3,a2,a3],(sp)

0000832b <.LCFI0>:
    832b:	f8 fe fc    	add	-4,sp

0000832e <.LCFI1>:
    832e:	42 00       	mov	d0,(sp)
    8330:	5f 20       	mov	(32,sp),a3
    8332:	5a 24       	mov	(36,sp),d2

00008334 <.LBB10>:
    8334:	9c          	mov	a3,a0

00008335 <.LVL2>:
    8335:	aa 00       	cmp	0,d2
    8337:	c9 27       	bne	835e <.L2>

00008339 <.Loc.921.1>:
    8339:	f1 a7       	cmp	d1,a3
    833b:	c5 66       	bhi	83a1 <.L18>

0000833d <.Loc.934.1>:
    833d:	bf 00       	cmp	0,a3
    833f:	c9 0d       	bne	834c <.L5>

00008341 <.Loc.935.1>:
    8341:	8a 01       	mov	1,d2

00008343 <.LVL3>:
	...

00008344 <.LVL4>:
    8344:	f2 f2       	mov	d0,mdr
    8346:	f1 dc       	mov	a3,d0
    8348:	f2 72       	divu	d0,d2
    834a:	f1 e8       	mov	d2,a0

0000834c <.L5>:
    834c:	08          	clr	d2
    834d:	f2 fa       	mov	d2,mdr
    834f:	f1 d0       	mov	a0,d0
    8351:	f2 71       	divu	d0,d1

00008353 <.LVL6>:
    8353:	f2 e2       	mov	mdr,d2

00008355 <.LVL7>:
    8355:	58 00       	mov	(sp),d0
    8357:	f1 d3       	mov	a0,d3
    8359:	f2 7c       	divu	d3,d0

0000835b <.LBE10>:
    835b:	df f0 14    	ret	[d2,d3,a2,a3],20

0000835e <.L2>:
    835e:	a6          	cmp	d1,d2
    835f:	c5 3d       	bhi	839c <.L13>

00008361 <.LBB11>:
    8361:	fc ca ff ff 	cmp	65535,d2
    8365:	00 00 
    8367:	c5 44       	bhi	83ab <.L6>
    8369:	fa ca ff 00 	cmp	255,d2
    836d:	c7 05       	bls	8372 <.L0_0>
    836f:	cc a8 00    	jmp	8417 <.L14>

00008372 <.L0_0>:
    8372:	90 00       	mov	0,a0

00008374 <.LVL11>:
    8374:	91          	mov	a0,a1

00008375 <.L7>:
    8375:	88          	mov	d2,d0

00008376 <.LVL13>:
    8376:	f1 d3       	mov	a0,d3
    8378:	f2 ac       	lsr	d3,d0
    837a:	f1 e0       	mov	d0,a0
    837c:	fc 40 f4 99 	movbu	(39412,a0),d0
    8380:	00 00 
    8382:	f1 61       	add	d0,a1

00008384 <.LVL14>:
    8384:	90 20       	mov	32,a0
    8386:	f1 34       	sub	a1,a0

00008388 <.LBE11>:
    8388:	c9 43       	bne	83cb <.L8>

0000838a <.L20>:
    838a:	a6          	cmp	d1,d2
    838b:	c4 0b       	bcs	8396 <.L0_1>
    838d:	5a 00       	mov	(sp),d2

0000838f <.LVL16>:
    838f:	f1 ab       	cmp	d2,a3
    8391:	c7 05       	bls	8396 <.L0_1>
    8393:	cc 90 00    	jmp	8423 <.L19>

00008396 <.L0_1>:
    8396:	04          	clr	d1

00008397 <.LVL17>:
    8397:	80 01       	mov	1,d0

00008399 <.LBE12>:
    8399:	df f0 14    	ret	[d2,d3,a2,a3],20

0000839c <.L13>:
    839c:	04          	clr	d1

0000839d <.LVL19>:
    839d:	84          	mov	d1,d0

0000839e <.LBE18>:
    839e:	df f0 14    	ret	[d2,d3,a2,a3],20

000083a1 <.L18>:
    83a1:	f2 f6       	mov	d1,mdr
    83a3:	f1 df       	mov	a3,d3
    83a5:	f2 7c       	divu	d3,d0

000083a7 <.LBB19>:
    83a7:	89          	mov	d2,d1

000083a8 <.LBE19>:
    83a8:	df f0 14    	ret	[d2,d3,a2,a3],20

000083ab <.L6>:
    83ab:	fc ca ff ff 	cmp	16777215,d2
    83af:	ff 00 
    83b1:	c5 6c       	bhi	841d <.L15>
    83b3:	90 10       	mov	16,a0

000083b5 <.LVL25>:
    83b5:	91          	mov	a0,a1

000083b6 <.LVL26>:
    83b6:	88          	mov	d2,d0

000083b7 <.LVL27>:
    83b7:	f1 d3       	mov	a0,d3
    83b9:	f2 ac       	lsr	d3,d0
    83bb:	f1 e0       	mov	d0,a0

000083bd <.LVL28>:
    83bd:	fc 40 f4 99 	movbu	(39412,a0),d0
    83c1:	00 00 
    83c3:	f1 61       	add	d0,a1

000083c5 <.LVL29>:
    83c5:	90 20       	mov	32,a0
    83c7:	f1 34       	sub	a1,a0

000083c9 <.LBE13>:
    83c9:	c8 c1       	beq	838a <.L20>

000083cb <.L8>:
    83cb:	f1 d3       	mov	a0,d3
    83cd:	f2 9e       	asl	d3,d2

000083cf <.LVL32>:
    83cf:	f1 ea       	mov	d2,a2

000083d1 <.LVL33>:
    83d1:	86          	mov	d1,d2

000083d2 <.LVL34>:
    83d2:	f1 d4       	mov	a1,d0
    83d4:	f2 a2       	lsr	d0,d2

000083d6 <.LVL35>:
    83d6:	f2 9d       	asl	d3,d1

000083d8 <.LVL36>:
    83d8:	5b 00       	mov	(sp),d3
    83da:	f2 a3       	lsr	d0,d3
    83dc:	f2 1d       	or	d3,d1

000083de <.LVL37>:
    83de:	f1 df       	mov	a3,d3
    83e0:	f2 a3       	lsr	d0,d3
    83e2:	f1 d8       	mov	a2,d0
    83e4:	f2 1c       	or	d3,d0
    83e6:	f1 e2       	mov	d0,a2

000083e8 <.LVL38>:
    83e8:	f2 fa       	mov	d2,mdr
    83ea:	f2 71       	divu	d0,d1

000083ec <.LVL39>:
    83ec:	f2 e2       	mov	mdr,d2

000083ee <.LVL40>:
    83ee:	f1 dc       	mov	a3,d0
    83f0:	f1 d3       	mov	a0,d3
    83f2:	f2 9c       	asl	d3,d0
    83f4:	f1 e3       	mov	d0,a3

000083f6 <.LVL41>:
    83f6:	87          	mov	d1,d3
    83f7:	cb          	nop	
    83f8:	cb          	nop	
    83f9:	f2 53       	mulu	d0,d3
    83fb:	f2 e0       	mov	mdr,d0

000083fd <.LVL42>:
    83fd:	a2          	cmp	d0,d2
    83fe:	c4 12       	bcs	8410 <.L11>
    8400:	c8 07       	beq	8407 <.L12>

00008402 <.L16>:
    8402:	84          	mov	d1,d0
    8403:	04          	clr	d1

00008404 <.LBE14>:
    8404:	df f0 14    	ret	[d2,d3,a2,a3],20

00008407 <.L12>:
    8407:	58 00       	mov	(sp),d0
    8409:	f1 d2       	mov	a0,d2

0000840b <.LVL46>:
    840b:	f2 98       	asl	d2,d0

0000840d <.Loc.1092.1>:
    840d:	ac          	cmp	d3,d0
    840e:	c6 f4       	bcc	8402 <.L16>

00008410 <.L11>:
    8410:	84          	mov	d1,d0
    8411:	28 ff       	add	-1,d0

00008413 <.LVL48>:
    8413:	04          	clr	d1

00008414 <.LBE15>:
    8414:	df f0 14    	ret	[d2,d3,a2,a3],20

00008417 <.L14>:
    8417:	90 08       	mov	8,a0

00008419 <.LVL51>:
    8419:	91          	mov	a0,a1
    841a:	cc 5b ff    	jmp	8375 <.L7>

0000841d <.L15>:
    841d:	90 18       	mov	24,a0

0000841f <.LVL53>:
    841f:	91          	mov	a0,a1
    8420:	cc 55 ff    	jmp	8375 <.L7>

00008423 <.L19>:
    8423:	f1 d1       	mov	a0,d1

00008425 <.LVL55>:
    8425:	f1 d0       	mov	a0,d0

00008427 <.LBE22>:
    8427:	df f0 14    	ret	[d2,d3,a2,a3],20

0000842a <___umoddi3>:
    842a:	cf f0       	movm	[d2,d3,a2,a3],(sp)

0000842c <.LCFI0>:
    842c:	f8 fe f4    	add	-12,sp

0000842f <.LCFI1>:
    842f:	5d 28       	mov	(40,sp),a1
    8431:	5c 2c       	mov	(44,sp),a0

00008433 <.LBB10>:
    8433:	96          	mov	a1,a2

00008434 <.LVL2>:
    8434:	f1 e3       	mov	d0,a3

00008436 <.LVL3>:
    8436:	f2 f6       	mov	d1,mdr

00008438 <.LVL4>:
    8438:	b0 00       	cmp	0,a0
    843a:	c9 11       	bne	844b <.L2>

0000843c <.Loc.921.1>:
    843c:	f1 a5       	cmp	d1,a1
    843e:	c7 56       	bls	8494 <.L3>

00008440 <.Loc.925.1>:
    8440:	f1 d6       	mov	a1,d2
    8442:	f2 78       	divu	d2,d0

00008444 <.LVL5>:
    8444:	f2 e1       	mov	mdr,d1

00008446 <.LVL6>:
    8446:	84          	mov	d1,d0
    8447:	04          	clr	d1

00008448 <.L6>:
    8448:	df f0 1c    	ret	[d2,d3,a2,a3],28

0000844b <.L2>:
    844b:	f1 a4       	cmp	d1,a0
    844d:	c5 fb       	bhi	8448 <.L6>

0000844f <.LBB11>:
    844f:	fa d8 ff ff 	cmp	65535,a0
    8453:	c5 60       	bhi	84b3 <.L8>
    8455:	b0 ff       	cmp	255,a0
    8457:	c7 05       	bls	845c <.L0_0>
    8459:	cc 0d 01    	jmp	8566 <.L15>

0000845c <.L0_0>:
    845c:	9a 00       	mov	0,a2
    845e:	4b 04       	mov	a2,(4,sp)

00008460 <.L9>:
    8460:	f1 d2       	mov	a0,d2
    8462:	f1 db       	mov	a2,d3
    8464:	f2 ae       	lsr	d3,d2
    8466:	f1 ea       	mov	d2,a2
    8468:	fc 4a f4 99 	movbu	(39412,a2),d2
    846c:	00 00 
    846e:	5b 04       	mov	(4,sp),d3
    8470:	eb          	add	d2,d3
    8471:	4e 04       	mov	d3,(4,sp)
    8473:	8a 20       	mov	32,d2
    8475:	f1 0e       	sub	d3,d2
    8477:	4a 00       	mov	d2,(sp)

00008479 <.LBE11>:
    8479:	c9 64       	bne	84dd <.L10>

0000847b <.L19>:
    847b:	f1 a4       	cmp	d1,a0
    847d:	c4 06       	bcs	8483 <.L11>
    847f:	f1 a1       	cmp	d0,a1
    8481:	c5 0c       	bhi	848d <.L12>

00008483 <.L11>:
    8483:	f1 e3       	mov	d0,a3
    8485:	f1 d3       	mov	a0,d3
    8487:	f1 37       	sub	a1,a3
    8489:	f1 8d       	subc	d3,d1

0000848b <.LVL13>:
    848b:	f2 f6       	mov	d1,mdr

0000848d <.L12>:
    848d:	f1 dc       	mov	a3,d0

0000848f <.LVL15>:
    848f:	f2 e1       	mov	mdr,d1

00008491 <.LBE22>:
    8491:	df f0 1c    	ret	[d2,d3,a2,a3],28

00008494 <.L3>:
    8494:	b5 00       	cmp	0,a1
    8496:	c9 0d       	bne	84a3 <.L5>

00008498 <.Loc.935.1>:
    8498:	8f 01       	mov	1,d3
    849a:	08          	clr	d2
    849b:	f2 fa       	mov	d2,mdr
    849d:	f1 d6       	mov	a1,d2
    849f:	f2 7b       	divu	d2,d3
    84a1:	f1 ee       	mov	d3,a2

000084a3 <.L5>:
    84a3:	87          	mov	d1,d3
    84a4:	04          	clr	d1

000084a5 <.LVL19>:
    84a5:	f2 f6       	mov	d1,mdr
    84a7:	f1 da       	mov	a2,d2
    84a9:	f2 7b       	divu	d2,d3

000084ab <.LVL20>:
    84ab:	f2 78       	divu	d2,d0

000084ad <.LVL21>:
    84ad:	f2 e1       	mov	mdr,d1

000084af <.LVL22>:
    84af:	84          	mov	d1,d0
    84b0:	04          	clr	d1

000084b1 <.LVL23>:
    84b1:	ca 97       	bra	8448 <.L6>

000084b3 <.L8>:
    84b3:	fc d8 ff ff 	cmp	16777215,a0
    84b7:	ff 00 
    84b9:	c7 05       	bls	84be <.L0_1>
    84bb:	cc b2 00    	jmp	856d <.L16>

000084be <.L0_1>:
    84be:	9a 10       	mov	16,a2
    84c0:	4b 04       	mov	a2,(4,sp)

000084c2 <.LVL25>:
    84c2:	f1 d2       	mov	a0,d2
    84c4:	f1 db       	mov	a2,d3
    84c6:	f2 ae       	lsr	d3,d2
    84c8:	f1 ea       	mov	d2,a2

000084ca <.LVL26>:
    84ca:	fc 4a f4 99 	movbu	(39412,a2),d2
    84ce:	00 00 
    84d0:	5b 04       	mov	(4,sp),d3
    84d2:	eb          	add	d2,d3
    84d3:	4e 04       	mov	d3,(4,sp)
    84d5:	8a 20       	mov	32,d2
    84d7:	f1 0e       	sub	d3,d2
    84d9:	4a 00       	mov	d2,(sp)

000084db <.LBE13>:
    84db:	c8 a0       	beq	847b <.L19>

000084dd <.L10>:
    84dd:	f1 d2       	mov	a0,d2

000084df <.LVL29>:
    84df:	5b 00       	mov	(sp),d3
    84e1:	f2 9e       	asl	d3,d2
    84e3:	f1 e8       	mov	d2,a0

000084e5 <.LVL30>:
    84e5:	f1 d6       	mov	a1,d2
    84e7:	5b 04       	mov	(4,sp),d3
    84e9:	f2 ae       	lsr	d3,d2
    84eb:	f1 d3       	mov	a0,d3
    84ed:	f2 1b       	or	d2,d3
    84ef:	f1 ec       	mov	d3,a0

000084f1 <.LVL31>:
    84f1:	f1 d6       	mov	a1,d2
    84f3:	5b 00       	mov	(sp),d3

000084f5 <.LVL32>:
    84f5:	f2 9e       	asl	d3,d2
    84f7:	f1 e9       	mov	d2,a1

000084f9 <.LVL33>:
    84f9:	86          	mov	d1,d2

000084fa <.LVL34>:
    84fa:	f2 9e       	asl	d3,d2
    84fc:	f1 ea       	mov	d2,a2

000084fe <.LVL35>:
    84fe:	82          	mov	d0,d2

000084ff <.LVL36>:
    84ff:	f2 9e       	asl	d3,d2
    8501:	4a 08       	mov	d2,(8,sp)

00008503 <.LVL37>:
    8503:	5b 04       	mov	(4,sp),d3
    8505:	f2 ac       	lsr	d3,d0

00008507 <.LVL38>:
    8507:	f1 da       	mov	a2,d2

00008509 <.LVL39>:
    8509:	f2 12       	or	d0,d2

0000850b <.Loc.1085.1>:
    850b:	f2 ad       	lsr	d3,d1

0000850d <.LVL40>:
    850d:	88          	mov	d2,d0
    850e:	f2 f6       	mov	d1,mdr

00008510 <.LVL41>:
    8510:	f1 d2       	mov	a0,d2
    8512:	f2 78       	divu	d2,d0
    8514:	f2 e1       	mov	mdr,d1

00008516 <.LVL42>:
    8516:	f1 d7       	mov	a1,d3
    8518:	cb          	nop	
    8519:	cb          	nop	
    851a:	f2 5c       	mulu	d3,d0

0000851c <.LVL43>:
    851c:	f1 e3       	mov	d0,a3
    851e:	f2 e2       	mov	mdr,d2
    8520:	f1 ea       	mov	d2,a2

00008522 <.LVL44>:
    8522:	a9          	cmp	d2,d1
    8523:	c4 1e       	bcs	8541 <.L13>
    8525:	c8 4f       	beq	8574 <.L20>

00008527 <.LBB15>:
    8527:	58 08       	mov	(8,sp),d0

00008529 <.LVL46>:
    8529:	f1 da       	mov	a2,d2
    852b:	f1 1c       	sub	a3,d0
    852d:	f1 89       	subc	d2,d1

0000852f <.LBE15>:
    852f:	5b 00       	mov	(sp),d3
    8531:	f2 ac       	lsr	d3,d0

00008533 <.LVL48>:
    8533:	87          	mov	d1,d3
    8534:	5a 04       	mov	(4,sp),d2

00008536 <.LVL49>:
    8536:	f2 9b       	asl	d2,d3

00008538 <.Loc.1106.1>:
    8538:	f2 1c       	or	d3,d0
    853a:	5b 00       	mov	(sp),d3
    853c:	f2 ad       	lsr	d3,d1

0000853e <.L21>:
    853e:	df f0 1c    	ret	[d2,d3,a2,a3],28

00008541 <.L13>:
    8541:	f1 e3       	mov	d0,a3
    8543:	f2 e2       	mov	mdr,d2

00008545 <.LVL52>:
    8545:	f1 d3       	mov	a0,d3
    8547:	f1 37       	sub	a1,a3
    8549:	f1 8e       	subc	d3,d2
    854b:	f1 ea       	mov	d2,a2

0000854d <.LBB17>:
    854d:	58 08       	mov	(8,sp),d0
    854f:	f1 da       	mov	a2,d2
    8551:	f1 1c       	sub	a3,d0
    8553:	f1 89       	subc	d2,d1

00008555 <.LBE17>:
    8555:	5b 00       	mov	(sp),d3
    8557:	f2 ac       	lsr	d3,d0

00008559 <.LVL55>:
    8559:	87          	mov	d1,d3
    855a:	5a 04       	mov	(4,sp),d2

0000855c <.LVL56>:
    855c:	f2 9b       	asl	d2,d3

0000855e <.Loc.1106.1>:
    855e:	f2 1c       	or	d3,d0
    8560:	5b 00       	mov	(sp),d3
    8562:	f2 ad       	lsr	d3,d1

00008564 <.LVL57>:
    8564:	ca da       	bra	853e <.L21>

00008566 <.L15>:
    8566:	9a 08       	mov	8,a2
    8568:	4b 04       	mov	a2,(4,sp)
    856a:	cc f6 fe    	jmp	8460 <.L9>

0000856d <.L16>:
    856d:	9a 18       	mov	24,a2
    856f:	4b 04       	mov	a2,(4,sp)
    8571:	cc ef fe    	jmp	8460 <.L9>

00008574 <.L20>:
    8574:	5b 08       	mov	(8,sp),d3

00008576 <.LVL60>:
    8576:	a3          	cmp	d0,d3
    8577:	c4 ca       	bcs	8541 <.L13>
    8579:	f1 e6       	mov	d1,a2

0000857b <.LBB18>:
    857b:	58 08       	mov	(8,sp),d0

0000857d <.LVL62>:
    857d:	f1 da       	mov	a2,d2
    857f:	f1 1c       	sub	a3,d0
    8581:	f1 89       	subc	d2,d1

00008583 <.LBE18>:
    8583:	5b 00       	mov	(sp),d3
    8585:	f2 ac       	lsr	d3,d0

00008587 <.LVL64>:
    8587:	87          	mov	d1,d3
    8588:	5a 04       	mov	(4,sp),d2
    858a:	f2 9b       	asl	d2,d3

0000858c <.Loc.1106.1>:
    858c:	f2 1c       	or	d3,d0
    858e:	5b 00       	mov	(sp),d3
    8590:	f2 ad       	lsr	d3,d1

00008592 <.LVL65>:
    8592:	ca ac       	bra	853e <.L21>

00008594 <__fpadd_parts>:
    8594:	cf f0       	movm	[d2,d3,a2,a3],(sp)

00008596 <.LCFI0>:
    8596:	f8 fe f0    	add	-16,sp

00008599 <.LCFI1>:
    8599:	f1 e1       	mov	d0,a1
    859b:	f1 e4       	mov	d1,a0

0000859d <.LBB21>:
    859d:	71          	mov	(a1),d0

0000859e <.LBE21>:
    859e:	a0 01       	cmp	1,d0
    85a0:	c5 05       	bhi	85a5 <.L0_0>
    85a2:	cc 70 01    	jmp	8712 <.L2>

000085a5 <.L0_0>:
    85a5:	74          	mov	(a0),d1

000085a6 <.LBE23>:
    85a6:	a5 01       	cmp	1,d1
    85a8:	c5 05       	bhi	85ad <.L0_1>
    85aa:	cc a5 01    	jmp	874f <.L30>

000085ad <.L0_1>:
    85ad:	a0 04       	cmp	4,d0
    85af:	c9 05       	bne	85b4 <.L0_2>
    85b1:	cc 00 03    	jmp	88b1 <.L43>

000085b4 <.L0_2>:
    85b4:	a5 04       	cmp	4,d1
    85b6:	c9 05       	bne	85bb <.L0_3>
    85b8:	cc 97 01    	jmp	874f <.L30>

000085bb <.L0_3>:
    85bb:	a5 02       	cmp	2,d1
    85bd:	c9 05       	bne	85c2 <.L0_4>
    85bf:	cc 97 01    	jmp	8756 <.L44>

000085c2 <.L0_4>:
    85c2:	a0 02       	cmp	2,d0
    85c4:	c9 05       	bne	85c9 <.L0_5>
    85c6:	cc 89 01    	jmp	874f <.L30>

000085c9 <.L0_5>:
    85c9:	f8 29 08    	mov	(8,a1),a2

000085cc <.LVL9>:
    85cc:	f8 2c 08    	mov	(8,a0),a3

000085cf <.LVL10>:
    85cf:	f8 01 0c    	mov	(12,a1),d0
    85d2:	42 04       	mov	d0,(4,sp)
    85d4:	f8 05 10    	mov	(16,a1),d1
    85d7:	f2 f6       	mov	d1,mdr

000085d9 <.LVL11>:
    85d9:	f8 00 0c    	mov	(12,a0),d0

000085dc <.LVL12>:
    85dc:	f8 08 10    	mov	(16,a0),d2
    85df:	4a 00       	mov	d2,(sp)

000085e1 <.LVL13>:
    85e1:	f1 db       	mov	a2,d3
    85e3:	f1 1f       	sub	a3,d3

000085e5 <.LVL14>:
    85e5:	8d          	mov	d3,d1

000085e6 <.LVL15>:
    85e6:	f8 ea 06    	bnc	85ec <.L0_6>
    85e9:	cc a7 01    	jmp	8790 <.L45>

000085ec <.L0_6>:
    85ec:	a5 3f       	cmp	63,d1
    85ee:	c3 05       	ble	85f3 <.L0_7>
    85f0:	cc 28 01    	jmp	8718 <.L6>

000085f3 <.L0_7>:
    85f3:	af 00       	cmp	0,d3
    85f5:	c1 05       	bgt	85fa <.L0_8>
    85f7:	cc 08 02    	jmp	87ff <.L7>

000085fa <.L0_8>:
    85fa:	87          	mov	d1,d3

000085fb <.LVL18>:
    85fb:	f8 e3 20    	and	32,d3
    85fe:	c8 05       	beq	8603 <.L0_9>
    8600:	cc 9a 01    	jmp	879a <.L46>

00008603 <.L0_9>:
    8603:	5a 00       	mov	(sp),d2

00008605 <.LVL19>:
    8605:	ea          	add	d2,d2
    8606:	87          	mov	d1,d3
    8607:	f2 33       	not	d3
    8609:	f2 9e       	asl	d3,d2
    860b:	83          	mov	d0,d3
    860c:	f2 a7       	lsr	d1,d3
    860e:	f2 1b       	or	d2,d3
    8610:	4e 08       	mov	d3,(8,sp)
    8612:	5a 00       	mov	(sp),d2
    8614:	f2 a6       	lsr	d1,d2
    8616:	4a 0c       	mov	d2,(12,sp)
    8618:	87          	mov	d1,d3
    8619:	f8 e3 20    	and	32,d3
    861c:	f1 ef       	mov	d3,a3

0000861e <.LVL20>:
    861e:	c9 05       	bne	8623 <.L0_10>
    8620:	cc 8e 01    	jmp	87ae <.L0_16>

00008623 <.L0_10>:
    8623:	9f 01       	mov	1,a3
    8625:	f1 de       	mov	a3,d2
    8627:	f2 96       	asl	d1,d2
    8629:	f1 eb       	mov	d2,a3
    862b:	0c          	clr	d3
    862c:	8a ff       	mov	-1,d2
    862e:	f1 dd       	mov	a3,d1

00008630 <.LVL21>:
    8630:	eb          	add	d2,d3
    8631:	f1 46       	addc	d1,d2
    8633:	f2 03       	and	d0,d3
    8635:	58 00       	mov	(sp),d0

00008637 <.LVL22>:
    8637:	f2 02       	and	d0,d2
    8639:	f2 1b       	or	d2,d3
    863b:	00          	clr	d0
    863c:	f1 0c       	sub	d3,d0
    863e:	f2 1c       	or	d3,d0
    8640:	f8 c4 1f    	lsr	31,d0
    8643:	59 08       	mov	(8,sp),d1
    8645:	f2 14       	or	d1,d0
    8647:	5a 0c       	mov	(12,sp),d2
    8649:	4a 00       	mov	d2,(sp)

0000864b <.L12>:
    864b:	f8 05 04    	mov	(4,a1),d1
    864e:	f8 20 04    	mov	(4,a0),a0

00008651 <.LVL24>:
    8651:	f1 91       	cmp	a0,d1
    8653:	c9 05       	bne	8658 <.L0_11>
    8655:	cc d6 00    	jmp	872b <.L0_15>

00008658 <.L0_11>:
    8658:	a5 00       	cmp	0,d1
    865a:	c9 05       	bne	865f <.L0_12>
    865c:	cc 78 01    	jmp	87d4 <.L18>

0000865f <.L0_12>:
    865f:	f1 e1       	mov	d0,a1

00008661 <.LVL26>:
    8661:	5a 00       	mov	(sp),d2
    8663:	59 04       	mov	(4,sp),d1
    8665:	f2 e3       	mov	mdr,d3
    8667:	f1 25       	sub	d1,a1
    8669:	f1 8e       	subc	d3,d2

0000866b <.LVL27>:
    866b:	aa 00       	cmp	0,d2
    866d:	c2 05       	bge	8672 <.L0_13>
    866f:	cc 76 01    	jmp	87e5 <.L0_17>

00008672 <.L0_13>:
    8672:	00          	clr	d0
    8673:	5c 2c       	mov	(44,sp),a0
    8675:	f8 10 04    	mov	d0,(4,a0)

00008678 <.Loc.697.1>:
    8678:	f8 38 08    	mov	a2,(8,a0)

0000867b <.Loc.698.1>:
    867b:	f1 d4       	mov	a1,d0
    867d:	f8 34 0c    	mov	a1,(12,a0)
    8680:	f8 18 10    	mov	d2,(16,a0)

00008683 <.L22>:
    8683:	85 ff       	mov	-1,d1
    8685:	f1 e0       	mov	d0,a0
    8687:	f1 64       	add	d1,a0
    8689:	f1 49       	addc	d2,d1
    868b:	fc c9 ff ff 	cmp	268435455,d1
    868f:	ff 0f 
    8691:	c5 51       	bhi	86e2 <.L23>
    8693:	c9 05       	bne	8698 <.L0_14>
    8695:	cc b6 01    	jmp	884b <.L47>

00008698 <.L0_14>:
    8698:	5d 2c       	mov	(44,sp),a1
    869a:	f8 21 08    	mov	(8,a1),a0
    869d:	20 ff       	add	-1,a0

0000869f <.Loc.708.1>:
    869f:	fc df ff ff 	mov	-1,a3
    86a3:	ff ff 

000086a5 <.L41>:
    86a5:	83          	mov	d0,d3
    86a6:	f8 c7 1f    	lsr	31,d3
    86a9:	89          	mov	d2,d1
    86aa:	e5          	add	d1,d1
    86ab:	f2 1d       	or	d3,d1
    86ad:	f1 e1       	mov	d0,a1
    86af:	f1 75       	add	a1,a1
    86b1:	f1 d4       	mov	a1,d0
    86b3:	86          	mov	d1,d2

000086b4 <.Loc.711.1>:
    86b4:	f1 d3       	mov	a0,d3
    86b6:	f2 fe       	mov	d3,mdr
    86b8:	20 ff       	add	-1,a0

000086ba <.Loc.708.1>:
    86ba:	96          	mov	a1,a2
    86bb:	f1 df       	mov	a3,d3
    86bd:	22 ff       	add	-1,a2
    86bf:	f1 47       	addc	d1,d3
    86c1:	fc cb ff ff 	cmp	268435455,d3
    86c5:	ff 0f 
    86c7:	c5 0c       	bhi	86d3 <.L34>
    86c9:	c9 dc       	bne	86a5 <.L41>
    86cb:	fc da fe ff 	cmp	-2,a2
    86cf:	ff ff 
    86d1:	c7 d4       	bls	86a5 <.L41>

000086d3 <.L34>:
    86d3:	f2 e3       	mov	mdr,d3
    86d5:	f1 ee       	mov	d3,a2
    86d7:	5c 2c       	mov	(44,sp),a0
    86d9:	f8 34 0c    	mov	a1,(12,a0)
    86dc:	f8 14 10    	mov	d1,(16,a0)
    86df:	f8 1c 08    	mov	d3,(8,a0)

000086e2 <.L23>:
    86e2:	85 03       	mov	3,d1
    86e4:	5c 2c       	mov	(44,sp),a0
    86e6:	64          	mov	d1,(a0)

000086e7 <.Loc.724.1>:
    86e7:	fc ca ff ff 	cmp	536870911,d2
    86eb:	ff 1f 
    86ed:	c7 62       	bls	874f <.L30>

000086ef <.L35>:
    86ef:	81          	mov	d0,d1
    86f0:	f8 e1 01    	and	1,d1
    86f3:	8b          	mov	d2,d3
    86f4:	f8 c3 1f    	asl	31,d3
    86f7:	f8 c4 01    	lsr	1,d0
    86fa:	f2 1c       	or	d3,d0
    86fc:	f8 c6 01    	lsr	1,d2
    86ff:	f2 11       	or	d0,d1
    8701:	5d 2c       	mov	(44,sp),a1
    8703:	f8 15 0c    	mov	d1,(12,a1)
    8706:	f8 19 10    	mov	d2,(16,a1)

00008709 <.Loc.727.1>:
    8709:	f8 01 08    	mov	(8,a1),d0
    870c:	40          	inc	d0
    870d:	f8 11 08    	mov	d0,(8,a1)
    8710:	5d 2c       	mov	(44,sp),a1

00008712 <.L2>:
    8712:	94          	mov	a1,a0
    8713:	f1 d4       	mov	a1,d0
    8715:	df f0 20    	ret	[d2,d3,a2,a3],32

00008718 <.L6>:
    8718:	be          	cmp	a3,a2
    8719:	c3 6e       	ble	8787 <.L31>

0000871b <.Loc.674.1>:
	...

0000871c <.LVL32>:
    871c:	42 00       	mov	d0,(sp)

0000871e <.LBE26>:
    871e:	f8 05 04    	mov	(4,a1),d1

00008721 <.LVL34>:
    8721:	f8 20 04    	mov	(4,a0),a0

00008724 <.LVL35>:
    8724:	f1 91       	cmp	a0,d1
    8726:	c8 05       	beq	872b <.L0_15>
    8728:	cc 30 ff    	jmp	8658 <.L0_11>

0000872b <.L0_15>:
    872b:	5d 2c       	mov	(44,sp),a1

0000872d <.LVL37>:
    872d:	f8 15 04    	mov	d1,(4,a1)

00008730 <.Loc.717.1>:
    8730:	f8 39 08    	mov	a2,(8,a1)

00008733 <.Loc.718.1>:
    8733:	5a 00       	mov	(sp),d2
    8735:	59 04       	mov	(4,sp),d1
    8737:	f2 e3       	mov	mdr,d3
    8739:	e4          	add	d1,d0
    873a:	f1 4e       	addc	d3,d2
    873c:	f8 11 0c    	mov	d0,(12,a1)
    873f:	f8 19 10    	mov	d2,(16,a1)

00008742 <.Loc.720.1>:
    8742:	85 03       	mov	3,d1
    8744:	5c 2c       	mov	(44,sp),a0
    8746:	64          	mov	d1,(a0)

00008747 <.Loc.724.1>:
    8747:	fc ca ff ff 	cmp	536870911,d2
    874b:	ff 1f 
    874d:	c5 a2       	bhi	86ef <.L35>

0000874f <.L30>:
    874f:	91          	mov	a0,a1

00008750 <.Loc.730.1>:
    8750:	94          	mov	a1,a0
    8751:	f1 d4       	mov	a1,d0
    8753:	df f0 20    	ret	[d2,d3,a2,a3],32

00008756 <.L44>:
    8756:	a0 02       	cmp	2,d0
    8758:	c9 ba       	bne	8712 <.L2>

0000875a <.Loc.628.1>:
    875a:	5e 2c       	mov	(44,sp),a2
    875c:	62          	mov	d0,(a2)
    875d:	f8 01 04    	mov	(4,a1),d0
    8760:	f8 12 04    	mov	d0,(4,a2)
    8763:	f8 01 08    	mov	(8,a1),d0
    8766:	f8 12 08    	mov	d0,(8,a2)
    8769:	f8 01 0c    	mov	(12,a1),d0
    876c:	f8 12 0c    	mov	d0,(12,a2)
    876f:	f8 01 10    	mov	(16,a1),d0
    8772:	f8 12 10    	mov	d0,(16,a2)

00008775 <.Loc.629.1>:
    8775:	f8 00 04    	mov	(4,a0),d0
    8778:	f8 05 04    	mov	(4,a1),d1
    877b:	f2 04       	and	d1,d0
    877d:	f8 12 04    	mov	d0,(4,a2)

00008780 <.Loc.630.1>:
    8780:	99          	mov	a2,a1

00008781 <.LVL40>:
    8781:	94          	mov	a1,a0

00008782 <.LVL41>:
    8782:	f1 d4       	mov	a1,d0
    8784:	df f0 20    	ret	[d2,d3,a2,a3],32

00008787 <.L31>:
    8787:	9e          	mov	a3,a2

00008788 <.LVL43>:
    8788:	0c          	clr	d3

00008789 <.LVL44>:
    8789:	4e 04       	mov	d3,(4,sp)
    878b:	f2 fe       	mov	d3,mdr

0000878d <.LVL45>:
    878d:	cc be fe    	jmp	864b <.L12>

00008790 <.L45>:
    8790:	04          	clr	d1

00008791 <.LVL47>:
    8791:	f1 0d       	sub	d3,d1

00008793 <.LVL48>:
    8793:	a5 3f       	cmp	63,d1
    8795:	c1 83       	bgt	8718 <.L6>
    8797:	cc 5c fe    	jmp	85f3 <.L0_7>

0000879a <.L46>:
    879a:	5b 00       	mov	(sp),d3
    879c:	f2 a7       	lsr	d1,d3
    879e:	4e 08       	mov	d3,(8,sp)
    87a0:	08          	clr	d2

000087a1 <.LVL50>:
    87a1:	4a 0c       	mov	d2,(12,sp)
    87a3:	87          	mov	d1,d3
    87a4:	f8 e3 20    	and	32,d3
    87a7:	f1 ef       	mov	d3,a3

000087a9 <.LVL51>:
    87a9:	c8 05       	beq	87ae <.L0_16>
    87ab:	cc 78 fe    	jmp	8623 <.L0_10>

000087ae <.L0_16>:
    87ae:	8f 01       	mov	1,d3
    87b0:	f2 97       	asl	d1,d3
    87b2:	8a ff       	mov	-1,d2
    87b4:	f1 dd       	mov	a3,d1

000087b6 <.LVL52>:
    87b6:	eb          	add	d2,d3
    87b7:	f1 46       	addc	d1,d2
    87b9:	f2 03       	and	d0,d3
    87bb:	58 00       	mov	(sp),d0

000087bd <.LVL53>:
    87bd:	f2 02       	and	d0,d2
    87bf:	f2 1b       	or	d2,d3
    87c1:	00          	clr	d0
    87c2:	f1 0c       	sub	d3,d0
    87c4:	f2 1c       	or	d3,d0
    87c6:	f8 c4 1f    	lsr	31,d0
    87c9:	59 08       	mov	(8,sp),d1
    87cb:	f2 14       	or	d1,d0
    87cd:	5a 0c       	mov	(12,sp),d2
    87cf:	4a 00       	mov	d2,(sp)

000087d1 <.LVL54>:
    87d1:	cc 7a fe    	jmp	864b <.L12>

000087d4 <.L18>:
    87d4:	5d 04       	mov	(4,sp),a1

000087d6 <.LVL56>:
    87d6:	f2 e2       	mov	mdr,d2
    87d8:	59 00       	mov	(sp),d1
    87da:	f1 21       	sub	d0,a1
    87dc:	f1 86       	subc	d1,d2

000087de <.LVL57>:
    87de:	aa 00       	cmp	0,d2
    87e0:	c0 05       	blt	87e5 <.L0_17>
    87e2:	cc 90 fe    	jmp	8672 <.L0_13>

000087e5 <.L0_17>:
    87e5:	80 01       	mov	1,d0
    87e7:	5c 2c       	mov	(44,sp),a0
    87e9:	f8 10 04    	mov	d0,(4,a0)

000087ec <.Loc.703.1>:
    87ec:	f8 38 08    	mov	a2,(8,a0)

000087ef <.Loc.704.1>:
    87ef:	0c          	clr	d3
    87f0:	8c          	mov	d3,d0
    87f1:	f1 14       	sub	a1,d0
    87f3:	f1 8b       	subc	d2,d3
    87f5:	8e          	mov	d3,d2
    87f6:	f8 10 0c    	mov	d0,(12,a0)
    87f9:	f8 1c 10    	mov	d3,(16,a0)
    87fc:	cc 87 fe    	jmp	8683 <.L22>

000087ff <.L7>:
    87ff:	c9 05       	bne	8804 <.L0_18>
    8801:	cc 4a fe    	jmp	864b <.L12>

00008804 <.L0_18>:
    8804:	f1 66       	add	d1,a2

00008806 <.Loc.665.1>:
    8806:	87          	mov	d1,d3

00008807 <.LVL61>:
    8807:	f8 e3 20    	and	32,d3
    880a:	f2 e3       	mov	mdr,d3
    880c:	c9 05       	bne	8811 <.L0_19>
    880e:	cc 87 00    	jmp	8895 <.L13>

00008811 <.L0_19>:
    8811:	f2 a7       	lsr	d1,d3

00008813 <.LVL63>:
    8813:	4e 08       	mov	d3,(8,sp)
    8815:	08          	clr	d2

00008816 <.LVL64>:
    8816:	4a 0c       	mov	d2,(12,sp)

00008818 <.L14>:
    8818:	87          	mov	d1,d3
    8819:	f8 e3 20    	and	32,d3
    881c:	c8 4a       	beq	8866 <.L15>
    881e:	8f 01       	mov	1,d3
    8820:	f2 97       	asl	d1,d3
    8822:	9f 00       	mov	0,a3
    8824:	85 ff       	mov	-1,d1

00008826 <.LVL66>:
    8826:	f1 67       	add	d1,a3
    8828:	f1 47       	addc	d1,d3
    882a:	f1 dd       	mov	a3,d1
    882c:	5a 04       	mov	(4,sp),d2
    882e:	f2 09       	and	d2,d1
    8830:	f2 e2       	mov	mdr,d2
    8832:	f2 0b       	and	d2,d3
    8834:	f2 1d       	or	d3,d1
    8836:	0c          	clr	d3
    8837:	f1 07       	sub	d1,d3
    8839:	f2 17       	or	d1,d3
    883b:	f8 c7 1f    	lsr	31,d3
    883e:	59 08       	mov	(8,sp),d1
    8840:	f2 17       	or	d1,d3
    8842:	4e 04       	mov	d3,(4,sp)
    8844:	5a 0c       	mov	(12,sp),d2
    8846:	f2 fa       	mov	d2,mdr

00008848 <.LVL67>:
    8848:	cc 03 fe    	jmp	864b <.L12>

0000884b <.L47>:
    884b:	fc d8 fe ff 	cmp	-2,a0
    884f:	ff ff 
    8851:	c7 05       	bls	8856 <.L0_20>
    8853:	cc 8f fe    	jmp	86e2 <.L23>

00008856 <.L0_20>:
    8856:	5d 2c       	mov	(44,sp),a1
    8858:	f8 21 08    	mov	(8,a1),a0
    885b:	20 ff       	add	-1,a0

0000885d <.Loc.708.1>:
    885d:	fc df ff ff 	mov	-1,a3
    8861:	ff ff 
    8863:	cc 42 fe    	jmp	86a5 <.L41>

00008866 <.L15>:
    8866:	9f 01       	mov	1,a3
    8868:	f1 de       	mov	a3,d2
    886a:	f2 96       	asl	d1,d2
    886c:	f1 eb       	mov	d2,a3
    886e:	85 ff       	mov	-1,d1

00008870 <.LVL70>:
    8870:	f1 67       	add	d1,a3
    8872:	f1 47       	addc	d1,d3
    8874:	f1 dd       	mov	a3,d1
    8876:	5a 04       	mov	(4,sp),d2
    8878:	f2 09       	and	d2,d1
    887a:	f2 e2       	mov	mdr,d2
    887c:	f2 0b       	and	d2,d3
    887e:	f2 1d       	or	d3,d1
    8880:	0c          	clr	d3
    8881:	f1 07       	sub	d1,d3
    8883:	f2 17       	or	d1,d3
    8885:	f8 c7 1f    	lsr	31,d3
    8888:	59 08       	mov	(8,sp),d1
    888a:	f2 17       	or	d1,d3
    888c:	4e 04       	mov	d3,(4,sp)
    888e:	5a 0c       	mov	(12,sp),d2
    8890:	f2 fa       	mov	d2,mdr

00008892 <.LVL71>:
    8892:	cc b9 fd    	jmp	864b <.L12>

00008895 <.L13>:
    8895:	f1 ef       	mov	d3,a3

00008897 <.LVL73>:
    8897:	f1 7f       	add	a3,a3
    8899:	86          	mov	d1,d2

0000889a <.LVL74>:
    889a:	f2 32       	not	d2
    889c:	f1 df       	mov	a3,d3

0000889e <.LVL75>:
    889e:	f2 9b       	asl	d2,d3
    88a0:	5a 04       	mov	(4,sp),d2
    88a2:	f2 a6       	lsr	d1,d2
    88a4:	f2 1b       	or	d2,d3
    88a6:	4e 08       	mov	d3,(8,sp)
    88a8:	f2 e3       	mov	mdr,d3
    88aa:	f2 a7       	lsr	d1,d3
    88ac:	4e 0c       	mov	d3,(12,sp)
    88ae:	cc 6a ff    	jmp	8818 <.L14>

000088b1 <.L43>:
    88b1:	a5 04       	cmp	4,d1
    88b3:	c8 05       	beq	88b8 <.L0_21>
    88b5:	cc 5d fe    	jmp	8712 <.L2>

000088b8 <.L0_21>:
    88b8:	f8 01 04    	mov	(4,a1),d0
    88bb:	f8 04 04    	mov	(4,a0),d1
    88be:	a4          	cmp	d1,d0
    88bf:	c9 05       	bne	88c4 <.L0_22>
    88c1:	cc 51 fe    	jmp	8712 <.L2>

000088c4 <.L0_22>:
    88c4:	fc dd e0 99 	mov	39392,a1
    88c8:	00 00 

000088ca <.LVL77>:
    88ca:	94          	mov	a1,a0

000088cb <.LVL78>:
    88cb:	f1 d4       	mov	a1,d0
    88cd:	df f0 20    	ret	[d2,d3,a2,a3],32

000088d0 <___adddf3>:
    88d0:	f8 fe a4    	add	-92,sp

000088d3 <.LCFI2>:
    88d3:	42 10       	mov	d0,(16,sp)
    88d5:	46 14       	mov	d1,(20,sp)

000088d7 <.Loc.742.1>:
    88d7:	58 68       	mov	(104,sp),d0

000088d9 <.LVL80>:
    88d9:	42 18       	mov	d0,(24,sp)
    88db:	58 6c       	mov	(108,sp),d0
    88dd:	42 1c       	mov	d0,(28,sp)

000088df <.Loc.744.1>:
    88df:	3c          	mov	sp,a0
    88e0:	20 10       	add	16,a0
    88e2:	f1 d0       	mov	a0,d0
    88e4:	3c          	mov	sp,a0
    88e5:	85 20       	mov	32,d1
    88e7:	f1 51       	add	a0,d1
    88e9:	dd 74 0a 00 	call	935d <___unpack_d>,[],0
    88ed:	00 00 00 

000088f0 <.LVL81>:
    88f0:	3c          	mov	sp,a0
    88f1:	20 18       	add	24,a0
    88f3:	f1 d0       	mov	a0,d0
    88f5:	3c          	mov	sp,a0
    88f6:	85 34       	mov	52,d1
    88f8:	f1 51       	add	a0,d1
    88fa:	dd 63 0a 00 	call	935d <___unpack_d>,[],0
    88fe:	00 00 00 

00008901 <.LVL82>:
    8901:	3c          	mov	sp,a0
    8902:	20 48       	add	72,a0
    8904:	43 0c       	mov	a0,(12,sp)
    8906:	3c          	mov	sp,a0
    8907:	80 20       	mov	32,d0
    8909:	f1 50       	add	a0,d0
    890b:	85 34       	mov	52,d1
    890d:	f1 51       	add	a0,d1
    890f:	cd 85 fc 00 	call	8594 <__fpadd_parts>,[],0
    8913:	00 

00008914 <.LVL83>:
    8914:	f1 d0       	mov	a0,d0
    8916:	dd 33 08 00 	call	9149 <___pack_d>,[],0
    891a:	00 00 00 

0000891d <.LVL84>:
    891d:	df 00 5c    	ret	[],92

00008920 <___subdf3>:
    8920:	f8 fe a4    	add	-92,sp

00008923 <.LCFI3>:
    8923:	42 10       	mov	d0,(16,sp)
    8925:	46 14       	mov	d1,(20,sp)

00008927 <.Loc.762.1>:
    8927:	58 68       	mov	(104,sp),d0

00008929 <.LVL86>:
    8929:	42 18       	mov	d0,(24,sp)
    892b:	58 6c       	mov	(108,sp),d0
    892d:	42 1c       	mov	d0,(28,sp)

0000892f <.Loc.764.1>:
    892f:	3c          	mov	sp,a0
    8930:	20 10       	add	16,a0
    8932:	f1 d0       	mov	a0,d0
    8934:	3c          	mov	sp,a0
    8935:	85 20       	mov	32,d1
    8937:	f1 51       	add	a0,d1
    8939:	dd 24 0a 00 	call	935d <___unpack_d>,[],0
    893d:	00 00 00 

00008940 <.LVL87>:
    8940:	3c          	mov	sp,a0
    8941:	20 18       	add	24,a0
    8943:	f1 d0       	mov	a0,d0
    8945:	3c          	mov	sp,a0
    8946:	85 34       	mov	52,d1
    8948:	f1 51       	add	a0,d1
    894a:	dd 13 0a 00 	call	935d <___unpack_d>,[],0
    894e:	00 00 00 

00008951 <.LVL88>:
    8951:	58 38       	mov	(56,sp),d0
    8953:	fa e8 01 00 	xor	1,d0
    8957:	42 38       	mov	d0,(56,sp)

00008959 <.Loc.769.1>:
    8959:	3c          	mov	sp,a0
    895a:	20 48       	add	72,a0
    895c:	43 0c       	mov	a0,(12,sp)
    895e:	3c          	mov	sp,a0
    895f:	80 20       	mov	32,d0
    8961:	f1 50       	add	a0,d0
    8963:	85 34       	mov	52,d1
    8965:	f1 51       	add	a0,d1
    8967:	cd 2d fc 00 	call	8594 <__fpadd_parts>,[],0
    896b:	00 

0000896c <.LVL89>:
    896c:	f1 d0       	mov	a0,d0
    896e:	dd db 07 00 	call	9149 <___pack_d>,[],0
    8972:	00 00 00 

00008975 <.LVL90>:
    8975:	df 00 5c    	ret	[],92

00008978 <___muldf3>:
    8978:	cf f0       	movm	[d2,d3,a2,a3],(sp)

0000897a <.LCFI0>:
    897a:	f8 fe 9c    	add	-100,sp

0000897d <.LCFI1>:
    897d:	42 18       	mov	d0,(24,sp)
    897f:	46 1c       	mov	d1,(28,sp)

00008981 <.Loc.948.1>:
    8981:	58 80       	mov	(128,sp),d0

00008983 <.LVL1>:
    8983:	42 20       	mov	d0,(32,sp)
    8985:	58 84       	mov	(132,sp),d0
    8987:	42 24       	mov	d0,(36,sp)

00008989 <.Loc.950.1>:
    8989:	3c          	mov	sp,a0
    898a:	20 18       	add	24,a0
    898c:	f1 d0       	mov	a0,d0
    898e:	3c          	mov	sp,a0
    898f:	85 28       	mov	40,d1
    8991:	f1 51       	add	a0,d1
    8993:	dd ca 09 00 	call	935d <___unpack_d>,[],0
    8997:	00 00 00 

0000899a <.LVL2>:
    899a:	3c          	mov	sp,a0
    899b:	20 20       	add	32,a0
    899d:	f1 d0       	mov	a0,d0
    899f:	3c          	mov	sp,a0
    89a0:	85 3c       	mov	60,d1
    89a2:	f1 51       	add	a0,d1
    89a4:	dd b9 09 00 	call	935d <___unpack_d>,[],0
    89a8:	00 00 00 

000089ab <.LBB28>:
    89ab:	58 28       	mov	(40,sp),d0

000089ad <.LBE30>:
    89ad:	a0 01       	cmp	1,d0
    89af:	c5 21       	bhi	89d0 <.L2>

000089b1 <.L44>:
    89b1:	59 2c       	mov	(44,sp),d1
    89b3:	58 40       	mov	(64,sp),d0
    89b5:	f2 21       	xor	d0,d1
    89b7:	00          	clr	d0
    89b8:	f1 04       	sub	d1,d0
    89ba:	f2 14       	or	d1,d0
    89bc:	f8 c4 1f    	lsr	31,d0
    89bf:	42 2c       	mov	d0,(44,sp)

000089c1 <.Loc.953.1>:
    89c1:	3c          	mov	sp,a0
    89c2:	80 28       	mov	40,d0
    89c4:	f1 50       	add	a0,d0

000089c6 <.LBE28>:
    89c6:	dd 83 07 00 	call	9149 <___pack_d>,[],0
    89ca:	00 00 00 

000089cd <.LVL4>:
    89cd:	df f0 74    	ret	[d2,d3,a2,a3],116

000089d0 <.L2>:
    89d0:	59 3c       	mov	(60,sp),d1

000089d2 <.LBE32>:
    89d2:	a5 01       	cmp	1,d1
    89d4:	c5 21       	bhi	89f5 <.L4>

000089d6 <.L43>:
    89d6:	59 2c       	mov	(44,sp),d1
    89d8:	58 40       	mov	(64,sp),d0
    89da:	f2 21       	xor	d0,d1
    89dc:	00          	clr	d0
    89dd:	f1 04       	sub	d1,d0
    89df:	f2 14       	or	d1,d0
    89e1:	f8 c4 1f    	lsr	31,d0
    89e4:	42 40       	mov	d0,(64,sp)

000089e6 <.Loc.953.1>:
    89e6:	3c          	mov	sp,a0
    89e7:	80 3c       	mov	60,d0
    89e9:	f1 50       	add	a0,d0

000089eb <.LBE36>:
    89eb:	dd 5e 07 00 	call	9149 <___pack_d>,[],0
    89ef:	00 00 00 

000089f2 <.LVL6>:
    89f2:	df f0 74    	ret	[d2,d3,a2,a3],116

000089f5 <.L4>:
    89f5:	a0 04       	cmp	4,d0
    89f7:	c9 16       	bne	8a0d <.L5>

000089f9 <.Loc.796.1>:
    89f9:	a5 02       	cmp	2,d1
    89fb:	c9 b6       	bne	89b1 <.L44>

000089fd <.Loc.797.1>:
    89fd:	fc cc e0 99 	mov	39392,d0
    8a01:	00 00 

00008a03 <.L47>:
    8a03:	dd 46 07 00 	call	9149 <___pack_d>,[],0
    8a07:	00 00 00 

00008a0a <.LVL10>:
    8a0a:	df f0 74    	ret	[d2,d3,a2,a3],116

00008a0d <.L5>:
    8a0d:	a5 04       	cmp	4,d1
    8a0f:	c9 0e       	bne	8a1d <.L6>

00008a11 <.Loc.803.1>:
    8a11:	a0 02       	cmp	2,d0
    8a13:	c9 c3       	bne	89d6 <.L43>

00008a15 <.Loc.797.1>:
    8a15:	fc cc e0 99 	mov	39392,d0
    8a19:	00 00 
    8a1b:	ca e8       	bra	8a03 <.L47>

00008a1d <.L6>:
    8a1d:	a0 02       	cmp	2,d0
    8a1f:	c8 92       	beq	89b1 <.L44>

00008a21 <.Loc.815.1>:
    8a21:	a5 02       	cmp	2,d1
    8a23:	c8 b3       	beq	89d6 <.L43>

00008a25 <.LBB34>:
    8a25:	5d 34       	mov	(52,sp),a1

00008a27 <.LVL15>:
    8a27:	5a 48       	mov	(72,sp),d2
    8a29:	5f 4c       	mov	(76,sp),a3

00008a2b <.LVL16>:
    8a2b:	f1 d4       	mov	a1,d0
    8a2d:	cb          	nop	
    8a2e:	cb          	nop	
    8a2f:	f2 58       	mulu	d2,d0
    8a31:	f2 e3       	mov	mdr,d3
    8a33:	f1 e2       	mov	d0,a2

00008a35 <.LVL17>:
    8a35:	f1 d4       	mov	a1,d0

00008a37 <.LVL18>:
    8a37:	f1 dd       	mov	a3,d1
    8a39:	cb          	nop	
    8a3a:	cb          	nop	
    8a3b:	f2 54       	mulu	d1,d0
    8a3d:	f2 e1       	mov	mdr,d1
    8a3f:	f1 e4       	mov	d1,a0
    8a41:	f1 e1       	mov	d0,a1

00008a43 <.LVL19>:
    8a43:	f1 dc       	mov	a3,d0

00008a45 <.LVL20>:
    8a45:	59 38       	mov	(56,sp),d1

00008a47 <.LVL21>:
    8a47:	cb          	nop	
    8a48:	cb          	nop	
    8a49:	f2 54       	mulu	d1,d0
    8a4b:	f2 e1       	mov	mdr,d1
    8a4d:	f1 e7       	mov	d1,a3

00008a4f <.LVL22>:
    8a4f:	42 14       	mov	d0,(20,sp)

00008a51 <.LVL23>:
    8a51:	58 38       	mov	(56,sp),d0

00008a53 <.LVL24>:
    8a53:	cb          	nop	
    8a54:	cb          	nop	
    8a55:	f2 52       	mulu	d0,d2

00008a57 <.LVL25>:
    8a57:	f2 e1       	mov	mdr,d1

00008a59 <.LVL26>:
    8a59:	f1 d0       	mov	a0,d0
    8a5b:	f1 56       	add	a1,d2
    8a5d:	f1 44       	addc	d1,d0
    8a5f:	42 10       	mov	d0,(16,sp)

00008a61 <.LVL27>:
    8a61:	f1 a0       	cmp	d0,a0
    8a63:	c5 0e       	bhi	8a71 <.L0_1>
    8a65:	c8 05       	beq	8a6a <.L0_0>
    8a67:	cc 0b 01    	jmp	8b72 <.L30>

00008a6a <.L0_0>:
    8a6a:	f1 a9       	cmp	d2,a1
    8a6c:	c5 05       	bhi	8a71 <.L0_1>
    8a6e:	cc 04 01    	jmp	8b72 <.L30>

00008a71 <.L0_1>:
    8a71:	95 00       	mov	0,a1

00008a73 <.LVL28>:
    8a73:	80 01       	mov	1,d0

00008a75 <.LVL29>:
    8a75:	f2 f2       	mov	d0,mdr

00008a77 <.L9>:
    8a77:	98          	mov	a2,a0
    8a78:	ee          	add	d3,d2

00008a79 <.LVL31>:
    8a79:	4a 0c       	mov	d2,(12,sp)

00008a7b <.LVL32>:
    8a7b:	ab          	cmp	d2,d3
    8a7c:	c5 09       	bhi	8a85 <.L31>

00008a7e <.LVL33>:
    8a7e:	c9 10       	bne	8a8e <.L11>
    8a80:	f8 ec 00    	btst	0,d0
    8a83:	c7 0b       	bls	8a8e <.L11>

00008a85 <.L31>:
    8a85:	0c          	clr	d3

00008a86 <.LVL34>:
    8a86:	f2 e1       	mov	mdr,d1
    8a88:	21 01       	add	1,a1

00008a8a <.LVL35>:
    8a8a:	f1 4d       	addc	d3,d1
    8a8c:	f2 f6       	mov	d1,mdr

00008a8e <.L11>:
    8a8e:	0c          	clr	d3
    8a8f:	5a 10       	mov	(16,sp),d2

00008a91 <.LVL37>:
    8a91:	f1 dc       	mov	a3,d0
    8a93:	59 14       	mov	(20,sp),d1
    8a95:	e6          	add	d1,d2
    8a96:	f1 4c       	addc	d3,d0
    8a98:	f1 e3       	mov	d0,a3

00008a9a <.LVL38>:
    8a9a:	88          	mov	d2,d0
    8a9b:	f1 dd       	mov	a3,d1
    8a9d:	f2 e3       	mov	mdr,d3
    8a9f:	f1 54       	add	a1,d0
    8aa1:	f1 4d       	addc	d3,d1

00008aa3 <.LBE34>:
    8aa3:	5d 44       	mov	(68,sp),a1
    8aa5:	5b 30       	mov	(48,sp),d3
    8aa7:	f1 6d       	add	d3,a1

00008aa9 <.Loc.888.1>:
    8aa9:	f1 d7       	mov	a1,d3
    8aab:	2b 04       	add	4,d3

00008aad <.Loc.887.1>:
    8aad:	4e 58       	mov	d3,(88,sp)

00008aaf <.Loc.889.1>:
    8aaf:	5e 2c       	mov	(44,sp),a2
    8ab1:	f1 da       	mov	a2,d2
    8ab3:	5b 40       	mov	(64,sp),d3
    8ab5:	f2 2e       	xor	d3,d2
    8ab7:	f1 ea       	mov	d2,a2
    8ab9:	9f 00       	mov	0,a3
    8abb:	f1 2b       	sub	d2,a3
    8abd:	f1 df       	mov	a3,d3
    8abf:	f2 1b       	or	d2,d3
    8ac1:	f8 c7 1f    	lsr	31,d3
    8ac4:	f1 ef       	mov	d3,a3
    8ac6:	4e 54       	mov	d3,(84,sp)

00008ac8 <.Loc.939.1>:
    8ac8:	21 05       	add	5,a1

00008aca <.Loc.890.1>:
    8aca:	fc c9 ff ff 	cmp	536870911,d1
    8ace:	ff 1f 
    8ad0:	c7 43       	bls	8b13 <.L13>

00008ad2 <.L38>:
    8ad2:	96          	mov	a1,a2

00008ad3 <.Loc.893.1>:
    8ad3:	83          	mov	d0,d3
    8ad4:	f8 e3 01    	and	1,d3
    8ad7:	c8 25       	beq	8afc <.L15>

00008ad9 <.Loc.895.1>:
    8ad9:	5a 0c       	mov	(12,sp),d2
    8adb:	f8 c2 1f    	asl	31,d2
    8ade:	f1 eb       	mov	d2,a3
    8ae0:	f1 d3       	mov	a0,d3
    8ae2:	f8 c7 01    	lsr	1,d3
    8ae5:	5a 0c       	mov	(12,sp),d2
    8ae7:	f8 c6 01    	lsr	1,d2
    8aea:	4a 0c       	mov	d2,(12,sp)

00008aec <.Loc.896.1>:
    8aec:	f1 de       	mov	a3,d2
    8aee:	f2 1b       	or	d2,d3
    8af0:	f1 ec       	mov	d3,a0
    8af2:	5b 0c       	mov	(12,sp),d3
    8af4:	fc e7 00 00 	or	-2147483648,d3
    8af8:	00 80 
    8afa:	4e 0c       	mov	d3,(12,sp)

00008afc <.L15>:
    8afc:	87          	mov	d1,d3
    8afd:	f8 c3 1f    	asl	31,d3
    8b00:	f8 c4 01    	lsr	1,d0
    8b03:	f2 1c       	or	d3,d0
    8b05:	f8 c5 01    	lsr	1,d1

00008b08 <.LVL45>:
    8b08:	45          	inc	a1

00008b09 <.Loc.890.1>:
    8b09:	fc c9 ff ff 	cmp	536870911,d1
    8b0d:	ff 1f 
    8b0f:	c5 c3       	bhi	8ad2 <.L38>
    8b11:	4b 58       	mov	a2,(88,sp)

00008b13 <.L13>:
    8b13:	fc c9 ff ff 	cmp	268435455,d1
    8b17:	ff 0f 
    8b19:	c5 3a       	bhi	8b53 <.L19>

00008b1b <.Loc.939.1>:
    8b1b:	5d 58       	mov	(88,sp),a1
    8b1d:	21 ff       	add	-1,a1

00008b1f <.L23>:
    8b1f:	96          	mov	a1,a2

00008b20 <.Loc.904.1>:
    8b20:	82          	mov	d0,d2
    8b21:	f8 c6 1f    	lsr	31,d2
    8b24:	f1 e7       	mov	d1,a3
    8b26:	f1 7f       	add	a3,a3
    8b28:	f1 df       	mov	a3,d3
    8b2a:	f2 1b       	or	d2,d3
    8b2c:	f1 ef       	mov	d3,a3
    8b2e:	e0          	add	d0,d0
    8b2f:	8d          	mov	d3,d1

00008b30 <.LVL48>:
    8b30:	5a 0c       	mov	(12,sp),d2
    8b32:	aa 00       	cmp	0,d2
    8b34:	c2 05       	bge	8b39 <.L21>

00008b36 <.Loc.906.1>:
    8b36:	f8 e4 01    	or	1,d0

00008b39 <.L21>:
    8b39:	f1 d3       	mov	a0,d3
    8b3b:	f8 c7 1f    	lsr	31,d3
    8b3e:	5a 0c       	mov	(12,sp),d2
    8b40:	ea          	add	d2,d2
    8b41:	f1 70       	add	a0,a0
    8b43:	f2 1b       	or	d2,d3
    8b45:	4e 0c       	mov	d3,(12,sp)

00008b47 <.LVL50>:
    8b47:	21 ff       	add	-1,a1

00008b49 <.Loc.900.1>:
    8b49:	fc db ff ff 	cmp	268435455,a3
    8b4d:	ff 0f 
    8b4f:	c7 d0       	bls	8b1f <.L23>
    8b51:	4b 58       	mov	a2,(88,sp)

00008b53 <.L19>:
    8b53:	83          	mov	d0,d3
    8b54:	17          	extbu	d3
    8b55:	fa cb 80 00 	cmp	128,d3
    8b59:	c8 22       	beq	8b7b <.L48>

00008b5b <.L25>:
    8b5b:	42 5c       	mov	d0,(92,sp)
    8b5d:	46 60       	mov	d1,(96,sp)

00008b5f <.Loc.934.1>:
    8b5f:	80 03       	mov	3,d0

00008b61 <.LVL53>:
    8b61:	42 50       	mov	d0,(80,sp)

00008b63 <.Loc.953.1>:
    8b63:	3c          	mov	sp,a0
    8b64:	20 50       	add	80,a0
    8b66:	f1 d0       	mov	a0,d0

00008b68 <.L49>:
    8b68:	dd e1 05 00 	call	9149 <___pack_d>,[],0
    8b6c:	00 00 00 

00008b6f <.LVL55>:
    8b6f:	df f0 74    	ret	[d2,d3,a2,a3],116

00008b72 <.L30>:
    8b72:	95 00       	mov	0,a1

00008b74 <.LVL57>:
    8b74:	f1 d5       	mov	a1,d1
    8b76:	f2 f6       	mov	d1,mdr
    8b78:	cc ff fe    	jmp	8a77 <.L9>

00008b7b <.L48>:
    8b7b:	82          	mov	d0,d2
    8b7c:	fa e2 00 01 	and	256,d2
    8b80:	f1 e9       	mov	d2,a1
    8b82:	c9 d9       	bne	8b5b <.L25>

00008b84 <.Loc.921.1>:
    8b84:	5a 0c       	mov	(12,sp),d2
    8b86:	f1 d3       	mov	a0,d3
    8b88:	f2 1e       	or	d3,d2
    8b8a:	c8 d1       	beq	8b5b <.L25>

00008b8c <.Loc.927.1>:
    8b8c:	f1 d6       	mov	a1,d2
    8b8e:	fa c0 80 00 	add	128,d0
    8b92:	f1 49       	addc	d2,d1

00008b94 <.LVL59>:
    8b94:	fc e0 00 ff 	and	-256,d0
    8b98:	ff ff 

00008b9a <.Loc.933.1>:
    8b9a:	42 5c       	mov	d0,(92,sp)
    8b9c:	46 60       	mov	d1,(96,sp)

00008b9e <.Loc.934.1>:
    8b9e:	80 03       	mov	3,d0

00008ba0 <.LVL61>:
    8ba0:	42 50       	mov	d0,(80,sp)

00008ba2 <.Loc.953.1>:
    8ba2:	3c          	mov	sp,a0
    8ba3:	20 50       	add	80,a0
    8ba5:	f1 d0       	mov	a0,d0
    8ba7:	ca c1       	bra	8b68 <.L49>

00008ba9 <___divdf3>:
    8ba9:	cf f0       	movm	[d2,d3,a2,a3],(sp)

00008bab <.LCFI0>:
    8bab:	f8 fe b0    	add	-80,sp

00008bae <.LCFI1>:
    8bae:	42 18       	mov	d0,(24,sp)
    8bb0:	46 1c       	mov	d1,(28,sp)

00008bb2 <.Loc.1066.1>:
    8bb2:	58 6c       	mov	(108,sp),d0

00008bb4 <.LVL1>:
    8bb4:	42 20       	mov	d0,(32,sp)
    8bb6:	58 70       	mov	(112,sp),d0
    8bb8:	42 24       	mov	d0,(36,sp)

00008bba <.Loc.1068.1>:
    8bba:	3c          	mov	sp,a0
    8bbb:	20 18       	add	24,a0
    8bbd:	f1 d0       	mov	a0,d0
    8bbf:	3c          	mov	sp,a0
    8bc0:	85 28       	mov	40,d1
    8bc2:	f1 51       	add	a0,d1
    8bc4:	dd 99 07 00 	call	935d <___unpack_d>,[],0
    8bc8:	00 00 00 

00008bcb <.LVL2>:
    8bcb:	3c          	mov	sp,a0
    8bcc:	20 20       	add	32,a0
    8bce:	f1 d0       	mov	a0,d0
    8bd0:	3c          	mov	sp,a0
    8bd1:	85 3c       	mov	60,d1
    8bd3:	f1 51       	add	a0,d1
    8bd5:	dd 88 07 00 	call	935d <___unpack_d>,[],0
    8bd9:	00 00 00 

00008bdc <.LBB20>:
    8bdc:	58 28       	mov	(40,sp),d0

00008bde <.LBE22>:
    8bde:	a0 01       	cmp	1,d0
    8be0:	c5 11       	bhi	8bf1 <.L2>

00008be2 <.L27>:
    8be2:	3c          	mov	sp,a0
    8be3:	20 28       	add	40,a0
    8be5:	f1 d0       	mov	a0,d0

00008be7 <.L3>:
    8be7:	dd 62 05 00 	call	9149 <___pack_d>,[],0
    8beb:	00 00 00 

00008bee <.LVL4>:
    8bee:	df f0 60    	ret	[d2,d3,a2,a3],96

00008bf1 <.L2>:
    8bf1:	59 3c       	mov	(60,sp),d1

00008bf3 <.LBE24>:
    8bf3:	a5 01       	cmp	1,d1
    8bf5:	c5 11       	bhi	8c06 <.L29>

00008bf7 <.Loc.1071.1>:
    8bf7:	3c          	mov	sp,a0
    8bf8:	80 3c       	mov	60,d0
    8bfa:	f1 50       	add	a0,d0

00008bfc <.LBE26>:
    8bfc:	dd 4d 05 00 	call	9149 <___pack_d>,[],0
    8c00:	00 00 00 

00008c03 <.LVL6>:
    8c03:	df f0 60    	ret	[d2,d3,a2,a3],96

00008c06 <.L29>:
    8c06:	5a 2c       	mov	(44,sp),d2
    8c08:	5b 40       	mov	(64,sp),d3
    8c0a:	f2 2e       	xor	d3,d2
    8c0c:	4a 2c       	mov	d2,(44,sp)

00008c0e <.Loc.980.1>:
    8c0e:	a0 04       	cmp	4,d0
    8c10:	c8 06       	beq	8c16 <.L4>
    8c12:	a0 02       	cmp	2,d0
    8c14:	c9 15       	bne	8c29 <.L5>

00008c16 <.L4>:
    8c16:	a4          	cmp	d1,d0
    8c17:	c9 cb       	bne	8be2 <.L27>

00008c19 <.Loc.983.1>:
    8c19:	fc cc e0 99 	mov	39392,d0
    8c1d:	00 00 

00008c1f <.LBE27>:
    8c1f:	dd 2a 05 00 	call	9149 <___pack_d>,[],0
    8c23:	00 00 00 

00008c26 <.LVL10>:
    8c26:	df f0 60    	ret	[d2,d3,a2,a3],96

00008c29 <.L5>:
    8c29:	a5 04       	cmp	4,d1
    8c2b:	c9 05       	bne	8c30 <.L0_0>
    8c2d:	cc ca 00    	jmp	8cf7 <.L30>

00008c30 <.L0_0>:
    8c30:	a5 02       	cmp	2,d1
    8c32:	c9 05       	bne	8c37 <.L0_1>
    8c34:	cc d9 00    	jmp	8d0d <.L31>

00008c37 <.L0_1>:
    8c37:	5c 30       	mov	(48,sp),a0
    8c39:	58 44       	mov	(68,sp),d0
    8c3b:	f1 20       	sub	d0,a0
    8c3d:	43 30       	mov	a0,(48,sp)

00008c3f <.Loc.1007.1>:
    8c3f:	58 34       	mov	(52,sp),d0
    8c41:	59 38       	mov	(56,sp),d1

00008c43 <.LVL13>:
    8c43:	5f 48       	mov	(72,sp),a3
    8c45:	5d 4c       	mov	(76,sp),a1

00008c47 <.LVL14>:
    8c47:	f1 a5       	cmp	d1,a1
    8c49:	c5 08       	bhi	8c51 <.L18>
    8c4b:	c9 12       	bne	8c5d <.L9>
    8c4d:	f1 a3       	cmp	d0,a3
    8c4f:	c7 0e       	bls	8c5d <.L9>

00008c51 <.L18>:
    8c51:	82          	mov	d0,d2
    8c52:	f8 c6 1f    	lsr	31,d2
    8c55:	e5          	add	d1,d1

00008c56 <.LVL15>:
    8c56:	e0          	add	d0,d0

00008c57 <.LVL16>:
    8c57:	f2 19       	or	d2,d1

00008c59 <.LVL17>:
    8c59:	20 ff       	add	-1,a0
    8c5b:	43 30       	mov	a0,(48,sp)

00008c5d <.L9>:
    8c5d:	90 3d       	mov	61,a0

00008c5f <.Loc.1016.1>:
    8c5f:	0c          	clr	d3
    8c60:	fc ce 00 00 	mov	268435456,d2
    8c64:	00 10 

00008c66 <.Loc.1017.1>:
    8c66:	4e 14       	mov	d3,(20,sp)
    8c68:	4e 10       	mov	d3,(16,sp)
    8c6a:	4a 0c       	mov	d2,(12,sp)
    8c6c:	f2 fe       	mov	d3,mdr
    8c6e:	9e          	mov	a3,a2

00008c6f <.L13>:
    8c6f:	f1 a5       	cmp	d1,a1
    8c71:	c5 08       	bhi	8c79 <.L11>
    8c73:	c9 42       	bne	8cb5 <.L19>
    8c75:	f1 a2       	cmp	d0,a2
    8c77:	c7 3e       	bls	8cb5 <.L19>

00008c79 <.L11>:
    8c79:	5b 0c       	mov	(12,sp),d3
    8c7b:	f8 c3 1f    	asl	31,d3
    8c7e:	5a 10       	mov	(16,sp),d2
    8c80:	f8 c6 01    	lsr	1,d2
    8c83:	f2 1e       	or	d3,d2
    8c85:	4a 10       	mov	d2,(16,sp)
    8c87:	5b 0c       	mov	(12,sp),d3
    8c89:	f8 c7 01    	lsr	1,d3
    8c8c:	4e 0c       	mov	d3,(12,sp)

00008c8e <.LVL21>:
    8c8e:	82          	mov	d0,d2

00008c8f <.LVL22>:
    8c8f:	f8 c6 1f    	lsr	31,d2
    8c92:	e5          	add	d1,d1

00008c93 <.LVL23>:
    8c93:	e0          	add	d0,d0
    8c94:	f2 19       	or	d2,d1

00008c96 <.LVL24>:
    8c96:	20 ff       	add	-1,a0

00008c98 <.Loc.1019.1>:
    8c98:	c9 d7       	bne	8c6f <.L13>
    8c9a:	f2 e3       	mov	mdr,d3

00008c9c <.LVL25>:
    8c9c:	f1 ee       	mov	d3,a2

00008c9e <.LVL26>:
    8c9e:	f2 e2       	mov	mdr,d2
    8ca0:	16          	extbu	d2
    8ca1:	fa ca 80 00 	cmp	128,d2
    8ca5:	c8 28       	beq	8ccd <.L32>

00008ca7 <.L14>:
    8ca7:	4b 34       	mov	a2,(52,sp)
    8ca9:	5b 14       	mov	(20,sp),d3
    8cab:	4e 38       	mov	d3,(56,sp)

00008cad <.L33>:
    8cad:	3c          	mov	sp,a0
    8cae:	20 28       	add	40,a0
    8cb0:	f1 d0       	mov	a0,d0
    8cb2:	cc 35 ff    	jmp	8be7 <.L3>

00008cb5 <.L19>:
    8cb5:	f2 e2       	mov	mdr,d2
    8cb7:	5b 10       	mov	(16,sp),d3
    8cb9:	f2 1e       	or	d3,d2
    8cbb:	f2 fa       	mov	d2,mdr
    8cbd:	5a 14       	mov	(20,sp),d2
    8cbf:	5b 0c       	mov	(12,sp),d3
    8cc1:	f2 1e       	or	d3,d2
    8cc3:	4a 14       	mov	d2,(20,sp)

00008cc5 <.LVL30>:
    8cc5:	f1 d6       	mov	a1,d2

00008cc7 <.LVL31>:
    8cc7:	f1 18       	sub	a2,d0
    8cc9:	f1 89       	subc	d2,d1

00008ccb <.LVL32>:
    8ccb:	ca ae       	bra	8c79 <.L11>

00008ccd <.L32>:
    8ccd:	f2 e2       	mov	mdr,d2
    8ccf:	fa e2 00 01 	and	256,d2
    8cd3:	c9 d4       	bne	8ca7 <.L14>

00008cd5 <.Loc.1039.1>:
    8cd5:	f2 14       	or	d1,d0

00008cd7 <.LVL34>:
    8cd7:	c8 d0       	beq	8ca7 <.L14>

00008cd9 <.Loc.1045.1>:
    8cd9:	f2 e1       	mov	mdr,d1
    8cdb:	58 14       	mov	(20,sp),d0
    8cdd:	f1 d2       	mov	a0,d2
    8cdf:	fa c1 80 00 	add	128,d1
    8ce3:	f1 48       	addc	d2,d0

00008ce5 <.LVL35>:
    8ce5:	fc e1 00 ff 	and	-256,d1
    8ce9:	ff ff 

00008ceb <.LVL36>:
    8ceb:	f1 e6       	mov	d1,a2
    8ced:	42 14       	mov	d0,(20,sp)

00008cef <.LVL37>:
    8cef:	4b 34       	mov	a2,(52,sp)
    8cf1:	5b 14       	mov	(20,sp),d3
    8cf3:	4e 38       	mov	d3,(56,sp)
    8cf5:	ca b8       	bra	8cad <.L33>

00008cf7 <.L30>:
    8cf7:	00          	clr	d0
    8cf8:	42 34       	mov	d0,(52,sp)
    8cfa:	42 38       	mov	d0,(56,sp)

00008cfc <.Loc.990.1>:
    8cfc:	42 30       	mov	d0,(48,sp)

00008cfe <.Loc.1071.1>:
    8cfe:	3c          	mov	sp,a0
    8cff:	80 28       	mov	40,d0
    8d01:	f1 50       	add	a0,d0

00008d03 <.LBE29>:
    8d03:	dd 46 04 00 	call	9149 <___pack_d>,[],0
    8d07:	00 00 00 

00008d0a <.LVL39>:
    8d0a:	df f0 60    	ret	[d2,d3,a2,a3],96

00008d0d <.L31>:
    8d0d:	80 04       	mov	4,d0
    8d0f:	42 28       	mov	d0,(40,sp)

00008d11 <.Loc.1071.1>:
    8d11:	3c          	mov	sp,a0
    8d12:	80 28       	mov	40,d0
    8d14:	f1 50       	add	a0,d0

00008d16 <.LBE30>:
    8d16:	dd 33 04 00 	call	9149 <___pack_d>,[],0
    8d1a:	00 00 00 

00008d1d <.LVL41>:
    8d1d:	df f0 60    	ret	[d2,d3,a2,a3],96

00008d20 <___eqdf2>:
    8d20:	f8 fe bc    	add	-68,sp

00008d23 <.LCFI0>:
    8d23:	42 0c       	mov	d0,(12,sp)
    8d25:	46 10       	mov	d1,(16,sp)

00008d27 <.Loc.1192.1>:
    8d27:	58 50       	mov	(80,sp),d0

00008d29 <.LVL1>:
    8d29:	42 14       	mov	d0,(20,sp)
    8d2b:	58 54       	mov	(84,sp),d0
    8d2d:	42 18       	mov	d0,(24,sp)

00008d2f <.Loc.1194.1>:
    8d2f:	3c          	mov	sp,a0
    8d30:	20 0c       	add	12,a0
    8d32:	f1 d0       	mov	a0,d0
    8d34:	3c          	mov	sp,a0
    8d35:	85 1c       	mov	28,d1
    8d37:	f1 51       	add	a0,d1
    8d39:	dd 24 06 00 	call	935d <___unpack_d>,[],0
    8d3d:	00 00 00 

00008d40 <.LVL2>:
    8d40:	3c          	mov	sp,a0
    8d41:	20 14       	add	20,a0
    8d43:	f1 d0       	mov	a0,d0
    8d45:	3c          	mov	sp,a0
    8d46:	85 30       	mov	48,d1
    8d48:	f1 51       	add	a0,d1
    8d4a:	dd 13 06 00 	call	935d <___unpack_d>,[],0
    8d4e:	00 00 00 

00008d51 <.LVL3>:
    8d51:	58 1c       	mov	(28,sp),d0
    8d53:	a0 01       	cmp	1,d0
    8d55:	c7 1b       	bls	8d70 <.L4>
    8d57:	58 30       	mov	(48,sp),d0
    8d59:	a0 01       	cmp	1,d0
    8d5b:	c7 15       	bls	8d70 <.L4>

00008d5d <.Loc.1200.1>:
    8d5d:	3c          	mov	sp,a0
    8d5e:	80 1c       	mov	28,d0
    8d60:	f1 50       	add	a0,d0
    8d62:	85 30       	mov	48,d1
    8d64:	f1 51       	add	a0,d1
    8d66:	dd c0 06 00 	call	9426 <___fpcmp_parts_d>,[],0
    8d6a:	00 00 00 

00008d6d <.LVL5>:
    8d6d:	df 00 44    	ret	[],68

00008d70 <.L4>:
    8d70:	80 01       	mov	1,d0

00008d72 <.Loc.1201.1>:
    8d72:	df 00 44    	ret	[],68

00008d75 <___nedf2>:
    8d75:	f8 fe bc    	add	-68,sp

00008d78 <.LCFI0>:
    8d78:	42 0c       	mov	d0,(12,sp)
    8d7a:	46 10       	mov	d1,(16,sp)

00008d7c <.Loc.1213.1>:
    8d7c:	58 50       	mov	(80,sp),d0

00008d7e <.LVL1>:
    8d7e:	42 14       	mov	d0,(20,sp)
    8d80:	58 54       	mov	(84,sp),d0
    8d82:	42 18       	mov	d0,(24,sp)

00008d84 <.Loc.1215.1>:
    8d84:	3c          	mov	sp,a0
    8d85:	20 0c       	add	12,a0
    8d87:	f1 d0       	mov	a0,d0
    8d89:	3c          	mov	sp,a0
    8d8a:	85 1c       	mov	28,d1
    8d8c:	f1 51       	add	a0,d1
    8d8e:	dd cf 05 00 	call	935d <___unpack_d>,[],0
    8d92:	00 00 00 

00008d95 <.LVL2>:
    8d95:	3c          	mov	sp,a0
    8d96:	20 14       	add	20,a0
    8d98:	f1 d0       	mov	a0,d0
    8d9a:	3c          	mov	sp,a0
    8d9b:	85 30       	mov	48,d1
    8d9d:	f1 51       	add	a0,d1
    8d9f:	dd be 05 00 	call	935d <___unpack_d>,[],0
    8da3:	00 00 00 

00008da6 <.LVL3>:
    8da6:	58 1c       	mov	(28,sp),d0
    8da8:	a0 01       	cmp	1,d0
    8daa:	c7 1b       	bls	8dc5 <.L4>
    8dac:	58 30       	mov	(48,sp),d0
    8dae:	a0 01       	cmp	1,d0
    8db0:	c7 15       	bls	8dc5 <.L4>

00008db2 <.Loc.1221.1>:
    8db2:	3c          	mov	sp,a0
    8db3:	80 1c       	mov	28,d0
    8db5:	f1 50       	add	a0,d0
    8db7:	85 30       	mov	48,d1
    8db9:	f1 51       	add	a0,d1
    8dbb:	dd 6b 06 00 	call	9426 <___fpcmp_parts_d>,[],0
    8dbf:	00 00 00 

00008dc2 <.LVL5>:
    8dc2:	df 00 44    	ret	[],68

00008dc5 <.L4>:
    8dc5:	80 01       	mov	1,d0

00008dc7 <.Loc.1222.1>:
    8dc7:	df 00 44    	ret	[],68

00008dca <___gtdf2>:
    8dca:	f8 fe bc    	add	-68,sp

00008dcd <.LCFI0>:
    8dcd:	42 0c       	mov	d0,(12,sp)
    8dcf:	46 10       	mov	d1,(16,sp)

00008dd1 <.Loc.1234.1>:
    8dd1:	58 50       	mov	(80,sp),d0

00008dd3 <.LVL1>:
    8dd3:	42 14       	mov	d0,(20,sp)
    8dd5:	58 54       	mov	(84,sp),d0
    8dd7:	42 18       	mov	d0,(24,sp)

00008dd9 <.Loc.1236.1>:
    8dd9:	3c          	mov	sp,a0
    8dda:	20 0c       	add	12,a0
    8ddc:	f1 d0       	mov	a0,d0
    8dde:	3c          	mov	sp,a0
    8ddf:	85 1c       	mov	28,d1
    8de1:	f1 51       	add	a0,d1
    8de3:	dd 7a 05 00 	call	935d <___unpack_d>,[],0
    8de7:	00 00 00 

00008dea <.LVL2>:
    8dea:	3c          	mov	sp,a0
    8deb:	20 14       	add	20,a0
    8ded:	f1 d0       	mov	a0,d0
    8def:	3c          	mov	sp,a0
    8df0:	85 30       	mov	48,d1
    8df2:	f1 51       	add	a0,d1
    8df4:	dd 69 05 00 	call	935d <___unpack_d>,[],0
    8df8:	00 00 00 

00008dfb <.LVL3>:
    8dfb:	58 1c       	mov	(28,sp),d0
    8dfd:	a0 01       	cmp	1,d0
    8dff:	c7 1b       	bls	8e1a <.L4>
    8e01:	58 30       	mov	(48,sp),d0
    8e03:	a0 01       	cmp	1,d0
    8e05:	c7 15       	bls	8e1a <.L4>

00008e07 <.Loc.1242.1>:
    8e07:	3c          	mov	sp,a0
    8e08:	80 1c       	mov	28,d0
    8e0a:	f1 50       	add	a0,d0
    8e0c:	85 30       	mov	48,d1
    8e0e:	f1 51       	add	a0,d1
    8e10:	dd 16 06 00 	call	9426 <___fpcmp_parts_d>,[],0
    8e14:	00 00 00 

00008e17 <.LVL5>:
    8e17:	df 00 44    	ret	[],68

00008e1a <.L4>:
    8e1a:	80 ff       	mov	-1,d0

00008e1c <.Loc.1243.1>:
    8e1c:	df 00 44    	ret	[],68

00008e1f <___gedf2>:
    8e1f:	f8 fe bc    	add	-68,sp

00008e22 <.LCFI0>:
    8e22:	42 0c       	mov	d0,(12,sp)
    8e24:	46 10       	mov	d1,(16,sp)

00008e26 <.Loc.1255.1>:
    8e26:	58 50       	mov	(80,sp),d0

00008e28 <.LVL1>:
    8e28:	42 14       	mov	d0,(20,sp)
    8e2a:	58 54       	mov	(84,sp),d0
    8e2c:	42 18       	mov	d0,(24,sp)

00008e2e <.Loc.1257.1>:
    8e2e:	3c          	mov	sp,a0
    8e2f:	20 0c       	add	12,a0
    8e31:	f1 d0       	mov	a0,d0
    8e33:	3c          	mov	sp,a0
    8e34:	85 1c       	mov	28,d1
    8e36:	f1 51       	add	a0,d1
    8e38:	dd 25 05 00 	call	935d <___unpack_d>,[],0
    8e3c:	00 00 00 

00008e3f <.LVL2>:
    8e3f:	3c          	mov	sp,a0
    8e40:	20 14       	add	20,a0
    8e42:	f1 d0       	mov	a0,d0
    8e44:	3c          	mov	sp,a0
    8e45:	85 30       	mov	48,d1
    8e47:	f1 51       	add	a0,d1
    8e49:	dd 14 05 00 	call	935d <___unpack_d>,[],0
    8e4d:	00 00 00 

00008e50 <.LVL3>:
    8e50:	58 1c       	mov	(28,sp),d0
    8e52:	a0 01       	cmp	1,d0
    8e54:	c7 1b       	bls	8e6f <.L4>
    8e56:	58 30       	mov	(48,sp),d0
    8e58:	a0 01       	cmp	1,d0
    8e5a:	c7 15       	bls	8e6f <.L4>

00008e5c <.Loc.1262.1>:
    8e5c:	3c          	mov	sp,a0
    8e5d:	80 1c       	mov	28,d0
    8e5f:	f1 50       	add	a0,d0
    8e61:	85 30       	mov	48,d1
    8e63:	f1 51       	add	a0,d1
    8e65:	dd c1 05 00 	call	9426 <___fpcmp_parts_d>,[],0
    8e69:	00 00 00 

00008e6c <.LVL5>:
    8e6c:	df 00 44    	ret	[],68

00008e6f <.L4>:
    8e6f:	80 ff       	mov	-1,d0

00008e71 <.Loc.1263.1>:
    8e71:	df 00 44    	ret	[],68

00008e74 <___ltdf2>:
    8e74:	f8 fe bc    	add	-68,sp

00008e77 <.LCFI0>:
    8e77:	42 0c       	mov	d0,(12,sp)
    8e79:	46 10       	mov	d1,(16,sp)

00008e7b <.Loc.1275.1>:
    8e7b:	58 50       	mov	(80,sp),d0

00008e7d <.LVL1>:
    8e7d:	42 14       	mov	d0,(20,sp)
    8e7f:	58 54       	mov	(84,sp),d0
    8e81:	42 18       	mov	d0,(24,sp)

00008e83 <.Loc.1277.1>:
    8e83:	3c          	mov	sp,a0
    8e84:	20 0c       	add	12,a0
    8e86:	f1 d0       	mov	a0,d0
    8e88:	3c          	mov	sp,a0
    8e89:	85 1c       	mov	28,d1
    8e8b:	f1 51       	add	a0,d1
    8e8d:	dd d0 04 00 	call	935d <___unpack_d>,[],0
    8e91:	00 00 00 

00008e94 <.LVL2>:
    8e94:	3c          	mov	sp,a0
    8e95:	20 14       	add	20,a0
    8e97:	f1 d0       	mov	a0,d0
    8e99:	3c          	mov	sp,a0
    8e9a:	85 30       	mov	48,d1
    8e9c:	f1 51       	add	a0,d1
    8e9e:	dd bf 04 00 	call	935d <___unpack_d>,[],0
    8ea2:	00 00 00 

00008ea5 <.LVL3>:
    8ea5:	58 1c       	mov	(28,sp),d0
    8ea7:	a0 01       	cmp	1,d0
    8ea9:	c7 1b       	bls	8ec4 <.L4>
    8eab:	58 30       	mov	(48,sp),d0
    8ead:	a0 01       	cmp	1,d0
    8eaf:	c7 15       	bls	8ec4 <.L4>

00008eb1 <.Loc.1283.1>:
    8eb1:	3c          	mov	sp,a0
    8eb2:	80 1c       	mov	28,d0
    8eb4:	f1 50       	add	a0,d0
    8eb6:	85 30       	mov	48,d1
    8eb8:	f1 51       	add	a0,d1
    8eba:	dd 6c 05 00 	call	9426 <___fpcmp_parts_d>,[],0
    8ebe:	00 00 00 

00008ec1 <.LVL5>:
    8ec1:	df 00 44    	ret	[],68

00008ec4 <.L4>:
    8ec4:	80 01       	mov	1,d0

00008ec6 <.Loc.1284.1>:
    8ec6:	df 00 44    	ret	[],68

00008ec9 <___floatsidf>:
    8ec9:	cf f0       	movm	[d2,d3,a2,a3],(sp)

00008ecb <.LCFI0>:
    8ecb:	f8 fe e0    	add	-32,sp

00008ece <.LCFI1>:
    8ece:	85 03       	mov	3,d1
    8ed0:	46 0c       	mov	d1,(12,sp)

00008ed2 <.Loc.1333.1>:
    8ed2:	81          	mov	d0,d1
    8ed3:	f8 c5 1f    	lsr	31,d1
    8ed6:	46 10       	mov	d1,(16,sp)

00008ed8 <.Loc.1334.1>:
    8ed8:	a0 00       	cmp	0,d0
    8eda:	c9 15       	bne	8eef <.L2>

00008edc <.Loc.1336.1>:
    8edc:	80 02       	mov	2,d0

00008ede <.LVL1>:
    8ede:	42 0c       	mov	d0,(12,sp)

00008ee0 <.Loc.1364.1>:
    8ee0:	3c          	mov	sp,a0
    8ee1:	20 0c       	add	12,a0
    8ee3:	f1 d0       	mov	a0,d0
    8ee5:	dd 64 02 00 	call	9149 <___pack_d>,[],0
    8ee9:	00 00 00 

00008eec <.L5>:
    8eec:	df f0 30    	ret	[d2,d3,a2,a3],48

00008eef <.L2>:
    8eef:	90 3c       	mov	60,a0
    8ef1:	43 14       	mov	a0,(20,sp)

00008ef3 <.Loc.1343.1>:
    8ef3:	a5 00       	cmp	0,d1
    8ef5:	c8 51       	beq	8f46 <.L4>

00008ef7 <.Loc.1347.1>:
    8ef7:	fc c8 00 00 	cmp	-2147483648,d0
    8efb:	00 80 
    8efd:	c9 05       	bne	8f02 <.L0_0>
    8eff:	cc 81 00    	jmp	8f80 <.L10>

00008f02 <.L0_0>:
    8f02:	9f 00       	mov	0,a3
    8f04:	f1 23       	sub	d0,a3

00008f06 <.LVL4>:
    8f06:	9a 00       	mov	0,a2

00008f08 <.LBB6>:
    8f08:	f1 dc       	mov	a3,d0

00008f0a <.LVL6>:
    8f0a:	dd d9 01 00 	call	90e3 <___clzsi2>,[],0
    8f0e:	00 00 00 

00008f11 <.LBE6>:
    8f11:	81          	mov	d0,d1
    8f12:	29 1d       	add	29,d1

00008f14 <.LVL8>:
    8f14:	f1 99       	cmp	a2,d1
    8f16:	c3 44       	ble	8f5a <.L12>

00008f18 <.L7>:
    8f18:	86          	mov	d1,d2
    8f19:	f8 e2 20    	and	32,d2
    8f1c:	c9 50       	bne	8f6c <.L13>
    8f1e:	f1 de       	mov	a3,d2
    8f20:	f8 c6 01    	lsr	1,d2
    8f23:	87          	mov	d1,d3
    8f24:	f2 33       	not	d3
    8f26:	f2 ae       	lsr	d3,d2
    8f28:	f1 e8       	mov	d2,a0
    8f2a:	f1 de       	mov	a3,d2
    8f2c:	f2 96       	asl	d1,d2
    8f2e:	4a 18       	mov	d2,(24,sp)
    8f30:	43 1c       	mov	a0,(28,sp)

00008f32 <.Loc.1361.1>:
    8f32:	85 1f       	mov	31,d1

00008f34 <.LVL9>:
    8f34:	f1 01       	sub	d0,d1
    8f36:	46 14       	mov	d1,(20,sp)

00008f38 <.L14>:
    8f38:	3c          	mov	sp,a0
    8f39:	20 0c       	add	12,a0
    8f3b:	f1 d0       	mov	a0,d0
    8f3d:	dd 0c 02 00 	call	9149 <___pack_d>,[],0
    8f41:	00 00 00 

00008f44 <.LVL11>:
    8f44:	ca a8       	bra	8eec <.L5>

00008f46 <.L4>:
    8f46:	f1 e3       	mov	d0,a3

00008f48 <.LVL13>:
    8f48:	9a 00       	mov	0,a2

00008f4a <.LBB8>:
    8f4a:	f1 dc       	mov	a3,d0

00008f4c <.LVL15>:
    8f4c:	dd 97 01 00 	call	90e3 <___clzsi2>,[],0
    8f50:	00 00 00 

00008f53 <.LBE8>:
    8f53:	81          	mov	d0,d1
    8f54:	29 1d       	add	29,d1

00008f56 <.LVL17>:
    8f56:	f1 99       	cmp	a2,d1
    8f58:	c1 c0       	bgt	8f18 <.L7>

00008f5a <.L12>:
    8f5a:	4f 18       	mov	a3,(24,sp)
    8f5c:	4b 1c       	mov	a2,(28,sp)

00008f5e <.LBE10>:
    8f5e:	3c          	mov	sp,a0
    8f5f:	20 0c       	add	12,a0
    8f61:	f1 d0       	mov	a0,d0
    8f63:	dd e6 01 00 	call	9149 <___pack_d>,[],0
    8f67:	00 00 00 

00008f6a <.LVL19>:
    8f6a:	ca 82       	bra	8eec <.L5>

00008f6c <.L13>:
    8f6c:	f1 df       	mov	a3,d3
    8f6e:	f2 97       	asl	d1,d3
    8f70:	f1 ec       	mov	d3,a0
    8f72:	f1 da       	mov	a2,d2
    8f74:	4a 18       	mov	d2,(24,sp)
    8f76:	43 1c       	mov	a0,(28,sp)

00008f78 <.Loc.1361.1>:
    8f78:	85 1f       	mov	31,d1

00008f7a <.LVL21>:
    8f7a:	f1 01       	sub	d0,d1
    8f7c:	46 14       	mov	d1,(20,sp)
    8f7e:	ca ba       	bra	8f38 <.L14>

00008f80 <.L10>:
	...

00008f81 <.LVL23>:
    8f81:	fc cd 00 00 	mov	-1042284544,d1
    8f85:	e0 c1 

00008f87 <.LBE11>:
    8f87:	df f0 30    	ret	[d2,d3,a2,a3],48

00008f8a <___fixdfsi>:
    8f8a:	cf c0       	movm	[d2,d3],(sp)

00008f8c <.LCFI0>:
    8f8c:	f8 fe d8    	add	-40,sp

00008f8f <.LCFI1>:
    8f8f:	42 0c       	mov	d0,(12,sp)
    8f91:	46 10       	mov	d1,(16,sp)

00008f93 <.Loc.1413.1>:
    8f93:	3c          	mov	sp,a0
    8f94:	20 0c       	add	12,a0
    8f96:	f1 d0       	mov	a0,d0

00008f98 <.LVL1>:
    8f98:	3c          	mov	sp,a0
    8f99:	20 14       	add	20,a0
    8f9b:	f1 d1       	mov	a0,d1
    8f9d:	dd c0 03 00 	call	935d <___unpack_d>,[],0
    8fa1:	00 00 00 

00008fa4 <.LBB8>:
    8fa4:	58 14       	mov	(20,sp),d0

00008fa6 <.LBE8>:
    8fa6:	a0 02       	cmp	2,d0
    8fa8:	c8 49       	beq	8ff1 <.L10>

00008faa <.Loc.1417.1>:
    8faa:	a0 01       	cmp	1,d0
    8fac:	c7 45       	bls	8ff1 <.L10>

00008fae <.Loc.1420.1>:
    8fae:	a0 04       	cmp	4,d0
    8fb0:	c8 0c       	beq	8fbc <.L4>

00008fb2 <.Loc.1423.1>:
    8fb2:	59 1c       	mov	(28,sp),d1
    8fb4:	a5 00       	cmp	0,d1
    8fb6:	c0 3b       	blt	8ff1 <.L10>

00008fb8 <.Loc.1425.1>:
    8fb8:	a5 1e       	cmp	30,d1
    8fba:	c3 11       	ble	8fcb <.L15>

00008fbc <.L4>:
    8fbc:	58 18       	mov	(24,sp),d0
    8fbe:	a0 00       	cmp	0,d0
    8fc0:	c9 39       	bne	8ff9 <.L16>
    8fc2:	fc cc ff ff 	mov	2147483647,d0
    8fc6:	ff 7f 

00008fc8 <.L2>:
    8fc8:	df c0 30    	ret	[d2,d3],48

00008fcb <.L15>:
    8fcb:	5b 20       	mov	(32,sp),d3
    8fcd:	58 24       	mov	(36,sp),d0
    8fcf:	8a 3c       	mov	60,d2
    8fd1:	f1 06       	sub	d1,d2
    8fd3:	89          	mov	d2,d1
    8fd4:	f8 e1 20    	and	32,d1
    8fd7:	c9 1e       	bne	8ff5 <.L17>
    8fd9:	81          	mov	d0,d1
    8fda:	e5          	add	d1,d1
    8fdb:	88          	mov	d2,d0
    8fdc:	f2 30       	not	d0
    8fde:	f2 91       	asl	d0,d1
    8fe0:	8c          	mov	d3,d0
    8fe1:	f2 a8       	lsr	d2,d0
    8fe3:	f2 14       	or	d1,d0

00008fe5 <.L6>:
    8fe5:	59 18       	mov	(24,sp),d1
    8fe7:	a5 00       	cmp	0,d1
    8fe9:	c8 df       	beq	8fc8 <.L2>

00008feb <.Loc.1428.1>:
    8feb:	f2 30       	not	d0

00008fed <.LVL6>:
    8fed:	40          	inc	d0

00008fee <.LVL7>:
    8fee:	df c0 30    	ret	[d2,d3],48

00008ff1 <.L10>:
	...

00008ff2 <.Loc.1429.1>:
    8ff2:	df c0 30    	ret	[d2,d3],48

00008ff5 <.L17>:
    8ff5:	f2 a8       	lsr	d2,d0
    8ff7:	ca ee       	bra	8fe5 <.L6>

00008ff9 <.L16>:
    8ff9:	fc cc 00 00 	mov	-2147483648,d0
    8ffd:	00 80 

00008fff <.Loc.1429.1>:
    8fff:	df c0 30    	ret	[d2,d3],48

00009002 <___floatunsidf>:
    9002:	cf c0       	movm	[d2,d3],(sp)

00009004 <.LCFI0>:
    9004:	f8 fe e0    	add	-32,sp

00009007 <.LCFI1>:
    9007:	82          	mov	d0,d2

00009008 <.Loc.1374.1>:
    9008:	0c          	clr	d3
    9009:	4e 10       	mov	d3,(16,sp)

0000900b <.Loc.1375.1>:
    900b:	ac          	cmp	d3,d0
    900c:	c8 4b       	beq	9057 <.L13>

0000900e <.LBB6>:
    900e:	80 03       	mov	3,d0

00009010 <.LVL1>:
    9010:	42 0c       	mov	d0,(12,sp)

00009012 <.Loc.1383.1>:
    9012:	80 3c       	mov	60,d0
    9014:	42 14       	mov	d0,(20,sp)

00009016 <.LBB7>:
    9016:	88          	mov	d2,d0
    9017:	dd cc 00 00 	call	90e3 <___clzsi2>,[],0
    901b:	00 00 00 
    901e:	f1 e1       	mov	d0,a1

00009020 <.LBE7>:
    9020:	81          	mov	d0,d1
    9021:	29 1d       	add	29,d1

00009023 <.LVL4>:
    9023:	f8 eb 58    	bns	907b <.L14>

00009026 <.Loc.1394.1>:
    9026:	c9 05       	bne	902b <.L0_0>
    9028:	cc 95 00    	jmp	90bd <.L15>

0000902b <.L0_0>:
    902b:	84          	mov	d1,d0
    902c:	f8 e0 20    	and	32,d0
    902f:	c9 3b       	bne	906a <.L16>
    9031:	88          	mov	d2,d0
    9032:	f8 c4 01    	lsr	1,d0
    9035:	87          	mov	d1,d3
    9036:	f2 33       	not	d3
    9038:	f2 ac       	lsr	d3,d0
    903a:	f1 e0       	mov	d0,a0
    903c:	f2 96       	asl	d1,d2

0000903e <.LVL5>:
    903e:	4a 18       	mov	d2,(24,sp)
    9040:	43 1c       	mov	a0,(28,sp)

00009042 <.Loc.1397.1>:
    9042:	85 1f       	mov	31,d1

00009044 <.LVL6>:
    9044:	f1 15       	sub	a1,d1
    9046:	46 14       	mov	d1,(20,sp)

00009048 <.L3>:
    9048:	3c          	mov	sp,a0
    9049:	20 0c       	add	12,a0
    904b:	f1 d0       	mov	a0,d0
    904d:	dd fc 00 00 	call	9149 <___pack_d>,[],0
    9051:	00 00 00 

00009054 <.LVL8>:
    9054:	df c0 28    	ret	[d2,d3],40

00009057 <.L13>:
    9057:	80 02       	mov	2,d0

00009059 <.LVL10>:
    9059:	42 0c       	mov	d0,(12,sp)

0000905b <.Loc.1400.1>:
    905b:	3c          	mov	sp,a0
    905c:	20 0c       	add	12,a0
    905e:	f1 d0       	mov	a0,d0
    9060:	dd e9 00 00 	call	9149 <___pack_d>,[],0
    9064:	00 00 00 

00009067 <.LVL11>:
    9067:	df c0 28    	ret	[d2,d3],40

0000906a <.L16>:
    906a:	f2 96       	asl	d1,d2

0000906c <.LVL13>:
    906c:	f1 e8       	mov	d2,a0
    906e:	8e          	mov	d3,d2
    906f:	4a 18       	mov	d2,(24,sp)
    9071:	43 1c       	mov	a0,(28,sp)

00009073 <.Loc.1397.1>:
    9073:	85 1f       	mov	31,d1

00009075 <.LVL14>:
    9075:	f1 15       	sub	a1,d1
    9077:	46 14       	mov	d1,(20,sp)
    9079:	ca cf       	bra	9048 <.L3>

0000907b <.L14>:
    907b:	90 00       	mov	0,a0
    907d:	f1 24       	sub	d1,a0
    907f:	f1 d1       	mov	a0,d1

00009081 <.LVL17>:
    9081:	f8 e1 20    	and	32,d1
    9084:	c9 08       	bne	908c <.L6>
    9086:	8f 01       	mov	1,d3
    9088:	f1 d0       	mov	a0,d0

0000908a <.LVL19>:
    908a:	f2 93       	asl	d0,d3

0000908c <.L6>:
    908c:	8d          	mov	d3,d1
    908d:	29 ff       	add	-1,d1
    908f:	f2 09       	and	d2,d1

00009091 <.Loc.1391.1>:
    9091:	0c          	clr	d3
    9092:	f1 07       	sub	d1,d3
    9094:	f2 17       	or	d1,d3
    9096:	f8 c7 1f    	lsr	31,d3

00009099 <.Loc.1390.1>:
    9099:	f1 d0       	mov	a0,d0
    909b:	f8 e0 20    	and	32,d0
    909e:	c8 32       	beq	90d0 <.L7>
    90a0:	08          	clr	d2

000090a1 <.LVL22>:
    90a1:	89          	mov	d2,d1

000090a2 <.Loc.1391.1>:
    90a2:	f2 1e       	or	d3,d2
    90a4:	4a 18       	mov	d2,(24,sp)
    90a6:	46 1c       	mov	d1,(28,sp)

000090a8 <.Loc.1392.1>:
    90a8:	85 1f       	mov	31,d1
    90aa:	f1 15       	sub	a1,d1
    90ac:	46 14       	mov	d1,(20,sp)

000090ae <.L17>:
    90ae:	3c          	mov	sp,a0
    90af:	20 0c       	add	12,a0
    90b1:	f1 d0       	mov	a0,d0
    90b3:	dd 96 00 00 	call	9149 <___pack_d>,[],0
    90b7:	00 00 00 

000090ba <.LVL27>:
    90ba:	df c0 28    	ret	[d2,d3],40

000090bd <.L15>:
    90bd:	4a 18       	mov	d2,(24,sp)
    90bf:	46 1c       	mov	d1,(28,sp)

000090c1 <.LBE12>:
    90c1:	3c          	mov	sp,a0
    90c2:	20 0c       	add	12,a0
    90c4:	f1 d0       	mov	a0,d0
    90c6:	dd 83 00 00 	call	9149 <___pack_d>,[],0
    90ca:	00 00 00 

000090cd <.LVL29>:
    90cd:	df c0 28    	ret	[d2,d3],40

000090d0 <.L7>:
    90d0:	f1 d1       	mov	a0,d1
    90d2:	f2 a6       	lsr	d1,d2

000090d4 <.LVL31>:
    90d4:	81          	mov	d0,d1

000090d5 <.Loc.1391.1>:
    90d5:	f2 1e       	or	d3,d2
    90d7:	4a 18       	mov	d2,(24,sp)
    90d9:	46 1c       	mov	d1,(28,sp)

000090db <.Loc.1392.1>:
    90db:	85 1f       	mov	31,d1
    90dd:	f1 15       	sub	a1,d1
    90df:	46 14       	mov	d1,(20,sp)
    90e1:	ca cd       	bra	90ae <.L17>

000090e3 <___clzsi2>:
    90e3:	cf 80       	movm	[d2],(sp)

000090e5 <.LBB2>:
    90e5:	fc c8 ff ff 	cmp	65535,d0
    90e9:	00 00 
    90eb:	c5 1c       	bhi	9107 <.L2>

000090ed <.Loc.710.1>:
    90ed:	fa c8 ff 00 	cmp	255,d0
    90f1:	c7 45       	bls	9136 <.L7>

000090f3 <.Loc.710.1>:
    90f3:	85 18       	mov	24,d1
    90f5:	8a 08       	mov	8,d2

000090f7 <.LVL2>:
    90f7:	f2 a8       	lsr	d2,d0

000090f9 <.LVL3>:
    90f9:	f1 e0       	mov	d0,a0
    90fb:	fc 40 f4 99 	movbu	(39412,a0),d0
    90ff:	00 00 

00009101 <.LBE2>:
    9101:	f1 01       	sub	d0,d1

00009103 <.LVL4>:
    9103:	84          	mov	d1,d0
    9104:	de 80 04    	retf	[d2],4

00009107 <.L2>:
    9107:	fc c8 ff ff 	cmp	16777215,d0
    910b:	ff 00 
    910d:	c5 15       	bhi	9122 <.L5>

0000910f <.Loc.710.1>:
    910f:	85 10       	mov	16,d1
    9111:	86          	mov	d1,d2

00009112 <.LVL6>:
    9112:	f2 a8       	lsr	d2,d0

00009114 <.LVL7>:
    9114:	f1 e0       	mov	d0,a0
    9116:	fc 40 f4 99 	movbu	(39412,a0),d0
    911a:	00 00 

0000911c <.LBE3>:
    911c:	f1 01       	sub	d0,d1

0000911e <.LVL8>:
    911e:	84          	mov	d1,d0
    911f:	de 80 04    	retf	[d2],4

00009122 <.L5>:
    9122:	85 08       	mov	8,d1
    9124:	8a 18       	mov	24,d2

00009126 <.LVL10>:
    9126:	f2 a8       	lsr	d2,d0

00009128 <.LVL11>:
    9128:	f1 e0       	mov	d0,a0
    912a:	fc 40 f4 99 	movbu	(39412,a0),d0
    912e:	00 00 

00009130 <.LBE4>:
    9130:	f1 01       	sub	d0,d1

00009132 <.LVL12>:
    9132:	84          	mov	d1,d0
    9133:	de 80 04    	retf	[d2],4

00009136 <.L7>:
    9136:	85 20       	mov	32,d1
    9138:	08          	clr	d2

00009139 <.LVL14>:
    9139:	f2 a8       	lsr	d2,d0

0000913b <.LVL15>:
    913b:	f1 e0       	mov	d0,a0
    913d:	fc 40 f4 99 	movbu	(39412,a0),d0
    9141:	00 00 

00009143 <.LBE5>:
    9143:	f1 01       	sub	d0,d1

00009145 <.LVL16>:
    9145:	84          	mov	d1,d0
    9146:	de 80 04    	retf	[d2],4

00009149 <___pack_d>:
    9149:	cf f0       	movm	[d2,d3,a2,a3],(sp)

0000914b <.LCFI0>:
    914b:	f8 fe dc    	add	-36,sp

0000914e <.LCFI1>:
    914e:	f1 e0       	mov	d0,a0

00009150 <.Loc.202.1>:
    9150:	f8 08 0c    	mov	(12,a0),d2
    9153:	4a 10       	mov	d2,(16,sp)
    9155:	f8 0c 10    	mov	(16,a0),d3

00009158 <.LVL1>:
    9158:	f8 28 04    	mov	(4,a0),a2

0000915b <.LBB10>:
    915b:	70          	mov	(a0),d0

0000915c <.LBE10>:
    915c:	a0 01       	cmp	1,d0
    915e:	c5 05       	bhi	9163 <.L0_0>
    9160:	cc 27 01    	jmp	9287 <.L29>

00009163 <.L0_0>:
    9163:	a0 04       	cmp	4,d0
    9165:	c9 05       	bne	916a <.L0_1>
    9167:	cc 02 01    	jmp	9269 <.L21>

0000916a <.L0_1>:
    916a:	a0 02       	cmp	2,d0
    916c:	c9 05       	bne	9171 <.L0_2>
    916e:	cc c3 00    	jmp	9231 <.L18>

00009171 <.L0_2>:
    9171:	58 10       	mov	(16,sp),d0
    9173:	f2 1c       	or	d3,d0
    9175:	c8 6f       	beq	91e4 <.L19>

00009177 <.Loc.242.1>:
    9177:	f8 00 08    	mov	(8,a0),d0
    917a:	fa c8 02 fc 	cmp	-1022,d0
    917e:	c2 05       	bge	9183 <.L0_3>
    9180:	cc 30 01    	jmp	92b0 <.L30>

00009183 <.L0_3>:
    9183:	fa c8 ff 03 	cmp	1023,d0
    9187:	c3 05       	ble	918c <.L0_4>
    9189:	cc e0 00    	jmp	9269 <.L21>

0000918c <.L0_4>:
    918c:	5a 10       	mov	(16,sp),d2
    918e:	16          	extbu	d2

0000918f <.LVL7>:
    918f:	04          	clr	d1
    9190:	f1 e4       	mov	d1,a0

00009192 <.LVL8>:
    9192:	fa ca 80 00 	cmp	128,d2
    9196:	c9 05       	bne	919b <.L0_5>
    9198:	cc b5 00    	jmp	924d <.L31>

0000919b <.L0_5>:
    919b:	5a 10       	mov	(16,sp),d2
    919d:	2a 7f       	add	127,d2
    919f:	f1 47       	addc	d1,d3

000091a1 <.LVL9>:
    91a1:	4a 10       	mov	d2,(16,sp)

000091a3 <.L12>:
    91a3:	fc cb ff ff 	cmp	536870911,d3
    91a7:	ff 1f 
    91a9:	c5 56       	bhi	91ff <.L14>

000091ab <.Loc.296.1>:
    91ab:	f1 e0       	mov	d0,a0
    91ad:	fa d0 ff 03 	add	1023,a0

000091b1 <.LVL11>:
    91b1:	8d          	mov	d3,d1
    91b2:	f8 c1 18    	asl	24,d1
    91b5:	58 10       	mov	(16,sp),d0
    91b7:	f8 c4 08    	lsr	8,d0
    91ba:	f2 14       	or	d1,d0
    91bc:	f8 c7 08    	lsr	8,d3
    91bf:	fc e3 ff ff 	and	1048575,d3
    91c3:	0f 00 
    91c5:	f1 d2       	mov	a0,d2
    91c7:	fa e2 ff 07 	and	2047,d2

000091cb <.L3>:
    91cb:	fa e2 ff 07 	and	2047,d2
    91cf:	f8 c2 14    	asl	20,d2
    91d2:	fc e3 ff ff 	and	1048575,d3
    91d6:	0f 00 

000091d8 <.Loc.335.1>:
    91d8:	f1 d9       	mov	a2,d1
    91da:	f8 c1 1f    	asl	31,d1
    91dd:	f2 1b       	or	d2,d3

000091df <.Loc.437.1>:
    91df:	f2 1d       	or	d3,d1
    91e1:	df f0 34    	ret	[d2,d3,a2,a3],52

000091e4 <.L19>:
    91e4:	82          	mov	d0,d2

000091e5 <.LVL15>:
    91e5:	83          	mov	d0,d3

000091e6 <.LVL16>:
    91e6:	fa e2 ff 07 	and	2047,d2
    91ea:	f8 c2 14    	asl	20,d2
    91ed:	fc e3 ff ff 	and	1048575,d3
    91f1:	0f 00 

000091f3 <.Loc.335.1>:
    91f3:	f1 d9       	mov	a2,d1
    91f5:	f8 c1 1f    	asl	31,d1
    91f8:	f2 1b       	or	d2,d3

000091fa <.Loc.437.1>:
    91fa:	f2 1d       	or	d3,d1
    91fc:	df f0 34    	ret	[d2,d3,a2,a3],52

000091ff <.L14>:
    91ff:	8d          	mov	d3,d1
    9200:	f8 c1 1f    	asl	31,d1
    9203:	5a 10       	mov	(16,sp),d2
    9205:	f8 c6 01    	lsr	1,d2
    9208:	f2 16       	or	d1,d2
    920a:	4a 10       	mov	d2,(16,sp)
    920c:	f8 c7 01    	lsr	1,d3

0000920f <.LVL18>:
    920f:	f1 e0       	mov	d0,a0
    9211:	fa d0 00 04 	add	1024,a0

00009215 <.LVL19>:
    9215:	8d          	mov	d3,d1
    9216:	f8 c1 18    	asl	24,d1
    9219:	58 10       	mov	(16,sp),d0
    921b:	f8 c4 08    	lsr	8,d0
    921e:	f2 14       	or	d1,d0
    9220:	f8 c7 08    	lsr	8,d3
    9223:	fc e3 ff ff 	and	1048575,d3
    9227:	0f 00 
    9229:	f1 d2       	mov	a0,d2
    922b:	fa e2 ff 07 	and	2047,d2
    922f:	ca 9c       	bra	91cb <.L3>

00009231 <.L18>:
    9231:	08          	clr	d2

00009232 <.LVL22>:
    9232:	00          	clr	d0
    9233:	83          	mov	d0,d3

00009234 <.LVL23>:
    9234:	fa e2 ff 07 	and	2047,d2
    9238:	f8 c2 14    	asl	20,d2
    923b:	fc e3 ff ff 	and	1048575,d3
    923f:	0f 00 

00009241 <.Loc.335.1>:
    9241:	f1 d9       	mov	a2,d1
    9243:	f8 c1 1f    	asl	31,d1
    9246:	f2 1b       	or	d2,d3

00009248 <.Loc.437.1>:
    9248:	f2 1d       	or	d3,d1
    924a:	df f0 34    	ret	[d2,d3,a2,a3],52

0000924d <.L31>:
    924d:	59 10       	mov	(16,sp),d1
    924f:	fa e1 00 01 	and	256,d1
    9253:	f1 91       	cmp	a0,d1
    9255:	c9 05       	bne	925a <.L0_6>
    9257:	cc 4c ff    	jmp	91a3 <.L12>

0000925a <.L0_6>:
    925a:	5a 10       	mov	(16,sp),d2
    925c:	f1 d1       	mov	a0,d1
    925e:	fa c2 80 00 	add	128,d2
    9262:	f1 47       	addc	d1,d3

00009264 <.LVL25>:
    9264:	4a 10       	mov	d2,(16,sp)

00009266 <.LVL26>:
    9266:	cc 3d ff    	jmp	91a3 <.L12>

00009269 <.L21>:
    9269:	2e ff 07    	mov	2047,d2

0000926c <.LVL28>:
    926c:	00          	clr	d0
    926d:	83          	mov	d0,d3

0000926e <.LVL29>:
    926e:	fa e2 ff 07 	and	2047,d2
    9272:	f8 c2 14    	asl	20,d2
    9275:	fc e3 ff ff 	and	1048575,d3
    9279:	0f 00 

0000927b <.Loc.335.1>:
    927b:	f1 d9       	mov	a2,d1
    927d:	f8 c1 1f    	asl	31,d1
    9280:	f2 1b       	or	d2,d3

00009282 <.Loc.437.1>:
    9282:	f2 1d       	or	d3,d1
    9284:	df f0 34    	ret	[d2,d3,a2,a3],52

00009287 <.L29>:
    9287:	fc e7 00 00 	or	524288,d3
    928b:	08 00 
    928d:	88          	mov	d2,d0
    928e:	fc e3 ff ff 	and	1048575,d3
    9292:	0f 00 
    9294:	2e ff 07    	mov	2047,d2

00009297 <.LVL32>:
    9297:	fa e2 ff 07 	and	2047,d2
    929b:	f8 c2 14    	asl	20,d2
    929e:	fc e3 ff ff 	and	1048575,d3
    92a2:	0f 00 

000092a4 <.Loc.335.1>:
    92a4:	f1 d9       	mov	a2,d1
    92a6:	f8 c1 1f    	asl	31,d1
    92a9:	f2 1b       	or	d2,d3

000092ab <.Loc.437.1>:
    92ab:	f2 1d       	or	d3,d1
    92ad:	df f0 34    	ret	[d2,d3,a2,a3],52

000092b0 <.L30>:
    92b0:	fc df 02 fc 	mov	-1022,a3
    92b4:	ff ff 
    92b6:	f1 23       	sub	d0,a3

000092b8 <.LVL34>:
    92b8:	bf 38       	cmp	56,a3
    92ba:	c3 05       	ble	92bf <.L0_7>
    92bc:	cc 98 00    	jmp	9354 <.L20>

000092bf <.L0_7>:
    92bf:	4f 0c       	mov	a3,(12,sp)
    92c1:	58 10       	mov	(16,sp),d0
    92c3:	8d          	mov	d3,d1
    92c4:	dd f6 01 00 	call	94ba <___lshrdi3>,[],0
    92c8:	00 00 00 

000092cb <.LVL36>:
    92cb:	42 20       	mov	d0,(32,sp)
    92cd:	f1 e5       	mov	d1,a1

000092cf <.Loc.266.1>:
    92cf:	90 00       	mov	0,a0
    92d1:	4f 0c       	mov	a3,(12,sp)
    92d3:	80 01       	mov	1,d0
    92d5:	f1 d1       	mov	a0,d1
    92d7:	43 18       	mov	a0,(24,sp)
    92d9:	47 1c       	mov	a1,(28,sp)
    92db:	dd 10 02 00 	call	94eb <___ashldi3>,[],0
    92df:	00 00 00 
    92e2:	f1 e7       	mov	d1,a3

000092e4 <.LVL38>:
    92e4:	8a ff       	mov	-1,d2

000092e6 <.LVL39>:
    92e6:	e8          	add	d2,d0
    92e7:	f1 49       	addc	d2,d1
    92e9:	5a 10       	mov	(16,sp),d2
    92eb:	f2 02       	and	d0,d2
    92ed:	f2 07       	and	d1,d3

000092ef <.LVL40>:
    92ef:	f2 1e       	or	d3,d2
    92f1:	00          	clr	d0
    92f2:	f1 08       	sub	d2,d0
    92f4:	f2 18       	or	d2,d0
    92f6:	f8 c4 1f    	lsr	31,d0

000092f9 <.Loc.267.1>:
    92f9:	5a 20       	mov	(32,sp),d2
    92fb:	f2 18       	or	d2,d0
    92fd:	5d 1c       	mov	(28,sp),a1
    92ff:	f1 d5       	mov	a1,d1

00009301 <.LBE13>:
    9301:	82          	mov	d0,d2
    9302:	16          	extbu	d2
    9303:	5c 18       	mov	(24,sp),a0
    9305:	fa ca 80 00 	cmp	128,d2
    9309:	c9 4d       	bne	9356 <.L6>

0000930b <.Loc.271.1>:
    930b:	82          	mov	d0,d2
    930c:	fa e2 00 01 	and	256,d2
    9310:	c8 0a       	beq	931a <.L7>

00009312 <.Loc.272.1>:
    9312:	f1 d2       	mov	a0,d2
    9314:	fa c0 80 00 	add	128,d0

00009318 <.LVL42>:
    9318:	f1 49       	addc	d2,d1

0000931a <.L7>:
    931a:	86          	mov	d1,d2
    931b:	f8 c2 18    	asl	24,d2
    931e:	f8 c4 08    	lsr	8,d0
    9321:	f2 18       	or	d2,d0
    9323:	87          	mov	d1,d3
    9324:	f8 c7 08    	lsr	8,d3
    9327:	fc e3 ff ff 	and	1048575,d3
    932b:	0f 00 

0000932d <.Loc.281.1>:
    932d:	8a 01       	mov	1,d2
    932f:	fc c9 ff ff 	cmp	268435455,d1
    9333:	ff 0f 
    9335:	c7 05       	bls	933a <.L0_8>
    9337:	cc 94 fe    	jmp	91cb <.L3>

0000933a <.L0_8>:
    933a:	08          	clr	d2

0000933b <.LBE12>:
    933b:	fa e2 ff 07 	and	2047,d2
    933f:	f8 c2 14    	asl	20,d2
    9342:	fc e3 ff ff 	and	1048575,d3
    9346:	0f 00 

00009348 <.Loc.335.1>:
    9348:	f1 d9       	mov	a2,d1
    934a:	f8 c1 1f    	asl	31,d1
    934d:	f2 1b       	or	d2,d3

0000934f <.Loc.437.1>:
    934f:	f2 1d       	or	d3,d1
    9351:	df f0 34    	ret	[d2,d3,a2,a3],52

00009354 <.L20>:
    9354:	00          	clr	d0
    9355:	81          	mov	d0,d1

00009356 <.L6>:
    9356:	08          	clr	d2
    9357:	28 7f       	add	127,d0
    9359:	f1 49       	addc	d2,d1

0000935b <.LVL47>:
    935b:	ca bf       	bra	931a <.L7>

0000935d <___unpack_d>:
    935d:	cf c0       	movm	[d2,d3],(sp)

0000935f <.LCFI0>:
    935f:	f1 e5       	mov	d1,a1

00009361 <.Loc.467.1>:
    9361:	f1 e0       	mov	d0,a0
    9363:	78          	mov	(a0),d2
    9364:	f8 0c 04    	mov	(4,a0),d3
    9367:	8c          	mov	d3,d0

00009368 <.LVL1>:
    9368:	fc e0 ff ff 	and	1048575,d0
    936c:	0f 00 
    936e:	f2 f2       	mov	d0,mdr

00009370 <.LVL2>:
    9370:	8d          	mov	d3,d1

00009371 <.LVL3>:
    9371:	f8 c5 14    	lsr	20,d1
    9374:	fa e1 ff 07 	and	2047,d1

00009378 <.LVL4>:
    9378:	8c          	mov	d3,d0

00009379 <.LVL5>:
    9379:	f8 c4 1f    	lsr	31,d0
    937c:	f8 11 04    	mov	d0,(4,a1)

0000937f <.Loc.522.1>:
    937f:	a5 00       	cmp	0,d1
    9381:	c9 4d       	bne	93ce <.L2>

00009383 <.Loc.525.1>:
    9383:	f2 e1       	mov	mdr,d1

00009385 <.LVL6>:
    9385:	f2 19       	or	d2,d1
    9387:	c8 74       	beq	93fb <.L16>

00009389 <.Loc.539.1>:
    9389:	2d 02 fc    	mov	-1022,d1
    938c:	f8 15 08    	mov	d1,(8,a1)

0000938f <.Loc.540.1>:
    938f:	89          	mov	d2,d1
    9390:	f8 c5 18    	lsr	24,d1
    9393:	f2 e0       	mov	mdr,d0
    9395:	f8 c0 08    	asl	8,d0
    9398:	f2 14       	or	d1,d0
    939a:	f8 c2 08    	asl	8,d2

0000939d <.LVL7>:
    939d:	85 03       	mov	3,d1
    939f:	65          	mov	d1,(a1)

000093a0 <.Loc.544.1>:
    93a0:	fc c8 ff ff 	cmp	268435455,d0
    93a4:	ff 0f 
    93a6:	c5 1f       	bhi	93c5 <.L5>
    93a8:	fc dc 01 fc 	mov	-1023,a0
    93ac:	ff ff 

000093ae <.L7>:
    93ae:	8b          	mov	d2,d3
    93af:	f8 c7 1f    	lsr	31,d3
    93b2:	e0          	add	d0,d0
    93b3:	ea          	add	d2,d2
    93b4:	f2 1c       	or	d3,d0

000093b6 <.LVL9>:
    93b6:	f1 d1       	mov	a0,d1
    93b8:	20 ff       	add	-1,a0

000093ba <.Loc.544.1>:
    93ba:	fc c8 ff ff 	cmp	268435455,d0
    93be:	ff 0f 
    93c0:	c7 ee       	bls	93ae <.L7>
    93c2:	f8 15 08    	mov	d1,(8,a1)

000093c5 <.L5>:
    93c5:	f8 19 0c    	mov	d2,(12,a1)
    93c8:	f8 11 10    	mov	d0,(16,a1)

000093cb <.Loc.588.1>:
    93cb:	df c0 08    	ret	[d2,d3],8

000093ce <.L2>:
    93ce:	fa c9 ff 07 	cmp	2047,d1
    93d2:	c8 2f       	beq	9401 <.L17>

000093d4 <.Loc.584.1>:
    93d4:	fa c1 01 fc 	add	-1023,d1

000093d8 <.LVL12>:
    93d8:	f8 15 08    	mov	d1,(8,a1)

000093db <.Loc.585.1>:
    93db:	85 03       	mov	3,d1

000093dd <.LVL13>:
    93dd:	65          	mov	d1,(a1)

000093de <.Loc.586.1>:
    93de:	89          	mov	d2,d1
    93df:	f8 c5 18    	lsr	24,d1
    93e2:	f2 e0       	mov	mdr,d0
    93e4:	f8 c0 08    	asl	8,d0
    93e7:	f2 11       	or	d0,d1
    93e9:	f8 c2 08    	asl	8,d2

000093ec <.LVL14>:
    93ec:	fc e5 00 00 	or	268435456,d1
    93f0:	00 10 
    93f2:	f8 19 0c    	mov	d2,(12,a1)
    93f5:	f8 15 10    	mov	d1,(16,a1)

000093f8 <.Loc.588.1>:
    93f8:	df c0 08    	ret	[d2,d3],8

000093fb <.L16>:
    93fb:	80 02       	mov	2,d0
    93fd:	61          	mov	d0,(a1)

000093fe <.Loc.588.1>:
    93fe:	df c0 08    	ret	[d2,d3],8

00009401 <.L17>:
    9401:	f2 e1       	mov	mdr,d1

00009403 <.LVL17>:
    9403:	f2 19       	or	d2,d1
    9405:	c8 18       	beq	941d <.L18>

00009407 <.Loc.568.1>:
    9407:	fc e3 00 00 	and	524288,d3
    940b:	08 00 

0000940d <.LVL18>:
    940d:	c8 16       	beq	9423 <.L11>

0000940f <.Loc.571.1>:
    940f:	85 01       	mov	1,d1
    9411:	65          	mov	d1,(a1)

00009412 <.L13>:
    9412:	f8 19 0c    	mov	d2,(12,a1)
    9415:	f2 e0       	mov	mdr,d0
    9417:	f8 11 10    	mov	d0,(16,a1)

0000941a <.Loc.588.1>:
    941a:	df c0 08    	ret	[d2,d3],8

0000941d <.L18>:
    941d:	80 04       	mov	4,d0
    941f:	61          	mov	d0,(a1)

00009420 <.Loc.588.1>:
    9420:	df c0 08    	ret	[d2,d3],8

00009423 <.L11>:
    9423:	6d          	mov	d3,(a1)
    9424:	ca ee       	bra	9412 <.L13>

00009426 <___fpcmp_parts_d>:
    9426:	cf 30       	movm	[a2,a3],(sp)

00009428 <.LCFI0>:
    9428:	f1 e3       	mov	d0,a3
    942a:	f1 e6       	mov	d1,a2

0000942c <.LBB22>:
    942c:	f0 03       	mov	(a3),a0

0000942e <.LBE22>:
    942e:	b0 01       	cmp	1,a0
    9430:	c7 25       	bls	9455 <.L17>

00009432 <.LBB24>:
    9432:	f0 06       	mov	(a2),a1

00009434 <.LBE24>:
    9434:	b5 01       	cmp	1,a1
    9436:	c7 1f       	bls	9455 <.L17>

00009438 <.Loc.1100.1>:
    9438:	b0 04       	cmp	4,a0
    943a:	c8 71       	beq	94ab <.L31>

0000943c <.Loc.1118.1>:
    943c:	b5 04       	cmp	4,a1
    943e:	c8 20       	beq	945e <.L9>

00009440 <.Loc.1122.1>:
    9440:	b0 02       	cmp	2,a0
    9442:	c8 18       	beq	945a <.L32>

00009444 <.Loc.1130.1>:
    9444:	b5 02       	cmp	2,a1
    9446:	c8 24       	beq	946a <.L6>

00009448 <.Loc.1135.1>:
    9448:	f8 03 04    	mov	(4,a3),d0

0000944b <.LVL7>:
    944b:	f8 06 04    	mov	(4,a2),d1

0000944e <.LVL8>:
    944e:	a4          	cmp	d1,d0
    944f:	c8 26       	beq	9475 <.L10>

00009451 <.L20>:
    9451:	a0 00       	cmp	0,d0
    9453:	c9 12       	bne	9465 <.L26>

00009455 <.L17>:
    9455:	80 01       	mov	1,d0

00009457 <.L3>:
    9457:	de 30 08    	retf	[a2,a3],8

0000945a <.L32>:
    945a:	b5 02       	cmp	2,a1
    945c:	c8 4b       	beq	94a7 <.L19>

0000945e <.L9>:
    945e:	f8 02 04    	mov	(4,a2),d0

00009461 <.LVL13>:
    9461:	a0 00       	cmp	0,d0
    9463:	c9 f2       	bne	9455 <.L17>

00009465 <.L26>:
    9465:	80 ff       	mov	-1,d0

00009467 <.L33>:
    9467:	de 30 08    	retf	[a2,a3],8

0000946a <.L6>:
    946a:	f8 03 04    	mov	(4,a3),d0

0000946d <.LVL16>:
    946d:	a0 00       	cmp	0,d0
    946f:	c9 f6       	bne	9465 <.L26>
    9471:	80 01       	mov	1,d0
    9473:	ca e4       	bra	9457 <.L3>

00009475 <.L10>:
    9475:	f8 23 08    	mov	(8,a3),a0
    9478:	f8 06 08    	mov	(8,a2),d1
    947b:	f1 a4       	cmp	d1,a0
    947d:	c1 d4       	bgt	9451 <.L20>

0000947f <.Loc.1145.1>:
    947f:	c2 0a       	bge	9489 <.L13>

00009481 <.L21>:
    9481:	a0 00       	cmp	0,d0
    9483:	c9 d2       	bne	9455 <.L17>

00009485 <.Loc.1120.1>:
    9485:	80 ff       	mov	-1,d0
    9487:	ca e0       	bra	9467 <.L33>

00009489 <.L13>:
    9489:	f8 27 0c    	mov	(12,a3),a1
    948c:	f8 07 10    	mov	(16,a3),d1
    948f:	f8 2e 0c    	mov	(12,a2),a3

00009492 <.LVL20>:
    9492:	f8 22 10    	mov	(16,a2),a0
    9495:	f1 91       	cmp	a0,d1
    9497:	c5 ba       	bhi	9451 <.L20>
    9499:	c9 05       	bne	949e <.L14>
    949b:	bd          	cmp	a3,a1
    949c:	c5 b5       	bhi	9451 <.L20>

0000949e <.L14>:
    949e:	f1 a4       	cmp	d1,a0
    94a0:	c5 e1       	bhi	9481 <.L21>
    94a2:	c9 05       	bne	94a7 <.L19>
    94a4:	b7          	cmp	a1,a3
    94a5:	c5 dc       	bhi	9481 <.L21>

000094a7 <.L19>:
	...

000094a8 <.Loc.1160.1>:
    94a8:	de 30 08    	retf	[a2,a3],8

000094ab <.L31>:
    94ab:	b5 04       	cmp	4,a1
    94ad:	c9 bd       	bne	946a <.L6>

000094af <.Loc.1111.1>:
    94af:	f8 02 04    	mov	(4,a2),d0

000094b2 <.LVL23>:
    94b2:	f8 07 04    	mov	(4,a3),d1

000094b5 <.LVL24>:
    94b5:	f1 04       	sub	d1,d0

000094b7 <.Loc.1160.1>:
    94b7:	de 30 08    	retf	[a2,a3],8

000094ba <___lshrdi3>:
    94ba:	cf e0       	movm	[d2,d3,a2],(sp)

000094bc <.LCFI0>:
    94bc:	5d 18       	mov	(24,sp),a1

000094be <.Loc.407.1>:
    94be:	b5 00       	cmp	0,a1
    94c0:	c8 1c       	beq	94dc <.L2>

000094c2 <.Loc.411.1>:
    94c2:	9a 20       	mov	32,a2
    94c4:	f1 36       	sub	a1,a2

000094c6 <.LVL1>:
    94c6:	ba 00       	cmp	0,a2
    94c8:	c3 17       	ble	94df <.L9>

000094ca <.LBB2>:
    94ca:	86          	mov	d1,d2
    94cb:	f1 d7       	mov	a1,d3
    94cd:	f2 ae       	lsr	d3,d2
    94cf:	f1 e8       	mov	d2,a0

000094d1 <.Loc.421.1>:
    94d1:	f1 da       	mov	a2,d2
    94d3:	f2 99       	asl	d2,d1

000094d5 <.LVL4>:
    94d5:	f2 ac       	lsr	d3,d0

000094d7 <.LVL5>:
    94d7:	f2 11       	or	d0,d1

000094d9 <.LBE2>:
    94d9:	84          	mov	d1,d0
    94da:	f1 d1       	mov	a0,d1

000094dc <.L2>:
    94dc:	de e0 0c    	retf	[d2,d3,a2],12

000094df <.L9>:
    94df:	90 00       	mov	0,a0

000094e1 <.Loc.417.1>:
    94e1:	0c          	clr	d3
    94e2:	f1 1b       	sub	a2,d3
    94e4:	f2 ad       	lsr	d3,d1

000094e6 <.Loc.427.1>:
    94e6:	84          	mov	d1,d0

000094e7 <.LVL8>:
    94e7:	f1 d1       	mov	a0,d1
    94e9:	ca f3       	bra	94dc <.L2>

000094eb <___ashldi3>:
    94eb:	cf e0       	movm	[d2,d3,a2],(sp)

000094ed <.LCFI0>:
    94ed:	5d 18       	mov	(24,sp),a1

000094ef <.Loc.435.1>:
    94ef:	b5 00       	cmp	0,a1
    94f1:	c8 1f       	beq	9510 <.L2>

000094f3 <.Loc.439.1>:
    94f3:	9a 20       	mov	32,a2
    94f5:	f1 36       	sub	a1,a2

000094f7 <.LVL1>:
    94f7:	ba 00       	cmp	0,a2
    94f9:	c3 1a       	ble	9513 <.L9>

000094fb <.LBB2>:
    94fb:	82          	mov	d0,d2
    94fc:	f1 d7       	mov	a1,d3
    94fe:	f2 9e       	asl	d3,d2
    9500:	f1 e8       	mov	d2,a0

00009502 <.Loc.449.1>:
    9502:	83          	mov	d0,d3
    9503:	f1 da       	mov	a2,d2
    9505:	f2 ab       	lsr	d2,d3

00009507 <.Loc.452.1>:
    9507:	f1 d4       	mov	a1,d0

00009509 <.LVL4>:
    9509:	f2 91       	asl	d0,d1
    950b:	f2 17       	or	d1,d3

0000950d <.LBE2>:
    950d:	f1 d0       	mov	a0,d0
    950f:	8d          	mov	d3,d1

00009510 <.L2>:
    9510:	de e0 0c    	retf	[d2,d3,a2],12

00009513 <.L9>:
    9513:	90 00       	mov	0,a0

00009515 <.Loc.445.1>:
    9515:	0c          	clr	d3
    9516:	f1 1b       	sub	a2,d3
    9518:	f2 9c       	asl	d3,d0

0000951a <.LVL7>:
    951a:	83          	mov	d0,d3

0000951b <.Loc.455.1>:
    951b:	f1 d0       	mov	a0,d0
    951d:	8d          	mov	d3,d1

0000951e <.LVL8>:
    951e:	ca f2       	bra	9510 <.L2>
