
mn10300-elf.x:     file format elf32-mn10300


Disassembly of section .text:

00001400 <_start>:
    1400:	fc dc 10 e9 	mov	59664,a0
    1404:	00 00 
    1406:	f2 f0       	mov	a0,sp
    1408:	dd 91 01 00 	call	1599 <__startmain>,[],0
    140c:	00 00 00 
    140f:	81          	mov	d0,d1

00001410 <___r_exit>:
    1410:	80 01       	mov	1,d0
    1412:	f0 c0       	syscall	
    1414:	f0 fc       	rets	

00001416 <___r_read>:
    1416:	80 04       	mov	4,d0
    1418:	f0 c0       	syscall	
    141a:	f0 fc       	rets	

0000141c <___r_write>:
    141c:	80 05       	mov	5,d0
    141e:	f0 c0       	syscall	
    1420:	f0 fc       	rets	

00001422 <___r_open>:
    1422:	80 02       	mov	2,d0
    1424:	f0 c0       	syscall	
    1426:	f0 fc       	rets	

00001428 <___r_close>:
    1428:	80 03       	mov	3,d0
    142a:	f0 c0       	syscall	
    142c:	f0 fc       	rets	

0000142e <___exit>:
    142e:	f8 fe f4    	add	-12,sp

00001431 <.LCFI0>:
    1431:	81          	mov	d0,d1

00001432 <.Loc.18.1>:
    1432:	80 00       	mov	0,d0

00001434 <.LVL1>:
    1434:	dd dc ff ff 	call	1410 <___r_exit>,[],0
    1438:	ff 00 00 

0000143b <___read>:
    143b:	f8 fe ec    	add	-20,sp

0000143e <.LCFI1>:
    143e:	f1 e0       	mov	d0,a0

00001440 <.Loc.22.1>:
    1440:	46 0c       	mov	d1,(12,sp)
    1442:	58 20       	mov	(32,sp),d0

00001444 <.LVL4>:
    1444:	42 10       	mov	d0,(16,sp)
    1446:	80 00       	mov	0,d0
    1448:	f1 d1       	mov	a0,d1

0000144a <.LVL5>:
    144a:	dd cc ff ff 	call	1416 <___r_read>,[],0
    144e:	ff 00 00 

00001451 <.LVL6>:
    1451:	df 00 14    	ret	[],20

00001454 <___write>:
    1454:	f8 fe ec    	add	-20,sp

00001457 <.LCFI2>:
    1457:	f1 e0       	mov	d0,a0

00001459 <.Loc.26.1>:
    1459:	46 0c       	mov	d1,(12,sp)
    145b:	58 20       	mov	(32,sp),d0

0000145d <.LVL8>:
    145d:	42 10       	mov	d0,(16,sp)
    145f:	80 00       	mov	0,d0
    1461:	f1 d1       	mov	a0,d1

00001463 <.LVL9>:
    1463:	dd b9 ff ff 	call	141c <___r_write>,[],0
    1467:	ff 00 00 

0000146a <.LVL10>:
    146a:	df 00 14    	ret	[],20

0000146d <___open>:
    146d:	f8 fe ec    	add	-20,sp

00001470 <.LCFI3>:
    1470:	f1 e0       	mov	d0,a0

00001472 <.Loc.30.1>:
    1472:	46 0c       	mov	d1,(12,sp)
    1474:	58 20       	mov	(32,sp),d0

00001476 <.LVL12>:
    1476:	42 10       	mov	d0,(16,sp)
    1478:	80 00       	mov	0,d0
    147a:	f1 d1       	mov	a0,d1

0000147c <.LVL13>:
    147c:	dd a6 ff ff 	call	1422 <___r_open>,[],0
    1480:	ff 00 00 

00001483 <.LVL14>:
    1483:	df 00 14    	ret	[],20

00001486 <___close>:
    1486:	f8 fe f4    	add	-12,sp

00001489 <.LCFI4>:
    1489:	81          	mov	d0,d1

0000148a <.Loc.34.1>:
    148a:	80 00       	mov	0,d0

0000148c <.LVL16>:
    148c:	dd 9c ff ff 	call	1428 <___r_close>,[],0
    1490:	ff 00 00 

00001493 <.LVL17>:
    1493:	df 00 0c    	ret	[],12

00001496 <__exit>:
    1496:	f8 fe f4    	add	-12,sp

00001499 <.LCFI5>:
    1499:	cd 95 ff 00 	call	142e <___exit>,[],0
    149d:	00 

0000149e <_read>:
    149e:	f8 fe f0    	add	-16,sp

000014a1 <.LCFI6>:
    14a1:	5c 1c       	mov	(28,sp),a0
    14a3:	43 0c       	mov	a0,(12,sp)
    14a5:	cd 96 ff 00 	call	143b <___read>,[],0
    14a9:	00 

000014aa <.LVL21>:
    14aa:	df 00 10    	ret	[],16

000014ad <_write>:
    14ad:	f8 fe f0    	add	-16,sp

000014b0 <.LCFI7>:
    14b0:	5c 1c       	mov	(28,sp),a0
    14b2:	43 0c       	mov	a0,(12,sp)
    14b4:	cd a0 ff 00 	call	1454 <___write>,[],0
    14b8:	00 

000014b9 <.LVL23>:
    14b9:	df 00 10    	ret	[],16

000014bc <_open>:
    14bc:	f8 fe f0    	add	-16,sp

000014bf <.LCFI8>:
    14bf:	5c 1c       	mov	(28,sp),a0
    14c1:	43 0c       	mov	a0,(12,sp)
    14c3:	cd aa ff 00 	call	146d <___open>,[],0
    14c7:	00 

000014c8 <.LVL25>:
    14c8:	df 00 10    	ret	[],16

000014cb <_close>:
    14cb:	f8 fe f4    	add	-12,sp

000014ce <.LCFI9>:
    14ce:	cd b8 ff 00 	call	1486 <___close>,[],0
    14d2:	00 

000014d3 <.LVL27>:
    14d3:	df 00 0c    	ret	[],12

000014d6 <_fstat>:
    14d6:	f8 fe f0    	add	-16,sp

000014d9 <.LCFI10>:
    14d9:	80 3c       	mov	60,d0

000014db <.LVL29>:
    14db:	42 0c       	mov	d0,(12,sp)
    14dd:	84          	mov	d1,d0
    14de:	85 00       	mov	0,d1

000014e0 <.LVL30>:
    14e0:	dd 05 01 00 	call	15e5 <_memset>,[],0
    14e4:	00 00 00 

000014e7 <.LVL31>:
    14e7:	80 00       	mov	0,d0
    14e9:	df 00 10    	ret	[],16

000014ec <_lseek>:
    14ec:	84          	mov	d1,d0

000014ed <.LVL33>:
    14ed:	de 00 00    	retf	[],0

000014f0 <_sbrk>:
    14f0:	fc a5 00 9c 	mov	(9c00 <__gp>),d1
    14f4:	00 00 

000014f6 <.Loc.80.1>:
    14f6:	e4          	add	d1,d0

000014f7 <.LVL36>:
    14f7:	fc 81 00 9c 	mov	d0,(9c00 <__gp>)
    14fb:	00 00 

000014fd <.Loc.82.1>:
    14fd:	f1 e4       	mov	d1,a0
    14ff:	84          	mov	d1,d0
    1500:	de 00 00    	retf	[],0

00001503 <_isatty>:
    1503:	80 01       	mov	1,d0

00001505 <.LVL38>:
    1505:	de 00 00    	retf	[],0

00001508 <__read>:
    1508:	f8 fe f0    	add	-16,sp

0000150b <.LCFI11>:
    150b:	5c 1c       	mov	(28,sp),a0
    150d:	43 0c       	mov	a0,(12,sp)
    150f:	cd 8f ff 00 	call	149e <_read>,[],0
    1513:	00 

00001514 <.LVL40>:
    1514:	df 00 10    	ret	[],16

00001517 <__write>:
    1517:	f8 fe f0    	add	-16,sp

0000151a <.LCFI12>:
    151a:	5c 1c       	mov	(28,sp),a0
    151c:	43 0c       	mov	a0,(12,sp)
    151e:	cd 8f ff 00 	call	14ad <_write>,[],0
    1522:	00 

00001523 <.LVL42>:
    1523:	df 00 10    	ret	[],16

00001526 <__open>:
    1526:	f8 fe f0    	add	-16,sp

00001529 <.LCFI13>:
    1529:	5c 1c       	mov	(28,sp),a0
    152b:	43 0c       	mov	a0,(12,sp)
    152d:	cd 8f ff 00 	call	14bc <_open>,[],0
    1531:	00 

00001532 <.LVL44>:
    1532:	df 00 10    	ret	[],16

00001535 <__close>:
    1535:	f8 fe f4    	add	-12,sp

00001538 <.LCFI14>:
    1538:	cd 93 ff 00 	call	14cb <_close>,[],0
    153c:	00 

0000153d <.LVL46>:
    153d:	df 00 0c    	ret	[],12

00001540 <__fstat>:
    1540:	f8 fe f4    	add	-12,sp

00001543 <.LCFI15>:
    1543:	cd 93 ff 00 	call	14d6 <_fstat>,[],0
    1547:	00 

00001548 <.LVL48>:
    1548:	df 00 0c    	ret	[],12

0000154b <__lseek>:
    154b:	f8 fe f0    	add	-16,sp

0000154e <.LCFI16>:
    154e:	5c 1c       	mov	(28,sp),a0
    1550:	43 0c       	mov	a0,(12,sp)
    1552:	cd 9a ff 00 	call	14ec <_lseek>,[],0
    1556:	00 

00001557 <.LVL50>:
    1557:	df 00 10    	ret	[],16

0000155a <__sbrk>:
    155a:	f8 fe f4    	add	-12,sp

0000155d <.LCFI17>:
    155d:	cd 93 ff 00 	call	14f0 <_sbrk>,[],0
    1561:	00 

00001562 <.LVL52>:
    1562:	f1 d0       	mov	a0,d0

00001564 <.Loc.117.1>:
    1564:	df 00 0c    	ret	[],12

00001567 <__isatty>:
    1567:	f8 fe f4    	add	-12,sp

0000156a <.LCFI18>:
    156a:	cd 99 ff 00 	call	1503 <_isatty>,[],0
    156e:	00 

0000156f <.LVL54>:
    156f:	df 00 0c    	ret	[],12

00001572 <_main>:
    1572:	f8 fe f0    	add	-16,sp

00001575 <.LCFI19>:
    1575:	fc cc 4c 95 	mov	38220,d0
    1579:	00 00 
    157b:	42 0c       	mov	d0,(12,sp)
    157d:	fc cc 20 95 	mov	38176,d0
    1581:	00 00 
    1583:	fc a5 04 9c 	mov	(9c04 <_data_value>),d1
    1587:	00 00 
    1589:	dd cf 00 00 	call	1658 <_printf>,[],0
    158d:	00 00 00 

00001590 <.LVL55>:
    1590:	80 00       	mov	0,d0
    1592:	dd 2c 00 00 	call	15be <_exit>,[],0
    1596:	00 00 00 

00001599 <__startmain>:
    1599:	f8 fe f0    	add	-16,sp

0000159c <.LBB4>:
    159c:	fc cc 08 e5 	mov	58632,d0
    15a0:	00 00 
    15a2:	fc c4 c0 a4 	sub	42176,d0
    15a6:	00 00 
    15a8:	42 0c       	mov	d0,(12,sp)
    15aa:	fc cc c0 a4 	mov	42176,d0
    15ae:	00 00 
    15b0:	85 00       	mov	0,d1
    15b2:	dd 33 00 00 	call	15e5 <_memset>,[],0
    15b6:	00 00 00 

000015b9 <.LBE4>:
    15b9:	cd b9 ff 00 	call	1572 <_main>,[],0
    15bd:	00 

000015be <_exit>:
    15be:	cf 80       	movm	[d2],(sp)

000015c0 <.LCFI0>:
    15c0:	f8 fe f4    	add	-12,sp

000015c3 <.LCFI1>:
    15c3:	82          	mov	d0,d2

000015c4 <.Loc.61.1>:
    15c4:	04          	clr	d1
    15c5:	dd 84 1b 00 	call	3149 <___call_exitprocs>,[],0
    15c9:	00 00 00 

000015cc <.LVL1>:
    15cc:	fc a4 58 95 	mov	(9558 <__global_impure_ptr>),d0
    15d0:	00 00 
    15d2:	f1 e1       	mov	d0,a1
    15d4:	f8 21 3c    	mov	(60,a1),a0
    15d7:	b0 00       	cmp	0,a0
    15d9:	c8 04       	beq	15dd <.L2>

000015db <.Loc.64.1>:
    15db:	f0 f0       	calls	(a0)

000015dd <.L2>:
    15dd:	88          	mov	d2,d0
    15de:	dd b8 fe ff 	call	1496 <__exit>,[],0
    15e2:	ff 00 00 

000015e5 <_memset>:
    15e5:	cf f0       	movm	[d2,d3,a2,a3],(sp)

000015e7 <.Lend_of_prologue>:
    15e7:	83          	mov	d0,d3

000015e8 <.Loc.10.1>:
    15e8:	86          	mov	d1,d2

000015e9 <.Loc.11.1>:
    15e9:	5d 1c       	mov	(28,sp),a1

000015eb <.Loc.12.1>:
    15eb:	f1 ec       	mov	d3,a0

000015ed <.Loc.14.1>:
    15ed:	b5 03       	cmp	3,a1

000015ef <.Loc.15.1>:
    15ef:	c7 32       	bls	1621 <.L41>

000015f1 <.Loc.16.1>:
    15f1:	f8 ef 03    	btst	3,d3

000015f4 <.Loc.17.1>:
    15f4:	c9 2d       	bne	1621 <.L41>

000015f6 <.Loc.18.1>:
    15f6:	16          	extbu	d2

000015f7 <.Loc.19.1>:
    15f7:	89          	mov	d2,d1

000015f8 <.Loc.20.1>:
    15f8:	f8 c1 08    	asl	8,d1

000015fb <.Loc.21.1>:
    15fb:	f2 19       	or	d2,d1

000015fd <.Loc.22.1>:
    15fd:	84          	mov	d1,d0

000015fe <.Loc.23.1>:
    15fe:	f8 c0 10    	asl	16,d0

00001601 <.Loc.24.1>:
    1601:	f2 11       	or	d0,d1

00001603 <.Loc.25.1>:
    1603:	b5 0f       	cmp	15,a1

00001605 <.Loc.26.1>:
    1605:	c7 10       	bls	1615 <.L36>

00001607 <.Loc.27.1>:
    1607:	db          	setlb	

00001608 <.Loc.28.1>:
    1608:	64          	mov	d1,(a0)

00001609 <.Loc.29.1>:
    1609:	50          	inc4	a0

0000160a <.Loc.30.1>:
    160a:	64          	mov	d1,(a0)

0000160b <.Loc.31.1>:
    160b:	50          	inc4	a0

0000160c <.Loc.32.1>:
    160c:	64          	mov	d1,(a0)

0000160d <.Loc.33.1>:
    160d:	50          	inc4	a0

0000160e <.Loc.34.1>:
    160e:	64          	mov	d1,(a0)

0000160f <.Loc.35.1>:
    160f:	50          	inc4	a0

00001610 <.Loc.36.1>:
    1610:	21 f0       	add	-16,a1

00001612 <.Loc.37.1>:
    1612:	b5 0f       	cmp	15,a1

00001614 <.Loc.38.1>:
    1614:	d5          	lhi	

00001615 <.L36>:
    1615:	b5 03       	cmp	3,a1

00001617 <.Loc.41.1>:
    1617:	c7 0a       	bls	1621 <.L41>

00001619 <.Loc.42.1>:
    1619:	db          	setlb	

0000161a <.Loc.43.1>:
    161a:	64          	mov	d1,(a0)

0000161b <.Loc.44.1>:
    161b:	50          	inc4	a0

0000161c <.Loc.45.1>:
    161c:	21 fc       	add	-4,a1

0000161e <.Loc.46.1>:
    161e:	b5 03       	cmp	3,a1

00001620 <.Loc.47.1>:
    1620:	d5          	lhi	

00001621 <.L41>:
    1621:	b5 00       	cmp	0,a1

00001623 <.Loc.51.1>:
    1623:	c8 0d       	beq	1630 <.Lepilogue>

00001625 <.Loc.52.1>:
    1625:	db          	setlb	

00001626 <.Loc.53.1>:
    1626:	f0 58       	movbu	d2,(a0)

00001628 <.Loc.54.1>:
    1628:	41          	inc	a0

00001629 <.Loc.55.1>:
    1629:	fc d5 01 00 	sub	1,a1
    162d:	00 00 

0000162f <.Loc.56.1>:
    162f:	d9          	lne	

00001630 <.Lepilogue>:
    1630:	f1 ec       	mov	d3,a0

00001632 <.Loc.59.1>:
    1632:	df f0 10    	ret	[d2,d3,a2,a3],16

00001635 <__printf_r>:
    1635:	cf 20       	movm	[a2],(sp)

00001637 <.LCFI0>:
    1637:	f8 fe e8    	add	-24,sp

0000163a <.LCFI1>:
    163a:	42 20       	mov	d0,(32,sp)
    163c:	46 24       	mov	d1,(36,sp)
    163e:	3c          	mov	sp,a0
    163f:	20 28       	add	40,a0

00001641 <.Loc.34.1>:
    1641:	43 14       	mov	a0,(20,sp)

00001643 <.Loc.35.1>:
    1643:	f1 e2       	mov	d0,a2
    1645:	f8 26 08    	mov	(8,a2),a1
    1648:	46 0c       	mov	d1,(12,sp)
    164a:	43 10       	mov	a0,(16,sp)
    164c:	f1 d5       	mov	a1,d1

0000164e <.LVL1>:
    164e:	dd 2f 00 00 	call	167d <__vfprintf_r>,[],0
    1652:	00 00 00 

00001655 <.LVL2>:
    1655:	df 20 1c    	ret	[a2],28

00001658 <_printf>:
    1658:	f8 fe e8    	add	-24,sp

0000165b <.LCFI2>:
    165b:	42 1c       	mov	d0,(28,sp)
    165d:	46 20       	mov	d1,(32,sp)
    165f:	3d          	mov	sp,a1
    1660:	21 20       	add	32,a1

00001662 <.Loc.48.1>:
    1662:	fc a0 08 9c 	mov	(9c08 <__impure_ptr>),a0
    1666:	00 00 

00001668 <.LVL4>:
    1668:	47 14       	mov	a1,(20,sp)

0000166a <.Loc.52.1>:
    166a:	f8 04 08    	mov	(8,a0),d1
    166d:	42 0c       	mov	d0,(12,sp)
    166f:	47 10       	mov	a1,(16,sp)
    1671:	f1 d0       	mov	a0,d0

00001673 <.LVL5>:
    1673:	dd 0a 00 00 	call	167d <__vfprintf_r>,[],0
    1677:	00 00 00 

0000167a <.LVL6>:
    167a:	df 00 18    	ret	[],24

0000167d <__vfprintf_r>:
    167d:	cf f0       	movm	[d2,d3,a2,a3],(sp)

0000167f <.LCFI0>:
    167f:	fa fe cc fa 	add	-1332,sp

00001683 <.LCFI1>:
    1683:	fa 91 48 05 	mov	d0,(1352,sp)
    1687:	fa 95 4c 05 	mov	d1,(1356,sp)

0000168b <.Loc.575.1>:
    168b:	dd 57 38 00 	call	4ee2 <__localeconv_r>,[],0
    168f:	00 00 00 

00001692 <.LVL1>:
    1692:	f0 00       	mov	(a0),a0
    1694:	43 5c       	mov	a0,(92,sp)

00001696 <.LVL2>:
    1696:	f1 d0       	mov	a0,d0
    1698:	dd 3b 4d 00 	call	63d3 <_strlen>,[],0
    169c:	00 00 00 

0000169f <.LVL3>:
    169f:	42 68       	mov	d0,(104,sp)

000016a1 <.LVL4>:
    16a1:	08          	clr	d2
    16a2:	4a 58       	mov	d2,(88,sp)
    16a4:	4a 6c       	mov	d2,(108,sp)

000016a6 <.LVL5>:
    16a6:	fa b2 48 05 	mov	(1352,sp),a2
    16aa:	f1 aa       	cmp	d2,a2
    16ac:	c8 0b       	beq	16b7 <.L0_0>

000016ae <.Loc.710.1>:
    16ae:	f8 02 38    	mov	(56,a2),d0

000016b1 <.LVL6>:
    16b1:	a8          	cmp	d2,d0
    16b2:	c9 05       	bne	16b7 <.L0_0>
    16b4:	cc 85 03    	jmp	1a39 <.L414>

000016b7 <.L0_0>:
    16b7:	fa b3 4c 05 	mov	(1356,sp),a3
    16bb:	f8 63 0c    	movhu	(12,a3),d0
    16be:	81          	mov	d0,d1
    16bf:	fa e1 00 20 	and	8192,d1
    16c3:	19          	exth	d1
    16c4:	a5 00       	cmp	0,d1
    16c6:	c9 17       	bne	16dd <.L3>

000016c8 <.Loc.713.1>:
    16c8:	81          	mov	d0,d1
    16c9:	fa e5 00 20 	or	8192,d1
    16cd:	84          	mov	d1,d0
    16ce:	f8 77 0c    	movhu	d1,(12,a3)
    16d1:	f8 07 64    	mov	(100,a3),d1
    16d4:	fc e1 ff df 	and	-8193,d1
    16d8:	ff ff 
    16da:	f8 17 64    	mov	d1,(100,a3)

000016dd <.L3>:
    16dd:	81          	mov	d0,d1
    16de:	f8 e1 08    	and	8,d1
    16e1:	19          	exth	d1
    16e2:	a5 00       	cmp	0,d1
    16e4:	c9 05       	bne	16e9 <.L0_1>
    16e6:	cc 5f 03    	jmp	1a45 <.L4>

000016e9 <.L0_1>:
    16e9:	fa b2 4c 05 	mov	(1356,sp),a2
    16ed:	f8 06 10    	mov	(16,a2),d1
    16f0:	a5 00       	cmp	0,d1
    16f2:	c9 05       	bne	16f7 <.L0_2>
    16f4:	cc 51 03    	jmp	1a45 <.L4>

000016f7 <.L0_2>:
    16f7:	81          	mov	d0,d1
    16f8:	f8 e1 1a    	and	26,d1
    16fb:	a5 0a       	cmp	10,d1
    16fd:	c9 05       	bne	1702 <.L0_3>
    16ff:	cc a0 02    	jmp	199f <.L415>

00001702 <.L0_3>:
    1702:	3e          	mov	sp,a2
    1703:	fa d2 34 01 	add	308,a2
    1707:	4b 98       	mov	a2,(152,sp)

00001709 <.Loc.743.1>:
    1709:	00          	clr	d0
    170a:	42 a0       	mov	d0,(160,sp)

0000170c <.Loc.744.1>:
    170c:	42 9c       	mov	d0,(156,sp)

0000170e <.LVL8>:
    170e:	fa b3 50 05 	mov	(1360,sp),a3
    1712:	4f 2c       	mov	a3,(44,sp)

00001714 <.Loc.586.1>:
    1714:	42 4c       	mov	d0,(76,sp)

00001716 <.Loc.597.1>:
    1716:	42 74       	mov	d0,(116,sp)

00001718 <.Loc.581.1>:
    1718:	42 70       	mov	d0,(112,sp)

0000171a <.Loc.745.1>:
    171a:	42 3c       	mov	d0,(60,sp)

0000171c <.Loc.742.1>:
    171c:	99          	mov	a2,a1

0000171d <.L382>:
    171d:	5e 2c       	mov	(44,sp),a2
    171f:	f0 42       	movbu	(a2),d0
    1721:	a0 00       	cmp	0,d0
    1723:	c9 05       	bne	1728 <.L0_4>
    1725:	cc 5f 02    	jmp	1984 <.L0_27>

00001728 <.L0_4>:
    1728:	a0 25       	cmp	37,d0
    172a:	c9 05       	bne	172f <.L0_5>
    172c:	cc 58 02    	jmp	1984 <.L0_27>

0000172f <.L0_5>:
    172f:	49          	inc	a2

00001730 <.Loc.772.1>:
    1730:	f0 42       	movbu	(a2),d0
    1732:	a0 00       	cmp	0,d0
    1734:	c9 05       	bne	1739 <.L0_6>
    1736:	cc 60 02    	jmp	1996 <.L416>

00001739 <.L0_6>:
    1739:	a0 25       	cmp	37,d0
    173b:	c9 f4       	bne	172f <.L0_5>
    173d:	f1 da       	mov	a2,d2
    173f:	5c 2c       	mov	(44,sp),a0
    1741:	f1 12       	sub	a0,d2

00001743 <.L14>:
    1743:	aa 00       	cmp	0,d2
    1745:	c8 21       	beq	1766 <.L12>

00001747 <.Loc.776.1>:
    1747:	5f 2c       	mov	(44,sp),a3
    1749:	f0 1d       	mov	a3,(a1)
    174b:	f8 19 04    	mov	d2,(4,a1)
    174e:	5b a0       	mov	(160,sp),d3
    1750:	eb          	add	d2,d3
    1751:	4e a0       	mov	d3,(160,sp)

00001753 <.LVL14>:
    1753:	58 9c       	mov	(156,sp),d0
    1755:	40          	inc	d0
    1756:	42 9c       	mov	d0,(156,sp)
    1758:	a0 07       	cmp	7,d0
    175a:	c3 05       	ble	175f <.L0_7>
    175c:	cc 61 03    	jmp	1abd <.L16>

0000175f <.L0_7>:
    175f:	21 08       	add	8,a1

00001761 <.LVL15>:
    1761:	58 3c       	mov	(60,sp),d0
    1763:	e8          	add	d2,d0
    1764:	42 3c       	mov	d0,(60,sp)

00001766 <.L12>:
    1766:	f0 42       	movbu	(a2),d0
    1768:	a0 00       	cmp	0,d0
    176a:	c9 05       	bne	176f <.L0_8>
    176c:	cc 19 03    	jmp	1a85 <.L19>

0000176f <.L0_8>:
    176f:	98          	mov	a2,a0
    1770:	41          	inc	a0
    1771:	43 2c       	mov	a0,(44,sp)

00001773 <.LVL18>:
    1773:	00          	clr	d0
    1774:	f8 92 79    	movbu	d0,(121,sp)

00001777 <.LVL19>:
    1777:	8f ff       	mov	-1,d3

00001779 <.Loc.791.1>:
    1779:	9f 00       	mov	0,a3
    177b:	4f 38       	mov	a3,(56,sp)

0000177d <.Loc.789.1>:
    177d:	4f 28       	mov	a3,(40,sp)
    177f:	f8 4a 01    	movbu	(1,a2),d2

00001782 <.Loc.877.1>:
    1782:	80 2b       	mov	43,d0

00001784 <.Loc.823.1>:
    1784:	85 20       	mov	32,d1
    1786:	f2 f6       	mov	d1,mdr
    1788:	92          	mov	a0,a2

00001789 <.LVL20>:
    1789:	49          	inc	a2

0000178a <.L381>:
    178a:	f1 e8       	mov	d2,a0
    178c:	20 e0       	add	-32,a0
    178e:	b0 58       	cmp	88,a0
    1790:	c5 05       	bhi	1795 <.L0_9>
    1792:	cc f7 01    	jmp	1989 <.L417>

00001795 <.L0_9>:
    1795:	4b 2c       	mov	a2,(44,sp)
    1797:	4a 54       	mov	d2,(84,sp)

00001799 <.Loc.1490.1>:
    1799:	aa 00       	cmp	0,d2
    179b:	c9 05       	bne	17a0 <.L0_10>
    179d:	cc e8 02    	jmp	1a85 <.L19>

000017a0 <.L0_10>:
    17a0:	f8 9a a4    	movbu	d2,(164,sp)

000017a3 <.LVL23>:
    17a3:	00          	clr	d0
    17a4:	f8 92 79    	movbu	d0,(121,sp)

000017a7 <.Loc.1497.1>:
    17a7:	90 01       	mov	1,a0
    17a9:	43 30       	mov	a0,(48,sp)

000017ab <.Loc.1495.1>:
    17ab:	43 34       	mov	a0,(52,sp)

000017ad <.Loc.1493.1>:
    17ad:	3e          	mov	sp,a2

000017ae <.LVL24>:
    17ae:	fa d2 a4 00 	add	164,a2
    17b2:	4b 40       	mov	a2,(64,sp)

000017b4 <.LVL25>:
    17b4:	9a 00       	mov	0,a2

000017b6 <.LVL26>:
    17b6:	4b 50       	mov	a2,(80,sp)
    17b8:	4b 60       	mov	a2,(96,sp)

000017ba <.L160>:
    17ba:	5a 28       	mov	(40,sp),d2
    17bc:	f8 e2 02    	and	2,d2
    17bf:	4a 44       	mov	d2,(68,sp)
    17c1:	c8 08       	beq	17c9 <.L161>

000017c3 <.Loc.1519.1>:
    17c3:	5c 30       	mov	(48,sp),a0
    17c5:	20 02       	add	2,a0
    17c7:	43 30       	mov	a0,(48,sp)

000017c9 <.L161>:
    17c9:	5a 28       	mov	(40,sp),d2
    17cb:	f8 e2 84    	and	132,d2
    17ce:	4a 48       	mov	d2,(72,sp)
    17d0:	c8 05       	beq	17d5 <.L0_11>
    17d2:	cc 88 09    	jmp	215a <.L405>

000017d5 <.L0_11>:
    17d5:	5e 38       	mov	(56,sp),a2
    17d7:	5a 30       	mov	(48,sp),d2
    17d9:	f1 2a       	sub	d2,a2
    17db:	9b          	mov	a2,a3

000017dc <.LVL29>:
    17dc:	ba 00       	cmp	0,a2
    17de:	c1 05       	bgt	17e3 <.L0_12>
    17e0:	cc 7a 09    	jmp	215a <.L405>

000017e3 <.L0_12>:
    17e3:	5b a0       	mov	(160,sp),d3
    17e5:	5a 9c       	mov	(156,sp),d2

000017e7 <.Loc.1523.1>:
    17e7:	ba 10       	cmp	16,a2
    17e9:	c1 05       	bgt	17ee <.L0_13>
    17eb:	cc 38 14    	jmp	2c23 <.L418>

000017ee <.L0_13>:
    17ee:	fc de 00 97 	mov	38656,a2
    17f2:	00 00 

000017f4 <.LVL31>:
    17f4:	4b 64       	mov	a2,(100,sp)

000017f6 <.Loc.1523.1>:
    17f6:	9a 10       	mov	16,a2
    17f8:	8c          	mov	d3,d0
    17f9:	fa b7 48 05 	mov	(1352,sp),d3

000017fd <.L166>:
    17fd:	fc cd 00 97 	mov	38656,d1
    1801:	00 00 
    1803:	65          	mov	d1,(a1)
    1804:	f8 39 04    	mov	a2,(4,a1)
    1807:	28 10       	add	16,d0
    1809:	42 a0       	mov	d0,(160,sp)

0000180b <.LVL32>:
    180b:	48          	inc	d2
    180c:	4a 9c       	mov	d2,(156,sp)
    180e:	aa 07       	cmp	7,d2
    1810:	c3 05       	ble	1815 <.L0_14>
    1812:	cc 92 08    	jmp	20a4 <.L164>

00001815 <.L0_14>:
    1815:	21 08       	add	8,a1

00001817 <.LVL33>:
    1817:	23 f0       	add	-16,a3
    1819:	bf 10       	cmp	16,a3
    181b:	c1 e2       	bgt	17fd <.L166>

0000181d <.L435>:
    181d:	83          	mov	d0,d3

0000181e <.L163>:
    181e:	5e 64       	mov	(100,sp),a2
    1820:	f0 19       	mov	a2,(a1)
    1822:	f8 3d 04    	mov	a3,(4,a1)
    1825:	f1 5f       	add	a3,d3
    1827:	4e a0       	mov	d3,(160,sp)

00001829 <.LVL35>:
    1829:	48          	inc	d2
    182a:	4a 9c       	mov	d2,(156,sp)
    182c:	aa 07       	cmp	7,d2
    182e:	c3 05       	ble	1833 <.L0_15>
    1830:	cc 08 09    	jmp	2138 <.L167>

00001833 <.L0_15>:
    1833:	21 08       	add	8,a1

00001835 <.L162>:
    1835:	f8 b8 79    	movbu	(121,sp),d0

00001838 <.LVL37>:
    1838:	a0 00       	cmp	0,d0

0000183a <.LVL38>:
    183a:	c8 1d       	beq	1857 <.L168>

0000183c <.Loc.1527.1>:
    183c:	3e          	mov	sp,a2
    183d:	22 79       	add	121,a2
    183f:	f0 19       	mov	a2,(a1)
    1841:	80 01       	mov	1,d0

00001843 <.LVL39>:
    1843:	f8 11 04    	mov	d0,(4,a1)
    1846:	e3          	add	d0,d3
    1847:	4e a0       	mov	d3,(160,sp)

00001849 <.LVL40>:
    1849:	58 9c       	mov	(156,sp),d0
    184b:	40          	inc	d0
    184c:	42 9c       	mov	d0,(156,sp)
    184e:	a0 07       	cmp	7,d0
    1850:	c3 05       	ble	1855 <.L0_16>
    1852:	cc c3 0b    	jmp	2415 <.L169>

00001855 <.L0_16>:
    1855:	21 08       	add	8,a1

00001857 <.L168>:
    1857:	5a 44       	mov	(68,sp),d2
    1859:	aa 00       	cmp	0,d2
    185b:	c8 1d       	beq	1878 <.L170>

0000185d <.Loc.1529.1>:
    185d:	3c          	mov	sp,a0
    185e:	20 7a       	add	122,a0
    1860:	f0 11       	mov	a0,(a1)
    1862:	80 02       	mov	2,d0

00001864 <.LVL42>:
    1864:	f8 11 04    	mov	d0,(4,a1)
    1867:	e3          	add	d0,d3
    1868:	4e a0       	mov	d3,(160,sp)

0000186a <.LVL43>:
    186a:	58 9c       	mov	(156,sp),d0
    186c:	40          	inc	d0
    186d:	42 9c       	mov	d0,(156,sp)
    186f:	a0 07       	cmp	7,d0
    1871:	c3 05       	ble	1876 <.L0_17>
    1873:	cc 70 0b    	jmp	23e3 <.L171>

00001876 <.L0_17>:
    1876:	21 08       	add	8,a1

00001878 <.L170>:
    1878:	5a 48       	mov	(72,sp),d2
    187a:	fa ca 80 00 	cmp	128,d2
    187e:	c9 05       	bne	1883 <.L0_18>
    1880:	cc 64 02    	jmp	1ae4 <.L419>

00001883 <.L0_18>:
    1883:	5e 50       	mov	(80,sp),a2
    1885:	5f 34       	mov	(52,sp),a3
    1887:	f1 3e       	sub	a3,a2

00001889 <.LVL46>:
    1889:	ba 00       	cmp	0,a2
    188b:	c3 4a       	ble	18d5 <.L178>
    188d:	5a 9c       	mov	(156,sp),d2
    188f:	fc dc 10 97 	mov	38672,a0
    1893:	00 00 

00001895 <.Loc.1536.1>:
    1895:	ba 10       	cmp	16,a2
    1897:	c3 29       	ble	18c0 <.L179>

00001899 <.Loc.1536.1>:
    1899:	9f 10       	mov	16,a3
    189b:	8d          	mov	d3,d1
    189c:	f1 db       	mov	a2,d3
    189e:	96          	mov	a1,a2

0000189f <.LVL47>:
    189f:	91          	mov	a0,a1

000018a0 <.L182>:
    18a0:	f0 16       	mov	a1,(a2)
    18a2:	f8 3e 04    	mov	a3,(4,a2)
    18a5:	29 10       	add	16,d1
    18a7:	46 a0       	mov	d1,(160,sp)

000018a9 <.LVL49>:
    18a9:	48          	inc	d2
    18aa:	4a 9c       	mov	d2,(156,sp)
    18ac:	aa 07       	cmp	7,d2
    18ae:	c3 05       	ble	18b3 <.L0_19>
    18b0:	cc be 07    	jmp	206e <.L180>

000018b3 <.L0_19>:
    18b3:	22 08       	add	8,a2

000018b5 <.LVL50>:
    18b5:	2b f0       	add	-16,d3
    18b7:	af 10       	cmp	16,d3
    18b9:	c1 e7       	bgt	18a0 <.L182>

000018bb <.L434>:
    18bb:	94          	mov	a1,a0
    18bc:	99          	mov	a2,a1
    18bd:	f1 ee       	mov	d3,a2

000018bf <.LVL52>:
    18bf:	87          	mov	d1,d3

000018c0 <.L179>:
    18c0:	f0 11       	mov	a0,(a1)
    18c2:	f8 39 04    	mov	a2,(4,a1)
    18c5:	f1 5b       	add	a2,d3
    18c7:	4e a0       	mov	d3,(160,sp)

000018c9 <.LVL54>:
    18c9:	48          	inc	d2
    18ca:	4a 9c       	mov	d2,(156,sp)
    18cc:	aa 07       	cmp	7,d2
    18ce:	c3 05       	ble	18d3 <.L0_20>
    18d0:	cc ec 0a    	jmp	23bc <.L183>

000018d3 <.L0_20>:
    18d3:	21 08       	add	8,a1

000018d5 <.L178>:
    18d5:	58 28       	mov	(40,sp),d0

000018d7 <.LVL56>:
    18d7:	fa e0 00 01 	and	256,d0
    18db:	c8 05       	beq	18e0 <.L0_21>
    18dd:	cc e5 08    	jmp	21c2 <.L184>

000018e0 <.L0_21>:
    18e0:	5e 40       	mov	(64,sp),a2
    18e2:	f0 19       	mov	a2,(a1)
    18e4:	5f 34       	mov	(52,sp),a3
    18e6:	f8 3d 04    	mov	a3,(4,a1)
    18e9:	f1 5f       	add	a3,d3
    18eb:	4e a0       	mov	d3,(160,sp)

000018ed <.LVL57>:
    18ed:	58 9c       	mov	(156,sp),d0
    18ef:	40          	inc	d0
    18f0:	42 9c       	mov	d0,(156,sp)
    18f2:	a0 07       	cmp	7,d0
    18f4:	c3 05       	ble	18f9 <.L0_22>
    18f6:	cc ab 02    	jmp	1ba1 <.L0_36>

000018f9 <.L0_22>:
    18f9:	21 08       	add	8,a1

000018fb <.L186>:
    18fb:	58 28       	mov	(40,sp),d0
    18fd:	f8 e0 04    	and	4,d0
    1900:	c8 5b       	beq	195b <.L0_25>

00001902 <.Loc.1606.1>:
    1902:	5e 38       	mov	(56,sp),a2
    1904:	5a 30       	mov	(48,sp),d2
    1906:	f1 2a       	sub	d2,a2
    1908:	9b          	mov	a2,a3

00001909 <.LVL60>:
    1909:	ba 00       	cmp	0,a2
    190b:	c3 50       	ble	195b <.L0_25>
    190d:	5a 9c       	mov	(156,sp),d2

0000190f <.Loc.1606.1>:
    190f:	ba 10       	cmp	16,a2
    1911:	c1 05       	bgt	1916 <.L0_23>
    1913:	cc 72 13    	jmp	2c85 <.L420>

00001916 <.L0_23>:
    1916:	fc de 00 97 	mov	38656,a2
    191a:	00 00 

0000191c <.LVL61>:
    191c:	4b 64       	mov	a2,(100,sp)

0000191e <.Loc.1606.1>:
    191e:	9a 10       	mov	16,a2
    1920:	8c          	mov	d3,d0
    1921:	fa b7 48 05 	mov	(1352,sp),d3

00001925 <.L260>:
    1925:	fc cd 00 97 	mov	38656,d1
    1929:	00 00 
    192b:	65          	mov	d1,(a1)
    192c:	f8 39 04    	mov	a2,(4,a1)
    192f:	28 10       	add	16,d0
    1931:	42 a0       	mov	d0,(160,sp)

00001933 <.LVL62>:
    1933:	48          	inc	d2
    1934:	4a 9c       	mov	d2,(156,sp)
    1936:	aa 07       	cmp	7,d2
    1938:	c3 05       	ble	193d <.L0_24>
    193a:	cc 99 07    	jmp	20d3 <.L258>

0000193d <.L0_24>:
    193d:	21 08       	add	8,a1

0000193f <.LVL63>:
    193f:	23 f0       	add	-16,a3
    1941:	bf 10       	cmp	16,a3
    1943:	c1 e2       	bgt	1925 <.L260>

00001945 <.L436>:
    1945:	83          	mov	d0,d3
    1946:	5e 64       	mov	(100,sp),a2
    1948:	f0 19       	mov	a2,(a1)
    194a:	f8 3d 04    	mov	a3,(4,a1)
    194d:	f1 5f       	add	a3,d3
    194f:	4e a0       	mov	d3,(160,sp)

00001951 <.LVL65>:
    1951:	48          	inc	d2
    1952:	4a 9c       	mov	d2,(156,sp)
    1954:	aa 07       	cmp	7,d2
    1956:	c3 05       	ble	195b <.L0_25>
    1958:	cc 72 02    	jmp	1bca <.L421>

0000195b <.L0_25>:
    195b:	58 30       	mov	(48,sp),d0
    195d:	5e 38       	mov	(56,sp),a2
    195f:	f1 98       	cmp	a2,d0
    1961:	c2 04       	bge	1965 <.L261>
    1963:	f1 d8       	mov	a2,d0

00001965 <.L261>:
    1965:	5a 3c       	mov	(60,sp),d2
    1967:	e2          	add	d0,d2
    1968:	4a 3c       	mov	d2,(60,sp)

0000196a <.LVL67>:
    196a:	af 00       	cmp	0,d3
    196c:	c8 05       	beq	1971 <.L0_26>
    196e:	cc ce 01    	jmp	1b3c <.L262>

00001971 <.L0_26>:
    1971:	00          	clr	d0
    1972:	42 9c       	mov	d0,(156,sp)

00001974 <.LVL68>:
    1974:	3d          	mov	sp,a1
    1975:	fa d1 34 01 	add	308,a1

00001979 <.L424>:
    1979:	5e 2c       	mov	(44,sp),a2
    197b:	f0 42       	movbu	(a2),d0
    197d:	a0 00       	cmp	0,d0
    197f:	c8 05       	beq	1984 <.L0_27>
    1981:	cc a7 fd    	jmp	1728 <.L0_4>

00001984 <.L0_27>:
    1984:	5e 2c       	mov	(44,sp),a2

00001986 <.LVL71>:
    1986:	cc e0 fd    	jmp	1766 <.L12>

00001989 <.L417>:
    1989:	f1 d1       	mov	a0,d1
    198b:	55          	asl2	d1
    198c:	f1 e4       	mov	d1,a0
    198e:	fc 20 9c 95 	mov	(38300,a0),a0
    1992:	00 00 
    1994:	f0 f4       	jmp	(a0)

00001996 <.L416>:
    1996:	f1 da       	mov	a2,d2
    1998:	5f 2c       	mov	(44,sp),a3
    199a:	f1 1e       	sub	a3,d2
    199c:	cc a7 fd    	jmp	1743 <.L14>

0000199f <.L415>:
    199f:	fa b3 4c 05 	mov	(1356,sp),a3
    19a3:	f8 67 0e    	movhu	(14,a3),d1

000019a6 <.Loc.722.1>:
    19a6:	86          	mov	d1,d2
    19a7:	1a          	exth	d2
    19a8:	aa 00       	cmp	0,d2
    19aa:	c2 05       	bge	19af <.L0_28>
    19ac:	cc 56 fd    	jmp	1702 <.L0_3>

000019af <.L0_28>:
    19af:	fc e0 fd ff 	and	-3,d0
    19b3:	ff ff 
    19b5:	f8 93 d8    	movhu	d0,(216,sp)

000019b8 <.Loc.350.1>:
    19b8:	f8 03 64    	mov	(100,a3),d0
    19bb:	fa 91 30 01 	mov	d0,(304,sp)

000019bf <.Loc.351.1>:
    19bf:	f8 97 da    	movhu	d1,(218,sp)

000019c2 <.Loc.352.1>:
    19c2:	f8 03 1c    	mov	(28,a3),d0
    19c5:	42 e8       	mov	d0,(232,sp)

000019c7 <.Loc.353.1>:
    19c7:	f8 03 24    	mov	(36,a3),d0
    19ca:	42 f0       	mov	d0,(240,sp)

000019cc <.Loc.356.1>:
    19cc:	3c          	mov	sp,a0
    19cd:	fa d0 34 01 	add	308,a0
    19d1:	43 cc       	mov	a0,(204,sp)
    19d3:	43 dc       	mov	a0,(220,sp)

000019d5 <.Loc.357.1>:
    19d5:	2c 00 04    	mov	1024,d0
    19d8:	42 d4       	mov	d0,(212,sp)
    19da:	42 e0       	mov	d0,(224,sp)

000019dc <.Loc.358.1>:
    19dc:	00          	clr	d0
    19dd:	42 e4       	mov	d0,(228,sp)

000019df <.Loc.364.1>:
    19df:	fa b2 50 05 	mov	(1360,sp),a2
    19e3:	4b 0c       	mov	a2,(12,sp)
    19e5:	fa b3 54 05 	mov	(1364,sp),a3

000019e9 <.LVL76>:
    19e9:	4f 10       	mov	a3,(16,sp)
    19eb:	fa b4 48 05 	mov	(1352,sp),d0
    19ef:	3c          	mov	sp,a0
    19f0:	2d cc 00    	mov	204,d1
    19f3:	f1 51       	add	a0,d1
    19f5:	cd 88 fc 00 	call	167d <__vfprintf_r>,[],0
    19f9:	00 

000019fa <.LVL77>:
    19fa:	42 3c       	mov	d0,(60,sp)

000019fc <.LVL78>:
    19fc:	a0 00       	cmp	0,d0
    19fe:	c0 1a       	blt	1a18 <.L0_29>
    1a00:	fa b4 48 05 	mov	(1352,sp),d0

00001a04 <.LVL79>:
    1a04:	3e          	mov	sp,a2
    1a05:	2d cc 00    	mov	204,d1
    1a08:	f1 59       	add	a2,d1
    1a0a:	dd 10 2e 00 	call	481a <__fflush_r>,[],0
    1a0e:	00 00 00 

00001a11 <.LVL80>:
    1a11:	a0 00       	cmp	0,d0
    1a13:	c8 05       	beq	1a18 <.L0_29>
    1a15:	cc 56 11    	jmp	2b6b <.L423>

00001a18 <.L0_29>:
    1a18:	f8 bc d8    	movhu	(216,sp),d0
    1a1b:	f8 e0 40    	and	64,d0
    1a1e:	18          	exth	d0
    1a1f:	a0 00       	cmp	0,d0
    1a21:	c8 0f       	beq	1a30 <.L296>

00001a23 <.Loc.368.1>:
    1a23:	fa b2 4c 05 	mov	(1356,sp),a2
    1a27:	f8 62 0c    	movhu	(12,a2),d0
    1a2a:	f8 e4 40    	or	64,d0
    1a2d:	f8 72 0c    	movhu	d0,(12,a2)

00001a30 <.L296>:
    1a30:	58 3c       	mov	(60,sp),d0
    1a32:	fa fe 34 05 	add	1332,sp
    1a36:	df f0 10    	ret	[d2,d3,a2,a3],16

00001a39 <.L414>:
    1a39:	f1 d8       	mov	a2,d0
    1a3b:	dd 0b 2f 00 	call	4946 <___sinit>,[],0
    1a3f:	00 00 00 

00001a42 <.LVL83>:
    1a42:	cc 75 fc    	jmp	16b7 <.L0_0>

00001a45 <.L4>:
    1a45:	fa b4 48 05 	mov	(1352,sp),d0
    1a49:	fa b5 4c 05 	mov	(1356,sp),d1
    1a4d:	dd e3 15 00 	call	3030 <___swsetup_r>,[],0
    1a51:	00 00 00 

00001a54 <.LVL84>:
    1a54:	a0 00       	cmp	0,d0
    1a56:	c9 5a       	bne	1ab0 <.L266>
    1a58:	fa b2 4c 05 	mov	(1356,sp),a2
    1a5c:	f8 62 0c    	movhu	(12,a2),d0

00001a5f <.Loc.722.1>:
    1a5f:	81          	mov	d0,d1
    1a60:	f8 e1 1a    	and	26,d1
    1a63:	a5 0a       	cmp	10,d1
    1a65:	c8 05       	beq	1a6a <.L0_30>
    1a67:	cc 9b fc    	jmp	1702 <.L0_3>

00001a6a <.L0_30>:
    1a6a:	cc 35 ff    	jmp	199f <.L415>

00001a6d <.L51>:
    1a6d:	5a 38       	mov	(56,sp),d2

00001a6f <.LVL86>:
    1a6f:	f2 32       	not	d2
    1a71:	48          	inc	d2
    1a72:	4a 38       	mov	d2,(56,sp)

00001a74 <.LVL87>:
    1a74:	fa 90 54 05 	mov	a0,(1364,sp)

00001a78 <.L27>:
    1a78:	5a 28       	mov	(40,sp),d2
    1a7a:	f8 e6 04    	or	4,d2
    1a7d:	4a 28       	mov	d2,(40,sp)

00001a7f <.LVL89>:
    1a7f:	f0 4a       	movbu	(a2),d2

00001a81 <.LVL90>:
    1a81:	49          	inc	a2

00001a82 <.LVL91>:
    1a82:	cc 08 fd    	jmp	178a <.L381>

00001a85 <.L19>:
    1a85:	58 a0       	mov	(160,sp),d0
    1a87:	a0 00       	cmp	0,d0
    1a89:	c8 18       	beq	1aa1 <.L18>

00001a8b <.Loc.1619.1>:
    1a8b:	3e          	mov	sp,a2
    1a8c:	fa d2 98 00 	add	152,a2
    1a90:	4b 0c       	mov	a2,(12,sp)
    1a92:	fa b4 48 05 	mov	(1352,sp),d0
    1a96:	fa b5 4c 05 	mov	(1356,sp),d1
    1a9a:	dd 7c 49 00 	call	6416 <___sprint_r>,[],0
    1a9e:	00 00 00 

00001aa1 <.L18>:
    1aa1:	fa b3 4c 05 	mov	(1356,sp),a3
    1aa5:	f8 63 0c    	movhu	(12,a3),d0
    1aa8:	f8 e0 40    	and	64,d0
    1aab:	18          	exth	d0
    1aac:	a0 00       	cmp	0,d0
    1aae:	c8 82       	beq	1a30 <.L296>

00001ab0 <.L266>:
    1ab0:	8a ff       	mov	-1,d2
    1ab2:	4a 3c       	mov	d2,(60,sp)

00001ab4 <.Loc.1628.1>:
    1ab4:	58 3c       	mov	(60,sp),d0
    1ab6:	fa fe 34 05 	add	1332,sp
    1aba:	df f0 10    	ret	[d2,d3,a2,a3],16

00001abd <.L16>:
    1abd:	3c          	mov	sp,a0
    1abe:	fa d0 98 00 	add	152,a0
    1ac2:	43 0c       	mov	a0,(12,sp)
    1ac4:	fa b4 48 05 	mov	(1352,sp),d0
    1ac8:	fa b5 4c 05 	mov	(1356,sp),d1
    1acc:	dd 4a 49 00 	call	6416 <___sprint_r>,[],0
    1ad0:	00 00 00 

00001ad3 <.LVL96>:
    1ad3:	a0 00       	cmp	0,d0
    1ad5:	c9 cc       	bne	1aa1 <.L18>

00001ad7 <.Loc.776.1>:
    1ad7:	3d          	mov	sp,a1
    1ad8:	fa d1 34 01 	add	308,a1

00001adc <.LVL97>:
    1adc:	58 3c       	mov	(60,sp),d0
    1ade:	e8          	add	d2,d0
    1adf:	42 3c       	mov	d0,(60,sp)

00001ae1 <.LVL98>:
    1ae1:	cc 85 fc    	jmp	1766 <.L12>

00001ae4 <.L419>:
    1ae4:	5e 38       	mov	(56,sp),a2
    1ae6:	5c 30       	mov	(48,sp),a0
    1ae8:	f1 32       	sub	a0,a2

00001aea <.LVL100>:
    1aea:	ba 00       	cmp	0,a2
    1aec:	c1 05       	bgt	1af1 <.L0_31>
    1aee:	cc 95 fd    	jmp	1883 <.L0_18>

00001af1 <.L0_31>:
    1af1:	5a 9c       	mov	(156,sp),d2
    1af3:	fc dc 10 97 	mov	38672,a0
    1af7:	00 00 

00001af9 <.Loc.1533.1>:
    1af9:	ba 10       	cmp	16,a2
    1afb:	c3 29       	ble	1b24 <.L173>

00001afd <.Loc.1533.1>:
    1afd:	9f 10       	mov	16,a3
    1aff:	8d          	mov	d3,d1
    1b00:	f1 db       	mov	a2,d3
    1b02:	96          	mov	a1,a2

00001b03 <.LVL101>:
    1b03:	91          	mov	a0,a1

00001b04 <.L176>:
    1b04:	f0 16       	mov	a1,(a2)
    1b06:	f8 3e 04    	mov	a3,(4,a2)
    1b09:	29 10       	add	16,d1
    1b0b:	46 a0       	mov	d1,(160,sp)

00001b0d <.LVL103>:
    1b0d:	48          	inc	d2
    1b0e:	4a 9c       	mov	d2,(156,sp)
    1b10:	aa 07       	cmp	7,d2
    1b12:	c3 05       	ble	1b17 <.L0_32>
    1b14:	cc ee 05    	jmp	2102 <.L174>

00001b17 <.L0_32>:
    1b17:	22 08       	add	8,a2

00001b19 <.LVL104>:
    1b19:	2b f0       	add	-16,d3
    1b1b:	af 10       	cmp	16,d3
    1b1d:	c1 e7       	bgt	1b04 <.L176>

00001b1f <.L437>:
    1b1f:	94          	mov	a1,a0
    1b20:	99          	mov	a2,a1
    1b21:	f1 ee       	mov	d3,a2

00001b23 <.LVL106>:
    1b23:	87          	mov	d1,d3

00001b24 <.L173>:
    1b24:	f0 11       	mov	a0,(a1)
    1b26:	f8 39 04    	mov	a2,(4,a1)
    1b29:	f1 5b       	add	a2,d3
    1b2b:	4e a0       	mov	d3,(160,sp)

00001b2d <.LVL108>:
    1b2d:	48          	inc	d2
    1b2e:	4a 9c       	mov	d2,(156,sp)
    1b30:	aa 07       	cmp	7,d2
    1b32:	c3 05       	ble	1b37 <.L0_33>
    1b34:	cc 11 0c    	jmp	2745 <.L177>

00001b37 <.L0_33>:
    1b37:	21 08       	add	8,a1

00001b39 <.LVL109>:
    1b39:	cc 4a fd    	jmp	1883 <.L0_18>

00001b3c <.L262>:
    1b3c:	3c          	mov	sp,a0
    1b3d:	fa d0 98 00 	add	152,a0
    1b41:	43 0c       	mov	a0,(12,sp)
    1b43:	fa b4 48 05 	mov	(1352,sp),d0
    1b47:	fa b5 4c 05 	mov	(1356,sp),d1
    1b4b:	dd cb 48 00 	call	6416 <___sprint_r>,[],0
    1b4f:	00 00 00 

00001b52 <.LVL111>:
    1b52:	a0 00       	cmp	0,d0
    1b54:	c8 05       	beq	1b59 <.L0_34>
    1b56:	cc 4b ff    	jmp	1aa1 <.L18>

00001b59 <.L0_34>:
    1b59:	00          	clr	d0
    1b5a:	42 9c       	mov	d0,(156,sp)

00001b5c <.LVL112>:
    1b5c:	3d          	mov	sp,a1
    1b5d:	fa d1 34 01 	add	308,a1
    1b61:	cc 18 fe    	jmp	1979 <.L424>

00001b64 <.L212>:
    1b64:	3e          	mov	sp,a2

00001b65 <.LVL114>:
    1b65:	fa d2 98 00 	add	152,a2
    1b69:	4b 0c       	mov	a2,(12,sp)
    1b6b:	fa b4 48 05 	mov	(1352,sp),d0
    1b6f:	fa b5 4c 05 	mov	(1356,sp),d1
    1b73:	dd a3 48 00 	call	6416 <___sprint_r>,[],0
    1b77:	00 00 00 

00001b7a <.LVL115>:
    1b7a:	a0 00       	cmp	0,d0
    1b7c:	c8 05       	beq	1b81 <.L0_35>
    1b7e:	cc 23 ff    	jmp	1aa1 <.L18>

00001b81 <.L0_35>:
    1b81:	3d          	mov	sp,a1
    1b82:	fa d1 34 01 	add	308,a1
    1b86:	5b a0       	mov	(160,sp),d3
    1b88:	5a 9c       	mov	(156,sp),d2

00001b8a <.L207>:
    1b8a:	5e 40       	mov	(64,sp),a2
    1b8c:	f0 19       	mov	a2,(a1)
    1b8e:	5f 4c       	mov	(76,sp),a3
    1b90:	f8 3d 04    	mov	a3,(4,a1)
    1b93:	f1 5f       	add	a3,d3

00001b95 <.L410>:
    1b95:	4e a0       	mov	d3,(160,sp)

00001b97 <.LVL117>:
    1b97:	48          	inc	d2
    1b98:	4a 9c       	mov	d2,(156,sp)
    1b9a:	aa 07       	cmp	7,d2
    1b9c:	c1 05       	bgt	1ba1 <.L0_36>
    1b9e:	cc 5b fd    	jmp	18f9 <.L0_22>

00001ba1 <.L0_36>:
    1ba1:	3c          	mov	sp,a0
    1ba2:	fa d0 98 00 	add	152,a0
    1ba6:	f1 d0       	mov	a0,d0

00001ba8 <.L406>:
    1ba8:	42 0c       	mov	d0,(12,sp)
    1baa:	fa b4 48 05 	mov	(1352,sp),d0
    1bae:	fa b5 4c 05 	mov	(1356,sp),d1
    1bb2:	dd 64 48 00 	call	6416 <___sprint_r>,[],0
    1bb6:	00 00 00 

00001bb9 <.LVL119>:
    1bb9:	a0 00       	cmp	0,d0
    1bbb:	c8 05       	beq	1bc0 <.L0_37>
    1bbd:	cc e4 fe    	jmp	1aa1 <.L18>

00001bc0 <.L0_37>:
    1bc0:	3d          	mov	sp,a1
    1bc1:	fa d1 34 01 	add	308,a1
    1bc5:	5b a0       	mov	(160,sp),d3
    1bc7:	cc 34 fd    	jmp	18fb <.L186>

00001bca <.L421>:
    1bca:	3c          	mov	sp,a0
    1bcb:	fa d0 98 00 	add	152,a0
    1bcf:	43 0c       	mov	a0,(12,sp)
    1bd1:	fa b4 48 05 	mov	(1352,sp),d0
    1bd5:	fa b5 4c 05 	mov	(1356,sp),d1
    1bd9:	dd 3d 48 00 	call	6416 <___sprint_r>,[],0
    1bdd:	00 00 00 

00001be0 <.LVL121>:
    1be0:	a0 00       	cmp	0,d0
    1be2:	c8 05       	beq	1be7 <.L0_38>
    1be4:	cc bd fe    	jmp	1aa1 <.L18>

00001be7 <.L0_38>:
    1be7:	5b a0       	mov	(160,sp),d3
    1be9:	cc 72 fd    	jmp	195b <.L0_25>

00001bec <.L28>:
    1bec:	f0 4a       	movbu	(a2),d2
    1bee:	98          	mov	a2,a0
    1bef:	41          	inc	a0

00001bf0 <.LVL124>:
    1bf0:	aa 2a       	cmp	42,d2
    1bf2:	c9 05       	bne	1bf7 <.L0_39>
    1bf4:	cc a0 13    	jmp	2f94 <.L52>

00001bf7 <.L0_39>:
    1bf7:	f1 ea       	mov	d2,a2
    1bf9:	22 d0       	add	-48,a2
    1bfb:	0c          	clr	d3

00001bfc <.LVL126>:
    1bfc:	ba 09       	cmp	9,a2
    1bfe:	c5 1b       	bhi	1c19 <.L0_40>

00001c00 <.L344>:
    1c00:	8e          	mov	d3,d2

00001c01 <.LVL128>:
    1c01:	ea          	add	d2,d2
    1c02:	57          	asl2	d3
    1c03:	ef          	add	d3,d3
    1c04:	eb          	add	d2,d3
    1c05:	f1 5b       	add	a2,d3

00001c07 <.LVL129>:
    1c07:	f0 48       	movbu	(a0),d2

00001c09 <.LVL130>:
    1c09:	41          	inc	a0

00001c0a <.Loc.919.1>:
    1c0a:	f1 ea       	mov	d2,a2
    1c0c:	22 d0       	add	-48,a2
    1c0e:	ba 09       	cmp	9,a2
    1c10:	c7 f0       	bls	1c00 <.L344>
    1c12:	af 00       	cmp	0,d3
    1c14:	c2 05       	bge	1c19 <.L0_40>
    1c16:	cc 89 0e    	jmp	2a9f <.L425>

00001c19 <.L0_40>:
    1c19:	92          	mov	a0,a2

00001c1a <.L455>:
    1c1a:	f1 e8       	mov	d2,a0

00001c1c <.LVL134>:
    1c1c:	20 e0       	add	-32,a0
    1c1e:	b0 58       	cmp	88,a0
    1c20:	c7 05       	bls	1c25 <.L0_41>
    1c22:	cc 73 fb    	jmp	1795 <.L0_9>

00001c25 <.L0_41>:
    1c25:	cc 64 fd    	jmp	1989 <.L417>

00001c28 <.L47>:
    1c28:	4b 2c       	mov	a2,(44,sp)
    1c2a:	4a 54       	mov	d2,(84,sp)

00001c2c <.LVL135>:
    1c2c:	fc ce 7f 95 	mov	38271,d2
    1c30:	00 00 

00001c32 <.LVL136>:
    1c32:	4a 74       	mov	d2,(116,sp)

00001c34 <.L36>:
    1c34:	58 28       	mov	(40,sp),d0
    1c36:	f8 e0 20    	and	32,d0
    1c39:	c9 05       	bne	1c3e <.L0_42>
    1c3b:	cc 2e 02    	jmp	1e69 <.L0_62>

00001c3e <.L0_42>:
    1c3e:	fa b3 54 05 	mov	(1364,sp),a3
    1c42:	7b          	mov	(a3),d2
    1c43:	f8 2b 04    	mov	(4,a3),a2
    1c46:	23 08       	add	8,a3

00001c48 <.LVL139>:
    1c48:	fa 9c 54 05 	mov	a3,(1364,sp)

00001c4c <.L144>:
    1c4c:	58 28       	mov	(40,sp),d0
    1c4e:	f8 e0 01    	and	1,d0
    1c51:	c9 05       	bne	1c56 <.L0_43>
    1c53:	cc 3a 02    	jmp	1e8d <.L0_64>

00001c56 <.L0_43>:
    1c56:	f1 d8       	mov	a2,d0
    1c58:	f2 18       	or	d2,d0
    1c5a:	c9 05       	bne	1c5f <.L0_44>
    1c5c:	cc 31 02    	jmp	1e8d <.L0_64>

00001c5f <.L0_44>:
    1c5f:	80 30       	mov	48,d0
    1c61:	f8 92 7a    	movbu	d0,(122,sp)

00001c64 <.Loc.1386.1>:
    1c64:	58 54       	mov	(84,sp),d0
    1c66:	f8 92 7b    	movbu	d0,(123,sp)

00001c69 <.Loc.1387.1>:
    1c69:	59 28       	mov	(40,sp),d1
    1c6b:	f8 e5 02    	or	2,d1
    1c6e:	46 28       	mov	d1,(40,sp)

00001c70 <.LVL142>:
    1c70:	80 02       	mov	2,d0

00001c72 <.L127>:
    1c72:	04          	clr	d1

00001c73 <.LVL144>:
    1c73:	f8 96 79    	movbu	d1,(121,sp)

00001c76 <.L64>:
    1c76:	af 00       	cmp	0,d3
    1c78:	c0 0c       	blt	1c84 <.L148>

00001c7a <.Loc.1401.1>:
    1c7a:	59 28       	mov	(40,sp),d1
    1c7c:	fc e1 7f ff 	and	-129,d1
    1c80:	ff ff 
    1c82:	46 28       	mov	d1,(40,sp)

00001c84 <.L148>:
    1c84:	f1 d9       	mov	a2,d1

00001c86 <.Loc.1415.1>:
    1c86:	14          	extbu	d0

00001c87 <.Loc.1409.1>:
    1c87:	f2 19       	or	d2,d1
    1c89:	c8 05       	beq	1c8e <.L0_45>
    1c8b:	cc d4 04    	jmp	215f <.L149>

00001c8e <.L0_45>:
    1c8e:	af 00       	cmp	0,d3
    1c90:	c8 05       	beq	1c95 <.L0_46>
    1c92:	cc cd 04    	jmp	215f <.L149>

00001c95 <.L0_46>:
    1c95:	a0 00       	cmp	0,d0
    1c97:	c8 05       	beq	1c9c <.L0_47>
    1c99:	cc 0b 08    	jmp	24a4 <.L292>

00001c9c <.L0_47>:
    1c9c:	58 28       	mov	(40,sp),d0

00001c9e <.LVL147>:
    1c9e:	f8 e0 01    	and	1,d0
    1ca1:	c9 05       	bne	1ca6 <.L0_48>
    1ca3:	cc 01 08    	jmp	24a4 <.L292>

00001ca6 <.L0_48>:
    1ca6:	80 30       	mov	48,d0
    1ca8:	f8 92 cb    	movbu	d0,(203,sp)
    1cab:	9f 01       	mov	1,a3
    1cad:	4f 34       	mov	a3,(52,sp)
    1caf:	3c          	mov	sp,a0
    1cb0:	fa d0 cb 00 	add	203,a0
    1cb4:	43 40       	mov	a0,(64,sp)

00001cb6 <.L155>:
    1cb6:	5f 34       	mov	(52,sp),a3
    1cb8:	4f 30       	mov	a3,(48,sp)
    1cba:	f1 af       	cmp	d3,a3
    1cbc:	c2 04       	bge	1cc0 <.L159>
    1cbe:	4e 30       	mov	d3,(48,sp)

00001cc0 <.L159>:
    1cc0:	f8 b8 79    	movbu	(121,sp),d0

00001cc3 <.LBB15>:
    1cc3:	4e 50       	mov	d3,(80,sp)
    1cc5:	08          	clr	d2
    1cc6:	4a 60       	mov	d2,(96,sp)

00001cc8 <.L72>:
    1cc8:	14          	extbu	d0
    1cc9:	a0 00       	cmp	0,d0
    1ccb:	c9 05       	bne	1cd0 <.L0_49>
    1ccd:	cc ed fa    	jmp	17ba <.L160>

00001cd0 <.L0_49>:
    1cd0:	5c 30       	mov	(48,sp),a0
    1cd2:	41          	inc	a0
    1cd3:	43 30       	mov	a0,(48,sp)

00001cd5 <.LVL152>:
    1cd5:	cc e5 fa    	jmp	17ba <.L160>

00001cd8 <.L45>:
    1cd8:	4b 2c       	mov	a2,(44,sp)
    1cda:	4a 54       	mov	d2,(84,sp)

00001cdc <.Loc.1275.1>:
    1cdc:	00          	clr	d0
    1cdd:	f8 92 79    	movbu	d0,(121,sp)

00001ce0 <.Loc.1276.1>:
    1ce0:	fa b6 54 05 	mov	(1364,sp),d2

00001ce4 <.LVL154>:
    1ce4:	2a 04       	add	4,d2

00001ce6 <.LVL155>:
    1ce6:	fa b2 54 05 	mov	(1364,sp),a2

00001cea <.LVL156>:
    1cea:	f0 0a       	mov	(a2),a2
    1cec:	4b 40       	mov	a2,(64,sp)

00001cee <.LVL157>:
    1cee:	ba 00       	cmp	0,a2
    1cf0:	c9 05       	bne	1cf5 <.L0_50>
    1cf2:	cc e7 0f    	jmp	2cd9 <.L426>

00001cf5 <.L0_50>:
    1cf5:	af 00       	cmp	0,d3
    1cf7:	c2 05       	bge	1cfc <.L0_51>
    1cf9:	cc ea 0e    	jmp	2be3 <.L133>

00001cfc <.L0_51>:
    1cfc:	4e 0c       	mov	d3,(12,sp)
    1cfe:	58 40       	mov	(64,sp),d0
    1d00:	04          	clr	d1
    1d01:	47 24       	mov	a1,(36,sp)
    1d03:	dd 50 3a 00 	call	5753 <_memchr>,[],0
    1d07:	00 00 00 

00001d0a <.LVL158>:
    1d0a:	5d 24       	mov	(36,sp),a1
    1d0c:	b0 00       	cmp	0,a0
    1d0e:	c9 05       	bne	1d13 <.L0_52>
    1d10:	cc 13 11    	jmp	2e23 <.L427>

00001d13 <.L0_52>:
    1d13:	5e 40       	mov	(64,sp),a2

00001d15 <.LVL159>:
    1d15:	f1 38       	sub	a2,a0

00001d17 <.LVL160>:
    1d17:	43 34       	mov	a0,(52,sp)

00001d19 <.LVL161>:
    1d19:	f1 ac       	cmp	d3,a0
    1d1b:	c1 05       	bgt	1d20 <.L0_53>
    1d1d:	cc 4a 0d    	jmp	2a67 <.L136>

00001d20 <.L0_53>:
    1d20:	4e 30       	mov	d3,(48,sp)
    1d22:	f8 b8 79    	movbu	(121,sp),d0
    1d25:	4e 34       	mov	d3,(52,sp)

00001d27 <.Loc.1276.1>:
    1d27:	fa 99 54 05 	mov	d2,(1364,sp)

00001d2b <.Loc.790.1>:
    1d2b:	9f 00       	mov	0,a3
    1d2d:	4f 50       	mov	a3,(80,sp)

00001d2f <.Loc.795.1>:
    1d2f:	4f 60       	mov	a3,(96,sp)

00001d31 <.LBE16>:
    1d31:	14          	extbu	d0
    1d32:	a0 00       	cmp	0,d0
    1d34:	c9 9c       	bne	1cd0 <.L0_49>
    1d36:	cc 84 fa    	jmp	17ba <.L160>

00001d39 <.L23>:
    1d39:	f8 ba 79    	movbu	(121,sp),d2

00001d3c <.LVL164>:
    1d3c:	aa 00       	cmp	0,d2

00001d3e <.LVL165>:
    1d3e:	c8 05       	beq	1d43 <.L0_54>
    1d40:	cc 22 0c    	jmp	2962 <.L49>

00001d43 <.L0_54>:
    1d43:	f2 e2       	mov	mdr,d2

00001d45 <.LVL166>:
    1d45:	f8 9a 79    	movbu	d2,(121,sp)

00001d48 <.LVL167>:
    1d48:	f0 4a       	movbu	(a2),d2

00001d4a <.LVL168>:
    1d4a:	49          	inc	a2

00001d4b <.LVL169>:
    1d4b:	cc 3f fa    	jmp	178a <.L381>

00001d4e <.L24>:
    1d4e:	5a 28       	mov	(40,sp),d2

00001d50 <.LVL171>:
    1d50:	f8 e6 01    	or	1,d2
    1d53:	4a 28       	mov	d2,(40,sp)

00001d55 <.LVL172>:
    1d55:	f0 4a       	movbu	(a2),d2

00001d57 <.LVL173>:
    1d57:	49          	inc	a2

00001d58 <.LVL174>:
    1d58:	cc 32 fa    	jmp	178a <.L381>

00001d5b <.L29>:
    1d5b:	5a 28       	mov	(40,sp),d2

00001d5d <.LVL176>:
    1d5d:	f8 e6 80    	or	128,d2
    1d60:	4a 28       	mov	d2,(40,sp)

00001d62 <.LVL177>:
    1d62:	f0 4a       	movbu	(a2),d2

00001d64 <.LVL178>:
    1d64:	49          	inc	a2

00001d65 <.LVL179>:
    1d65:	cc 25 fa    	jmp	178a <.L381>

00001d68 <.L272>:
    1d68:	90 00       	mov	0,a0

00001d6a <.L30>:
    1d6a:	93          	mov	a0,a3
    1d6b:	f1 7f       	add	a3,a3
    1d6d:	f1 d1       	mov	a0,d1
    1d6f:	55          	asl2	d1
    1d70:	e5          	add	d1,d1
    1d71:	9c          	mov	a3,a0
    1d72:	f1 64       	add	d1,a0

00001d74 <.LVL182>:
    1d74:	2a d0       	add	-48,d2

00001d76 <.LVL183>:
    1d76:	f1 68       	add	d2,a0

00001d78 <.LVL184>:
    1d78:	f0 4a       	movbu	(a2),d2

00001d7a <.LVL185>:
    1d7a:	49          	inc	a2

00001d7b <.Loc.939.1>:
    1d7b:	f1 eb       	mov	d2,a3
    1d7d:	23 d0       	add	-48,a3
    1d7f:	bf 09       	cmp	9,a3
    1d81:	c7 e9       	bls	1d6a <.L30>

00001d83 <.Loc.937.1>:
    1d83:	43 38       	mov	a0,(56,sp)

00001d85 <.LVL187>:
    1d85:	f1 e8       	mov	d2,a0

00001d87 <.LVL188>:
    1d87:	20 e0       	add	-32,a0
    1d89:	b0 58       	cmp	88,a0
    1d8b:	c7 05       	bls	1d90 <.L0_55>
    1d8d:	cc 08 fa    	jmp	1795 <.L0_9>

00001d90 <.L0_55>:
    1d90:	cc f9 fb    	jmp	1989 <.L417>

00001d93 <.L31>:
    1d93:	4b 2c       	mov	a2,(44,sp)
    1d95:	4a 54       	mov	d2,(84,sp)

00001d97 <.Loc.1042.1>:
    1d97:	5a 28       	mov	(40,sp),d2

00001d99 <.LVL190>:
    1d99:	f8 e6 10    	or	16,d2
    1d9c:	4a 28       	mov	d2,(40,sp)

00001d9e <.LVL191>:
    1d9e:	58 28       	mov	(40,sp),d0
    1da0:	f8 e0 20    	and	32,d0
    1da3:	c9 05       	bne	1da8 <.L0_56>
    1da5:	cc 48 02    	jmp	1fed <.L0_70>

00001da8 <.L0_56>:
    1da8:	fa b2 54 05 	mov	(1364,sp),a2

00001dac <.LVL193>:
    1dac:	f8 02 04    	mov	(4,a2),d0
    1daf:	7a          	mov	(a2),d2
    1db0:	f1 e2       	mov	d0,a2
    1db2:	fa b3 54 05 	mov	(1364,sp),a3
    1db6:	23 08       	add	8,a3

00001db8 <.LVL194>:
    1db8:	fa 9c 54 05 	mov	a3,(1364,sp)

00001dbc <.L61>:
    1dbc:	a0 00       	cmp	0,d0
    1dbe:	c0 05       	blt	1dc3 <.L0_57>
    1dc0:	cc f0 06    	jmp	24b0 <.L275>

00001dc3 <.L0_57>:
    1dc3:	00          	clr	d0
    1dc4:	f1 e0       	mov	d0,a0
    1dc6:	f1 d9       	mov	a2,d1
    1dc8:	f1 28       	sub	d2,a0
    1dca:	f1 84       	subc	d1,d0
    1dcc:	f1 e2       	mov	d0,a2

00001dce <.LVL196>:
    1dce:	f1 d2       	mov	a0,d2

00001dd0 <.LVL197>:
    1dd0:	80 2d       	mov	45,d0

00001dd2 <.LVL198>:
    1dd2:	f8 92 79    	movbu	d0,(121,sp)

00001dd5 <.Loc.1057.1>:
    1dd5:	80 01       	mov	1,d0
    1dd7:	cc 9f fe    	jmp	1c76 <.L64>

00001dda <.L32>:
    1dda:	4b 2c       	mov	a2,(44,sp)
    1ddc:	4a 54       	mov	d2,(84,sp)

00001dde <.Loc.1072.1>:
    1dde:	fa b3 54 05 	mov	(1364,sp),a3
    1de2:	f0 0b       	mov	(a3),a2

00001de4 <.LVL200>:
    1de4:	f8 0b 04    	mov	(4,a3),d2

00001de7 <.LVL201>:
    1de7:	4b 58       	mov	a2,(88,sp)
    1de9:	4a 6c       	mov	d2,(108,sp)
    1deb:	23 08       	add	8,a3
    1ded:	fa 9c 54 05 	mov	a3,(1364,sp)

00001df1 <.LVL202>:
    1df1:	f1 d8       	mov	a2,d0
    1df3:	89          	mov	d2,d1
    1df4:	47 24       	mov	a1,(36,sp)
    1df6:	dd f9 43 00 	call	61ef <___fpclassifyd>,[],0
    1dfa:	00 00 00 

00001dfd <.LVL203>:
    1dfd:	5d 24       	mov	(36,sp),a1
    1dff:	a0 01       	cmp	1,d0
    1e01:	c8 05       	beq	1e06 <.L0_58>
    1e03:	cc 69 09    	jmp	276c <.L68>

00001e06 <.L0_58>:
    1e06:	00          	clr	d0
    1e07:	42 0c       	mov	d0,(12,sp)
    1e09:	42 10       	mov	d0,(16,sp)
    1e0b:	f1 d8       	mov	a2,d0
    1e0d:	89          	mov	d2,d1
    1e0e:	dd 66 70 00 	call	8e74 <___ltdf2>,[],0
    1e12:	00 00 00 
    1e15:	5d 24       	mov	(36,sp),a1
    1e17:	a0 00       	cmp	0,d0
    1e19:	c2 05       	bge	1e1e <.L0_59>
    1e1b:	cc 4c 0f    	jmp	2d67 <.L69>

00001e1e <.L0_59>:
    1e1e:	f8 b8 79    	movbu	(121,sp),d0

00001e21 <.Loc.1086.1>:
    1e21:	5a 54       	mov	(84,sp),d2
    1e23:	aa 47       	cmp	71,d2
    1e25:	c3 05       	ble	1e2a <.L0_60>
    1e27:	cc 63 0c    	jmp	2a8a <.L276>

00001e2a <.L0_60>:
    1e2a:	fc de 5e 95 	mov	38238,a2
    1e2e:	00 00 
    1e30:	4b 40       	mov	a2,(64,sp)

00001e32 <.LVL205>:
    1e32:	5a 28       	mov	(40,sp),d2
    1e34:	fc e2 7f ff 	and	-129,d2
    1e38:	ff ff 
    1e3a:	4a 28       	mov	d2,(40,sp)

00001e3c <.L404>:
    1e3c:	90 03       	mov	3,a0
    1e3e:	43 30       	mov	a0,(48,sp)

00001e40 <.Loc.1099.1>:
    1e40:	43 34       	mov	a0,(52,sp)

00001e42 <.Loc.790.1>:
    1e42:	9a 00       	mov	0,a2

00001e44 <.LVL207>:
    1e44:	4b 50       	mov	a2,(80,sp)

00001e46 <.Loc.795.1>:
    1e46:	4b 60       	mov	a2,(96,sp)

00001e48 <.L453>:
    1e48:	14          	extbu	d0
    1e49:	a0 00       	cmp	0,d0
    1e4b:	c8 05       	beq	1e50 <.L0_61>
    1e4d:	cc 83 fe    	jmp	1cd0 <.L0_49>

00001e50 <.L0_61>:
    1e50:	cc 6a f9    	jmp	17ba <.L160>

00001e53 <.L273>:
    1e53:	4b 2c       	mov	a2,(44,sp)
    1e55:	4a 54       	mov	d2,(84,sp)

00001e57 <.Loc.1377.1>:
    1e57:	fc de 6e 95 	mov	38254,a2
    1e5b:	00 00 

00001e5d <.LVL210>:
    1e5d:	4b 74       	mov	a2,(116,sp)

00001e5f <.LVL211>:
    1e5f:	58 28       	mov	(40,sp),d0
    1e61:	f8 e0 20    	and	32,d0
    1e64:	c8 05       	beq	1e69 <.L0_62>
    1e66:	cc d8 fd    	jmp	1c3e <.L0_42>

00001e69 <.L0_62>:
    1e69:	59 28       	mov	(40,sp),d1
    1e6b:	f8 e1 10    	and	16,d1
    1e6e:	c9 05       	bne	1e73 <.L0_63>
    1e70:	cc 39 0a    	jmp	28a9 <.L145>

00001e73 <.L0_63>:
    1e73:	fa b2 54 05 	mov	(1364,sp),a2

00001e77 <.L146>:
    1e77:	7a          	mov	(a2),d2
    1e78:	f1 e2       	mov	d0,a2
    1e7a:	fa b3 54 05 	mov	(1364,sp),a3
    1e7e:	53          	inc4	a3

00001e7f <.LVL215>:
    1e7f:	fa 9c 54 05 	mov	a3,(1364,sp)

00001e83 <.LVL216>:
    1e83:	58 28       	mov	(40,sp),d0

00001e85 <.LVL217>:
    1e85:	f8 e0 01    	and	1,d0
    1e88:	c8 05       	beq	1e8d <.L0_64>
    1e8a:	cc cc fd    	jmp	1c56 <.L0_43>

00001e8d <.L0_64>:
    1e8d:	80 02       	mov	2,d0

00001e8f <.LVL219>:
    1e8f:	04          	clr	d1
    1e90:	f8 96 79    	movbu	d1,(121,sp)
    1e93:	cc e3 fd    	jmp	1c76 <.L64>

00001e96 <.L37>:
    1e96:	4b 2c       	mov	a2,(44,sp)
    1e98:	4a 54       	mov	d2,(84,sp)

00001e9a <.LVL221>:
    1e9a:	fa b2 54 05 	mov	(1364,sp),a2

00001e9e <.LVL222>:
    1e9e:	72          	mov	(a2),d0
    1e9f:	f8 92 a4    	movbu	d0,(164,sp)

00001ea2 <.LVL223>:
    1ea2:	00          	clr	d0
    1ea3:	f8 92 79    	movbu	d0,(121,sp)

00001ea6 <.Loc.1036.1>:
    1ea6:	52          	inc4	a2

00001ea7 <.LVL224>:
    1ea7:	fa 98 54 05 	mov	a2,(1364,sp)

00001eab <.Loc.1040.1>:
    1eab:	9f 01       	mov	1,a3
    1ead:	4f 30       	mov	a3,(48,sp)

00001eaf <.Loc.1037.1>:
    1eaf:	4f 34       	mov	a3,(52,sp)

00001eb1 <.Loc.1020.1>:
    1eb1:	3e          	mov	sp,a2

00001eb2 <.LVL225>:
    1eb2:	fa d2 a4 00 	add	164,a2
    1eb6:	4b 40       	mov	a2,(64,sp)

00001eb8 <.LVL226>:
    1eb8:	9a 00       	mov	0,a2

00001eba <.LVL227>:
    1eba:	4b 50       	mov	a2,(80,sp)
    1ebc:	4b 60       	mov	a2,(96,sp)
    1ebe:	cc fc f8    	jmp	17ba <.L160>

00001ec1 <.L44>:
    1ec1:	5a 28       	mov	(40,sp),d2

00001ec3 <.LVL229>:
    1ec3:	f8 e6 20    	or	32,d2
    1ec6:	4a 28       	mov	d2,(40,sp)

00001ec8 <.LVL230>:
    1ec8:	f0 4a       	movbu	(a2),d2

00001eca <.LVL231>:
    1eca:	49          	inc	a2

00001ecb <.LVL232>:
    1ecb:	cc bf f8    	jmp	178a <.L381>

00001ece <.L33>:
    1ece:	5a 28       	mov	(40,sp),d2

00001ed0 <.LVL234>:
    1ed0:	f8 e6 08    	or	8,d2
    1ed3:	4a 28       	mov	d2,(40,sp)

00001ed5 <.LVL235>:
    1ed5:	f0 4a       	movbu	(a2),d2

00001ed7 <.LVL236>:
    1ed7:	49          	inc	a2

00001ed8 <.LVL237>:
    1ed8:	cc b2 f8    	jmp	178a <.L381>

00001edb <.L34>:
    1edb:	4b 2c       	mov	a2,(44,sp)
    1edd:	4a 54       	mov	d2,(84,sp)

00001edf <.Loc.1246.1>:
    1edf:	5a 28       	mov	(40,sp),d2

00001ee1 <.LVL239>:
    1ee1:	f8 e6 10    	or	16,d2
    1ee4:	4a 28       	mov	d2,(40,sp)

00001ee6 <.LVL240>:
    1ee6:	58 28       	mov	(40,sp),d0
    1ee8:	f8 e0 20    	and	32,d0
    1eeb:	c9 05       	bne	1ef0 <.L0_65>
    1eed:	cc 60 01    	jmp	204d <.L0_74>

00001ef0 <.L0_65>:
    1ef0:	fa b2 54 05 	mov	(1364,sp),a2

00001ef4 <.LVL242>:
    1ef4:	7a          	mov	(a2),d2
    1ef5:	f8 2a 04    	mov	(4,a2),a2
    1ef8:	fa b3 54 05 	mov	(1364,sp),a3
    1efc:	23 08       	add	8,a3

00001efe <.LVL243>:
    1efe:	fa 9c 54 05 	mov	a3,(1364,sp)

00001f02 <.Loc.1250.1>:
	...

00001f03 <.LVL244>:
    1f03:	04          	clr	d1
    1f04:	f8 96 79    	movbu	d1,(121,sp)
    1f07:	cc 6f fd    	jmp	1c76 <.L64>

00001f0a <.L35>:
    1f0a:	4b 2c       	mov	a2,(44,sp)
    1f0c:	4a 54       	mov	d2,(84,sp)

00001f0e <.Loc.1370.1>:
    1f0e:	5a 28       	mov	(40,sp),d2

00001f10 <.LVL246>:
    1f10:	f8 e6 10    	or	16,d2
    1f13:	4a 28       	mov	d2,(40,sp)

00001f15 <.LVL247>:
    1f15:	58 28       	mov	(40,sp),d0
    1f17:	f8 e0 20    	and	32,d0
    1f1a:	c9 05       	bne	1f1f <.L0_66>
    1f1c:	cc 00 01    	jmp	201c <.L0_72>

00001f1f <.L0_66>:
    1f1f:	fa b2 54 05 	mov	(1364,sp),a2

00001f23 <.LVL249>:
    1f23:	7a          	mov	(a2),d2
    1f24:	f8 2a 04    	mov	(4,a2),a2
    1f27:	fa b3 54 05 	mov	(1364,sp),a3
    1f2b:	23 08       	add	8,a3

00001f2d <.LVL250>:
    1f2d:	fa 9c 54 05 	mov	a3,(1364,sp)

00001f31 <.Loc.1374.1>:
    1f31:	80 01       	mov	1,d0

00001f33 <.LVL251>:
    1f33:	04          	clr	d1
    1f34:	f8 96 79    	movbu	d1,(121,sp)
    1f37:	cc 3f fd    	jmp	1c76 <.L64>

00001f3a <.L25>:
    1f3a:	fa b0 54 05 	mov	(1364,sp),a0
    1f3e:	50          	inc4	a0

00001f3f <.LVL253>:
    1f3f:	fa b3 54 05 	mov	(1364,sp),a3
    1f43:	f0 0f       	mov	(a3),a3
    1f45:	4f 38       	mov	a3,(56,sp)

00001f47 <.LVL254>:
    1f47:	bf 00       	cmp	0,a3
    1f49:	c2 05       	bge	1f4e <.L0_67>
    1f4b:	cc 22 fb    	jmp	1a6d <.L51>

00001f4e <.L0_67>:
    1f4e:	fa 90 54 05 	mov	a0,(1364,sp)
    1f52:	f0 4a       	movbu	(a2),d2

00001f54 <.Loc.805.1>:
    1f54:	49          	inc	a2

00001f55 <.LVL256>:
    1f55:	cc 35 f8    	jmp	178a <.L381>

00001f58 <.L41>:
    1f58:	4b 2c       	mov	a2,(44,sp)

00001f5a <.Loc.1230.1>:
    1f5a:	58 28       	mov	(40,sp),d0
    1f5c:	f8 e0 20    	and	32,d0
    1f5f:	c9 05       	bne	1f64 <.L0_68>
    1f61:	cc d0 09    	jmp	2931 <.L122>

00001f64 <.L0_68>:
    1f64:	fa b2 54 05 	mov	(1364,sp),a2

00001f68 <.LVL259>:
    1f68:	f0 02       	mov	(a2),a0
    1f6a:	5a 3c       	mov	(60,sp),d2

00001f6c <.LVL260>:
    1f6c:	68          	mov	d2,(a0)
    1f6d:	88          	mov	d2,d0
    1f6e:	f8 c8 1f    	asr	31,d0
    1f71:	f8 10 04    	mov	d0,(4,a0)
    1f74:	52          	inc4	a2

00001f75 <.LVL261>:
    1f75:	fa 98 54 05 	mov	a2,(1364,sp)
    1f79:	cc a4 f7    	jmp	171d <.L382>

00001f7c <.L43>:
    1f7c:	4b 2c       	mov	a2,(44,sp)

00001f7e <.LVL263>:
    1f7e:	fa b2 54 05 	mov	(1364,sp),a2

00001f82 <.LVL264>:
    1f82:	7a          	mov	(a2),d2

00001f83 <.LVL265>:
    1f83:	9a 00       	mov	0,a2

00001f85 <.LVL266>:
    1f85:	58 28       	mov	(40,sp),d0
    1f87:	f8 e4 02    	or	2,d0
    1f8a:	42 28       	mov	d0,(40,sp)

00001f8c <.LVL267>:
    1f8c:	80 30       	mov	48,d0

00001f8e <.LVL268>:
    1f8e:	f8 92 7a    	movbu	d0,(122,sp)

00001f91 <.LVL269>:
    1f91:	80 78       	mov	120,d0
    1f93:	f8 92 7b    	movbu	d0,(123,sp)

00001f96 <.Loc.1264.1>:
    1f96:	fa b3 54 05 	mov	(1364,sp),a3
    1f9a:	53          	inc4	a3

00001f9b <.LVL270>:
    1f9b:	fa 9c 54 05 	mov	a3,(1364,sp)

00001f9f <.Loc.1266.1>:
    1f9f:	fc cc 7f 95 	mov	38271,d0
    1fa3:	00 00 
    1fa5:	42 74       	mov	d0,(116,sp)

00001fa7 <.Loc.1265.1>:
    1fa7:	80 02       	mov	2,d0

00001fa9 <.Loc.1269.1>:
    1fa9:	85 78       	mov	120,d1
    1fab:	46 54       	mov	d1,(84,sp)

00001fad <.LVL271>:
    1fad:	04          	clr	d1

00001fae <.LVL272>:
    1fae:	f8 96 79    	movbu	d1,(121,sp)
    1fb1:	cc c5 fc    	jmp	1c76 <.L64>

00001fb4 <.L39>:
    1fb4:	5a 28       	mov	(40,sp),d2

00001fb6 <.LVL274>:
    1fb6:	f8 e6 40    	or	64,d2
    1fb9:	4a 28       	mov	d2,(40,sp)

00001fbb <.LVL275>:
    1fbb:	f0 4a       	movbu	(a2),d2

00001fbd <.LVL276>:
    1fbd:	49          	inc	a2

00001fbe <.LVL277>:
    1fbe:	cc cc f7    	jmp	178a <.L381>

00001fc1 <.L40>:
    1fc1:	98          	mov	a2,a0

00001fc2 <.Loc.969.1>:
    1fc2:	f0 4a       	movbu	(a2),d2

00001fc4 <.LVL279>:
    1fc4:	aa 6c       	cmp	108,d2
    1fc6:	c9 05       	bne	1fcb <.L0_69>
    1fc8:	cc d7 0b    	jmp	2b9f <.L430>

00001fcb <.L0_69>:
    1fcb:	59 28       	mov	(40,sp),d1
    1fcd:	f8 e5 10    	or	16,d1
    1fd0:	46 28       	mov	d1,(40,sp)

00001fd2 <.LVL281>:
    1fd2:	49          	inc	a2
    1fd3:	cc b7 f7    	jmp	178a <.L381>

00001fd6 <.L26>:
    1fd6:	f8 92 79    	movbu	d0,(121,sp)
    1fd9:	f0 4a       	movbu	(a2),d2

00001fdb <.Loc.805.1>:
    1fdb:	49          	inc	a2

00001fdc <.LVL284>:
    1fdc:	cc ae f7    	jmp	178a <.L381>

00001fdf <.L397>:
    1fdf:	4b 2c       	mov	a2,(44,sp)
    1fe1:	4a 54       	mov	d2,(84,sp)

00001fe3 <.Loc.1046.1>:
    1fe3:	58 28       	mov	(40,sp),d0
    1fe5:	f8 e0 20    	and	32,d0
    1fe8:	c8 05       	beq	1fed <.L0_70>
    1fea:	cc be fd    	jmp	1da8 <.L0_56>

00001fed <.L0_70>:
    1fed:	58 28       	mov	(40,sp),d0
    1fef:	f8 e0 10    	and	16,d0
    1ff2:	c9 05       	bne	1ff7 <.L0_71>
    1ff4:	cc f6 08    	jmp	28ea <.L62>

00001ff7 <.L0_71>:
    1ff7:	fa b2 54 05 	mov	(1364,sp),a2

00001ffb <.L63>:
    1ffb:	7a          	mov	(a2),d2
    1ffc:	88          	mov	d2,d0
    1ffd:	f8 c8 1f    	asr	31,d0
    2000:	f1 e2       	mov	d0,a2
    2002:	fa b3 54 05 	mov	(1364,sp),a3
    2006:	53          	inc4	a3

00002007 <.LVL289>:
    2007:	fa 9c 54 05 	mov	a3,(1364,sp)
    200b:	cc b1 fd    	jmp	1dbc <.L61>

0000200e <.L399>:
    200e:	4b 2c       	mov	a2,(44,sp)
    2010:	4a 54       	mov	d2,(84,sp)

00002012 <.Loc.1373.1>:
    2012:	58 28       	mov	(40,sp),d0
    2014:	f8 e0 20    	and	32,d0
    2017:	c8 05       	beq	201c <.L0_72>
    2019:	cc 06 ff    	jmp	1f1f <.L0_66>

0000201c <.L0_72>:
    201c:	59 28       	mov	(40,sp),d1
    201e:	f8 e1 10    	and	16,d1
    2021:	c9 05       	bne	2026 <.L0_73>
    2023:	cc ea 08    	jmp	290d <.L141>

00002026 <.L0_73>:
    2026:	fa b2 54 05 	mov	(1364,sp),a2

0000202a <.L142>:
    202a:	7a          	mov	(a2),d2
    202b:	f1 e2       	mov	d0,a2
    202d:	fa b3 54 05 	mov	(1364,sp),a3
    2031:	53          	inc4	a3

00002032 <.LVL294>:
    2032:	fa 9c 54 05 	mov	a3,(1364,sp)

00002036 <.Loc.1374.1>:
    2036:	80 01       	mov	1,d0

00002038 <.LVL295>:
    2038:	04          	clr	d1
    2039:	f8 96 79    	movbu	d1,(121,sp)
    203c:	cc 3a fc    	jmp	1c76 <.L64>

0000203f <.L398>:
    203f:	4b 2c       	mov	a2,(44,sp)
    2041:	4a 54       	mov	d2,(84,sp)

00002043 <.Loc.1249.1>:
    2043:	58 28       	mov	(40,sp),d0
    2045:	f8 e0 20    	and	32,d0
    2048:	c8 05       	beq	204d <.L0_74>
    204a:	cc a6 fe    	jmp	1ef0 <.L0_65>

0000204d <.L0_74>:
    204d:	59 28       	mov	(40,sp),d1
    204f:	f8 e1 10    	and	16,d1
    2052:	c9 05       	bne	2057 <.L0_75>
    2054:	cc 73 08    	jmp	28c7 <.L128>

00002057 <.L0_75>:
    2057:	fa b2 54 05 	mov	(1364,sp),a2

0000205b <.L129>:
    205b:	7a          	mov	(a2),d2
    205c:	f1 e2       	mov	d0,a2
    205e:	fa b3 54 05 	mov	(1364,sp),a3
    2062:	53          	inc4	a3

00002063 <.LVL300>:
    2063:	fa 9c 54 05 	mov	a3,(1364,sp)

00002067 <.LVL301>:
    2067:	04          	clr	d1
    2068:	f8 96 79    	movbu	d1,(121,sp)
    206b:	cc 0b fc    	jmp	1c76 <.L64>

0000206e <.L180>:
    206e:	3c          	mov	sp,a0
    206f:	fa d0 98 00 	add	152,a0
    2073:	43 0c       	mov	a0,(12,sp)
    2075:	fa b4 48 05 	mov	(1352,sp),d0

00002079 <.LVL303>:
    2079:	fa b5 4c 05 	mov	(1356,sp),d1
    207d:	47 24       	mov	a1,(36,sp)
    207f:	dd 97 43 00 	call	6416 <___sprint_r>,[],0
    2083:	00 00 00 

00002086 <.LVL304>:
    2086:	5d 24       	mov	(36,sp),a1
    2088:	a0 00       	cmp	0,d0
    208a:	c8 05       	beq	208f <.L0_76>
    208c:	cc 15 fa    	jmp	1aa1 <.L18>

0000208f <.L0_76>:
    208f:	3e          	mov	sp,a2

00002090 <.LVL305>:
    2090:	fa d2 34 01 	add	308,a2
    2094:	59 a0       	mov	(160,sp),d1
    2096:	5a 9c       	mov	(156,sp),d2

00002098 <.LVL306>:
    2098:	2b f0       	add	-16,d3
    209a:	af 10       	cmp	16,d3
    209c:	c3 05       	ble	20a1 <.L0_77>
    209e:	cc 02 f8    	jmp	18a0 <.L182>

000020a1 <.L0_77>:
    20a1:	cc 1a f8    	jmp	18bb <.L434>

000020a4 <.L164>:
    20a4:	3c          	mov	sp,a0
    20a5:	fa d0 98 00 	add	152,a0
    20a9:	43 0c       	mov	a0,(12,sp)
    20ab:	8c          	mov	d3,d0
    20ac:	fa b5 4c 05 	mov	(1356,sp),d1
    20b0:	dd 66 43 00 	call	6416 <___sprint_r>,[],0
    20b4:	00 00 00 

000020b7 <.LVL309>:
    20b7:	a0 00       	cmp	0,d0
    20b9:	c8 05       	beq	20be <.L0_78>
    20bb:	cc e6 f9    	jmp	1aa1 <.L18>

000020be <.L0_78>:
    20be:	3d          	mov	sp,a1
    20bf:	fa d1 34 01 	add	308,a1
    20c3:	58 a0       	mov	(160,sp),d0
    20c5:	5a 9c       	mov	(156,sp),d2

000020c7 <.LVL310>:
    20c7:	23 f0       	add	-16,a3
    20c9:	bf 10       	cmp	16,a3
    20cb:	c3 05       	ble	20d0 <.L0_79>
    20cd:	cc 30 f7    	jmp	17fd <.L166>

000020d0 <.L0_79>:
    20d0:	cc 4d f7    	jmp	181d <.L435>

000020d3 <.L258>:
    20d3:	3c          	mov	sp,a0
    20d4:	fa d0 98 00 	add	152,a0
    20d8:	43 0c       	mov	a0,(12,sp)
    20da:	8c          	mov	d3,d0
    20db:	fa b5 4c 05 	mov	(1356,sp),d1
    20df:	dd 37 43 00 	call	6416 <___sprint_r>,[],0
    20e3:	00 00 00 

000020e6 <.LVL313>:
    20e6:	a0 00       	cmp	0,d0
    20e8:	c8 05       	beq	20ed <.L0_80>
    20ea:	cc b7 f9    	jmp	1aa1 <.L18>

000020ed <.L0_80>:
    20ed:	3d          	mov	sp,a1
    20ee:	fa d1 34 01 	add	308,a1
    20f2:	58 a0       	mov	(160,sp),d0
    20f4:	5a 9c       	mov	(156,sp),d2

000020f6 <.LVL314>:
    20f6:	23 f0       	add	-16,a3
    20f8:	bf 10       	cmp	16,a3
    20fa:	c3 05       	ble	20ff <.L0_81>
    20fc:	cc 29 f8    	jmp	1925 <.L260>

000020ff <.L0_81>:
    20ff:	cc 46 f8    	jmp	1945 <.L436>

00002102 <.L174>:
    2102:	3e          	mov	sp,a2

00002103 <.LVL317>:
    2103:	fa d2 98 00 	add	152,a2
    2107:	4b 0c       	mov	a2,(12,sp)
    2109:	fa b4 48 05 	mov	(1352,sp),d0

0000210d <.LVL318>:
    210d:	fa b5 4c 05 	mov	(1356,sp),d1
    2111:	47 24       	mov	a1,(36,sp)
    2113:	dd 03 43 00 	call	6416 <___sprint_r>,[],0
    2117:	00 00 00 

0000211a <.LVL319>:
    211a:	5d 24       	mov	(36,sp),a1
    211c:	a0 00       	cmp	0,d0
    211e:	c8 05       	beq	2123 <.L0_82>
    2120:	cc 81 f9    	jmp	1aa1 <.L18>

00002123 <.L0_82>:
    2123:	3e          	mov	sp,a2
    2124:	fa d2 34 01 	add	308,a2
    2128:	59 a0       	mov	(160,sp),d1
    212a:	5a 9c       	mov	(156,sp),d2

0000212c <.LVL320>:
    212c:	2b f0       	add	-16,d3
    212e:	af 10       	cmp	16,d3
    2130:	c3 05       	ble	2135 <.L0_83>
    2132:	cc d2 f9    	jmp	1b04 <.L176>

00002135 <.L0_83>:
    2135:	cc ea f9    	jmp	1b1f <.L437>

00002138 <.L167>:
    2138:	3c          	mov	sp,a0
    2139:	fa d0 98 00 	add	152,a0
    213d:	43 0c       	mov	a0,(12,sp)
    213f:	fa b4 48 05 	mov	(1352,sp),d0
    2143:	fa b5 4c 05 	mov	(1356,sp),d1
    2147:	dd cf 42 00 	call	6416 <___sprint_r>,[],0
    214b:	00 00 00 

0000214e <.LVL323>:
    214e:	a0 00       	cmp	0,d0
    2150:	c8 05       	beq	2155 <.L0_84>
    2152:	cc 4f f9    	jmp	1aa1 <.L18>

00002155 <.L0_84>:
    2155:	3d          	mov	sp,a1
    2156:	fa d1 34 01 	add	308,a1

0000215a <.L405>:
    215a:	5b a0       	mov	(160,sp),d3
    215c:	cc d9 f6    	jmp	1835 <.L162>

0000215f <.L149>:
    215f:	a0 01       	cmp	1,d0
    2161:	c9 05       	bne	2166 <.L0_85>
    2163:	cc d9 02    	jmp	243c <.L152>

00002166 <.L0_85>:
    2166:	3c          	mov	sp,a0
    2167:	fa d0 cc 00 	add	204,a0
    216b:	43 40       	mov	a0,(64,sp)

0000216d <.Loc.1415.1>:
    216d:	a0 02       	cmp	2,d0
    216f:	c9 05       	bne	2174 <.L0_86>
    2171:	cc 41 01    	jmp	22b2 <.L288>

00002174 <.L0_86>:
    2174:	f1 d9       	mov	a2,d1
    2176:	f1 ee       	mov	d3,a2

00002178 <.L151>:
    2178:	20 ff       	add	-1,a0
    217a:	88          	mov	d2,d0
    217b:	f8 e0 07    	and	7,d0
    217e:	28 30       	add	48,d0
    2180:	83          	mov	d0,d3
    2181:	f0 50       	movbu	d0,(a0)

00002183 <.Loc.1419.1>:
    2183:	84          	mov	d1,d0
    2184:	f8 c0 1d    	asl	29,d0
    2187:	f8 c6 03    	lsr	3,d2

0000218a <.LVL328>:
    218a:	f2 12       	or	d0,d2
    218c:	f8 c5 03    	lsr	3,d1

0000218f <.LVL329>:
    218f:	88          	mov	d2,d0
    2190:	f2 14       	or	d1,d0
    2192:	c9 e6       	bne	2178 <.L151>
    2194:	43 40       	mov	a0,(64,sp)
    2196:	8d          	mov	d3,d1

00002197 <.LVL330>:
    2197:	f1 db       	mov	a2,d3

00002199 <.Loc.1422.1>:
    2199:	58 28       	mov	(40,sp),d0
    219b:	f8 e0 01    	and	1,d0
    219e:	c9 05       	bne	21a3 <.L0_87>
    21a0:	cc 36 01    	jmp	22d6 <.L403>

000021a3 <.L0_87>:
    21a3:	15          	extbu	d1
    21a4:	a5 30       	cmp	48,d1
    21a6:	c9 05       	bne	21ab <.L0_88>
    21a8:	cc 2d 0a    	jmp	2bd5 <.L438>

000021ab <.L0_88>:
    21ab:	5e 40       	mov	(64,sp),a2
    21ad:	22 ff       	add	-1,a2
    21af:	4b 40       	mov	a2,(64,sp)

000021b1 <.LVL332>:
    21b1:	80 30       	mov	48,d0
    21b3:	f8 50 ff    	movbu	d0,(-1,a0)

000021b6 <.Loc.1408.1>:
    21b6:	3c          	mov	sp,a0
    21b7:	fa d0 cc 00 	add	204,a0
    21bb:	f1 38       	sub	a2,a0
    21bd:	43 34       	mov	a0,(52,sp)
    21bf:	cc f7 fa    	jmp	1cb6 <.L155>

000021c2 <.L184>:
    21c2:	5a 54       	mov	(84,sp),d2
    21c4:	aa 65       	cmp	101,d2
    21c6:	c1 05       	bgt	21cb <.L0_89>
    21c8:	cc 1a 01    	jmp	22e2 <.L187>

000021cb <.L0_89>:
    21cb:	00          	clr	d0
    21cc:	42 0c       	mov	d0,(12,sp)
    21ce:	42 10       	mov	d0,(16,sp)
    21d0:	58 58       	mov	(88,sp),d0
    21d2:	59 6c       	mov	(108,sp),d1
    21d4:	47 24       	mov	a1,(36,sp)
    21d6:	dd 4a 6b 00 	call	8d20 <___eqdf2>,[],0
    21da:	00 00 00 

000021dd <.LVL334>:
    21dd:	5d 24       	mov	(36,sp),a1

000021df <.LVL335>:
    21df:	a0 00       	cmp	0,d0
    21e1:	c8 05       	beq	21e6 <.L0_90>
    21e3:	cc d2 02    	jmp	24b5 <.L388>

000021e6 <.L0_90>:
    21e6:	fc cc 97 95 	mov	38295,d0
    21ea:	00 00 
    21ec:	61          	mov	d0,(a1)
    21ed:	80 01       	mov	1,d0
    21ef:	f8 11 04    	mov	d0,(4,a1)
    21f2:	e3          	add	d0,d3
    21f3:	4e a0       	mov	d3,(160,sp)

000021f5 <.LVL336>:
    21f5:	58 9c       	mov	(156,sp),d0
    21f7:	40          	inc	d0
    21f8:	42 9c       	mov	d0,(156,sp)
    21fa:	a0 07       	cmp	7,d0
    21fc:	c3 05       	ble	2201 <.L0_91>
    21fe:	cc 6a 07    	jmp	2968 <.L190>

00002201 <.L0_91>:
    2201:	21 08       	add	8,a1

00002203 <.L191>:
    2203:	58 7c       	mov	(124,sp),d0
    2205:	5e 4c       	mov	(76,sp),a2
    2207:	f1 98       	cmp	a2,d0
    2209:	c0 0c       	blt	2215 <.L0_92>

0000220b <.Loc.1547.1>:
    220b:	58 28       	mov	(40,sp),d0
    220d:	f8 e0 01    	and	1,d0
    2210:	c9 05       	bne	2215 <.L0_92>
    2212:	cc e9 f6    	jmp	18fb <.L186>

00002215 <.L0_92>:
    2215:	5f 5c       	mov	(92,sp),a3
    2217:	f0 1d       	mov	a3,(a1)
    2219:	5a 68       	mov	(104,sp),d2
    221b:	f8 19 04    	mov	d2,(4,a1)
    221e:	eb          	add	d2,d3
    221f:	4e a0       	mov	d3,(160,sp)

00002221 <.LVL338>:
    2221:	58 9c       	mov	(156,sp),d0
    2223:	40          	inc	d0
    2224:	42 9c       	mov	d0,(156,sp)
    2226:	a0 07       	cmp	7,d0
    2228:	c3 05       	ble	222d <.L0_93>
    222a:	cc 84 09    	jmp	2bae <.L193>

0000222d <.L0_93>:
    222d:	21 08       	add	8,a1

0000222f <.L194>:
    222f:	5e 4c       	mov	(76,sp),a2
    2231:	22 ff       	add	-1,a2

00002233 <.LVL340>:
    2233:	ba 00       	cmp	0,a2
    2235:	c1 05       	bgt	223a <.L0_94>
    2237:	cc c4 f6    	jmp	18fb <.L186>

0000223a <.L0_94>:
    223a:	5a 9c       	mov	(156,sp),d2
    223c:	fc dc 10 97 	mov	38672,a0
    2240:	00 00 

00002242 <.Loc.1549.1>:
    2242:	ba 10       	cmp	16,a2
    2244:	c3 26       	ble	226a <.L195>

00002246 <.Loc.1549.1>:
    2246:	9f 10       	mov	16,a3
    2248:	8d          	mov	d3,d1
    2249:	f1 db       	mov	a2,d3
    224b:	96          	mov	a1,a2

0000224c <.LVL341>:
    224c:	91          	mov	a0,a1

0000224d <.L198>:
    224d:	f0 16       	mov	a1,(a2)
    224f:	f8 3e 04    	mov	a3,(4,a2)
    2252:	29 10       	add	16,d1
    2254:	46 a0       	mov	d1,(160,sp)

00002256 <.LVL343>:
    2256:	48          	inc	d2
    2257:	4a 9c       	mov	d2,(156,sp)
    2259:	aa 07       	cmp	7,d2
    225b:	c1 25       	bgt	2280 <.L196>

0000225d <.Loc.1549.1>:
    225d:	22 08       	add	8,a2

0000225f <.LVL344>:
    225f:	2b f0       	add	-16,d3
    2261:	af 10       	cmp	16,d3
    2263:	c1 ea       	bgt	224d <.L198>

00002265 <.L439>:
    2265:	94          	mov	a1,a0
    2266:	99          	mov	a2,a1
    2267:	f1 ee       	mov	d3,a2

00002269 <.LVL346>:
    2269:	87          	mov	d1,d3

0000226a <.L195>:
    226a:	f0 11       	mov	a0,(a1)
    226c:	f8 39 04    	mov	a2,(4,a1)
    226f:	f1 5b       	add	a2,d3

00002271 <.Loc.1556.1>:
    2271:	4e a0       	mov	d3,(160,sp)

00002273 <.LVL348>:
    2273:	48          	inc	d2
    2274:	4a 9c       	mov	d2,(156,sp)
    2276:	aa 07       	cmp	7,d2
    2278:	c1 05       	bgt	227d <.L0_95>
    227a:	cc 7f f6    	jmp	18f9 <.L0_22>

0000227d <.L0_95>:
    227d:	cc 24 f9    	jmp	1ba1 <.L0_36>

00002280 <.L196>:
    2280:	3e          	mov	sp,a2

00002281 <.LVL350>:
    2281:	fa d2 98 00 	add	152,a2
    2285:	4b 0c       	mov	a2,(12,sp)
    2287:	fa b4 48 05 	mov	(1352,sp),d0
    228b:	fa b5 4c 05 	mov	(1356,sp),d1
    228f:	47 24       	mov	a1,(36,sp)
    2291:	dd 85 41 00 	call	6416 <___sprint_r>,[],0
    2295:	00 00 00 

00002298 <.LVL351>:
    2298:	5d 24       	mov	(36,sp),a1
    229a:	a0 00       	cmp	0,d0
    229c:	c8 05       	beq	22a1 <.L0_96>
    229e:	cc 03 f8    	jmp	1aa1 <.L18>

000022a1 <.L0_96>:
    22a1:	3e          	mov	sp,a2
    22a2:	fa d2 34 01 	add	308,a2
    22a6:	59 a0       	mov	(160,sp),d1
    22a8:	5a 9c       	mov	(156,sp),d2

000022aa <.LVL352>:
    22aa:	2b f0       	add	-16,d3
    22ac:	af 10       	cmp	16,d3
    22ae:	c1 9f       	bgt	224d <.L198>
    22b0:	ca b5       	bra	2265 <.L439>

000022b2 <.L288>:
    22b2:	f1 d8       	mov	a2,d0

000022b4 <.LVL355>:
    22b4:	5e 74       	mov	(116,sp),a2

000022b6 <.L153>:
    22b6:	20 ff       	add	-1,a0
    22b8:	89          	mov	d2,d1
    22b9:	f8 e1 0f    	and	15,d1
    22bc:	9b          	mov	a2,a3
    22bd:	f1 67       	add	d1,a3
    22bf:	f0 47       	movbu	(a3),d1
    22c1:	f0 54       	movbu	d1,(a0)

000022c3 <.Loc.1464.1>:
    22c3:	81          	mov	d0,d1
    22c4:	f8 c1 1c    	asl	28,d1
    22c7:	f8 c6 04    	lsr	4,d2

000022ca <.LVL358>:
    22ca:	f2 16       	or	d1,d2
    22cc:	f8 c4 04    	lsr	4,d0

000022cf <.LVL359>:
    22cf:	89          	mov	d2,d1
    22d0:	f2 11       	or	d0,d1
    22d2:	c9 e4       	bne	22b6 <.L153>
    22d4:	43 40       	mov	a0,(64,sp)

000022d6 <.L403>:
    22d6:	3e          	mov	sp,a2
    22d7:	fa d2 cc 00 	add	204,a2
    22db:	f1 32       	sub	a0,a2
    22dd:	4b 34       	mov	a2,(52,sp)
    22df:	cc d7 f9    	jmp	1cb6 <.L155>

000022e2 <.L187>:
    22e2:	5f 4c       	mov	(76,sp),a3

000022e4 <.Loc.1588.1>:
    22e4:	5e 40       	mov	(64,sp),a2

000022e6 <.Loc.1587.1>:
    22e6:	bf 01       	cmp	1,a3
    22e8:	c1 05       	bgt	22ed <.L0_97>
    22ea:	cc 83 00    	jmp	236d <.L440>

000022ed <.L0_97>:
    22ed:	f0 19       	mov	a2,(a1)
    22ef:	80 01       	mov	1,d0
    22f1:	f8 11 04    	mov	d0,(4,a1)
    22f4:	e3          	add	d0,d3
    22f5:	4e a0       	mov	d3,(160,sp)

000022f7 <.LVL362>:
    22f7:	5a 9c       	mov	(156,sp),d2
    22f9:	e2          	add	d0,d2
    22fa:	4a 9c       	mov	d2,(156,sp)
    22fc:	aa 07       	cmp	7,d2
    22fe:	c3 05       	ble	2303 <.L0_98>
    2300:	cc df 03    	jmp	26df <.L238>

00002303 <.L0_98>:
    2303:	96          	mov	a1,a2
    2304:	22 08       	add	8,a2

00002306 <.LVL363>:
    2306:	5f 5c       	mov	(92,sp),a3
    2308:	f0 1e       	mov	a3,(a2)
    230a:	5f 68       	mov	(104,sp),a3
    230c:	f8 3e 04    	mov	a3,(4,a2)
    230f:	f1 5f       	add	a3,d3
    2311:	4e a0       	mov	d3,(160,sp)

00002313 <.LVL364>:
    2313:	48          	inc	d2
    2314:	4a 9c       	mov	d2,(156,sp)
    2316:	aa 07       	cmp	7,d2
    2318:	c3 05       	ble	231d <.L0_99>
    231a:	cc 02 04    	jmp	271c <.L0_127>

0000231d <.L0_99>:
    231d:	22 08       	add	8,a2

0000231f <.L241>:
    231f:	00          	clr	d0
    2320:	42 0c       	mov	d0,(12,sp)
    2322:	42 10       	mov	d0,(16,sp)
    2324:	58 58       	mov	(88,sp),d0
    2326:	59 6c       	mov	(108,sp),d1
    2328:	dd 4d 6a 00 	call	8d75 <___nedf2>,[],0
    232c:	00 00 00 
    232f:	a0 00       	cmp	0,d0
    2331:	c9 05       	bne	2336 <.L0_100>
    2333:	cc 30 03    	jmp	2663 <.L393>

00002336 <.L0_100>:
    2336:	58 40       	mov	(64,sp),d0
    2338:	40          	inc	d0

00002339 <.Loc.1592.1>:
    2339:	62          	mov	d0,(a2)
    233a:	58 4c       	mov	(76,sp),d0
    233c:	28 ff       	add	-1,d0
    233e:	f8 12 04    	mov	d0,(4,a2)
    2341:	e3          	add	d0,d3

00002342 <.Loc.1595.1>:
    2342:	4e a0       	mov	d3,(160,sp)

00002344 <.LVL368>:
    2344:	48          	inc	d2
    2345:	4a 9c       	mov	d2,(156,sp)
    2347:	aa 07       	cmp	7,d2
    2349:	c1 49       	bgt	2392 <.L244>

0000234b <.L408>:
    234b:	22 08       	add	8,a2

0000234d <.L245>:
    234d:	3c          	mov	sp,a0
    234e:	fa d0 8a 00 	add	138,a0
    2352:	f0 12       	mov	a0,(a2)
    2354:	5f 70       	mov	(112,sp),a3
    2356:	f8 3e 04    	mov	a3,(4,a2)
    2359:	f1 5f       	add	a3,d3
    235b:	4e a0       	mov	d3,(160,sp)

0000235d <.LVL371>:
    235d:	48          	inc	d2
    235e:	4a 9c       	mov	d2,(156,sp)
    2360:	aa 07       	cmp	7,d2
    2362:	c3 05       	ble	2367 <.L0_101>
    2364:	cc 3d f8    	jmp	1ba1 <.L0_36>

00002367 <.L0_101>:
    2367:	99          	mov	a2,a1
    2368:	21 08       	add	8,a1

0000236a <.LVL372>:
    236a:	cc 91 f5    	jmp	18fb <.L186>

0000236d <.L440>:
    236d:	58 28       	mov	(40,sp),d0
    236f:	f8 e0 01    	and	1,d0
    2372:	c8 05       	beq	2377 <.L0_102>
    2374:	cc 79 ff    	jmp	22ed <.L0_97>

00002377 <.L0_102>:
    2377:	f0 19       	mov	a2,(a1)
    2379:	80 01       	mov	1,d0
    237b:	f8 11 04    	mov	d0,(4,a1)
    237e:	e3          	add	d0,d3
    237f:	4e a0       	mov	d3,(160,sp)

00002381 <.LVL374>:
    2381:	5a 9c       	mov	(156,sp),d2
    2383:	e2          	add	d0,d2
    2384:	4a 9c       	mov	d2,(156,sp)
    2386:	aa 07       	cmp	7,d2
    2388:	c3 05       	ble	238d <.L0_103>
    238a:	cc 4c 07    	jmp	2ad6 <.L252>

0000238d <.L0_103>:
    238d:	96          	mov	a1,a2
    238e:	22 08       	add	8,a2

00002390 <.LVL375>:
    2390:	ca bd       	bra	234d <.L245>

00002392 <.L244>:
    2392:	3e          	mov	sp,a2
    2393:	fa d2 98 00 	add	152,a2
    2397:	f1 d8       	mov	a2,d0

00002399 <.L407>:
    2399:	42 0c       	mov	d0,(12,sp)
    239b:	fa b4 48 05 	mov	(1352,sp),d0
    239f:	fa b5 4c 05 	mov	(1356,sp),d1
    23a3:	dd 73 40 00 	call	6416 <___sprint_r>,[],0
    23a7:	00 00 00 

000023aa <.LVL377>:
    23aa:	a0 00       	cmp	0,d0
    23ac:	c8 05       	beq	23b1 <.L0_104>
    23ae:	cc f3 f6    	jmp	1aa1 <.L18>

000023b1 <.L0_104>:
    23b1:	3e          	mov	sp,a2
    23b2:	fa d2 34 01 	add	308,a2
    23b6:	5b a0       	mov	(160,sp),d3
    23b8:	5a 9c       	mov	(156,sp),d2
    23ba:	ca 93       	bra	234d <.L245>

000023bc <.L183>:
    23bc:	3e          	mov	sp,a2

000023bd <.LVL379>:
    23bd:	fa d2 98 00 	add	152,a2
    23c1:	4b 0c       	mov	a2,(12,sp)
    23c3:	fa b4 48 05 	mov	(1352,sp),d0

000023c7 <.LVL380>:
    23c7:	fa b5 4c 05 	mov	(1356,sp),d1
    23cb:	dd 4b 40 00 	call	6416 <___sprint_r>,[],0
    23cf:	00 00 00 

000023d2 <.LVL381>:
    23d2:	a0 00       	cmp	0,d0
    23d4:	c8 05       	beq	23d9 <.L0_105>
    23d6:	cc cb f6    	jmp	1aa1 <.L18>

000023d9 <.L0_105>:
    23d9:	3d          	mov	sp,a1
    23da:	fa d1 34 01 	add	308,a1
    23de:	5b a0       	mov	(160,sp),d3
    23e0:	cc f5 f4    	jmp	18d5 <.L178>

000023e3 <.L171>:
    23e3:	3e          	mov	sp,a2
    23e4:	fa d2 98 00 	add	152,a2
    23e8:	4b 0c       	mov	a2,(12,sp)
    23ea:	fa b4 48 05 	mov	(1352,sp),d0
    23ee:	fa b5 4c 05 	mov	(1356,sp),d1
    23f2:	dd 24 40 00 	call	6416 <___sprint_r>,[],0
    23f6:	00 00 00 

000023f9 <.LVL383>:
    23f9:	a0 00       	cmp	0,d0
    23fb:	c8 05       	beq	2400 <.L0_106>
    23fd:	cc a4 f6    	jmp	1aa1 <.L18>

00002400 <.L0_106>:
    2400:	3d          	mov	sp,a1
    2401:	fa d1 34 01 	add	308,a1
    2405:	5b a0       	mov	(160,sp),d3

00002407 <.LVL384>:
    2407:	5a 48       	mov	(72,sp),d2
    2409:	fa ca 80 00 	cmp	128,d2
    240d:	c8 05       	beq	2412 <.L0_107>
    240f:	cc 74 f4    	jmp	1883 <.L0_18>

00002412 <.L0_107>:
    2412:	cc d2 f6    	jmp	1ae4 <.L419>

00002415 <.L169>:
    2415:	3c          	mov	sp,a0
    2416:	fa d0 98 00 	add	152,a0
    241a:	43 0c       	mov	a0,(12,sp)
    241c:	fa b4 48 05 	mov	(1352,sp),d0
    2420:	fa b5 4c 05 	mov	(1356,sp),d1
    2424:	dd f2 3f 00 	call	6416 <___sprint_r>,[],0
    2428:	00 00 00 

0000242b <.LVL386>:
    242b:	a0 00       	cmp	0,d0
    242d:	c8 05       	beq	2432 <.L0_108>
    242f:	cc 72 f6    	jmp	1aa1 <.L18>

00002432 <.L0_108>:
    2432:	3d          	mov	sp,a1
    2433:	fa d1 34 01 	add	308,a1
    2437:	5b a0       	mov	(160,sp),d3
    2439:	cc 1e f4    	jmp	1857 <.L168>

0000243c <.L152>:
    243c:	ba 00       	cmp	0,a2
    243e:	c9 06       	bne	2444 <.L290>
    2440:	aa 09       	cmp	9,d2
    2442:	c7 4e       	bls	2490 <.L441>

00002444 <.L290>:
    2444:	3c          	mov	sp,a0
    2445:	fa d0 cc 00 	add	204,a0
    2449:	43 40       	mov	a0,(64,sp)

0000244b <.Loc.1436.1>:
    244b:	9f 00       	mov	0,a3
    244d:	47 30       	mov	a1,(48,sp)
    244f:	4e 34       	mov	d3,(52,sp)
    2451:	f1 db       	mov	a2,d3

00002453 <.LVL388>:
    2453:	92          	mov	a0,a2

00002454 <.L157>:
    2454:	22 ff       	add	-1,a2
    2456:	80 0a       	mov	10,d0
    2458:	42 0c       	mov	d0,(12,sp)
    245a:	4f 10       	mov	a3,(16,sp)
    245c:	88          	mov	d2,d0
    245d:	8d          	mov	d3,d1
    245e:	dd cc 5f 00 	call	842a <___umoddi3>,[],0
    2462:	00 00 00 
    2465:	28 30       	add	48,d0
    2467:	f0 52       	movbu	d0,(a2)

00002469 <.Loc.1457.1>:
    2469:	85 0a       	mov	10,d1
    246b:	46 0c       	mov	d1,(12,sp)
    246d:	4f 10       	mov	a3,(16,sp)
    246f:	88          	mov	d2,d0
    2470:	8d          	mov	d3,d1
    2471:	dd b8 5e 00 	call	8329 <___udivdi3>,[],0
    2475:	00 00 00 
    2478:	82          	mov	d0,d2

00002479 <.LVL393>:
    2479:	87          	mov	d1,d3

0000247a <.LVL394>:
    247a:	f2 14       	or	d1,d0

0000247c <.LVL395>:
    247c:	c9 d8       	bne	2454 <.L157>
    247e:	4b 40       	mov	a2,(64,sp)
    2480:	5d 30       	mov	(48,sp),a1
    2482:	5b 34       	mov	(52,sp),d3

00002484 <.Loc.1408.1>:
    2484:	3c          	mov	sp,a0
    2485:	fa d0 cc 00 	add	204,a0
    2489:	f1 38       	sub	a2,a0
    248b:	43 34       	mov	a0,(52,sp)
    248d:	cc 29 f8    	jmp	1cb6 <.L155>

00002490 <.L441>:
    2490:	88          	mov	d2,d0

00002491 <.LVL397>:
    2491:	28 30       	add	48,d0
    2493:	f8 92 cb    	movbu	d0,(203,sp)
    2496:	9a 01       	mov	1,a2

00002498 <.LVL398>:
    2498:	4b 34       	mov	a2,(52,sp)
    249a:	3f          	mov	sp,a3
    249b:	fa d3 cb 00 	add	203,a3
    249f:	4f 40       	mov	a3,(64,sp)

000024a1 <.Loc.1430.1>:
    24a1:	cc 15 f8    	jmp	1cb6 <.L155>

000024a4 <.L292>:
    24a4:	4e 34       	mov	d3,(52,sp)

000024a6 <.Loc.1408.1>:
    24a6:	3e          	mov	sp,a2

000024a7 <.LVL400>:
    24a7:	fa d2 cc 00 	add	204,a2
    24ab:	4b 40       	mov	a2,(64,sp)
    24ad:	cc 09 f8    	jmp	1cb6 <.L155>

000024b0 <.L275>:
    24b0:	80 01       	mov	1,d0
    24b2:	cc c4 f7    	jmp	1c76 <.L64>

000024b5 <.L388>:
    24b5:	5e 7c       	mov	(124,sp),a2
    24b7:	ba 00       	cmp	0,a2
    24b9:	c1 05       	bgt	24be <.L0_109>
    24bb:	cc d4 04    	jmp	298f <.L442>

000024be <.L0_109>:
    24be:	5a 4c       	mov	(76,sp),d2
    24c0:	5e 40       	mov	(64,sp),a2
    24c2:	f1 6a       	add	d2,a2
    24c4:	4b 34       	mov	a2,(52,sp)
    24c6:	5f 60       	mov	(96,sp),a3
    24c8:	f1 9e       	cmp	a3,d2
    24ca:	c3 04       	ble	24ce <.L214>
    24cc:	f1 de       	mov	a3,d2

000024ce <.L214>:
    24ce:	aa 00       	cmp	0,d2
    24d0:	c3 1a       	ble	24ea <.L215>

000024d2 <.Loc.1560.1>:
    24d2:	5e 40       	mov	(64,sp),a2
    24d4:	f0 19       	mov	a2,(a1)
    24d6:	f8 19 04    	mov	d2,(4,a1)
    24d9:	eb          	add	d2,d3
    24da:	4e a0       	mov	d3,(160,sp)

000024dc <.LVL405>:
    24dc:	58 9c       	mov	(156,sp),d0
    24de:	40          	inc	d0
    24df:	42 9c       	mov	d0,(156,sp)
    24e1:	a0 07       	cmp	7,d0
    24e3:	c3 05       	ble	24e8 <.L0_110>
    24e5:	cc 49 07    	jmp	2c2e <.L216>

000024e8 <.L0_110>:
    24e8:	21 08       	add	8,a1

000024ea <.L215>:
    24ea:	aa 00       	cmp	0,d2
    24ec:	c2 05       	bge	24f1 <.L0_111>
    24ee:	cc b7 05    	jmp	2aa5 <.L443>

000024f1 <.L0_111>:
    24f1:	5e 60       	mov	(96,sp),a2
    24f3:	f1 2a       	sub	d2,a2

000024f5 <.LVL408>:
    24f5:	ba 00       	cmp	0,a2
    24f7:	c3 4a       	ble	2541 <.L218>
    24f9:	5a 9c       	mov	(156,sp),d2
    24fb:	fc dc 10 97 	mov	38672,a0
    24ff:	00 00 

00002501 <.Loc.1560.1>:
    2501:	ba 10       	cmp	16,a2
    2503:	c3 29       	ble	252c <.L219>

00002505 <.Loc.1560.1>:
    2505:	9f 10       	mov	16,a3
    2507:	8d          	mov	d3,d1
    2508:	f1 db       	mov	a2,d3
    250a:	96          	mov	a1,a2

0000250b <.LVL409>:
    250b:	91          	mov	a0,a1

0000250c <.L222>:
    250c:	f0 16       	mov	a1,(a2)
    250e:	f8 3e 04    	mov	a3,(4,a2)
    2511:	29 10       	add	16,d1
    2513:	46 a0       	mov	d1,(160,sp)

00002515 <.LVL411>:
    2515:	48          	inc	d2
    2516:	4a 9c       	mov	d2,(156,sp)
    2518:	aa 07       	cmp	7,d2
    251a:	c3 05       	ble	251f <.L0_112>
    251c:	cc db 00    	jmp	25f7 <.L220>

0000251f <.L0_112>:
    251f:	22 08       	add	8,a2

00002521 <.LVL412>:
    2521:	2b f0       	add	-16,d3
    2523:	af 10       	cmp	16,d3
    2525:	c1 e7       	bgt	250c <.L222>

00002527 <.L445>:
    2527:	94          	mov	a1,a0
    2528:	99          	mov	a2,a1
    2529:	f1 ee       	mov	d3,a2

0000252b <.LVL414>:
    252b:	87          	mov	d1,d3

0000252c <.L219>:
    252c:	f0 11       	mov	a0,(a1)
    252e:	f8 39 04    	mov	a2,(4,a1)
    2531:	f1 5b       	add	a2,d3
    2533:	4e a0       	mov	d3,(160,sp)

00002535 <.LVL416>:
    2535:	48          	inc	d2
    2536:	4a 9c       	mov	d2,(156,sp)
    2538:	aa 07       	cmp	7,d2
    253a:	c3 05       	ble	253f <.L0_113>
    253c:	cc d8 07    	jmp	2d14 <.L223>

0000253f <.L0_113>:
    253f:	21 08       	add	8,a1

00002541 <.L218>:
    2541:	5e 40       	mov	(64,sp),a2

00002543 <.LVL418>:
    2543:	5a 60       	mov	(96,sp),d2
    2545:	f1 6a       	add	d2,a2
    2547:	9b          	mov	a2,a3

00002548 <.LVL419>:
    2548:	59 7c       	mov	(124,sp),d1
    254a:	5e 4c       	mov	(76,sp),a2

0000254c <.LVL420>:
    254c:	f1 99       	cmp	a2,d1
    254e:	c0 09       	blt	2557 <.L224>

00002550 <.Loc.1581.1>:
    2550:	58 28       	mov	(40,sp),d0
    2552:	f8 e0 01    	and	1,d0
    2555:	c8 1c       	beq	2571 <.L225>

00002557 <.L224>:
    2557:	5a 5c       	mov	(92,sp),d2
    2559:	69          	mov	d2,(a1)
    255a:	5e 68       	mov	(104,sp),a2
    255c:	f8 39 04    	mov	a2,(4,a1)
    255f:	f1 5b       	add	a2,d3
    2561:	4e a0       	mov	d3,(160,sp)

00002563 <.LVL421>:
    2563:	58 9c       	mov	(156,sp),d0
    2565:	40          	inc	d0
    2566:	42 9c       	mov	d0,(156,sp)
    2568:	a0 07       	cmp	7,d0
    256a:	c3 05       	ble	256f <.L0_114>
    256c:	cc f0 06    	jmp	2c5c <.L226>

0000256f <.L0_114>:
    256f:	21 08       	add	8,a1

00002571 <.L225>:
    2571:	58 34       	mov	(52,sp),d0
    2573:	f1 1c       	sub	a3,d0

00002575 <.LVL423>:
    2575:	5e 4c       	mov	(76,sp),a2
    2577:	f1 26       	sub	d1,a2
    2579:	f1 da       	mov	a2,d2
    257b:	f1 a2       	cmp	d0,a2
    257d:	c3 03       	ble	2580 <.L227>
    257f:	82          	mov	d0,d2

00002580 <.L227>:
    2580:	aa 00       	cmp	0,d2
    2582:	c3 18       	ble	259a <.L228>

00002584 <.Loc.1583.1>:
    2584:	f0 1d       	mov	a3,(a1)
    2586:	f8 19 04    	mov	d2,(4,a1)
    2589:	eb          	add	d2,d3
    258a:	4e a0       	mov	d3,(160,sp)

0000258c <.LVL425>:
    258c:	58 9c       	mov	(156,sp),d0
    258e:	40          	inc	d0
    258f:	42 9c       	mov	d0,(156,sp)
    2591:	a0 07       	cmp	7,d0
    2593:	c3 05       	ble	2598 <.L0_115>
    2595:	cc 10 07    	jmp	2ca5 <.L229>

00002598 <.L0_115>:
    2598:	21 08       	add	8,a1

0000259a <.L228>:
    259a:	aa 00       	cmp	0,d2
    259c:	c2 05       	bge	25a1 <.L0_116>
    259e:	cc 0b 05    	jmp	2aa9 <.L444>

000025a1 <.L0_116>:
    25a1:	f1 2a       	sub	d2,a2

000025a3 <.LVL428>:
    25a3:	ba 00       	cmp	0,a2
    25a5:	c1 05       	bgt	25aa <.L0_117>
    25a7:	cc 54 f3    	jmp	18fb <.L186>

000025aa <.L0_117>:
    25aa:	5a 9c       	mov	(156,sp),d2
    25ac:	fc dc 10 97 	mov	38672,a0
    25b0:	00 00 

000025b2 <.Loc.1583.1>:
    25b2:	ba 10       	cmp	16,a2
    25b4:	c3 26       	ble	25da <.L231>

000025b6 <.Loc.1583.1>:
    25b6:	9f 10       	mov	16,a3

000025b8 <.LVL429>:
    25b8:	8d          	mov	d3,d1
    25b9:	f1 db       	mov	a2,d3
    25bb:	96          	mov	a1,a2

000025bc <.LVL430>:
    25bc:	91          	mov	a0,a1

000025bd <.L234>:
    25bd:	f0 16       	mov	a1,(a2)
    25bf:	f8 3e 04    	mov	a3,(4,a2)
    25c2:	29 10       	add	16,d1
    25c4:	46 a0       	mov	d1,(160,sp)

000025c6 <.LVL432>:
    25c6:	48          	inc	d2
    25c7:	4a 9c       	mov	d2,(156,sp)
    25c9:	aa 07       	cmp	7,d2
    25cb:	c1 62       	bgt	262d <.L232>

000025cd <.Loc.1583.1>:
    25cd:	22 08       	add	8,a2

000025cf <.LVL433>:
    25cf:	2b f0       	add	-16,d3
    25d1:	af 10       	cmp	16,d3
    25d3:	c1 ea       	bgt	25bd <.L234>

000025d5 <.L446>:
    25d5:	94          	mov	a1,a0
    25d6:	99          	mov	a2,a1
    25d7:	f1 ee       	mov	d3,a2

000025d9 <.LVL435>:
    25d9:	87          	mov	d1,d3

000025da <.L231>:
    25da:	f0 11       	mov	a0,(a1)
    25dc:	f8 39 04    	mov	a2,(4,a1)
    25df:	f1 5b       	add	a2,d3
    25e1:	4e a0       	mov	d3,(160,sp)

000025e3 <.LVL437>:
    25e3:	48          	inc	d2
    25e4:	4a 9c       	mov	d2,(156,sp)
    25e6:	aa 07       	cmp	7,d2
    25e8:	c1 05       	bgt	25ed <.L0_118>
    25ea:	cc 0f f3    	jmp	18f9 <.L0_22>

000025ed <.L0_118>:
    25ed:	3e          	mov	sp,a2

000025ee <.LVL438>:
    25ee:	fa d2 98 00 	add	152,a2
    25f2:	f1 d8       	mov	a2,d0
    25f4:	cc b4 f5    	jmp	1ba8 <.L406>

000025f7 <.L220>:
    25f7:	3e          	mov	sp,a2

000025f8 <.LVL440>:
    25f8:	fa d2 98 00 	add	152,a2
    25fc:	4b 0c       	mov	a2,(12,sp)
    25fe:	fa b4 48 05 	mov	(1352,sp),d0
    2602:	fa b5 4c 05 	mov	(1356,sp),d1
    2606:	47 24       	mov	a1,(36,sp)
    2608:	dd 0e 3e 00 	call	6416 <___sprint_r>,[],0
    260c:	00 00 00 

0000260f <.LVL441>:
    260f:	5d 24       	mov	(36,sp),a1
    2611:	a0 00       	cmp	0,d0
    2613:	c8 05       	beq	2618 <.L0_119>
    2615:	cc 8c f4    	jmp	1aa1 <.L18>

00002618 <.L0_119>:
    2618:	3e          	mov	sp,a2
    2619:	fa d2 34 01 	add	308,a2
    261d:	59 a0       	mov	(160,sp),d1
    261f:	5a 9c       	mov	(156,sp),d2

00002621 <.LVL442>:
    2621:	2b f0       	add	-16,d3
    2623:	af 10       	cmp	16,d3
    2625:	c3 05       	ble	262a <.L0_120>
    2627:	cc e5 fe    	jmp	250c <.L222>

0000262a <.L0_120>:
    262a:	cc fd fe    	jmp	2527 <.L445>

0000262d <.L232>:
    262d:	3c          	mov	sp,a0
    262e:	fa d0 98 00 	add	152,a0
    2632:	43 0c       	mov	a0,(12,sp)
    2634:	fa b4 48 05 	mov	(1352,sp),d0
    2638:	fa b5 4c 05 	mov	(1356,sp),d1
    263c:	47 24       	mov	a1,(36,sp)
    263e:	dd d8 3d 00 	call	6416 <___sprint_r>,[],0
    2642:	00 00 00 

00002645 <.LVL445>:
    2645:	5d 24       	mov	(36,sp),a1
    2647:	a0 00       	cmp	0,d0
    2649:	c8 05       	beq	264e <.L0_121>
    264b:	cc 56 f4    	jmp	1aa1 <.L18>

0000264e <.L0_121>:
    264e:	3e          	mov	sp,a2

0000264f <.LVL446>:
    264f:	fa d2 34 01 	add	308,a2
    2653:	59 a0       	mov	(160,sp),d1
    2655:	5a 9c       	mov	(156,sp),d2

00002657 <.LVL447>:
    2657:	2b f0       	add	-16,d3
    2659:	af 10       	cmp	16,d3
    265b:	c3 05       	ble	2660 <.L0_122>
    265d:	cc 60 ff    	jmp	25bd <.L234>

00002660 <.L0_122>:
    2660:	cc 75 ff    	jmp	25d5 <.L446>

00002663 <.L393>:
    2663:	5f 4c       	mov	(76,sp),a3
    2665:	23 ff       	add	-1,a3

00002667 <.LVL450>:
    2667:	bf 00       	cmp	0,a3
    2669:	c1 05       	bgt	266e <.L0_123>
    266b:	cc e2 fc    	jmp	234d <.L245>

0000266e <.L0_123>:
    266e:	fc dc 10 97 	mov	38672,a0
    2672:	00 00 

00002674 <.Loc.1595.1>:
    2674:	bf 10       	cmp	16,a3
    2676:	c3 21       	ble	2697 <.L246>

00002678 <.Loc.1595.1>:
    2678:	95 10       	mov	16,a1
    267a:	8d          	mov	d3,d1
    267b:	f1 d3       	mov	a0,d3

0000267d <.L249>:
    267d:	6e          	mov	d3,(a2)
    267e:	f8 36 04    	mov	a1,(4,a2)
    2681:	29 10       	add	16,d1
    2683:	46 a0       	mov	d1,(160,sp)

00002685 <.LVL451>:
    2685:	48          	inc	d2
    2686:	4a 9c       	mov	d2,(156,sp)
    2688:	aa 07       	cmp	7,d2
    268a:	c1 23       	bgt	26ad <.L247>

0000268c <.Loc.1595.1>:
    268c:	22 08       	add	8,a2

0000268e <.LVL452>:
    268e:	23 f0       	add	-16,a3
    2690:	bf 10       	cmp	16,a3
    2692:	c1 eb       	bgt	267d <.L249>

00002694 <.L447>:
    2694:	f1 ec       	mov	d3,a0
    2696:	87          	mov	d1,d3

00002697 <.L246>:
    2697:	f0 12       	mov	a0,(a2)
    2699:	f8 3e 04    	mov	a3,(4,a2)
    269c:	f1 5f       	add	a3,d3
    269e:	4e a0       	mov	d3,(160,sp)

000026a0 <.LVL454>:
    26a0:	48          	inc	d2
    26a1:	4a 9c       	mov	d2,(156,sp)
    26a3:	aa 07       	cmp	7,d2
    26a5:	c1 05       	bgt	26aa <.L0_124>
    26a7:	cc a4 fc    	jmp	234b <.L408>

000026aa <.L0_124>:
    26aa:	cc e8 fc    	jmp	2392 <.L244>

000026ad <.L247>:
    26ad:	3c          	mov	sp,a0
    26ae:	fa d0 98 00 	add	152,a0
    26b2:	43 0c       	mov	a0,(12,sp)
    26b4:	fa b4 48 05 	mov	(1352,sp),d0
    26b8:	fa b5 4c 05 	mov	(1356,sp),d1
    26bc:	47 24       	mov	a1,(36,sp)
    26be:	dd 58 3d 00 	call	6416 <___sprint_r>,[],0
    26c2:	00 00 00 

000026c5 <.LVL455>:
    26c5:	5d 24       	mov	(36,sp),a1
    26c7:	a0 00       	cmp	0,d0
    26c9:	c8 05       	beq	26ce <.L0_125>
    26cb:	cc d6 f3    	jmp	1aa1 <.L18>

000026ce <.L0_125>:
    26ce:	3e          	mov	sp,a2

000026cf <.LVL456>:
    26cf:	fa d2 34 01 	add	308,a2
    26d3:	59 a0       	mov	(160,sp),d1
    26d5:	5a 9c       	mov	(156,sp),d2

000026d7 <.LVL457>:
    26d7:	23 f0       	add	-16,a3
    26d9:	bf 10       	cmp	16,a3
    26db:	c1 a2       	bgt	267d <.L249>
    26dd:	ca b7       	bra	2694 <.L447>

000026df <.L238>:
    26df:	3c          	mov	sp,a0
    26e0:	fa d0 98 00 	add	152,a0
    26e4:	43 0c       	mov	a0,(12,sp)
    26e6:	fa b4 48 05 	mov	(1352,sp),d0
    26ea:	fa b5 4c 05 	mov	(1356,sp),d1
    26ee:	dd 28 3d 00 	call	6416 <___sprint_r>,[],0
    26f2:	00 00 00 

000026f5 <.LVL460>:
    26f5:	a0 00       	cmp	0,d0
    26f7:	c8 05       	beq	26fc <.L0_126>
    26f9:	cc a8 f3    	jmp	1aa1 <.L18>

000026fc <.L0_126>:
    26fc:	3e          	mov	sp,a2
    26fd:	fa d2 34 01 	add	308,a2
    2701:	5b a0       	mov	(160,sp),d3
    2703:	5a 9c       	mov	(156,sp),d2

00002705 <.LVL461>:
    2705:	5f 5c       	mov	(92,sp),a3
    2707:	f0 1e       	mov	a3,(a2)
    2709:	5f 68       	mov	(104,sp),a3
    270b:	f8 3e 04    	mov	a3,(4,a2)
    270e:	f1 5f       	add	a3,d3
    2710:	4e a0       	mov	d3,(160,sp)

00002712 <.LVL462>:
    2712:	48          	inc	d2
    2713:	4a 9c       	mov	d2,(156,sp)
    2715:	aa 07       	cmp	7,d2
    2717:	c1 05       	bgt	271c <.L0_127>
    2719:	cc 04 fc    	jmp	231d <.L0_99>

0000271c <.L0_127>:
    271c:	3c          	mov	sp,a0
    271d:	fa d0 98 00 	add	152,a0
    2721:	43 0c       	mov	a0,(12,sp)
    2723:	fa b4 48 05 	mov	(1352,sp),d0
    2727:	fa b5 4c 05 	mov	(1356,sp),d1
    272b:	dd eb 3c 00 	call	6416 <___sprint_r>,[],0
    272f:	00 00 00 

00002732 <.LVL464>:
    2732:	a0 00       	cmp	0,d0
    2734:	c8 05       	beq	2739 <.L0_128>
    2736:	cc 6b f3    	jmp	1aa1 <.L18>

00002739 <.L0_128>:
    2739:	3e          	mov	sp,a2
    273a:	fa d2 34 01 	add	308,a2
    273e:	5b a0       	mov	(160,sp),d3
    2740:	5a 9c       	mov	(156,sp),d2
    2742:	cc dd fb    	jmp	231f <.L241>

00002745 <.L177>:
    2745:	3c          	mov	sp,a0
    2746:	fa d0 98 00 	add	152,a0
    274a:	43 0c       	mov	a0,(12,sp)
    274c:	fa b4 48 05 	mov	(1352,sp),d0

00002750 <.LVL466>:
    2750:	fa b5 4c 05 	mov	(1356,sp),d1
    2754:	dd c2 3c 00 	call	6416 <___sprint_r>,[],0
    2758:	00 00 00 

0000275b <.LVL467>:
    275b:	a0 00       	cmp	0,d0
    275d:	c8 05       	beq	2762 <.L0_129>
    275f:	cc 42 f3    	jmp	1aa1 <.L18>

00002762 <.L0_129>:
    2762:	3d          	mov	sp,a1
    2763:	fa d1 34 01 	add	308,a1
    2767:	5b a0       	mov	(160,sp),d3
    2769:	cc 1a f1    	jmp	1883 <.L0_18>

0000276c <.L68>:
    276c:	f1 d8       	mov	a2,d0
    276e:	89          	mov	d2,d1
    276f:	47 24       	mov	a1,(36,sp)
    2771:	dd 7e 3a 00 	call	61ef <___fpclassifyd>,[],0
    2775:	00 00 00 

00002778 <.LVL469>:
    2778:	5d 24       	mov	(36,sp),a1
    277a:	a0 00       	cmp	0,d0
    277c:	c9 05       	bne	2781 <.L0_130>
    277e:	cc bc 02    	jmp	2a3a <.L449>

00002781 <.L0_130>:
    2781:	af ff       	cmp	-1,d3
    2783:	c9 05       	bne	2788 <.L0_131>
    2785:	cc e3 06    	jmp	2e68 <.L278>

00002788 <.L0_131>:
    2788:	58 54       	mov	(84,sp),d0
    278a:	a0 67       	cmp	103,d0
    278c:	c9 05       	bne	2791 <.L0_132>
    278e:	cc ad 03    	jmp	2b3b <.L76>

00002791 <.L0_132>:
    2791:	a0 47       	cmp	71,d0
    2793:	c9 05       	bne	2798 <.L0_133>
    2795:	cc a6 03    	jmp	2b3b <.L76>

00002798 <.L0_133>:
    2798:	59 28       	mov	(40,sp),d1
    279a:	fa e5 00 01 	or	256,d1
    279e:	46 44       	mov	d1,(68,sp)

000027a0 <.LBB27>:
    27a0:	aa 00       	cmp	0,d2
    27a2:	c2 05       	bge	27a7 <.L0_134>
    27a4:	cc c9 06    	jmp	2e6d <.L450>

000027a7 <.L0_134>:
    27a7:	04          	clr	d1

000027a8 <.LVL472>:
    27a8:	f8 96 48    	movbu	d1,(72,sp)

000027ab <.L77>:
    27ab:	58 54       	mov	(84,sp),d0
    27ad:	a0 66       	cmp	102,d0
    27af:	c9 05       	bne	27b4 <.L0_135>
    27b1:	cc 2f 03    	jmp	2ae0 <.L79>

000027b4 <.L0_135>:
    27b4:	a0 46       	cmp	70,d0
    27b6:	c9 05       	bne	27bb <.L0_136>
    27b8:	cc 28 03    	jmp	2ae0 <.L79>

000027bb <.L0_136>:
    27bb:	a0 65       	cmp	101,d0
    27bd:	c9 05       	bne	27c2 <.L0_137>
    27bf:	cc bc 06    	jmp	2e7b <.L80>

000027c2 <.L0_137>:
    27c2:	a0 45       	cmp	69,d0
    27c4:	c9 05       	bne	27c9 <.L0_138>
    27c6:	cc b5 06    	jmp	2e7b <.L80>

000027c9 <.L0_138>:
    27c9:	4e 30       	mov	d3,(48,sp)

000027cb <.L81>:
    27cb:	80 02       	mov	2,d0
    27cd:	42 10       	mov	d0,(16,sp)
    27cf:	5f 30       	mov	(48,sp),a3
    27d1:	4f 14       	mov	a3,(20,sp)

000027d3 <.Loc.1164.1>:
    27d3:	3c          	mov	sp,a0
    27d4:	20 7c       	add	124,a0

000027d6 <.Loc.1715.1>:
    27d6:	43 18       	mov	a0,(24,sp)
    27d8:	3c          	mov	sp,a0
    27d9:	fa d0 80 00 	add	128,a0
    27dd:	43 1c       	mov	a0,(28,sp)
    27df:	3c          	mov	sp,a0
    27e0:	fa d0 84 00 	add	132,a0
    27e4:	43 20       	mov	a0,(32,sp)
    27e6:	4a 0c       	mov	d2,(12,sp)
    27e8:	f1 d9       	mov	a2,d1
    27ea:	fa b4 48 05 	mov	(1352,sp),d0
    27ee:	47 24       	mov	a1,(36,sp)
    27f0:	dd 96 0b 00 	call	3386 <__dtoa_r>,[],0
    27f4:	00 00 00 

000027f7 <.LVL475>:
    27f7:	43 40       	mov	a0,(64,sp)

000027f9 <.LVL476>:
    27f9:	5d 24       	mov	(36,sp),a1
    27fb:	58 54       	mov	(84,sp),d0
    27fd:	a0 67       	cmp	103,d0
    27ff:	c8 06       	beq	2805 <.L82>
    2801:	a0 47       	cmp	71,d0
    2803:	c9 0c       	bne	280f <.L0_139>

00002805 <.L82>:
    2805:	58 28       	mov	(40,sp),d0
    2807:	f8 e0 01    	and	1,d0
    280a:	c9 05       	bne	280f <.L0_139>
    280c:	cc 16 03    	jmp	2b22 <.L451>

0000280f <.L0_139>:
    280f:	59 40       	mov	(64,sp),d1
    2811:	5c 30       	mov	(48,sp),a0

00002813 <.LVL477>:
    2813:	f1 51       	add	a0,d1
    2815:	f1 e7       	mov	d1,a3

00002817 <.LVL478>:
    2817:	58 54       	mov	(84,sp),d0
    2819:	a0 46       	cmp	70,d0
    281b:	c9 05       	bne	2820 <.L0_140>
    281d:	cc f6 02    	jmp	2b13 <.L267>

00002820 <.L0_140>:
    2820:	00          	clr	d0
    2821:	42 0c       	mov	d0,(12,sp)
    2823:	42 10       	mov	d0,(16,sp)
    2825:	f1 d8       	mov	a2,d0
    2827:	89          	mov	d2,d1
    2828:	47 24       	mov	a1,(36,sp)
    282a:	dd f6 64 00 	call	8d20 <___eqdf2>,[],0
    282e:	00 00 00 
    2831:	5d 24       	mov	(36,sp),a1
    2833:	a0 00       	cmp	0,d0
    2835:	c8 14       	beq	2849 <.L84>

00002837 <.Loc.1726.1>:
    2837:	5e 84       	mov	(132,sp),a2

00002839 <.LVL481>:
    2839:	bb          	cmp	a2,a3
    283a:	c5 05       	bhi	283f <.L0_141>
    283c:	cc c2 07    	jmp	2ffe <.L282>

0000283f <.L0_141>:
    283f:	80 30       	mov	48,d0

00002841 <.L89>:
    2841:	f0 52       	movbu	d0,(a2)
    2843:	49          	inc	a2
    2844:	4b 84       	mov	a2,(132,sp)

00002846 <.Loc.1726.1>:
    2846:	be          	cmp	a3,a2
    2847:	c9 fa       	bne	2841 <.L89>

00002849 <.L84>:
    2849:	f1 de       	mov	a3,d2

0000284b <.LVL483>:
    284b:	5e 40       	mov	(64,sp),a2
    284d:	f1 1a       	sub	a2,d2
    284f:	4a 4c       	mov	d2,(76,sp)

00002851 <.LBE27>:
    2851:	5a 54       	mov	(84,sp),d2

00002853 <.LVL485>:
    2853:	aa 67       	cmp	103,d2
    2855:	c9 05       	bne	285a <.L0_142>
    2857:	cc 21 05    	jmp	2d78 <.L90>

0000285a <.L0_142>:
    285a:	aa 47       	cmp	71,d2
    285c:	c9 05       	bne	2861 <.L0_143>
    285e:	cc 1a 05    	jmp	2d78 <.L90>

00002861 <.L0_143>:
    2861:	5a 54       	mov	(84,sp),d2
    2863:	aa 66       	cmp	102,d2
    2865:	c8 05       	beq	286a <.L0_144>
    2867:	cc 69 07    	jmp	2fd0 <.L452>

0000286a <.L0_144>:
    286a:	59 7c       	mov	(124,sp),d1
    286c:	a5 00       	cmp	0,d1
    286e:	c1 05       	bgt	2873 <.L0_145>
    2870:	cc 0e 07    	jmp	2f7e <.L107>

00002873 <.L0_145>:
    2873:	af 00       	cmp	0,d3
    2875:	c8 05       	beq	287a <.L0_146>
    2877:	cc 99 06    	jmp	2f10 <.L108>

0000287a <.L0_146>:
    287a:	58 28       	mov	(40,sp),d0
    287c:	f8 e0 01    	and	1,d0
    287f:	c8 05       	beq	2884 <.L0_147>
    2881:	cc 8f 06    	jmp	2f10 <.L108>

00002884 <.L0_147>:
    2884:	46 30       	mov	d1,(48,sp)

00002886 <.Loc.1190.1>:
    2886:	46 34       	mov	d1,(52,sp)

00002888 <.L110>:
    2888:	46 60       	mov	d1,(96,sp)

0000288a <.L105>:
    288a:	f8 b9 48    	movbu	(72,sp),d1
    288d:	a5 00       	cmp	0,d1
    288f:	c9 05       	bne	2894 <.L0_148>
    2891:	cc aa 04    	jmp	2d3b <.L120>

00002894 <.L0_148>:
    2894:	80 2d       	mov	45,d0
    2896:	f8 92 79    	movbu	d0,(121,sp)

00002899 <.LVL490>:
    2899:	5a 44       	mov	(68,sp),d2
    289b:	4a 28       	mov	d2,(40,sp)

0000289d <.Loc.790.1>:
    289d:	90 00       	mov	0,a0
    289f:	43 50       	mov	a0,(80,sp)

000028a1 <.Loc.1517.1>:
    28a1:	5c 30       	mov	(48,sp),a0
    28a3:	41          	inc	a0
    28a4:	43 30       	mov	a0,(48,sp)

000028a6 <.LVL491>:
    28a6:	cc 14 ef    	jmp	17ba <.L160>

000028a9 <.L145>:
    28a9:	58 28       	mov	(40,sp),d0
    28ab:	fa b2 54 05 	mov	(1364,sp),a2
    28af:	f8 e0 40    	and	64,d0
    28b2:	c9 05       	bne	28b7 <.L0_149>
    28b4:	cc c3 f5    	jmp	1e77 <.L146>

000028b7 <.L0_149>:
    28b7:	f0 6a       	movhu	(a2),d2
    28b9:	f1 e6       	mov	d1,a2

000028bb <.LVL494>:
    28bb:	fa b3 54 05 	mov	(1364,sp),a3
    28bf:	53          	inc4	a3

000028c0 <.LVL495>:
    28c0:	fa 9c 54 05 	mov	a3,(1364,sp)
    28c4:	cc 88 f3    	jmp	1c4c <.L144>

000028c7 <.L128>:
    28c7:	58 28       	mov	(40,sp),d0
    28c9:	fa b2 54 05 	mov	(1364,sp),a2

000028cd <.LVL497>:
    28cd:	f8 e0 40    	and	64,d0
    28d0:	c9 05       	bne	28d5 <.L0_150>
    28d2:	cc 89 f7    	jmp	205b <.L129>

000028d5 <.L0_150>:
    28d5:	f0 6a       	movhu	(a2),d2
    28d7:	f1 e6       	mov	d1,a2

000028d9 <.LVL499>:
    28d9:	fa b3 54 05 	mov	(1364,sp),a3
    28dd:	53          	inc4	a3

000028de <.LVL500>:
    28de:	fa 9c 54 05 	mov	a3,(1364,sp)

000028e2 <.Loc.1250.1>:
    28e2:	84          	mov	d1,d0

000028e3 <.LVL501>:
    28e3:	04          	clr	d1
    28e4:	f8 96 79    	movbu	d1,(121,sp)
    28e7:	cc 8f f3    	jmp	1c76 <.L64>

000028ea <.L62>:
    28ea:	58 28       	mov	(40,sp),d0
    28ec:	fa b2 54 05 	mov	(1364,sp),a2

000028f0 <.LVL503>:
    28f0:	f8 e0 40    	and	64,d0
    28f3:	c9 05       	bne	28f8 <.L0_151>
    28f5:	cc 06 f7    	jmp	1ffb <.L63>

000028f8 <.L0_151>:
    28f8:	72          	mov	(a2),d0
    28f9:	82          	mov	d0,d2
    28fa:	1a          	exth	d2
    28fb:	88          	mov	d2,d0
    28fc:	f8 c8 1f    	asr	31,d0
    28ff:	f1 e2       	mov	d0,a2

00002901 <.LVL505>:
    2901:	fa b3 54 05 	mov	(1364,sp),a3
    2905:	53          	inc4	a3

00002906 <.LVL506>:
    2906:	fa 9c 54 05 	mov	a3,(1364,sp)
    290a:	cc b2 f4    	jmp	1dbc <.L61>

0000290d <.L141>:
    290d:	58 28       	mov	(40,sp),d0
    290f:	fa b2 54 05 	mov	(1364,sp),a2

00002913 <.LVL508>:
    2913:	f8 e0 40    	and	64,d0
    2916:	c9 05       	bne	291b <.L0_152>
    2918:	cc 12 f7    	jmp	202a <.L142>

0000291b <.L0_152>:
    291b:	f0 6a       	movhu	(a2),d2
    291d:	f1 e6       	mov	d1,a2

0000291f <.LVL510>:
    291f:	fa b3 54 05 	mov	(1364,sp),a3
    2923:	53          	inc4	a3

00002924 <.LVL511>:
    2924:	fa 9c 54 05 	mov	a3,(1364,sp)

00002928 <.Loc.1374.1>:
    2928:	80 01       	mov	1,d0

0000292a <.LVL512>:
    292a:	04          	clr	d1
    292b:	f8 96 79    	movbu	d1,(121,sp)
    292e:	cc 48 f3    	jmp	1c76 <.L64>

00002931 <.L122>:
    2931:	58 28       	mov	(40,sp),d0
    2933:	f8 e0 10    	and	16,d0
    2936:	c9 1b       	bne	2951 <.L125>

00002938 <.Loc.1236.1>:
    2938:	58 28       	mov	(40,sp),d0
    293a:	f8 e0 40    	and	64,d0
    293d:	c8 14       	beq	2951 <.L125>

0000293f <.LVL514>:
    293f:	fa b2 54 05 	mov	(1364,sp),a2

00002943 <.LVL515>:
    2943:	f0 02       	mov	(a2),a0
    2945:	5a 3c       	mov	(60,sp),d2

00002947 <.LVL516>:
    2947:	f0 78       	movhu	d2,(a0)
    2949:	52          	inc4	a2

0000294a <.LVL517>:
    294a:	fa 98 54 05 	mov	a2,(1364,sp)
    294e:	cc cf ed    	jmp	171d <.L382>

00002951 <.L125>:
    2951:	fa b2 54 05 	mov	(1364,sp),a2

00002955 <.LVL519>:
    2955:	f0 02       	mov	(a2),a0
    2957:	5a 3c       	mov	(60,sp),d2

00002959 <.LVL520>:
    2959:	68          	mov	d2,(a0)
    295a:	52          	inc4	a2

0000295b <.LVL521>:
    295b:	fa 98 54 05 	mov	a2,(1364,sp)
    295f:	cc be ed    	jmp	171d <.L382>

00002962 <.L49>:
    2962:	f0 4a       	movbu	(a2),d2

00002964 <.LVL523>:
    2964:	49          	inc	a2

00002965 <.LVL524>:
    2965:	cc 25 ee    	jmp	178a <.L381>

00002968 <.L190>:
    2968:	3c          	mov	sp,a0
    2969:	fa d0 98 00 	add	152,a0
    296d:	43 0c       	mov	a0,(12,sp)
    296f:	fa b4 48 05 	mov	(1352,sp),d0
    2973:	fa b5 4c 05 	mov	(1356,sp),d1
    2977:	dd 9f 3a 00 	call	6416 <___sprint_r>,[],0
    297b:	00 00 00 

0000297e <.LVL526>:
    297e:	a0 00       	cmp	0,d0
    2980:	c8 05       	beq	2985 <.L0_153>
    2982:	cc 1f f1    	jmp	1aa1 <.L18>

00002985 <.L0_153>:
    2985:	3d          	mov	sp,a1
    2986:	fa d1 34 01 	add	308,a1
    298a:	5b a0       	mov	(160,sp),d3
    298c:	cc 77 f8    	jmp	2203 <.L191>

0000298f <.L442>:
    298f:	fc cc 97 95 	mov	38295,d0
    2993:	00 00 
    2995:	61          	mov	d0,(a1)
    2996:	80 01       	mov	1,d0
    2998:	f8 11 04    	mov	d0,(4,a1)
    299b:	e3          	add	d0,d3
    299c:	4e a0       	mov	d3,(160,sp)

0000299e <.LVL528>:
    299e:	58 9c       	mov	(156,sp),d0
    29a0:	40          	inc	d0
    29a1:	42 9c       	mov	d0,(156,sp)
    29a3:	a0 07       	cmp	7,d0
    29a5:	c3 05       	ble	29aa <.L0_154>
    29a7:	cc 06 01    	jmp	2aad <.L202>

000029aa <.L0_154>:
    29aa:	21 08       	add	8,a1

000029ac <.L203>:
    29ac:	ba 00       	cmp	0,a2
    29ae:	c9 12       	bne	29c0 <.L0_155>

000029b0 <.Loc.1553.1>:
    29b0:	5f 4c       	mov	(76,sp),a3
    29b2:	bf 00       	cmp	0,a3
    29b4:	c9 0c       	bne	29c0 <.L0_155>
    29b6:	58 28       	mov	(40,sp),d0
    29b8:	f8 e0 01    	and	1,d0
    29bb:	c9 05       	bne	29c0 <.L0_155>
    29bd:	cc 3e ef    	jmp	18fb <.L186>

000029c0 <.L0_155>:
    29c0:	5a 5c       	mov	(92,sp),d2
    29c2:	69          	mov	d2,(a1)
    29c3:	5f 68       	mov	(104,sp),a3
    29c5:	f8 3d 04    	mov	a3,(4,a1)
    29c8:	f1 5f       	add	a3,d3
    29ca:	4e a0       	mov	d3,(160,sp)

000029cc <.LVL530>:
    29cc:	5a 9c       	mov	(156,sp),d2
    29ce:	48          	inc	d2
    29cf:	4a 9c       	mov	d2,(156,sp)
    29d1:	aa 07       	cmp	7,d2
    29d3:	c3 05       	ble	29d8 <.L0_156>
    29d5:	cc 68 04    	jmp	2e3d <.L205>

000029d8 <.L0_156>:
    29d8:	21 08       	add	8,a1

000029da <.L206>:
    29da:	9f 00       	mov	0,a3
    29dc:	f1 3b       	sub	a2,a3
    29de:	9e          	mov	a3,a2

000029df <.LVL532>:
    29df:	bf 00       	cmp	0,a3
    29e1:	c1 05       	bgt	29e6 <.L0_157>
    29e3:	cc a7 f1    	jmp	1b8a <.L207>

000029e6 <.L0_157>:
    29e6:	fc dc 10 97 	mov	38672,a0
    29ea:	00 00 

000029ec <.Loc.1555.1>:
    29ec:	bf 10       	cmp	16,a3
    29ee:	c3 29       	ble	2a17 <.L208>

000029f0 <.Loc.1555.1>:
    29f0:	9f 10       	mov	16,a3
    29f2:	8d          	mov	d3,d1
    29f3:	f1 db       	mov	a2,d3
    29f5:	96          	mov	a1,a2

000029f6 <.LVL533>:
    29f6:	91          	mov	a0,a1

000029f7 <.L211>:
    29f7:	f0 16       	mov	a1,(a2)
    29f9:	f8 3e 04    	mov	a3,(4,a2)
    29fc:	29 10       	add	16,d1
    29fe:	46 a0       	mov	d1,(160,sp)

00002a00 <.LVL535>:
    2a00:	48          	inc	d2
    2a01:	4a 9c       	mov	d2,(156,sp)
    2a03:	aa 07       	cmp	7,d2
    2a05:	c3 05       	ble	2a0a <.L0_158>
    2a07:	cc 6b 01    	jmp	2b72 <.L209>

00002a0a <.L0_158>:
    2a0a:	22 08       	add	8,a2

00002a0c <.L210>:
    2a0c:	2b f0       	add	-16,d3
    2a0e:	af 10       	cmp	16,d3
    2a10:	c1 e7       	bgt	29f7 <.L211>
    2a12:	94          	mov	a1,a0
    2a13:	99          	mov	a2,a1
    2a14:	f1 ee       	mov	d3,a2

00002a16 <.LVL538>:
    2a16:	87          	mov	d1,d3

00002a17 <.L208>:
    2a17:	f0 11       	mov	a0,(a1)
    2a19:	f8 39 04    	mov	a2,(4,a1)
    2a1c:	f1 5b       	add	a2,d3
    2a1e:	4e a0       	mov	d3,(160,sp)

00002a20 <.LVL540>:
    2a20:	48          	inc	d2
    2a21:	4a 9c       	mov	d2,(156,sp)
    2a23:	aa 07       	cmp	7,d2
    2a25:	c3 05       	ble	2a2a <.L0_159>
    2a27:	cc 3d f1    	jmp	1b64 <.L212>

00002a2a <.L0_159>:
    2a2a:	21 08       	add	8,a1

00002a2c <.LVL541>:
    2a2c:	5e 40       	mov	(64,sp),a2

00002a2e <.LVL542>:
    2a2e:	f0 19       	mov	a2,(a1)
    2a30:	5f 4c       	mov	(76,sp),a3
    2a32:	f8 3d 04    	mov	a3,(4,a1)
    2a35:	f1 5f       	add	a3,d3
    2a37:	cc 5e f1    	jmp	1b95 <.L410>

00002a3a <.L449>:
    2a3a:	5a 54       	mov	(84,sp),d2
    2a3c:	aa 47       	cmp	71,d2
    2a3e:	c3 05       	ble	2a43 <.L0_160>
    2a40:	cc 0f 03    	jmp	2d4f <.L277>

00002a43 <.L0_160>:
    2a43:	fc de 66 95 	mov	38246,a2
    2a47:	00 00 
    2a49:	4b 40       	mov	a2,(64,sp)

00002a4b <.LVL544>:
    2a4b:	5a 28       	mov	(40,sp),d2
    2a4d:	fc e2 7f ff 	and	-129,d2
    2a51:	ff ff 
    2a53:	4a 28       	mov	d2,(40,sp)

00002a55 <.LVL545>:
    2a55:	f8 b8 79    	movbu	(121,sp),d0

00002a58 <.L460>:
    2a58:	90 03       	mov	3,a0
    2a5a:	43 30       	mov	a0,(48,sp)

00002a5c <.Loc.1099.1>:
    2a5c:	43 34       	mov	a0,(52,sp)

00002a5e <.Loc.790.1>:
    2a5e:	9a 00       	mov	0,a2

00002a60 <.LVL546>:
    2a60:	4b 50       	mov	a2,(80,sp)

00002a62 <.Loc.795.1>:
    2a62:	4b 60       	mov	a2,(96,sp)
    2a64:	cc e4 f3    	jmp	1e48 <.L453>

00002a67 <.L136>:
    2a67:	5c 34       	mov	(52,sp),a0

00002a69 <.LVL548>:
    2a69:	43 30       	mov	a0,(48,sp)
    2a6b:	b0 00       	cmp	0,a0
    2a6d:	c2 05       	bge	2a72 <.L0_161>
    2a6f:	cc b8 00    	jmp	2b27 <.L454>

00002a72 <.L0_161>:
    2a72:	f8 b8 79    	movbu	(121,sp),d0

00002a75 <.LBB33>:
    2a75:	fa 99 54 05 	mov	d2,(1364,sp)

00002a79 <.Loc.790.1>:
    2a79:	9f 00       	mov	0,a3
    2a7b:	4f 50       	mov	a3,(80,sp)

00002a7d <.Loc.795.1>:
    2a7d:	4f 60       	mov	a3,(96,sp)

00002a7f <.L456>:
    2a7f:	14          	extbu	d0
    2a80:	a0 00       	cmp	0,d0
    2a82:	c8 05       	beq	2a87 <.L0_162>
    2a84:	cc 4c f2    	jmp	1cd0 <.L0_49>

00002a87 <.L0_162>:
    2a87:	cc 33 ed    	jmp	17ba <.L160>

00002a8a <.L276>:
    2a8a:	fc de 62 95 	mov	38242,a2
    2a8e:	00 00 
    2a90:	4b 40       	mov	a2,(64,sp)

00002a92 <.LVL551>:
    2a92:	5a 28       	mov	(40,sp),d2
    2a94:	fc e2 7f ff 	and	-129,d2
    2a98:	ff ff 
    2a9a:	4a 28       	mov	d2,(40,sp)

00002a9c <.LVL552>:
    2a9c:	cc a0 f3    	jmp	1e3c <.L404>

00002a9f <.L425>:
    2a9f:	8f ff       	mov	-1,d3

00002aa1 <.LVL554>:
    2aa1:	92          	mov	a0,a2

00002aa2 <.LVL555>:
    2aa2:	cc 78 f1    	jmp	1c1a <.L455>

00002aa5 <.L443>:
    2aa5:	08          	clr	d2

00002aa6 <.LVL557>:
    2aa6:	cc 4b fa    	jmp	24f1 <.L0_111>

00002aa9 <.L444>:
    2aa9:	08          	clr	d2

00002aaa <.LVL559>:
    2aaa:	cc f7 fa    	jmp	25a1 <.L0_116>

00002aad <.L202>:
    2aad:	3e          	mov	sp,a2
    2aae:	fa d2 98 00 	add	152,a2
    2ab2:	4b 0c       	mov	a2,(12,sp)
    2ab4:	fa b4 48 05 	mov	(1352,sp),d0
    2ab8:	fa b5 4c 05 	mov	(1356,sp),d1
    2abc:	dd 5a 39 00 	call	6416 <___sprint_r>,[],0
    2ac0:	00 00 00 

00002ac3 <.LVL561>:
    2ac3:	a0 00       	cmp	0,d0
    2ac5:	c8 05       	beq	2aca <.L0_163>
    2ac7:	cc da ef    	jmp	1aa1 <.L18>

00002aca <.L0_163>:
    2aca:	5e 7c       	mov	(124,sp),a2

00002acc <.Loc.1552.1>:
    2acc:	3d          	mov	sp,a1
    2acd:	fa d1 34 01 	add	308,a1
    2ad1:	5b a0       	mov	(160,sp),d3
    2ad3:	cc d9 fe    	jmp	29ac <.L203>

00002ad6 <.L252>:
    2ad6:	3c          	mov	sp,a0
    2ad7:	fa d0 98 00 	add	152,a0
    2adb:	f1 d0       	mov	a0,d0
    2add:	cc bc f8    	jmp	2399 <.L407>

00002ae0 <.L79>:
    2ae0:	80 03       	mov	3,d0
    2ae2:	42 10       	mov	d0,(16,sp)
    2ae4:	4e 14       	mov	d3,(20,sp)

00002ae6 <.Loc.1164.1>:
    2ae6:	3c          	mov	sp,a0
    2ae7:	20 7c       	add	124,a0

00002ae9 <.Loc.1715.1>:
    2ae9:	43 18       	mov	a0,(24,sp)
    2aeb:	3c          	mov	sp,a0
    2aec:	fa d0 80 00 	add	128,a0
    2af0:	43 1c       	mov	a0,(28,sp)
    2af2:	3c          	mov	sp,a0
    2af3:	fa d0 84 00 	add	132,a0
    2af7:	43 20       	mov	a0,(32,sp)
    2af9:	4a 0c       	mov	d2,(12,sp)
    2afb:	f1 d9       	mov	a2,d1
    2afd:	fa b4 48 05 	mov	(1352,sp),d0
    2b01:	47 24       	mov	a1,(36,sp)
    2b03:	dd 83 08 00 	call	3386 <__dtoa_r>,[],0
    2b07:	00 00 00 

00002b0a <.LVL564>:
    2b0a:	43 40       	mov	a0,(64,sp)

00002b0c <.LVL565>:
    2b0c:	93          	mov	a0,a3
    2b0d:	f1 6f       	add	d3,a3

00002b0f <.LVL566>:
    2b0f:	4e 30       	mov	d3,(48,sp)
    2b11:	5d 24       	mov	(36,sp),a1

00002b13 <.L267>:
    2b13:	5c 40       	mov	(64,sp),a0
    2b15:	f0 40       	movbu	(a0),d0
    2b17:	a0 30       	cmp	48,d0
    2b19:	c8 2e       	beq	2b47 <.L86>

00002b1b <.L402>:
    2b1b:	58 7c       	mov	(124,sp),d0

00002b1d <.Loc.1722.1>:
    2b1d:	f1 63       	add	d0,a3
    2b1f:	cc 01 fd    	jmp	2820 <.L0_140>

00002b22 <.L451>:
    2b22:	5f 84       	mov	(132,sp),a3

00002b24 <.LVL570>:
    2b24:	cc 25 fd    	jmp	2849 <.L84>

00002b27 <.L454>:
    2b27:	9a 00       	mov	0,a2
    2b29:	4b 30       	mov	a2,(48,sp)
    2b2b:	f8 b8 79    	movbu	(121,sp),d0

00002b2e <.LBB36>:
    2b2e:	fa 99 54 05 	mov	d2,(1364,sp)

00002b32 <.Loc.790.1>:
    2b32:	9f 00       	mov	0,a3
    2b34:	4f 50       	mov	a3,(80,sp)

00002b36 <.Loc.795.1>:
    2b36:	4f 60       	mov	a3,(96,sp)
    2b38:	cc 47 ff    	jmp	2a7f <.L456>

00002b3b <.L76>:
    2b3b:	af 00       	cmp	0,d3
    2b3d:	c8 05       	beq	2b42 <.L0_164>
    2b3f:	cc 59 fc    	jmp	2798 <.L0_133>

00002b42 <.L0_164>:
    2b42:	8f 01       	mov	1,d3

00002b44 <.LVL573>:
    2b44:	cc 54 fc    	jmp	2798 <.L0_133>

00002b47 <.L86>:
    2b47:	00          	clr	d0
    2b48:	42 0c       	mov	d0,(12,sp)
    2b4a:	42 10       	mov	d0,(16,sp)
    2b4c:	f1 d8       	mov	a2,d0
    2b4e:	89          	mov	d2,d1
    2b4f:	47 24       	mov	a1,(36,sp)
    2b51:	dd 24 62 00 	call	8d75 <___nedf2>,[],0
    2b55:	00 00 00 
    2b58:	5d 24       	mov	(36,sp),a1
    2b5a:	a0 00       	cmp	0,d0
    2b5c:	c8 bf       	beq	2b1b <.L402>

00002b5e <.Loc.1721.1>:
    2b5e:	80 01       	mov	1,d0
    2b60:	59 30       	mov	(48,sp),d1
    2b62:	f1 04       	sub	d1,d0
    2b64:	42 7c       	mov	d0,(124,sp)

00002b66 <.Loc.1722.1>:
    2b66:	f1 63       	add	d0,a3
    2b68:	cc b8 fc    	jmp	2820 <.L0_140>

00002b6b <.L423>:
    2b6b:	8a ff       	mov	-1,d2
    2b6d:	4a 3c       	mov	d2,(60,sp)
    2b6f:	cc a9 ee    	jmp	1a18 <.L0_29>

00002b72 <.L209>:
    2b72:	3c          	mov	sp,a0
    2b73:	fa d0 98 00 	add	152,a0
    2b77:	43 0c       	mov	a0,(12,sp)
    2b79:	fa b4 48 05 	mov	(1352,sp),d0
    2b7d:	fa b5 4c 05 	mov	(1356,sp),d1
    2b81:	47 24       	mov	a1,(36,sp)
    2b83:	dd 93 38 00 	call	6416 <___sprint_r>,[],0
    2b87:	00 00 00 

00002b8a <.LVL579>:
    2b8a:	5d 24       	mov	(36,sp),a1
    2b8c:	a0 00       	cmp	0,d0
    2b8e:	c8 05       	beq	2b93 <.L0_165>
    2b90:	cc 11 ef    	jmp	1aa1 <.L18>

00002b93 <.L0_165>:
    2b93:	3e          	mov	sp,a2

00002b94 <.LVL580>:
    2b94:	fa d2 34 01 	add	308,a2
    2b98:	59 a0       	mov	(160,sp),d1
    2b9a:	5a 9c       	mov	(156,sp),d2
    2b9c:	cc 70 fe    	jmp	2a0c <.L210>

00002b9f <.L430>:
    2b9f:	49          	inc	a2

00002ba0 <.LVL582>:
    2ba0:	5a 28       	mov	(40,sp),d2
    2ba2:	f8 e6 20    	or	32,d2
    2ba5:	4a 28       	mov	d2,(40,sp)

00002ba7 <.LVL583>:
    2ba7:	f8 48 01    	movbu	(1,a0),d2

00002baa <.LVL584>:
    2baa:	49          	inc	a2

00002bab <.LVL585>:
    2bab:	cc df eb    	jmp	178a <.L381>

00002bae <.L193>:
    2bae:	3c          	mov	sp,a0
    2baf:	fa d0 98 00 	add	152,a0
    2bb3:	43 0c       	mov	a0,(12,sp)
    2bb5:	fa b4 48 05 	mov	(1352,sp),d0
    2bb9:	fa b5 4c 05 	mov	(1356,sp),d1
    2bbd:	dd 59 38 00 	call	6416 <___sprint_r>,[],0
    2bc1:	00 00 00 

00002bc4 <.LVL587>:
    2bc4:	a0 00       	cmp	0,d0
    2bc6:	c8 05       	beq	2bcb <.L0_166>
    2bc8:	cc d9 ee    	jmp	1aa1 <.L18>

00002bcb <.L0_166>:
    2bcb:	3d          	mov	sp,a1
    2bcc:	fa d1 34 01 	add	308,a1
    2bd0:	5b a0       	mov	(160,sp),d3
    2bd2:	cc 5d f6    	jmp	222f <.L194>

00002bd5 <.L438>:
    2bd5:	3c          	mov	sp,a0

00002bd6 <.LVL589>:
    2bd6:	fa d0 cc 00 	add	204,a0
    2bda:	5e 40       	mov	(64,sp),a2
    2bdc:	f1 38       	sub	a2,a0
    2bde:	43 34       	mov	a0,(52,sp)
    2be0:	cc d6 f0    	jmp	1cb6 <.L155>

00002be3 <.L133>:
    2be3:	58 40       	mov	(64,sp),d0
    2be5:	47 24       	mov	a1,(36,sp)
    2be7:	dd ec 37 00 	call	63d3 <_strlen>,[],0
    2beb:	00 00 00 

00002bee <.LVL591>:
    2bee:	42 34       	mov	d0,(52,sp)

00002bf0 <.LVL592>:
    2bf0:	42 30       	mov	d0,(48,sp)
    2bf2:	5d 24       	mov	(36,sp),a1
    2bf4:	a0 00       	cmp	0,d0
    2bf6:	c0 1a       	blt	2c10 <.L457>
    2bf8:	f8 b8 79    	movbu	(121,sp),d0

00002bfb <.LVL593>:
    2bfb:	fa 99 54 05 	mov	d2,(1364,sp)

00002bff <.Loc.790.1>:
    2bff:	9a 00       	mov	0,a2

00002c01 <.LVL594>:
    2c01:	4b 50       	mov	a2,(80,sp)

00002c03 <.Loc.795.1>:
    2c03:	4b 60       	mov	a2,(96,sp)

00002c05 <.L458>:
    2c05:	14          	extbu	d0
    2c06:	a0 00       	cmp	0,d0
    2c08:	c8 05       	beq	2c0d <.L0_167>
    2c0a:	cc c6 f0    	jmp	1cd0 <.L0_49>

00002c0d <.L0_167>:
    2c0d:	cc ad eb    	jmp	17ba <.L160>

00002c10 <.L457>:
    2c10:	90 00       	mov	0,a0
    2c12:	43 30       	mov	a0,(48,sp)
    2c14:	f8 b8 79    	movbu	(121,sp),d0

00002c17 <.LVL597>:
    2c17:	fa 99 54 05 	mov	d2,(1364,sp)

00002c1b <.Loc.790.1>:
    2c1b:	9a 00       	mov	0,a2

00002c1d <.LVL598>:
    2c1d:	4b 50       	mov	a2,(80,sp)

00002c1f <.Loc.795.1>:
    2c1f:	4b 60       	mov	a2,(96,sp)
    2c21:	ca e4       	bra	2c05 <.L458>

00002c23 <.L418>:
    2c23:	fc dc 00 97 	mov	38656,a0
    2c27:	00 00 
    2c29:	43 64       	mov	a0,(100,sp)
    2c2b:	cc f3 eb    	jmp	181e <.L163>

00002c2e <.L216>:
    2c2e:	3c          	mov	sp,a0
    2c2f:	fa d0 98 00 	add	152,a0
    2c33:	43 0c       	mov	a0,(12,sp)
    2c35:	fa b4 48 05 	mov	(1352,sp),d0
    2c39:	fa b5 4c 05 	mov	(1356,sp),d1
    2c3d:	dd d9 37 00 	call	6416 <___sprint_r>,[],0
    2c41:	00 00 00 

00002c44 <.LVL601>:
    2c44:	a0 00       	cmp	0,d0
    2c46:	c8 05       	beq	2c4b <.L0_168>
    2c48:	cc 59 ee    	jmp	1aa1 <.L18>

00002c4b <.L0_168>:
    2c4b:	3d          	mov	sp,a1
    2c4c:	fa d1 34 01 	add	308,a1
    2c50:	5b a0       	mov	(160,sp),d3

00002c52 <.LVL602>:
    2c52:	aa 00       	cmp	0,d2
    2c54:	c0 05       	blt	2c59 <.L0_169>
    2c56:	cc 9b f8    	jmp	24f1 <.L0_111>

00002c59 <.L0_169>:
    2c59:	cc 4c fe    	jmp	2aa5 <.L443>

00002c5c <.L226>:
    2c5c:	3c          	mov	sp,a0
    2c5d:	fa d0 98 00 	add	152,a0
    2c61:	43 0c       	mov	a0,(12,sp)
    2c63:	fa b4 48 05 	mov	(1352,sp),d0
    2c67:	fa b5 4c 05 	mov	(1356,sp),d1
    2c6b:	dd ab 37 00 	call	6416 <___sprint_r>,[],0
    2c6f:	00 00 00 

00002c72 <.LVL604>:
    2c72:	a0 00       	cmp	0,d0
    2c74:	c8 05       	beq	2c79 <.L0_170>
    2c76:	cc 2b ee    	jmp	1aa1 <.L18>

00002c79 <.L0_170>:
    2c79:	59 7c       	mov	(124,sp),d1

00002c7b <.Loc.1582.1>:
    2c7b:	3d          	mov	sp,a1
    2c7c:	fa d1 34 01 	add	308,a1
    2c80:	5b a0       	mov	(160,sp),d3
    2c82:	cc ef f8    	jmp	2571 <.L225>

00002c85 <.L420>:
    2c85:	fc dc 00 97 	mov	38656,a0
    2c89:	00 00 
    2c8b:	43 64       	mov	a0,(100,sp)

00002c8d <.LBE39>:
    2c8d:	5e 64       	mov	(100,sp),a2

00002c8f <.LVL606>:
    2c8f:	f0 19       	mov	a2,(a1)
    2c91:	f8 3d 04    	mov	a3,(4,a1)
    2c94:	f1 5f       	add	a3,d3
    2c96:	4e a0       	mov	d3,(160,sp)

00002c98 <.LVL607>:
    2c98:	48          	inc	d2
    2c99:	4a 9c       	mov	d2,(156,sp)
    2c9b:	aa 07       	cmp	7,d2
    2c9d:	c1 05       	bgt	2ca2 <.L0_171>
    2c9f:	cc bc ec    	jmp	195b <.L0_25>

00002ca2 <.L0_171>:
    2ca2:	cc 28 ef    	jmp	1bca <.L421>

00002ca5 <.L229>:
    2ca5:	3e          	mov	sp,a2
    2ca6:	fa d2 98 00 	add	152,a2
    2caa:	4b 0c       	mov	a2,(12,sp)
    2cac:	fa b4 48 05 	mov	(1352,sp),d0
    2cb0:	fa b5 4c 05 	mov	(1356,sp),d1
    2cb4:	dd 62 37 00 	call	6416 <___sprint_r>,[],0
    2cb8:	00 00 00 

00002cbb <.LVL609>:
    2cbb:	a0 00       	cmp	0,d0
    2cbd:	c8 05       	beq	2cc2 <.L0_172>
    2cbf:	cc e2 ed    	jmp	1aa1 <.L18>

00002cc2 <.L0_172>:
    2cc2:	58 7c       	mov	(124,sp),d0
    2cc4:	5e 4c       	mov	(76,sp),a2
    2cc6:	f1 22       	sub	d0,a2

00002cc8 <.Loc.1583.1>:
    2cc8:	3d          	mov	sp,a1
    2cc9:	fa d1 34 01 	add	308,a1
    2ccd:	5b a0       	mov	(160,sp),d3

00002ccf <.LVL610>:
    2ccf:	aa 00       	cmp	0,d2
    2cd1:	c0 05       	blt	2cd6 <.L0_173>
    2cd3:	cc ce f8    	jmp	25a1 <.L0_116>

00002cd6 <.L0_173>:
    2cd6:	cc d3 fd    	jmp	2aa9 <.L444>

00002cd9 <.L426>:
    2cd9:	4e 34       	mov	d3,(52,sp)
    2cdb:	af 06       	cmp	6,d3
    2cdd:	c7 1d       	bls	2cfa <.L131>
    2cdf:	9f 06       	mov	6,a3
    2ce1:	4f 34       	mov	a3,(52,sp)
    2ce3:	4f 30       	mov	a3,(48,sp)

00002ce5 <.L132>:
    2ce5:	fa 99 54 05 	mov	d2,(1364,sp)

00002ce9 <.Loc.1283.1>:
    2ce9:	fc de 90 95 	mov	38288,a2
    2ced:	00 00 
    2cef:	4b 40       	mov	a2,(64,sp)

00002cf1 <.L459>:
    2cf1:	9a 00       	mov	0,a2
    2cf3:	4b 50       	mov	a2,(80,sp)
    2cf5:	4b 60       	mov	a2,(96,sp)
    2cf7:	cc c3 ea    	jmp	17ba <.L160>

00002cfa <.L131>:
    2cfa:	5c 34       	mov	(52,sp),a0
    2cfc:	43 30       	mov	a0,(48,sp)
    2cfe:	b0 00       	cmp	0,a0
    2d00:	c2 e5       	bge	2ce5 <.L132>
    2d02:	5e 40       	mov	(64,sp),a2
    2d04:	4b 30       	mov	a2,(48,sp)

00002d06 <.Loc.1276.1>:
    2d06:	fa 99 54 05 	mov	d2,(1364,sp)

00002d0a <.Loc.1283.1>:
    2d0a:	fc de 90 95 	mov	38288,a2
    2d0e:	00 00 
    2d10:	4b 40       	mov	a2,(64,sp)
    2d12:	ca df       	bra	2cf1 <.L459>

00002d14 <.L223>:
    2d14:	3c          	mov	sp,a0
    2d15:	fa d0 98 00 	add	152,a0
    2d19:	43 0c       	mov	a0,(12,sp)
    2d1b:	fa b4 48 05 	mov	(1352,sp),d0
    2d1f:	fa b5 4c 05 	mov	(1356,sp),d1
    2d23:	dd f3 36 00 	call	6416 <___sprint_r>,[],0
    2d27:	00 00 00 

00002d2a <.LVL615>:
    2d2a:	a0 00       	cmp	0,d0
    2d2c:	c8 05       	beq	2d31 <.L0_174>
    2d2e:	cc 73 ed    	jmp	1aa1 <.L18>

00002d31 <.L0_174>:
    2d31:	3d          	mov	sp,a1
    2d32:	fa d1 34 01 	add	308,a1
    2d36:	5b a0       	mov	(160,sp),d3
    2d38:	cc 09 f8    	jmp	2541 <.L218>

00002d3b <.L120>:
    2d3b:	f8 b8 79    	movbu	(121,sp),d0

00002d3e <.LBE26>:
    2d3e:	5a 44       	mov	(68,sp),d2
    2d40:	4a 28       	mov	d2,(40,sp)

00002d42 <.Loc.790.1>:
    2d42:	46 50       	mov	d1,(80,sp)

00002d44 <.LVL617>:
    2d44:	14          	extbu	d0
    2d45:	a0 00       	cmp	0,d0
    2d47:	c8 05       	beq	2d4c <.L0_175>
    2d49:	cc 87 ef    	jmp	1cd0 <.L0_49>

00002d4c <.L0_175>:
    2d4c:	cc 6e ea    	jmp	17ba <.L160>

00002d4f <.L277>:
    2d4f:	fc de 6a 95 	mov	38250,a2
    2d53:	00 00 
    2d55:	4b 40       	mov	a2,(64,sp)

00002d57 <.LVL620>:
    2d57:	5a 28       	mov	(40,sp),d2
    2d59:	fc e2 7f ff 	and	-129,d2
    2d5d:	ff ff 
    2d5f:	4a 28       	mov	d2,(40,sp)

00002d61 <.LVL621>:
    2d61:	f8 b8 79    	movbu	(121,sp),d0
    2d64:	cc f4 fc    	jmp	2a58 <.L460>

00002d67 <.L69>:
    2d67:	80 2d       	mov	45,d0
    2d69:	f8 92 79    	movbu	d0,(121,sp)

00002d6c <.Loc.1086.1>:
    2d6c:	5a 54       	mov	(84,sp),d2
    2d6e:	aa 47       	cmp	71,d2
    2d70:	c3 05       	ble	2d75 <.L0_176>
    2d72:	cc 18 fd    	jmp	2a8a <.L276>

00002d75 <.L0_176>:
    2d75:	cc b5 f0    	jmp	1e2a <.L0_60>

00002d78 <.L90>:
    2d78:	59 7c       	mov	(124,sp),d1
    2d7a:	84          	mov	d1,d0

00002d7b <.LVL624>:
    2d7b:	a5 fd       	cmp	-3,d1
    2d7d:	c0 2c       	blt	2da9 <.L92>

00002d7f <.Loc.1168.1>:
    2d7f:	a7          	cmp	d1,d3
    2d80:	c0 29       	blt	2da9 <.L92>

00002d82 <.Loc.1196.1>:
    2d82:	5e 4c       	mov	(76,sp),a2
    2d84:	f1 99       	cmp	a2,d1
    2d86:	c2 05       	bge	2d8b <.L0_177>
    2d88:	cc fb 00    	jmp	2e83 <.L114>

00002d8b <.L0_177>:
    2d8b:	5a 28       	mov	(40,sp),d2
    2d8d:	f8 e2 01    	and	1,d2
    2d90:	c8 05       	beq	2d95 <.L0_178>
    2d92:	cc be 01    	jmp	2f50 <.L115>

00002d95 <.L0_178>:
    2d95:	46 30       	mov	d1,(48,sp)
    2d97:	a5 00       	cmp	0,d1
    2d99:	c2 05       	bge	2d9e <.L0_179>
    2d9b:	cc 6f 02    	jmp	300a <.L462>

00002d9e <.L0_179>:
    2d9e:	42 34       	mov	d0,(52,sp)

00002da0 <.LVL626>:
    2da0:	8a 67       	mov	103,d2
    2da2:	4a 54       	mov	d2,(84,sp)

00002da4 <.L473>:
    2da4:	46 60       	mov	d1,(96,sp)
    2da6:	cc e4 fa    	jmp	288a <.L105>

00002da9 <.L92>:
    2da9:	5a 54       	mov	(84,sp),d2
    2dab:	2a fe       	add	-2,d2
    2dad:	4a 54       	mov	d2,(84,sp)

00002daf <.L94>:
    2daf:	28 ff       	add	-1,d0
    2db1:	42 7c       	mov	d0,(124,sp)

00002db3 <.LBB42>:
    2db3:	5a 54       	mov	(84,sp),d2

00002db5 <.LVL631>:
    2db5:	f8 9a 8a    	movbu	d2,(138,sp)

00002db8 <.LVL632>:
    2db8:	f8 ea 06    	bnc	2dbe <.L0_180>
    2dbb:	cc 0a 02    	jmp	2fc5 <.L463>

00002dbe <.L0_180>:
    2dbe:	85 2b       	mov	43,d1
    2dc0:	f8 96 8b    	movbu	d1,(139,sp)

00002dc3 <.L97>:
    2dc3:	a0 09       	cmp	9,d0
    2dc5:	c3 05       	ble	2dca <.L0_181>
    2dc7:	cc e3 00    	jmp	2eaa <.L464>

00002dca <.L0_181>:
    2dca:	85 30       	mov	48,d1
    2dcc:	f8 96 8c    	movbu	d1,(140,sp)

00002dcf <.LVL634>:
    2dcf:	28 30       	add	48,d0

00002dd1 <.LVL635>:
    2dd1:	f8 92 8d    	movbu	d0,(141,sp)

00002dd4 <.LVL636>:
    2dd4:	3c          	mov	sp,a0
    2dd5:	fa d0 8e 00 	add	142,a0
    2dd9:	f1 d0       	mov	a0,d0

00002ddb <.LVL637>:
    2ddb:	3c          	mov	sp,a0
    2ddc:	fa d0 8a 00 	add	138,a0

00002de0 <.Loc.1765.1>:
    2de0:	f1 10       	sub	a0,d0

00002de2 <.LVL638>:
    2de2:	42 70       	mov	d0,(112,sp)

00002de4 <.LBE42>:
    2de4:	5e 4c       	mov	(76,sp),a2
    2de6:	f1 62       	add	d0,a2
    2de8:	4b 34       	mov	a2,(52,sp)

00002dea <.LVL640>:
    2dea:	5f 4c       	mov	(76,sp),a3
    2dec:	bf 01       	cmp	1,a3
    2dee:	c3 14       	ble	2e02 <.L465>

00002df0 <.L103>:
    2df0:	5c 34       	mov	(52,sp),a0
    2df2:	20 01       	add	1,a0
    2df4:	43 34       	mov	a0,(52,sp)

00002df6 <.LVL642>:
    2df6:	43 30       	mov	a0,(48,sp)
    2df8:	f8 eb 20    	bns	2e18 <.L466>

00002dfb <.Loc.795.1>:
    2dfb:	9f 00       	mov	0,a3
    2dfd:	4f 60       	mov	a3,(96,sp)
    2dff:	cc 8b fa    	jmp	288a <.L105>

00002e02 <.L465>:
    2e02:	58 28       	mov	(40,sp),d0
    2e04:	f8 e0 01    	and	1,d0
    2e07:	c9 e9       	bne	2df0 <.L103>
    2e09:	4b 30       	mov	a2,(48,sp)
    2e0b:	ba 00       	cmp	0,a2
    2e0d:	c2 05       	bge	2e12 <.L0_182>
    2e0f:	cc f3 01    	jmp	3002 <.L467>

00002e12 <.L0_182>:
    2e12:	08          	clr	d2
    2e13:	4a 60       	mov	d2,(96,sp)
    2e15:	cc 75 fa    	jmp	288a <.L105>

00002e18 <.L466>:
    2e18:	9a 00       	mov	0,a2
    2e1a:	4b 30       	mov	a2,(48,sp)
    2e1c:	9f 00       	mov	0,a3
    2e1e:	4f 60       	mov	a3,(96,sp)
    2e20:	cc 6a fa    	jmp	288a <.L105>

00002e23 <.L427>:
    2e23:	4e 30       	mov	d3,(48,sp)
    2e25:	f8 b8 79    	movbu	(121,sp),d0

00002e28 <.LBB48>:
    2e28:	4e 34       	mov	d3,(52,sp)

00002e2a <.Loc.1276.1>:
    2e2a:	fa 99 54 05 	mov	d2,(1364,sp)

00002e2e <.Loc.790.1>:
    2e2e:	43 50       	mov	a0,(80,sp)

00002e30 <.Loc.795.1>:
    2e30:	43 60       	mov	a0,(96,sp)

00002e32 <.LBE48>:
    2e32:	14          	extbu	d0
    2e33:	a0 00       	cmp	0,d0
    2e35:	c8 05       	beq	2e3a <.L0_183>
    2e37:	cc 99 ee    	jmp	1cd0 <.L0_49>

00002e3a <.L0_183>:
    2e3a:	cc 80 e9    	jmp	17ba <.L160>

00002e3d <.L205>:
    2e3d:	3c          	mov	sp,a0
    2e3e:	fa d0 98 00 	add	152,a0
    2e42:	43 0c       	mov	a0,(12,sp)
    2e44:	fa b4 48 05 	mov	(1352,sp),d0
    2e48:	fa b5 4c 05 	mov	(1356,sp),d1
    2e4c:	dd ca 35 00 	call	6416 <___sprint_r>,[],0
    2e50:	00 00 00 

00002e53 <.LVL649>:
    2e53:	a0 00       	cmp	0,d0
    2e55:	c8 05       	beq	2e5a <.L0_184>
    2e57:	cc 4a ec    	jmp	1aa1 <.L18>

00002e5a <.L0_184>:
    2e5a:	5e 7c       	mov	(124,sp),a2

00002e5c <.Loc.1554.1>:
    2e5c:	3d          	mov	sp,a1
    2e5d:	fa d1 34 01 	add	308,a1
    2e61:	5b a0       	mov	(160,sp),d3
    2e63:	5a 9c       	mov	(156,sp),d2
    2e65:	cc 75 fb    	jmp	29da <.L206>

00002e68 <.L278>:
    2e68:	8f 06       	mov	6,d3

00002e6a <.LVL651>:
    2e6a:	cc 2e f9    	jmp	2798 <.L0_133>

00002e6d <.L450>:
    2e6d:	fc c2 00 00 	add	-2147483648,d2
    2e71:	00 80 

00002e73 <.LVL653>:
    2e73:	80 2d       	mov	45,d0
    2e75:	f8 92 48    	movbu	d0,(72,sp)
    2e78:	cc 33 f9    	jmp	27ab <.L77>

00002e7b <.L80>:
    2e7b:	f1 ef       	mov	d3,a3
    2e7d:	4d          	inc	a3
    2e7e:	4f 30       	mov	a3,(48,sp)

00002e80 <.LVL655>:
    2e80:	cc 4b f9    	jmp	27cb <.L81>

00002e83 <.L114>:
    2e83:	a5 00       	cmp	0,d1
    2e85:	c1 05       	bgt	2e8a <.L0_185>
    2e87:	cc e2 00    	jmp	2f69 <.L468>

00002e8a <.L0_185>:
    2e8a:	80 01       	mov	1,d0

00002e8c <.Loc.1201.1>:
    2e8c:	5e 4c       	mov	(76,sp),a2
    2e8e:	f1 62       	add	d0,a2
    2e90:	4b 34       	mov	a2,(52,sp)

00002e92 <.LVL657>:
    2e92:	4b 30       	mov	a2,(48,sp)
    2e94:	f8 eb 0c    	bns	2ea0 <.L469>

00002e97 <.L119>:
    2e97:	8a 67       	mov	103,d2
    2e99:	4a 54       	mov	d2,(84,sp)

00002e9b <.L470>:
    2e9b:	46 60       	mov	d1,(96,sp)
    2e9d:	cc ed f9    	jmp	288a <.L105>

00002ea0 <.L469>:
    2ea0:	9f 00       	mov	0,a3
    2ea2:	4f 30       	mov	a3,(48,sp)

00002ea4 <.Loc.1201.1>:
    2ea4:	8a 67       	mov	103,d2
    2ea6:	4a 54       	mov	d2,(84,sp)
    2ea8:	ca f3       	bra	2e9b <.L470>

00002eaa <.L464>:
    2eaa:	3e          	mov	sp,a2
    2eab:	fa d2 98 00 	add	152,a2

00002eaf <.L99>:
    2eaf:	22 ff       	add	-1,a2
    2eb1:	fc ce 67 66 	mov	1717986919,d2
    2eb5:	66 66 
    2eb7:	cb          	nop	
    2eb8:	cb          	nop	
    2eb9:	f2 42       	mul	d0,d2
    2ebb:	f2 e1       	mov	mdr,d1
    2ebd:	f8 c9 02    	asr	2,d1
    2ec0:	82          	mov	d0,d2
    2ec1:	f8 ca 1f    	asr	31,d2
    2ec4:	f1 09       	sub	d2,d1
    2ec6:	f1 e4       	mov	d1,a0
    2ec8:	f1 70       	add	a0,a0
    2eca:	86          	mov	d1,d2
    2ecb:	56          	asl2	d2
    2ecc:	ea          	add	d2,d2
    2ecd:	f1 68       	add	d2,a0
    2ecf:	f1 10       	sub	a0,d0

00002ed1 <.LVL664>:
    2ed1:	28 30       	add	48,d0
    2ed3:	f0 52       	movbu	d0,(a2)

00002ed5 <.Loc.1756.1>:
    2ed5:	84          	mov	d1,d0

00002ed6 <.LVL665>:
    2ed6:	a5 09       	cmp	9,d1
    2ed8:	c1 d7       	bgt	2eaf <.L99>

00002eda <.Loc.1757.1>:
    2eda:	9b          	mov	a2,a3
    2edb:	23 ff       	add	-1,a3

00002edd <.LVL666>:
    2edd:	28 30       	add	48,d0

00002edf <.LVL667>:
    2edf:	81          	mov	d0,d1

00002ee0 <.LVL668>:
    2ee0:	f8 52 ff    	movbu	d0,(-1,a2)

00002ee3 <.Loc.1758.1>:
    2ee3:	3c          	mov	sp,a0
    2ee4:	fa d0 98 00 	add	152,a0
    2ee8:	b3          	cmp	a0,a3
    2ee9:	c4 05       	bcs	2eee <.L0_186>
    2eeb:	cc f1 00    	jmp	2fdc <.L283>

00002eee <.L0_186>:
    2eee:	3c          	mov	sp,a0
    2eef:	fa d0 9b 00 	add	155,a0
    2ef3:	f1 d0       	mov	a0,d0

00002ef5 <.LVL669>:
    2ef5:	f1 18       	sub	a2,d0
    2ef7:	3c          	mov	sp,a0
    2ef8:	fa d0 8a 00 	add	138,a0
    2efc:	f1 50       	add	a0,d0
    2efe:	3c          	mov	sp,a0
    2eff:	fa d0 8c 00 	add	140,a0

00002f03 <.L102>:
    2f03:	f0 54       	movbu	d1,(a0)
    2f05:	41          	inc	a0

00002f06 <.LVL671>:
    2f06:	f1 a0       	cmp	d0,a0
    2f08:	c8 1d       	beq	2f25 <.L471>
    2f0a:	f8 47 01    	movbu	(1,a3),d1
    2f0d:	4d          	inc	a3
    2f0e:	ca f5       	bra	2f03 <.L102>

00002f10 <.L108>:
    2f10:	8c          	mov	d3,d0
    2f11:	40          	inc	d0
    2f12:	e4          	add	d1,d0
    2f13:	42 34       	mov	d0,(52,sp)

00002f15 <.LVL673>:
    2f15:	42 30       	mov	d0,(48,sp)
    2f17:	f8 eb 06    	bns	2f1d <.L0_187>
    2f1a:	cc 6e f9    	jmp	2888 <.L110>

00002f1d <.L0_187>:
    2f1d:	08          	clr	d2

00002f1e <.LVL674>:
    2f1e:	4a 30       	mov	d2,(48,sp)

00002f20 <.LVL675>:
    2f20:	46 60       	mov	d1,(96,sp)
    2f22:	cc 68 f9    	jmp	288a <.L105>

00002f25 <.L471>:
    2f25:	3c          	mov	sp,a0

00002f26 <.LVL677>:
    2f26:	fa d0 99 00 	add	153,a0
    2f2a:	f1 d0       	mov	a0,d0
    2f2c:	f1 18       	sub	a2,d0
    2f2e:	3e          	mov	sp,a2
    2f2f:	fa d2 8c 00 	add	140,a2
    2f33:	f1 58       	add	a2,d0

00002f35 <.LVL678>:
    2f35:	3c          	mov	sp,a0
    2f36:	fa d0 8a 00 	add	138,a0

00002f3a <.Loc.1765.1>:
    2f3a:	f1 10       	sub	a0,d0

00002f3c <.LVL679>:
    2f3c:	42 70       	mov	d0,(112,sp)

00002f3e <.LBE45>:
    2f3e:	5e 4c       	mov	(76,sp),a2
    2f40:	f1 62       	add	d0,a2
    2f42:	4b 34       	mov	a2,(52,sp)

00002f44 <.LVL681>:
    2f44:	5f 4c       	mov	(76,sp),a3
    2f46:	bf 01       	cmp	1,a3
    2f48:	c3 05       	ble	2f4d <.L0_188>
    2f4a:	cc a6 fe    	jmp	2df0 <.L103>

00002f4d <.L0_188>:
    2f4d:	cc b5 fe    	jmp	2e02 <.L465>

00002f50 <.L115>:
    2f50:	f1 e4       	mov	d1,a0
    2f52:	20 01       	add	1,a0
    2f54:	43 34       	mov	a0,(52,sp)

00002f56 <.LVL683>:
    2f56:	43 30       	mov	a0,(48,sp)
    2f58:	f8 eb 06    	bns	2f5e <.L0_189>
    2f5b:	cc 3c ff    	jmp	2e97 <.L119>

00002f5e <.L0_189>:
    2f5e:	9a 00       	mov	0,a2
    2f60:	4b 30       	mov	a2,(48,sp)

00002f62 <.Loc.1201.1>:
    2f62:	8a 67       	mov	103,d2
    2f64:	4a 54       	mov	d2,(84,sp)
    2f66:	cc 35 ff    	jmp	2e9b <.L470>

00002f69 <.L468>:
    2f69:	80 02       	mov	2,d0
    2f6b:	f1 04       	sub	d1,d0

00002f6d <.Loc.1201.1>:
    2f6d:	5e 4c       	mov	(76,sp),a2
    2f6f:	f1 62       	add	d0,a2
    2f71:	4b 34       	mov	a2,(52,sp)

00002f73 <.LVL685>:
    2f73:	4b 30       	mov	a2,(48,sp)
    2f75:	f8 eb 06    	bns	2f7b <.L0_190>
    2f78:	cc 1f ff    	jmp	2e97 <.L119>

00002f7b <.L0_190>:
    2f7b:	cc 25 ff    	jmp	2ea0 <.L469>

00002f7e <.L107>:
    2f7e:	af 00       	cmp	0,d3
    2f80:	c9 30       	bne	2fb0 <.L112>

00002f82 <.Loc.1193.1>:
    2f82:	58 28       	mov	(40,sp),d0
    2f84:	f8 e0 01    	and	1,d0
    2f87:	c9 29       	bne	2fb0 <.L112>
    2f89:	90 01       	mov	1,a0
    2f8b:	43 30       	mov	a0,(48,sp)

00002f8d <.Loc.1195.1>:
    2f8d:	43 34       	mov	a0,(52,sp)

00002f8f <.LVL687>:
    2f8f:	46 60       	mov	d1,(96,sp)
    2f91:	cc f9 f8    	jmp	288a <.L105>

00002f94 <.L52>:
    2f94:	fa b5 54 05 	mov	(1364,sp),d1
    2f98:	29 04       	add	4,d1

00002f9a <.LVL689>:
    2f9a:	fa b3 54 05 	mov	(1364,sp),a3
    2f9e:	7f          	mov	(a3),d3
    2f9f:	f8 4a 01    	movbu	(1,a2),d2

00002fa2 <.LVL691>:
    2fa2:	92          	mov	a0,a2

00002fa3 <.LVL692>:
    2fa3:	fa 95 54 05 	mov	d1,(1364,sp)

00002fa7 <.Loc.914.1>:
    2fa7:	af 00       	cmp	0,d3
    2fa9:	c0 2c       	blt	2fd5 <.L472>
    2fab:	16          	extbu	d2

00002fac <.LVL693>:
    2fac:	49          	inc	a2
    2fad:	cc dd e7    	jmp	178a <.L381>

00002fb0 <.L112>:
    2fb0:	2b 02       	add	2,d3

00002fb2 <.LVL695>:
    2fb2:	4e 34       	mov	d3,(52,sp)
    2fb4:	4e 30       	mov	d3,(48,sp)
    2fb6:	f8 eb 06    	bns	2fbc <.L0_191>
    2fb9:	cc cf f8    	jmp	2888 <.L110>

00002fbc <.L0_191>:
    2fbc:	90 00       	mov	0,a0
    2fbe:	43 30       	mov	a0,(48,sp)

00002fc0 <.LVL696>:
    2fc0:	46 60       	mov	d1,(96,sp)
    2fc2:	cc c8 f8    	jmp	288a <.L105>

00002fc5 <.L463>:
    2fc5:	f2 30       	not	d0

00002fc7 <.LVL698>:
    2fc7:	40          	inc	d0

00002fc8 <.LVL699>:
    2fc8:	85 2d       	mov	45,d1
    2fca:	f8 96 8b    	movbu	d1,(139,sp)

00002fcd <.LVL700>:
    2fcd:	cc f6 fd    	jmp	2dc3 <.L97>

00002fd0 <.L452>:
    2fd0:	58 7c       	mov	(124,sp),d0
    2fd2:	cc dd fd    	jmp	2daf <.L94>

00002fd5 <.L472>:
    2fd5:	8f ff       	mov	-1,d3

00002fd7 <.LVL703>:
    2fd7:	16          	extbu	d2

00002fd8 <.LVL704>:
    2fd8:	49          	inc	a2
    2fd9:	cc b1 e7    	jmp	178a <.L381>

00002fdc <.L283>:
    2fdc:	3e          	mov	sp,a2
    2fdd:	fa d2 8c 00 	add	140,a2
    2fe1:	f1 d8       	mov	a2,d0

00002fe3 <.LVL706>:
    2fe3:	3c          	mov	sp,a0
    2fe4:	fa d0 8a 00 	add	138,a0

00002fe8 <.Loc.1765.1>:
    2fe8:	f1 10       	sub	a0,d0

00002fea <.LVL707>:
    2fea:	42 70       	mov	d0,(112,sp)

00002fec <.LBE47>:
    2fec:	5e 4c       	mov	(76,sp),a2

00002fee <.LVL709>:
    2fee:	f1 62       	add	d0,a2
    2ff0:	4b 34       	mov	a2,(52,sp)

00002ff2 <.LVL710>:
    2ff2:	5f 4c       	mov	(76,sp),a3

00002ff4 <.LVL711>:
    2ff4:	bf 01       	cmp	1,a3
    2ff6:	c3 05       	ble	2ffb <.L0_192>
    2ff8:	cc f8 fd    	jmp	2df0 <.L103>

00002ffb <.L0_192>:
    2ffb:	cc 07 fe    	jmp	2e02 <.L465>

00002ffe <.L282>:
    2ffe:	9b          	mov	a2,a3

00002fff <.LVL713>:
    2fff:	cc 4a f8    	jmp	2849 <.L84>

00003002 <.L467>:
    3002:	42 30       	mov	d0,(48,sp)

00003004 <.LBE32>:
    3004:	08          	clr	d2
    3005:	4a 60       	mov	d2,(96,sp)
    3007:	cc 83 f8    	jmp	288a <.L105>

0000300a <.L462>:
    300a:	4a 30       	mov	d2,(48,sp)

0000300c <.LVL716>:
    300c:	42 34       	mov	d0,(52,sp)
    300e:	8a 67       	mov	103,d2
    3010:	4a 54       	mov	d2,(84,sp)
    3012:	cc 92 fd    	jmp	2da4 <.L473>

00003015 <_vfprintf>:
    3015:	f8 fe ec    	add	-20,sp

00003018 <.LCFI2>:
    3018:	f1 e0       	mov	d0,a0

0000301a <.Loc.535.1>:
    301a:	46 0c       	mov	d1,(12,sp)
    301c:	58 20       	mov	(32,sp),d0

0000301e <.LVL718>:
    301e:	42 10       	mov	d0,(16,sp)
    3020:	fc a4 08 9c 	mov	(9c08 <__impure_ptr>),d0
    3024:	00 00 
    3026:	f1 d1       	mov	a0,d1

00003028 <.LVL719>:
    3028:	cd 55 e6 00 	call	167d <__vfprintf_r>,[],0
    302c:	00 

0000302d <.LVL720>:
    302d:	df 00 14    	ret	[],20

00003030 <___swsetup_r>:
    3030:	cf f0       	movm	[d2,d3,a2,a3],(sp)

00003032 <.LCFI0>:
    3032:	f8 fe f4    	add	-12,sp

00003035 <.LCFI1>:
    3035:	f1 e3       	mov	d0,a3
    3037:	f1 e6       	mov	d1,a2

00003039 <.Loc.39.1>:
    3039:	fc a0 08 9c 	mov	(9c08 <__impure_ptr>),a0
    303d:	00 00 
    303f:	b0 00       	cmp	0,a0
    3041:	c8 0c       	beq	304d <.L0_0>

00003043 <.Loc.39.1>:
    3043:	f8 00 38    	mov	(56,a0),d0

00003046 <.LVL1>:
    3046:	a0 00       	cmp	0,d0
    3048:	c9 05       	bne	304d <.L0_0>
    304a:	cc 84 00    	jmp	30ce <.L29>

0000304d <.L0_0>:
    304d:	f8 6a 0c    	movhu	(12,a2),d2
    3050:	89          	mov	d2,d1
    3051:	f8 e1 08    	and	8,d1
    3054:	19          	exth	d1
    3055:	a5 00       	cmp	0,d1
    3057:	c8 28       	beq	307f <.L3>
    3059:	f8 06 10    	mov	(16,a2),d1

0000305c <.Loc.70.1>:
    305c:	a5 00       	cmp	0,d1
    305e:	c9 05       	bne	3063 <.L0_1>
    3060:	cc b0 00    	jmp	3110 <.L30>

00003063 <.L0_1>:
    3063:	88          	mov	d2,d0
    3064:	f8 e0 01    	and	1,d0
    3067:	c9 3e       	bne	30a5 <.L31>

00003069 <.L12>:
    3069:	f8 e2 02    	and	2,d2
    306c:	1a          	exth	d2
    306d:	aa 00       	cmp	0,d2
    306f:	c9 05       	bne	3074 <.L14>

00003071 <.Loc.85.1>:
    3071:	f8 02 14    	mov	(20,a2),d0

00003074 <.L14>:
    3074:	f8 12 08    	mov	d0,(8,a2)

00003077 <.Loc.87.1>:
    3077:	a5 00       	cmp	0,d1
    3079:	c8 3d       	beq	30b6 <.L32>

0000307b <.L16>:
	...

0000307c <.L6>:
    307c:	df f0 1c    	ret	[d2,d3,a2,a3],28

0000307f <.L3>:
    307f:	88          	mov	d2,d0
    3080:	f8 e0 10    	and	16,d0
    3083:	18          	exth	d0
    3084:	a0 00       	cmp	0,d0
    3086:	c9 05       	bne	308b <.L0_2>
    3088:	cc b3 00    	jmp	313b <.L33>

0000308b <.L0_2>:
    308b:	88          	mov	d2,d0
    308c:	f8 e0 04    	and	4,d0
    308f:	18          	exth	d0
    3090:	a0 00       	cmp	0,d0
    3092:	c9 48       	bne	30da <.L7>
    3094:	f8 06 10    	mov	(16,a2),d1

00003097 <.Loc.62.1>:
    3097:	88          	mov	d2,d0
    3098:	f8 e4 08    	or	8,d0
    309b:	82          	mov	d0,d2
    309c:	f8 72 0c    	movhu	d0,(12,a2)

0000309f <.L34>:
    309f:	a5 00       	cmp	0,d1
    30a1:	c9 c2       	bne	3063 <.L0_1>
    30a3:	ca 6d       	bra	3110 <.L30>

000030a5 <.L31>:
    30a5:	00          	clr	d0
    30a6:	f8 12 08    	mov	d0,(8,a2)

000030a9 <.Loc.82.1>:
    30a9:	f8 02 14    	mov	(20,a2),d0
    30ac:	f2 30       	not	d0
    30ae:	40          	inc	d0
    30af:	f8 12 18    	mov	d0,(24,a2)

000030b2 <.Loc.87.1>:
    30b2:	a5 00       	cmp	0,d1
    30b4:	c9 c7       	bne	307b <.L16>

000030b6 <.L32>:
    30b6:	f8 6a 0c    	movhu	(12,a2),d2
    30b9:	8b          	mov	d2,d3
    30ba:	f8 e3 80    	and	128,d3
    30bd:	1b          	exth	d3

000030be <.Loc.93.1>:
    30be:	84          	mov	d1,d0

000030bf <.Loc.87.1>:
    30bf:	af 00       	cmp	0,d3
    30c1:	c8 bb       	beq	307c <.L6>

000030c3 <.Loc.90.1>:
    30c3:	f8 e6 40    	or	64,d2
    30c6:	f8 7a 0c    	movhu	d2,(12,a2)

000030c9 <.Loc.91.1>:
    30c9:	80 ff       	mov	-1,d0

000030cb <.Loc.94.1>:
    30cb:	df f0 1c    	ret	[d2,d3,a2,a3],28

000030ce <.L29>:
    30ce:	f1 d0       	mov	a0,d0
    30d0:	dd 76 18 00 	call	4946 <___sinit>,[],0
    30d4:	00 00 00 

000030d7 <.LVL4>:
    30d7:	cc 76 ff    	jmp	304d <.L0_0>

000030da <.L7>:
    30da:	f8 06 30    	mov	(48,a2),d1
    30dd:	a5 00       	cmp	0,d1
    30df:	c8 19       	beq	30f8 <.L9>

000030e1 <.Loc.57.1>:
    30e1:	f1 d8       	mov	a2,d0
    30e3:	28 40       	add	64,d0
    30e5:	a1          	cmp	d0,d1
    30e6:	c8 0e       	beq	30f4 <.L10>

000030e8 <.Loc.57.1>:
    30e8:	f1 dc       	mov	a3,d0
    30ea:	dd 6a 1a 00 	call	4b54 <__free_r>,[],0
    30ee:	00 00 00 

000030f1 <.LVL5>:
    30f1:	f8 6a 0c    	movhu	(12,a2),d2

000030f4 <.L10>:
    30f4:	00          	clr	d0
    30f5:	f8 12 30    	mov	d0,(48,a2)

000030f8 <.L9>:
    30f8:	fc e2 db ff 	and	-37,d2
    30fc:	ff ff 

000030fe <.Loc.59.1>:
    30fe:	00          	clr	d0
    30ff:	f8 12 04    	mov	d0,(4,a2)

00003102 <.Loc.60.1>:
    3102:	f8 06 10    	mov	(16,a2),d1
    3105:	66          	mov	d1,(a2)

00003106 <.Loc.62.1>:
    3106:	88          	mov	d2,d0
    3107:	f8 e4 08    	or	8,d0
    310a:	82          	mov	d0,d2
    310b:	f8 72 0c    	movhu	d0,(12,a2)
    310e:	ca 91       	bra	309f <.L34>

00003110 <.L30>:
    3110:	88          	mov	d2,d0
    3111:	fa e0 80 02 	and	640,d0
    3115:	fa c8 00 02 	cmp	512,d0
    3119:	c9 05       	bne	311e <.L0_3>
    311b:	cc 48 ff    	jmp	3063 <.L0_1>

0000311e <.L0_3>:
    311e:	f1 dc       	mov	a3,d0
    3120:	f1 d9       	mov	a2,d1
    3122:	dd ef 1d 00 	call	4f11 <___smakebuf_r>,[],0
    3126:	00 00 00 

00003129 <.LVL6>:
    3129:	f8 6a 0c    	movhu	(12,a2),d2
    312c:	f8 06 10    	mov	(16,a2),d1

0000312f <.Loc.74.1>:
    312f:	88          	mov	d2,d0
    3130:	f8 e0 01    	and	1,d0
    3133:	c9 05       	bne	3138 <.L0_4>
    3135:	cc 34 ff    	jmp	3069 <.L12>

00003138 <.L0_4>:
    3138:	cc 6d ff    	jmp	30a5 <.L31>

0000313b <.L33>:
    313b:	80 09       	mov	9,d0
    313d:	63          	mov	d0,(a3)

0000313e <.Loc.50.1>:
    313e:	f8 e6 40    	or	64,d2
    3141:	f8 7a 0c    	movhu	d2,(12,a2)

00003144 <.Loc.51.1>:
    3144:	80 ff       	mov	-1,d0

00003146 <.Loc.94.1>:
    3146:	df f0 1c    	ret	[d2,d3,a2,a3],28

00003149 <___call_exitprocs>:
    3149:	cf f0       	movm	[d2,d3,a2,a3],(sp)

0000314b <.LCFI0>:
    314b:	f8 fe e8    	add	-24,sp

0000314e <.LCFI1>:
    314e:	42 2c       	mov	d0,(44,sp)
    3150:	87          	mov	d1,d3

00003151 <.L35>:
    3151:	fc a1 58 95 	mov	(9558 <__global_impure_ptr>),a1
    3155:	00 00 
    3157:	fa 21 48 01 	mov	(328,a1),a0

0000315b <.LVL2>:
    315b:	fa d1 48 01 	add	328,a1
    315f:	47 14       	mov	a1,(20,sp)

00003161 <.L38>:
    3161:	b0 00       	cmp	0,a0
    3163:	c8 38       	beq	319b <.L1>

00003165 <.LVL4>:
    3165:	f8 00 04    	mov	(4,a0),d0
    3168:	82          	mov	d0,d2
    3169:	2a ff       	add	-1,d2

0000316b <.LVL5>:
    316b:	f8 eb 26    	bns	3191 <.L3>

0000316e <.Loc.64.1>:
    316e:	92          	mov	a0,a2
    316f:	fa d2 88 00 	add	136,a2

00003173 <.LVL6>:
    3173:	89          	mov	d2,d1
    3174:	55          	asl2	d1
    3175:	f1 66       	add	d1,a2

00003177 <.LVL7>:
    3177:	40          	inc	d0
    3178:	54          	asl2	d0
    3179:	93          	mov	a0,a3
    317a:	f1 63       	add	d0,a3

0000317c <.L12>:
    317c:	af 00       	cmp	0,d3
    317e:	c8 20       	beq	319e <.L4>

00003180 <.Loc.97.1>:
    3180:	fa 02 80 00 	mov	(128,a2),d0
    3184:	ac          	cmp	d3,d0
    3185:	c8 19       	beq	319e <.L4>

00003187 <.L5>:
    3187:	2a ff       	add	-1,d2

00003189 <.LVL9>:
    3189:	22 fc       	add	-4,a2
    318b:	23 fc       	add	-4,a3
    318d:	aa ff       	cmp	-1,d2
    318f:	c9 ed       	bne	317c <.L12>

00003191 <.L3>:
    3191:	fc cc 00 00 	mov	0,d0
    3195:	00 00 
    3197:	a0 00       	cmp	0,d0
    3199:	c9 6f       	bne	3208 <.L40>

0000319b <.L1>:
    319b:	df f0 28    	ret	[d2,d3,a2,a3],40

0000319e <.L4>:
    319e:	f0 07       	mov	(a3),a1

000031a0 <.LVL13>:
    31a0:	f8 00 04    	mov	(4,a0),d0
    31a3:	28 ff       	add	-1,d0
    31a5:	a8          	cmp	d2,d0
    31a6:	c8 54       	beq	31fa <.L41>

000031a8 <.Loc.106.1>:
    31a8:	00          	clr	d0
    31a9:	63          	mov	d0,(a3)

000031aa <.L7>:
    31aa:	b5 00       	cmp	0,a1
    31ac:	c8 db       	beq	3187 <.L5>

000031ae <.Loc.112.1>:
    31ae:	f8 04 04    	mov	(4,a0),d1
    31b1:	46 10       	mov	d1,(16,sp)

000031b3 <.LVL14>:
    31b3:	80 01       	mov	1,d0
    31b5:	f2 98       	asl	d2,d0

000031b7 <.Loc.115.1>:
    31b7:	fa 04 88 01 	mov	(392,a0),d1

000031bb <.LVL15>:
    31bb:	f2 01       	and	d0,d1
    31bd:	c8 35       	beq	31f2 <.L42>

000031bf <.Loc.117.1>:
    31bf:	fa 04 8c 01 	mov	(396,a0),d1
    31c3:	f2 04       	and	d1,d0
    31c5:	c9 3a       	bne	31ff <.L10>

000031c7 <.Loc.118.1>:
    31c7:	58 2c       	mov	(44,sp),d0
    31c9:	76          	mov	(a2),d1
    31ca:	43 0c       	mov	a0,(12,sp)
    31cc:	f0 f1       	calls	(a1)

000031ce <.LVL16>:
    31ce:	5c 0c       	mov	(12,sp),a0

000031d0 <.L9>:
    31d0:	f8 00 04    	mov	(4,a0),d0
    31d3:	5d 10       	mov	(16,sp),a1
    31d5:	f1 94       	cmp	a1,d0
    31d7:	c8 05       	beq	31dc <.L0_0>
    31d9:	cc 78 ff    	jmp	3151 <.L35>

000031dc <.L0_0>:
    31dc:	5d 14       	mov	(20,sp),a1
    31de:	71          	mov	(a1),d0
    31df:	f1 90       	cmp	a0,d0
    31e1:	c8 05       	beq	31e6 <.L0_1>
    31e3:	cc 6e ff    	jmp	3151 <.L35>

000031e6 <.L0_1>:
    31e6:	2a ff       	add	-1,d2

000031e8 <.LVL17>:
    31e8:	22 fc       	add	-4,a2
    31ea:	23 fc       	add	-4,a3
    31ec:	aa ff       	cmp	-1,d2
    31ee:	c9 8e       	bne	317c <.L12>
    31f0:	ca a1       	bra	3191 <.L3>

000031f2 <.L42>:
    31f2:	43 0c       	mov	a0,(12,sp)
    31f4:	f0 f1       	calls	(a1)

000031f6 <.LVL19>:
    31f6:	5c 0c       	mov	(12,sp),a0
    31f8:	ca d8       	bra	31d0 <.L9>

000031fa <.L41>:
    31fa:	f8 18 04    	mov	d2,(4,a0)
    31fd:	ca ad       	bra	31aa <.L7>

000031ff <.L10>:
    31ff:	72          	mov	(a2),d0
    3200:	43 0c       	mov	a0,(12,sp)
    3202:	f0 f1       	calls	(a1)

00003204 <.LVL22>:
    3204:	5c 0c       	mov	(12,sp),a0
    3206:	ca ca       	bra	31d0 <.L9>

00003208 <.L40>:
    3208:	f8 00 04    	mov	(4,a0),d0
    320b:	a0 00       	cmp	0,d0
    320d:	70          	mov	(a0),d0
    320e:	c9 19       	bne	3227 <.L14>

00003210 <.Loc.139.1>:
    3210:	a0 00       	cmp	0,d0
    3212:	c8 15       	beq	3227 <.L14>

00003214 <.Loc.142.1>:
    3214:	5d 14       	mov	(20,sp),a1
    3216:	61          	mov	d0,(a1)

00003217 <.Loc.147.1>:
    3217:	f1 d0       	mov	a0,d0
    3219:	dd e7 cd ff 	call	0 <.Lframe0>,[],0
    321d:	ff 00 00 

00003220 <.LVL24>:
    3220:	5d 14       	mov	(20,sp),a1
    3222:	f0 01       	mov	(a1),a0

00003224 <.LVL25>:
    3224:	cc 3d ff    	jmp	3161 <.L38>

00003227 <.L14>:
    3227:	43 14       	mov	a0,(20,sp)

00003229 <.LVL27>:
    3229:	f1 e0       	mov	d0,a0
    322b:	cc 36 ff    	jmp	3161 <.L38>

0000322e <_quorem>:
    322e:	cf f0       	movm	[d2,d3,a2,a3],(sp)

00003230 <.LCFI0>:
    3230:	f8 fe dc    	add	-36,sp

00003233 <.LCFI1>:
    3233:	42 38       	mov	d0,(56,sp)
    3235:	46 3c       	mov	d1,(60,sp)

00003237 <.Loc.49.1>:
    3237:	f1 e4       	mov	d1,a0
    3239:	f8 00 10    	mov	(16,a0),d0

0000323c <.LVL1>:
    323c:	5d 38       	mov	(56,sp),a1
    323e:	f8 05 10    	mov	(16,a1),d1

00003241 <.LVL2>:
    3241:	a4          	cmp	d1,d0
    3242:	c3 05       	ble	3247 <.L0_0>
    3244:	cc 3e 01    	jmp	3382 <.L11>

00003247 <.L0_0>:
    3247:	92          	mov	a0,a2
    3248:	22 14       	add	20,a2

0000324a <.LVL3>:
    324a:	82          	mov	d0,d2
    324b:	2a ff       	add	-1,d2

0000324d <.LVL4>:
    324d:	28 04       	add	4,d0
    324f:	54          	asl2	d0
    3250:	f1 60       	add	d0,a0

00003252 <.LVL5>:
    3252:	43 10       	mov	a0,(16,sp)

00003254 <.LVL6>:
    3254:	21 14       	add	20,a1
    3256:	47 14       	mov	a1,(20,sp)

00003258 <.LVL7>:
    3258:	5c 38       	mov	(56,sp),a0

0000325a <.LVL8>:
    325a:	f1 60       	add	d0,a0
    325c:	5d 10       	mov	(16,sp),a1

0000325e <.LVL9>:
    325e:	75          	mov	(a1),d1
    325f:	44          	inc	d1
    3260:	7c          	mov	(a0),d3
    3261:	00          	clr	d0
    3262:	f2 f2       	mov	d0,mdr
    3264:	f2 77       	divu	d1,d3
    3266:	4e 18       	mov	d3,(24,sp)

00003268 <.LVL10>:
    3268:	a3          	cmp	d0,d3
    3269:	c9 05       	bne	326e <.L0_1>
    326b:	cc 94 00    	jmp	32ff <.L3>

0000326e <.L0_1>:
    326e:	9b          	mov	a2,a3
    326f:	5c 14       	mov	(20,sp),a0
    3271:	42 0c       	mov	d0,(12,sp)
    3273:	4b 1c       	mov	a2,(28,sp)
    3275:	4a 20       	mov	d2,(32,sp)
    3277:	f1 ee       	mov	d3,a2

00003279 <.LVL11>:
    3279:	83          	mov	d0,d3

0000327a <.L4>:
    327a:	73          	mov	(a3),d0

0000327b <.LVL13>:
    327b:	53          	inc4	a3

0000327c <.Loc.73.1>:
    327c:	82          	mov	d0,d2
    327d:	1e          	exthu	d2
    327e:	f1 d9       	mov	a2,d1
    3280:	cb          	nop	
    3281:	cb          	nop	
    3282:	f2 46       	mul	d1,d2
    3284:	59 0c       	mov	(12,sp),d1
    3286:	e6          	add	d1,d2

00003287 <.LVL15>:
    3287:	89          	mov	d2,d1
    3288:	f8 c5 10    	lsr	16,d1
    328b:	f1 e5       	mov	d1,a1
    328d:	f8 c4 10    	lsr	16,d0

00003290 <.LVL16>:
    3290:	f1 d9       	mov	a2,d1
    3292:	cb          	nop	
    3293:	cb          	nop	
    3294:	f2 44       	mul	d1,d0
    3296:	f1 61       	add	d0,a1
    3298:	f1 d5       	mov	a1,d1
    329a:	f2 f6       	mov	d1,mdr

0000329c <.LVL17>:
    329c:	f1 d4       	mov	a1,d0
    329e:	f8 c4 10    	lsr	16,d0
    32a1:	42 0c       	mov	d0,(12,sp)

000032a3 <.LVL18>:
    32a3:	74          	mov	(a0),d1

000032a4 <.LVL19>:
    32a4:	84          	mov	d1,d0

000032a5 <.LVL20>:
    32a5:	1c          	exthu	d0
    32a6:	ec          	add	d3,d0
    32a7:	1e          	exthu	d2

000032a8 <.LVL21>:
    32a8:	f1 08       	sub	d2,d0

000032aa <.LVL22>:
    32aa:	f8 c5 10    	lsr	16,d1
    32ad:	f2 e2       	mov	mdr,d2
    32af:	1e          	exthu	d2
    32b0:	f1 09       	sub	d2,d1

000032b2 <.Loc.77.1>:
    32b2:	82          	mov	d0,d2
    32b3:	f8 ca 10    	asr	16,d2

000032b6 <.LVL23>:
    32b6:	e9          	add	d2,d1

000032b7 <.LVL24>:
    32b7:	87          	mov	d1,d3
    32b8:	f8 cb 10    	asr	16,d3

000032bb <.LVL25>:
    32bb:	f8 c1 10    	asl	16,d1

000032be <.LVL26>:
    32be:	1c          	exthu	d0

000032bf <.LVL27>:
    32bf:	f2 11       	or	d0,d1
    32c1:	64          	mov	d1,(a0)
    32c2:	50          	inc4	a0

000032c3 <.LVL28>:
    32c3:	5d 10       	mov	(16,sp),a1

000032c5 <.LVL29>:
    32c5:	bd          	cmp	a3,a1
    32c6:	c6 b4       	bcc	327a <.L4>
    32c8:	5a 20       	mov	(32,sp),d2

000032ca <.LVL30>:
    32ca:	f1 db       	mov	a2,d3

000032cc <.LVL31>:
    32cc:	5e 1c       	mov	(28,sp),a2

000032ce <.LVL32>:
    32ce:	88          	mov	d2,d0
    32cf:	28 05       	add	5,d0
    32d1:	54          	asl2	d0
    32d2:	5d 38       	mov	(56,sp),a1
    32d4:	f1 61       	add	d0,a1
    32d6:	71          	mov	(a1),d0
    32d7:	a0 00       	cmp	0,d0
    32d9:	c9 26       	bne	32ff <.L3>

000032db <.LVL33>:
    32db:	94          	mov	a1,a0

000032dc <.LVL34>:
    32dc:	20 fc       	add	-4,a0

000032de <.LVL35>:
    32de:	58 14       	mov	(20,sp),d0
    32e0:	f1 90       	cmp	a0,d0
    32e2:	c6 18       	bcc	32fa <.L5>

000032e4 <.Loc.96.1>:
    32e4:	f8 01 fc    	mov	(-4,a1),d0
    32e7:	a0 00       	cmp	0,d0
    32e9:	c9 11       	bne	32fa <.L5>
    32eb:	59 14       	mov	(20,sp),d1

000032ed <.L19>:
    32ed:	2a ff       	add	-1,d2

000032ef <.Loc.96.1>:
    32ef:	20 fc       	add	-4,a0
    32f1:	f1 91       	cmp	a0,d1
    32f3:	c6 07       	bcc	32fa <.L5>

000032f5 <.Loc.96.1>:
    32f5:	70          	mov	(a0),d0
    32f6:	a0 00       	cmp	0,d0
    32f8:	c8 f5       	beq	32ed <.L19>

000032fa <.L5>:
    32fa:	5c 38       	mov	(56,sp),a0

000032fc <.LVL38>:
    32fc:	f8 18 10    	mov	d2,(16,a0)

000032ff <.L3>:
    32ff:	58 38       	mov	(56,sp),d0
    3301:	59 3c       	mov	(60,sp),d1
    3303:	dd 72 2a 00 	call	5d75 <___mcmp>,[],0
    3307:	00 00 00 

0000330a <.LVL40>:
    330a:	a0 00       	cmp	0,d0
    330c:	c0 71       	blt	337d <.L7>

0000330e <.Loc.103.1>:
    330e:	4c          	inc	d3

0000330f <.LVL41>:
    330f:	4e 18       	mov	d3,(24,sp)

00003311 <.LVL42>:
    3311:	5c 14       	mov	(20,sp),a0

00003313 <.Loc.104.1>:
    3313:	95 00       	mov	0,a1
    3315:	5b 10       	mov	(16,sp),d3

00003317 <.LVL43>:
    3317:	f2 fa       	mov	d2,mdr

00003319 <.L8>:
    3319:	7a          	mov	(a2),d2

0000331a <.LVL45>:
    331a:	52          	inc4	a2

0000331b <.LVL46>:
    331b:	f0 0c       	mov	(a0),a3
    331d:	f1 dc       	mov	a3,d0
    331f:	1c          	exthu	d0
    3320:	f1 54       	add	a1,d0
    3322:	89          	mov	d2,d1
    3323:	1d          	exthu	d1
    3324:	f1 04       	sub	d1,d0

00003326 <.LVL47>:
    3326:	f1 dd       	mov	a3,d1
    3328:	f8 c5 10    	lsr	16,d1
    332b:	f8 c6 10    	lsr	16,d2

0000332e <.LVL48>:
    332e:	f1 eb       	mov	d2,a3
    3330:	f1 09       	sub	d2,d1

00003332 <.Loc.116.1>:
    3332:	82          	mov	d0,d2

00003333 <.LVL49>:
    3333:	f8 ca 10    	asr	16,d2

00003336 <.LVL50>:
    3336:	e9          	add	d2,d1

00003337 <.LVL51>:
    3337:	86          	mov	d1,d2

00003338 <.LVL52>:
    3338:	f8 ca 10    	asr	16,d2
    333b:	f1 e9       	mov	d2,a1

0000333d <.LVL53>:
    333d:	f8 c1 10    	asl	16,d1

00003340 <.LVL54>:
    3340:	1c          	exthu	d0

00003341 <.LVL55>:
    3341:	f2 11       	or	d0,d1
    3343:	64          	mov	d1,(a0)
    3344:	50          	inc4	a0

00003345 <.Loc.131.1>:
    3345:	f1 9b       	cmp	a2,d3
    3347:	c6 d2       	bcc	3319 <.L8>
    3349:	f2 e2       	mov	mdr,d2

0000334b <.LVL57>:
    334b:	f2 e0       	mov	mdr,d0
    334d:	28 05       	add	5,d0
    334f:	54          	asl2	d0
    3350:	5d 38       	mov	(56,sp),a1

00003352 <.LVL58>:
    3352:	f1 61       	add	d0,a1

00003354 <.LVL59>:
    3354:	71          	mov	(a1),d0
    3355:	a0 00       	cmp	0,d0
    3357:	c9 26       	bne	337d <.L7>

00003359 <.LVL60>:
    3359:	94          	mov	a1,a0
    335a:	20 fc       	add	-4,a0

0000335c <.LVL61>:
    335c:	58 14       	mov	(20,sp),d0
    335e:	f1 90       	cmp	a0,d0
    3360:	c6 18       	bcc	3378 <.L9>

00003362 <.Loc.136.1>:
    3362:	f8 01 fc    	mov	(-4,a1),d0
    3365:	a0 00       	cmp	0,d0
    3367:	c9 11       	bne	3378 <.L9>
    3369:	59 14       	mov	(20,sp),d1

0000336b <.L18>:
    336b:	2a ff       	add	-1,d2

0000336d <.Loc.136.1>:
    336d:	20 fc       	add	-4,a0
    336f:	f1 91       	cmp	a0,d1
    3371:	c6 07       	bcc	3378 <.L9>

00003373 <.Loc.136.1>:
    3373:	70          	mov	(a0),d0
    3374:	a0 00       	cmp	0,d0
    3376:	c8 f5       	beq	336b <.L18>

00003378 <.L9>:
    3378:	5c 38       	mov	(56,sp),a0

0000337a <.LVL64>:
    337a:	f8 18 10    	mov	d2,(16,a0)

0000337d <.L7>:
    337d:	58 18       	mov	(24,sp),d0

0000337f <.Loc.142.1>:
    337f:	df f0 34    	ret	[d2,d3,a2,a3],52

00003382 <.L11>:
	...

00003383 <.LVL67>:
    3383:	df f0 34    	ret	[d2,d3,a2,a3],52

00003386 <__dtoa_r>:
    3386:	cf f0       	movm	[d2,d3,a2,a3],(sp)

00003388 <.LCFI2>:
    3388:	fa fe 7c ff 	add	-132,sp

0000338c <.LCFI3>:
    338c:	f1 e3       	mov	d0,a3
    338e:	46 9c       	mov	d1,(156,sp)
    3390:	46 34       	mov	d1,(52,sp)
    3392:	5a a0       	mov	(160,sp),d2
    3394:	5e b0       	mov	(176,sp),a2

00003396 <.LVL69>:
    3396:	4a 24       	mov	d2,(36,sp)

00003398 <.Loc.239.1>:
    3398:	f8 07 40    	mov	(64,a3),d1
    339b:	a5 00       	cmp	0,d1
    339d:	c8 1e       	beq	33bb <.L32>

0000339f <.Loc.241.1>:
    339f:	f8 0f 44    	mov	(68,a3),d3
    33a2:	f1 e4       	mov	d1,a0
    33a4:	f8 1c 04    	mov	d3,(4,a0)

000033a7 <.Loc.242.1>:
    33a7:	80 01       	mov	1,d0

000033a9 <.LVL70>:
    33a9:	f2 9c       	asl	d3,d0
    33ab:	f8 10 08    	mov	d0,(8,a0)

000033ae <.Loc.243.1>:
    33ae:	f1 dc       	mov	a3,d0
    33b0:	dd d4 24 00 	call	5884 <__Bfree>,[],0
    33b4:	00 00 00 

000033b7 <.LVL71>:
    33b7:	00          	clr	d0
    33b8:	f8 13 40    	mov	d0,(64,a3)

000033bb <.L32>:
    33bb:	aa 00       	cmp	0,d2
    33bd:	c2 05       	bge	33c2 <.L0_2>
    33bf:	cc 8d 00    	jmp	344c <.L294>

000033c2 <.L0_2>:
    33c2:	00          	clr	d0
    33c3:	62          	mov	d0,(a2)

000033c4 <.L34>:
    33c4:	88          	mov	d2,d0
    33c5:	fc e0 00 00 	and	2146435072,d0
    33c9:	f0 7f 
    33cb:	fc c8 00 00 	cmp	2146435072,d0
    33cf:	f0 7f 
    33d1:	c8 39       	beq	340a <.L295>

000033d3 <.Loc.282.1>:
    33d3:	0c          	clr	d3
    33d4:	4e 0c       	mov	d3,(12,sp)
    33d6:	4e 10       	mov	d3,(16,sp)
    33d8:	58 34       	mov	(52,sp),d0
    33da:	59 24       	mov	(36,sp),d1
    33dc:	dd 44 59 00 	call	8d20 <___eqdf2>,[],0
    33e0:	00 00 00 
    33e3:	ac          	cmp	d3,d0
    33e4:	c9 74       	bne	3458 <.L279>

000033e6 <.Loc.284.1>:
    33e6:	80 01       	mov	1,d0
    33e8:	5d ac       	mov	(172,sp),a1
    33ea:	61          	mov	d0,(a1)

000033eb <.LVL73>:
    33eb:	5e b4       	mov	(180,sp),a2
    33ed:	f1 ae       	cmp	d3,a2
    33ef:	c9 05       	bne	33f4 <.L0_3>
    33f1:	cc c7 06    	jmp	3ab8 <.L162>

000033f4 <.L0_3>:
    33f4:	fc cc 98 95 	mov	38296,d0
    33f8:	00 00 
    33fa:	62          	mov	d0,(a2)

000033fb <.Loc.288.1>:
    33fb:	fc dd 97 95 	mov	38295,a1
    33ff:	00 00 
    3401:	47 20       	mov	a1,(32,sp)

00003403 <.L228>:
    3403:	5c 20       	mov	(32,sp),a0
    3405:	f1 d0       	mov	a0,d0
    3407:	df f0 94    	ret	[d2,d3,a2,a3],148

0000340a <.L295>:
    340a:	2c 0f 27    	mov	9999,d0
    340d:	5d ac       	mov	(172,sp),a1
    340f:	61          	mov	d0,(a1)

00003410 <.Loc.267.1>:
    3410:	5b 34       	mov	(52,sp),d3
    3412:	af 00       	cmp	0,d3
    3414:	c8 05       	beq	3419 <.L0_4>
    3416:	cc e8 05    	jmp	39fe <.L160>

00003419 <.L0_4>:
    3419:	fc e2 ff ff 	and	1048575,d2
    341d:	0f 00 
    341f:	c9 05       	bne	3424 <.L0_5>
    3421:	cc fd 09    	jmp	3e1e <.L161>

00003424 <.L0_5>:
    3424:	fc dd 29 97 	mov	38697,a1
    3428:	00 00 
    342a:	47 20       	mov	a1,(32,sp)

0000342c <.L36>:
    342c:	5e b4       	mov	(180,sp),a2
    342e:	ba 00       	cmp	0,a2
    3430:	c8 d3       	beq	3403 <.L228>

00003432 <.Loc.273.1>:
    3432:	5d 20       	mov	(32,sp),a1
    3434:	f8 41 03    	movbu	(3,a1),d0
    3437:	a0 00       	cmp	0,d0
    3439:	c9 05       	bne	343e <.L0_6>
    343b:	cc bd 06    	jmp	3af8 <.L38>

0000343e <.L0_6>:
    343e:	f1 d4       	mov	a1,d0
    3440:	28 08       	add	8,d0

00003442 <.Loc.271.1>:
    3442:	5e b4       	mov	(180,sp),a2
    3444:	62          	mov	d0,(a2)

00003445 <.L304>:
    3445:	5c 20       	mov	(32,sp),a0
    3447:	f1 d0       	mov	a0,d0
    3449:	df f0 94    	ret	[d2,d3,a2,a3],148

0000344c <.L294>:
    344c:	80 01       	mov	1,d0
    344e:	62          	mov	d0,(a2)

0000344f <.Loc.251.1>:
    344f:	ea          	add	d2,d2
    3450:	f8 c6 01    	lsr	1,d2
    3453:	4a 24       	mov	d2,(36,sp)
    3455:	cc 6f ff    	jmp	33c4 <.L34>

00003458 <.L279>:
    3458:	3e          	mov	sp,a2
    3459:	fa d2 80 00 	add	128,a2
    345d:	4b 10       	mov	a2,(16,sp)
    345f:	3c          	mov	sp,a0
    3460:	20 7c       	add	124,a0
    3462:	43 14       	mov	a0,(20,sp)
    3464:	58 24       	mov	(36,sp),d0
    3466:	42 0c       	mov	d0,(12,sp)
    3468:	59 34       	mov	(52,sp),d1
    346a:	f1 dc       	mov	a3,d0
    346c:	dd 77 2b 00 	call	5fe3 <___d2b>,[],0
    3470:	00 00 00 

00003473 <.LVL78>:
    3473:	43 30       	mov	a0,(48,sp)

00003475 <.LVL79>:
    3475:	89          	mov	d2,d1
    3476:	f8 c5 14    	lsr	20,d1
    3479:	fa e1 ff 07 	and	2047,d1
    347d:	f1 e6       	mov	d1,a2

0000347f <.LVL80>:
    347f:	c8 05       	beq	3484 <.L0_7>
    3481:	cc 88 05    	jmp	3a09 <.L296>

00003484 <.L0_7>:
    3484:	5b 7c       	mov	(124,sp),d3
    3486:	4e 20       	mov	d3,(32,sp)

00003488 <.LVL82>:
    3488:	5e 80       	mov	(128,sp),a2
    348a:	f1 6e       	add	d3,a2

0000348c <.LVL83>:
    348c:	fc da ef fb 	cmp	-1041,a2
    3490:	ff ff 
    3492:	c2 05       	bge	3497 <.L0_8>
    3494:	cc d2 09    	jmp	3e66 <.L44>

00003497 <.L0_8>:
    3497:	2c 0e fc    	mov	-1010,d0
    349a:	f1 18       	sub	a2,d0
    349c:	f2 92       	asl	d0,d2
    349e:	88          	mov	d2,d0
    349f:	f1 d9       	mov	a2,d1
    34a1:	fa c1 12 04 	add	1042,d1
    34a5:	5a 34       	mov	(52,sp),d2
    34a7:	f2 a6       	lsr	d1,d2
    34a9:	f2 18       	or	d2,d0

000034ab <.LVL84>:
    34ab:	dd 57 5b 00 	call	9002 <___floatunsidf>,[],0
    34af:	00 00 00 

000034b2 <.LVL85>:
    34b2:	fc c1 00 00 	add	-32505856,d1
    34b6:	10 fe 

000034b8 <.Loc.349.1>:
    34b8:	22 ff       	add	-1,a2

000034ba <.LVL87>:
    34ba:	95 01       	mov	1,a1
    34bc:	47 4c       	mov	a1,(76,sp)

000034be <.L43>:
    34be:	95 00       	mov	0,a1
    34c0:	47 0c       	mov	a1,(12,sp)
    34c2:	fc dc 00 00 	mov	1073217536,a0
    34c6:	f8 3f 
    34c8:	43 10       	mov	a0,(16,sp)
    34ca:	47 18       	mov	a1,(24,sp)
    34cc:	dd 54 54 00 	call	8920 <___subdf3>,[],0
    34d0:	00 00 00 
    34d3:	fc dc 61 43 	mov	1668236129,a0
    34d7:	6f 63 
    34d9:	43 0c       	mov	a0,(12,sp)
    34db:	fc dc a7 87 	mov	1070761895,a0
    34df:	d2 3f 
    34e1:	43 10       	mov	a0,(16,sp)
    34e3:	dd 95 54 00 	call	8978 <___muldf3>,[],0
    34e7:	00 00 00 
    34ea:	fc dc b3 c8 	mov	-1956591437,a0
    34ee:	60 8b 
    34f0:	43 0c       	mov	a0,(12,sp)
    34f2:	fc dc 28 8a 	mov	1069976104,a0
    34f6:	c6 3f 
    34f8:	43 10       	mov	a0,(16,sp)
    34fa:	dd d6 53 00 	call	88d0 <___adddf3>,[],0
    34fe:	00 00 00 
    3501:	83          	mov	d0,d3
    3502:	86          	mov	d1,d2
    3503:	f1 d8       	mov	a2,d0
    3505:	dd c4 59 00 	call	8ec9 <___floatsidf>,[],0
    3509:	00 00 00 
    350c:	fc dc fb 79 	mov	1352628731,a0
    3510:	9f 50 
    3512:	43 0c       	mov	a0,(12,sp)
    3514:	fc dc 13 44 	mov	1070810131,a0
    3518:	d3 3f 
    351a:	43 10       	mov	a0,(16,sp)
    351c:	dd 5c 54 00 	call	8978 <___muldf3>,[],0
    3520:	00 00 00 
    3523:	42 0c       	mov	d0,(12,sp)
    3525:	46 10       	mov	d1,(16,sp)
    3527:	8c          	mov	d3,d0
    3528:	89          	mov	d2,d1
    3529:	dd a7 53 00 	call	88d0 <___adddf3>,[],0
    352d:	00 00 00 
    3530:	83          	mov	d0,d3
    3531:	86          	mov	d1,d2

00003532 <.LVL95>:
    3532:	dd 58 5a 00 	call	8f8a <___fixdfsi>,[],0
    3536:	00 00 00 

00003539 <.LVL96>:
    3539:	42 40       	mov	d0,(64,sp)

0000353b <.LVL97>:
    353b:	5d 18       	mov	(24,sp),a1
    353d:	47 0c       	mov	a1,(12,sp)
    353f:	47 10       	mov	a1,(16,sp)
    3541:	8c          	mov	d3,d0

00003542 <.LVL98>:
    3542:	89          	mov	d2,d1
    3543:	dd 31 59 00 	call	8e74 <___ltdf2>,[],0
    3547:	00 00 00 
    354a:	a0 00       	cmp	0,d0
    354c:	c2 05       	bge	3551 <.L0_9>
    354e:	cc 79 05    	jmp	3ac7 <.L297>

00003551 <.L0_9>:
    3551:	5b 40       	mov	(64,sp),d3
    3553:	af 16       	cmp	22,d3
    3555:	c7 05       	bls	355a <.L0_10>
    3557:	cc 9a 05    	jmp	3af1 <.L0_42>

0000355a <.L0_10>:
    355a:	57          	asl2	d3
    355b:	ef          	add	d3,d3

0000355c <.LVL102>:
    355c:	f1 ec       	mov	d3,a0
    355e:	fc d0 88 97 	add	38792,a0
    3562:	00 00 
    3564:	70          	mov	(a0),d0
    3565:	f8 04 04    	mov	(4,a0),d1
    3568:	5a 34       	mov	(52,sp),d2
    356a:	4a 0c       	mov	d2,(12,sp)
    356c:	5b 24       	mov	(36,sp),d3
    356e:	4e 10       	mov	d3,(16,sp)
    3570:	dd 5a 58 00 	call	8dca <___gtdf2>,[],0
    3574:	00 00 00 
    3577:	a0 00       	cmp	0,d0
    3579:	c1 05       	bgt	357e <.L0_11>
    357b:	cc 0b 09    	jmp	3e86 <.L280>

0000357e <.L0_11>:
    357e:	5a 40       	mov	(64,sp),d2
    3580:	2a ff       	add	-1,d2
    3582:	4a 40       	mov	d2,(64,sp)

00003584 <.LVL104>:
    3584:	0c          	clr	d3
    3585:	4e 5c       	mov	d3,(92,sp)

00003587 <.L49>:
    3587:	58 20       	mov	(32,sp),d0
    3589:	f1 18       	sub	a2,d0
    358b:	28 ff       	add	-1,d0

0000358d <.LVL106>:
    358d:	f8 ea 06    	bnc	3593 <.L0_12>
    3590:	cc ad 08    	jmp	3e3d <.L298>

00003593 <.L0_12>:
    3593:	42 48       	mov	d0,(72,sp)

00003595 <.Loc.371.1>:
    3595:	9a 00       	mov	0,a2

00003597 <.LVL107>:
    3597:	4b 50       	mov	a2,(80,sp)

00003599 <.L51>:
    3599:	5a 40       	mov	(64,sp),d2
    359b:	aa 00       	cmp	0,d2
    359d:	c2 05       	bge	35a2 <.L0_13>
    359f:	cc 8a 08    	jmp	3e29 <.L52>

000035a2 <.L0_13>:
    35a2:	5b 48       	mov	(72,sp),d3
    35a4:	eb          	add	d2,d3
    35a5:	4e 48       	mov	d3,(72,sp)

000035a7 <.LVL110>:
    35a7:	4a 58       	mov	d2,(88,sp)

000035a9 <.Loc.381.1>:
    35a9:	95 00       	mov	0,a1
    35ab:	47 28       	mov	a1,(40,sp)

000035ad <.L53>:
    35ad:	5e a4       	mov	(164,sp),a2
    35af:	ba 09       	cmp	9,a2
    35b1:	c7 05       	bls	35b6 <.L0_14>
    35b3:	cc 4f 05    	jmp	3b02 <.L166>

000035b6 <.L0_14>:
    35b6:	8f 01       	mov	1,d3

000035b8 <.Loc.394.1>:
    35b8:	ba 05       	cmp	5,a2
    35ba:	c3 07       	ble	35c1 <.L55>

000035bc <.Loc.396.1>:
    35bc:	22 fc       	add	-4,a2

000035be <.LVL113>:
    35be:	4b a4       	mov	a2,(164,sp)

000035c0 <.LVL114>:
    35c0:	0c          	clr	d3

000035c1 <.L55>:
    35c1:	5a a4       	mov	(164,sp),d2
    35c3:	aa 03       	cmp	3,d2
    35c5:	c9 05       	bne	35ca <.L0_15>
    35c7:	cc 3d 0d    	jmp	4304 <.L169>

000035ca <.L0_15>:
    35ca:	c1 05       	bgt	35cf <.L0_16>
    35cc:	cc fa 08    	jmp	3ec6 <.L299>

000035cf <.L0_16>:
    35cf:	5d a4       	mov	(164,sp),a1
    35d1:	b5 04       	cmp	4,a1
    35d3:	c9 05       	bne	35d8 <.L0_17>
    35d5:	cc 49 0d    	jmp	431e <.L58>

000035d8 <.L0_17>:
    35d8:	b5 05       	cmp	5,a1
    35da:	c8 05       	beq	35df <.L0_18>
    35dc:	cc 2a 05    	jmp	3b06 <.L54>

000035df <.L0_18>:
    35df:	8a 01       	mov	1,d2
    35e1:	4a 54       	mov	d2,(84,sp)

000035e3 <.LVL116>:
    35e3:	5c a8       	mov	(168,sp),a0
    35e5:	5a 40       	mov	(64,sp),d2

000035e7 <.LVL117>:
    35e7:	f1 68       	add	d2,a0
    35e9:	43 64       	mov	a0,(100,sp)
    35eb:	f1 d2       	mov	a0,d2
    35ed:	48          	inc	d2

000035ee <.LVL118>:
    35ee:	4a 44       	mov	d2,(68,sp)
    35f0:	aa 00       	cmp	0,d2
    35f2:	c1 05       	bgt	35f7 <.L0_19>
    35f4:	cc e7 09    	jmp	3fdb <.L61>

000035f7 <.L0_19>:
    35f7:	04          	clr	d1
    35f8:	f8 17 44    	mov	d1,(68,a3)
    35fb:	aa 17       	cmp	23,d2
    35fd:	c7 15       	bls	3612 <.L64>
    35ff:	90 01       	mov	1,a0
    3601:	80 04       	mov	4,d0

00003603 <.L65>:
    3603:	f1 d1       	mov	a0,d1

00003605 <.Loc.428.1>:
    3605:	e0          	add	d0,d0

00003606 <.LVL121>:
    3606:	41          	inc	a0

00003607 <.Loc.427.1>:
    3607:	f1 e1       	mov	d0,a1
    3609:	21 14       	add	20,a1
    360b:	f1 a9       	cmp	d2,a1
    360d:	c7 f6       	bls	3603 <.L65>
    360f:	f8 17 44    	mov	d1,(68,a3)

00003612 <.L64>:
    3612:	f1 dc       	mov	a3,d0
    3614:	dd 02 22 00 	call	5816 <__Balloc>,[],0
    3618:	00 00 00 

0000361b <.LVL123>:
    361b:	43 20       	mov	a0,(32,sp)
    361d:	f8 33 40    	mov	a0,(64,a3)

00003620 <.LVL124>:
    3620:	aa 0e       	cmp	14,d2
    3622:	c7 05       	bls	3627 <.L0_20>
    3624:	cc 76 02    	jmp	389a <.L66>

00003627 <.L0_20>:
    3627:	af 00       	cmp	0,d3
    3629:	c9 05       	bne	362e <.L0_21>
    362b:	cc 6f 02    	jmp	389a <.L66>

0000362e <.L0_21>:
    362e:	5a 40       	mov	(64,sp),d2
    3630:	aa 00       	cmp	0,d2
    3632:	c1 05       	bgt	3637 <.L0_22>
    3634:	cc 44 0d    	jmp	4378 <.L67>

00003637 <.L0_22>:
    3637:	88          	mov	d2,d0
    3638:	f8 e0 0f    	and	15,d0
    363b:	54          	asl2	d0
    363c:	e0          	add	d0,d0
    363d:	fc c0 88 97 	add	38792,d0
    3641:	00 00 
    3643:	f1 e1       	mov	d0,a1
    3645:	f0 01       	mov	(a1),a0

00003647 <.LVL126>:
    3647:	f8 0d 04    	mov	(4,a1),d3

0000364a <.LVL127>:
    364a:	f8 ca 04    	asr	4,d2

0000364d <.LVL128>:
    364d:	88          	mov	d2,d0
    364e:	f8 e0 10    	and	16,d0
    3651:	c9 05       	bne	3656 <.L0_23>
    3653:	cc e3 0c    	jmp	4336 <.L172>

00003656 <.L0_23>:
    3656:	f8 e2 0f    	and	15,d2

00003659 <.Loc.450.1>:
    3659:	fc a4 80 97 	mov	(9780 <___mprec_bigtens+0x20>),d0
    365d:	00 00 
    365f:	42 0c       	mov	d0,(12,sp)
    3661:	fc a4 84 97 	mov	(9784 <___mprec_bigtens+0x24>),d0
    3665:	00 00 
    3667:	42 10       	mov	d0,(16,sp)
    3669:	58 34       	mov	(52,sp),d0
    366b:	59 24       	mov	(36,sp),d1
    366d:	43 1c       	mov	a0,(28,sp)
    366f:	dd 3a 55 00 	call	8ba9 <___divdf3>,[],0
    3673:	00 00 00 

00003676 <.LVL130>:
    3676:	42 38       	mov	d0,(56,sp)
    3678:	46 60       	mov	d1,(96,sp)

0000367a <.LVL131>:
    367a:	95 03       	mov	3,a1
    367c:	5c 1c       	mov	(28,sp),a0

0000367e <.L68>:
    367e:	aa 00       	cmp	0,d2
    3680:	c8 36       	beq	36b6 <.L69>
    3682:	fc de 60 97 	mov	38752,a2
    3686:	00 00 
    3688:	f1 d0       	mov	a0,d0
    368a:	8d          	mov	d3,d1
    368b:	47 2c       	mov	a1,(44,sp)

0000368d <.L71>:
    368d:	8b          	mov	d2,d3
    368e:	f8 e3 01    	and	1,d3
    3691:	c8 17       	beq	36a8 <.L70>

00003693 <.Loc.456.1>:
    3693:	5c 2c       	mov	(44,sp),a0
    3695:	41          	inc	a0
    3696:	43 2c       	mov	a0,(44,sp)

00003698 <.LVL134>:
    3698:	f0 02       	mov	(a2),a0

0000369a <.LVL135>:
    369a:	43 0c       	mov	a0,(12,sp)
    369c:	f8 22 04    	mov	(4,a2),a0
    369f:	43 10       	mov	a0,(16,sp)
    36a1:	dd d7 52 00 	call	8978 <___muldf3>,[],0
    36a5:	00 00 00 

000036a8 <.L70>:
    36a8:	f8 ca 01    	asr	1,d2
    36ab:	22 08       	add	8,a2
    36ad:	aa 00       	cmp	0,d2
    36af:	c9 de       	bne	368d <.L71>
    36b1:	5d 2c       	mov	(44,sp),a1
    36b3:	f1 e0       	mov	d0,a0
    36b5:	87          	mov	d1,d3

000036b6 <.L69>:
    36b6:	43 0c       	mov	a0,(12,sp)
    36b8:	4e 10       	mov	d3,(16,sp)
    36ba:	58 38       	mov	(56,sp),d0
    36bc:	59 60       	mov	(96,sp),d1
    36be:	47 18       	mov	a1,(24,sp)
    36c0:	dd e9 54 00 	call	8ba9 <___divdf3>,[],0
    36c4:	00 00 00 

000036c7 <.LVL139>:
    36c7:	83          	mov	d0,d3
    36c8:	f1 e6       	mov	d1,a2
    36ca:	5d 18       	mov	(24,sp),a1

000036cc <.L72>:
    36cc:	5a 5c       	mov	(92,sp),d2
    36ce:	aa 00       	cmp	0,d2
    36d0:	c8 21       	beq	36f1 <.L0_24>

000036d2 <.Loc.471.1>:
    36d2:	08          	clr	d2
    36d3:	4a 0c       	mov	d2,(12,sp)
    36d5:	fc cc 00 00 	mov	1072693248,d0
    36d9:	f0 3f 
    36db:	42 10       	mov	d0,(16,sp)
    36dd:	8c          	mov	d3,d0
    36de:	f1 d9       	mov	a2,d1
    36e0:	47 18       	mov	a1,(24,sp)
    36e2:	dd 92 57 00 	call	8e74 <___ltdf2>,[],0
    36e6:	00 00 00 

000036e9 <.LVL141>:
    36e9:	5d 18       	mov	(24,sp),a1

000036eb <.LVL142>:
    36eb:	a8          	cmp	d2,d0
    36ec:	c2 05       	bge	36f1 <.L0_24>
    36ee:	cc 75 09    	jmp	4063 <.L300>

000036f1 <.L0_24>:
    36f1:	f1 d4       	mov	a1,d0
    36f3:	dd d6 57 00 	call	8ec9 <___floatsidf>,[],0
    36f7:	00 00 00 

000036fa <.LVL143>:
    36fa:	4e 0c       	mov	d3,(12,sp)
    36fc:	4b 10       	mov	a2,(16,sp)
    36fe:	dd 7a 52 00 	call	8978 <___muldf3>,[],0
    3702:	00 00 00 
    3705:	90 00       	mov	0,a0
    3707:	43 0c       	mov	a0,(12,sp)
    3709:	fc dc 00 00 	mov	1075576832,a0
    370d:	1c 40 
    370f:	43 10       	mov	a0,(16,sp)
    3711:	dd bf 51 00 	call	88d0 <___adddf3>,[],0
    3715:	00 00 00 
    3718:	82          	mov	d0,d2

00003719 <.Loc.481.1>:
    3719:	fc c1 00 00 	add	-54525952,d1
    371d:	c0 fc 
    371f:	46 38       	mov	d1,(56,sp)

00003721 <.Loc.482.1>:
    3721:	5d 44       	mov	(68,sp),a1
    3723:	b5 00       	cmp	0,a1
    3725:	c9 05       	bne	372a <.L0_25>
    3727:	cc 58 0a    	jmp	417f <.L159>

0000372a <.L0_25>:
    372a:	5d 40       	mov	(64,sp),a1
    372c:	47 78       	mov	a1,(120,sp)
    372e:	5d 44       	mov	(68,sp),a1
    3730:	47 68       	mov	a1,(104,sp)

00003732 <.L79>:
    3732:	5d 54       	mov	(84,sp),a1

00003734 <.LVL147>:
    3734:	58 68       	mov	(104,sp),d0
    3736:	54          	asl2	d0
    3737:	e0          	add	d0,d0
    3738:	f1 e0       	mov	d0,a0
    373a:	fc d0 80 97 	add	38784,a0
    373e:	00 00 

00003740 <.Loc.493.1>:
    3740:	b5 00       	cmp	0,a1
    3742:	c9 05       	bne	3747 <.L0_26>
    3744:	cc 38 0d    	jmp	447c <.L82>

00003747 <.L0_26>:
    3747:	74          	mov	(a0),d1
    3748:	f8 00 04    	mov	(4,a0),d0
    374b:	46 0c       	mov	d1,(12,sp)
    374d:	42 10       	mov	d0,(16,sp)
    374f:	00          	clr	d0
    3750:	fc cd 00 00 	mov	1071644672,d1
    3754:	e0 3f 
    3756:	dd 53 54 00 	call	8ba9 <___divdf3>,[],0
    375a:	00 00 00 
    375d:	4a 0c       	mov	d2,(12,sp)
    375f:	5a 38       	mov	(56,sp),d2
    3761:	4a 10       	mov	d2,(16,sp)
    3763:	dd bd 51 00 	call	8920 <___subdf3>,[],0
    3767:	00 00 00 
    376a:	42 6c       	mov	d0,(108,sp)
    376c:	46 70       	mov	d1,(112,sp)

0000376e <.LVL150>:
    376e:	8c          	mov	d3,d0
    376f:	f1 d9       	mov	a2,d1
    3771:	dd 19 58 00 	call	8f8a <___fixdfsi>,[],0
    3775:	00 00 00 
    3778:	f1 e0       	mov	d0,a0

0000377a <.LVL152>:
    377a:	43 1c       	mov	a0,(28,sp)
    377c:	dd 4d 57 00 	call	8ec9 <___floatsidf>,[],0
    3780:	00 00 00 

00003783 <.LVL153>:
    3783:	42 0c       	mov	d0,(12,sp)
    3785:	46 10       	mov	d1,(16,sp)
    3787:	8c          	mov	d3,d0
    3788:	f1 d9       	mov	a2,d1
    378a:	dd 96 51 00 	call	8920 <___subdf3>,[],0
    378e:	00 00 00 
    3791:	82          	mov	d0,d2
    3792:	87          	mov	d1,d3

00003793 <.Loc.503.1>:
    3793:	5c 1c       	mov	(28,sp),a0

00003795 <.LVL155>:
    3795:	f1 d0       	mov	a0,d0
    3797:	28 30       	add	48,d0
    3799:	f1 e2       	mov	d0,a2
    379b:	5d 20       	mov	(32,sp),a1
    379d:	f0 51       	movbu	d0,(a1)
    379f:	45          	inc	a1
    37a0:	47 38       	mov	a1,(56,sp)

000037a2 <.LVL156>:
    37a2:	4a 0c       	mov	d2,(12,sp)
    37a4:	46 10       	mov	d1,(16,sp)
    37a6:	58 6c       	mov	(108,sp),d0
    37a8:	59 70       	mov	(112,sp),d1
    37aa:	dd 20 56 00 	call	8dca <___gtdf2>,[],0
    37ae:	00 00 00 

000037b1 <.LVL157>:
    37b1:	a0 00       	cmp	0,d0
    37b3:	c3 05       	ble	37b8 <.L0_27>
    37b5:	cc bd 0e    	jmp	4672 <.L178>

000037b8 <.L0_27>:
    37b8:	4a 0c       	mov	d2,(12,sp)
    37ba:	4e 10       	mov	d3,(16,sp)
    37bc:	00          	clr	d0
    37bd:	fc cd 00 00 	mov	1072693248,d1
    37c1:	f0 3f 
    37c3:	dd 5d 51 00 	call	8920 <___subdf3>,[],0
    37c7:	00 00 00 
    37ca:	42 0c       	mov	d0,(12,sp)
    37cc:	46 10       	mov	d1,(16,sp)
    37ce:	58 6c       	mov	(108,sp),d0
    37d0:	59 70       	mov	(112,sp),d1
    37d2:	dd f8 55 00 	call	8dca <___gtdf2>,[],0
    37d6:	00 00 00 
    37d9:	a0 00       	cmp	0,d0
    37db:	c3 05       	ble	37e0 <.L0_28>
    37dd:	cc 24 0e    	jmp	4601 <.L291>

000037e0 <.L0_28>:
    37e0:	58 68       	mov	(104,sp),d0
    37e2:	a0 01       	cmp	1,d0
    37e4:	c1 05       	bgt	37e9 <.L0_29>
    37e6:	cc b4 00    	jmp	389a <.L66>

000037e9 <.L0_29>:
    37e9:	5d 20       	mov	(32,sp),a1
    37eb:	f1 61       	add	d0,a1
    37ed:	47 60       	mov	a1,(96,sp)
    37ef:	4f 74       	mov	a3,(116,sp)
    37f1:	5e 6c       	mov	(108,sp),a2
    37f3:	5f 70       	mov	(112,sp),a3

000037f5 <.L85>:
    37f5:	95 00       	mov	0,a1
    37f7:	47 0c       	mov	a1,(12,sp)
    37f9:	fc cc 00 00 	mov	1076101120,d0
    37fd:	24 40 
    37ff:	42 10       	mov	d0,(16,sp)
    3801:	f1 d8       	mov	a2,d0
    3803:	f1 dd       	mov	a3,d1
    3805:	dd 73 51 00 	call	8978 <___muldf3>,[],0
    3809:	00 00 00 
    380c:	f1 e2       	mov	d0,a2
    380e:	f1 e7       	mov	d1,a3

00003810 <.Loc.511.1>:
    3810:	04          	clr	d1
    3811:	46 0c       	mov	d1,(12,sp)
    3813:	fc dc 00 00 	mov	1076101120,a0
    3817:	24 40 
    3819:	43 10       	mov	a0,(16,sp)
    381b:	88          	mov	d2,d0
    381c:	8d          	mov	d3,d1
    381d:	dd 5b 51 00 	call	8978 <___muldf3>,[],0
    3821:	00 00 00 
    3824:	83          	mov	d0,d3
    3825:	86          	mov	d1,d2

00003826 <.Loc.501.1>:
    3826:	dd 64 57 00 	call	8f8a <___fixdfsi>,[],0
    382a:	00 00 00 
    382d:	f1 e0       	mov	d0,a0

0000382f <.LVL165>:
    382f:	43 1c       	mov	a0,(28,sp)
    3831:	dd 98 56 00 	call	8ec9 <___floatsidf>,[],0
    3835:	00 00 00 

00003838 <.LVL166>:
    3838:	42 0c       	mov	d0,(12,sp)
    383a:	46 10       	mov	d1,(16,sp)
    383c:	8c          	mov	d3,d0
    383d:	89          	mov	d2,d1
    383e:	dd e2 50 00 	call	8920 <___subdf3>,[],0
    3842:	00 00 00 
    3845:	82          	mov	d0,d2
    3846:	87          	mov	d1,d3

00003847 <.Loc.503.1>:
    3847:	5c 1c       	mov	(28,sp),a0

00003849 <.LVL168>:
    3849:	f1 d0       	mov	a0,d0
    384b:	28 30       	add	48,d0
    384d:	f8 92 68    	movbu	d0,(104,sp)
    3850:	5d 38       	mov	(56,sp),a1
    3852:	f0 51       	movbu	d0,(a1)
    3854:	45          	inc	a1
    3855:	47 38       	mov	a1,(56,sp)

00003857 <.LVL169>:
    3857:	4b 0c       	mov	a2,(12,sp)
    3859:	4f 10       	mov	a3,(16,sp)
    385b:	88          	mov	d2,d0
    385c:	dd 18 56 00 	call	8e74 <___ltdf2>,[],0
    3860:	00 00 00 

00003863 <.LVL170>:
    3863:	a0 00       	cmp	0,d0
    3865:	c2 05       	bge	386a <.L0_30>
    3867:	cc a8 0d    	jmp	460f <.L301>

0000386a <.L0_30>:
    386a:	4a 0c       	mov	d2,(12,sp)
    386c:	4e 10       	mov	d3,(16,sp)
    386e:	00          	clr	d0
    386f:	fc cd 00 00 	mov	1072693248,d1
    3873:	f0 3f 
    3875:	dd ab 50 00 	call	8920 <___subdf3>,[],0
    3879:	00 00 00 
    387c:	4b 0c       	mov	a2,(12,sp)
    387e:	4f 10       	mov	a3,(16,sp)
    3880:	dd f4 55 00 	call	8e74 <___ltdf2>,[],0
    3884:	00 00 00 
    3887:	a0 00       	cmp	0,d0
    3889:	c2 05       	bge	388e <.L0_31>
    388b:	cc 6f 0d    	jmp	45fa <.L180>

0000388e <.L0_31>:
    388e:	5d 38       	mov	(56,sp),a1
    3890:	5c 60       	mov	(96,sp),a0
    3892:	b1          	cmp	a0,a1
    3893:	c8 05       	beq	3898 <.L0_32>
    3895:	cc 60 ff    	jmp	37f5 <.L85>

00003898 <.L0_32>:
    3898:	5f 74       	mov	(116,sp),a3

0000389a <.L66>:
    389a:	58 80       	mov	(128,sp),d0
    389c:	a0 00       	cmp	0,d0
    389e:	c2 05       	bge	38a3 <.L0_33>
    38a0:	cc 88 02    	jmp	3b28 <.L94>

000038a3 <.L0_33>:
    38a3:	5a 40       	mov	(64,sp),d2
    38a5:	aa 0e       	cmp	14,d2
    38a7:	c3 05       	ble	38ac <.L0_34>
    38a9:	cc 7f 02    	jmp	3b28 <.L94>

000038ac <.L0_34>:
    38ac:	56          	asl2	d2
    38ad:	ea          	add	d2,d2
    38ae:	f1 e8       	mov	d2,a0
    38b0:	fc d0 88 97 	add	38792,a0
    38b4:	00 00 
    38b6:	7c          	mov	(a0),d3
    38b7:	4e 2c       	mov	d3,(44,sp)
    38b9:	f8 20 04    	mov	(4,a0),a0
    38bc:	43 28       	mov	a0,(40,sp)

000038be <.LVL174>:
    38be:	5c a8       	mov	(168,sp),a0

000038c0 <.LVL175>:
    38c0:	b0 00       	cmp	0,a0
    38c2:	c2 05       	bge	38c7 <.L0_35>
    38c4:	cc 1e 07    	jmp	3fe2 <.L95>

000038c7 <.L0_35>:
    38c7:	5d 2c       	mov	(44,sp),a1
    38c9:	47 0c       	mov	a1,(12,sp)
    38cb:	5e 28       	mov	(40,sp),a2
    38cd:	4b 10       	mov	a2,(16,sp)
    38cf:	58 34       	mov	(52,sp),d0
    38d1:	59 24       	mov	(36,sp),d1
    38d3:	dd d6 52 00 	call	8ba9 <___divdf3>,[],0
    38d7:	00 00 00 
    38da:	dd b0 56 00 	call	8f8a <___fixdfsi>,[],0
    38de:	00 00 00 
    38e1:	f1 e1       	mov	d0,a1

000038e3 <.LVL179>:
    38e3:	47 18       	mov	a1,(24,sp)
    38e5:	dd e4 55 00 	call	8ec9 <___floatsidf>,[],0
    38e9:	00 00 00 

000038ec <.LVL180>:
    38ec:	5a 2c       	mov	(44,sp),d2
    38ee:	4a 0c       	mov	d2,(12,sp)
    38f0:	4b 10       	mov	a2,(16,sp)
    38f2:	dd 86 50 00 	call	8978 <___muldf3>,[],0
    38f6:	00 00 00 
    38f9:	42 0c       	mov	d0,(12,sp)
    38fb:	46 10       	mov	d1,(16,sp)
    38fd:	58 34       	mov	(52,sp),d0
    38ff:	59 24       	mov	(36,sp),d1
    3901:	dd 1f 50 00 	call	8920 <___subdf3>,[],0
    3905:	00 00 00 
    3908:	f2 f2       	mov	d0,mdr
    390a:	f1 e4       	mov	d1,a0

0000390c <.Loc.572.1>:
    390c:	5d 18       	mov	(24,sp),a1

0000390e <.LVL183>:
    390e:	f1 d6       	mov	a1,d2
    3910:	2a 30       	add	48,d2
    3912:	5e 20       	mov	(32,sp),a2
    3914:	f0 5a       	movbu	d2,(a2)
    3916:	49          	inc	a2
    3917:	4b 38       	mov	a2,(56,sp)

00003919 <.LVL184>:
    3919:	5a 44       	mov	(68,sp),d2
    391b:	aa 01       	cmp	1,d2
    391d:	c9 05       	bne	3922 <.L0_36>
    391f:	cc 6c 09    	jmp	428b <.L96>

00003922 <.L0_36>:
    3922:	90 00       	mov	0,a0
    3924:	fc dd 00 00 	mov	1076101120,a1
    3928:	24 40 

0000392a <.LVL185>:
    392a:	43 0c       	mov	a0,(12,sp)
    392c:	47 10       	mov	a1,(16,sp)
    392e:	43 1c       	mov	a0,(28,sp)
    3930:	47 18       	mov	a1,(24,sp)
    3932:	dd 46 50 00 	call	8978 <___muldf3>,[],0
    3936:	00 00 00 
    3939:	82          	mov	d0,d2
    393a:	87          	mov	d1,d3
    393b:	5c 1c       	mov	(28,sp),a0
    393d:	43 0c       	mov	a0,(12,sp)
    393f:	43 10       	mov	a0,(16,sp)
    3941:	dd df 53 00 	call	8d20 <___eqdf2>,[],0
    3945:	00 00 00 
    3948:	a0 00       	cmp	0,d0
    394a:	c9 05       	bne	394f <.L0_37>
    394c:	cc 88 00    	jmp	39d4 <.L83>

0000394f <.L0_37>:
    394f:	5e 20       	mov	(32,sp),a2

00003951 <.LVL188>:
    3951:	22 02       	add	2,a2
    3953:	58 20       	mov	(32,sp),d0
    3955:	59 44       	mov	(68,sp),d1
    3957:	e4          	add	d1,d0
    3958:	42 34       	mov	d0,(52,sp)
    395a:	4f 24       	mov	a3,(36,sp)

0000395c <.L99>:
    395c:	5c 2c       	mov	(44,sp),a0
    395e:	43 0c       	mov	a0,(12,sp)
    3960:	5d 28       	mov	(40,sp),a1
    3962:	47 10       	mov	a1,(16,sp)
    3964:	88          	mov	d2,d0
    3965:	8d          	mov	d3,d1
    3966:	dd 43 52 00 	call	8ba9 <___divdf3>,[],0
    396a:	00 00 00 
    396d:	dd 1d 56 00 	call	8f8a <___fixdfsi>,[],0
    3971:	00 00 00 
    3974:	f1 e3       	mov	d0,a3

00003976 <.LVL192>:
    3976:	dd 53 55 00 	call	8ec9 <___floatsidf>,[],0
    397a:	00 00 00 

0000397d <.LVL193>:
    397d:	5c 2c       	mov	(44,sp),a0
    397f:	43 0c       	mov	a0,(12,sp)
    3981:	5d 28       	mov	(40,sp),a1
    3983:	47 10       	mov	a1,(16,sp)
    3985:	dd f3 4f 00 	call	8978 <___muldf3>,[],0
    3989:	00 00 00 
    398c:	42 0c       	mov	d0,(12,sp)
    398e:	46 10       	mov	d1,(16,sp)
    3990:	88          	mov	d2,d0
    3991:	8d          	mov	d3,d1
    3992:	dd 8e 4f 00 	call	8920 <___subdf3>,[],0
    3996:	00 00 00 

00003999 <.Loc.206.2>:
    3999:	4b 38       	mov	a2,(56,sp)

0000399b <.Loc.572.1>:
    399b:	f1 de       	mov	a3,d2
    399d:	2a 30       	add	48,d2
    399f:	f8 5a ff    	movbu	d2,(-1,a2)

000039a2 <.LVL196>:
    39a2:	5a 34       	mov	(52,sp),d2
    39a4:	f1 aa       	cmp	d2,a2
    39a6:	c9 05       	bne	39ab <.L0_38>
    39a8:	cc dc 08    	jmp	4284 <.L302>

000039ab <.L0_38>:
    39ab:	90 00       	mov	0,a0
    39ad:	43 0c       	mov	a0,(12,sp)
    39af:	fc dd 00 00 	mov	1076101120,a1
    39b3:	24 40 
    39b5:	47 10       	mov	a1,(16,sp)
    39b7:	dd c1 4f 00 	call	8978 <___muldf3>,[],0
    39bb:	00 00 00 
    39be:	82          	mov	d0,d2
    39bf:	87          	mov	d1,d3
    39c0:	49          	inc	a2

000039c1 <.LVL198>:
    39c1:	00          	clr	d0
    39c2:	42 0c       	mov	d0,(12,sp)
    39c4:	42 10       	mov	d0,(16,sp)
    39c6:	88          	mov	d2,d0
    39c7:	dd 59 53 00 	call	8d20 <___eqdf2>,[],0
    39cb:	00 00 00 
    39ce:	a0 00       	cmp	0,d0
    39d0:	c9 8c       	bne	395c <.L99>
    39d2:	5f 24       	mov	(36,sp),a3

000039d4 <.L83>:
    39d4:	f1 dc       	mov	a3,d0
    39d6:	59 30       	mov	(48,sp),d1
    39d8:	dd ac 1e 00 	call	5884 <__Bfree>,[],0
    39dc:	00 00 00 

000039df <.LVL201>:
    39df:	00          	clr	d0
    39e0:	5d 38       	mov	(56,sp),a1
    39e2:	f0 51       	movbu	d0,(a1)

000039e4 <.Loc.858.1>:
    39e4:	58 40       	mov	(64,sp),d0
    39e6:	40          	inc	d0
    39e7:	5e ac       	mov	(172,sp),a2
    39e9:	62          	mov	d0,(a2)

000039ea <.Loc.859.1>:
    39ea:	5d b4       	mov	(180,sp),a1
    39ec:	b5 00       	cmp	0,a1
    39ee:	c9 05       	bne	39f3 <.L0_39>
    39f0:	cc 13 fa    	jmp	3403 <.L228>

000039f3 <.L0_39>:
    39f3:	5e 38       	mov	(56,sp),a2
    39f5:	f0 19       	mov	a2,(a1)

000039f7 <.Loc.862.1>:
    39f7:	5c 20       	mov	(32,sp),a0
    39f9:	f1 d0       	mov	a0,d0
    39fb:	df f0 94    	ret	[d2,d3,a2,a3],148

000039fe <.L160>:
    39fe:	fc de 29 97 	mov	38697,a2
    3a02:	00 00 
    3a04:	4b 20       	mov	a2,(32,sp)
    3a06:	cc 26 fa    	jmp	342c <.L36>

00003a09 <.L296>:
    3a09:	58 34       	mov	(52,sp),d0

00003a0b <.Loc.299.1>:
    3a0b:	59 24       	mov	(36,sp),d1

00003a0d <.LVL204>:
    3a0d:	fc e1 ff ff 	and	1048575,d1
    3a11:	0f 00 

00003a13 <.Loc.300.1>:
    3a13:	fc e5 00 00 	or	1072693248,d1
    3a17:	f0 3f 

00003a19 <.Loc.328.1>:
    3a19:	fa d2 01 fc 	add	-1023,a2

00003a1d <.LVL205>:
    3a1d:	5a 7c       	mov	(124,sp),d2
    3a1f:	4a 20       	mov	d2,(32,sp)

00003a21 <.Loc.334.1>:
    3a21:	4e 4c       	mov	d3,(76,sp)

00003a23 <.LVL206>:
    3a23:	95 00       	mov	0,a1
    3a25:	47 0c       	mov	a1,(12,sp)
    3a27:	fc dc 00 00 	mov	1073217536,a0
    3a2b:	f8 3f 

00003a2d <.LVL207>:
    3a2d:	43 10       	mov	a0,(16,sp)
    3a2f:	47 18       	mov	a1,(24,sp)
    3a31:	dd ef 4e 00 	call	8920 <___subdf3>,[],0
    3a35:	00 00 00 
    3a38:	fc dc 61 43 	mov	1668236129,a0
    3a3c:	6f 63 
    3a3e:	43 0c       	mov	a0,(12,sp)
    3a40:	fc dc a7 87 	mov	1070761895,a0
    3a44:	d2 3f 
    3a46:	43 10       	mov	a0,(16,sp)
    3a48:	dd 30 4f 00 	call	8978 <___muldf3>,[],0
    3a4c:	00 00 00 
    3a4f:	fc dc b3 c8 	mov	-1956591437,a0
    3a53:	60 8b 
    3a55:	43 0c       	mov	a0,(12,sp)
    3a57:	fc dc 28 8a 	mov	1069976104,a0
    3a5b:	c6 3f 
    3a5d:	43 10       	mov	a0,(16,sp)
    3a5f:	dd 71 4e 00 	call	88d0 <___adddf3>,[],0
    3a63:	00 00 00 
    3a66:	83          	mov	d0,d3
    3a67:	86          	mov	d1,d2
    3a68:	f1 d8       	mov	a2,d0
    3a6a:	dd 5f 54 00 	call	8ec9 <___floatsidf>,[],0
    3a6e:	00 00 00 
    3a71:	fc dc fb 79 	mov	1352628731,a0
    3a75:	9f 50 
    3a77:	43 0c       	mov	a0,(12,sp)
    3a79:	fc dc 13 44 	mov	1070810131,a0
    3a7d:	d3 3f 
    3a7f:	43 10       	mov	a0,(16,sp)
    3a81:	dd f7 4e 00 	call	8978 <___muldf3>,[],0
    3a85:	00 00 00 
    3a88:	42 0c       	mov	d0,(12,sp)
    3a8a:	46 10       	mov	d1,(16,sp)
    3a8c:	8c          	mov	d3,d0
    3a8d:	89          	mov	d2,d1
    3a8e:	dd 42 4e 00 	call	88d0 <___adddf3>,[],0
    3a92:	00 00 00 
    3a95:	83          	mov	d0,d3
    3a96:	86          	mov	d1,d2

00003a97 <.LVL214>:
    3a97:	dd f3 54 00 	call	8f8a <___fixdfsi>,[],0
    3a9b:	00 00 00 

00003a9e <.LVL215>:
    3a9e:	42 40       	mov	d0,(64,sp)

00003aa0 <.LVL216>:
    3aa0:	5d 18       	mov	(24,sp),a1
    3aa2:	47 0c       	mov	a1,(12,sp)
    3aa4:	47 10       	mov	a1,(16,sp)
    3aa6:	8c          	mov	d3,d0

00003aa7 <.LVL217>:
    3aa7:	89          	mov	d2,d1
    3aa8:	dd cc 53 00 	call	8e74 <___ltdf2>,[],0
    3aac:	00 00 00 
    3aaf:	a0 00       	cmp	0,d0
    3ab1:	c0 05       	blt	3ab6 <.L0_40>
    3ab3:	cc 9e fa    	jmp	3551 <.L0_9>

00003ab6 <.L0_40>:
    3ab6:	ca 11       	bra	3ac7 <.L297>

00003ab8 <.L162>:
    3ab8:	fc dd 97 95 	mov	38295,a1
    3abc:	00 00 
    3abe:	47 20       	mov	a1,(32,sp)

00003ac0 <.Loc.862.1>:
    3ac0:	5c 20       	mov	(32,sp),a0
    3ac2:	f1 d0       	mov	a0,d0
    3ac4:	df f0 94    	ret	[d2,d3,a2,a3],148

00003ac7 <.L297>:
    3ac7:	58 40       	mov	(64,sp),d0
    3ac9:	dd 00 54 00 	call	8ec9 <___floatsidf>,[],0
    3acd:	00 00 00 
    3ad0:	4e 0c       	mov	d3,(12,sp)
    3ad2:	4a 10       	mov	d2,(16,sp)
    3ad4:	dd a1 52 00 	call	8d75 <___nedf2>,[],0
    3ad8:	00 00 00 
    3adb:	a0 00       	cmp	0,d0
    3add:	c9 05       	bne	3ae2 <.L0_41>
    3adf:	cc 72 fa    	jmp	3551 <.L0_9>

00003ae2 <.L0_41>:
    3ae2:	5a 40       	mov	(64,sp),d2
    3ae4:	2a ff       	add	-1,d2
    3ae6:	4a 40       	mov	d2,(64,sp)

00003ae8 <.LVL223>:
    3ae8:	5b 40       	mov	(64,sp),d3
    3aea:	af 16       	cmp	22,d3
    3aec:	c5 05       	bhi	3af1 <.L0_42>
    3aee:	cc 6c fa    	jmp	355a <.L0_10>

00003af1 <.L0_42>:
    3af1:	95 01       	mov	1,a1
    3af3:	47 5c       	mov	a1,(92,sp)
    3af5:	cc 92 fa    	jmp	3587 <.L49>

00003af8 <.L38>:
    3af8:	58 20       	mov	(32,sp),d0
    3afa:	28 03       	add	3,d0

00003afc <.Loc.271.1>:
    3afc:	5e b4       	mov	(180,sp),a2
    3afe:	62          	mov	d0,(a2)
    3aff:	cc 46 f9    	jmp	3445 <.L304>

00003b02 <.L166>:
    3b02:	9a 00       	mov	0,a2
    3b04:	4b a4       	mov	a2,(164,sp)

00003b06 <.L54>:
    3b06:	08          	clr	d2
    3b07:	f8 1b 44    	mov	d2,(68,a3)

00003b0a <.Loc.430.1>:
    3b0a:	f1 dc       	mov	a3,d0
    3b0c:	89          	mov	d2,d1
    3b0d:	dd 09 1d 00 	call	5816 <__Balloc>,[],0
    3b11:	00 00 00 

00003b14 <.LVL228>:
    3b14:	43 20       	mov	a0,(32,sp)
    3b16:	f8 33 40    	mov	a0,(64,a3)

00003b19 <.LVL229>:
    3b19:	8f ff       	mov	-1,d3
    3b1b:	4e 44       	mov	d3,(68,sp)
    3b1d:	4e 64       	mov	d3,(100,sp)
    3b1f:	4a a8       	mov	d2,(168,sp)
    3b21:	95 01       	mov	1,a1
    3b23:	47 54       	mov	a1,(84,sp)
    3b25:	cc 75 fd    	jmp	389a <.L66>

00003b28 <.L94>:
    3b28:	5b 54       	mov	(84,sp),d3
    3b2a:	af 00       	cmp	0,d3
    3b2c:	c9 05       	bne	3b31 <.L0_43>
    3b2e:	cc 1b 03    	jmp	3e49 <.L185>

00003b31 <.L0_43>:
    3b31:	5d a4       	mov	(164,sp),a1
    3b33:	b5 01       	cmp	1,a1
    3b35:	c1 05       	bgt	3b3a <.L0_44>
    3b37:	cc ff 04    	jmp	4036 <.L305>

00003b3a <.L0_44>:
    3b3a:	58 44       	mov	(68,sp),d0
    3b3c:	28 ff       	add	-1,d0

00003b3e <.LVL231>:
    3b3e:	5a 28       	mov	(40,sp),d2
    3b40:	a2          	cmp	d0,d2
    3b41:	c2 05       	bge	3b46 <.L0_45>
    3b43:	cc e2 07    	jmp	4325 <.L112>

00003b46 <.L0_45>:
    3b46:	8b          	mov	d2,d3
    3b47:	f1 03       	sub	d0,d3

00003b49 <.L113>:
    3b49:	5e 44       	mov	(68,sp),a2

00003b4b <.Loc.626.1>:
    3b4b:	5a 50       	mov	(80,sp),d2

00003b4d <.Loc.624.1>:
    3b4d:	ba 00       	cmp	0,a2
    3b4f:	c2 05       	bge	3b54 <.L0_46>
    3b51:	cc 16 0a    	jmp	4567 <.L306>

00003b54 <.L0_46>:
    3b54:	58 44       	mov	(68,sp),d0

00003b56 <.LVL233>:
    3b56:	5d 50       	mov	(80,sp),a1
    3b58:	f1 61       	add	d0,a1
    3b5a:	47 50       	mov	a1,(80,sp)

00003b5c <.LVL234>:
    3b5c:	5e 48       	mov	(72,sp),a2
    3b5e:	f1 62       	add	d0,a2
    3b60:	4b 48       	mov	a2,(72,sp)

00003b62 <.LVL235>:
    3b62:	f1 dc       	mov	a3,d0
    3b64:	85 01       	mov	1,d1
    3b66:	dd 3d 1f 00 	call	5aa3 <___i2b>,[],0
    3b6a:	00 00 00 

00003b6d <.LVL236>:
    3b6d:	43 4c       	mov	a0,(76,sp)

00003b6f <.L108>:
    3b6f:	aa 00       	cmp	0,d2
    3b71:	c8 1f       	beq	3b90 <.L114>

00003b73 <.Loc.634.1>:
    3b73:	5e 48       	mov	(72,sp),a2
    3b75:	ba 00       	cmp	0,a2
    3b77:	c3 19       	ble	3b90 <.L114>

00003b79 <.Loc.636.1>:
    3b79:	f1 d8       	mov	a2,d0
    3b7b:	f1 aa       	cmp	d2,a2
    3b7d:	c3 05       	ble	3b82 <.L0_47>
    3b7f:	cc 42 04    	jmp	3fc1 <.L307>

00003b82 <.L0_47>:
    3b82:	5d 50       	mov	(80,sp),a1
    3b84:	f1 21       	sub	d0,a1
    3b86:	47 50       	mov	a1,(80,sp)

00003b88 <.LVL239>:
    3b88:	f1 02       	sub	d0,d2

00003b8a <.Loc.639.1>:
    3b8a:	5e 48       	mov	(72,sp),a2
    3b8c:	f1 22       	sub	d0,a2
    3b8e:	4b 48       	mov	a2,(72,sp)

00003b90 <.L114>:
    3b90:	5d 28       	mov	(40,sp),a1
    3b92:	b5 00       	cmp	0,a1
    3b94:	c3 44       	ble	3bd8 <.L0_49>

00003b96 <.Loc.643.1>:
    3b96:	5e 54       	mov	(84,sp),a2
    3b98:	ba 00       	cmp	0,a2
    3b9a:	c9 05       	bne	3b9f <.L0_48>
    3b9c:	cc 42 07    	jmp	42de <.L117>

00003b9f <.L0_48>:
    3b9f:	af 00       	cmp	0,d3
    3ba1:	c3 2e       	ble	3bcf <.L118>

00003ba3 <.Loc.647.1>:
    3ba3:	4e 0c       	mov	d3,(12,sp)
    3ba5:	f1 dc       	mov	a3,d0
    3ba7:	59 4c       	mov	(76,sp),d1
    3ba9:	dd 56 20 00 	call	5bff <___pow5mult>,[],0
    3bad:	00 00 00 

00003bb0 <.LVL242>:
    3bb0:	43 4c       	mov	a0,(76,sp)

00003bb2 <.LVL243>:
    3bb2:	5d 30       	mov	(48,sp),a1
    3bb4:	47 0c       	mov	a1,(12,sp)
    3bb6:	f1 dc       	mov	a3,d0
    3bb8:	f1 d1       	mov	a0,d1
    3bba:	dd 03 1f 00 	call	5abd <___multiply>,[],0
    3bbe:	00 00 00 

00003bc1 <.LVL244>:
    3bc1:	92          	mov	a0,a2

00003bc2 <.LVL245>:
    3bc2:	f1 dc       	mov	a3,d0
    3bc4:	59 30       	mov	(48,sp),d1
    3bc6:	dd be 1c 00 	call	5884 <__Bfree>,[],0
    3bca:	00 00 00 

00003bcd <.LVL246>:
    3bcd:	4b 30       	mov	a2,(48,sp)

00003bcf <.L118>:
    3bcf:	58 28       	mov	(40,sp),d0
    3bd1:	f1 0c       	sub	d3,d0

00003bd3 <.LVL248>:
    3bd3:	c8 05       	beq	3bd8 <.L0_49>
    3bd5:	cc 4f 04    	jmp	4024 <.L308>

00003bd8 <.L0_49>:
    3bd8:	f1 dc       	mov	a3,d0
    3bda:	85 01       	mov	1,d1
    3bdc:	dd c7 1e 00 	call	5aa3 <___i2b>,[],0
    3be0:	00 00 00 

00003be3 <.LVL250>:
    3be3:	43 28       	mov	a0,(40,sp)

00003be5 <.LVL251>:
    3be5:	5b 58       	mov	(88,sp),d3

00003be7 <.LVL252>:
    3be7:	af 00       	cmp	0,d3
    3be9:	c3 11       	ble	3bfa <.L119>

00003beb <.Loc.660.1>:
    3beb:	4e 0c       	mov	d3,(12,sp)
    3bed:	f1 dc       	mov	a3,d0
    3bef:	f1 d1       	mov	a0,d1
    3bf1:	dd 0e 20 00 	call	5bff <___pow5mult>,[],0
    3bf5:	00 00 00 

00003bf8 <.LVL253>:
    3bf8:	43 28       	mov	a0,(40,sp)

00003bfa <.L119>:
    3bfa:	5d a4       	mov	(164,sp),a1
    3bfc:	b5 01       	cmp	1,a1
    3bfe:	c1 05       	bgt	3c03 <.L0_50>
    3c00:	cc 8f 03    	jmp	3f8f <.L309>

00003c03 <.L0_50>:
    3c03:	0c          	clr	d3

00003c04 <.L120>:
    3c04:	5d 58       	mov	(88,sp),a1
    3c06:	b5 00       	cmp	0,a1
    3c08:	c8 05       	beq	3c0d <.L0_51>
    3c0a:	cc 60 06    	jmp	426a <.L310>

00003c0d <.L0_51>:
    3c0d:	85 01       	mov	1,d1

00003c0f <.L121>:
    3c0f:	58 48       	mov	(72,sp),d0
    3c11:	e4          	add	d1,d0
    3c12:	f8 e0 1f    	and	31,d0

00003c15 <.LVL256>:
    3c15:	c9 05       	bne	3c1a <.L0_52>
    3c17:	cc 3d 02    	jmp	3e54 <.L192>

00003c1a <.L0_52>:
    3c1a:	85 20       	mov	32,d1
    3c1c:	f1 01       	sub	d0,d1

00003c1e <.LVL257>:
    3c1e:	a5 04       	cmp	4,d1
    3c20:	c1 05       	bgt	3c25 <.L0_53>
    3c22:	cc 57 0a    	jmp	4679 <.L123>

00003c25 <.L0_53>:
    3c25:	85 1c       	mov	28,d1

00003c27 <.LVL258>:
    3c27:	f1 01       	sub	d0,d1

00003c29 <.LVL259>:
    3c29:	5d 50       	mov	(80,sp),a1
    3c2b:	f1 65       	add	d1,a1
    3c2d:	47 50       	mov	a1,(80,sp)

00003c2f <.LVL260>:
    3c2f:	e6          	add	d1,d2

00003c30 <.Loc.707.1>:
    3c30:	5e 48       	mov	(72,sp),a2
    3c32:	f1 66       	add	d1,a2
    3c34:	4b 48       	mov	a2,(72,sp)

00003c36 <.L124>:
    3c36:	5d 50       	mov	(80,sp),a1
    3c38:	b5 00       	cmp	0,a1
    3c3a:	c3 11       	ble	3c4b <.L125>

00003c3c <.Loc.710.1>:
    3c3c:	47 0c       	mov	a1,(12,sp)
    3c3e:	f1 dc       	mov	a3,d0
    3c40:	59 30       	mov	(48,sp),d1

00003c42 <.LVL263>:
    3c42:	dd 85 20 00 	call	5cc7 <___lshift>,[],0
    3c46:	00 00 00 

00003c49 <.LVL264>:
    3c49:	43 30       	mov	a0,(48,sp)

00003c4b <.L125>:
    3c4b:	5e 48       	mov	(72,sp),a2
    3c4d:	ba 00       	cmp	0,a2
    3c4f:	c3 11       	ble	3c60 <.L126>

00003c51 <.Loc.712.1>:
    3c51:	4b 0c       	mov	a2,(12,sp)
    3c53:	f1 dc       	mov	a3,d0
    3c55:	59 28       	mov	(40,sp),d1
    3c57:	dd 70 20 00 	call	5cc7 <___lshift>,[],0
    3c5b:	00 00 00 

00003c5e <.LVL266>:
    3c5e:	43 28       	mov	a0,(40,sp)

00003c60 <.L126>:
    3c60:	5d 5c       	mov	(92,sp),a1
    3c62:	b5 00       	cmp	0,a1
    3c64:	c8 05       	beq	3c69 <.L0_54>
    3c66:	cc 7d 02    	jmp	3ee3 <.L311>

00003c69 <.L0_54>:
    3c69:	5d 44       	mov	(68,sp),a1
    3c6b:	b5 00       	cmp	0,a1
    3c6d:	c1 05       	bgt	3c72 <.L0_55>
    3c6f:	cc bb 02    	jmp	3f2a <.L0_75>

00003c72 <.L0_55>:
    3c72:	5d 54       	mov	(84,sp),a1

00003c74 <.LVL269>:
    3c74:	b5 00       	cmp	0,a1
    3c76:	c9 05       	bne	3c7b <.L0_56>
    3c78:	cc 14 02    	jmp	3e8c <.L313>

00003c7b <.L0_56>:
    3c7b:	aa 00       	cmp	0,d2
    3c7d:	c3 11       	ble	3c8e <.L132>

00003c7f <.Loc.741.1>:
    3c7f:	4a 0c       	mov	d2,(12,sp)
    3c81:	f1 dc       	mov	a3,d0
    3c83:	59 4c       	mov	(76,sp),d1
    3c85:	dd 42 20 00 	call	5cc7 <___lshift>,[],0
    3c89:	00 00 00 

00003c8c <.LVL270>:
    3c8c:	43 4c       	mov	a0,(76,sp)

00003c8e <.L132>:
    3c8e:	af 00       	cmp	0,d3
    3c90:	c8 05       	beq	3c95 <.L0_57>
    3c92:	cc 52 07    	jmp	43e4 <.L314>

00003c95 <.L0_57>:
    3c95:	5a 4c       	mov	(76,sp),d2

00003c97 <.LVL272>:
    3c97:	4a 24       	mov	d2,(36,sp)
    3c99:	5e 20       	mov	(32,sp),a2

00003c9b <.Loc.206.2>:
    3c9b:	f1 d8       	mov	a2,d0
    3c9d:	28 ff       	add	-1,d0
    3c9f:	5b 44       	mov	(68,sp),d3

00003ca1 <.LVL273>:
    3ca1:	e3          	add	d0,d3
    3ca2:	4e 44       	mov	d3,(68,sp)
    3ca4:	5a 4c       	mov	(76,sp),d2

00003ca6 <.Loc.766.1>:
    3ca6:	5b 34       	mov	(52,sp),d3
    3ca8:	f8 e3 01    	and	1,d3
    3cab:	4e 34       	mov	d3,(52,sp)

00003cad <.L149>:
    3cad:	58 30       	mov	(48,sp),d0
    3caf:	59 28       	mov	(40,sp),d1
    3cb1:	cd 7d f5 00 	call	322e <_quorem>,[],0
    3cb5:	00 

00003cb6 <.LVL275>:
    3cb6:	42 38       	mov	d0,(56,sp)
    3cb8:	28 30       	add	48,d0
    3cba:	42 3c       	mov	d0,(60,sp)

00003cbc <.LVL276>:
    3cbc:	58 30       	mov	(48,sp),d0

00003cbe <.LVL277>:
    3cbe:	89          	mov	d2,d1
    3cbf:	dd b6 20 00 	call	5d75 <___mcmp>,[],0
    3cc3:	00 00 00 

00003cc6 <.LVL278>:
    3cc6:	83          	mov	d0,d3

00003cc7 <.LVL279>:
    3cc7:	5d 24       	mov	(36,sp),a1
    3cc9:	47 0c       	mov	a1,(12,sp)
    3ccb:	f1 dc       	mov	a3,d0

00003ccd <.LVL280>:
    3ccd:	59 28       	mov	(40,sp),d1
    3ccf:	dd e0 20 00 	call	5daf <___mdiff>,[],0
    3cd3:	00 00 00 

00003cd6 <.LVL281>:
    3cd6:	f8 00 0c    	mov	(12,a0),d0
    3cd9:	a0 00       	cmp	0,d0
    3cdb:	c9 05       	bne	3ce0 <.L0_58>
    3cdd:	cc b6 00    	jmp	3d93 <.L0_64>

00003ce0 <.L0_58>:
    3ce0:	f1 dc       	mov	a3,d0
    3ce2:	f1 d1       	mov	a0,d1
    3ce4:	dd a0 1b 00 	call	5884 <__Bfree>,[],0
    3ce8:	00 00 00 

00003ceb <.LVL283>:
    3ceb:	95 01       	mov	1,a1

00003ced <.L135>:
    3ced:	af 00       	cmp	0,d3
    3cef:	c2 05       	bge	3cf4 <.L0_59>
    3cf1:	cc db 03    	jmp	40cc <.L195>

00003cf4 <.L0_59>:
    3cf4:	c9 11       	bne	3d05 <.L0_60>
    3cf6:	5b a4       	mov	(164,sp),d3

00003cf8 <.LVL285>:
    3cf8:	af 00       	cmp	0,d3
    3cfa:	c9 0b       	bne	3d05 <.L0_60>

00003cfc <.Loc.778.1>:
    3cfc:	5b 34       	mov	(52,sp),d3
    3cfe:	af 00       	cmp	0,d3
    3d00:	c9 05       	bne	3d05 <.L0_60>
    3d02:	cc ca 03    	jmp	40cc <.L195>

00003d05 <.L0_60>:
    3d05:	5b 3c       	mov	(60,sp),d3

00003d07 <.Loc.793.1>:
    3d07:	b5 00       	cmp	0,a1
    3d09:	c3 05       	ble	3d0e <.L0_61>
    3d0b:	cc 2f 07    	jmp	443a <.L316>

00003d0e <.L0_61>:
    3d0e:	f0 5e       	movbu	d3,(a2)

00003d10 <.Loc.206.2>:
    3d10:	f1 db       	mov	a2,d3
    3d12:	4c          	inc	d3

00003d13 <.LVL286>:
    3d13:	5d 44       	mov	(68,sp),a1
    3d15:	b6          	cmp	a1,a2
    3d16:	c9 05       	bne	3d1b <.L0_62>
    3d18:	cc 38 07    	jmp	4450 <.L196>

00003d1b <.L0_62>:
    3d1b:	9a 0a       	mov	10,a2
    3d1d:	4b 0c       	mov	a2,(12,sp)
    3d1f:	9a 00       	mov	0,a2
    3d21:	4b 10       	mov	a2,(16,sp)
    3d23:	f1 dc       	mov	a3,d0
    3d25:	59 30       	mov	(48,sp),d1
    3d27:	dd 78 1b 00 	call	589f <___multadd>,[],0
    3d2b:	00 00 00 

00003d2e <.LVL287>:
    3d2e:	43 30       	mov	a0,(48,sp)

00003d30 <.LVL288>:
    3d30:	5d 24       	mov	(36,sp),a1
    3d32:	f1 96       	cmp	a1,d2
    3d34:	c9 05       	bne	3d39 <.L0_63>
    3d36:	cc a5 04    	jmp	41db <.L317>

00003d39 <.L0_63>:
    3d39:	85 0a       	mov	10,d1
    3d3b:	46 0c       	mov	d1,(12,sp)
    3d3d:	4b 10       	mov	a2,(16,sp)
    3d3f:	f1 dc       	mov	a3,d0
    3d41:	89          	mov	d2,d1
    3d42:	dd 5d 1b 00 	call	589f <___multadd>,[],0
    3d46:	00 00 00 

00003d49 <.LVL289>:
    3d49:	f1 d2       	mov	a0,d2

00003d4b <.Loc.813.1>:
    3d4b:	90 0a       	mov	10,a0
    3d4d:	43 0c       	mov	a0,(12,sp)
    3d4f:	4b 10       	mov	a2,(16,sp)
    3d51:	f1 dc       	mov	a3,d0
    3d53:	59 24       	mov	(36,sp),d1
    3d55:	dd 4a 1b 00 	call	589f <___multadd>,[],0
    3d59:	00 00 00 

00003d5c <.LVL291>:
    3d5c:	43 24       	mov	a0,(36,sp)

00003d5e <.LVL292>:
    3d5e:	f1 ee       	mov	d3,a2

00003d60 <.L321>:
    3d60:	58 30       	mov	(48,sp),d0
    3d62:	59 28       	mov	(40,sp),d1
    3d64:	cd ca f4 00 	call	322e <_quorem>,[],0
    3d68:	00 

00003d69 <.LVL294>:
    3d69:	42 38       	mov	d0,(56,sp)
    3d6b:	28 30       	add	48,d0
    3d6d:	42 3c       	mov	d0,(60,sp)

00003d6f <.LVL295>:
    3d6f:	58 30       	mov	(48,sp),d0

00003d71 <.LVL296>:
    3d71:	89          	mov	d2,d1
    3d72:	dd 03 20 00 	call	5d75 <___mcmp>,[],0
    3d76:	00 00 00 

00003d79 <.LVL297>:
    3d79:	83          	mov	d0,d3

00003d7a <.LVL298>:
    3d7a:	5d 24       	mov	(36,sp),a1
    3d7c:	47 0c       	mov	a1,(12,sp)
    3d7e:	f1 dc       	mov	a3,d0

00003d80 <.LVL299>:
    3d80:	59 28       	mov	(40,sp),d1
    3d82:	dd 2d 20 00 	call	5daf <___mdiff>,[],0
    3d86:	00 00 00 

00003d89 <.LVL300>:
    3d89:	f8 00 0c    	mov	(12,a0),d0
    3d8c:	a0 00       	cmp	0,d0
    3d8e:	c8 05       	beq	3d93 <.L0_64>
    3d90:	cc 50 ff    	jmp	3ce0 <.L0_58>

00003d93 <.L0_64>:
    3d93:	58 30       	mov	(48,sp),d0
    3d95:	f1 d1       	mov	a0,d1
    3d97:	43 1c       	mov	a0,(28,sp)
    3d99:	dd dc 1f 00 	call	5d75 <___mcmp>,[],0
    3d9d:	00 00 00 

00003da0 <.LVL301>:
    3da0:	f1 e1       	mov	d0,a1

00003da2 <.LVL302>:
    3da2:	f1 dc       	mov	a3,d0

00003da4 <.LVL303>:
    3da4:	5c 1c       	mov	(28,sp),a0
    3da6:	f1 d1       	mov	a0,d1
    3da8:	47 18       	mov	a1,(24,sp)
    3daa:	dd da 1a 00 	call	5884 <__Bfree>,[],0
    3dae:	00 00 00 

00003db1 <.LVL304>:
    3db1:	5d 18       	mov	(24,sp),a1
    3db3:	b5 00       	cmp	0,a1
    3db5:	c8 05       	beq	3dba <.L0_65>
    3db7:	cc 36 ff    	jmp	3ced <.L135>

00003dba <.L0_65>:
    3dba:	58 a4       	mov	(164,sp),d0
    3dbc:	a0 00       	cmp	0,d0
    3dbe:	c8 05       	beq	3dc3 <.L0_66>
    3dc0:	cc 2d ff    	jmp	3ced <.L135>

00003dc3 <.L0_66>:
    3dc3:	59 34       	mov	(52,sp),d1
    3dc5:	a5 00       	cmp	0,d1
    3dc7:	c8 05       	beq	3dcc <.L0_67>
    3dc9:	cc 24 ff    	jmp	3ced <.L135>

00003dcc <.L0_67>:
    3dcc:	58 3c       	mov	(60,sp),d0
    3dce:	a0 39       	cmp	57,d0
    3dd0:	c9 05       	bne	3dd5 <.L0_68>
    3dd2:	cc 30 03    	jmp	4102 <.L0_90>

00003dd5 <.L0_68>:
    3dd5:	af 00       	cmp	0,d3
    3dd7:	c3 08       	ble	3ddf <.L141>

00003dd9 <.Loc.771.1>:
    3dd9:	5b 38       	mov	(56,sp),d3

00003ddb <.LVL305>:
    3ddb:	2b 31       	add	49,d3
    3ddd:	4e 3c       	mov	d3,(60,sp)

00003ddf <.L141>:
    3ddf:	5b 3c       	mov	(60,sp),d3
    3de1:	f0 5e       	movbu	d3,(a2)
    3de3:	49          	inc	a2

00003de4 <.LVL307>:
    3de4:	4b 38       	mov	a2,(56,sp)

00003de6 <.LVL308>:
    3de6:	5d 24       	mov	(36,sp),a1
    3de8:	47 4c       	mov	a1,(76,sp)

00003dea <.L138>:
    3dea:	f1 dc       	mov	a3,d0
    3dec:	59 28       	mov	(40,sp),d1
    3dee:	dd 96 1a 00 	call	5884 <__Bfree>,[],0
    3df2:	00 00 00 

00003df5 <.LVL310>:
    3df5:	5e 4c       	mov	(76,sp),a2
    3df7:	ba 00       	cmp	0,a2
    3df9:	c9 05       	bne	3dfe <.L0_69>
    3dfb:	cc d9 fb    	jmp	39d4 <.L83>

00003dfe <.L0_69>:
    3dfe:	aa 00       	cmp	0,d2
    3e00:	c8 10       	beq	3e10 <.L158>

00003e02 <.Loc.851.1>:
    3e02:	f1 9a       	cmp	a2,d2
    3e04:	c8 0c       	beq	3e10 <.L158>

00003e06 <.Loc.852.1>:
    3e06:	f1 dc       	mov	a3,d0
    3e08:	89          	mov	d2,d1
    3e09:	dd 7b 1a 00 	call	5884 <__Bfree>,[],0
    3e0d:	00 00 00 

00003e10 <.L158>:
    3e10:	f1 dc       	mov	a3,d0
    3e12:	59 4c       	mov	(76,sp),d1
    3e14:	dd 70 1a 00 	call	5884 <__Bfree>,[],0
    3e18:	00 00 00 

00003e1b <.LVL312>:
    3e1b:	cc b9 fb    	jmp	39d4 <.L83>

00003e1e <.L161>:
    3e1e:	fc dd 20 97 	mov	38688,a1
    3e22:	00 00 
    3e24:	47 20       	mov	a1,(32,sp)
    3e26:	cc 06 f6    	jmp	342c <.L36>

00003e29 <.L52>:
    3e29:	5b 50       	mov	(80,sp),d3
    3e2b:	5a 40       	mov	(64,sp),d2
    3e2d:	f1 0b       	sub	d2,d3
    3e2f:	4e 50       	mov	d3,(80,sp)

00003e31 <.LVL315>:
    3e31:	f2 32       	not	d2
    3e33:	48          	inc	d2
    3e34:	4a 28       	mov	d2,(40,sp)

00003e36 <.LVL316>:
    3e36:	95 00       	mov	0,a1
    3e38:	47 58       	mov	a1,(88,sp)
    3e3a:	cc 73 f7    	jmp	35ad <.L53>

00003e3d <.L298>:
    3e3d:	0c          	clr	d3
    3e3e:	f1 03       	sub	d0,d3
    3e40:	4e 50       	mov	d3,(80,sp)

00003e42 <.LVL318>:
    3e42:	95 00       	mov	0,a1
    3e44:	47 48       	mov	a1,(72,sp)
    3e46:	cc 53 f7    	jmp	3599 <.L51>

00003e49 <.L185>:
    3e49:	5b 28       	mov	(40,sp),d3

00003e4b <.Loc.596.1>:
    3e4b:	5a 50       	mov	(80,sp),d2

00003e4d <.Loc.598.1>:
    3e4d:	5d 54       	mov	(84,sp),a1
    3e4f:	47 4c       	mov	a1,(76,sp)
    3e51:	cc 1e fd    	jmp	3b6f <.L108>

00003e54 <.L192>:
    3e54:	85 1c       	mov	28,d1

00003e56 <.LVL321>:
    3e56:	5d 50       	mov	(80,sp),a1
    3e58:	f1 65       	add	d1,a1
    3e5a:	47 50       	mov	a1,(80,sp)

00003e5c <.LVL322>:
    3e5c:	e6          	add	d1,d2

00003e5d <.Loc.707.1>:
    3e5d:	5e 48       	mov	(72,sp),a2
    3e5f:	f1 66       	add	d1,a2
    3e61:	4b 48       	mov	a2,(72,sp)

00003e63 <.LVL324>:
    3e63:	cc d3 fd    	jmp	3c36 <.L124>

00003e66 <.L44>:
    3e66:	2c ee fb    	mov	-1042,d0
    3e69:	f1 18       	sub	a2,d0

00003e6b <.Loc.344.1>:
    3e6b:	5b 34       	mov	(52,sp),d3
    3e6d:	f2 93       	asl	d0,d3
    3e6f:	8c          	mov	d3,d0

00003e70 <.LVL326>:
    3e70:	dd 92 51 00 	call	9002 <___floatunsidf>,[],0
    3e74:	00 00 00 

00003e77 <.LVL327>:
    3e77:	fc c1 00 00 	add	-32505856,d1
    3e7b:	10 fe 

00003e7d <.Loc.349.1>:
    3e7d:	22 ff       	add	-1,a2

00003e7f <.LVL328>:
    3e7f:	95 01       	mov	1,a1
    3e81:	47 4c       	mov	a1,(76,sp)
    3e83:	cc 3b f6    	jmp	34be <.L43>

00003e86 <.L280>:
    3e86:	08          	clr	d2
    3e87:	4a 5c       	mov	d2,(92,sp)
    3e89:	cc fe f6    	jmp	3587 <.L49>

00003e8c <.L313>:
    3e8c:	5e 20       	mov	(32,sp),a2

00003e8e <.Loc.823.1>:
    3e8e:	8f 0a       	mov	10,d3

00003e90 <.LVL331>:
    3e90:	f1 d6       	mov	a1,d2

00003e92 <.LVL332>:
    3e92:	5c 30       	mov	(48,sp),a0

00003e94 <.L131>:
    3e94:	f1 d0       	mov	a0,d0
    3e96:	59 28       	mov	(40,sp),d1
    3e98:	43 1c       	mov	a0,(28,sp)
    3e9a:	cd 94 f3 00 	call	322e <_quorem>,[],0
    3e9e:	00 

00003e9f <.LVL334>:
    3e9f:	28 30       	add	48,d0

00003ea1 <.LVL335>:
    3ea1:	f0 52       	movbu	d0,(a2)
    3ea3:	49          	inc	a2

00003ea4 <.Loc.206.2>:
    3ea4:	f1 d9       	mov	a2,d1
    3ea6:	5d 20       	mov	(32,sp),a1
    3ea8:	f1 15       	sub	a1,d1

00003eaa <.Loc.821.1>:
    3eaa:	5c 1c       	mov	(28,sp),a0
    3eac:	5d 44       	mov	(68,sp),a1
    3eae:	f1 a5       	cmp	d1,a1
    3eb0:	c1 05       	bgt	3eb5 <.L0_70>
    3eb2:	cc 42 03    	jmp	41f4 <.L150>

00003eb5 <.L0_70>:
    3eb5:	4e 0c       	mov	d3,(12,sp)
    3eb7:	4a 10       	mov	d2,(16,sp)
    3eb9:	f1 dc       	mov	a3,d0

00003ebb <.LVL337>:
    3ebb:	f1 d1       	mov	a0,d1
    3ebd:	dd e2 19 00 	call	589f <___multadd>,[],0
    3ec1:	00 00 00 

00003ec4 <.LVL338>:
    3ec4:	ca d0       	bra	3e94 <.L131>

00003ec6 <.L299>:
    3ec6:	aa 02       	cmp	2,d2
    3ec8:	c8 05       	beq	3ecd <.L0_71>
    3eca:	cc 3c fc    	jmp	3b06 <.L54>

00003ecd <.L0_71>:
    3ecd:	95 00       	mov	0,a1
    3ecf:	47 54       	mov	a1,(84,sp)

00003ed1 <.L56>:
    3ed1:	5e a8       	mov	(168,sp),a2
    3ed3:	ba 00       	cmp	0,a2
    3ed5:	c1 05       	bgt	3eda <.L0_72>
    3ed7:	cc fc 00    	jmp	3fd3 <.L170>

00003eda <.L0_72>:
    3eda:	f1 da       	mov	a2,d2

00003edc <.LVL341>:
    3edc:	4b 64       	mov	a2,(100,sp)
    3ede:	4b 44       	mov	a2,(68,sp)
    3ee0:	cc 17 f7    	jmp	35f7 <.L0_19>

00003ee3 <.L311>:
    3ee3:	58 30       	mov	(48,sp),d0
    3ee5:	59 28       	mov	(40,sp),d1
    3ee7:	dd 8e 1e 00 	call	5d75 <___mcmp>,[],0
    3eeb:	00 00 00 

00003eee <.LVL343>:
    3eee:	a0 00       	cmp	0,d0
    3ef0:	c0 05       	blt	3ef5 <.L0_73>
    3ef2:	cc 77 fd    	jmp	3c69 <.L0_54>

00003ef5 <.L0_73>:
    3ef5:	58 40       	mov	(64,sp),d0
    3ef7:	28 ff       	add	-1,d0
    3ef9:	42 40       	mov	d0,(64,sp)

00003efb <.LVL344>:
    3efb:	95 0a       	mov	10,a1
    3efd:	47 0c       	mov	a1,(12,sp)
    3eff:	9a 00       	mov	0,a2
    3f01:	4b 10       	mov	a2,(16,sp)
    3f03:	f1 dc       	mov	a3,d0

00003f05 <.LVL345>:
    3f05:	59 30       	mov	(48,sp),d1
    3f07:	47 18       	mov	a1,(24,sp)
    3f09:	dd 96 19 00 	call	589f <___multadd>,[],0
    3f0d:	00 00 00 

00003f10 <.LVL346>:
    3f10:	43 30       	mov	a0,(48,sp)

00003f12 <.LVL347>:
    3f12:	5d 18       	mov	(24,sp),a1
    3f14:	59 54       	mov	(84,sp),d1
    3f16:	f1 99       	cmp	a2,d1
    3f18:	c8 05       	beq	3f1d <.L0_74>
    3f1a:	cc 32 07    	jmp	464c <.L318>

00003f1d <.L0_74>:
    3f1d:	5e 64       	mov	(100,sp),a2
    3f1f:	4b 44       	mov	a2,(68,sp)

00003f21 <.LVL348>:
    3f21:	5d 44       	mov	(68,sp),a1
    3f23:	b5 00       	cmp	0,a1
    3f25:	c3 05       	ble	3f2a <.L0_75>
    3f27:	cc 4b fd    	jmp	3c72 <.L0_55>

00003f2a <.L0_75>:
    3f2a:	5e a4       	mov	(164,sp),a2
    3f2c:	ba 02       	cmp	2,a2
    3f2e:	c1 05       	bgt	3f33 <.L0_76>
    3f30:	cc 42 fd    	jmp	3c72 <.L0_55>

00003f33 <.L0_76>:
    3f33:	b5 00       	cmp	0,a1
    3f35:	c8 05       	beq	3f3a <.L0_77>
    3f37:	cc 97 02    	jmp	41ce <.L81>

00003f3a <.L0_77>:
    3f3a:	80 05       	mov	5,d0
    3f3c:	42 0c       	mov	d0,(12,sp)
    3f3e:	47 10       	mov	a1,(16,sp)
    3f40:	f1 dc       	mov	a3,d0
    3f42:	59 28       	mov	(40,sp),d1
    3f44:	dd 5b 19 00 	call	589f <___multadd>,[],0
    3f48:	00 00 00 

00003f4b <.LVL350>:
    3f4b:	43 28       	mov	a0,(40,sp)

00003f4d <.LVL351>:
    3f4d:	58 30       	mov	(48,sp),d0
    3f4f:	f1 d1       	mov	a0,d1
    3f51:	dd 24 1e 00 	call	5d75 <___mcmp>,[],0
    3f55:	00 00 00 

00003f58 <.LVL352>:
    3f58:	a0 00       	cmp	0,d0
    3f5a:	c1 05       	bgt	3f5f <.L0_78>
    3f5c:	cc 72 02    	jmp	41ce <.L81>

00003f5f <.L0_78>:
    3f5f:	80 31       	mov	49,d0
    3f61:	5d 20       	mov	(32,sp),a1
    3f63:	f0 51       	movbu	d0,(a1)
    3f65:	45          	inc	a1
    3f66:	47 38       	mov	a1,(56,sp)

00003f68 <.LVL354>:
    3f68:	5a 40       	mov	(64,sp),d2
    3f6a:	48          	inc	d2
    3f6b:	4a 40       	mov	d2,(64,sp)

00003f6d <.L129>:
    3f6d:	f1 dc       	mov	a3,d0
    3f6f:	59 28       	mov	(40,sp),d1
    3f71:	dd 13 19 00 	call	5884 <__Bfree>,[],0
    3f75:	00 00 00 

00003f78 <.LVL356>:
    3f78:	5d 4c       	mov	(76,sp),a1
    3f7a:	b5 00       	cmp	0,a1
    3f7c:	c9 05       	bne	3f81 <.L0_79>
    3f7e:	cc 56 fa    	jmp	39d4 <.L83>

00003f81 <.L0_79>:
    3f81:	f1 dc       	mov	a3,d0
    3f83:	59 4c       	mov	(76,sp),d1
    3f85:	dd ff 18 00 	call	5884 <__Bfree>,[],0
    3f89:	00 00 00 

00003f8c <.LVL357>:
    3f8c:	cc 48 fa    	jmp	39d4 <.L83>

00003f8f <.L309>:
    3f8f:	5b 34       	mov	(52,sp),d3
    3f91:	af 00       	cmp	0,d3
    3f93:	c8 05       	beq	3f98 <.L0_80>
    3f95:	cc 6e fc    	jmp	3c03 <.L0_50>

00003f98 <.L0_80>:
    3f98:	58 24       	mov	(36,sp),d0
    3f9a:	fc e0 ff ff 	and	1048575,d0
    3f9e:	0f 00 
    3fa0:	c8 05       	beq	3fa5 <.L0_81>
    3fa2:	cc 61 fc    	jmp	3c03 <.L0_50>

00003fa5 <.L0_81>:
    3fa5:	5b 24       	mov	(36,sp),d3
    3fa7:	fc ef 00 00 	btst	2146435072,d3
    3fab:	f0 7f 
    3fad:	c9 05       	bne	3fb2 <.L0_82>
    3faf:	cc 69 06    	jmp	4618 <.L190>

00003fb2 <.L0_82>:
    3fb2:	5d 50       	mov	(80,sp),a1
    3fb4:	45          	inc	a1
    3fb5:	47 50       	mov	a1,(80,sp)

00003fb7 <.LVL359>:
    3fb7:	5e 48       	mov	(72,sp),a2
    3fb9:	49          	inc	a2
    3fba:	4b 48       	mov	a2,(72,sp)

00003fbc <.LVL360>:
    3fbc:	8f 01       	mov	1,d3
    3fbe:	cc 46 fc    	jmp	3c04 <.L120>

00003fc1 <.L307>:
    3fc1:	88          	mov	d2,d0

00003fc2 <.LVL362>:
    3fc2:	5d 50       	mov	(80,sp),a1
    3fc4:	f1 21       	sub	d0,a1
    3fc6:	47 50       	mov	a1,(80,sp)

00003fc8 <.LVL363>:
    3fc8:	f1 02       	sub	d0,d2

00003fca <.Loc.639.1>:
    3fca:	5e 48       	mov	(72,sp),a2

00003fcc <.LVL365>:
    3fcc:	f1 22       	sub	d0,a2
    3fce:	4b 48       	mov	a2,(72,sp)

00003fd0 <.LVL366>:
    3fd0:	cc c0 fb    	jmp	3b90 <.L114>

00003fd3 <.L170>:
    3fd3:	8a 01       	mov	1,d2

00003fd5 <.LVL368>:
    3fd5:	4a 64       	mov	d2,(100,sp)
    3fd7:	4a 44       	mov	d2,(68,sp)
    3fd9:	4a a8       	mov	d2,(168,sp)

00003fdb <.L61>:
    3fdb:	04          	clr	d1
    3fdc:	f8 17 44    	mov	d1,(68,a3)
    3fdf:	cc 33 f6    	jmp	3612 <.L64>

00003fe2 <.L95>:
    3fe2:	5b 44       	mov	(68,sp),d3

00003fe4 <.LVL371>:
    3fe4:	af 00       	cmp	0,d3
    3fe6:	c3 05       	ble	3feb <.L0_83>
    3fe8:	cc df f8    	jmp	38c7 <.L0_35>

00003feb <.L0_83>:
    3feb:	c8 05       	beq	3ff0 <.L0_84>
    3fed:	cc 4c 06    	jmp	4639 <.L183>

00003ff0 <.L0_84>:
    3ff0:	4e 0c       	mov	d3,(12,sp)
    3ff2:	fc cc 00 00 	mov	1075052544,d0
    3ff6:	14 40 
    3ff8:	42 10       	mov	d0,(16,sp)
    3ffa:	58 2c       	mov	(44,sp),d0
    3ffc:	59 28       	mov	(40,sp),d1
    3ffe:	dd 7a 49 00 	call	8978 <___muldf3>,[],0
    4002:	00 00 00 
    4005:	5a 34       	mov	(52,sp),d2
    4007:	4a 0c       	mov	d2,(12,sp)
    4009:	5b 24       	mov	(36,sp),d3
    400b:	4e 10       	mov	d3,(16,sp)
    400d:	dd 12 4e 00 	call	8e1f <___gedf2>,[],0
    4011:	00 00 00 
    4014:	a0 00       	cmp	0,d0
    4016:	c0 05       	blt	401b <.L0_85>
    4018:	cc 0e 06    	jmp	4626 <.L184>

0000401b <.L0_85>:
    401b:	5d 44       	mov	(68,sp),a1
    401d:	47 28       	mov	a1,(40,sp)
    401f:	47 4c       	mov	a1,(76,sp)
    4021:	cc 3e ff    	jmp	3f5f <.L0_78>

00004024 <.L308>:
    4024:	42 0c       	mov	d0,(12,sp)
    4026:	f1 dc       	mov	a3,d0

00004028 <.LVL376>:
    4028:	59 30       	mov	(48,sp),d1
    402a:	dd d5 1b 00 	call	5bff <___pow5mult>,[],0
    402e:	00 00 00 

00004031 <.LVL377>:
    4031:	43 30       	mov	a0,(48,sp)

00004033 <.LVL378>:
    4033:	cc a5 fb    	jmp	3bd8 <.L0_49>

00004036 <.L305>:
    4036:	5e 4c       	mov	(76,sp),a2
    4038:	ba 00       	cmp	0,a2
    403a:	c9 05       	bne	403f <.L0_86>
    403c:	cc 56 05    	jmp	4592 <.L110>

0000403f <.L0_86>:
    403f:	fa c0 33 04 	add	1075,d0
    4043:	5b 28       	mov	(40,sp),d3

00004045 <.Loc.596.1>:
    4045:	5a 50       	mov	(80,sp),d2

00004047 <.LVL380>:
    4047:	5d 50       	mov	(80,sp),a1
    4049:	f1 61       	add	d0,a1
    404b:	47 50       	mov	a1,(80,sp)

0000404d <.LVL381>:
    404d:	5e 48       	mov	(72,sp),a2
    404f:	f1 62       	add	d0,a2
    4051:	4b 48       	mov	a2,(72,sp)

00004053 <.LVL382>:
    4053:	f1 dc       	mov	a3,d0

00004055 <.LVL383>:
    4055:	85 01       	mov	1,d1
    4057:	dd 4c 1a 00 	call	5aa3 <___i2b>,[],0
    405b:	00 00 00 

0000405e <.LVL384>:
    405e:	43 4c       	mov	a0,(76,sp)

00004060 <.LVL385>:
    4060:	cc 0f fb    	jmp	3b6f <.L108>

00004063 <.L300>:
    4063:	5c 44       	mov	(68,sp),a0
    4065:	f1 a8       	cmp	d2,a0
    4067:	c9 05       	bne	406c <.L0_87>
    4069:	cc e3 00    	jmp	414c <.L77>

0000406c <.L0_87>:
    406c:	58 64       	mov	(100,sp),d0
    406e:	a8          	cmp	d2,d0
    406f:	c1 05       	bgt	4074 <.L0_88>
    4071:	cc 29 f8    	jmp	389a <.L66>

00004074 <.L0_88>:
    4074:	59 40       	mov	(64,sp),d1
    4076:	29 ff       	add	-1,d1
    4078:	46 78       	mov	d1,(120,sp)

0000407a <.LVL388>:
    407a:	4a 0c       	mov	d2,(12,sp)
    407c:	fc cc 00 00 	mov	1076101120,d0
    4080:	24 40 

00004082 <.LVL389>:
    4082:	42 10       	mov	d0,(16,sp)
    4084:	8c          	mov	d3,d0
    4085:	f1 d9       	mov	a2,d1

00004087 <.LVL390>:
    4087:	dd f1 48 00 	call	8978 <___muldf3>,[],0
    408b:	00 00 00 

0000408e <.LVL391>:
    408e:	83          	mov	d0,d3
    408f:	f1 e6       	mov	d1,a2

00004091 <.LVL392>:
    4091:	5d 18       	mov	(24,sp),a1
    4093:	f1 d4       	mov	a1,d0
    4095:	40          	inc	d0

00004096 <.LVL393>:
    4096:	dd 33 4e 00 	call	8ec9 <___floatsidf>,[],0
    409a:	00 00 00 

0000409d <.LVL394>:
    409d:	42 0c       	mov	d0,(12,sp)
    409f:	46 10       	mov	d1,(16,sp)
    40a1:	8c          	mov	d3,d0
    40a2:	f1 d9       	mov	a2,d1
    40a4:	dd d4 48 00 	call	8978 <___muldf3>,[],0
    40a8:	00 00 00 
    40ab:	4a 0c       	mov	d2,(12,sp)
    40ad:	fc dc 00 00 	mov	1075576832,a0
    40b1:	1c 40 
    40b3:	43 10       	mov	a0,(16,sp)
    40b5:	dd 1b 48 00 	call	88d0 <___adddf3>,[],0
    40b9:	00 00 00 
    40bc:	82          	mov	d0,d2

000040bd <.Loc.481.1>:
    40bd:	fc c1 00 00 	add	-54525952,d1
    40c1:	c0 fc 
    40c3:	46 38       	mov	d1,(56,sp)
    40c5:	5d 64       	mov	(100,sp),a1
    40c7:	47 68       	mov	a1,(104,sp)
    40c9:	cc 69 f6    	jmp	3732 <.L79>

000040cc <.L195>:
    40cc:	5b 3c       	mov	(60,sp),d3

000040ce <.Loc.782.1>:
    40ce:	b5 00       	cmp	0,a1
    40d0:	c1 05       	bgt	40d5 <.L0_89>
    40d2:	cc 0d fd    	jmp	3ddf <.L141>

000040d5 <.L0_89>:
    40d5:	80 01       	mov	1,d0
    40d7:	42 0c       	mov	d0,(12,sp)
    40d9:	f1 dc       	mov	a3,d0
    40db:	59 30       	mov	(48,sp),d1
    40dd:	dd ea 1b 00 	call	5cc7 <___lshift>,[],0
    40e1:	00 00 00 

000040e4 <.LVL398>:
    40e4:	43 30       	mov	a0,(48,sp)

000040e6 <.LVL399>:
    40e6:	f1 d0       	mov	a0,d0
    40e8:	59 28       	mov	(40,sp),d1
    40ea:	dd 8b 1c 00 	call	5d75 <___mcmp>,[],0
    40ee:	00 00 00 

000040f1 <.LVL400>:
    40f1:	a0 00       	cmp	0,d0
    40f3:	c3 3b       	ble	412e <.L319>

000040f5 <.Loc.787.1>:
    40f5:	58 38       	mov	(56,sp),d0

000040f7 <.LVL401>:
    40f7:	28 31       	add	49,d0
    40f9:	42 3c       	mov	d0,(60,sp)

000040fb <.LVL402>:
    40fb:	af 39       	cmp	57,d3
    40fd:	c8 05       	beq	4102 <.L0_90>
    40ff:	cc e0 fc    	jmp	3ddf <.L141>

00004102 <.L0_90>:
    4102:	80 39       	mov	57,d0
    4104:	f0 52       	movbu	d0,(a2)
    4106:	49          	inc	a2

00004107 <.LVL404>:
    4107:	4b 38       	mov	a2,(56,sp)

00004109 <.LVL405>:
    4109:	5d 24       	mov	(36,sp),a1
    410b:	47 4c       	mov	a1,(76,sp)

0000410d <.L145>:
    410d:	5c 38       	mov	(56,sp),a0

0000410f <.Loc.206.2>:
    410f:	5b 20       	mov	(32,sp),d3
    4111:	4c          	inc	d3
    4112:	f1 ee       	mov	d3,a2

00004114 <.L155>:
    4114:	f1 d1       	mov	a0,d1

00004116 <.LVL407>:
    4116:	91          	mov	a0,a1
    4117:	21 ff       	add	-1,a1

00004119 <.LVL408>:
    4119:	83          	mov	d0,d3
    411a:	17          	extbu	d3
    411b:	af 39       	cmp	57,d3
    411d:	c8 05       	beq	4122 <.L0_91>
    411f:	cc 13 03    	jmp	4432 <.L320>

00004122 <.L0_91>:
    4122:	b8          	cmp	a2,a0
    4123:	c9 05       	bne	4128 <.L0_92>
    4125:	cc 37 01    	jmp	425c <.L154>

00004128 <.L0_92>:
    4128:	f8 40 fe    	movbu	(-2,a0),d0
    412b:	94          	mov	a1,a0
    412c:	ca e8       	bra	4114 <.L155>

0000412e <.L319>:
    412e:	c8 05       	beq	4133 <.L0_93>
    4130:	cc af fc    	jmp	3ddf <.L141>

00004133 <.L0_93>:
    4133:	58 3c       	mov	(60,sp),d0

00004135 <.LVL410>:
    4135:	f8 e0 01    	and	1,d0
    4138:	c9 05       	bne	413d <.L0_94>
    413a:	cc a5 fc    	jmp	3ddf <.L141>

0000413d <.L0_94>:
    413d:	58 38       	mov	(56,sp),d0
    413f:	28 31       	add	49,d0
    4141:	42 3c       	mov	d0,(60,sp)

00004143 <.LVL411>:
    4143:	af 39       	cmp	57,d3
    4145:	c8 05       	beq	414a <.L0_95>
    4147:	cc 98 fc    	jmp	3ddf <.L141>

0000414a <.L0_95>:
    414a:	ca b8       	bra	4102 <.L0_90>

0000414c <.L77>:
    414c:	f1 d4       	mov	a1,d0
    414e:	dd 7b 4d 00 	call	8ec9 <___floatsidf>,[],0
    4152:	00 00 00 

00004155 <.LVL413>:
    4155:	42 0c       	mov	d0,(12,sp)
    4157:	46 10       	mov	d1,(16,sp)
    4159:	8c          	mov	d3,d0
    415a:	f1 d9       	mov	a2,d1
    415c:	dd 1c 48 00 	call	8978 <___muldf3>,[],0
    4160:	00 00 00 
    4163:	5a 44       	mov	(68,sp),d2
    4165:	4a 0c       	mov	d2,(12,sp)
    4167:	fc dc 00 00 	mov	1075576832,a0
    416b:	1c 40 
    416d:	43 10       	mov	a0,(16,sp)
    416f:	dd 61 47 00 	call	88d0 <___adddf3>,[],0
    4173:	00 00 00 
    4176:	82          	mov	d0,d2

00004177 <.Loc.481.1>:
    4177:	fc c1 00 00 	add	-54525952,d1
    417b:	c0 fc 
    417d:	46 38       	mov	d1,(56,sp)

0000417f <.L159>:
    417f:	00          	clr	d0
    4180:	42 0c       	mov	d0,(12,sp)
    4182:	fc cc 00 00 	mov	1075052544,d0
    4186:	14 40 
    4188:	42 10       	mov	d0,(16,sp)
    418a:	8c          	mov	d3,d0
    418b:	f1 d9       	mov	a2,d1
    418d:	dd 93 47 00 	call	8920 <___subdf3>,[],0
    4191:	00 00 00 
    4194:	f1 e2       	mov	d0,a2
    4196:	87          	mov	d1,d3

00004197 <.Loc.486.1>:
    4197:	4a 0c       	mov	d2,(12,sp)
    4199:	5c 38       	mov	(56,sp),a0
    419b:	43 10       	mov	a0,(16,sp)
    419d:	dd 2d 4c 00 	call	8dca <___gtdf2>,[],0
    41a1:	00 00 00 
    41a4:	a0 00       	cmp	0,d0
    41a6:	c3 05       	ble	41ab <.L0_96>
    41a8:	cc b1 03    	jmp	4559 <.L176>

000041ab <.L0_96>:
    41ab:	58 38       	mov	(56,sp),d0
    41ad:	fc c0 00 00 	add	-2147483648,d0
    41b1:	00 80 
    41b3:	4a 0c       	mov	d2,(12,sp)
    41b5:	42 10       	mov	d0,(16,sp)
    41b7:	f1 d8       	mov	a2,d0
    41b9:	8d          	mov	d3,d1
    41ba:	dd ba 4c 00 	call	8e74 <___ltdf2>,[],0
    41be:	00 00 00 
    41c1:	a0 00       	cmp	0,d0
    41c3:	c0 05       	blt	41c8 <.L0_97>
    41c5:	cc d5 f6    	jmp	389a <.L66>

000041c8 <.L0_97>:
    41c8:	95 00       	mov	0,a1
    41ca:	47 28       	mov	a1,(40,sp)
    41cc:	47 4c       	mov	a1,(76,sp)

000041ce <.L81>:
    41ce:	58 a8       	mov	(168,sp),d0
    41d0:	f2 30       	not	d0
    41d2:	42 40       	mov	d0,(64,sp)

000041d4 <.LVL421>:
    41d4:	5d 20       	mov	(32,sp),a1
    41d6:	47 38       	mov	a1,(56,sp)
    41d8:	cc 95 fd    	jmp	3f6d <.L129>

000041db <.L317>:
    41db:	80 0a       	mov	10,d0
    41dd:	42 0c       	mov	d0,(12,sp)
    41df:	4b 10       	mov	a2,(16,sp)
    41e1:	f1 dc       	mov	a3,d0
    41e3:	89          	mov	d2,d1
    41e4:	dd bb 16 00 	call	589f <___multadd>,[],0
    41e8:	00 00 00 

000041eb <.LVL423>:
    41eb:	f1 d2       	mov	a0,d2

000041ed <.LVL424>:
    41ed:	43 24       	mov	a0,(36,sp)

000041ef <.LVL425>:
    41ef:	f1 ee       	mov	d3,a2
    41f1:	cc 6f fb    	jmp	3d60 <.L321>

000041f4 <.L150>:
    41f4:	42 3c       	mov	d0,(60,sp)
    41f6:	43 30       	mov	a0,(48,sp)

000041f8 <.Loc.206.2>:
    41f8:	58 44       	mov	(68,sp),d0

000041fa <.LVL427>:
    41fa:	a0 00       	cmp	0,d0
    41fc:	c3 55       	ble	4251 <.L322>
    41fe:	5e 20       	mov	(32,sp),a2

00004200 <.LVL428>:
    4200:	f1 62       	add	d0,a2
    4202:	4b 38       	mov	a2,(56,sp)

00004204 <.Loc.598.1>:
    4204:	08          	clr	d2

00004205 <.L146>:
    4205:	80 01       	mov	1,d0
    4207:	42 0c       	mov	d0,(12,sp)
    4209:	f1 dc       	mov	a3,d0
    420b:	59 30       	mov	(48,sp),d1
    420d:	dd ba 1a 00 	call	5cc7 <___lshift>,[],0
    4211:	00 00 00 

00004214 <.LVL430>:
    4214:	43 30       	mov	a0,(48,sp)

00004216 <.LVL431>:
    4216:	f1 d0       	mov	a0,d0
    4218:	59 28       	mov	(40,sp),d1
    421a:	dd 5b 1b 00 	call	5d75 <___mcmp>,[],0
    421e:	00 00 00 

00004221 <.LVL432>:
    4221:	a0 00       	cmp	0,d0
    4223:	c3 11       	ble	4234 <.L323>

00004225 <.L152>:
    4225:	5d 38       	mov	(56,sp),a1
    4227:	f8 41 ff    	movbu	(-1,a1),d0
    422a:	5c 38       	mov	(56,sp),a0

0000422c <.Loc.206.2>:
    422c:	5b 20       	mov	(32,sp),d3
    422e:	4c          	inc	d3
    422f:	f1 ee       	mov	d3,a2
    4231:	cc e3 fe    	jmp	4114 <.L155>

00004234 <.L323>:
    4234:	c9 09       	bne	423d <.L290>
    4236:	58 3c       	mov	(60,sp),d0

00004238 <.LVL435>:
    4238:	f8 e0 01    	and	1,d0
    423b:	c9 ea       	bne	4225 <.L152>

0000423d <.L290>:
    423d:	5c 38       	mov	(56,sp),a0

0000423f <.L256>:
    423f:	f1 d1       	mov	a0,d1
    4241:	29 ff       	add	-1,d1

00004243 <.LVL437>:
    4243:	f8 40 ff    	movbu	(-1,a0),d0
    4246:	a0 30       	cmp	48,d0
    4248:	c8 05       	beq	424d <.L0_98>
    424a:	cc 18 03    	jmp	4562 <.L324>

0000424d <.L0_98>:
    424d:	f1 e4       	mov	d1,a0
    424f:	ca f0       	bra	423f <.L256>

00004251 <.L322>:
    4251:	80 01       	mov	1,d0
    4253:	5e 20       	mov	(32,sp),a2

00004255 <.LVL439>:
    4255:	f1 62       	add	d0,a2
    4257:	4b 38       	mov	a2,(56,sp)

00004259 <.Loc.598.1>:
    4259:	08          	clr	d2
    425a:	ca ab       	bra	4205 <.L146>

0000425c <.L154>:
    425c:	46 38       	mov	d1,(56,sp)

0000425e <.Loc.836.1>:
    425e:	5b 40       	mov	(64,sp),d3
    4260:	4c          	inc	d3
    4261:	4e 40       	mov	d3,(64,sp)

00004263 <.LVL441>:
    4263:	80 31       	mov	49,d0
    4265:	f0 51       	movbu	d0,(a1)

00004267 <.LVL442>:
    4267:	cc 83 fb    	jmp	3dea <.L138>

0000426a <.L310>:
    426a:	5e 28       	mov	(40,sp),a2
    426c:	f8 02 10    	mov	(16,a2),d0
    426f:	28 04       	add	4,d0
    4271:	54          	asl2	d0
    4272:	98          	mov	a2,a0
    4273:	f1 60       	add	d0,a0
    4275:	70          	mov	(a0),d0
    4276:	dd 72 17 00 	call	59e8 <___hi0bits>,[],0
    427a:	00 00 00 

0000427d <.LVL444>:
    427d:	85 20       	mov	32,d1
    427f:	f1 01       	sub	d0,d1
    4281:	cc 8e f9    	jmp	3c0f <.L121>

00004284 <.L302>:
    4284:	f2 f2       	mov	d0,mdr
    4286:	f1 e4       	mov	d1,a0
    4288:	9d          	mov	a3,a1
    4289:	5f 24       	mov	(36,sp),a3

0000428b <.L96>:
    428b:	f2 e2       	mov	mdr,d2
    428d:	4a 0c       	mov	d2,(12,sp)
    428f:	43 10       	mov	a0,(16,sp)
    4291:	f2 e0       	mov	mdr,d0
    4293:	f1 d1       	mov	a0,d1
    4295:	47 18       	mov	a1,(24,sp)
    4297:	dd 39 46 00 	call	88d0 <___adddf3>,[],0
    429b:	00 00 00 

0000429e <.LVL447>:
    429e:	82          	mov	d0,d2
    429f:	87          	mov	d1,d3

000042a0 <.Loc.576.1>:
    42a0:	42 0c       	mov	d0,(12,sp)
    42a2:	46 10       	mov	d1,(16,sp)
    42a4:	58 2c       	mov	(44,sp),d0
    42a6:	59 28       	mov	(40,sp),d1
    42a8:	dd cc 4b 00 	call	8e74 <___ltdf2>,[],0
    42ac:	00 00 00 
    42af:	5d 18       	mov	(24,sp),a1

000042b1 <.LVL449>:
    42b1:	a0 00       	cmp	0,d0
    42b3:	c0 05       	blt	42b8 <.L0_99>
    42b5:	cc 8e 00    	jmp	4343 <.L284>

000042b8 <.L0_99>:
    42b8:	5d 38       	mov	(56,sp),a1

000042ba <.LVL450>:
    42ba:	f8 4d ff    	movbu	(-1,a1),d3
    42bd:	f1 ee       	mov	d3,a2

000042bf <.L84>:
    42bf:	5c 38       	mov	(56,sp),a0

000042c1 <.Loc.206.2>:
    42c1:	59 20       	mov	(32,sp),d1
    42c3:	44          	inc	d1
    42c4:	f1 db       	mov	a2,d3

000042c6 <.L104>:
    42c6:	f1 d0       	mov	a0,d0

000042c8 <.LVL453>:
    42c8:	91          	mov	a0,a1
    42c9:	21 ff       	add	-1,a1

000042cb <.LVL454>:
    42cb:	8e          	mov	d3,d2
    42cc:	16          	extbu	d2
    42cd:	aa 39       	cmp	57,d2
    42cf:	c8 05       	beq	42d4 <.L0_100>
    42d1:	cc b5 02    	jmp	4586 <.L325>

000042d4 <.L0_100>:
    42d4:	f1 a4       	cmp	d1,a0
    42d6:	c8 1c       	beq	42f2 <.L103>
    42d8:	f8 4c fe    	movbu	(-2,a0),d3
    42db:	94          	mov	a1,a0
    42dc:	ca ea       	bra	42c6 <.L104>

000042de <.L117>:
    42de:	5e 28       	mov	(40,sp),a2
    42e0:	4b 0c       	mov	a2,(12,sp)
    42e2:	f1 dc       	mov	a3,d0
    42e4:	59 30       	mov	(48,sp),d1
    42e6:	dd 19 19 00 	call	5bff <___pow5mult>,[],0
    42ea:	00 00 00 

000042ed <.LVL456>:
    42ed:	43 30       	mov	a0,(48,sp)

000042ef <.LVL457>:
    42ef:	cc e9 f8    	jmp	3bd8 <.L0_49>

000042f2 <.L103>:
    42f2:	42 38       	mov	d0,(56,sp)

000042f4 <.Loc.582.1>:
    42f4:	5a 40       	mov	(64,sp),d2
    42f6:	48          	inc	d2
    42f7:	4a 40       	mov	d2,(64,sp)

000042f9 <.LVL459>:
    42f9:	80 30       	mov	48,d0
    42fb:	f0 51       	movbu	d0,(a1)

000042fd <.Loc.584.1>:
    42fd:	80 31       	mov	49,d0

000042ff <.Loc.586.1>:
    42ff:	f0 51       	movbu	d0,(a1)

00004301 <.LVL460>:
    4301:	cc d3 f6    	jmp	39d4 <.L83>

00004304 <.L169>:
    4304:	08          	clr	d2

00004305 <.LVL462>:
    4305:	4a 54       	mov	d2,(84,sp)

00004307 <.LVL463>:
    4307:	5c a8       	mov	(168,sp),a0
    4309:	5a 40       	mov	(64,sp),d2

0000430b <.LVL464>:
    430b:	f1 68       	add	d2,a0
    430d:	43 64       	mov	a0,(100,sp)
    430f:	f1 d2       	mov	a0,d2
    4311:	48          	inc	d2

00004312 <.LVL465>:
    4312:	4a 44       	mov	d2,(68,sp)
    4314:	aa 00       	cmp	0,d2
    4316:	c3 05       	ble	431b <.L0_101>
    4318:	cc df f2    	jmp	35f7 <.L0_19>

0000431b <.L0_101>:
    431b:	cc c0 fc    	jmp	3fdb <.L61>

0000431e <.L58>:
    431e:	9a 01       	mov	1,a2
    4320:	4b 54       	mov	a2,(84,sp)
    4322:	cc af fb    	jmp	3ed1 <.L56>

00004325 <.L112>:
    4325:	81          	mov	d0,d1
    4326:	5b 28       	mov	(40,sp),d3
    4328:	f1 0d       	sub	d3,d1

0000432a <.LVL468>:
    432a:	5d 58       	mov	(88,sp),a1
    432c:	f1 65       	add	d1,a1
    432e:	47 58       	mov	a1,(88,sp)

00004330 <.LVL469>:
    4330:	42 28       	mov	d0,(40,sp)

00004332 <.Loc.622.1>:
    4332:	0c          	clr	d3
    4333:	cc 16 f8    	jmp	3b49 <.L113>

00004336 <.L172>:
    4336:	5e 34       	mov	(52,sp),a2
    4338:	4b 38       	mov	a2,(56,sp)
    433a:	5d 24       	mov	(36,sp),a1
    433c:	47 60       	mov	a1,(96,sp)

0000433e <.Loc.441.1>:
    433e:	95 02       	mov	2,a1
    4340:	cc 3e f3    	jmp	367e <.L68>

00004343 <.L284>:
    4343:	4a 0c       	mov	d2,(12,sp)
    4345:	4e 10       	mov	d3,(16,sp)
    4347:	58 2c       	mov	(44,sp),d0
    4349:	59 28       	mov	(40,sp),d1
    434b:	47 18       	mov	a1,(24,sp)
    434d:	dd d3 49 00 	call	8d20 <___eqdf2>,[],0
    4351:	00 00 00 

00004354 <.LVL472>:
    4354:	5d 18       	mov	(24,sp),a1

00004356 <.LVL473>:
    4356:	a0 00       	cmp	0,d0
    4358:	c8 05       	beq	435d <.L0_102>
    435a:	cc 7a f6    	jmp	39d4 <.L83>

0000435d <.L0_102>:
    435d:	f1 d4       	mov	a1,d0
    435f:	f8 e0 01    	and	1,d0
    4362:	c9 05       	bne	4367 <.L0_103>
    4364:	cc 70 f6    	jmp	39d4 <.L83>

00004367 <.L0_103>:
    4367:	5d 38       	mov	(56,sp),a1

00004369 <.LVL474>:
    4369:	f8 41 ff    	movbu	(-1,a1),d0
    436c:	f1 e2       	mov	d0,a2

0000436e <.LVL475>:
    436e:	5c 38       	mov	(56,sp),a0

00004370 <.Loc.206.2>:
    4370:	59 20       	mov	(32,sp),d1
    4372:	44          	inc	d1
    4373:	f1 db       	mov	a2,d3
    4375:	cc 51 ff    	jmp	42c6 <.L104>

00004378 <.L67>:
    4378:	5a 40       	mov	(64,sp),d2

0000437a <.LVL477>:
    437a:	f2 32       	not	d2
    437c:	2a 01       	add	1,d2

0000437e <.LVL478>:
    437e:	c9 05       	bne	4383 <.L0_104>
    4380:	cc 38 02    	jmp	45b8 <.L173>

00004383 <.L0_104>:
    4383:	88          	mov	d2,d0
    4384:	f8 e0 0f    	and	15,d0
    4387:	54          	asl2	d0
    4388:	e0          	add	d0,d0
    4389:	f1 e0       	mov	d0,a0

0000438b <.LVL479>:
    438b:	fc d0 88 97 	add	38792,a0
    438f:	00 00 
    4391:	74          	mov	(a0),d1
    4392:	f8 00 04    	mov	(4,a0),d0
    4395:	46 0c       	mov	d1,(12,sp)
    4397:	42 10       	mov	d0,(16,sp)
    4399:	58 34       	mov	(52,sp),d0
    439b:	59 24       	mov	(36,sp),d1
    439d:	dd db 45 00 	call	8978 <___muldf3>,[],0
    43a1:	00 00 00 
    43a4:	83          	mov	d0,d3

000043a5 <.LVL481>:
    43a5:	f1 e6       	mov	d1,a2

000043a7 <.Loc.464.1>:
    43a7:	f8 ca 04    	asr	4,d2

000043aa <.LVL482>:
    43aa:	aa 00       	cmp	0,d2
    43ac:	c9 05       	bne	43b1 <.L0_105>
    43ae:	cc bf 02    	jmp	466d <.L174>

000043b1 <.L0_105>:
    43b1:	fc dc 60 97 	mov	38752,a0
    43b5:	00 00 

000043b7 <.Loc.441.1>:
    43b7:	95 02       	mov	2,a1
    43b9:	92          	mov	a0,a2

000043ba <.L74>:
    43ba:	8b          	mov	d2,d3
    43bb:	f8 e3 01    	and	1,d3
    43be:	c8 17       	beq	43d5 <.L73>

000043c0 <.Loc.467.1>:
    43c0:	45          	inc	a1

000043c1 <.LVL484>:
    43c1:	f0 02       	mov	(a2),a0
    43c3:	43 0c       	mov	a0,(12,sp)
    43c5:	f8 22 04    	mov	(4,a2),a0
    43c8:	43 10       	mov	a0,(16,sp)
    43ca:	47 18       	mov	a1,(24,sp)
    43cc:	dd ac 45 00 	call	8978 <___muldf3>,[],0
    43d0:	00 00 00 

000043d3 <.LVL485>:
    43d3:	5d 18       	mov	(24,sp),a1

000043d5 <.L73>:
    43d5:	f8 ca 01    	asr	1,d2
    43d8:	22 08       	add	8,a2
    43da:	aa 00       	cmp	0,d2
    43dc:	c9 de       	bne	43ba <.L74>
    43de:	83          	mov	d0,d3
    43df:	f1 e6       	mov	d1,a2
    43e1:	cc eb f2    	jmp	36cc <.L72>

000043e4 <.L314>:
    43e4:	f1 dc       	mov	a3,d0
    43e6:	5e 4c       	mov	(76,sp),a2
    43e8:	f8 06 04    	mov	(4,a2),d1
    43eb:	dd 2b 14 00 	call	5816 <__Balloc>,[],0
    43ef:	00 00 00 

000043f2 <.LVL489>:
    43f2:	f1 d2       	mov	a0,d2

000043f4 <.LVL490>:
    43f4:	f8 02 10    	mov	(16,a2),d0
    43f7:	28 02       	add	2,d0
    43f9:	54          	asl2	d0
    43fa:	42 0c       	mov	d0,(12,sp)
    43fc:	f1 d0       	mov	a0,d0
    43fe:	28 0c       	add	12,d0
    4400:	f1 d9       	mov	a2,d1
    4402:	29 0c       	add	12,d1
    4404:	dd bb 13 00 	call	57bf <_memcpy>,[],0
    4408:	00 00 00 

0000440b <.LVL491>:
    440b:	80 01       	mov	1,d0
    440d:	42 0c       	mov	d0,(12,sp)
    440f:	f1 dc       	mov	a3,d0
    4411:	89          	mov	d2,d1
    4412:	dd b5 18 00 	call	5cc7 <___lshift>,[],0
    4416:	00 00 00 

00004419 <.LVL492>:
    4419:	43 24       	mov	a0,(36,sp)

0000441b <.LVL493>:
    441b:	5e 20       	mov	(32,sp),a2

0000441d <.Loc.206.2>:
    441d:	f1 d8       	mov	a2,d0
    441f:	28 ff       	add	-1,d0
    4421:	5b 44       	mov	(68,sp),d3

00004423 <.LVL494>:
    4423:	e3          	add	d0,d3
    4424:	4e 44       	mov	d3,(68,sp)
    4426:	5a 4c       	mov	(76,sp),d2

00004428 <.Loc.766.1>:
    4428:	5b 34       	mov	(52,sp),d3
    442a:	f8 e3 01    	and	1,d3
    442d:	4e 34       	mov	d3,(52,sp)
    442f:	cc 7e f8    	jmp	3cad <.L149>

00004432 <.L320>:
    4432:	43 38       	mov	a0,(56,sp)

00004434 <.Loc.840.1>:
    4434:	40          	inc	d0
    4435:	f0 51       	movbu	d0,(a1)

00004437 <.LVL496>:
    4437:	cc b3 f9    	jmp	3dea <.L138>

0000443a <.L316>:
    443a:	af 39       	cmp	57,d3
    443c:	c9 05       	bne	4441 <.L0_106>
    443e:	cc c4 fc    	jmp	4102 <.L0_90>

00004441 <.L0_106>:
    4441:	58 3c       	mov	(60,sp),d0
    4443:	40          	inc	d0
    4444:	f0 52       	movbu	d0,(a2)
    4446:	49          	inc	a2

00004447 <.LVL498>:
    4447:	4b 38       	mov	a2,(56,sp)

00004449 <.LVL499>:
    4449:	5e 24       	mov	(36,sp),a2

0000444b <.LVL500>:
    444b:	4b 4c       	mov	a2,(76,sp)
    444d:	cc 9d f9    	jmp	3dea <.L138>

00004450 <.L196>:
    4450:	4e 38       	mov	d3,(56,sp)

00004452 <.Loc.805.1>:
    4452:	5b 24       	mov	(36,sp),d3

00004454 <.LVL502>:
    4454:	4e 4c       	mov	d3,(76,sp)

00004456 <.LVL503>:
    4456:	80 01       	mov	1,d0
    4458:	42 0c       	mov	d0,(12,sp)
    445a:	f1 dc       	mov	a3,d0
    445c:	59 30       	mov	(48,sp),d1
    445e:	dd 69 18 00 	call	5cc7 <___lshift>,[],0
    4462:	00 00 00 

00004465 <.LVL504>:
    4465:	43 30       	mov	a0,(48,sp)

00004467 <.LVL505>:
    4467:	f1 d0       	mov	a0,d0
    4469:	59 28       	mov	(40,sp),d1
    446b:	dd 0a 19 00 	call	5d75 <___mcmp>,[],0
    446f:	00 00 00 

00004472 <.LVL506>:
    4472:	a0 00       	cmp	0,d0
    4474:	c3 05       	ble	4479 <.L0_107>
    4476:	cc af fd    	jmp	4225 <.L152>

00004479 <.L0_107>:
    4479:	cc bb fd    	jmp	4234 <.L323>

0000447c <.L82>:
    447c:	70          	mov	(a0),d0
    447d:	f8 04 04    	mov	(4,a0),d1
    4480:	4a 0c       	mov	d2,(12,sp)
    4482:	5a 38       	mov	(56,sp),d2
    4484:	4a 10       	mov	d2,(16,sp)
    4486:	dd f2 44 00 	call	8978 <___muldf3>,[],0
    448a:	00 00 00 
    448d:	42 6c       	mov	d0,(108,sp)
    448f:	46 70       	mov	d1,(112,sp)

00004491 <.LVL509>:
    4491:	8c          	mov	d3,d0
    4492:	f1 d9       	mov	a2,d1
    4494:	dd f6 4a 00 	call	8f8a <___fixdfsi>,[],0
    4498:	00 00 00 
    449b:	82          	mov	d0,d2

0000449c <.LVL511>:
    449c:	dd 2d 4a 00 	call	8ec9 <___floatsidf>,[],0
    44a0:	00 00 00 

000044a3 <.LVL512>:
    44a3:	42 0c       	mov	d0,(12,sp)
    44a5:	46 10       	mov	d1,(16,sp)
    44a7:	8c          	mov	d3,d0
    44a8:	f1 d9       	mov	a2,d1
    44aa:	dd 76 44 00 	call	8920 <___subdf3>,[],0
    44ae:	00 00 00 
    44b1:	83          	mov	d0,d3
    44b2:	f1 e4       	mov	d1,a0

000044b4 <.Loc.523.1>:
    44b4:	2a 30       	add	48,d2

000044b6 <.LVL514>:
    44b6:	5d 20       	mov	(32,sp),a1
    44b8:	f0 59       	movbu	d2,(a1)
    44ba:	45          	inc	a1
    44bb:	47 38       	mov	a1,(56,sp)

000044bd <.LVL515>:
    44bd:	5a 68       	mov	(104,sp),d2

000044bf <.LVL516>:
    44bf:	aa 01       	cmp	1,d2
    44c1:	c8 59       	beq	451a <.L93>

000044c3 <.Loc.206.2>:
    44c3:	5d 20       	mov	(32,sp),a1

000044c5 <.LVL517>:
    44c5:	5a 68       	mov	(104,sp),d2
    44c7:	f1 69       	add	d2,a1
    44c9:	47 60       	mov	a1,(96,sp)

000044cb <.Loc.523.1>:
    44cb:	5e 38       	mov	(56,sp),a2

000044cd <.Loc.519.1>:
    44cd:	4f 74       	mov	a3,(116,sp)

000044cf <.L92>:
    44cf:	08          	clr	d2
    44d0:	4a 0c       	mov	d2,(12,sp)
    44d2:	fc cf 00 00 	mov	1076101120,d3
    44d6:	24 40 
    44d8:	4e 10       	mov	d3,(16,sp)
    44da:	dd 9e 44 00 	call	8978 <___muldf3>,[],0
    44de:	00 00 00 
    44e1:	83          	mov	d0,d3
    44e2:	f1 e7       	mov	d1,a3

000044e4 <.Loc.521.1>:
    44e4:	dd a6 4a 00 	call	8f8a <___fixdfsi>,[],0
    44e8:	00 00 00 
    44eb:	82          	mov	d0,d2

000044ec <.LVL521>:
    44ec:	dd dd 49 00 	call	8ec9 <___floatsidf>,[],0
    44f0:	00 00 00 

000044f3 <.LVL522>:
    44f3:	42 0c       	mov	d0,(12,sp)
    44f5:	46 10       	mov	d1,(16,sp)
    44f7:	8c          	mov	d3,d0
    44f8:	f1 dd       	mov	a3,d1
    44fa:	dd 26 44 00 	call	8920 <___subdf3>,[],0
    44fe:	00 00 00 

00004501 <.Loc.523.1>:
    4501:	2a 30       	add	48,d2

00004503 <.LVL524>:
    4503:	f0 5a       	movbu	d2,(a2)
    4505:	49          	inc	a2

00004506 <.Loc.524.1>:
    4506:	5c 60       	mov	(96,sp),a0
    4508:	b2          	cmp	a0,a2
    4509:	c9 c6       	bne	44cf <.L92>
    450b:	5f 74       	mov	(116,sp),a3
    450d:	83          	mov	d0,d3
    450e:	f1 e4       	mov	d1,a0

00004510 <.Loc.206.2>:
    4510:	58 68       	mov	(104,sp),d0
    4512:	28 ff       	add	-1,d0
    4514:	5d 38       	mov	(56,sp),a1
    4516:	f1 61       	add	d0,a1
    4518:	47 38       	mov	a1,(56,sp)

0000451a <.L93>:
    451a:	08          	clr	d2
    451b:	fc de 00 00 	mov	1071644672,a2
    451f:	e0 3f 
    4521:	4a 0c       	mov	d2,(12,sp)
    4523:	4b 10       	mov	a2,(16,sp)
    4525:	58 6c       	mov	(108,sp),d0
    4527:	59 70       	mov	(112,sp),d1
    4529:	43 1c       	mov	a0,(28,sp)
    452b:	dd a5 43 00 	call	88d0 <___adddf3>,[],0
    452f:	00 00 00 
    4532:	4e 0c       	mov	d3,(12,sp)
    4534:	5c 1c       	mov	(28,sp),a0
    4536:	43 10       	mov	a0,(16,sp)
    4538:	dd 3c 49 00 	call	8e74 <___ltdf2>,[],0
    453c:	00 00 00 
    453f:	5c 1c       	mov	(28,sp),a0
    4541:	a8          	cmp	d2,d0
    4542:	c2 7f       	bge	45c1 <.L282>
    4544:	5d 38       	mov	(56,sp),a1
    4546:	f8 4d ff    	movbu	(-1,a1),d3
    4549:	f1 ee       	mov	d3,a2
    454b:	5a 78       	mov	(120,sp),d2
    454d:	4a 40       	mov	d2,(64,sp)
    454f:	5c 38       	mov	(56,sp),a0

00004551 <.Loc.206.2>:
    4551:	59 20       	mov	(32,sp),d1
    4553:	44          	inc	d1
    4554:	f1 db       	mov	a2,d3
    4556:	cc 70 fd    	jmp	42c6 <.L104>

00004559 <.L176>:
    4559:	9a 00       	mov	0,a2
    455b:	4b 28       	mov	a2,(40,sp)
    455d:	4b 4c       	mov	a2,(76,sp)
    455f:	cc 00 fa    	jmp	3f5f <.L0_78>

00004562 <.L324>:
    4562:	43 38       	mov	a0,(56,sp)
    4564:	cc 86 f8    	jmp	3dea <.L138>

00004567 <.L306>:
    4567:	f1 1a       	sub	a2,d2

00004569 <.LVL532>:
	...

0000456a <.LVL533>:
    456a:	5d 50       	mov	(80,sp),a1
    456c:	f1 61       	add	d0,a1
    456e:	47 50       	mov	a1,(80,sp)

00004570 <.LVL534>:
    4570:	5e 48       	mov	(72,sp),a2
    4572:	f1 62       	add	d0,a2
    4574:	4b 48       	mov	a2,(72,sp)

00004576 <.LVL535>:
    4576:	f1 dc       	mov	a3,d0

00004578 <.LVL536>:
    4578:	85 01       	mov	1,d1
    457a:	dd 29 15 00 	call	5aa3 <___i2b>,[],0
    457e:	00 00 00 

00004581 <.LVL537>:
    4581:	43 4c       	mov	a0,(76,sp)

00004583 <.LVL538>:
    4583:	cc ec f5    	jmp	3b6f <.L108>

00004586 <.L325>:
    4586:	f1 ee       	mov	d3,a2
    4588:	43 38       	mov	a0,(56,sp)
    458a:	f1 d8       	mov	a2,d0
    458c:	40          	inc	d0

0000458d <.Loc.586.1>:
    458d:	f0 51       	movbu	d0,(a1)

0000458f <.LVL540>:
    458f:	cc 45 f4    	jmp	39d4 <.L83>

00004592 <.L110>:
    4592:	80 36       	mov	54,d0
    4594:	59 7c       	mov	(124,sp),d1
    4596:	f1 04       	sub	d1,d0
    4598:	5b 28       	mov	(40,sp),d3

0000459a <.Loc.596.1>:
    459a:	5a 50       	mov	(80,sp),d2

0000459c <.LVL542>:
    459c:	5d 50       	mov	(80,sp),a1
    459e:	f1 61       	add	d0,a1
    45a0:	47 50       	mov	a1,(80,sp)

000045a2 <.LVL543>:
    45a2:	5e 48       	mov	(72,sp),a2
    45a4:	f1 62       	add	d0,a2
    45a6:	4b 48       	mov	a2,(72,sp)

000045a8 <.LVL544>:
    45a8:	f1 dc       	mov	a3,d0

000045aa <.LVL545>:
    45aa:	85 01       	mov	1,d1

000045ac <.LVL546>:
    45ac:	dd f7 14 00 	call	5aa3 <___i2b>,[],0
    45b0:	00 00 00 

000045b3 <.LVL547>:
    45b3:	43 4c       	mov	a0,(76,sp)

000045b5 <.LVL548>:
    45b5:	cc ba f5    	jmp	3b6f <.L108>

000045b8 <.L173>:
    45b8:	5b 34       	mov	(52,sp),d3

000045ba <.LVL550>:
    45ba:	5e 24       	mov	(36,sp),a2

000045bc <.Loc.441.1>:
    45bc:	95 02       	mov	2,a1
    45be:	cc 0e f1    	jmp	36cc <.L72>

000045c1 <.L282>:
    45c1:	5d 6c       	mov	(108,sp),a1
    45c3:	47 0c       	mov	a1,(12,sp)
    45c5:	5d 70       	mov	(112,sp),a1
    45c7:	47 10       	mov	a1,(16,sp)
    45c9:	88          	mov	d2,d0
    45ca:	f1 d9       	mov	a2,d1
    45cc:	43 1c       	mov	a0,(28,sp)
    45ce:	dd 52 43 00 	call	8920 <___subdf3>,[],0
    45d2:	00 00 00 
    45d5:	4e 0c       	mov	d3,(12,sp)
    45d7:	5c 1c       	mov	(28,sp),a0
    45d9:	43 10       	mov	a0,(16,sp)
    45db:	dd ef 47 00 	call	8dca <___gtdf2>,[],0
    45df:	00 00 00 
    45e2:	a0 00       	cmp	0,d0
    45e4:	c1 05       	bgt	45e9 <.L0_108>
    45e6:	cc b4 f2    	jmp	389a <.L66>

000045e9 <.L0_108>:
    45e9:	5c 38       	mov	(56,sp),a0

000045eb <.L255>:
    45eb:	f1 d1       	mov	a0,d1
    45ed:	29 ff       	add	-1,d1

000045ef <.LVL555>:
    45ef:	f8 40 ff    	movbu	(-1,a0),d0
    45f2:	a0 30       	cmp	48,d0
    45f4:	c9 29       	bne	461d <.L326>

000045f6 <.Loc.530.1>:
    45f6:	f1 e4       	mov	d1,a0
    45f8:	ca f3       	bra	45eb <.L255>

000045fa <.L180>:
    45fa:	f8 ba 68    	movbu	(104,sp),d2
    45fd:	f1 ea       	mov	d2,a2
    45ff:	5f 74       	mov	(116,sp),a3

00004601 <.L291>:
    4601:	5b 78       	mov	(120,sp),d3
    4603:	4e 40       	mov	d3,(64,sp)
    4605:	5c 38       	mov	(56,sp),a0

00004607 <.Loc.206.2>:
    4607:	59 20       	mov	(32,sp),d1
    4609:	44          	inc	d1
    460a:	f1 db       	mov	a2,d3
    460c:	cc ba fc    	jmp	42c6 <.L104>

0000460f <.L301>:
    460f:	5f 74       	mov	(116,sp),a3

00004611 <.Loc.504.1>:
    4611:	5b 78       	mov	(120,sp),d3
    4613:	4e 40       	mov	d3,(64,sp)
    4615:	cc bf f3    	jmp	39d4 <.L83>

00004618 <.L190>:
    4618:	5b 34       	mov	(52,sp),d3
    461a:	cc ea f5    	jmp	3c04 <.L120>

0000461d <.L326>:
    461d:	43 38       	mov	a0,(56,sp)

0000461f <.Loc.530.1>:
    461f:	5e 78       	mov	(120,sp),a2
    4621:	4b 40       	mov	a2,(64,sp)
    4623:	cc b1 f3    	jmp	39d4 <.L83>

00004626 <.L184>:
    4626:	5a 44       	mov	(68,sp),d2
    4628:	4a 28       	mov	d2,(40,sp)
    462a:	4a 4c       	mov	d2,(76,sp)

0000462c <.LVL562>:
    462c:	58 a8       	mov	(168,sp),d0
    462e:	f2 30       	not	d0
    4630:	42 40       	mov	d0,(64,sp)

00004632 <.LVL563>:
    4632:	5d 20       	mov	(32,sp),a1
    4634:	47 38       	mov	a1,(56,sp)
    4636:	cc 37 f9    	jmp	3f6d <.L129>

00004639 <.L183>:
    4639:	9a 00       	mov	0,a2
    463b:	4b 28       	mov	a2,(40,sp)
    463d:	4b 4c       	mov	a2,(76,sp)

0000463f <.LVL565>:
    463f:	58 a8       	mov	(168,sp),d0
    4641:	f2 30       	not	d0
    4643:	42 40       	mov	d0,(64,sp)

00004645 <.LVL566>:
    4645:	5d 20       	mov	(32,sp),a1
    4647:	47 38       	mov	a1,(56,sp)
    4649:	cc 24 f9    	jmp	3f6d <.L129>

0000464c <.L318>:
    464c:	47 0c       	mov	a1,(12,sp)
    464e:	4b 10       	mov	a2,(16,sp)
    4650:	f1 dc       	mov	a3,d0
    4652:	59 4c       	mov	(76,sp),d1
    4654:	dd 4b 12 00 	call	589f <___multadd>,[],0
    4658:	00 00 00 

0000465b <.LVL568>:
    465b:	43 4c       	mov	a0,(76,sp)

0000465d <.LVL569>:
    465d:	5d 64       	mov	(100,sp),a1
    465f:	47 44       	mov	a1,(68,sp)

00004661 <.LVL570>:
    4661:	5d 44       	mov	(68,sp),a1
    4663:	b5 00       	cmp	0,a1
    4665:	c3 05       	ble	466a <.L0_109>
    4667:	cc 0b f6    	jmp	3c72 <.L0_55>

0000466a <.L0_109>:
    466a:	cc c0 f8    	jmp	3f2a <.L0_75>

0000466d <.L174>:
    466d:	95 02       	mov	2,a1
    466f:	cc 5d f0    	jmp	36cc <.L72>

00004672 <.L178>:
    4672:	5a 78       	mov	(120,sp),d2
    4674:	4a 40       	mov	d2,(64,sp)
    4676:	cc 5e f3    	jmp	39d4 <.L83>

00004679 <.L123>:
    4679:	c9 05       	bne	467e <.L0_110>
    467b:	cc bb f5    	jmp	3c36 <.L124>

0000467e <.L0_110>:
    467e:	85 3c       	mov	60,d1

00004680 <.LVL574>:
    4680:	f1 01       	sub	d0,d1

00004682 <.LVL575>:
    4682:	5d 50       	mov	(80,sp),a1
    4684:	f1 65       	add	d1,a1
    4686:	47 50       	mov	a1,(80,sp)

00004688 <.LVL576>:
    4688:	e6          	add	d1,d2

00004689 <.Loc.707.1>:
    4689:	5e 48       	mov	(72,sp),a2
    468b:	f1 66       	add	d1,a2
    468d:	4b 48       	mov	a2,(72,sp)

0000468f <.LVL578>:
    468f:	cc a7 f5    	jmp	3c36 <.L124>

00004692 <___sflush_r>:
    4692:	cf f0       	movm	[d2,d3,a2,a3],(sp)

00004694 <.LCFI0>:
    4694:	f8 fe ec    	add	-20,sp

00004697 <.LCFI1>:
    4697:	f1 e3       	mov	d0,a3
    4699:	f1 e6       	mov	d1,a2

0000469b <.Loc.80.1>:
    469b:	f8 62 0c    	movhu	(12,a2),d0

0000469e <.LVL1>:
    469e:	81          	mov	d0,d1

0000469f <.LVL2>:
    469f:	f8 e1 08    	and	8,d1
    46a2:	19          	exth	d1
    46a3:	a5 00       	cmp	0,d1
    46a5:	c8 05       	beq	46aa <.L0_0>
    46a7:	cc a2 00    	jmp	4749 <.L2>

000046aa <.L0_0>:
    46aa:	81          	mov	d0,d1
    46ab:	fa e5 00 08 	or	2048,d1
    46af:	87          	mov	d1,d3
    46b0:	f8 76 0c    	movhu	d1,(12,a2)

000046b3 <.Loc.95.1>:
    46b3:	f8 06 04    	mov	(4,a2),d1
    46b6:	a5 00       	cmp	0,d1
    46b8:	c1 05       	bgt	46bd <.L0_1>
    46ba:	cc de 00    	jmp	4798 <.L56>

000046bd <.L0_1>:
    46bd:	f8 22 28    	mov	(40,a2),a0
    46c0:	b0 00       	cmp	0,a0
    46c2:	c9 05       	bne	46c7 <.L0_2>
    46c4:	cc b8 00    	jmp	477c <.L54>

000046c7 <.L0_2>:
    46c7:	7b          	mov	(a3),d2

000046c8 <.LVL3>:
    46c8:	04          	clr	d1
    46c9:	67          	mov	d1,(a3)

000046ca <.Loc.110.1>:
    46ca:	fa e0 00 10 	and	4096,d0

000046ce <.LVL4>:
    46ce:	18          	exth	d0
    46cf:	a4          	cmp	d1,d0
    46d0:	c9 05       	bne	46d5 <.L0_3>
    46d2:	cc d3 00    	jmp	47a5 <.L6>

000046d5 <.L0_3>:
    46d5:	f8 02 50    	mov	(80,a2),d0

000046d8 <.L7>:
    46d8:	f8 e3 04    	and	4,d3
    46db:	1b          	exth	d3
    46dc:	af 00       	cmp	0,d3
    46de:	c8 13       	beq	46f1 <.L12>

000046e0 <.Loc.139.1>:
    46e0:	f8 06 04    	mov	(4,a2),d1
    46e3:	f1 04       	sub	d1,d0

000046e5 <.Loc.140.1>:
    46e5:	f8 06 30    	mov	(48,a2),d1
    46e8:	a5 00       	cmp	0,d1
    46ea:	c8 07       	beq	46f1 <.L12>

000046ec <.Loc.141.1>:
    46ec:	f8 06 3c    	mov	(60,a2),d1
    46ef:	f1 04       	sub	d1,d0

000046f1 <.L12>:
    46f1:	f8 06 1c    	mov	(28,a2),d1
    46f4:	42 0c       	mov	d0,(12,sp)
    46f6:	0c          	clr	d3
    46f7:	4e 10       	mov	d3,(16,sp)
    46f9:	f1 dc       	mov	a3,d0

000046fb <.LVL8>:
    46fb:	f0 f0       	calls	(a0)

000046fd <.LVL9>:
    46fd:	a0 ff       	cmp	-1,d0
    46ff:	c9 05       	bne	4704 <.L0_4>
    4701:	cc be 00    	jmp	47bf <.L57>

00004704 <.L0_4>:
