
powerpc-elf.x:     file format elf32-powerpc


Disassembly of section .text:

00001400 <_start>:
    1400:	3c 20 00 01 	lis     r1,1
    1404:	60 21 16 d0 	ori     r1,r1,5840
    1408:	38 21 ff f0 	addi    r1,r1,-16
    140c:	48 00 01 6d 	bl      1578 <_startmain>

00001410 <__exit>:
    1410:	38 00 00 01 	li      r0,1
    1414:	44 00 00 02 	sc      
    1418:	48 00 00 34 	b       144c <_check_err>

0000141c <__read>:
    141c:	38 00 00 03 	li      r0,3
    1420:	44 00 00 02 	sc      
    1424:	48 00 00 28 	b       144c <_check_err>

00001428 <__write>:
    1428:	38 00 00 04 	li      r0,4
    142c:	44 00 00 02 	sc      
    1430:	48 00 00 1c 	b       144c <_check_err>

00001434 <__open>:
    1434:	38 00 00 05 	li      r0,5
    1438:	44 00 00 02 	sc      
    143c:	48 00 00 10 	b       144c <_check_err>

00001440 <__close>:
    1440:	38 00 00 06 	li      r0,6
    1444:	44 00 00 02 	sc      
    1448:	48 00 00 04 	b       144c <_check_err>

0000144c <_check_err>:
    144c:	41 83 00 08 	bso-    1454 <_err>
    1450:	4e 80 00 20 	blr

00001454 <_err>:
    1454:	38 60 ff ff 	li      r3,-1
    1458:	4e 80 00 20 	blr

0000145c <_exit>:
    145c:	94 21 ff f0 	stwu    r1,-16(r1)
    1460:	7c 08 02 a6 	mflr    r0
    1464:	90 01 00 14 	stw     r0,20(r1)
    1468:	4b ff ff a9 	bl      1410 <__exit>

0000146c <read>:
    146c:	94 21 ff f0 	stwu    r1,-16(r1)
    1470:	7c 08 02 a6 	mflr    r0
    1474:	90 01 00 14 	stw     r0,20(r1)
    1478:	4b ff ff a5 	bl      141c <__read>
    147c:	80 01 00 14 	lwz     r0,20(r1)
    1480:	7c 08 03 a6 	mtlr    r0
    1484:	38 21 00 10 	addi    r1,r1,16
    1488:	4e 80 00 20 	blr

0000148c <write>:
    148c:	94 21 ff f0 	stwu    r1,-16(r1)
    1490:	7c 08 02 a6 	mflr    r0
    1494:	90 01 00 14 	stw     r0,20(r1)
    1498:	4b ff ff 91 	bl      1428 <__write>
    149c:	80 01 00 14 	lwz     r0,20(r1)
    14a0:	7c 08 03 a6 	mtlr    r0
    14a4:	38 21 00 10 	addi    r1,r1,16
    14a8:	4e 80 00 20 	blr

000014ac <open>:
    14ac:	94 21 ff f0 	stwu    r1,-16(r1)
    14b0:	7c 08 02 a6 	mflr    r0
    14b4:	90 01 00 14 	stw     r0,20(r1)
    14b8:	4b ff ff 7d 	bl      1434 <__open>
    14bc:	80 01 00 14 	lwz     r0,20(r1)
    14c0:	7c 08 03 a6 	mtlr    r0
    14c4:	38 21 00 10 	addi    r1,r1,16
    14c8:	4e 80 00 20 	blr

000014cc <close>:
    14cc:	94 21 ff f0 	stwu    r1,-16(r1)
    14d0:	7c 08 02 a6 	mflr    r0
    14d4:	90 01 00 14 	stw     r0,20(r1)
    14d8:	4b ff ff 69 	bl      1440 <__close>
    14dc:	80 01 00 14 	lwz     r0,20(r1)
    14e0:	7c 08 03 a6 	mtlr    r0
    14e4:	38 21 00 10 	addi    r1,r1,16
    14e8:	4e 80 00 20 	blr

000014ec <fstat>:
    14ec:	94 21 ff f0 	stwu    r1,-16(r1)
    14f0:	7c 08 02 a6 	mflr    r0
    14f4:	90 01 00 14 	stw     r0,20(r1)
    14f8:	7c 83 23 78 	mr      r3,r4
    14fc:	38 80 00 00 	li      r4,0
    1500:	38 a0 00 3c 	li      r5,60
    1504:	48 00 00 fd 	bl      1600 <memset>
    1508:	38 60 00 00 	li      r3,0
    150c:	80 01 00 14 	lwz     r0,20(r1)
    1510:	7c 08 03 a6 	mtlr    r0
    1514:	38 21 00 10 	addi    r1,r1,16
    1518:	4e 80 00 20 	blr

0000151c <lseek>:
    151c:	7c 83 23 78 	mr      r3,r4
    1520:	4e 80 00 20 	blr

00001524 <sbrk>:
    1524:	3d 40 00 01 	lis     r10,1
    1528:	81 2a cc a8 	lwz     r9,-13144(r10)
    152c:	7c 69 1a 14 	add     r3,r9,r3
    1530:	90 6a cc a8 	stw     r3,-13144(r10)
    1534:	7d 23 4b 78 	mr      r3,r9
    1538:	4e 80 00 20 	blr

0000153c <isatty>:
    153c:	38 60 00 01 	li      r3,1
    1540:	4e 80 00 20 	blr

00001544 <main>:
    1544:	94 21 ff f0 	stwu    r1,-16(r1)
    1548:	7c 08 02 a6 	mflr    r0
    154c:	90 01 00 14 	stw     r0,20(r1)
    1550:	3c 60 00 01 	lis     r3,1
    1554:	38 63 be 48 	addi    r3,r3,-16824
    1558:	3d 20 00 01 	lis     r9,1
    155c:	80 89 cc ac 	lwz     r4,-13140(r9)
    1560:	3c a0 00 01 	lis     r5,1
    1564:	38 a5 be 74 	addi    r5,r5,-16780
    1568:	4c c6 31 82 	crclr   4*cr1+eq
    156c:	48 00 02 51 	bl      17bc <printf>
    1570:	38 60 00 00 	li      r3,0
    1574:	48 00 00 39 	bl      15ac <exit>

00001578 <_startmain>:
    1578:	94 21 ff f0 	stwu    r1,-16(r1)
    157c:	7c 08 02 a6 	mflr    r0
    1580:	90 01 00 14 	stw     r0,20(r1)
    1584:	3d 20 00 01 	lis     r9,1
    1588:	39 29 d2 88 	addi    r9,r9,-11640
    158c:	7d 23 4b 78 	mr      r3,r9
    1590:	38 80 00 00 	li      r4,0
    1594:	3c a0 00 01 	lis     r5,1
    1598:	38 a5 12 d0 	addi    r5,r5,4816
    159c:	7c a9 28 50 	subf    r5,r9,r5
    15a0:	48 00 00 61 	bl      1600 <memset>
    15a4:	4b ff ff a1 	bl      1544 <main>
    15a8:	00 01 37 10 	.long 0x13710

000015ac <exit>:
    15ac:	94 21 ff f0 	stwu    r1,-16(r1)
    15b0:	7c 08 02 a6 	mflr    r0
    15b4:	42 9f 00 05 	bcl-    20,4*cr7+so,15b8 <exit+0xc>
    15b8:	38 80 00 00 	li      r4,0
    15bc:	93 c1 00 08 	stw     r30,8(r1)
    15c0:	7f c8 02 a6 	mflr    r30
    15c4:	90 01 00 14 	stw     r0,20(r1)
    15c8:	93 e1 00 0c 	stw     r31,12(r1)
    15cc:	7c 7f 1b 78 	mr      r31,r3
    15d0:	80 1e ff f0 	lwz     r0,-16(r30)
    15d4:	7f c0 f2 14 	add     r30,r0,r30
    15d8:	48 00 25 cd 	bl      3ba4 <__call_exitprocs>
    15dc:	81 3e 80 00 	lwz     r9,-32768(r30)
    15e0:	80 69 00 00 	lwz     r3,0(r9)
    15e4:	81 23 00 3c 	lwz     r9,60(r3)
    15e8:	2f 89 00 00 	cmpwi   cr7,r9,0
    15ec:	41 9e 00 0c 	beq-    cr7,15f8 <exit+0x4c>
    15f0:	7d 29 03 a6 	mtctr   r9
    15f4:	4e 80 04 21 	bctrl
    15f8:	7f e3 fb 78 	mr      r3,r31
    15fc:	4b ff fe 61 	bl      145c <_exit>

00001600 <memset>:
    1600:	70 69 00 03 	andi.   r9,r3,3
    1604:	7c 08 02 a6 	mflr    r0
    1608:	94 21 ff f0 	stwu    r1,-16(r1)
    160c:	90 01 00 14 	stw     r0,20(r1)
    1610:	93 c1 00 08 	stw     r30,8(r1)
    1614:	41 82 01 14 	beq-    1728 <memset+0x128>
    1618:	2f 85 00 00 	cmpwi   cr7,r5,0
    161c:	7c a9 03 a6 	mtctr   r5
    1620:	54 88 06 3e 	clrlwi  r8,r4,24
    1624:	38 a5 ff ff 	addi    r5,r5,-1
    1628:	7c 69 1b 78 	mr      r9,r3
    162c:	40 be 00 10 	bne+    cr7,163c <memset+0x3c>
    1630:	48 00 00 e4 	b       1714 <memset+0x114>
    1634:	42 40 00 e0 	bdz-    1714 <memset+0x114>
    1638:	7d 45 53 78 	mr      r5,r10
    163c:	99 09 00 00 	stb     r8,0(r9)
    1640:	39 29 00 01 	addi    r9,r9,1
    1644:	71 2a 00 03 	andi.   r10,r9,3
    1648:	39 45 ff ff 	addi    r10,r5,-1
    164c:	40 82 ff e8 	bne+    1634 <memset+0x34>
    1650:	2b 85 00 03 	cmplwi  cr7,r5,3
    1654:	40 9d 00 98 	ble-    cr7,16ec <memset+0xec>
    1658:	54 8a 06 3e 	clrlwi  r10,r4,24
    165c:	2b 85 00 0f 	cmplwi  cr7,r5,15
    1660:	55 48 40 2e 	rlwinm  r8,r10,8,0,23
    1664:	38 e5 ff f0 	addi    r7,r5,-16
    1668:	7d 0a 53 78 	or      r10,r8,r10
    166c:	54 e7 e1 3e 	rlwinm  r7,r7,28,4,31
    1670:	55 48 80 1e 	rlwinm  r8,r10,16,0,15
    1674:	38 e7 00 01 	addi    r7,r7,1
    1678:	7d 08 53 78 	or      r8,r8,r10
    167c:	7c e9 03 a6 	mtctr   r7
    1680:	7d 2a 4b 78 	mr      r10,r9
    1684:	40 9d 00 38 	ble-    cr7,16bc <memset+0xbc>
    1688:	91 0a 00 00 	stw     r8,0(r10)
    168c:	91 0a 00 04 	stw     r8,4(r10)
    1690:	91 0a 00 08 	stw     r8,8(r10)
    1694:	91 0a 00 0c 	stw     r8,12(r10)
    1698:	39 4a 00 10 	addi    r10,r10,16
    169c:	42 00 ff ec 	bdnz+   1688 <memset+0x88>
    16a0:	39 45 ff f0 	addi    r10,r5,-16
    16a4:	54 a5 07 3e 	clrlwi  r5,r5,28
    16a8:	2b 85 00 03 	cmplwi  cr7,r5,3
    16ac:	55 4a 00 36 	rlwinm  r10,r10,0,0,27
    16b0:	39 4a 00 10 	addi    r10,r10,16
    16b4:	7d 29 52 14 	add     r9,r9,r10
    16b8:	40 9d 00 34 	ble-    cr7,16ec <memset+0xec>
    16bc:	38 e5 ff fc 	addi    r7,r5,-4
    16c0:	39 49 ff fc 	addi    r10,r9,-4
    16c4:	54 e7 f0 be 	rlwinm  r7,r7,30,2,31
    16c8:	38 e7 00 01 	addi    r7,r7,1
    16cc:	7c e9 03 a6 	mtctr   r7
    16d0:	95 0a 00 04 	stwu    r8,4(r10)
    16d4:	42 00 ff fc 	bdnz+   16d0 <memset+0xd0>
    16d8:	39 45 ff fc 	addi    r10,r5,-4
    16dc:	54 a5 07 be 	clrlwi  r5,r5,30
    16e0:	55 4a 00 3a 	rlwinm  r10,r10,0,0,29
    16e4:	39 4a 00 04 	addi    r10,r10,4
    16e8:	7d 29 52 14 	add     r9,r9,r10
    16ec:	2f 85 00 00 	cmpwi   cr7,r5,0
    16f0:	38 a5 ff ff 	addi    r5,r5,-1
    16f4:	39 49 ff ff 	addi    r10,r9,-1
    16f8:	7d 29 2a 14 	add     r9,r9,r5
    16fc:	7d 2a 48 50 	subf    r9,r10,r9
    1700:	54 84 06 3e 	clrlwi  r4,r4,24
    1704:	7d 29 03 a6 	mtctr   r9
    1708:	41 9e 00 0c 	beq-    cr7,1714 <memset+0x114>
    170c:	9c 8a 00 01 	stbu    r4,1(r10)
    1710:	42 00 ff fc 	bdnz+   170c <memset+0x10c>
    1714:	80 01 00 14 	lwz     r0,20(r1)
    1718:	83 c1 00 08 	lwz     r30,8(r1)
    171c:	7c 08 03 a6 	mtlr    r0
    1720:	38 21 00 10 	addi    r1,r1,16
    1724:	4e 80 00 20 	blr
    1728:	7c 69 1b 78 	mr      r9,r3
    172c:	4b ff ff 24 	b       1650 <memset+0x50>

00001730 <_printf_r>:
    1730:	7c 08 02 a6 	mflr    r0
    1734:	94 21 ff 90 	stwu    r1,-112(r1)
    1738:	90 a1 00 18 	stw     r5,24(r1)
    173c:	90 01 00 74 	stw     r0,116(r1)
    1740:	90 c1 00 1c 	stw     r6,28(r1)
    1744:	90 e1 00 20 	stw     r7,32(r1)
    1748:	91 01 00 24 	stw     r8,36(r1)
    174c:	91 21 00 28 	stw     r9,40(r1)
    1750:	91 41 00 2c 	stw     r10,44(r1)
    1754:	40 86 00 24 	bne-    cr1,1778 <_printf_r+0x48>
    1758:	d8 21 00 30 	stfd    f1,48(r1)
    175c:	d8 41 00 38 	stfd    f2,56(r1)
    1760:	d8 61 00 40 	stfd    f3,64(r1)
    1764:	d8 81 00 48 	stfd    f4,72(r1)
    1768:	d8 a1 00 50 	stfd    f5,80(r1)
    176c:	d8 c1 00 58 	stfd    f6,88(r1)
    1770:	d8 e1 00 60 	stfd    f7,96(r1)
    1774:	d9 01 00 68 	stfd    f8,104(r1)
    1778:	39 20 00 02 	li      r9,2
    177c:	7c 85 23 78 	mr      r5,r4
    1780:	99 21 00 08 	stb     r9,8(r1)
    1784:	39 20 00 00 	li      r9,0
    1788:	99 21 00 09 	stb     r9,9(r1)
    178c:	39 21 00 78 	addi    r9,r1,120
    1790:	80 83 00 08 	lwz     r4,8(r3)
    1794:	38 c1 00 08 	addi    r6,r1,8
    1798:	91 21 00 0c 	stw     r9,12(r1)
    179c:	39 21 00 10 	addi    r9,r1,16
    17a0:	91 21 00 10 	stw     r9,16(r1)
    17a4:	48 00 00 c9 	bl      186c <_vfprintf_r>
    17a8:	80 01 00 74 	lwz     r0,116(r1)
    17ac:	38 21 00 70 	addi    r1,r1,112
    17b0:	7c 08 03 a6 	mtlr    r0
    17b4:	4e 80 00 20 	blr
    17b8:	00 01 35 04 	.long 0x13504

000017bc <printf>:
    17bc:	94 21 ff 80 	stwu    r1,-128(r1)
    17c0:	7c 08 02 a6 	mflr    r0
    17c4:	42 9f 00 05 	bcl-    20,4*cr7+so,17c8 <printf+0xc>
    17c8:	93 c1 00 78 	stw     r30,120(r1)
    17cc:	7f c8 02 a6 	mflr    r30
    17d0:	90 01 00 84 	stw     r0,132(r1)
    17d4:	90 81 00 1c 	stw     r4,28(r1)
    17d8:	80 1e ff f0 	lwz     r0,-16(r30)
    17dc:	90 a1 00 20 	stw     r5,32(r1)
    17e0:	7f c0 f2 14 	add     r30,r0,r30
    17e4:	90 c1 00 24 	stw     r6,36(r1)
    17e8:	90 e1 00 28 	stw     r7,40(r1)
    17ec:	91 01 00 2c 	stw     r8,44(r1)
    17f0:	91 21 00 30 	stw     r9,48(r1)
    17f4:	91 41 00 34 	stw     r10,52(r1)
    17f8:	40 86 00 24 	bne-    cr1,181c <printf+0x60>
    17fc:	d8 21 00 38 	stfd    f1,56(r1)
    1800:	d8 41 00 40 	stfd    f2,64(r1)
    1804:	d8 61 00 48 	stfd    f3,72(r1)
    1808:	d8 81 00 50 	stfd    f4,80(r1)
    180c:	d8 a1 00 58 	stfd    f5,88(r1)
    1810:	d8 c1 00 60 	stfd    f6,96(r1)
    1814:	d8 e1 00 68 	stfd    f7,104(r1)
    1818:	d9 01 00 70 	stfd    f8,112(r1)
    181c:	81 3e 80 00 	lwz     r9,-32768(r30)
    1820:	7c 65 1b 78 	mr      r5,r3
    1824:	38 c1 00 08 	addi    r6,r1,8
    1828:	80 69 00 00 	lwz     r3,0(r9)
    182c:	39 20 00 01 	li      r9,1
    1830:	99 21 00 08 	stb     r9,8(r1)
    1834:	39 20 00 00 	li      r9,0
    1838:	99 21 00 09 	stb     r9,9(r1)
    183c:	39 21 00 88 	addi    r9,r1,136
    1840:	80 83 00 08 	lwz     r4,8(r3)
    1844:	91 21 00 0c 	stw     r9,12(r1)
    1848:	39 21 00 18 	addi    r9,r1,24
    184c:	91 21 00 10 	stw     r9,16(r1)
    1850:	48 00 00 1d 	bl      186c <_vfprintf_r>
    1854:	80 01 00 84 	lwz     r0,132(r1)
    1858:	83 c1 00 78 	lwz     r30,120(r1)
    185c:	7c 08 03 a6 	mtlr    r0
    1860:	38 21 00 80 	addi    r1,r1,128
    1864:	4e 80 00 20 	blr
    1868:	00 01 34 58 	.long 0x13458

0000186c <_vfprintf_r>:
    186c:	94 21 fa a0 	stwu    r1,-1376(r1)
    1870:	7c 08 02 a6 	mflr    r0
    1874:	42 9f 00 05 	bcl-    20,4*cr7+so,1878 <_vfprintf_r+0xc>
    1878:	7d 80 00 26 	mfcr    r12
    187c:	93 c1 05 50 	stw     r30,1360(r1)
    1880:	7f c8 02 a6 	mflr    r30
    1884:	90 01 05 64 	stw     r0,1380(r1)
    1888:	92 01 05 18 	stw     r16,1304(r1)
    188c:	7c d0 33 78 	mr      r16,r6
    1890:	80 1e ff f0 	lwz     r0,-16(r30)
    1894:	93 81 05 48 	stw     r28,1352(r1)
    1898:	7c 7c 1b 78 	mr      r28,r3
    189c:	7f c0 f2 14 	add     r30,r0,r30
    18a0:	93 a1 05 4c 	stw     r29,1356(r1)
    18a4:	93 e1 05 54 	stw     r31,1364(r1)
    18a8:	7c bd 2b 78 	mr      r29,r5
    18ac:	91 81 05 0c 	stw     r12,1292(r1)
    18b0:	7c 9f 23 78 	mr      r31,r4
    18b4:	db e1 05 58 	stfd    f31,1368(r1)
    18b8:	91 c1 05 10 	stw     r14,1296(r1)
    18bc:	91 e1 05 14 	stw     r15,1300(r1)
    18c0:	92 21 05 1c 	stw     r17,1308(r1)
    18c4:	92 41 05 20 	stw     r18,1312(r1)
    18c8:	92 61 05 24 	stw     r19,1316(r1)
    18cc:	92 81 05 28 	stw     r20,1320(r1)
    18d0:	92 a1 05 2c 	stw     r21,1324(r1)
    18d4:	92 c1 05 30 	stw     r22,1328(r1)
    18d8:	92 e1 05 34 	stw     r23,1332(r1)
    18dc:	93 01 05 38 	stw     r24,1336(r1)
    18e0:	93 21 05 3c 	stw     r25,1340(r1)
    18e4:	93 41 05 40 	stw     r26,1344(r1)
    18e8:	93 61 05 44 	stw     r27,1348(r1)
    18ec:	48 00 47 f9 	bl      60e4 <_localeconv_r>
    18f0:	80 63 00 00 	lwz     r3,0(r3)
    18f4:	39 20 00 00 	li      r9,0
    18f8:	39 40 00 00 	li      r10,0
    18fc:	91 21 04 f0 	stw     r9,1264(r1)
    1900:	90 61 04 e0 	stw     r3,1248(r1)
    1904:	91 41 04 f4 	stw     r10,1268(r1)
    1908:	48 00 6a d9 	bl      83e0 <strlen>
    190c:	2f 9c 00 00 	cmpwi   cr7,r28,0
    1910:	90 61 04 e8 	stw     r3,1256(r1)
    1914:	41 9e 00 10 	beq-    cr7,1924 <_vfprintf_r+0xb8>
    1918:	81 3c 00 38 	lwz     r9,56(r28)
    191c:	2f 89 00 00 	cmpwi   cr7,r9,0
    1920:	41 9e 06 54 	beq-    cr7,1f74 <_vfprintf_r+0x708>
    1924:	a9 3f 00 0c 	lha     r9,12(r31)
    1928:	55 2a 04 a4 	rlwinm  r10,r9,0,18,18
    192c:	7d 47 07 35 	extsh.  r7,r10
    1930:	40 82 00 18 	bne-    1948 <_vfprintf_r+0xdc>
    1934:	81 5f 00 64 	lwz     r10,100(r31)
    1938:	61 29 20 00 	ori     r9,r9,8192
    193c:	b1 3f 00 0c 	sth     r9,12(r31)
    1940:	55 4a 04 e2 	rlwinm  r10,r10,0,19,17
    1944:	91 5f 00 64 	stw     r10,100(r31)
    1948:	55 2a 07 38 	rlwinm  r10,r9,0,28,28
    194c:	7d 48 07 35 	extsh.  r8,r10
    1950:	41 82 04 9c 	beq-    1dec <_vfprintf_r+0x580>
    1954:	81 5f 00 10 	lwz     r10,16(r31)
    1958:	2f 8a 00 00 	cmpwi   cr7,r10,0
    195c:	41 9e 04 90 	beq-    cr7,1dec <_vfprintf_r+0x580>
    1960:	71 2a 00 1a 	andi.   r10,r9,26
    1964:	2f 8a 00 0a 	cmpwi   cr7,r10,10
    1968:	41 9e 04 a8 	beq-    cr7,1e10 <_vfprintf_r+0x5a4>
    196c:	39 41 04 97 	addi    r10,r1,1175
    1970:	3b 61 04 98 	addi    r27,r1,1176
    1974:	91 41 04 c8 	stw     r10,1224(r1)
    1978:	39 40 00 00 	li      r10,0
    197c:	91 41 04 f8 	stw     r10,1272(r1)
    1980:	39 20 00 00 	li      r9,0
    1984:	81 41 04 c8 	lwz     r10,1224(r1)
    1988:	3b 41 00 08 	addi    r26,r1,8
    198c:	38 e0 00 00 	li      r7,0
    1990:	93 41 04 98 	stw     r26,1176(r1)
    1994:	7d 4a d8 50 	subf    r10,r10,r27
    1998:	91 21 04 a0 	stw     r9,1184(r1)
    199c:	91 21 04 9c 	stw     r9,1180(r1)
    19a0:	7f 4e d3 78 	mr      r14,r26
    19a4:	90 e1 04 dc 	stw     r7,1244(r1)
    19a8:	7e 14 83 78 	mr      r20,r16
    19ac:	91 21 04 ec 	stw     r9,1260(r1)
    19b0:	91 21 04 d0 	stw     r9,1232(r1)
    19b4:	91 41 04 fc 	stw     r10,1276(r1)
    19b8:	89 3d 00 00 	lbz     r9,0(r29)
    19bc:	7f b9 eb 78 	mr      r25,r29
    19c0:	2f 89 00 00 	cmpwi   cr7,r9,0
    19c4:	41 9e 00 68 	beq-    cr7,1a2c <_vfprintf_r+0x1c0>
    19c8:	2f 89 00 25 	cmpwi   cr7,r9,37
    19cc:	40 be 00 10 	bne+    cr7,19dc <_vfprintf_r+0x170>
    19d0:	48 00 00 5c 	b       1a2c <_vfprintf_r+0x1c0>
    19d4:	2f 89 00 25 	cmpwi   cr7,r9,37
    19d8:	41 9e 00 10 	beq-    cr7,19e8 <_vfprintf_r+0x17c>
    19dc:	8d 39 00 01 	lbzu    r9,1(r25)
    19e0:	2f 89 00 00 	cmpwi   cr7,r9,0
    19e4:	40 9e ff f0 	bne+    cr7,19d4 <_vfprintf_r+0x168>
    19e8:	7f 1d c8 50 	subf    r24,r29,r25
    19ec:	2f 98 00 00 	cmpwi   cr7,r24,0
    19f0:	41 9e 00 3c 	beq-    cr7,1a2c <_vfprintf_r+0x1c0>
    19f4:	81 21 04 9c 	lwz     r9,1180(r1)
    19f8:	81 41 04 a0 	lwz     r10,1184(r1)
    19fc:	39 29 00 01 	addi    r9,r9,1
    1a00:	93 ae 00 00 	stw     r29,0(r14)
    1a04:	2f 89 00 07 	cmpwi   cr7,r9,7
    1a08:	7d 4a c2 14 	add     r10,r10,r24
    1a0c:	93 0e 00 04 	stw     r24,4(r14)
    1a10:	91 41 04 a0 	stw     r10,1184(r1)
    1a14:	91 21 04 9c 	stw     r9,1180(r1)
    1a18:	41 9d 05 3c 	bgt-    cr7,1f54 <_vfprintf_r+0x6e8>
    1a1c:	39 ce 00 08 	addi    r14,r14,8
    1a20:	81 21 04 d0 	lwz     r9,1232(r1)
    1a24:	7d 29 c2 14 	add     r9,r9,r24
    1a28:	91 21 04 d0 	stw     r9,1232(r1)
    1a2c:	89 39 00 00 	lbz     r9,0(r25)
    1a30:	2f 89 00 00 	cmpwi   cr7,r9,0
    1a34:	41 9e 04 84 	beq-    cr7,1eb8 <_vfprintf_r+0x64c>
    1a38:	39 20 00 00 	li      r9,0
    1a3c:	39 40 00 00 	li      r10,0
    1a40:	3a 60 ff ff 	li      r19,-1
    1a44:	99 21 04 c2 	stb     r9,1218(r1)
    1a48:	91 41 04 cc 	stw     r10,1228(r1)
    1a4c:	3b b9 00 01 	addi    r29,r25,1
    1a50:	8b 19 00 01 	lbz     r24,1(r25)
    1a54:	39 00 00 2b 	li      r8,43
    1a58:	3b 20 00 00 	li      r25,0
    1a5c:	38 e0 00 20 	li      r7,32
    1a60:	7e 66 9b 78 	mr      r6,r19
    1a64:	3b bd 00 01 	addi    r29,r29,1
    1a68:	39 38 ff e0 	addi    r9,r24,-32
    1a6c:	2b 89 00 58 	cmplwi  cr7,r9,88
    1a70:	40 9d 03 1c 	ble-    cr7,1d8c <_vfprintf_r+0x520>
    1a74:	2f 98 00 00 	cmpwi   cr7,r24,0
    1a78:	41 9e 04 40 	beq-    cr7,1eb8 <_vfprintf_r+0x64c>
    1a7c:	39 20 00 00 	li      r9,0
    1a80:	9b 01 04 70 	stb     r24,1136(r1)
    1a84:	99 21 04 c2 	stb     r9,1218(r1)
    1a88:	39 00 00 00 	li      r8,0
    1a8c:	39 20 00 00 	li      r9,0
    1a90:	91 01 04 d4 	stw     r8,1236(r1)
    1a94:	3a a0 00 01 	li      r21,1
    1a98:	91 21 04 e4 	stw     r9,1252(r1)
    1a9c:	3a e1 04 70 	addi    r23,r1,1136
    1aa0:	3a c0 00 01 	li      r22,1
    1aa4:	57 28 ff fe 	rlwinm  r8,r25,31,31,31
    1aa8:	2e 08 00 00 	cmpwi   cr4,r8,0
    1aac:	41 92 00 08 	beq-    cr4,1ab4 <_vfprintf_r+0x248>
    1ab0:	3a d6 00 02 	addi    r22,r22,2
    1ab4:	73 29 00 84 	andi.   r9,r25,132
    1ab8:	91 21 04 d8 	stw     r9,1240(r1)
    1abc:	40 82 09 98 	bne-    2454 <_vfprintf_r+0xbe8>
    1ac0:	81 41 04 cc 	lwz     r10,1228(r1)
    1ac4:	7e 56 50 51 	subf.   r18,r22,r10
    1ac8:	40 81 09 8c 	ble-    2454 <_vfprintf_r+0xbe8>
    1acc:	2f 92 00 10 	cmpwi   cr7,r18,16
    1ad0:	81 41 04 a0 	lwz     r10,1184(r1)
    1ad4:	81 21 04 9c 	lwz     r9,1180(r1)
    1ad8:	39 e0 00 10 	li      r15,16
    1adc:	82 7e 80 24 	lwz     r19,-32732(r30)
    1ae0:	41 bd 00 18 	bgt+    cr7,1af8 <_vfprintf_r+0x28c>
    1ae4:	48 00 00 64 	b       1b48 <_vfprintf_r+0x2dc>
    1ae8:	3a 52 ff f0 	addi    r18,r18,-16
    1aec:	39 ce 00 08 	addi    r14,r14,8
    1af0:	2f 92 00 10 	cmpwi   cr7,r18,16
    1af4:	40 9d 00 54 	ble-    cr7,1b48 <_vfprintf_r+0x2dc>
    1af8:	39 29 00 01 	addi    r9,r9,1
    1afc:	39 4a 00 10 	addi    r10,r10,16
    1b00:	2f 89 00 07 	cmpwi   cr7,r9,7
    1b04:	92 6e 00 00 	stw     r19,0(r14)
    1b08:	91 ee 00 04 	stw     r15,4(r14)
    1b0c:	91 41 04 a0 	stw     r10,1184(r1)
    1b10:	91 21 04 9c 	stw     r9,1180(r1)
    1b14:	40 9d ff d4 	ble+    cr7,1ae8 <_vfprintf_r+0x27c>
    1b18:	7f 83 e3 78 	mr      r3,r28
    1b1c:	7f e4 fb 78 	mr      r4,r31
    1b20:	7f 65 db 78 	mr      r5,r27
    1b24:	48 00 69 79 	bl      849c <__sprint_r>
    1b28:	2f 83 00 00 	cmpwi   cr7,r3,0
    1b2c:	40 9e 03 a8 	bne-    cr7,1ed4 <_vfprintf_r+0x668>
    1b30:	3a 52 ff f0 	addi    r18,r18,-16
    1b34:	81 41 04 a0 	lwz     r10,1184(r1)
    1b38:	2f 92 00 10 	cmpwi   cr7,r18,16
    1b3c:	81 21 04 9c 	lwz     r9,1180(r1)
    1b40:	7f 4e d3 78 	mr      r14,r26
    1b44:	41 9d ff b4 	bgt+    cr7,1af8 <_vfprintf_r+0x28c>
    1b48:	39 29 00 01 	addi    r9,r9,1
    1b4c:	7d 4a 92 14 	add     r10,r10,r18
    1b50:	2f 89 00 07 	cmpwi   cr7,r9,7
    1b54:	92 6e 00 00 	stw     r19,0(r14)
    1b58:	92 4e 00 04 	stw     r18,4(r14)
    1b5c:	91 41 04 a0 	stw     r10,1184(r1)
    1b60:	91 21 04 9c 	stw     r9,1180(r1)
    1b64:	41 9d 0e b0 	bgt-    cr7,2a14 <_vfprintf_r+0x11a8>
    1b68:	89 21 04 c2 	lbz     r9,1218(r1)
    1b6c:	39 ce 00 08 	addi    r14,r14,8
    1b70:	2f 89 00 00 	cmpwi   cr7,r9,0
    1b74:	40 9e 08 f0 	bne-    cr7,2464 <_vfprintf_r+0xbf8>
    1b78:	41 92 00 34 	beq-    cr4,1bac <_vfprintf_r+0x340>
    1b7c:	81 21 04 9c 	lwz     r9,1180(r1)
    1b80:	39 01 04 c0 	addi    r8,r1,1216
    1b84:	91 0e 00 00 	stw     r8,0(r14)
    1b88:	39 4a 00 02 	addi    r10,r10,2
    1b8c:	39 29 00 01 	addi    r9,r9,1
    1b90:	39 00 00 02 	li      r8,2
    1b94:	2f 89 00 07 	cmpwi   cr7,r9,7
    1b98:	91 0e 00 04 	stw     r8,4(r14)
    1b9c:	91 41 04 a0 	stw     r10,1184(r1)
    1ba0:	91 21 04 9c 	stw     r9,1180(r1)
    1ba4:	41 9d 0c c4 	bgt-    cr7,2868 <_vfprintf_r+0xffc>
    1ba8:	39 ce 00 08 	addi    r14,r14,8
    1bac:	80 e1 04 d8 	lwz     r7,1240(r1)
    1bb0:	2f 87 00 80 	cmpwi   cr7,r7,128
    1bb4:	41 9e 0b 4c 	beq-    cr7,2700 <_vfprintf_r+0xe94>
    1bb8:	80 e1 04 d4 	lwz     r7,1236(r1)
    1bbc:	7e 55 38 51 	subf.   r18,r21,r7
    1bc0:	40 81 00 a0 	ble-    1c60 <_vfprintf_r+0x3f4>
    1bc4:	2f 92 00 10 	cmpwi   cr7,r18,16
    1bc8:	81 21 04 9c 	lwz     r9,1180(r1)
    1bcc:	81 fe 80 2c 	lwz     r15,-32724(r30)
    1bd0:	3a 60 00 10 	li      r19,16
    1bd4:	41 bd 00 18 	bgt+    cr7,1bec <_vfprintf_r+0x380>
    1bd8:	48 00 00 64 	b       1c3c <_vfprintf_r+0x3d0>
    1bdc:	3a 52 ff f0 	addi    r18,r18,-16
    1be0:	39 ce 00 08 	addi    r14,r14,8
    1be4:	2f 92 00 10 	cmpwi   cr7,r18,16
    1be8:	40 9d 00 54 	ble-    cr7,1c3c <_vfprintf_r+0x3d0>
    1bec:	39 29 00 01 	addi    r9,r9,1
    1bf0:	39 4a 00 10 	addi    r10,r10,16
    1bf4:	2f 89 00 07 	cmpwi   cr7,r9,7
    1bf8:	91 ee 00 00 	stw     r15,0(r14)
    1bfc:	92 6e 00 04 	stw     r19,4(r14)
    1c00:	91 41 04 a0 	stw     r10,1184(r1)
    1c04:	91 21 04 9c 	stw     r9,1180(r1)
    1c08:	40 9d ff d4 	ble+    cr7,1bdc <_vfprintf_r+0x370>
    1c0c:	7f 83 e3 78 	mr      r3,r28
    1c10:	7f e4 fb 78 	mr      r4,r31
    1c14:	7f 65 db 78 	mr      r5,r27
    1c18:	48 00 68 85 	bl      849c <__sprint_r>
    1c1c:	2f 83 00 00 	cmpwi   cr7,r3,0
    1c20:	40 9e 02 b4 	bne-    cr7,1ed4 <_vfprintf_r+0x668>
    1c24:	3a 52 ff f0 	addi    r18,r18,-16
    1c28:	81 41 04 a0 	lwz     r10,1184(r1)
    1c2c:	2f 92 00 10 	cmpwi   cr7,r18,16
    1c30:	81 21 04 9c 	lwz     r9,1180(r1)
    1c34:	7f 4e d3 78 	mr      r14,r26
    1c38:	41 9d ff b4 	bgt+    cr7,1bec <_vfprintf_r+0x380>
    1c3c:	39 29 00 01 	addi    r9,r9,1
    1c40:	7d 4a 92 14 	add     r10,r10,r18
    1c44:	2f 89 00 07 	cmpwi   cr7,r9,7
    1c48:	91 ee 00 00 	stw     r15,0(r14)
    1c4c:	92 4e 00 04 	stw     r18,4(r14)
    1c50:	91 41 04 a0 	stw     r10,1184(r1)
    1c54:	91 21 04 9c 	stw     r9,1180(r1)
    1c58:	41 9d 0b c8 	bgt-    cr7,2820 <_vfprintf_r+0xfb4>
    1c5c:	39 ce 00 08 	addi    r14,r14,8
    1c60:	73 28 01 00 	andi.   r8,r25,256
    1c64:	40 82 09 8c 	bne-    25f0 <_vfprintf_r+0xd84>
    1c68:	81 21 04 9c 	lwz     r9,1180(r1)
    1c6c:	7d 4a aa 14 	add     r10,r10,r21
    1c70:	92 ee 00 00 	stw     r23,0(r14)
    1c74:	39 29 00 01 	addi    r9,r9,1
    1c78:	92 ae 00 04 	stw     r21,4(r14)
    1c7c:	2f 89 00 07 	cmpwi   cr7,r9,7
    1c80:	91 41 04 a0 	stw     r10,1184(r1)
    1c84:	91 21 04 9c 	stw     r9,1180(r1)
    1c88:	41 9d 08 e0 	bgt-    cr7,2568 <_vfprintf_r+0xcfc>
    1c8c:	39 ce 00 08 	addi    r14,r14,8
    1c90:	73 28 00 04 	andi.   r8,r25,4
    1c94:	41 82 00 c4 	beq-    1d58 <_vfprintf_r+0x4ec>
    1c98:	81 21 04 cc 	lwz     r9,1228(r1)
    1c9c:	7f 36 48 51 	subf.   r25,r22,r9
    1ca0:	40 81 00 b8 	ble-    1d58 <_vfprintf_r+0x4ec>
    1ca4:	2f 99 00 10 	cmpwi   cr7,r25,16
    1ca8:	81 21 04 9c 	lwz     r9,1180(r1)
    1cac:	82 7e 80 24 	lwz     r19,-32732(r30)
    1cb0:	3b 00 00 10 	li      r24,16
    1cb4:	41 bd 00 18 	bgt+    cr7,1ccc <_vfprintf_r+0x460>
    1cb8:	48 00 00 64 	b       1d1c <_vfprintf_r+0x4b0>
    1cbc:	3b 39 ff f0 	addi    r25,r25,-16
    1cc0:	39 ce 00 08 	addi    r14,r14,8
    1cc4:	2f 99 00 10 	cmpwi   cr7,r25,16
    1cc8:	40 9d 00 54 	ble-    cr7,1d1c <_vfprintf_r+0x4b0>
    1ccc:	39 29 00 01 	addi    r9,r9,1
    1cd0:	39 4a 00 10 	addi    r10,r10,16
    1cd4:	2f 89 00 07 	cmpwi   cr7,r9,7
    1cd8:	92 6e 00 00 	stw     r19,0(r14)
    1cdc:	93 0e 00 04 	stw     r24,4(r14)
    1ce0:	91 41 04 a0 	stw     r10,1184(r1)
    1ce4:	91 21 04 9c 	stw     r9,1180(r1)
    1ce8:	40 9d ff d4 	ble+    cr7,1cbc <_vfprintf_r+0x450>
    1cec:	7f 83 e3 78 	mr      r3,r28
    1cf0:	7f e4 fb 78 	mr      r4,r31
    1cf4:	7f 65 db 78 	mr      r5,r27
    1cf8:	48 00 67 a5 	bl      849c <__sprint_r>
    1cfc:	2f 83 00 00 	cmpwi   cr7,r3,0
    1d00:	40 9e 01 d4 	bne-    cr7,1ed4 <_vfprintf_r+0x668>
    1d04:	3b 39 ff f0 	addi    r25,r25,-16
    1d08:	81 41 04 a0 	lwz     r10,1184(r1)
    1d0c:	2f 99 00 10 	cmpwi   cr7,r25,16
    1d10:	81 21 04 9c 	lwz     r9,1180(r1)
    1d14:	7f 4e d3 78 	mr      r14,r26
    1d18:	41 9d ff b4 	bgt+    cr7,1ccc <_vfprintf_r+0x460>
    1d1c:	39 29 00 01 	addi    r9,r9,1
    1d20:	7d 59 52 14 	add     r10,r25,r10
    1d24:	2f 89 00 07 	cmpwi   cr7,r9,7
    1d28:	92 6e 00 00 	stw     r19,0(r14)
    1d2c:	93 2e 00 04 	stw     r25,4(r14)
    1d30:	91 41 04 a0 	stw     r10,1184(r1)
    1d34:	91 21 04 9c 	stw     r9,1180(r1)
    1d38:	40 bd 00 20 	ble+    cr7,1d58 <_vfprintf_r+0x4ec>
    1d3c:	7f 83 e3 78 	mr      r3,r28
    1d40:	7f e4 fb 78 	mr      r4,r31
    1d44:	7f 65 db 78 	mr      r5,r27
    1d48:	48 00 67 55 	bl      849c <__sprint_r>
    1d4c:	2f 83 00 00 	cmpwi   cr7,r3,0
    1d50:	40 9e 01 84 	bne-    cr7,1ed4 <_vfprintf_r+0x668>
    1d54:	81 41 04 a0 	lwz     r10,1184(r1)
    1d58:	81 21 04 cc 	lwz     r9,1228(r1)
    1d5c:	7f 96 48 00 	cmpw    cr7,r22,r9
    1d60:	40 9c 00 08 	bge-    cr7,1d68 <_vfprintf_r+0x4fc>
    1d64:	7d 36 4b 78 	mr      r22,r9
    1d68:	2f 8a 00 00 	cmpwi   cr7,r10,0
    1d6c:	81 41 04 d0 	lwz     r10,1232(r1)
    1d70:	7d 4a b2 14 	add     r10,r10,r22
    1d74:	91 41 04 d0 	stw     r10,1232(r1)
    1d78:	40 9e 0a 8c 	bne-    cr7,2804 <_vfprintf_r+0xf98>
    1d7c:	39 20 00 00 	li      r9,0
    1d80:	7f 4e d3 78 	mr      r14,r26
    1d84:	91 21 04 9c 	stw     r9,1180(r1)
    1d88:	4b ff fc 30 	b       19b8 <_vfprintf_r+0x14c>
    1d8c:	81 5e 80 1c 	lwz     r10,-32740(r30)
    1d90:	55 29 10 3a 	rlwinm  r9,r9,2,0,29
    1d94:	7d 2a 48 2e 	lwzx    r9,r10,r9
    1d98:	7d 29 52 14 	add     r9,r9,r10
    1d9c:	7d 29 03 a6 	mtctr   r9
    1da0:	4e 80 04 20 	bctr
    1da4:	89 34 00 00 	lbz     r9,0(r20)
    1da8:	2b 89 00 08 	cmplwi  cr7,r9,8
    1dac:	40 9c 11 28 	bge-    cr7,2ed4 <_vfprintf_r+0x1668>
    1db0:	55 25 10 3a 	rlwinm  r5,r9,2,0,29
    1db4:	81 54 00 08 	lwz     r10,8(r20)
    1db8:	39 29 00 01 	addi    r9,r9,1
    1dbc:	99 34 00 00 	stb     r9,0(r20)
    1dc0:	7d 4a 2a 14 	add     r10,r10,r5
    1dc4:	81 4a 00 00 	lwz     r10,0(r10)
    1dc8:	2f 8a 00 00 	cmpwi   cr7,r10,0
    1dcc:	91 41 04 cc 	stw     r10,1228(r1)
    1dd0:	40 bc 04 20 	bge+    cr7,21f0 <_vfprintf_r+0x984>
    1dd4:	81 21 04 cc 	lwz     r9,1228(r1)
    1dd8:	7d 29 00 d0 	neg     r9,r9
    1ddc:	91 21 04 cc 	stw     r9,1228(r1)
    1de0:	63 39 00 04 	ori     r25,r25,4
    1de4:	8b 1d 00 00 	lbz     r24,0(r29)
    1de8:	4b ff fc 7c 	b       1a64 <_vfprintf_r+0x1f8>
    1dec:	7f 83 e3 78 	mr      r3,r28
    1df0:	7f e4 fb 78 	mr      r4,r31
    1df4:	48 00 1c 09 	bl      39fc <__swsetup_r>
    1df8:	2f 83 00 00 	cmpwi   cr7,r3,0
    1dfc:	40 9e 00 e8 	bne-    cr7,1ee4 <_vfprintf_r+0x678>
    1e00:	a9 3f 00 0c 	lha     r9,12(r31)
    1e04:	71 2a 00 1a 	andi.   r10,r9,26
    1e08:	2f 8a 00 0a 	cmpwi   cr7,r10,10
    1e0c:	40 9e fb 60 	bne+    cr7,196c <_vfprintf_r+0x100>
    1e10:	a1 5f 00 0e 	lhz     r10,14(r31)
    1e14:	7d 48 07 34 	extsh   r8,r10
    1e18:	2f 88 00 00 	cmpwi   cr7,r8,0
    1e1c:	41 9c fb 50 	blt+    cr7,196c <_vfprintf_r+0x100>
    1e20:	83 7f 00 64 	lwz     r27,100(r31)
    1e24:	55 29 07 fa 	rlwinm  r9,r9,0,31,29
    1e28:	80 1f 00 1c 	lwz     r0,28(r31)
    1e2c:	38 e0 04 00 	li      r7,1024
    1e30:	81 7f 00 24 	lwz     r11,36(r31)
    1e34:	39 01 00 08 	addi    r8,r1,8
    1e38:	b1 21 04 14 	sth     r9,1044(r1)
    1e3c:	7f 83 e3 78 	mr      r3,r28
    1e40:	39 20 00 00 	li      r9,0
    1e44:	38 81 04 08 	addi    r4,r1,1032
    1e48:	7f a5 eb 78 	mr      r5,r29
    1e4c:	7e 06 83 78 	mr      r6,r16
    1e50:	91 21 04 20 	stw     r9,1056(r1)
    1e54:	93 61 04 6c 	stw     r27,1132(r1)
    1e58:	b1 41 04 16 	sth     r10,1046(r1)
    1e5c:	90 01 04 24 	stw     r0,1060(r1)
    1e60:	91 61 04 2c 	stw     r11,1068(r1)
    1e64:	91 01 04 08 	stw     r8,1032(r1)
    1e68:	91 01 04 18 	stw     r8,1048(r1)
    1e6c:	90 e1 04 10 	stw     r7,1040(r1)
    1e70:	90 e1 04 1c 	stw     r7,1052(r1)
    1e74:	4b ff f9 f9 	bl      186c <_vfprintf_r>
    1e78:	7c 69 1b 79 	mr.     r9,r3
    1e7c:	91 21 04 d0 	stw     r9,1232(r1)
    1e80:	41 80 00 18 	blt-    1e98 <_vfprintf_r+0x62c>
    1e84:	7f 83 e3 78 	mr      r3,r28
    1e88:	38 81 04 08 	addi    r4,r1,1032
    1e8c:	48 00 35 9d 	bl      5428 <_fflush_r>
    1e90:	2f 83 00 00 	cmpwi   cr7,r3,0
    1e94:	40 9e 1a 84 	bne-    cr7,3918 <_vfprintf_r+0x20ac>
    1e98:	a1 21 04 14 	lhz     r9,1044(r1)
    1e9c:	55 29 06 72 	rlwinm  r9,r9,0,25,25
    1ea0:	7d 27 07 35 	extsh.  r7,r9
    1ea4:	41 82 00 48 	beq-    1eec <_vfprintf_r+0x680>
    1ea8:	a1 3f 00 0c 	lhz     r9,12(r31)
    1eac:	61 29 00 40 	ori     r9,r9,64
    1eb0:	b1 3f 00 0c 	sth     r9,12(r31)
    1eb4:	48 00 00 38 	b       1eec <_vfprintf_r+0x680>
    1eb8:	81 21 04 a0 	lwz     r9,1184(r1)
    1ebc:	2f 89 00 00 	cmpwi   cr7,r9,0
    1ec0:	41 be 00 14 	beq+    cr7,1ed4 <_vfprintf_r+0x668>
    1ec4:	7f 83 e3 78 	mr      r3,r28
    1ec8:	7f e4 fb 78 	mr      r4,r31
    1ecc:	38 a1 04 98 	addi    r5,r1,1176
    1ed0:	48 00 65 cd 	bl      849c <__sprint_r>
    1ed4:	a1 3f 00 0c 	lhz     r9,12(r31)
    1ed8:	55 29 06 72 	rlwinm  r9,r9,0,25,25
    1edc:	7d 27 07 35 	extsh.  r7,r9
    1ee0:	41 82 00 0c 	beq-    1eec <_vfprintf_r+0x680>
    1ee4:	39 20 ff ff 	li      r9,-1
    1ee8:	91 21 04 d0 	stw     r9,1232(r1)
    1eec:	80 01 05 64 	lwz     r0,1380(r1)
    1ef0:	81 81 05 0c 	lwz     r12,1292(r1)
    1ef4:	7c 08 03 a6 	mtlr    r0
    1ef8:	80 61 04 d0 	lwz     r3,1232(r1)
    1efc:	81 c1 05 10 	lwz     r14,1296(r1)
    1f00:	7d 83 81 20 	mtcrf   56,r12
    1f04:	81 e1 05 14 	lwz     r15,1300(r1)
    1f08:	82 01 05 18 	lwz     r16,1304(r1)
    1f0c:	82 21 05 1c 	lwz     r17,1308(r1)
    1f10:	82 41 05 20 	lwz     r18,1312(r1)
    1f14:	82 61 05 24 	lwz     r19,1316(r1)
    1f18:	82 81 05 28 	lwz     r20,1320(r1)
    1f1c:	82 a1 05 2c 	lwz     r21,1324(r1)
    1f20:	82 c1 05 30 	lwz     r22,1328(r1)
    1f24:	82 e1 05 34 	lwz     r23,1332(r1)
    1f28:	83 01 05 38 	lwz     r24,1336(r1)
    1f2c:	83 21 05 3c 	lwz     r25,1340(r1)
    1f30:	83 41 05 40 	lwz     r26,1344(r1)
    1f34:	83 61 05 44 	lwz     r27,1348(r1)
    1f38:	83 81 05 48 	lwz     r28,1352(r1)
    1f3c:	83 a1 05 4c 	lwz     r29,1356(r1)
    1f40:	83 c1 05 50 	lwz     r30,1360(r1)
    1f44:	83 e1 05 54 	lwz     r31,1364(r1)
    1f48:	cb e1 05 58 	lfd     f31,1368(r1)
    1f4c:	38 21 05 60 	addi    r1,r1,1376
    1f50:	4e 80 00 20 	blr
    1f54:	7f 83 e3 78 	mr      r3,r28
    1f58:	7f e4 fb 78 	mr      r4,r31
    1f5c:	7f 65 db 78 	mr      r5,r27
    1f60:	48 00 65 3d 	bl      849c <__sprint_r>
    1f64:	2f 83 00 00 	cmpwi   cr7,r3,0
    1f68:	40 be ff 6c 	bne-    cr7,1ed4 <_vfprintf_r+0x668>
    1f6c:	7f 4e d3 78 	mr      r14,r26
    1f70:	4b ff fa b0 	b       1a20 <_vfprintf_r+0x1b4>
    1f74:	7f 83 e3 78 	mr      r3,r28
    1f78:	48 00 37 31 	bl      56a8 <__sinit>
    1f7c:	4b ff f9 a8 	b       1924 <_vfprintf_r+0xb8>
    1f80:	7c d3 33 78 	mr      r19,r6
    1f84:	63 39 00 10 	ori     r25,r25,16
    1f88:	73 2a 00 20 	andi.   r10,r25,32
    1f8c:	41 82 0b 94 	beq-    2b20 <_vfprintf_r+0x12b4>
    1f90:	89 34 00 00 	lbz     r9,0(r20)
    1f94:	2b 89 00 06 	cmplwi  cr7,r9,6
    1f98:	55 2a 07 fe 	clrlwi  r10,r9,31
    1f9c:	7d 29 52 14 	add     r9,r9,r10
    1fa0:	55 29 06 3e 	clrlwi  r9,r9,24
    1fa4:	99 34 00 00 	stb     r9,0(r20)
    1fa8:	41 9d 0e dc 	bgt-    cr7,2e84 <_vfprintf_r+0x1618>
    1fac:	55 28 10 3a 	rlwinm  r8,r9,2,0,29
    1fb0:	81 54 00 08 	lwz     r10,8(r20)
    1fb4:	39 29 00 02 	addi    r9,r9,2
    1fb8:	99 34 00 00 	stb     r9,0(r20)
    1fbc:	7d 4a 42 14 	add     r10,r10,r8
    1fc0:	82 0a 00 00 	lwz     r16,0(r10)
    1fc4:	82 2a 00 04 	lwz     r17,4(r10)
    1fc8:	2f 90 00 00 	cmpwi   cr7,r16,0
    1fcc:	39 20 00 01 	li      r9,1
    1fd0:	40 9c 00 14 	bge-    cr7,1fe4 <_vfprintf_r+0x778>
    1fd4:	39 40 00 2d 	li      r10,45
    1fd8:	22 31 00 00 	subfic  r17,r17,0
    1fdc:	7e 10 01 90 	subfze  r16,r16
    1fe0:	99 41 04 c2 	stb     r10,1218(r1)
    1fe4:	2f 93 00 00 	cmpwi   cr7,r19,0
    1fe8:	41 9c 00 08 	blt-    cr7,1ff0 <_vfprintf_r+0x784>
    1fec:	57 39 06 6e 	rlwinm  r25,r25,0,25,23
    1ff0:	7e 07 8b 79 	or.     r7,r16,r17
    1ff4:	40 82 05 98 	bne-    258c <_vfprintf_r+0xd20>
    1ff8:	40 9e 05 94 	bne-    cr7,258c <_vfprintf_r+0xd20>
    1ffc:	2f 89 00 00 	cmpwi   cr7,r9,0
    2000:	40 9e 08 8c 	bne-    cr7,288c <_vfprintf_r+0x1020>
    2004:	73 29 00 01 	andi.   r9,r25,1
    2008:	41 82 08 84 	beq-    288c <_vfprintf_r+0x1020>
    200c:	39 20 00 30 	li      r9,48
    2010:	82 a1 04 fc 	lwz     r21,1276(r1)
    2014:	99 21 04 97 	stb     r9,1175(r1)
    2018:	3a e1 04 97 	addi    r23,r1,1175
    201c:	7f 95 98 00 	cmpw    cr7,r21,r19
    2020:	7e b6 ab 78 	mr      r22,r21
    2024:	40 9c 00 08 	bge-    cr7,202c <_vfprintf_r+0x7c0>
    2028:	7e 76 9b 78 	mr      r22,r19
    202c:	39 40 00 00 	li      r10,0
    2030:	89 21 04 c2 	lbz     r9,1218(r1)
    2034:	92 61 04 d4 	stw     r19,1236(r1)
    2038:	91 41 04 e4 	stw     r10,1252(r1)
    203c:	2f 89 00 00 	cmpwi   cr7,r9,0
    2040:	41 be fa 64 	beq-    cr7,1aa4 <_vfprintf_r+0x238>
    2044:	3a d6 00 01 	addi    r22,r22,1
    2048:	4b ff fa 5c 	b       1aa4 <_vfprintf_r+0x238>
    204c:	73 29 00 08 	andi.   r9,r25,8
    2050:	89 34 00 01 	lbz     r9,1(r20)
    2054:	7c d3 33 78 	mr      r19,r6
    2058:	2b 89 00 08 	cmplwi  cr7,r9,8
    205c:	41 82 0e 88 	beq-    2ee4 <_vfprintf_r+0x1678>
    2060:	40 9c 11 a4 	bge-    cr7,3204 <_vfprintf_r+0x1998>
    2064:	39 09 00 04 	addi    r8,r9,4
    2068:	81 54 00 08 	lwz     r10,8(r20)
    206c:	39 29 00 01 	addi    r9,r9,1
    2070:	55 08 18 38 	rlwinm  r8,r8,3,0,28
    2074:	99 34 00 01 	stb     r9,1(r20)
    2078:	7d 4a 42 14 	add     r10,r10,r8
    207c:	cb ea 00 00 	lfd     f31,0(r10)
    2080:	db e1 04 f0 	stfd    f31,1264(r1)
    2084:	48 00 0e 84 	b       2f08 <_vfprintf_r+0x169c>
    2088:	63 39 00 08 	ori     r25,r25,8
    208c:	8b 1d 00 00 	lbz     r24,0(r29)
    2090:	4b ff f9 d4 	b       1a64 <_vfprintf_r+0x1f8>
    2094:	7c d3 33 78 	mr      r19,r6
    2098:	63 39 00 10 	ori     r25,r25,16
    209c:	73 27 00 20 	andi.   r7,r25,32
    20a0:	41 82 0a 10 	beq-    2ab0 <_vfprintf_r+0x1244>
    20a4:	89 34 00 00 	lbz     r9,0(r20)
    20a8:	2b 89 00 06 	cmplwi  cr7,r9,6
    20ac:	55 2a 07 fe 	clrlwi  r10,r9,31
    20b0:	7d 29 52 14 	add     r9,r9,r10
    20b4:	55 29 06 3e 	clrlwi  r9,r9,24
    20b8:	99 34 00 00 	stb     r9,0(r20)
    20bc:	41 9d 0d 5c 	bgt-    cr7,2e18 <_vfprintf_r+0x15ac>
    20c0:	55 28 10 3a 	rlwinm  r8,r9,2,0,29
    20c4:	81 54 00 08 	lwz     r10,8(r20)
    20c8:	39 29 00 02 	addi    r9,r9,2
    20cc:	99 34 00 00 	stb     r9,0(r20)
    20d0:	7d 4a 42 14 	add     r10,r10,r8
    20d4:	82 0a 00 00 	lwz     r16,0(r10)
    20d8:	39 20 00 00 	li      r9,0
    20dc:	82 2a 00 04 	lwz     r17,4(r10)
    20e0:	39 40 00 00 	li      r10,0
    20e4:	99 41 04 c2 	stb     r10,1218(r1)
    20e8:	4b ff fe fc 	b       1fe4 <_vfprintf_r+0x778>
    20ec:	7c d3 33 78 	mr      r19,r6
    20f0:	63 39 00 10 	ori     r25,r25,16
    20f4:	73 28 00 20 	andi.   r8,r25,32
    20f8:	41 82 09 f0 	beq-    2ae8 <_vfprintf_r+0x127c>
    20fc:	89 34 00 00 	lbz     r9,0(r20)
    2100:	2b 89 00 06 	cmplwi  cr7,r9,6
    2104:	55 2a 07 fe 	clrlwi  r10,r9,31
    2108:	7d 29 52 14 	add     r9,r9,r10
    210c:	55 29 06 3e 	clrlwi  r9,r9,24
    2110:	99 34 00 00 	stb     r9,0(r20)
    2114:	41 9d 0c b4 	bgt-    cr7,2dc8 <_vfprintf_r+0x155c>
    2118:	55 28 10 3a 	rlwinm  r8,r9,2,0,29
    211c:	81 54 00 08 	lwz     r10,8(r20)
    2120:	39 29 00 02 	addi    r9,r9,2
    2124:	99 34 00 00 	stb     r9,0(r20)
    2128:	7d 4a 42 14 	add     r10,r10,r8
    212c:	82 0a 00 00 	lwz     r16,0(r10)
    2130:	39 20 00 01 	li      r9,1
    2134:	82 2a 00 04 	lwz     r17,4(r10)
    2138:	4b ff ff a8 	b       20e0 <_vfprintf_r+0x874>
    213c:	73 29 00 20 	andi.   r9,r25,32
    2140:	81 1e 80 10 	lwz     r8,-32752(r30)
    2144:	7c d3 33 78 	mr      r19,r6
    2148:	91 01 04 ec 	stw     r8,1260(r1)
    214c:	41 82 01 b8 	beq-    2304 <_vfprintf_r+0xa98>
    2150:	89 34 00 00 	lbz     r9,0(r20)
    2154:	2b 89 00 06 	cmplwi  cr7,r9,6
    2158:	55 2a 07 fe 	clrlwi  r10,r9,31
    215c:	7d 29 52 14 	add     r9,r9,r10
    2160:	55 29 06 3e 	clrlwi  r9,r9,24
    2164:	99 34 00 00 	stb     r9,0(r20)
    2168:	41 9d 0d f0 	bgt-    cr7,2f58 <_vfprintf_r+0x16ec>
    216c:	55 28 10 3a 	rlwinm  r8,r9,2,0,29
    2170:	81 54 00 08 	lwz     r10,8(r20)
    2174:	39 29 00 02 	addi    r9,r9,2
    2178:	99 34 00 00 	stb     r9,0(r20)
    217c:	7d 4a 42 14 	add     r10,r10,r8
    2180:	82 0a 00 00 	lwz     r16,0(r10)
    2184:	82 2a 00 04 	lwz     r17,4(r10)
    2188:	73 28 00 01 	andi.   r8,r25,1
    218c:	39 20 00 02 	li      r9,2
    2190:	41 a2 ff 50 	beq-    20e0 <_vfprintf_r+0x874>
    2194:	7e 0a 8b 79 	or.     r10,r16,r17
    2198:	41 a2 ff 48 	beq-    20e0 <_vfprintf_r+0x874>
    219c:	39 40 00 30 	li      r10,48
    21a0:	9b 01 04 c1 	stb     r24,1217(r1)
    21a4:	99 41 04 c0 	stb     r10,1216(r1)
    21a8:	63 39 00 02 	ori     r25,r25,2
    21ac:	4b ff ff 34 	b       20e0 <_vfprintf_r+0x874>
    21b0:	89 34 00 00 	lbz     r9,0(r20)
    21b4:	2b 89 00 08 	cmplwi  cr7,r9,8
    21b8:	40 9c 0c ac 	bge-    cr7,2e64 <_vfprintf_r+0x15f8>
    21bc:	55 28 10 3a 	rlwinm  r8,r9,2,0,29
    21c0:	81 54 00 08 	lwz     r10,8(r20)
    21c4:	39 29 00 01 	addi    r9,r9,1
    21c8:	99 34 00 00 	stb     r9,0(r20)
    21cc:	7d 4a 42 14 	add     r10,r10,r8
    21d0:	81 2a 00 00 	lwz     r9,0(r10)
    21d4:	99 21 04 70 	stb     r9,1136(r1)
    21d8:	39 20 00 00 	li      r9,0
    21dc:	99 21 04 c2 	stb     r9,1218(r1)
    21e0:	4b ff f8 a8 	b       1a88 <_vfprintf_r+0x21c>
    21e4:	63 39 00 40 	ori     r25,r25,64
    21e8:	8b 1d 00 00 	lbz     r24,0(r29)
    21ec:	4b ff f8 78 	b       1a64 <_vfprintf_r+0x1f8>
    21f0:	8b 1d 00 00 	lbz     r24,0(r29)
    21f4:	4b ff f8 70 	b       1a64 <_vfprintf_r+0x1f8>
    21f8:	99 01 04 c2 	stb     r8,1218(r1)
    21fc:	8b 1d 00 00 	lbz     r24,0(r29)
    2200:	4b ff f8 64 	b       1a64 <_vfprintf_r+0x1f8>
    2204:	63 39 00 80 	ori     r25,r25,128
    2208:	8b 1d 00 00 	lbz     r24,0(r29)
    220c:	4b ff f8 58 	b       1a64 <_vfprintf_r+0x1f8>
    2210:	39 40 00 00 	li      r10,0
    2214:	39 38 ff d0 	addi    r9,r24,-48
    2218:	8b 1d 00 00 	lbz     r24,0(r29)
    221c:	1d 4a 00 0a 	mulli   r10,r10,10
    2220:	3b bd 00 01 	addi    r29,r29,1
    2224:	7d 4a 4a 14 	add     r10,r10,r9
    2228:	39 38 ff d0 	addi    r9,r24,-48
    222c:	2b 89 00 09 	cmplwi  cr7,r9,9
    2230:	40 9d ff e8 	ble+    cr7,2218 <_vfprintf_r+0x9ac>
    2234:	91 41 04 cc 	stw     r10,1228(r1)
    2238:	4b ff f8 30 	b       1a68 <_vfprintf_r+0x1fc>
    223c:	89 21 04 c2 	lbz     r9,1218(r1)
    2240:	2f 89 00 00 	cmpwi   cr7,r9,0
    2244:	40 be ff ac 	bne-    cr7,21f0 <_vfprintf_r+0x984>
    2248:	98 e1 04 c2 	stb     r7,1218(r1)
    224c:	8b 1d 00 00 	lbz     r24,0(r29)
    2250:	4b ff f8 14 	b       1a64 <_vfprintf_r+0x1f8>
    2254:	63 39 00 01 	ori     r25,r25,1
    2258:	8b 1d 00 00 	lbz     r24,0(r29)
    225c:	4b ff f8 08 	b       1a64 <_vfprintf_r+0x1f8>
    2260:	63 39 00 20 	ori     r25,r25,32
    2264:	8b 1d 00 00 	lbz     r24,0(r29)
    2268:	4b ff f7 fc 	b       1a64 <_vfprintf_r+0x1f8>
    226c:	89 34 00 00 	lbz     r9,0(r20)
    2270:	39 40 00 00 	li      r10,0
    2274:	7c d3 33 78 	mr      r19,r6
    2278:	99 41 04 c2 	stb     r10,1218(r1)
    227c:	2b 89 00 08 	cmplwi  cr7,r9,8
    2280:	40 9c 0b 38 	bge-    cr7,2db8 <_vfprintf_r+0x154c>
    2284:	55 28 10 3a 	rlwinm  r8,r9,2,0,29
    2288:	81 54 00 08 	lwz     r10,8(r20)
    228c:	39 29 00 01 	addi    r9,r9,1
    2290:	99 34 00 00 	stb     r9,0(r20)
    2294:	7d 4a 42 14 	add     r10,r10,r8
    2298:	82 ea 00 00 	lwz     r23,0(r10)
    229c:	2f 97 00 00 	cmpwi   cr7,r23,0
    22a0:	41 9e 12 70 	beq-    cr7,3510 <_vfprintf_r+0x1ca4>
    22a4:	2f 93 00 00 	cmpwi   cr7,r19,0
    22a8:	7e e3 bb 78 	mr      r3,r23
    22ac:	41 9c 11 bc 	blt-    cr7,3468 <_vfprintf_r+0x1bfc>
    22b0:	38 80 00 00 	li      r4,0
    22b4:	7e 65 9b 78 	mr      r5,r19
    22b8:	48 00 49 49 	bl      6c00 <memchr>
    22bc:	2c 03 00 00 	cmpwi   r3,0
    22c0:	41 82 14 60 	beq-    3720 <_vfprintf_r+0x1eb4>
    22c4:	7e b7 18 50 	subf    r21,r23,r3
    22c8:	7f 95 98 00 	cmpw    cr7,r21,r19
    22cc:	40 9d 0e 14 	ble-    cr7,30e0 <_vfprintf_r+0x1874>
    22d0:	39 00 00 00 	li      r8,0
    22d4:	39 40 00 00 	li      r10,0
    22d8:	7e 76 9b 78 	mr      r22,r19
    22dc:	89 21 04 c2 	lbz     r9,1218(r1)
    22e0:	7e 75 9b 78 	mr      r21,r19
    22e4:	91 01 04 d4 	stw     r8,1236(r1)
    22e8:	91 41 04 e4 	stw     r10,1252(r1)
    22ec:	4b ff fd 50 	b       203c <_vfprintf_r+0x7d0>
    22f0:	73 29 00 20 	andi.   r9,r25,32
    22f4:	80 fe 80 14 	lwz     r7,-32748(r30)
    22f8:	7c d3 33 78 	mr      r19,r6
    22fc:	90 e1 04 ec 	stw     r7,1260(r1)
    2300:	40 a2 fe 50 	bne-    2150 <_vfprintf_r+0x8e4>
    2304:	73 2a 00 10 	andi.   r10,r25,16
    2308:	41 82 0b 28 	beq-    2e30 <_vfprintf_r+0x15c4>
    230c:	89 34 00 00 	lbz     r9,0(r20)
    2310:	2b 89 00 08 	cmplwi  cr7,r9,8
    2314:	40 9c 0e 88 	bge-    cr7,319c <_vfprintf_r+0x1930>
    2318:	55 28 10 3a 	rlwinm  r8,r9,2,0,29
    231c:	81 54 00 08 	lwz     r10,8(r20)
    2320:	39 29 00 01 	addi    r9,r9,1
    2324:	99 34 00 00 	stb     r9,0(r20)
    2328:	7d 4a 42 14 	add     r10,r10,r8
    232c:	82 2a 00 00 	lwz     r17,0(r10)
    2330:	3a 00 00 00 	li      r16,0
    2334:	4b ff fe 54 	b       2188 <_vfprintf_r+0x91c>
    2338:	73 2a 00 20 	andi.   r10,r25,32
    233c:	41 82 0a 14 	beq-    2d50 <_vfprintf_r+0x14e4>
    2340:	89 34 00 00 	lbz     r9,0(r20)
    2344:	2b 89 00 08 	cmplwi  cr7,r9,8
    2348:	40 9c 0e 20 	bge-    cr7,3168 <_vfprintf_r+0x18fc>
    234c:	55 28 10 3a 	rlwinm  r8,r9,2,0,29
    2350:	81 54 00 08 	lwz     r10,8(r20)
    2354:	39 29 00 01 	addi    r9,r9,1
    2358:	99 34 00 00 	stb     r9,0(r20)
    235c:	7d 4a 42 14 	add     r10,r10,r8
    2360:	80 e1 04 d0 	lwz     r7,1232(r1)
    2364:	81 2a 00 00 	lwz     r9,0(r10)
    2368:	7c ea fe 70 	srawi   r10,r7,31
    236c:	90 e9 00 04 	stw     r7,4(r9)
    2370:	91 49 00 00 	stw     r10,0(r9)
    2374:	4b ff f6 44 	b       19b8 <_vfprintf_r+0x14c>
    2378:	89 34 00 00 	lbz     r9,0(r20)
    237c:	7c d3 33 78 	mr      r19,r6
    2380:	2b 89 00 08 	cmplwi  cr7,r9,8
    2384:	40 9c 0a f0 	bge-    cr7,2e74 <_vfprintf_r+0x1608>
    2388:	55 28 10 3a 	rlwinm  r8,r9,2,0,29
    238c:	81 54 00 08 	lwz     r10,8(r20)
    2390:	39 29 00 01 	addi    r9,r9,1
    2394:	99 34 00 00 	stb     r9,0(r20)
    2398:	7d 4a 42 14 	add     r10,r10,r8
    239c:	82 2a 00 00 	lwz     r17,0(r10)
    23a0:	39 20 00 30 	li      r9,48
    23a4:	81 5e 80 14 	lwz     r10,-32748(r30)
    23a8:	3a 00 00 00 	li      r16,0
    23ac:	99 21 04 c0 	stb     r9,1216(r1)
    23b0:	39 20 00 78 	li      r9,120
    23b4:	99 21 04 c1 	stb     r9,1217(r1)
    23b8:	63 39 00 02 	ori     r25,r25,2
    23bc:	91 41 04 ec 	stw     r10,1260(r1)
    23c0:	39 20 00 02 	li      r9,2
    23c4:	3b 00 00 78 	li      r24,120
    23c8:	4b ff fd 18 	b       20e0 <_vfprintf_r+0x874>
    23cc:	8b 1d 00 00 	lbz     r24,0(r29)
    23d0:	7f a9 eb 78 	mr      r9,r29
    23d4:	2f 98 00 6c 	cmpwi   cr7,r24,108
    23d8:	41 9e 0e d0 	beq-    cr7,32a8 <_vfprintf_r+0x1a3c>
    23dc:	63 39 00 10 	ori     r25,r25,16
    23e0:	4b ff f6 84 	b       1a64 <_vfprintf_r+0x1f8>
    23e4:	8b 1d 00 00 	lbz     r24,0(r29)
    23e8:	39 5d 00 01 	addi    r10,r29,1
    23ec:	2f 98 00 2a 	cmpwi   cr7,r24,42
    23f0:	41 9e 15 34 	beq-    cr7,3924 <_vfprintf_r+0x20b8>
    23f4:	39 38 ff d0 	addi    r9,r24,-48
    23f8:	7d 5d 53 78 	mr      r29,r10
    23fc:	2b 89 00 09 	cmplwi  cr7,r9,9
    2400:	38 c0 00 00 	li      r6,0
    2404:	3a 60 00 00 	li      r19,0
    2408:	41 bd f6 60 	bgt-    cr7,1a68 <_vfprintf_r+0x1fc>
    240c:	8b 0a 00 00 	lbz     r24,0(r10)
    2410:	1e 73 00 0a 	mulli   r19,r19,10
    2414:	39 4a 00 01 	addi    r10,r10,1
    2418:	7e 69 9a 14 	add     r19,r9,r19
    241c:	39 38 ff d0 	addi    r9,r24,-48
    2420:	2b 89 00 09 	cmplwi  cr7,r9,9
    2424:	40 9d ff e8 	ble+    cr7,240c <_vfprintf_r+0xba0>
    2428:	2f 93 00 00 	cmpwi   cr7,r19,0
    242c:	7e 66 9b 78 	mr      r6,r19
    2430:	41 9c 0d ec 	blt-    cr7,321c <_vfprintf_r+0x19b0>
    2434:	7d 5d 53 78 	mr      r29,r10
    2438:	4b ff f6 30 	b       1a68 <_vfprintf_r+0x1fc>
    243c:	7c d3 33 78 	mr      r19,r6
    2440:	4b ff fc b4 	b       20f4 <_vfprintf_r+0x888>
    2444:	7c d3 33 78 	mr      r19,r6
    2448:	4b ff fb 40 	b       1f88 <_vfprintf_r+0x71c>
    244c:	7c d3 33 78 	mr      r19,r6
    2450:	4b ff fc 4c 	b       209c <_vfprintf_r+0x830>
    2454:	81 41 04 a0 	lwz     r10,1184(r1)
    2458:	89 21 04 c2 	lbz     r9,1218(r1)
    245c:	2f 89 00 00 	cmpwi   cr7,r9,0
    2460:	41 be f7 18 	beq-    cr7,1b78 <_vfprintf_r+0x30c>
    2464:	81 21 04 9c 	lwz     r9,1180(r1)
    2468:	39 01 04 c2 	addi    r8,r1,1218
    246c:	91 0e 00 00 	stw     r8,0(r14)
    2470:	39 4a 00 01 	addi    r10,r10,1
    2474:	39 29 00 01 	addi    r9,r9,1
    2478:	39 00 00 01 	li      r8,1
    247c:	2f 89 00 07 	cmpwi   cr7,r9,7
    2480:	91 0e 00 04 	stw     r8,4(r14)
    2484:	91 41 04 a0 	stw     r10,1184(r1)
    2488:	91 21 04 9c 	stw     r9,1180(r1)
    248c:	41 9d 03 b8 	bgt-    cr7,2844 <_vfprintf_r+0xfd8>
    2490:	39 ce 00 08 	addi    r14,r14,8
    2494:	4b ff f6 e4 	b       1b78 <_vfprintf_r+0x30c>
    2498:	81 01 04 dc 	lwz     r8,1244(r1)
    249c:	2f 88 00 01 	cmpwi   cr7,r8,1
    24a0:	40 9d 03 0c 	ble-    cr7,27ac <_vfprintf_r+0xf40>
    24a4:	81 21 04 9c 	lwz     r9,1180(r1)
    24a8:	39 4a 00 01 	addi    r10,r10,1
    24ac:	39 00 00 01 	li      r8,1
    24b0:	92 ee 00 00 	stw     r23,0(r14)
    24b4:	39 29 00 01 	addi    r9,r9,1
    24b8:	91 0e 00 04 	stw     r8,4(r14)
    24bc:	2f 89 00 07 	cmpwi   cr7,r9,7
    24c0:	91 41 04 a0 	stw     r10,1184(r1)
    24c4:	91 21 04 9c 	stw     r9,1180(r1)
    24c8:	41 9d 07 f0 	bgt-    cr7,2cb8 <_vfprintf_r+0x144c>
    24cc:	39 ce 00 08 	addi    r14,r14,8
    24d0:	39 29 00 01 	addi    r9,r9,1
    24d4:	80 e1 04 e8 	lwz     r7,1256(r1)
    24d8:	2f 89 00 07 	cmpwi   cr7,r9,7
    24dc:	81 01 04 e0 	lwz     r8,1248(r1)
    24e0:	7d 4a 3a 14 	add     r10,r10,r7
    24e4:	90 ee 00 04 	stw     r7,4(r14)
    24e8:	91 0e 00 00 	stw     r8,0(r14)
    24ec:	91 41 04 a0 	stw     r10,1184(r1)
    24f0:	91 21 04 9c 	stw     r9,1180(r1)
    24f4:	41 9d 08 10 	bgt-    cr7,2d04 <_vfprintf_r+0x1498>
    24f8:	39 ce 00 08 	addi    r14,r14,8
    24fc:	81 1e 80 20 	lwz     r8,-32736(r30)
    2500:	c9 a1 04 f0 	lfd     f13,1264(r1)
    2504:	c0 08 00 00 	lfs     f0,0(r8)
    2508:	ff 8d 00 00 	fcmpu   cr7,f13,f0
    250c:	41 9e 05 2c 	beq-    cr7,2a38 <_vfprintf_r+0x11cc>
    2510:	39 29 00 01 	addi    r9,r9,1
    2514:	80 e1 04 dc 	lwz     r7,1244(r1)
    2518:	2f 89 00 07 	cmpwi   cr7,r9,7
    251c:	3a f7 00 01 	addi    r23,r23,1
    2520:	39 07 ff ff 	addi    r8,r7,-1
    2524:	92 ee 00 00 	stw     r23,0(r14)
    2528:	7d 4a 42 14 	add     r10,r10,r8
    252c:	91 0e 00 04 	stw     r8,4(r14)
    2530:	91 41 04 a0 	stw     r10,1184(r1)
    2534:	91 21 04 9c 	stw     r9,1180(r1)
    2538:	41 9d 02 a4 	bgt-    cr7,27dc <_vfprintf_r+0xf70>
    253c:	39 ce 00 08 	addi    r14,r14,8
    2540:	39 29 00 01 	addi    r9,r9,1
    2544:	80 e1 04 f8 	lwz     r7,1272(r1)
    2548:	2f 89 00 07 	cmpwi   cr7,r9,7
    254c:	39 01 04 ac 	addi    r8,r1,1196
    2550:	7d 4a 3a 14 	add     r10,r10,r7
    2554:	91 0e 00 00 	stw     r8,0(r14)
    2558:	90 ee 00 04 	stw     r7,4(r14)
    255c:	91 41 04 a0 	stw     r10,1184(r1)
    2560:	91 21 04 9c 	stw     r9,1180(r1)
    2564:	40 9d f7 28 	ble+    cr7,1c8c <_vfprintf_r+0x420>
    2568:	7f 83 e3 78 	mr      r3,r28
    256c:	7f e4 fb 78 	mr      r4,r31
    2570:	7f 65 db 78 	mr      r5,r27
    2574:	48 00 5f 29 	bl      849c <__sprint_r>
    2578:	2f 83 00 00 	cmpwi   cr7,r3,0
    257c:	40 be f9 58 	bne-    cr7,1ed4 <_vfprintf_r+0x668>
    2580:	7f 4e d3 78 	mr      r14,r26
    2584:	81 41 04 a0 	lwz     r10,1184(r1)
    2588:	4b ff f7 08 	b       1c90 <_vfprintf_r+0x424>
    258c:	2f 89 00 01 	cmpwi   cr7,r9,1
    2590:	41 9e 03 3c 	beq-    cr7,28cc <_vfprintf_r+0x1060>
    2594:	2f 89 00 02 	cmpwi   cr7,r9,2
    2598:	7f 77 db 78 	mr      r23,r27
    259c:	41 9e 02 fc 	beq-    cr7,2898 <_vfprintf_r+0x102c>
    25a0:	56 08 e8 04 	rlwinm  r8,r16,29,0,2
    25a4:	56 2a e8 fe 	rlwinm  r10,r17,29,3,31
    25a8:	56 07 e8 fe 	rlwinm  r7,r16,29,3,31
    25ac:	56 29 07 7e 	clrlwi  r9,r17,29
    25b0:	7d 11 53 78 	or      r17,r8,r10
    25b4:	39 29 00 30 	addi    r9,r9,48
    25b8:	7c e8 8b 79 	or.     r8,r7,r17
    25bc:	7c f0 3b 78 	mr      r16,r7
    25c0:	9d 37 ff ff 	stbu    r9,-1(r23)
    25c4:	40 82 ff dc 	bne+    25a0 <_vfprintf_r+0xd34>
    25c8:	73 2a 00 01 	andi.   r10,r25,1
    25cc:	7e ea bb 78 	mr      r10,r23
    25d0:	41 82 00 18 	beq-    25e8 <_vfprintf_r+0xd7c>
    25d4:	2f 89 00 30 	cmpwi   cr7,r9,48
    25d8:	41 9e 00 10 	beq-    cr7,25e8 <_vfprintf_r+0xd7c>
    25dc:	39 20 00 30 	li      r9,48
    25e0:	3a f7 ff ff 	addi    r23,r23,-1
    25e4:	99 2a ff ff 	stb     r9,-1(r10)
    25e8:	7e b7 d8 50 	subf    r21,r23,r27
    25ec:	4b ff fa 30 	b       201c <_vfprintf_r+0x7b0>
    25f0:	2f 98 00 65 	cmpwi   cr7,r24,101
    25f4:	40 bd fe a4 	ble-    cr7,2498 <_vfprintf_r+0xc2c>
    25f8:	81 1e 80 20 	lwz     r8,-32736(r30)
    25fc:	c9 a1 04 f0 	lfd     f13,1264(r1)
    2600:	c0 08 00 00 	lfs     f0,0(r8)
    2604:	ff 8d 00 00 	fcmpu   cr7,f13,f0
    2608:	40 9e 03 34 	bne-    cr7,293c <_vfprintf_r+0x10d0>
    260c:	81 21 04 9c 	lwz     r9,1180(r1)
    2610:	39 4a 00 01 	addi    r10,r10,1
    2614:	81 1e 80 28 	lwz     r8,-32728(r30)
    2618:	39 29 00 01 	addi    r9,r9,1
    261c:	2f 89 00 07 	cmpwi   cr7,r9,7
    2620:	91 0e 00 00 	stw     r8,0(r14)
    2624:	39 00 00 01 	li      r8,1
    2628:	91 0e 00 04 	stw     r8,4(r14)
    262c:	91 41 04 a0 	stw     r10,1184(r1)
    2630:	91 21 04 9c 	stw     r9,1180(r1)
    2634:	41 9d 09 9c 	bgt-    cr7,2fd0 <_vfprintf_r+0x1764>
    2638:	39 ce 00 08 	addi    r14,r14,8
    263c:	81 21 04 bc 	lwz     r9,1212(r1)
    2640:	80 e1 04 dc 	lwz     r7,1244(r1)
    2644:	7f 89 38 00 	cmpw    cr7,r9,r7
    2648:	41 9c 00 0c 	blt-    cr7,2654 <_vfprintf_r+0xde8>
    264c:	73 28 00 01 	andi.   r8,r25,1
    2650:	41 a2 f6 40 	beq-    1c90 <_vfprintf_r+0x424>
    2654:	81 21 04 9c 	lwz     r9,1180(r1)
    2658:	80 e1 04 e8 	lwz     r7,1256(r1)
    265c:	39 29 00 01 	addi    r9,r9,1
    2660:	81 01 04 e0 	lwz     r8,1248(r1)
    2664:	2f 89 00 07 	cmpwi   cr7,r9,7
    2668:	7d 4a 3a 14 	add     r10,r10,r7
    266c:	91 0e 00 00 	stw     r8,0(r14)
    2670:	90 ee 00 04 	stw     r7,4(r14)
    2674:	91 41 04 a0 	stw     r10,1184(r1)
    2678:	91 21 04 9c 	stw     r9,1180(r1)
    267c:	41 9d 0d 74 	bgt-    cr7,33f0 <_vfprintf_r+0x1b84>
    2680:	39 ce 00 08 	addi    r14,r14,8
    2684:	81 21 04 dc 	lwz     r9,1244(r1)
    2688:	37 09 ff ff 	addic.  r24,r9,-1
    268c:	40 a1 f6 04 	ble-    1c90 <_vfprintf_r+0x424>
    2690:	2f 98 00 10 	cmpwi   cr7,r24,16
    2694:	81 21 04 9c 	lwz     r9,1180(r1)
    2698:	81 fe 80 2c 	lwz     r15,-32724(r30)
    269c:	3a e0 00 10 	li      r23,16
    26a0:	41 bd 00 18 	bgt+    cr7,26b8 <_vfprintf_r+0xe4c>
    26a4:	48 00 04 b0 	b       2b54 <_vfprintf_r+0x12e8>
    26a8:	39 ce 00 08 	addi    r14,r14,8
    26ac:	3b 18 ff f0 	addi    r24,r24,-16
    26b0:	2f 98 00 10 	cmpwi   cr7,r24,16
    26b4:	40 9d 04 a0 	ble-    cr7,2b54 <_vfprintf_r+0x12e8>
    26b8:	39 29 00 01 	addi    r9,r9,1
    26bc:	39 4a 00 10 	addi    r10,r10,16
    26c0:	2f 89 00 07 	cmpwi   cr7,r9,7
    26c4:	91 ee 00 00 	stw     r15,0(r14)
    26c8:	92 ee 00 04 	stw     r23,4(r14)
    26cc:	91 41 04 a0 	stw     r10,1184(r1)
    26d0:	91 21 04 9c 	stw     r9,1180(r1)
    26d4:	40 9d ff d4 	ble+    cr7,26a8 <_vfprintf_r+0xe3c>
    26d8:	7f 83 e3 78 	mr      r3,r28
    26dc:	7f e4 fb 78 	mr      r4,r31
    26e0:	7f 65 db 78 	mr      r5,r27
    26e4:	48 00 5d b9 	bl      849c <__sprint_r>
    26e8:	2f 83 00 00 	cmpwi   cr7,r3,0
    26ec:	40 be f7 e8 	bne-    cr7,1ed4 <_vfprintf_r+0x668>
    26f0:	81 41 04 a0 	lwz     r10,1184(r1)
    26f4:	7f 4e d3 78 	mr      r14,r26
    26f8:	81 21 04 9c 	lwz     r9,1180(r1)
    26fc:	4b ff ff b0 	b       26ac <_vfprintf_r+0xe40>
    2700:	81 21 04 cc 	lwz     r9,1228(r1)
    2704:	7e 56 48 51 	subf.   r18,r22,r9
    2708:	40 a1 f4 b0 	ble-    1bb8 <_vfprintf_r+0x34c>
    270c:	2f 92 00 10 	cmpwi   cr7,r18,16
    2710:	81 21 04 9c 	lwz     r9,1180(r1)
    2714:	81 fe 80 2c 	lwz     r15,-32724(r30)
    2718:	3a 60 00 10 	li      r19,16
    271c:	41 bd 00 18 	bgt+    cr7,2734 <_vfprintf_r+0xec8>
    2720:	48 00 00 64 	b       2784 <_vfprintf_r+0xf18>
    2724:	3a 52 ff f0 	addi    r18,r18,-16
    2728:	39 ce 00 08 	addi    r14,r14,8
    272c:	2f 92 00 10 	cmpwi   cr7,r18,16
    2730:	40 9d 00 54 	ble-    cr7,2784 <_vfprintf_r+0xf18>
    2734:	39 29 00 01 	addi    r9,r9,1
    2738:	39 4a 00 10 	addi    r10,r10,16
    273c:	2f 89 00 07 	cmpwi   cr7,r9,7
    2740:	91 ee 00 00 	stw     r15,0(r14)
    2744:	92 6e 00 04 	stw     r19,4(r14)
    2748:	91 41 04 a0 	stw     r10,1184(r1)
    274c:	91 21 04 9c 	stw     r9,1180(r1)
    2750:	40 9d ff d4 	ble+    cr7,2724 <_vfprintf_r+0xeb8>
    2754:	7f 83 e3 78 	mr      r3,r28
    2758:	7f e4 fb 78 	mr      r4,r31
    275c:	7f 65 db 78 	mr      r5,r27
    2760:	48 00 5d 3d 	bl      849c <__sprint_r>
    2764:	2f 83 00 00 	cmpwi   cr7,r3,0
    2768:	40 be f7 6c 	bne-    cr7,1ed4 <_vfprintf_r+0x668>
    276c:	3a 52 ff f0 	addi    r18,r18,-16
    2770:	81 41 04 a0 	lwz     r10,1184(r1)
    2774:	2f 92 00 10 	cmpwi   cr7,r18,16
    2778:	81 21 04 9c 	lwz     r9,1180(r1)
    277c:	7f 4e d3 78 	mr      r14,r26
    2780:	41 9d ff b4 	bgt+    cr7,2734 <_vfprintf_r+0xec8>
    2784:	39 29 00 01 	addi    r9,r9,1
    2788:	7d 4a 92 14 	add     r10,r10,r18
    278c:	2f 89 00 07 	cmpwi   cr7,r9,7
    2790:	91 ee 00 00 	stw     r15,0(r14)
    2794:	92 4e 00 04 	stw     r18,4(r14)
    2798:	91 41 04 a0 	stw     r10,1184(r1)
    279c:	91 21 04 9c 	stw     r9,1180(r1)
    27a0:	41 9d 05 8c 	bgt-    cr7,2d2c <_vfprintf_r+0x14c0>
    27a4:	39 ce 00 08 	addi    r14,r14,8
    27a8:	4b ff f4 10 	b       1bb8 <_vfprintf_r+0x34c>
    27ac:	73 29 00 01 	andi.   r9,r25,1
    27b0:	40 a2 fc f4 	bne-    24a4 <_vfprintf_r+0xc38>
    27b4:	81 21 04 9c 	lwz     r9,1180(r1)
    27b8:	39 4a 00 01 	addi    r10,r10,1
    27bc:	39 00 00 01 	li      r8,1
    27c0:	92 ee 00 00 	stw     r23,0(r14)
    27c4:	39 29 00 01 	addi    r9,r9,1
    27c8:	91 0e 00 04 	stw     r8,4(r14)
    27cc:	2f 89 00 07 	cmpwi   cr7,r9,7
    27d0:	91 41 04 a0 	stw     r10,1184(r1)
    27d4:	91 21 04 9c 	stw     r9,1180(r1)
    27d8:	40 9d fd 64 	ble+    cr7,253c <_vfprintf_r+0xcd0>
    27dc:	7f 83 e3 78 	mr      r3,r28
    27e0:	7f e4 fb 78 	mr      r4,r31
    27e4:	7f 65 db 78 	mr      r5,r27
    27e8:	48 00 5c b5 	bl      849c <__sprint_r>
    27ec:	2f 83 00 00 	cmpwi   cr7,r3,0
    27f0:	40 be f6 e4 	bne-    cr7,1ed4 <_vfprintf_r+0x668>
    27f4:	7f 4e d3 78 	mr      r14,r26
    27f8:	81 41 04 a0 	lwz     r10,1184(r1)
    27fc:	81 21 04 9c 	lwz     r9,1180(r1)
    2800:	4b ff fd 40 	b       2540 <_vfprintf_r+0xcd4>
    2804:	7f 83 e3 78 	mr      r3,r28
    2808:	7f e4 fb 78 	mr      r4,r31
    280c:	7f 65 db 78 	mr      r5,r27
    2810:	48 00 5c 8d 	bl      849c <__sprint_r>
    2814:	2f 83 00 00 	cmpwi   cr7,r3,0
    2818:	41 9e f5 64 	beq+    cr7,1d7c <_vfprintf_r+0x510>
    281c:	4b ff f6 b8 	b       1ed4 <_vfprintf_r+0x668>
    2820:	7f 83 e3 78 	mr      r3,r28
    2824:	7f e4 fb 78 	mr      r4,r31
    2828:	7f 65 db 78 	mr      r5,r27
    282c:	48 00 5c 71 	bl      849c <__sprint_r>
    2830:	2f 83 00 00 	cmpwi   cr7,r3,0
    2834:	40 be f6 a0 	bne-    cr7,1ed4 <_vfprintf_r+0x668>
    2838:	81 41 04 a0 	lwz     r10,1184(r1)
    283c:	7f 4e d3 78 	mr      r14,r26
    2840:	4b ff f4 20 	b       1c60 <_vfprintf_r+0x3f4>
    2844:	7f 83 e3 78 	mr      r3,r28
    2848:	7f e4 fb 78 	mr      r4,r31
    284c:	7f 65 db 78 	mr      r5,r27
    2850:	48 00 5c 4d 	bl      849c <__sprint_r>
    2854:	2f 83 00 00 	cmpwi   cr7,r3,0
    2858:	40 be f6 7c 	bne-    cr7,1ed4 <_vfprintf_r+0x668>
    285c:	81 41 04 a0 	lwz     r10,1184(r1)
    2860:	7f 4e d3 78 	mr      r14,r26
    2864:	4b ff f3 14 	b       1b78 <_vfprintf_r+0x30c>
    2868:	7f 83 e3 78 	mr      r3,r28
    286c:	7f e4 fb 78 	mr      r4,r31
    2870:	7f 65 db 78 	mr      r5,r27
    2874:	48 00 5c 29 	bl      849c <__sprint_r>
    2878:	2f 83 00 00 	cmpwi   cr7,r3,0
    287c:	40 be f6 58 	bne-    cr7,1ed4 <_vfprintf_r+0x668>
    2880:	81 41 04 a0 	lwz     r10,1184(r1)
    2884:	7f 4e d3 78 	mr      r14,r26
    2888:	4b ff f3 24 	b       1bac <_vfprintf_r+0x340>
    288c:	3a a0 00 00 	li      r21,0
    2890:	7f 77 db 78 	mr      r23,r27
    2894:	4b ff f7 88 	b       201c <_vfprintf_r+0x7b0>
    2898:	80 c1 04 ec 	lwz     r6,1260(r1)
    289c:	56 08 e0 06 	rlwinm  r8,r16,28,0,3
    28a0:	56 2a e1 3e 	rlwinm  r10,r17,28,4,31
    28a4:	56 07 e1 3e 	rlwinm  r7,r16,28,4,31
    28a8:	56 29 07 3e 	clrlwi  r9,r17,28
    28ac:	7d 11 53 78 	or      r17,r8,r10
    28b0:	7d 26 48 ae 	lbzx    r9,r6,r9
    28b4:	7c e8 8b 79 	or.     r8,r7,r17
    28b8:	7c f0 3b 78 	mr      r16,r7
    28bc:	9d 37 ff ff 	stbu    r9,-1(r23)
    28c0:	40 82 ff dc 	bne+    289c <_vfprintf_r+0x1030>
    28c4:	7e b7 d8 50 	subf    r21,r23,r27
    28c8:	4b ff f7 54 	b       201c <_vfprintf_r+0x7b0>
    28cc:	2f 90 00 00 	cmpwi   cr7,r16,0
    28d0:	40 9e 00 0c 	bne-    cr7,28dc <_vfprintf_r+0x1070>
    28d4:	2b 91 00 09 	cmplwi  cr7,r17,9
    28d8:	40 9d 00 50 	ble-    cr7,2928 <_vfprintf_r+0x10bc>
    28dc:	7f 77 db 78 	mr      r23,r27
    28e0:	7e 03 83 78 	mr      r3,r16
    28e4:	7e 24 8b 78 	mr      r4,r17
    28e8:	38 a0 00 00 	li      r5,0
    28ec:	38 c0 00 0a 	li      r6,10
    28f0:	48 00 91 99 	bl      ba88 <__umoddi3>
    28f4:	7e 03 83 78 	mr      r3,r16
    28f8:	38 84 00 30 	addi    r4,r4,48
    28fc:	38 a0 00 00 	li      r5,0
    2900:	9c 97 ff ff 	stbu    r4,-1(r23)
    2904:	38 c0 00 0a 	li      r6,10
    2908:	7e 24 8b 78 	mr      r4,r17
    290c:	48 00 8d 79 	bl      b684 <__udivdi3>
    2910:	7c 70 1b 78 	mr      r16,r3
    2914:	7c 91 23 78 	mr      r17,r4
    2918:	7e 07 23 79 	or.     r7,r16,r4
    291c:	40 82 ff c4 	bne+    28e0 <_vfprintf_r+0x1074>
    2920:	7e b7 d8 50 	subf    r21,r23,r27
    2924:	4b ff f6 f8 	b       201c <_vfprintf_r+0x7b0>
    2928:	39 31 00 30 	addi    r9,r17,48
    292c:	82 a1 04 fc 	lwz     r21,1276(r1)
    2930:	99 21 04 97 	stb     r9,1175(r1)
    2934:	3a e1 04 97 	addi    r23,r1,1175
    2938:	4b ff f6 e4 	b       201c <_vfprintf_r+0x7b0>
    293c:	83 01 04 bc 	lwz     r24,1212(r1)
    2940:	2f 98 00 00 	cmpwi   cr7,r24,0
    2944:	40 9d 06 b0 	ble-    cr7,2ff4 <_vfprintf_r+0x1788>
    2948:	81 01 04 dc 	lwz     r8,1244(r1)
    294c:	81 21 04 e4 	lwz     r9,1252(r1)
    2950:	7f 17 42 14 	add     r24,r23,r8
    2954:	7e b7 c0 50 	subf    r21,r23,r24
    2958:	7f 95 48 00 	cmpw    cr7,r21,r9
    295c:	40 9d 00 08 	ble-    cr7,2964 <_vfprintf_r+0x10f8>
    2960:	7d 35 4b 78 	mr      r21,r9
    2964:	2e 15 00 00 	cmpwi   cr4,r21,0
    2968:	40 91 00 2c 	ble-    cr4,2994 <_vfprintf_r+0x1128>
    296c:	81 21 04 9c 	lwz     r9,1180(r1)
    2970:	7d 4a aa 14 	add     r10,r10,r21
    2974:	92 ee 00 00 	stw     r23,0(r14)
    2978:	39 29 00 01 	addi    r9,r9,1
    297c:	92 ae 00 04 	stw     r21,4(r14)
    2980:	2f 89 00 07 	cmpwi   cr7,r9,7
    2984:	91 41 04 a0 	stw     r10,1184(r1)
    2988:	91 21 04 9c 	stw     r9,1180(r1)
    298c:	41 9d 0b 10 	bgt-    cr7,349c <_vfprintf_r+0x1c30>
    2990:	39 ce 00 08 	addi    r14,r14,8
    2994:	41 90 0b 00 	blt-    cr4,3494 <_vfprintf_r+0x1c28>
    2998:	80 e1 04 e4 	lwz     r7,1252(r1)
    299c:	7e b5 38 51 	subf.   r21,r21,r7
    29a0:	40 81 01 f8 	ble-    2b98 <_vfprintf_r+0x132c>
    29a4:	2f 95 00 10 	cmpwi   cr7,r21,16
    29a8:	81 21 04 9c 	lwz     r9,1180(r1)
    29ac:	81 fe 80 2c 	lwz     r15,-32724(r30)
    29b0:	3a 60 00 10 	li      r19,16
    29b4:	41 bd 00 18 	bgt+    cr7,29cc <_vfprintf_r+0x1160>
    29b8:	48 00 05 f0 	b       2fa8 <_vfprintf_r+0x173c>
    29bc:	39 ce 00 08 	addi    r14,r14,8
    29c0:	3a b5 ff f0 	addi    r21,r21,-16
    29c4:	2f 95 00 10 	cmpwi   cr7,r21,16
    29c8:	40 9d 05 e0 	ble-    cr7,2fa8 <_vfprintf_r+0x173c>
    29cc:	39 29 00 01 	addi    r9,r9,1
    29d0:	39 4a 00 10 	addi    r10,r10,16
    29d4:	2f 89 00 07 	cmpwi   cr7,r9,7
    29d8:	91 ee 00 00 	stw     r15,0(r14)
    29dc:	92 6e 00 04 	stw     r19,4(r14)
    29e0:	91 41 04 a0 	stw     r10,1184(r1)
    29e4:	91 21 04 9c 	stw     r9,1180(r1)
    29e8:	40 9d ff d4 	ble+    cr7,29bc <_vfprintf_r+0x1150>
    29ec:	7f 83 e3 78 	mr      r3,r28
    29f0:	7f e4 fb 78 	mr      r4,r31
    29f4:	7f 65 db 78 	mr      r5,r27
    29f8:	48 00 5a a5 	bl      849c <__sprint_r>
    29fc:	2f 83 00 00 	cmpwi   cr7,r3,0
    2a00:	40 be f4 d4 	bne-    cr7,1ed4 <_vfprintf_r+0x668>
    2a04:	81 41 04 a0 	lwz     r10,1184(r1)
    2a08:	7f 4e d3 78 	mr      r14,r26
    2a0c:	81 21 04 9c 	lwz     r9,1180(r1)
    2a10:	4b ff ff b0 	b       29c0 <_vfprintf_r+0x1154>
    2a14:	7f 83 e3 78 	mr      r3,r28
    2a18:	7f e4 fb 78 	mr      r4,r31
    2a1c:	7f 65 db 78 	mr      r5,r27
    2a20:	48 00 5a 7d 	bl      849c <__sprint_r>
    2a24:	2f 83 00 00 	cmpwi   cr7,r3,0
    2a28:	40 be f4 ac 	bne-    cr7,1ed4 <_vfprintf_r+0x668>
    2a2c:	81 41 04 a0 	lwz     r10,1184(r1)
    2a30:	7f 4e d3 78 	mr      r14,r26
    2a34:	4b ff fa 24 	b       2458 <_vfprintf_r+0xbec>
    2a38:	81 01 04 dc 	lwz     r8,1244(r1)
    2a3c:	37 08 ff ff 	addic.  r24,r8,-1
    2a40:	40 a1 fb 00 	ble-    2540 <_vfprintf_r+0xcd4>
    2a44:	2f 98 00 10 	cmpwi   cr7,r24,16
    2a48:	81 fe 80 2c 	lwz     r15,-32724(r30)
    2a4c:	3a e0 00 10 	li      r23,16
    2a50:	41 bd 00 18 	bgt+    cr7,2a68 <_vfprintf_r+0x11fc>
    2a54:	48 00 02 8c 	b       2ce0 <_vfprintf_r+0x1474>
    2a58:	39 ce 00 08 	addi    r14,r14,8
    2a5c:	3b 18 ff f0 	addi    r24,r24,-16
    2a60:	2f 98 00 10 	cmpwi   cr7,r24,16
    2a64:	40 9d 02 7c 	ble-    cr7,2ce0 <_vfprintf_r+0x1474>
    2a68:	39 29 00 01 	addi    r9,r9,1
    2a6c:	39 4a 00 10 	addi    r10,r10,16
    2a70:	2f 89 00 07 	cmpwi   cr7,r9,7
    2a74:	91 ee 00 00 	stw     r15,0(r14)
    2a78:	92 ee 00 04 	stw     r23,4(r14)
    2a7c:	91 41 04 a0 	stw     r10,1184(r1)
    2a80:	91 21 04 9c 	stw     r9,1180(r1)
    2a84:	40 9d ff d4 	ble+    cr7,2a58 <_vfprintf_r+0x11ec>
    2a88:	7f 83 e3 78 	mr      r3,r28
    2a8c:	7f e4 fb 78 	mr      r4,r31
    2a90:	7f 65 db 78 	mr      r5,r27
    2a94:	48 00 5a 09 	bl      849c <__sprint_r>
    2a98:	2f 83 00 00 	cmpwi   cr7,r3,0
    2a9c:	40 be f4 38 	bne-    cr7,1ed4 <_vfprintf_r+0x668>
    2aa0:	81 41 04 a0 	lwz     r10,1184(r1)
    2aa4:	7f 4e d3 78 	mr      r14,r26
    2aa8:	81 21 04 9c 	lwz     r9,1180(r1)
    2aac:	4b ff ff b0 	b       2a5c <_vfprintf_r+0x11f0>
    2ab0:	73 28 00 10 	andi.   r8,r25,16
    2ab4:	41 82 03 2c 	beq-    2de0 <_vfprintf_r+0x1574>
    2ab8:	89 34 00 00 	lbz     r9,0(r20)
    2abc:	2b 89 00 08 	cmplwi  cr7,r9,8
    2ac0:	40 9c 07 34 	bge-    cr7,31f4 <_vfprintf_r+0x1988>
    2ac4:	55 28 10 3a 	rlwinm  r8,r9,2,0,29
    2ac8:	81 54 00 08 	lwz     r10,8(r20)
    2acc:	39 29 00 01 	addi    r9,r9,1
    2ad0:	99 34 00 00 	stb     r9,0(r20)
    2ad4:	7d 4a 42 14 	add     r10,r10,r8
    2ad8:	82 2a 00 00 	lwz     r17,0(r10)
    2adc:	39 20 00 00 	li      r9,0
    2ae0:	3a 00 00 00 	li      r16,0
    2ae4:	4b ff f5 fc 	b       20e0 <_vfprintf_r+0x874>
    2ae8:	73 29 00 10 	andi.   r9,r25,16
    2aec:	41 82 03 b0 	beq-    2e9c <_vfprintf_r+0x1630>
    2af0:	89 34 00 00 	lbz     r9,0(r20)
    2af4:	2b 89 00 08 	cmplwi  cr7,r9,8
    2af8:	40 9c 06 c4 	bge-    cr7,31bc <_vfprintf_r+0x1950>
    2afc:	55 28 10 3a 	rlwinm  r8,r9,2,0,29
    2b00:	81 54 00 08 	lwz     r10,8(r20)
    2b04:	39 29 00 01 	addi    r9,r9,1
    2b08:	99 34 00 00 	stb     r9,0(r20)
    2b0c:	7d 4a 42 14 	add     r10,r10,r8
    2b10:	82 2a 00 00 	lwz     r17,0(r10)
    2b14:	39 20 00 01 	li      r9,1
    2b18:	3a 00 00 00 	li      r16,0
    2b1c:	4b ff f5 c4 	b       20e0 <_vfprintf_r+0x874>
    2b20:	73 27 00 10 	andi.   r7,r25,16
    2b24:	41 82 04 4c 	beq-    2f70 <_vfprintf_r+0x1704>
    2b28:	89 34 00 00 	lbz     r9,0(r20)
    2b2c:	2b 89 00 08 	cmplwi  cr7,r9,8
    2b30:	40 9c 06 7c 	bge-    cr7,31ac <_vfprintf_r+0x1940>
    2b34:	55 28 10 3a 	rlwinm  r8,r9,2,0,29
    2b38:	81 54 00 08 	lwz     r10,8(r20)
    2b3c:	39 29 00 01 	addi    r9,r9,1
    2b40:	99 34 00 00 	stb     r9,0(r20)
    2b44:	7d 4a 42 14 	add     r10,r10,r8
    2b48:	82 2a 00 00 	lwz     r17,0(r10)
    2b4c:	7e 30 fe 70 	srawi   r16,r17,31
    2b50:	4b ff f4 78 	b       1fc8 <_vfprintf_r+0x75c>
    2b54:	39 29 00 01 	addi    r9,r9,1
    2b58:	7d 4a c2 14 	add     r10,r10,r24
    2b5c:	2f 89 00 07 	cmpwi   cr7,r9,7
    2b60:	91 ee 00 00 	stw     r15,0(r14)
    2b64:	93 0e 00 04 	stw     r24,4(r14)
    2b68:	91 41 04 a0 	stw     r10,1184(r1)
    2b6c:	91 21 04 9c 	stw     r9,1180(r1)
    2b70:	40 9d f1 1c 	ble+    cr7,1c8c <_vfprintf_r+0x420>
    2b74:	4b ff f9 f4 	b       2568 <_vfprintf_r+0xcfc>
    2b78:	7f 83 e3 78 	mr      r3,r28
    2b7c:	7f e4 fb 78 	mr      r4,r31
    2b80:	7f 65 db 78 	mr      r5,r27
    2b84:	48 00 59 19 	bl      849c <__sprint_r>
    2b88:	2f 83 00 00 	cmpwi   cr7,r3,0
    2b8c:	40 be f3 48 	bne-    cr7,1ed4 <_vfprintf_r+0x668>
    2b90:	81 41 04 a0 	lwz     r10,1184(r1)
    2b94:	7f 4e d3 78 	mr      r14,r26
    2b98:	81 01 04 bc 	lwz     r8,1212(r1)
    2b9c:	80 e1 04 dc 	lwz     r7,1244(r1)
    2ba0:	81 21 04 e4 	lwz     r9,1252(r1)
    2ba4:	7f 88 38 00 	cmpw    cr7,r8,r7
    2ba8:	7e f7 4a 14 	add     r23,r23,r9
    2bac:	41 9c 00 d4 	blt-    cr7,2c80 <_vfprintf_r+0x1414>
    2bb0:	73 29 00 01 	andi.   r9,r25,1
    2bb4:	40 82 00 cc 	bne-    2c80 <_vfprintf_r+0x1414>
    2bb8:	81 21 04 dc 	lwz     r9,1244(r1)
    2bbc:	7d 08 48 50 	subf    r8,r8,r9
    2bc0:	7d 37 c0 50 	subf    r9,r23,r24
    2bc4:	7f 88 48 00 	cmpw    cr7,r8,r9
    2bc8:	7d 18 43 78 	mr      r24,r8
    2bcc:	40 9d 00 08 	ble-    cr7,2bd4 <_vfprintf_r+0x1368>
    2bd0:	7d 38 4b 78 	mr      r24,r9
    2bd4:	2e 18 00 00 	cmpwi   cr4,r24,0
    2bd8:	40 91 00 2c 	ble-    cr4,2c04 <_vfprintf_r+0x1398>
    2bdc:	81 21 04 9c 	lwz     r9,1180(r1)
    2be0:	7d 4a c2 14 	add     r10,r10,r24
    2be4:	92 ee 00 00 	stw     r23,0(r14)
    2be8:	39 29 00 01 	addi    r9,r9,1
    2bec:	93 0e 00 04 	stw     r24,4(r14)
    2bf0:	2f 89 00 07 	cmpwi   cr7,r9,7
    2bf4:	91 41 04 a0 	stw     r10,1184(r1)
    2bf8:	91 21 04 9c 	stw     r9,1180(r1)
    2bfc:	41 9d 09 50 	bgt-    cr7,354c <_vfprintf_r+0x1ce0>
    2c00:	39 ce 00 08 	addi    r14,r14,8
    2c04:	41 90 09 40 	blt-    cr4,3544 <_vfprintf_r+0x1cd8>
    2c08:	7f 18 40 51 	subf.   r24,r24,r8
    2c0c:	40 a1 f0 84 	ble-    1c90 <_vfprintf_r+0x424>
    2c10:	2f 98 00 10 	cmpwi   cr7,r24,16
    2c14:	81 21 04 9c 	lwz     r9,1180(r1)
    2c18:	81 fe 80 2c 	lwz     r15,-32724(r30)
    2c1c:	3a e0 00 10 	li      r23,16
    2c20:	41 bd 00 18 	bgt+    cr7,2c38 <_vfprintf_r+0x13cc>
    2c24:	4b ff ff 30 	b       2b54 <_vfprintf_r+0x12e8>
    2c28:	39 ce 00 08 	addi    r14,r14,8
    2c2c:	3b 18 ff f0 	addi    r24,r24,-16
    2c30:	2f 98 00 10 	cmpwi   cr7,r24,16
    2c34:	40 bd ff 20 	ble-    cr7,2b54 <_vfprintf_r+0x12e8>
    2c38:	39 29 00 01 	addi    r9,r9,1
    2c3c:	39 4a 00 10 	addi    r10,r10,16
    2c40:	2f 89 00 07 	cmpwi   cr7,r9,7
    2c44:	91 ee 00 00 	stw     r15,0(r14)
    2c48:	92 ee 00 04 	stw     r23,4(r14)
    2c4c:	91 41 04 a0 	stw     r10,1184(r1)
    2c50:	91 21 04 9c 	stw     r9,1180(r1)
    2c54:	40 9d ff d4 	ble+    cr7,2c28 <_vfprintf_r+0x13bc>
    2c58:	7f 83 e3 78 	mr      r3,r28
    2c5c:	7f e4 fb 78 	mr      r4,r31
    2c60:	7f 65 db 78 	mr      r5,r27
    2c64:	48 00 58 39 	bl      849c <__sprint_r>
    2c68:	2f 83 00 00 	cmpwi   cr7,r3,0
    2c6c:	40 be f2 68 	bne-    cr7,1ed4 <_vfprintf_r+0x668>
    2c70:	81 41 04 a0 	lwz     r10,1184(r1)
    2c74:	7f 4e d3 78 	mr      r14,r26
    2c78:	81 21 04 9c 	lwz     r9,1180(r1)
    2c7c:	4b ff ff b0 	b       2c2c <_vfprintf_r+0x13c0>
    2c80:	81 21 04 9c 	lwz     r9,1180(r1)
    2c84:	80 e1 04 e8 	lwz     r7,1256(r1)
    2c88:	39 29 00 01 	addi    r9,r9,1
    2c8c:	7d 4a 3a 14 	add     r10,r10,r7
    2c90:	2f 89 00 07 	cmpwi   cr7,r9,7
    2c94:	80 e1 04 e0 	lwz     r7,1248(r1)
    2c98:	90 ee 00 00 	stw     r7,0(r14)
    2c9c:	80 e1 04 e8 	lwz     r7,1256(r1)
    2ca0:	90 ee 00 04 	stw     r7,4(r14)
    2ca4:	91 41 04 a0 	stw     r10,1184(r1)
    2ca8:	91 21 04 9c 	stw     r9,1180(r1)
    2cac:	41 9d 08 3c 	bgt-    cr7,34e8 <_vfprintf_r+0x1c7c>
    2cb0:	39 ce 00 08 	addi    r14,r14,8
    2cb4:	4b ff ff 04 	b       2bb8 <_vfprintf_r+0x134c>
    2cb8:	7f 83 e3 78 	mr      r3,r28
    2cbc:	7f e4 fb 78 	mr      r4,r31
    2cc0:	7f 65 db 78 	mr      r5,r27
    2cc4:	48 00 57 d9 	bl      849c <__sprint_r>
    2cc8:	2f 83 00 00 	cmpwi   cr7,r3,0
    2ccc:	40 be f2 08 	bne-    cr7,1ed4 <_vfprintf_r+0x668>
    2cd0:	81 41 04 a0 	lwz     r10,1184(r1)
    2cd4:	7f 4e d3 78 	mr      r14,r26
    2cd8:	81 21 04 9c 	lwz     r9,1180(r1)
    2cdc:	4b ff f7 f4 	b       24d0 <_vfprintf_r+0xc64>
    2ce0:	39 29 00 01 	addi    r9,r9,1
    2ce4:	7d 4a c2 14 	add     r10,r10,r24
    2ce8:	2f 89 00 07 	cmpwi   cr7,r9,7
    2cec:	91 ee 00 00 	stw     r15,0(r14)
    2cf0:	93 0e 00 04 	stw     r24,4(r14)
    2cf4:	91 41 04 a0 	stw     r10,1184(r1)
    2cf8:	91 21 04 9c 	stw     r9,1180(r1)
    2cfc:	40 9d f8 40 	ble+    cr7,253c <_vfprintf_r+0xcd0>
    2d00:	4b ff fa dc 	b       27dc <_vfprintf_r+0xf70>
    2d04:	7f 83 e3 78 	mr      r3,r28
    2d08:	7f e4 fb 78 	mr      r4,r31
    2d0c:	7f 65 db 78 	mr      r5,r27
    2d10:	48 00 57 8d 	bl      849c <__sprint_r>
    2d14:	2f 83 00 00 	cmpwi   cr7,r3,0
    2d18:	40 be f1 bc 	bne-    cr7,1ed4 <_vfprintf_r+0x668>
    2d1c:	81 41 04 a0 	lwz     r10,1184(r1)
    2d20:	7f 4e d3 78 	mr      r14,r26
    2d24:	81 21 04 9c 	lwz     r9,1180(r1)
    2d28:	4b ff f7 d4 	b       24fc <_vfprintf_r+0xc90>
    2d2c:	7f 83 e3 78 	mr      r3,r28
    2d30:	7f e4 fb 78 	mr      r4,r31
    2d34:	7f 65 db 78 	mr      r5,r27
    2d38:	48 00 57 65 	bl      849c <__sprint_r>
    2d3c:	2f 83 00 00 	cmpwi   cr7,r3,0
    2d40:	40 be f1 94 	bne-    cr7,1ed4 <_vfprintf_r+0x668>
    2d44:	81 41 04 a0 	lwz     r10,1184(r1)
    2d48:	7f 4e d3 78 	mr      r14,r26
    2d4c:	4b ff ee 6c 	b       1bb8 <_vfprintf_r+0x34c>
    2d50:	73 28 00 10 	andi.   r8,r25,16
    2d54:	89 54 00 00 	lbz     r10,0(r20)
    2d58:	2b 8a 00 08 	cmplwi  cr7,r10,8
    2d5c:	40 82 00 34 	bne-    2d90 <_vfprintf_r+0x1524>
    2d60:	73 27 00 40 	andi.   r7,r25,64
    2d64:	41 82 00 2c 	beq-    2d90 <_vfprintf_r+0x1524>
    2d68:	40 9c 0a 54 	bge-    cr7,37bc <_vfprintf_r+0x1f50>
    2d6c:	55 48 10 3a 	rlwinm  r8,r10,2,0,29
    2d70:	81 34 00 08 	lwz     r9,8(r20)
    2d74:	39 4a 00 01 	addi    r10,r10,1
    2d78:	99 54 00 00 	stb     r10,0(r20)
    2d7c:	7d 29 42 14 	add     r9,r9,r8
    2d80:	81 29 00 00 	lwz     r9,0(r9)
    2d84:	81 41 04 d0 	lwz     r10,1232(r1)
    2d88:	b1 49 00 00 	sth     r10,0(r9)
    2d8c:	4b ff ec 2c 	b       19b8 <_vfprintf_r+0x14c>
    2d90:	40 9c 04 98 	bge-    cr7,3228 <_vfprintf_r+0x19bc>
    2d94:	55 48 10 3a 	rlwinm  r8,r10,2,0,29
    2d98:	81 34 00 08 	lwz     r9,8(r20)
    2d9c:	39 4a 00 01 	addi    r10,r10,1
    2da0:	99 54 00 00 	stb     r10,0(r20)
    2da4:	7d 29 42 14 	add     r9,r9,r8
    2da8:	81 29 00 00 	lwz     r9,0(r9)
    2dac:	81 41 04 d0 	lwz     r10,1232(r1)
    2db0:	91 49 00 00 	stw     r10,0(r9)
    2db4:	4b ff ec 04 	b       19b8 <_vfprintf_r+0x14c>
    2db8:	81 54 00 04 	lwz     r10,4(r20)
    2dbc:	39 2a 00 04 	addi    r9,r10,4
    2dc0:	91 34 00 04 	stw     r9,4(r20)
    2dc4:	4b ff f4 d4 	b       2298 <_vfprintf_r+0xa2c>
    2dc8:	81 34 00 04 	lwz     r9,4(r20)
    2dcc:	39 29 00 07 	addi    r9,r9,7
    2dd0:	55 2a 00 38 	rlwinm  r10,r9,0,0,28
    2dd4:	39 2a 00 08 	addi    r9,r10,8
    2dd8:	91 34 00 04 	stw     r9,4(r20)
    2ddc:	4b ff f3 50 	b       212c <_vfprintf_r+0x8c0>
    2de0:	73 29 00 40 	andi.   r9,r25,64
    2de4:	89 54 00 00 	lbz     r10,0(r20)
    2de8:	2b 8a 00 08 	cmplwi  cr7,r10,8
    2dec:	41 82 03 e0 	beq-    31cc <_vfprintf_r+0x1960>
    2df0:	40 9c 07 ac 	bge-    cr7,359c <_vfprintf_r+0x1d30>
    2df4:	55 48 10 3a 	rlwinm  r8,r10,2,0,29
    2df8:	81 34 00 08 	lwz     r9,8(r20)
    2dfc:	39 4a 00 01 	addi    r10,r10,1
    2e00:	99 54 00 00 	stb     r10,0(r20)
    2e04:	7d 29 42 14 	add     r9,r9,r8
    2e08:	a2 29 00 02 	lhz     r17,2(r9)
    2e0c:	3a 00 00 00 	li      r16,0
    2e10:	39 20 00 00 	li      r9,0
    2e14:	4b ff f2 cc 	b       20e0 <_vfprintf_r+0x874>
    2e18:	81 34 00 04 	lwz     r9,4(r20)
    2e1c:	39 29 00 07 	addi    r9,r9,7
    2e20:	55 2a 00 38 	rlwinm  r10,r9,0,0,28
    2e24:	39 2a 00 08 	addi    r9,r10,8
    2e28:	91 34 00 04 	stw     r9,4(r20)
    2e2c:	4b ff f2 a8 	b       20d4 <_vfprintf_r+0x868>
    2e30:	73 27 00 40 	andi.   r7,r25,64
    2e34:	89 54 00 00 	lbz     r10,0(r20)
    2e38:	2b 8a 00 08 	cmplwi  cr7,r10,8
    2e3c:	41 82 03 3c 	beq-    3178 <_vfprintf_r+0x190c>
    2e40:	40 9c 07 4c 	bge-    cr7,358c <_vfprintf_r+0x1d20>
    2e44:	55 48 10 3a 	rlwinm  r8,r10,2,0,29
    2e48:	81 34 00 08 	lwz     r9,8(r20)
    2e4c:	39 4a 00 01 	addi    r10,r10,1
    2e50:	99 54 00 00 	stb     r10,0(r20)
    2e54:	7d 29 42 14 	add     r9,r9,r8
    2e58:	a2 29 00 02 	lhz     r17,2(r9)
    2e5c:	3a 00 00 00 	li      r16,0
    2e60:	4b ff f3 28 	b       2188 <_vfprintf_r+0x91c>
    2e64:	81 54 00 04 	lwz     r10,4(r20)
    2e68:	39 2a 00 04 	addi    r9,r10,4
    2e6c:	91 34 00 04 	stw     r9,4(r20)
    2e70:	4b ff f3 60 	b       21d0 <_vfprintf_r+0x964>
    2e74:	81 54 00 04 	lwz     r10,4(r20)
    2e78:	39 2a 00 04 	addi    r9,r10,4
    2e7c:	91 34 00 04 	stw     r9,4(r20)
    2e80:	4b ff f5 1c 	b       239c <_vfprintf_r+0xb30>
    2e84:	81 34 00 04 	lwz     r9,4(r20)
    2e88:	39 29 00 07 	addi    r9,r9,7
    2e8c:	55 2a 00 38 	rlwinm  r10,r9,0,0,28
    2e90:	39 2a 00 08 	addi    r9,r10,8
    2e94:	91 34 00 04 	stw     r9,4(r20)
    2e98:	4b ff f1 28 	b       1fc0 <_vfprintf_r+0x754>
    2e9c:	73 2a 00 40 	andi.   r10,r25,64
    2ea0:	89 54 00 00 	lbz     r10,0(r20)
    2ea4:	2b 8a 00 08 	cmplwi  cr7,r10,8
    2ea8:	41 82 02 80 	beq-    3128 <_vfprintf_r+0x18bc>
    2eac:	40 9c 06 d0 	bge-    cr7,357c <_vfprintf_r+0x1d10>
    2eb0:	55 48 10 3a 	rlwinm  r8,r10,2,0,29
    2eb4:	81 34 00 08 	lwz     r9,8(r20)
    2eb8:	39 4a 00 01 	addi    r10,r10,1
    2ebc:	99 54 00 00 	stb     r10,0(r20)
    2ec0:	7d 29 42 14 	add     r9,r9,r8
    2ec4:	a2 29 00 02 	lhz     r17,2(r9)
    2ec8:	3a 00 00 00 	li      r16,0
    2ecc:	39 20 00 01 	li      r9,1
    2ed0:	4b ff f2 10 	b       20e0 <_vfprintf_r+0x874>
    2ed4:	81 54 00 04 	lwz     r10,4(r20)
    2ed8:	39 2a 00 04 	addi    r9,r10,4
    2edc:	91 34 00 04 	stw     r9,4(r20)
    2ee0:	4b ff ee e4 	b       1dc4 <_vfprintf_r+0x558>
    2ee4:	40 9c 02 6c 	bge-    cr7,3150 <_vfprintf_r+0x18e4>
    2ee8:	39 09 00 04 	addi    r8,r9,4
    2eec:	81 54 00 08 	lwz     r10,8(r20)
    2ef0:	39 29 00 01 	addi    r9,r9,1
    2ef4:	55 08 18 38 	rlwinm  r8,r8,3,0,28
    2ef8:	99 34 00 01 	stb     r9,1(r20)
    2efc:	7d 4a 42 14 	add     r10,r10,r8
    2f00:	cb ea 00 00 	lfd     f31,0(r10)
    2f04:	db e1 04 f0 	stfd    f31,1264(r1)
    2f08:	fc 20 f8 90 	fmr     f1,f31
    2f0c:	48 00 51 49 	bl      8054 <__fpclassifyd>
    2f10:	2f 83 00 01 	cmpwi   cr7,r3,1
    2f14:	40 9e 03 50 	bne-    cr7,3264 <_vfprintf_r+0x19f8>
    2f18:	81 1e 80 20 	lwz     r8,-32736(r30)
    2f1c:	c0 08 00 00 	lfs     f0,0(r8)
    2f20:	ff 9f 00 00 	fcmpu   cr7,f31,f0
    2f24:	41 9c 07 84 	blt-    cr7,36a8 <_vfprintf_r+0x1e3c>
    2f28:	89 21 04 c2 	lbz     r9,1218(r1)
    2f2c:	2f 98 00 47 	cmpwi   cr7,r24,71
    2f30:	41 9d 04 e4 	bgt-    cr7,3414 <_vfprintf_r+0x1ba8>
    2f34:	82 fe 80 00 	lwz     r23,-32768(r30)
    2f38:	38 e0 00 00 	li      r7,0
    2f3c:	39 00 00 00 	li      r8,0
    2f40:	57 39 06 6e 	rlwinm  r25,r25,0,25,23
    2f44:	3a c0 00 03 	li      r22,3
    2f48:	3a a0 00 03 	li      r21,3
    2f4c:	90 e1 04 d4 	stw     r7,1236(r1)
    2f50:	91 01 04 e4 	stw     r8,1252(r1)
    2f54:	4b ff f0 e8 	b       203c <_vfprintf_r+0x7d0>
    2f58:	81 34 00 04 	lwz     r9,4(r20)
    2f5c:	39 29 00 07 	addi    r9,r9,7
    2f60:	55 2a 00 38 	rlwinm  r10,r9,0,0,28
    2f64:	39 2a 00 08 	addi    r9,r10,8
    2f68:	91 34 00 04 	stw     r9,4(r20)
    2f6c:	4b ff f2 14 	b       2180 <_vfprintf_r+0x914>
    2f70:	73 28 00 40 	andi.   r8,r25,64
    2f74:	89 54 00 00 	lbz     r10,0(r20)
    2f78:	2b 8a 00 08 	cmplwi  cr7,r10,8
    2f7c:	41 82 01 88 	beq-    3104 <_vfprintf_r+0x1898>
    2f80:	40 9c 07 38 	bge-    cr7,36b8 <_vfprintf_r+0x1e4c>
    2f84:	55 48 10 3a 	rlwinm  r8,r10,2,0,29
    2f88:	81 34 00 08 	lwz     r9,8(r20)
    2f8c:	39 4a 00 01 	addi    r10,r10,1
    2f90:	99 54 00 00 	stb     r10,0(r20)
    2f94:	7d 29 42 14 	add     r9,r9,r8
    2f98:	a9 29 00 02 	lha     r9,2(r9)
    2f9c:	7d 31 4b 78 	mr      r17,r9
    2fa0:	7d 30 fe 70 	srawi   r16,r9,31
    2fa4:	4b ff f0 24 	b       1fc8 <_vfprintf_r+0x75c>
    2fa8:	39 29 00 01 	addi    r9,r9,1
    2fac:	7d 4a aa 14 	add     r10,r10,r21
    2fb0:	2f 89 00 07 	cmpwi   cr7,r9,7
    2fb4:	91 ee 00 00 	stw     r15,0(r14)
    2fb8:	92 ae 00 04 	stw     r21,4(r14)
    2fbc:	91 41 04 a0 	stw     r10,1184(r1)
    2fc0:	91 21 04 9c 	stw     r9,1180(r1)
    2fc4:	41 bd fb b4 	bgt-    cr7,2b78 <_vfprintf_r+0x130c>
    2fc8:	39 ce 00 08 	addi    r14,r14,8
    2fcc:	4b ff fb cc 	b       2b98 <_vfprintf_r+0x132c>
    2fd0:	7f 83 e3 78 	mr      r3,r28
    2fd4:	7f e4 fb 78 	mr      r4,r31
    2fd8:	7f 65 db 78 	mr      r5,r27
    2fdc:	48 00 54 c1 	bl      849c <__sprint_r>
    2fe0:	2f 83 00 00 	cmpwi   cr7,r3,0
    2fe4:	40 be ee f0 	bne-    cr7,1ed4 <_vfprintf_r+0x668>
    2fe8:	81 41 04 a0 	lwz     r10,1184(r1)
    2fec:	7f 4e d3 78 	mr      r14,r26
    2ff0:	4b ff f6 4c 	b       263c <_vfprintf_r+0xdd0>
    2ff4:	81 21 04 9c 	lwz     r9,1180(r1)
    2ff8:	39 4a 00 01 	addi    r10,r10,1
    2ffc:	81 1e 80 28 	lwz     r8,-32728(r30)
    3000:	39 29 00 01 	addi    r9,r9,1
    3004:	2f 09 00 07 	cmpwi   cr6,r9,7
    3008:	91 0e 00 00 	stw     r8,0(r14)
    300c:	39 00 00 01 	li      r8,1
    3010:	91 0e 00 04 	stw     r8,4(r14)
    3014:	91 41 04 a0 	stw     r10,1184(r1)
    3018:	91 21 04 9c 	stw     r9,1180(r1)
    301c:	41 99 02 1c 	bgt-    cr6,3238 <_vfprintf_r+0x19cc>
    3020:	39 ce 00 08 	addi    r14,r14,8
    3024:	40 9e 00 18 	bne-    cr7,303c <_vfprintf_r+0x17d0>
    3028:	80 e1 04 dc 	lwz     r7,1244(r1)
    302c:	2f 87 00 00 	cmpwi   cr7,r7,0
    3030:	40 9e 00 0c 	bne-    cr7,303c <_vfprintf_r+0x17d0>
    3034:	73 28 00 01 	andi.   r8,r25,1
    3038:	41 a2 ec 58 	beq-    1c90 <_vfprintf_r+0x424>
    303c:	81 21 04 9c 	lwz     r9,1180(r1)
    3040:	80 e1 04 e8 	lwz     r7,1256(r1)
    3044:	39 29 00 01 	addi    r9,r9,1
    3048:	81 01 04 e0 	lwz     r8,1248(r1)
    304c:	2f 89 00 07 	cmpwi   cr7,r9,7
    3050:	7d 4a 3a 14 	add     r10,r10,r7
    3054:	91 0e 00 00 	stw     r8,0(r14)
    3058:	90 ee 00 04 	stw     r7,4(r14)
    305c:	91 41 04 a0 	stw     r10,1184(r1)
    3060:	91 21 04 9c 	stw     r9,1180(r1)
    3064:	41 9d 06 dc 	bgt-    cr7,3740 <_vfprintf_r+0x1ed4>
    3068:	39 ce 00 08 	addi    r14,r14,8
    306c:	7f 18 00 d1 	neg.    r24,r24
    3070:	40 81 03 d0 	ble-    3440 <_vfprintf_r+0x1bd4>
    3074:	2f 98 00 10 	cmpwi   cr7,r24,16
    3078:	81 fe 80 2c 	lwz     r15,-32724(r30)
    307c:	3a a0 00 10 	li      r21,16
    3080:	41 bd 00 18 	bgt+    cr7,3098 <_vfprintf_r+0x182c>
    3084:	48 00 04 3c 	b       34c0 <_vfprintf_r+0x1c54>
    3088:	39 ce 00 08 	addi    r14,r14,8
    308c:	3b 18 ff f0 	addi    r24,r24,-16
    3090:	2f 98 00 10 	cmpwi   cr7,r24,16
    3094:	40 9d 04 2c 	ble-    cr7,34c0 <_vfprintf_r+0x1c54>
    3098:	39 29 00 01 	addi    r9,r9,1
    309c:	39 4a 00 10 	addi    r10,r10,16
    30a0:	2f 89 00 07 	cmpwi   cr7,r9,7
    30a4:	91 ee 00 00 	stw     r15,0(r14)
    30a8:	92 ae 00 04 	stw     r21,4(r14)
    30ac:	91 41 04 a0 	stw     r10,1184(r1)
    30b0:	91 21 04 9c 	stw     r9,1180(r1)
    30b4:	40 9d ff d4 	ble+    cr7,3088 <_vfprintf_r+0x181c>
    30b8:	7f 83 e3 78 	mr      r3,r28
    30bc:	7f e4 fb 78 	mr      r4,r31
    30c0:	7f 65 db 78 	mr      r5,r27
    30c4:	48 00 53 d9 	bl      849c <__sprint_r>
    30c8:	2f 83 00 00 	cmpwi   cr7,r3,0
    30cc:	40 be ee 08 	bne-    cr7,1ed4 <_vfprintf_r+0x668>
    30d0:	81 41 04 a0 	lwz     r10,1184(r1)
    30d4:	7f 4e d3 78 	mr      r14,r26
    30d8:	81 21 04 9c 	lwz     r9,1180(r1)
    30dc:	4b ff ff b0 	b       308c <_vfprintf_r+0x1820>
    30e0:	7e b6 a8 f8 	not     r22,r21
    30e4:	38 e0 00 00 	li      r7,0
    30e8:	7e d6 fe 70 	srawi   r22,r22,31
    30ec:	39 00 00 00 	li      r8,0
    30f0:	7e b6 b0 38 	and     r22,r21,r22
    30f4:	89 21 04 c2 	lbz     r9,1218(r1)
    30f8:	90 e1 04 d4 	stw     r7,1236(r1)
    30fc:	91 01 04 e4 	stw     r8,1252(r1)
    3100:	4b ff ef 3c 	b       203c <_vfprintf_r+0x7d0>
    3104:	40 9c 05 94 	bge-    cr7,3698 <_vfprintf_r+0x1e2c>
    3108:	55 48 10 3a 	rlwinm  r8,r10,2,0,29
    310c:	81 34 00 08 	lwz     r9,8(r20)
    3110:	39 4a 00 01 	addi    r10,r10,1
    3114:	99 54 00 00 	stb     r10,0(r20)
    3118:	7d 29 42 14 	add     r9,r9,r8
    311c:	82 29 00 00 	lwz     r17,0(r9)
    3120:	7e 30 fe 70 	srawi   r16,r17,31
    3124:	4b ff ee a4 	b       1fc8 <_vfprintf_r+0x75c>
    3128:	40 9c 05 a0 	bge-    cr7,36c8 <_vfprintf_r+0x1e5c>
    312c:	55 48 10 3a 	rlwinm  r8,r10,2,0,29
    3130:	81 34 00 08 	lwz     r9,8(r20)
    3134:	39 4a 00 01 	addi    r10,r10,1
    3138:	99 54 00 00 	stb     r10,0(r20)
    313c:	7d 29 42 14 	add     r9,r9,r8
    3140:	82 29 00 00 	lwz     r17,0(r9)
    3144:	3a 00 00 00 	li      r16,0
    3148:	39 20 00 01 	li      r9,1
    314c:	4b ff ef 94 	b       20e0 <_vfprintf_r+0x874>
    3150:	81 34 00 04 	lwz     r9,4(r20)
    3154:	39 29 00 07 	addi    r9,r9,7
    3158:	55 2a 00 38 	rlwinm  r10,r9,0,0,28
    315c:	39 2a 00 08 	addi    r9,r10,8
    3160:	91 34 00 04 	stw     r9,4(r20)
    3164:	4b ff fd 9c 	b       2f00 <_vfprintf_r+0x1694>
    3168:	81 54 00 04 	lwz     r10,4(r20)
    316c:	39 2a 00 04 	addi    r9,r10,4
    3170:	91 34 00 04 	stw     r9,4(r20)
    3174:	4b ff f1 ec 	b       2360 <_vfprintf_r+0xaf4>
    3178:	40 9c 04 ec 	bge-    cr7,3664 <_vfprintf_r+0x1df8>
    317c:	55 48 10 3a 	rlwinm  r8,r10,2,0,29
    3180:	81 34 00 08 	lwz     r9,8(r20)
    3184:	39 4a 00 01 	addi    r10,r10,1
    3188:	99 54 00 00 	stb     r10,0(r20)
    318c:	7d 29 42 14 	add     r9,r9,r8
    3190:	82 29 00 00 	lwz     r17,0(r9)
    3194:	3a 00 00 00 	li      r16,0
    3198:	4b ff ef f0 	b       2188 <_vfprintf_r+0x91c>
    319c:	81 54 00 04 	lwz     r10,4(r20)
    31a0:	39 2a 00 04 	addi    r9,r10,4
    31a4:	91 34 00 04 	stw     r9,4(r20)
    31a8:	4b ff f1 84 	b       232c <_vfprintf_r+0xac0>
    31ac:	81 54 00 04 	lwz     r10,4(r20)
    31b0:	39 2a 00 04 	addi    r9,r10,4
    31b4:	91 34 00 04 	stw     r9,4(r20)
    31b8:	4b ff f9 90 	b       2b48 <_vfprintf_r+0x12dc>
    31bc:	81 54 00 04 	lwz     r10,4(r20)
    31c0:	39 2a 00 04 	addi    r9,r10,4
    31c4:	91 34 00 04 	stw     r9,4(r20)
    31c8:	4b ff f9 48 	b       2b10 <_vfprintf_r+0x12a4>
    31cc:	40 9c 04 a8 	bge-    cr7,3674 <_vfprintf_r+0x1e08>
    31d0:	55 48 10 3a 	rlwinm  r8,r10,2,0,29
    31d4:	81 34 00 08 	lwz     r9,8(r20)
    31d8:	39 4a 00 01 	addi    r10,r10,1
    31dc:	99 54 00 00 	stb     r10,0(r20)
    31e0:	7d 29 42 14 	add     r9,r9,r8
    31e4:	82 29 00 00 	lwz     r17,0(r9)
    31e8:	3a 00 00 00 	li      r16,0
    31ec:	39 20 00 00 	li      r9,0
    31f0:	4b ff ee f0 	b       20e0 <_vfprintf_r+0x874>
    31f4:	81 54 00 04 	lwz     r10,4(r20)
    31f8:	39 2a 00 04 	addi    r9,r10,4
    31fc:	91 34 00 04 	stw     r9,4(r20)
    3200:	4b ff f8 d8 	b       2ad8 <_vfprintf_r+0x126c>
    3204:	81 34 00 04 	lwz     r9,4(r20)
    3208:	39 29 00 07 	addi    r9,r9,7
    320c:	55 2a 00 38 	rlwinm  r10,r9,0,0,28
    3210:	39 2a 00 08 	addi    r9,r10,8
    3214:	91 34 00 04 	stw     r9,4(r20)
    3218:	4b ff ee 64 	b       207c <_vfprintf_r+0x810>
    321c:	38 c0 ff ff 	li      r6,-1
    3220:	7d 5d 53 78 	mr      r29,r10
    3224:	4b ff e8 44 	b       1a68 <_vfprintf_r+0x1fc>
    3228:	81 34 00 04 	lwz     r9,4(r20)
    322c:	39 49 00 04 	addi    r10,r9,4
    3230:	91 54 00 04 	stw     r10,4(r20)
    3234:	4b ff fb 74 	b       2da8 <_vfprintf_r+0x153c>
    3238:	7f 83 e3 78 	mr      r3,r28
    323c:	7f e4 fb 78 	mr      r4,r31
    3240:	7f 65 db 78 	mr      r5,r27
    3244:	48 00 52 59 	bl      849c <__sprint_r>
    3248:	2f 83 00 00 	cmpwi   cr7,r3,0
    324c:	40 be ec 88 	bne-    cr7,1ed4 <_vfprintf_r+0x668>
    3250:	83 01 04 bc 	lwz     r24,1212(r1)
    3254:	7f 4e d3 78 	mr      r14,r26
    3258:	81 41 04 a0 	lwz     r10,1184(r1)
    325c:	2f 98 00 00 	cmpwi   cr7,r24,0
    3260:	4b ff fd c4 	b       3024 <_vfprintf_r+0x17b8>
    3264:	fc 20 f8 90 	fmr     f1,f31
    3268:	48 00 4d ed 	bl      8054 <__fpclassifyd>
    326c:	2f 83 00 00 	cmpwi   cr7,r3,0
    3270:	40 9e 00 48 	bne-    cr7,32b8 <_vfprintf_r+0x1a4c>
    3274:	2f 98 00 47 	cmpwi   cr7,r24,71
    3278:	82 fe 80 0c 	lwz     r23,-32756(r30)
    327c:	41 9d 00 08 	bgt-    cr7,3284 <_vfprintf_r+0x1a18>
    3280:	82 fe 80 08 	lwz     r23,-32760(r30)
    3284:	39 40 00 00 	li      r10,0
    3288:	38 e0 00 00 	li      r7,0
    328c:	57 39 06 6e 	rlwinm  r25,r25,0,25,23
    3290:	89 21 04 c2 	lbz     r9,1218(r1)
    3294:	3a c0 00 03 	li      r22,3
    3298:	3a a0 00 03 	li      r21,3
    329c:	91 41 04 d4 	stw     r10,1236(r1)
    32a0:	90 e1 04 e4 	stw     r7,1252(r1)
    32a4:	4b ff ed 98 	b       203c <_vfprintf_r+0x7d0>
    32a8:	3b bd 00 01 	addi    r29,r29,1
    32ac:	63 39 00 20 	ori     r25,r25,32
    32b0:	8b 09 00 01 	lbz     r24,1(r9)
    32b4:	4b ff e7 b0 	b       1a64 <_vfprintf_r+0x1f8>
    32b8:	2f 93 ff ff 	cmpwi   cr7,r19,-1
    32bc:	41 9e 04 f4 	beq-    cr7,37b0 <_vfprintf_r+0x1f44>
    32c0:	2e 18 00 67 	cmpwi   cr4,r24,103
    32c4:	41 92 04 a8 	beq-    cr4,376c <_vfprintf_r+0x1f00>
    32c8:	2f 98 00 47 	cmpwi   cr7,r24,71
    32cc:	41 9e 04 a0 	beq-    cr7,376c <_vfprintf_r+0x1f00>
    32d0:	db e1 05 00 	stfd    f31,1280(r1)
    32d4:	63 2f 01 00 	ori     r15,r25,256
    32d8:	3a 40 00 00 	li      r18,0
    32dc:	81 41 05 00 	lwz     r10,1280(r1)
    32e0:	2f 8a 00 00 	cmpwi   cr7,r10,0
    32e4:	41 9c 04 98 	blt-    cr7,377c <_vfprintf_r+0x1f10>
    32e8:	2d 98 00 66 	cmpwi   cr3,r24,102
    32ec:	41 8e 03 ec 	beq-    cr3,36d8 <_vfprintf_r+0x1e6c>
    32f0:	2d 18 00 46 	cmpwi   cr2,r24,70
    32f4:	41 8a 03 e4 	beq-    cr2,36d8 <_vfprintf_r+0x1e6c>
    32f8:	2f 98 00 65 	cmpwi   cr7,r24,101
    32fc:	41 9e 04 d0 	beq-    cr7,37cc <_vfprintf_r+0x1f60>
    3300:	2f 98 00 45 	cmpwi   cr7,r24,69
    3304:	7e 76 9b 78 	mr      r22,r19
    3308:	41 9e 04 c4 	beq-    cr7,37cc <_vfprintf_r+0x1f60>
    330c:	fc 20 f8 90 	fmr     f1,f31
    3310:	7f 83 e3 78 	mr      r3,r28
    3314:	38 80 00 02 	li      r4,2
    3318:	7e c5 b3 78 	mr      r5,r22
    331c:	38 c1 04 bc 	addi    r6,r1,1212
    3320:	38 e1 04 b8 	addi    r7,r1,1208
    3324:	39 01 04 b4 	addi    r8,r1,1204
    3328:	48 00 0c 81 	bl      3fa8 <_dtoa_r>
    332c:	7c 77 1b 78 	mr      r23,r3
    3330:	41 92 00 0c 	beq-    cr4,333c <_vfprintf_r+0x1ad0>
    3334:	2f 98 00 47 	cmpwi   cr7,r24,71
    3338:	40 9e 00 0c 	bne-    cr7,3344 <_vfprintf_r+0x1ad8>
    333c:	73 27 00 01 	andi.   r7,r25,1
    3340:	41 82 05 1c 	beq-    385c <_vfprintf_r+0x1ff0>
    3344:	7c f7 b2 14 	add     r7,r23,r22
    3348:	41 8a 03 bc 	beq-    cr2,3704 <_vfprintf_r+0x1e98>
    334c:	81 1e 80 20 	lwz     r8,-32736(r30)
    3350:	c0 08 00 00 	lfs     f0,0(r8)
    3354:	ff 9f 00 00 	fcmpu   cr7,f31,f0
    3358:	41 9e 00 34 	beq-    cr7,338c <_vfprintf_r+0x1b20>
    335c:	81 21 04 b4 	lwz     r9,1204(r1)
    3360:	7f 87 48 40 	cmplw   cr7,r7,r9
    3364:	40 9d 06 38 	ble-    cr7,399c <_vfprintf_r+0x2130>
    3368:	7d 09 38 50 	subf    r8,r9,r7
    336c:	4f 8c 00 00 	mcrf    cr7,cr3
    3370:	39 40 00 30 	li      r10,48
    3374:	7d 09 03 a6 	mtctr   r8
    3378:	99 49 00 00 	stb     r10,0(r9)
    337c:	39 29 00 01 	addi    r9,r9,1
    3380:	91 21 04 b4 	stw     r9,1204(r1)
    3384:	42 00 ff f4 	bdnz+   3378 <_vfprintf_r+0x1b0c>
    3388:	4d 9c 00 00 	mcrf    cr3,cr7
    338c:	7c f7 38 50 	subf    r7,r23,r7
    3390:	90 e1 04 dc 	stw     r7,1244(r1)
    3394:	41 92 02 18 	beq-    cr4,35ac <_vfprintf_r+0x1d40>
    3398:	2f 98 00 47 	cmpwi   cr7,r24,71
    339c:	41 9e 02 10 	beq-    cr7,35ac <_vfprintf_r+0x1d40>
    33a0:	40 8e 05 f4 	bne-    cr3,3994 <_vfprintf_r+0x2128>
    33a4:	81 21 04 bc 	lwz     r9,1212(r1)
    33a8:	2f 89 00 00 	cmpwi   cr7,r9,0
    33ac:	40 9d 05 04 	ble-    cr7,38b0 <_vfprintf_r+0x2044>
    33b0:	2f 93 00 00 	cmpwi   cr7,r19,0
    33b4:	40 9e 04 b0 	bne-    cr7,3864 <_vfprintf_r+0x1ff8>
    33b8:	73 27 00 01 	andi.   r7,r25,1
    33bc:	40 82 04 a8 	bne-    3864 <_vfprintf_r+0x1ff8>
    33c0:	7d 36 4b 78 	mr      r22,r9
    33c4:	7d 35 4b 78 	mr      r21,r9
    33c8:	91 21 04 e4 	stw     r9,1252(r1)
    33cc:	2f 92 00 00 	cmpwi   cr7,r18,0
    33d0:	41 9e 02 b4 	beq-    cr7,3684 <_vfprintf_r+0x1e18>
    33d4:	39 20 00 2d 	li      r9,45
    33d8:	7d f9 7b 78 	mr      r25,r15
    33dc:	99 21 04 c2 	stb     r9,1218(r1)
    33e0:	39 20 00 00 	li      r9,0
    33e4:	91 21 04 d4 	stw     r9,1236(r1)
    33e8:	3a d6 00 01 	addi    r22,r22,1
    33ec:	4b ff e6 b8 	b       1aa4 <_vfprintf_r+0x238>
    33f0:	7f 83 e3 78 	mr      r3,r28
    33f4:	7f e4 fb 78 	mr      r4,r31
    33f8:	7f 65 db 78 	mr      r5,r27
    33fc:	48 00 50 a1 	bl      849c <__sprint_r>
    3400:	2f 83 00 00 	cmpwi   cr7,r3,0
    3404:	40 be ea d0 	bne-    cr7,1ed4 <_vfprintf_r+0x668>
    3408:	81 41 04 a0 	lwz     r10,1184(r1)
    340c:	7f 4e d3 78 	mr      r14,r26
    3410:	4b ff f2 74 	b       2684 <_vfprintf_r+0xe18>
    3414:	82 fe 80 04 	lwz     r23,-32764(r30)
    3418:	4b ff fb 20 	b       2f38 <_vfprintf_r+0x16cc>
    341c:	7f 83 e3 78 	mr      r3,r28
    3420:	7f e4 fb 78 	mr      r4,r31
    3424:	7f 65 db 78 	mr      r5,r27
    3428:	48 00 50 75 	bl      849c <__sprint_r>
    342c:	2f 83 00 00 	cmpwi   cr7,r3,0
    3430:	40 be ea a4 	bne-    cr7,1ed4 <_vfprintf_r+0x668>
    3434:	81 41 04 a0 	lwz     r10,1184(r1)
    3438:	7f 4e d3 78 	mr      r14,r26
    343c:	81 21 04 9c 	lwz     r9,1180(r1)
    3440:	39 29 00 01 	addi    r9,r9,1
    3444:	80 e1 04 dc 	lwz     r7,1244(r1)
    3448:	2f 89 00 07 	cmpwi   cr7,r9,7
    344c:	92 ee 00 00 	stw     r23,0(r14)
    3450:	7d 4a 3a 14 	add     r10,r10,r7
    3454:	90 ee 00 04 	stw     r7,4(r14)
    3458:	91 41 04 a0 	stw     r10,1184(r1)
    345c:	91 21 04 9c 	stw     r9,1180(r1)
    3460:	40 9d e8 2c 	ble+    cr7,1c8c <_vfprintf_r+0x420>
    3464:	4b ff f1 04 	b       2568 <_vfprintf_r+0xcfc>
    3468:	48 00 4f 79 	bl      83e0 <strlen>
    346c:	39 40 00 00 	li      r10,0
    3470:	7c 76 18 f8 	not     r22,r3
    3474:	38 e0 00 00 	li      r7,0
    3478:	7e d6 fe 70 	srawi   r22,r22,31
    347c:	7c 75 1b 78 	mr      r21,r3
    3480:	7c 76 b0 38 	and     r22,r3,r22
    3484:	89 21 04 c2 	lbz     r9,1218(r1)
    3488:	91 41 04 d4 	stw     r10,1236(r1)
    348c:	90 e1 04 e4 	stw     r7,1252(r1)
    3490:	4b ff eb ac 	b       203c <_vfprintf_r+0x7d0>
    3494:	3a a0 00 00 	li      r21,0
    3498:	4b ff f5 00 	b       2998 <_vfprintf_r+0x112c>
    349c:	7f 83 e3 78 	mr      r3,r28
    34a0:	7f e4 fb 78 	mr      r4,r31
    34a4:	7f 65 db 78 	mr      r5,r27
    34a8:	48 00 4f f5 	bl      849c <__sprint_r>
    34ac:	2f 83 00 00 	cmpwi   cr7,r3,0
    34b0:	40 be ea 24 	bne-    cr7,1ed4 <_vfprintf_r+0x668>
    34b4:	81 41 04 a0 	lwz     r10,1184(r1)
    34b8:	7f 4e d3 78 	mr      r14,r26
    34bc:	4b ff f4 d8 	b       2994 <_vfprintf_r+0x1128>
    34c0:	39 29 00 01 	addi    r9,r9,1
    34c4:	7d 4a c2 14 	add     r10,r10,r24
    34c8:	2f 89 00 07 	cmpwi   cr7,r9,7
    34cc:	91 ee 00 00 	stw     r15,0(r14)
    34d0:	93 0e 00 04 	stw     r24,4(r14)
    34d4:	91 41 04 a0 	stw     r10,1184(r1)
    34d8:	91 21 04 9c 	stw     r9,1180(r1)
    34dc:	41 bd ff 40 	bgt-    cr7,341c <_vfprintf_r+0x1bb0>
    34e0:	39 ce 00 08 	addi    r14,r14,8
    34e4:	4b ff ff 5c 	b       3440 <_vfprintf_r+0x1bd4>
    34e8:	7f 83 e3 78 	mr      r3,r28
    34ec:	7f e4 fb 78 	mr      r4,r31
    34f0:	7f 65 db 78 	mr      r5,r27
    34f4:	48 00 4f a9 	bl      849c <__sprint_r>
    34f8:	2f 83 00 00 	cmpwi   cr7,r3,0
    34fc:	40 be e9 d8 	bne-    cr7,1ed4 <_vfprintf_r+0x668>
    3500:	81 01 04 bc 	lwz     r8,1212(r1)
    3504:	7f 4e d3 78 	mr      r14,r26
    3508:	81 41 04 a0 	lwz     r10,1184(r1)
    350c:	4b ff f6 ac 	b       2bb8 <_vfprintf_r+0x134c>
    3510:	2b 93 00 06 	cmplwi  cr7,r19,6
    3514:	7e 75 9b 78 	mr      r21,r19
    3518:	40 9d 00 08 	ble-    cr7,3520 <_vfprintf_r+0x1cb4>
    351c:	3a a0 00 06 	li      r21,6
    3520:	7e b6 a8 f8 	not     r22,r21
    3524:	38 e0 00 00 	li      r7,0
    3528:	7e d6 fe 70 	srawi   r22,r22,31
    352c:	39 00 00 00 	li      r8,0
    3530:	7e b6 b0 38 	and     r22,r21,r22
    3534:	90 e1 04 d4 	stw     r7,1236(r1)
    3538:	91 01 04 e4 	stw     r8,1252(r1)
    353c:	82 fe 80 18 	lwz     r23,-32744(r30)
    3540:	4b ff e5 64 	b       1aa4 <_vfprintf_r+0x238>
    3544:	3b 00 00 00 	li      r24,0
    3548:	4b ff f6 c0 	b       2c08 <_vfprintf_r+0x139c>
    354c:	7f 83 e3 78 	mr      r3,r28
    3550:	7f e4 fb 78 	mr      r4,r31
    3554:	7f 65 db 78 	mr      r5,r27
    3558:	48 00 4f 45 	bl      849c <__sprint_r>
    355c:	2f 83 00 00 	cmpwi   cr7,r3,0
    3560:	40 be e9 74 	bne-    cr7,1ed4 <_vfprintf_r+0x668>
    3564:	81 01 04 bc 	lwz     r8,1212(r1)
    3568:	7f 4e d3 78 	mr      r14,r26
    356c:	80 e1 04 dc 	lwz     r7,1244(r1)
    3570:	81 41 04 a0 	lwz     r10,1184(r1)
    3574:	7d 08 38 50 	subf    r8,r8,r7
    3578:	4b ff f6 8c 	b       2c04 <_vfprintf_r+0x1398>
    357c:	81 34 00 04 	lwz     r9,4(r20)
    3580:	39 49 00 04 	addi    r10,r9,4
    3584:	91 54 00 04 	stw     r10,4(r20)
    3588:	4b ff f9 3c 	b       2ec4 <_vfprintf_r+0x1658>
    358c:	81 34 00 04 	lwz     r9,4(r20)
    3590:	39 49 00 04 	addi    r10,r9,4
    3594:	91 54 00 04 	stw     r10,4(r20)
    3598:	4b ff f8 c0 	b       2e58 <_vfprintf_r+0x15ec>
    359c:	81 34 00 04 	lwz     r9,4(r20)
    35a0:	39 49 00 04 	addi    r10,r9,4
    35a4:	91 54 00 04 	stw     r10,4(r20)
    35a8:	4b ff f8 60 	b       2e08 <_vfprintf_r+0x159c>
    35ac:	81 21 04 bc 	lwz     r9,1212(r1)
    35b0:	2f 89 ff fd 	cmpwi   cr7,r9,-3
    35b4:	7d 2a 4b 78 	mr      r10,r9
    35b8:	41 9c 00 0c 	blt-    cr7,35c4 <_vfprintf_r+0x1d58>
    35bc:	7f 93 48 00 	cmpw    cr7,r19,r9
    35c0:	40 9c 00 78 	bge-    cr7,3638 <_vfprintf_r+0x1dcc>
    35c4:	3b 18 ff fe 	addi    r24,r24,-2
    35c8:	39 2a ff ff 	addi    r9,r10,-1
    35cc:	9b 01 04 ac 	stb     r24,1196(r1)
    35d0:	2f 89 00 00 	cmpwi   cr7,r9,0
    35d4:	91 21 04 bc 	stw     r9,1212(r1)
    35d8:	41 9c 03 00 	blt-    cr7,38d8 <_vfprintf_r+0x206c>
    35dc:	39 40 00 2b 	li      r10,43
    35e0:	99 41 04 ad 	stb     r10,1197(r1)
    35e4:	2f 89 00 09 	cmpwi   cr7,r9,9
    35e8:	41 9d 01 ec 	bgt-    cr7,37d4 <_vfprintf_r+0x1f68>
    35ec:	39 40 00 30 	li      r10,48
    35f0:	39 29 00 30 	addi    r9,r9,48
    35f4:	99 41 04 ae 	stb     r10,1198(r1)
    35f8:	39 01 04 ac 	addi    r8,r1,1196
    35fc:	99 21 04 af 	stb     r9,1199(r1)
    3600:	39 21 04 b0 	addi    r9,r1,1200
    3604:	80 e1 04 dc 	lwz     r7,1244(r1)
    3608:	7d 08 48 50 	subf    r8,r8,r9
    360c:	91 01 04 f8 	stw     r8,1272(r1)
    3610:	2f 87 00 01 	cmpwi   cr7,r7,1
    3614:	7e a7 42 14 	add     r21,r7,r8
    3618:	40 9d 02 d0 	ble-    cr7,38e8 <_vfprintf_r+0x207c>
    361c:	3a b5 00 01 	addi    r21,r21,1
    3620:	39 40 00 00 	li      r10,0
    3624:	7e b6 a8 f8 	not     r22,r21
    3628:	91 41 04 e4 	stw     r10,1252(r1)
    362c:	7e d6 fe 70 	srawi   r22,r22,31
    3630:	7e b6 b0 38 	and     r22,r21,r22
    3634:	4b ff fd 98 	b       33cc <_vfprintf_r+0x1b60>
    3638:	81 41 04 dc 	lwz     r10,1244(r1)
    363c:	7f 89 50 00 	cmpw    cr7,r9,r10
    3640:	41 9c 01 48 	blt-    cr7,3788 <_vfprintf_r+0x1f1c>
    3644:	73 27 00 01 	andi.   r7,r25,1
    3648:	40 82 02 50 	bne-    3898 <_vfprintf_r+0x202c>
    364c:	7d 36 48 f8 	not     r22,r9
    3650:	7d 35 4b 78 	mr      r21,r9
    3654:	7e d6 fe 70 	srawi   r22,r22,31
    3658:	3b 00 00 67 	li      r24,103
    365c:	7d 36 b0 38 	and     r22,r9,r22
    3660:	4b ff fd 68 	b       33c8 <_vfprintf_r+0x1b5c>
    3664:	81 34 00 04 	lwz     r9,4(r20)
    3668:	39 49 00 04 	addi    r10,r9,4
    366c:	91 54 00 04 	stw     r10,4(r20)
    3670:	4b ff fb 20 	b       3190 <_vfprintf_r+0x1924>
    3674:	81 34 00 04 	lwz     r9,4(r20)
    3678:	39 49 00 04 	addi    r10,r9,4
    367c:	91 54 00 04 	stw     r10,4(r20)
    3680:	4b ff fb 64 	b       31e4 <_vfprintf_r+0x1978>
    3684:	38 e0 00 00 	li      r7,0
    3688:	89 21 04 c2 	lbz     r9,1218(r1)
    368c:	7d f9 7b 78 	mr      r25,r15
    3690:	90 e1 04 d4 	stw     r7,1236(r1)
    3694:	4b ff e9 a8 	b       203c <_vfprintf_r+0x7d0>
    3698:	81 34 00 04 	lwz     r9,4(r20)
    369c:	39 49 00 04 	addi    r10,r9,4
    36a0:	91 54 00 04 	stw     r10,4(r20)
    36a4:	4b ff fa 78 	b       311c <_vfprintf_r+0x18b0>
    36a8:	39 20 00 2d 	li      r9,45
    36ac:	99 21 04 c2 	stb     r9,1218(r1)
    36b0:	39 20 00 2d 	li      r9,45
    36b4:	4b ff f8 78 	b       2f2c <_vfprintf_r+0x16c0>
    36b8:	81 34 00 04 	lwz     r9,4(r20)
    36bc:	39 49 00 04 	addi    r10,r9,4
    36c0:	91 54 00 04 	stw     r10,4(r20)
    36c4:	4b ff f8 d4 	b       2f98 <_vfprintf_r+0x172c>
    36c8:	81 34 00 04 	lwz     r9,4(r20)
    36cc:	39 49 00 04 	addi    r10,r9,4
    36d0:	91 54 00 04 	stw     r10,4(r20)
    36d4:	4b ff fa 6c 	b       3140 <_vfprintf_r+0x18d4>
    36d8:	fc 20 f8 90 	fmr     f1,f31
    36dc:	38 e1 04 b8 	addi    r7,r1,1208
    36e0:	7f 83 e3 78 	mr      r3,r28
    36e4:	38 80 00 03 	li      r4,3
    36e8:	7e 65 9b 78 	mr      r5,r19
    36ec:	38 c1 04 bc 	addi    r6,r1,1212
    36f0:	39 01 04 b4 	addi    r8,r1,1204
    36f4:	7e 76 9b 78 	mr      r22,r19
    36f8:	48 00 08 b1 	bl      3fa8 <_dtoa_r>
    36fc:	7c 77 1b 78 	mr      r23,r3
    3700:	7c e3 9a 14 	add     r7,r3,r19
    3704:	89 37 00 00 	lbz     r9,0(r23)
    3708:	2f 89 00 30 	cmpwi   cr7,r9,48
    370c:	41 9e 01 70 	beq-    cr7,387c <_vfprintf_r+0x2010>
    3710:	82 c1 04 bc 	lwz     r22,1212(r1)
    3714:	81 1e 80 20 	lwz     r8,-32736(r30)
    3718:	7c e7 b2 14 	add     r7,r7,r22
    371c:	4b ff fc 34 	b       3350 <_vfprintf_r+0x1ae4>
    3720:	39 40 00 00 	li      r10,0
    3724:	38 e0 00 00 	li      r7,0
    3728:	7e 76 9b 78 	mr      r22,r19
    372c:	89 21 04 c2 	lbz     r9,1218(r1)
    3730:	7e 75 9b 78 	mr      r21,r19
    3734:	91 41 04 d4 	stw     r10,1236(r1)
    3738:	90 e1 04 e4 	stw     r7,1252(r1)
    373c:	4b ff e9 00 	b       203c <_vfprintf_r+0x7d0>
    3740:	7f 83 e3 78 	mr      r3,r28
    3744:	7f e4 fb 78 	mr      r4,r31
    3748:	7f 65 db 78 	mr      r5,r27
    374c:	48 00 4d 51 	bl      849c <__sprint_r>
    3750:	2f 83 00 00 	cmpwi   cr7,r3,0
    3754:	40 be e7 80 	bne-    cr7,1ed4 <_vfprintf_r+0x668>
    3758:	83 01 04 bc 	lwz     r24,1212(r1)
    375c:	7f 4e d3 78 	mr      r14,r26
    3760:	81 41 04 a0 	lwz     r10,1184(r1)
    3764:	81 21 04 9c 	lwz     r9,1180(r1)
    3768:	4b ff f9 04 	b       306c <_vfprintf_r+0x1800>
    376c:	2f 93 00 00 	cmpwi   cr7,r19,0
    3770:	40 be fb 60 	bne-    cr7,32d0 <_vfprintf_r+0x1a64>
    3774:	3a 60 00 01 	li      r19,1
    3778:	4b ff fb 58 	b       32d0 <_vfprintf_r+0x1a64>
    377c:	ff e0 f8 50 	fneg    f31,f31
    3780:	3a 40 00 2d 	li      r18,45
    3784:	4b ff fb 64 	b       32e8 <_vfprintf_r+0x1a7c>
    3788:	2f 89 00 00 	cmpwi   cr7,r9,0
    378c:	3a a0 00 01 	li      r21,1
    3790:	40 9d 01 40 	ble-    cr7,38d0 <_vfprintf_r+0x2064>
    3794:	81 01 04 dc 	lwz     r8,1244(r1)
    3798:	3b 00 00 67 	li      r24,103
    379c:	7e b5 42 14 	add     r21,r21,r8
    37a0:	7e b6 a8 f8 	not     r22,r21
    37a4:	7e d6 fe 70 	srawi   r22,r22,31
    37a8:	7e b6 b0 38 	and     r22,r21,r22
    37ac:	4b ff fc 1c 	b       33c8 <_vfprintf_r+0x1b5c>
    37b0:	3a 60 00 06 	li      r19,6
    37b4:	2e 18 00 67 	cmpwi   cr4,r24,103
    37b8:	4b ff fb 18 	b       32d0 <_vfprintf_r+0x1a64>
    37bc:	81 34 00 04 	lwz     r9,4(r20)
    37c0:	39 49 00 04 	addi    r10,r9,4
    37c4:	91 54 00 04 	stw     r10,4(r20)
    37c8:	4b ff f5 b8 	b       2d80 <_vfprintf_r+0x1514>
    37cc:	3a d3 00 01 	addi    r22,r19,1
    37d0:	4b ff fb 3c 	b       330c <_vfprintf_r+0x1aa0>
    37d4:	39 01 04 ab 	addi    r8,r1,1195
    37d8:	3c c0 66 66 	lis     r6,26214
    37dc:	7d 07 43 78 	mr      r7,r8
    37e0:	60 c6 66 67 	ori     r6,r6,26215
    37e4:	7c a9 30 96 	mulhw   r5,r9,r6
    37e8:	7d 2a fe 70 	srawi   r10,r9,31
    37ec:	7c a5 16 70 	srawi   r5,r5,2
    37f0:	7d 4a 28 50 	subf    r10,r10,r5
    37f4:	1c aa 00 0a 	mulli   r5,r10,10
    37f8:	2f 8a 00 09 	cmpwi   cr7,r10,9
    37fc:	7c a5 48 50 	subf    r5,r5,r9
    3800:	7d 49 53 78 	mr      r9,r10
    3804:	39 45 00 30 	addi    r10,r5,48
    3808:	9d 47 ff ff 	stbu    r10,-1(r7)
    380c:	41 9d ff d8 	bgt+    cr7,37e4 <_vfprintf_r+0x1f78>
    3810:	39 49 00 30 	addi    r10,r9,48
    3814:	7c e9 3b 78 	mr      r9,r7
    3818:	55 4a 06 3e 	clrlwi  r10,r10,24
    381c:	9d 49 ff ff 	stbu    r10,-1(r9)
    3820:	7f 88 48 40 	cmplw   cr7,r8,r9
    3824:	40 9d 01 64 	ble-    cr7,3988 <_vfprintf_r+0x211c>
    3828:	7c c9 08 50 	subf    r6,r9,r1
    382c:	39 01 04 ad 	addi    r8,r1,1197
    3830:	38 c6 04 ab 	addi    r6,r6,1195
    3834:	7c c9 03 a6 	mtctr   r6
    3838:	48 00 00 08 	b       3840 <_vfprintf_r+0x1fd4>
    383c:	8d 49 00 01 	lbzu    r10,1(r9)
    3840:	9d 48 00 01 	stbu    r10,1(r8)
    3844:	42 00 ff f8 	bdnz+   383c <_vfprintf_r+0x1fd0>
    3848:	39 01 04 ac 	addi    r8,r1,1196
    384c:	39 41 04 ae 	addi    r10,r1,1198
    3850:	7d 27 40 50 	subf    r9,r7,r8
    3854:	7d 2a 4a 14 	add     r9,r10,r9
    3858:	4b ff fd ac 	b       3604 <_vfprintf_r+0x1d98>
    385c:	80 e1 04 b4 	lwz     r7,1204(r1)
    3860:	4b ff fb 2c 	b       338c <_vfprintf_r+0x1b20>
    3864:	3a b3 00 01 	addi    r21,r19,1
    3868:	7e a9 aa 14 	add     r21,r9,r21
    386c:	7e b6 a8 f8 	not     r22,r21
    3870:	7e d6 fe 70 	srawi   r22,r22,31
    3874:	7e b6 b0 38 	and     r22,r21,r22
    3878:	4b ff fb 50 	b       33c8 <_vfprintf_r+0x1b5c>
    387c:	81 1e 80 20 	lwz     r8,-32736(r30)
    3880:	c0 08 00 00 	lfs     f0,0(r8)
    3884:	ff 9f 00 00 	fcmpu   cr7,f31,f0
    3888:	40 9e 00 80 	bne-    cr7,3908 <_vfprintf_r+0x209c>
    388c:	82 c1 04 bc 	lwz     r22,1212(r1)
    3890:	7c e7 b2 14 	add     r7,r7,r22
    3894:	4b ff fa bc 	b       3350 <_vfprintf_r+0x1ae4>
    3898:	3a a9 00 01 	addi    r21,r9,1
    389c:	3b 00 00 67 	li      r24,103
    38a0:	7e b6 a8 f8 	not     r22,r21
    38a4:	7e d6 fe 70 	srawi   r22,r22,31
    38a8:	7e b6 b0 38 	and     r22,r21,r22
    38ac:	4b ff fb 1c 	b       33c8 <_vfprintf_r+0x1b5c>
    38b0:	2f 93 00 00 	cmpwi   cr7,r19,0
    38b4:	40 9e 00 b0 	bne-    cr7,3964 <_vfprintf_r+0x20f8>
    38b8:	73 28 00 01 	andi.   r8,r25,1
    38bc:	40 82 00 a8 	bne-    3964 <_vfprintf_r+0x20f8>
    38c0:	3b 00 00 66 	li      r24,102
    38c4:	3a c0 00 01 	li      r22,1
    38c8:	3a a0 00 01 	li      r21,1
    38cc:	4b ff fa fc 	b       33c8 <_vfprintf_r+0x1b5c>
    38d0:	22 a9 00 02 	subfic  r21,r9,2
    38d4:	4b ff fe c0 	b       3794 <_vfprintf_r+0x1f28>
    38d8:	39 40 00 2d 	li      r10,45
    38dc:	7d 29 00 d0 	neg     r9,r9
    38e0:	99 41 04 ad 	stb     r10,1197(r1)
    38e4:	4b ff fd 00 	b       35e4 <_vfprintf_r+0x1d78>
    38e8:	73 28 00 01 	andi.   r8,r25,1
    38ec:	40 a2 fd 30 	bne-    361c <_vfprintf_r+0x1db0>
    38f0:	7e b6 a8 f8 	not     r22,r21
    38f4:	39 20 00 00 	li      r9,0
    38f8:	7e d6 fe 70 	srawi   r22,r22,31
    38fc:	91 21 04 e4 	stw     r9,1252(r1)
    3900:	7e b6 b0 38 	and     r22,r21,r22
    3904:	4b ff fa c8 	b       33cc <_vfprintf_r+0x1b60>
    3908:	22 d6 00 01 	subfic  r22,r22,1
    390c:	92 c1 04 bc 	stw     r22,1212(r1)
    3910:	7c e7 b2 14 	add     r7,r7,r22
    3914:	4b ff fa 3c 	b       3350 <_vfprintf_r+0x1ae4>
    3918:	39 40 ff ff 	li      r10,-1
    391c:	91 41 04 d0 	stw     r10,1232(r1)
    3920:	4b ff e5 78 	b       1e98 <_vfprintf_r+0x62c>
    3924:	88 d4 00 00 	lbz     r6,0(r20)
    3928:	2b 86 00 08 	cmplwi  cr7,r6,8
    392c:	40 9c 00 4c 	bge-    cr7,3978 <_vfprintf_r+0x210c>
    3930:	54 c5 10 3a 	rlwinm  r5,r6,2,0,29
    3934:	81 34 00 08 	lwz     r9,8(r20)
    3938:	38 c6 00 01 	addi    r6,r6,1
    393c:	98 d4 00 00 	stb     r6,0(r20)
    3940:	7d 29 2a 14 	add     r9,r9,r5
    3944:	80 c9 00 00 	lwz     r6,0(r9)
    3948:	8b 1d 00 01 	lbz     r24,1(r29)
    394c:	7d 5d 53 78 	mr      r29,r10
    3950:	2f 86 00 00 	cmpwi   cr7,r6,0
    3954:	40 9c e1 10 	bge+    cr7,1a64 <_vfprintf_r+0x1f8>
    3958:	38 c0 ff ff 	li      r6,-1
    395c:	7d 5d 53 78 	mr      r29,r10
    3960:	4b ff e1 04 	b       1a64 <_vfprintf_r+0x1f8>
    3964:	3a b3 00 02 	addi    r21,r19,2
    3968:	7e b6 a8 f8 	not     r22,r21
    396c:	7e d6 fe 70 	srawi   r22,r22,31
    3970:	7e b6 b0 38 	and     r22,r21,r22
    3974:	4b ff fa 54 	b       33c8 <_vfprintf_r+0x1b5c>
    3978:	81 34 00 04 	lwz     r9,4(r20)
    397c:	38 c9 00 04 	addi    r6,r9,4
    3980:	90 d4 00 04 	stw     r6,4(r20)
    3984:	4b ff ff c0 	b       3944 <_vfprintf_r+0x20d8>
    3988:	39 21 04 ae 	addi    r9,r1,1198
    398c:	39 01 04 ac 	addi    r8,r1,1196
    3990:	4b ff fc 74 	b       3604 <_vfprintf_r+0x1d98>
    3994:	81 41 04 bc 	lwz     r10,1212(r1)
    3998:	4b ff fc 30 	b       35c8 <_vfprintf_r+0x1d5c>
    399c:	7d 27 4b 78 	mr      r7,r9
    39a0:	4b ff f9 ec 	b       338c <_vfprintf_r+0x1b20>
    39a4:	00 01 13 1c 	.long 0x1131c

000039a8 <vfprintf>:
    39a8:	94 21 ff f0 	stwu    r1,-16(r1)
    39ac:	7c 08 02 a6 	mflr    r0
    39b0:	42 9f 00 05 	bcl-    20,4*cr7+so,39b4 <vfprintf+0xc>
    39b4:	7c 6a 1b 78 	mr      r10,r3
    39b8:	93 c1 00 08 	stw     r30,8(r1)
    39bc:	7f c8 02 a6 	mflr    r30
    39c0:	90 01 00 14 	stw     r0,20(r1)
    39c4:	7c 89 23 78 	mr      r9,r4
    39c8:	7c a6 2b 78 	mr      r6,r5
    39cc:	7d 44 53 78 	mr      r4,r10
    39d0:	80 1e ff f0 	lwz     r0,-16(r30)
    39d4:	7d 25 4b 78 	mr      r5,r9
    39d8:	7f c0 f2 14 	add     r30,r0,r30
    39dc:	80 01 00 14 	lwz     r0,20(r1)
    39e0:	81 1e 80 30 	lwz     r8,-32720(r30)
    39e4:	7c 08 03 a6 	mtlr    r0
    39e8:	83 c1 00 08 	lwz     r30,8(r1)
    39ec:	80 68 00 00 	lwz     r3,0(r8)
    39f0:	38 21 00 10 	addi    r1,r1,16
    39f4:	4b ff de 78 	b       186c <_vfprintf_r>
    39f8:	00 01 12 fc 	.long 0x112fc

000039fc <__swsetup_r>:
    39fc:	94 21 ff e0 	stwu    r1,-32(r1)
    3a00:	7c 08 02 a6 	mflr    r0
    3a04:	42 9f 00 05 	bcl-    20,4*cr7+so,3a08 <__swsetup_r+0xc>
    3a08:	93 c1 00 18 	stw     r30,24(r1)
    3a0c:	7f c8 02 a6 	mflr    r30
    3a10:	90 01 00 24 	stw     r0,36(r1)
    3a14:	93 a1 00 14 	stw     r29,20(r1)
    3a18:	7c 7d 1b 78 	mr      r29,r3
    3a1c:	80 1e ff f0 	lwz     r0,-16(r30)
    3a20:	93 e1 00 1c 	stw     r31,28(r1)
    3a24:	7c 9f 23 78 	mr      r31,r4
    3a28:	7f c0 f2 14 	add     r30,r0,r30
    3a2c:	81 3e 80 00 	lwz     r9,-32768(r30)
    3a30:	80 69 00 00 	lwz     r3,0(r9)
    3a34:	2f 83 00 00 	cmpwi   cr7,r3,0
    3a38:	41 9e 00 10 	beq-    cr7,3a48 <__swsetup_r+0x4c>
    3a3c:	81 43 00 38 	lwz     r10,56(r3)
    3a40:	2f 8a 00 00 	cmpwi   cr7,r10,0
    3a44:	41 9e 00 f4 	beq-    cr7,3b38 <__swsetup_r+0x13c>
    3a48:	a9 3f 00 0c 	lha     r9,12(r31)
    3a4c:	55 2a 07 38 	rlwinm  r10,r9,0,28,28
    3a50:	7d 48 07 35 	extsh.  r8,r10
    3a54:	41 82 00 54 	beq-    3aa8 <__swsetup_r+0xac>
    3a58:	81 5f 00 10 	lwz     r10,16(r31)
    3a5c:	2f 8a 00 00 	cmpwi   cr7,r10,0
    3a60:	41 9e 00 74 	beq-    cr7,3ad4 <__swsetup_r+0xd8>
    3a64:	71 28 00 01 	andi.   r8,r9,1
    3a68:	40 82 00 94 	bne-    3afc <__swsetup_r+0x100>
    3a6c:	55 29 07 bc 	rlwinm  r9,r9,0,30,30
    3a70:	7d 2a 07 35 	extsh.  r10,r9
    3a74:	39 40 00 00 	li      r10,0
    3a78:	40 82 00 08 	bne-    3a80 <__swsetup_r+0x84>
    3a7c:	81 5f 00 14 	lwz     r10,20(r31)
    3a80:	91 5f 00 08 	stw     r10,8(r31)
    3a84:	41 9e 00 90 	beq-    cr7,3b14 <__swsetup_r+0x118>
    3a88:	38 60 00 00 	li      r3,0
    3a8c:	80 01 00 24 	lwz     r0,36(r1)
    3a90:	83 a1 00 14 	lwz     r29,20(r1)
    3a94:	7c 08 03 a6 	mtlr    r0
    3a98:	83 c1 00 18 	lwz     r30,24(r1)
    3a9c:	83 e1 00 1c 	lwz     r31,28(r1)
    3aa0:	38 21 00 20 	addi    r1,r1,32
    3aa4:	4e 80 00 20 	blr
    3aa8:	55 2a 06 f6 	rlwinm  r10,r9,0,27,27
    3aac:	7d 48 07 35 	extsh.  r8,r10
    3ab0:	41 82 00 d8 	beq-    3b88 <__swsetup_r+0x18c>
    3ab4:	55 2a 07 7a 	rlwinm  r10,r9,0,29,29
    3ab8:	7d 48 07 35 	extsh.  r8,r10
    3abc:	40 82 00 84 	bne-    3b40 <__swsetup_r+0x144>
    3ac0:	81 5f 00 10 	lwz     r10,16(r31)
    3ac4:	2f 8a 00 00 	cmpwi   cr7,r10,0
    3ac8:	61 29 00 08 	ori     r9,r9,8
    3acc:	b1 3f 00 0c 	sth     r9,12(r31)
    3ad0:	40 9e ff 94 	bne+    cr7,3a64 <__swsetup_r+0x68>
    3ad4:	71 2a 02 80 	andi.   r10,r9,640
    3ad8:	2f 0a 02 00 	cmpwi   cr6,r10,512
    3adc:	41 ba ff 88 	beq-    cr6,3a64 <__swsetup_r+0x68>
    3ae0:	7f a3 eb 78 	mr      r3,r29
    3ae4:	7f e4 fb 78 	mr      r4,r31
    3ae8:	48 00 26 c1 	bl      61a8 <__smakebuf_r>
    3aec:	81 5f 00 10 	lwz     r10,16(r31)
    3af0:	a9 3f 00 0c 	lha     r9,12(r31)
    3af4:	2f 8a 00 00 	cmpwi   cr7,r10,0
    3af8:	4b ff ff 6c 	b       3a64 <__swsetup_r+0x68>
    3afc:	81 3f 00 14 	lwz     r9,20(r31)
    3b00:	39 40 00 00 	li      r10,0
    3b04:	91 5f 00 08 	stw     r10,8(r31)
    3b08:	7d 29 00 d0 	neg     r9,r9
    3b0c:	91 3f 00 18 	stw     r9,24(r31)
    3b10:	40 9e ff 78 	bne+    cr7,3a88 <__swsetup_r+0x8c>
    3b14:	a9 3f 00 0c 	lha     r9,12(r31)
    3b18:	38 60 00 00 	li      r3,0
    3b1c:	55 2a 06 30 	rlwinm  r10,r9,0,24,24
    3b20:	7d 48 07 35 	extsh.  r8,r10
    3b24:	41 82 ff 68 	beq+    3a8c <__swsetup_r+0x90>
    3b28:	61 29 00 40 	ori     r9,r9,64
    3b2c:	38 60 ff ff 	li      r3,-1
    3b30:	b1 3f 00 0c 	sth     r9,12(r31)
    3b34:	4b ff ff 58 	b       3a8c <__swsetup_r+0x90>
    3b38:	48 00 1b 71 	bl      56a8 <__sinit>
    3b3c:	4b ff ff 0c 	b       3a48 <__swsetup_r+0x4c>
    3b40:	80 9f 00 30 	lwz     r4,48(r31)
    3b44:	2f 84 00 00 	cmpwi   cr7,r4,0
    3b48:	41 9e 00 24 	beq-    cr7,3b6c <__swsetup_r+0x170>
    3b4c:	39 5f 00 40 	addi    r10,r31,64
    3b50:	7f 84 50 00 	cmpw    cr7,r4,r10
    3b54:	41 9e 00 10 	beq-    cr7,3b64 <__swsetup_r+0x168>
    3b58:	7f a3 eb 78 	mr      r3,r29
    3b5c:	48 00 1f 31 	bl      5a8c <_free_r>
    3b60:	a9 3f 00 0c 	lha     r9,12(r31)
    3b64:	39 40 00 00 	li      r10,0
    3b68:	91 5f 00 30 	stw     r10,48(r31)
    3b6c:	39 00 00 00 	li      r8,0
    3b70:	81 5f 00 10 	lwz     r10,16(r31)
    3b74:	91 1f 00 04 	stw     r8,4(r31)
    3b78:	39 00 ff db 	li      r8,-37
    3b7c:	91 5f 00 00 	stw     r10,0(r31)
    3b80:	7d 29 40 38 	and     r9,r9,r8
    3b84:	4b ff ff 40 	b       3ac4 <__swsetup_r+0xc8>
    3b88:	61 29 00 40 	ori     r9,r9,64
    3b8c:	39 40 00 09 	li      r10,9
    3b90:	91 5d 00 00 	stw     r10,0(r29)
    3b94:	38 60 ff ff 	li      r3,-1
    3b98:	b1 3f 00 0c 	sth     r9,12(r31)
    3b9c:	4b ff fe f0 	b       3a8c <__swsetup_r+0x90>
    3ba0:	00 01 11 58 	.long 0x11158

00003ba4 <__call_exitprocs>:
    3ba4:	94 21 ff c0 	stwu    r1,-64(r1)
    3ba8:	7c 08 02 a6 	mflr    r0
    3bac:	42 9f 00 05 	bcl-    20,4*cr7+so,3bb0 <__call_exitprocs+0xc>
    3bb0:	7d 80 00 26 	mfcr    r12
    3bb4:	93 c1 00 38 	stw     r30,56(r1)
    3bb8:	7f c8 02 a6 	mflr    r30
    3bbc:	90 01 00 44 	stw     r0,68(r1)
    3bc0:	2e 04 00 00 	cmpwi   cr4,r4,0
    3bc4:	92 e1 00 1c 	stw     r23,28(r1)
    3bc8:	80 1e ff f0 	lwz     r0,-16(r30)
    3bcc:	92 61 00 0c 	stw     r19,12(r1)
    3bd0:	7f c0 f2 14 	add     r30,r0,r30
    3bd4:	92 81 00 10 	stw     r20,16(r1)
    3bd8:	81 3e 80 00 	lwz     r9,-32768(r30)
    3bdc:	93 41 00 28 	stw     r26,40(r1)
    3be0:	82 e9 00 00 	lwz     r23,0(r9)
    3be4:	81 3e 80 04 	lwz     r9,-32764(r30)
    3be8:	93 81 00 30 	stw     r28,48(r1)
    3bec:	93 a1 00 34 	stw     r29,52(r1)
    3bf0:	2d 89 00 00 	cmpwi   cr3,r9,0
    3bf4:	93 e1 00 3c 	stw     r31,60(r1)
    3bf8:	91 81 00 08 	stw     r12,8(r1)
    3bfc:	92 a1 00 14 	stw     r21,20(r1)
    3c00:	3a b7 01 48 	addi    r21,r23,328
    3c04:	92 c1 00 18 	stw     r22,24(r1)
    3c08:	7c 76 1b 78 	mr      r22,r3
    3c0c:	93 01 00 20 	stw     r24,32(r1)
    3c10:	3b 00 00 00 	li      r24,0
    3c14:	93 21 00 24 	stw     r25,36(r1)
    3c18:	3b 20 00 01 	li      r25,1
    3c1c:	93 61 00 2c 	stw     r27,44(r1)
    3c20:	7c 9b 23 78 	mr      r27,r4
    3c24:	83 97 01 48 	lwz     r28,328(r23)
    3c28:	7e b3 ab 78 	mr      r19,r21
    3c2c:	2f 9c 00 00 	cmpwi   cr7,r28,0
    3c30:	41 9e 00 40 	beq-    cr7,3c70 <__call_exitprocs+0xcc>
    3c34:	83 fc 00 04 	lwz     r31,4(r28)
    3c38:	37 ff ff ff 	addic.  r31,r31,-1
    3c3c:	41 80 00 30 	blt-    3c6c <__call_exitprocs+0xc8>
    3c40:	3b 5c 00 88 	addi    r26,r28,136
    3c44:	57 fd 10 3a 	rlwinm  r29,r31,2,0,29
    3c48:	7f ba ea 14 	add     r29,r26,r29
    3c4c:	41 92 00 70 	beq-    cr4,3cbc <__call_exitprocs+0x118>
    3c50:	81 3d 00 80 	lwz     r9,128(r29)
    3c54:	7f 89 d8 00 	cmpw    cr7,r9,r27
    3c58:	41 9e 00 64 	beq-    cr7,3cbc <__call_exitprocs+0x118>
    3c5c:	2f 9f 00 00 	cmpwi   cr7,r31,0
    3c60:	3b bd ff fc 	addi    r29,r29,-4
    3c64:	3b ff ff ff 	addi    r31,r31,-1
    3c68:	40 9e ff e4 	bne+    cr7,3c4c <__call_exitprocs+0xa8>
    3c6c:	40 8e 00 e8 	bne-    cr3,3d54 <__call_exitprocs+0x1b0>
    3c70:	80 01 00 44 	lwz     r0,68(r1)
    3c74:	81 81 00 08 	lwz     r12,8(r1)
    3c78:	7c 08 03 a6 	mtlr    r0
    3c7c:	82 61 00 0c 	lwz     r19,12(r1)
    3c80:	82 81 00 10 	lwz     r20,16(r1)
    3c84:	7d 81 81 20 	mtcrf   24,r12
    3c88:	82 a1 00 14 	lwz     r21,20(r1)
    3c8c:	82 c1 00 18 	lwz     r22,24(r1)
    3c90:	82 e1 00 1c 	lwz     r23,28(r1)
    3c94:	83 01 00 20 	lwz     r24,32(r1)
    3c98:	83 21 00 24 	lwz     r25,36(r1)
    3c9c:	83 41 00 28 	lwz     r26,40(r1)
    3ca0:	83 61 00 2c 	lwz     r27,44(r1)
    3ca4:	83 81 00 30 	lwz     r28,48(r1)
    3ca8:	83 a1 00 34 	lwz     r29,52(r1)
    3cac:	83 c1 00 38 	lwz     r30,56(r1)
    3cb0:	83 e1 00 3c 	lwz     r31,60(r1)
    3cb4:	38 21 00 40 	addi    r1,r1,64
    3cb8:	4e 80 00 20 	blr
    3cbc:	81 3c 00 04 	lwz     r9,4(r28)
    3cc0:	7d 5a e8 50 	subf    r10,r26,r29
    3cc4:	7d 5c 52 14 	add     r10,r28,r10
    3cc8:	39 29 ff ff 	addi    r9,r9,-1
    3ccc:	7f 89 f8 00 	cmpw    cr7,r9,r31
    3cd0:	81 2a 00 08 	lwz     r9,8(r10)
    3cd4:	41 9e 00 68 	beq-    cr7,3d3c <__call_exitprocs+0x198>
    3cd8:	93 0a 00 08 	stw     r24,8(r10)
    3cdc:	2f 89 00 00 	cmpwi   cr7,r9,0
    3ce0:	41 be ff 7c 	beq-    cr7,3c5c <__call_exitprocs+0xb8>
    3ce4:	81 1c 01 88 	lwz     r8,392(r28)
    3ce8:	7f 2a f8 30 	slw     r10,r25,r31
    3cec:	82 9c 00 04 	lwz     r20,4(r28)
    3cf0:	7d 47 40 39 	and.    r7,r10,r8
    3cf4:	41 82 00 3c 	beq-    3d30 <__call_exitprocs+0x18c>
    3cf8:	81 1c 01 8c 	lwz     r8,396(r28)
    3cfc:	7d 47 40 39 	and.    r7,r10,r8
    3d00:	40 82 00 44 	bne-    3d44 <__call_exitprocs+0x1a0>
    3d04:	7e c3 b3 78 	mr      r3,r22
    3d08:	80 9d 00 00 	lwz     r4,0(r29)
    3d0c:	7d 29 03 a6 	mtctr   r9
    3d10:	4e 80 04 21 	bctrl
    3d14:	81 3c 00 04 	lwz     r9,4(r28)
    3d18:	7f 89 a0 00 	cmpw    cr7,r9,r20
    3d1c:	40 be ff 08 	bne-    cr7,3c24 <__call_exitprocs+0x80>
    3d20:	81 33 00 00 	lwz     r9,0(r19)
    3d24:	7f 89 e0 00 	cmpw    cr7,r9,r28
    3d28:	41 9e ff 34 	beq+    cr7,3c5c <__call_exitprocs+0xb8>
    3d2c:	4b ff fe f8 	b       3c24 <__call_exitprocs+0x80>
    3d30:	7d 29 03 a6 	mtctr   r9
    3d34:	4e 80 04 21 	bctrl
    3d38:	4b ff ff dc 	b       3d14 <__call_exitprocs+0x170>
    3d3c:	93 fc 00 04 	stw     r31,4(r28)
    3d40:	4b ff ff 9c 	b       3cdc <__call_exitprocs+0x138>
    3d44:	80 7d 00 00 	lwz     r3,0(r29)
    3d48:	7d 29 03 a6 	mtctr   r9
    3d4c:	4e 80 04 21 	bctrl
    3d50:	4b ff ff c4 	b       3d14 <__call_exitprocs+0x170>
    3d54:	81 3c 00 04 	lwz     r9,4(r28)
    3d58:	2f 89 00 00 	cmpwi   cr7,r9,0
    3d5c:	81 3c 00 00 	lwz     r9,0(r28)
    3d60:	40 9e 00 24 	bne-    cr7,3d84 <__call_exitprocs+0x1e0>
    3d64:	2f 89 00 00 	cmpwi   cr7,r9,0
    3d68:	41 9e 00 18 	beq-    cr7,3d80 <__call_exitprocs+0x1dc>
    3d6c:	91 33 00 00 	stw     r9,0(r19)
    3d70:	7f 83 e3 78 	mr      r3,r28
    3d74:	4b ff c2 8d 	bl      0 <_.xy-0x4>
    3d78:	83 93 00 00 	lwz     r28,0(r19)
    3d7c:	4b ff fe b0 	b       3c2c <__call_exitprocs+0x88>
    3d80:	39 20 00 00 	li      r9,0
    3d84:	7f 93 e3 78 	mr      r19,r28
    3d88:	7d 3c 4b 78 	mr      r28,r9
    3d8c:	4b ff fe a0 	b       3c2c <__call_exitprocs+0x88>

00003d90 <quorem>:
    3d90:	7c 08 02 a6 	mflr    r0
    3d94:	94 21 ff d0 	stwu    r1,-48(r1)
    3d98:	93 a1 00 24 	stw     r29,36(r1)
    3d9c:	90 01 00 34 	stw     r0,52(r1)
    3da0:	83 a4 00 10 	lwz     r29,16(r4)
    3da4:	81 23 00 10 	lwz     r9,16(r3)
    3da8:	93 61 00 1c 	stw     r27,28(r1)
    3dac:	7c 7b 1b 78 	mr      r27,r3
    3db0:	7f 9d 48 00 	cmpw    cr7,r29,r9
    3db4:	93 21 00 14 	stw     r25,20(r1)
    3db8:	93 41 00 18 	stw     r26,24(r1)
    3dbc:	38 60 00 00 	li      r3,0
    3dc0:	93 81 00 20 	stw     r28,32(r1)
    3dc4:	93 c1 00 28 	stw     r30,40(r1)
    3dc8:	93 e1 00 2c 	stw     r31,44(r1)
    3dcc:	41 9d 01 ac 	bgt-    cr7,3f78 <quorem+0x1e8>
    3dd0:	39 3d 00 03 	addi    r9,r29,3
    3dd4:	3b e4 00 14 	addi    r31,r4,20
    3dd8:	55 29 10 3a 	rlwinm  r9,r9,2,0,29
    3ddc:	3b bd ff ff 	addi    r29,r29,-1
    3de0:	7f 24 4a 14 	add     r25,r4,r9
    3de4:	7d 3b 4a 14 	add     r9,r27,r9
    3de8:	81 59 00 04 	lwz     r10,4(r25)
    3dec:	3b 5b 00 14 	addi    r26,r27,20
    3df0:	83 89 00 04 	lwz     r28,4(r9)
    3df4:	3b 39 00 04 	addi    r25,r25,4
    3df8:	39 4a 00 01 	addi    r10,r10,1
    3dfc:	7f 9c 53 96 	divwu   r28,r28,r10
    3e00:	2f 9c 00 00 	cmpwi   cr7,r28,0
    3e04:	41 9e 00 c4 	beq-    cr7,3ec8 <quorem+0x138>
    3e08:	39 5b 00 10 	addi    r10,r27,16
    3e0c:	7f e9 fb 78 	mr      r9,r31
    3e10:	38 60 00 00 	li      r3,0
    3e14:	38 e0 00 00 	li      r7,0
    3e18:	81 09 00 00 	lwz     r8,0(r9)
    3e1c:	39 29 00 04 	addi    r9,r9,4
    3e20:	84 aa 00 04 	lwzu    r5,4(r10)
    3e24:	7f 99 48 40 	cmplw   cr7,r25,r9
    3e28:	55 0b 04 3e 	clrlwi  r11,r8,16
    3e2c:	55 08 84 3e 	rlwinm  r8,r8,16,16,31
    3e30:	7d 6b e1 d6 	mullw   r11,r11,r28
    3e34:	54 a6 04 3e 	clrlwi  r6,r5,16
    3e38:	7c e6 3a 14 	add     r7,r6,r7
    3e3c:	7d 08 e1 d6 	mullw   r8,r8,r28
    3e40:	7d 63 5a 14 	add     r11,r3,r11
    3e44:	55 66 84 3e 	rlwinm  r6,r11,16,16,31
    3e48:	55 6b 04 3e 	clrlwi  r11,r11,16
    3e4c:	7d 06 42 14 	add     r8,r6,r8
    3e50:	7c cb 38 50 	subf    r6,r11,r7
    3e54:	55 03 04 3e 	clrlwi  r3,r8,16
    3e58:	54 a7 84 3e 	rlwinm  r7,r5,16,16,31
    3e5c:	7c e3 38 50 	subf    r7,r3,r7
    3e60:	7c c3 86 70 	srawi   r3,r6,16
    3e64:	7c e7 1a 14 	add     r7,r7,r3
    3e68:	54 c6 04 3e 	clrlwi  r6,r6,16
    3e6c:	54 e5 80 1e 	rlwinm  r5,r7,16,0,15
    3e70:	55 03 84 3e 	rlwinm  r3,r8,16,16,31
    3e74:	7c a6 33 78 	or      r6,r5,r6
    3e78:	7c e7 86 70 	srawi   r7,r7,16
    3e7c:	90 ca 00 00 	stw     r6,0(r10)
    3e80:	40 9c ff 98 	bge+    cr7,3e18 <quorem+0x88>
    3e84:	39 3d 00 04 	addi    r9,r29,4
    3e88:	55 29 10 3a 	rlwinm  r9,r9,2,0,29
    3e8c:	7d 3b 4a 14 	add     r9,r27,r9
    3e90:	81 49 00 04 	lwz     r10,4(r9)
    3e94:	2f 8a 00 00 	cmpwi   cr7,r10,0
    3e98:	40 9e 00 30 	bne-    cr7,3ec8 <quorem+0x138>
    3e9c:	7f 9a 48 40 	cmplw   cr7,r26,r9
    3ea0:	41 bc 00 18 	blt+    cr7,3eb8 <quorem+0x128>
    3ea4:	48 00 00 20 	b       3ec4 <quorem+0x134>
    3ea8:	39 29 ff fc 	addi    r9,r9,-4
    3eac:	3b bd ff ff 	addi    r29,r29,-1
    3eb0:	7f 9a 48 40 	cmplw   cr7,r26,r9
    3eb4:	40 9c 00 10 	bge-    cr7,3ec4 <quorem+0x134>
    3eb8:	81 49 00 00 	lwz     r10,0(r9)
    3ebc:	2f 8a 00 00 	cmpwi   cr7,r10,0
    3ec0:	41 9e ff e8 	beq+    cr7,3ea8 <quorem+0x118>
    3ec4:	93 bb 00 10 	stw     r29,16(r27)
    3ec8:	7f 63 db 78 	mr      r3,r27
    3ecc:	48 00 39 15 	bl      77e0 <__mcmp>
    3ed0:	2f 83 00 00 	cmpwi   cr7,r3,0
    3ed4:	41 9c 00 a0 	blt-    cr7,3f74 <quorem+0x1e4>
    3ed8:	3b 9c 00 01 	addi    r28,r28,1
    3edc:	39 3b 00 10 	addi    r9,r27,16
    3ee0:	39 40 00 00 	li      r10,0
    3ee4:	84 c9 00 04 	lwzu    r6,4(r9)
    3ee8:	80 ff 00 00 	lwz     r7,0(r31)
    3eec:	3b ff 00 04 	addi    r31,r31,4
    3ef0:	54 c8 04 3e 	clrlwi  r8,r6,16
    3ef4:	7f 99 f8 40 	cmplw   cr7,r25,r31
    3ef8:	54 e5 04 3e 	clrlwi  r5,r7,16
    3efc:	7d 48 52 14 	add     r10,r8,r10
    3f00:	7d 05 50 50 	subf    r8,r5,r10
    3f04:	54 e7 84 3e 	rlwinm  r7,r7,16,16,31
    3f08:	54 ca 84 3e 	rlwinm  r10,r6,16,16,31
    3f0c:	7d 05 86 70 	srawi   r5,r8,16
    3f10:	7d 47 50 50 	subf    r10,r7,r10
    3f14:	55 08 04 3e 	clrlwi  r8,r8,16
    3f18:	7d 4a 2a 14 	add     r10,r10,r5
    3f1c:	55 47 80 1e 	rlwinm  r7,r10,16,0,15
    3f20:	7d 4a 86 70 	srawi   r10,r10,16
    3f24:	7c e8 43 78 	or      r8,r7,r8
    3f28:	91 09 00 00 	stw     r8,0(r9)
    3f2c:	40 9c ff b8 	bge+    cr7,3ee4 <quorem+0x154>
    3f30:	39 3d 00 04 	addi    r9,r29,4
    3f34:	55 29 10 3a 	rlwinm  r9,r9,2,0,29
    3f38:	7d 3b 4a 14 	add     r9,r27,r9
    3f3c:	81 49 00 04 	lwz     r10,4(r9)
    3f40:	2f 8a 00 00 	cmpwi   cr7,r10,0
    3f44:	40 9e 00 30 	bne-    cr7,3f74 <quorem+0x1e4>
    3f48:	7f 9a 48 40 	cmplw   cr7,r26,r9
    3f4c:	41 bc 00 18 	blt+    cr7,3f64 <quorem+0x1d4>
    3f50:	48 00 00 20 	b       3f70 <quorem+0x1e0>
    3f54:	39 29 ff fc 	addi    r9,r9,-4
    3f58:	3b bd ff ff 	addi    r29,r29,-1
    3f5c:	7f 9a 48 40 	cmplw   cr7,r26,r9
    3f60:	40 9c 00 10 	bge-    cr7,3f70 <quorem+0x1e0>
    3f64:	81 49 00 00 	lwz     r10,0(r9)
    3f68:	2f 8a 00 00 	cmpwi   cr7,r10,0
    3f6c:	41 9e ff e8 	beq+    cr7,3f54 <quorem+0x1c4>
    3f70:	93 bb 00 10 	stw     r29,16(r27)
    3f74:	7f 83 e3 78 	mr      r3,r28
    3f78:	80 01 00 34 	lwz     r0,52(r1)
    3f7c:	83 21 00 14 	lwz     r25,20(r1)
    3f80:	7c 08 03 a6 	mtlr    r0
    3f84:	83 41 00 18 	lwz     r26,24(r1)
    3f88:	83 61 00 1c 	lwz     r27,28(r1)
    3f8c:	83 81 00 20 	lwz     r28,32(r1)
    3f90:	83 a1 00 24 	lwz     r29,36(r1)
    3f94:	83 c1 00 28 	lwz     r30,40(r1)
    3f98:	83 e1 00 2c 	lwz     r31,44(r1)
    3f9c:	38 21 00 30 	addi    r1,r1,48
    3fa0:	4e 80 00 20 	blr
    3fa4:	00 01 0d 5c 	.long 0x10d5c

00003fa8 <_dtoa_r>:
    3fa8:	7c 08 02 a6 	mflr    r0
    3fac:	94 21 fe d0 	stwu    r1,-304(r1)
    3fb0:	42 9f 00 05 	bcl-    20,4*cr7+so,3fb4 <_dtoa_r+0xc>
    3fb4:	7d 80 00 26 	mfcr    r12
    3fb8:	93 c1 01 20 	stw     r30,288(r1)
    3fbc:	7f c8 02 a6 	mflr    r30
    3fc0:	90 01 01 34 	stw     r0,308(r1)
    3fc4:	92 01 00 e8 	stw     r16,232(r1)
    3fc8:	81 23 00 40 	lwz     r9,64(r3)
    3fcc:	80 1e ff f0 	lwz     r0,-16(r30)
    3fd0:	2f 89 00 00 	cmpwi   cr7,r9,0
    3fd4:	d8 21 00 d0 	stfd    f1,208(r1)
    3fd8:	92 21 00 ec 	stw     r17,236(r1)
    3fdc:	7f c0 f2 14 	add     r30,r0,r30
    3fe0:	92 81 00 f8 	stw     r20,248(r1)
    3fe4:	7c b4 2b 78 	mr      r20,r5
    3fe8:	92 c1 01 00 	stw     r22,256(r1)
    3fec:	7c d6 33 78 	mr      r22,r6
    3ff0:	93 21 01 0c 	stw     r25,268(r1)
    3ff4:	7d 19 43 78 	mr      r25,r8
    3ff8:	93 41 01 10 	stw     r26,272(r1)
    3ffc:	7c 9a 23 78 	mr      r26,r4
    4000:	93 81 01 18 	stw     r28,280(r1)
    4004:	7c fc 3b 78 	mr      r28,r7
    4008:	93 e1 01 24 	stw     r31,292(r1)
    400c:	7c 7f 1b 78 	mr      r31,r3
    4010:	db e1 01 28 	stfd    f31,296(r1)
    4014:	91 c1 00 e0 	stw     r14,224(r1)
    4018:	91 e1 00 e4 	stw     r15,228(r1)
    401c:	92 41 00 f0 	stw     r18,240(r1)
    4020:	92 61 00 f4 	stw     r19,244(r1)
    4024:	92 a1 00 fc 	stw     r21,252(r1)
    4028:	92 e1 01 04 	stw     r23,260(r1)
    402c:	93 01 01 08 	stw     r24,264(r1)
    4030:	93 61 01 14 	stw     r27,276(r1)
    4034:	93 a1 01 1c 	stw     r29,284(r1)
    4038:	91 81 00 dc 	stw     r12,220(r1)
    403c:	82 01 00 d0 	lwz     r16,208(r1)
    4040:	82 21 00 d4 	lwz     r17,212(r1)
    4044:	41 9e 00 28 	beq-    cr7,406c <_dtoa_r+0xc4>
    4048:	81 43 00 44 	lwz     r10,68(r3)
    404c:	39 00 00 01 	li      r8,1
    4050:	7d 24 4b 78 	mr      r4,r9
    4054:	7d 08 50 30 	slw     r8,r8,r10
    4058:	91 49 00 04 	stw     r10,4(r9)
    405c:	91 09 00 08 	stw     r8,8(r9)
    4060:	48 00 2e 8d 	bl      6eec <_Bfree>
    4064:	39 20 00 00 	li      r9,0
    4068:	91 3f 00 40 	stw     r9,64(r31)
    406c:	7e 1d 83 79 	mr.     r29,r16
    4070:	41 80 00 f4 	blt-    4164 <_dtoa_r+0x1bc>
    4074:	39 20 00 00 	li      r9,0
    4078:	91 3c 00 00 	stw     r9,0(r28)
    407c:	57 aa 00 56 	rlwinm  r10,r29,0,1,11
    4080:	3d 20 7f f0 	lis     r9,32752
    4084:	7f 8a 48 00 	cmpw    cr7,r10,r9
    4088:	41 9e 00 a4 	beq-    cr7,412c <_dtoa_r+0x184>
    408c:	81 de 80 0c 	lwz     r14,-32756(r30)
    4090:	92 01 00 d0 	stw     r16,208(r1)
    4094:	92 21 00 d4 	stw     r17,212(r1)
    4098:	c0 0e 00 00 	lfs     f0,0(r14)
    409c:	cb e1 00 d0 	lfd     f31,208(r1)
    40a0:	ff 9f 00 00 	fcmpu   cr7,f31,f0
    40a4:	40 9e 00 d4 	bne-    cr7,4178 <_dtoa_r+0x1d0>
    40a8:	2f 99 00 00 	cmpwi   cr7,r25,0
    40ac:	39 20 00 01 	li      r9,1
    40b0:	91 36 00 00 	stw     r9,0(r22)
    40b4:	41 9e 05 04 	beq-    cr7,45b8 <_dtoa_r+0x610>
    40b8:	83 7e 80 10 	lwz     r27,-32752(r30)
    40bc:	93 79 00 00 	stw     r27,0(r25)
    40c0:	3b 7b ff ff 	addi    r27,r27,-1
    40c4:	80 01 01 34 	lwz     r0,308(r1)
    40c8:	7f 63 db 78 	mr      r3,r27
    40cc:	81 81 00 dc 	lwz     r12,220(r1)
    40d0:	7c 08 03 a6 	mtlr    r0
    40d4:	81 c1 00 e0 	lwz     r14,224(r1)
    40d8:	81 e1 00 e4 	lwz     r15,228(r1)
    40dc:	7d 83 81 20 	mtcrf   56,r12
    40e0:	82 01 00 e8 	lwz     r16,232(r1)
    40e4:	82 21 00 ec 	lwz     r17,236(r1)
    40e8:	82 41 00 f0 	lwz     r18,240(r1)
    40ec:	82 61 00 f4 	lwz     r19,244(r1)
    40f0:	82 81 00 f8 	lwz     r20,248(r1)
    40f4:	82 a1 00 fc 	lwz     r21,252(r1)
    40f8:	82 c1 01 00 	lwz     r22,256(r1)
    40fc:	82 e1 01 04 	lwz     r23,260(r1)
    4100:	83 01 01 08 	lwz     r24,264(r1)
    4104:	83 21 01 0c 	lwz     r25,268(r1)
    4108:	83 41 01 10 	lwz     r26,272(r1)
    410c:	83 61 01 14 	lwz     r27,276(r1)
    4110:	83 81 01 18 	lwz     r28,280(r1)
    4114:	83 a1 01 1c 	lwz     r29,284(r1)
    4118:	83 c1 01 20 	lwz     r30,288(r1)
    411c:	83 e1 01 24 	lwz     r31,292(r1)
    4120:	cb e1 01 28 	lfd     f31,296(r1)
    4124:	38 21 01 30 	addi    r1,r1,304
    4128:	4e 80 00 20 	blr
    412c:	2f 91 00 00 	cmpwi   cr7,r17,0
    4130:	39 20 27 0f 	li      r9,9999
    4134:	91 36 00 00 	stw     r9,0(r22)
    4138:	41 9e 04 0c 	beq-    cr7,4544 <_dtoa_r+0x59c>
    413c:	83 7e 80 04 	lwz     r27,-32764(r30)
    4140:	2f 99 00 00 	cmpwi   cr7,r25,0
    4144:	41 be ff 80 	beq-    cr7,40c4 <_dtoa_r+0x11c>
    4148:	7f 69 db 78 	mr      r9,r27
    414c:	8d 49 00 03 	lbzu    r10,3(r9)
    4150:	2f 8a 00 00 	cmpwi   cr7,r10,0
    4154:	41 9e 00 08 	beq-    cr7,415c <_dtoa_r+0x1b4>
    4158:	39 3b 00 08 	addi    r9,r27,8
    415c:	91 39 00 00 	stw     r9,0(r25)
    4160:	4b ff ff 64 	b       40c4 <_dtoa_r+0x11c>
    4164:	57 bd 00 7e 	clrlwi  r29,r29,1
    4168:	39 20 00 01 	li      r9,1
    416c:	91 3c 00 00 	stw     r9,0(r28)
    4170:	7f b0 eb 78 	mr      r16,r29
    4174:	4b ff ff 08 	b       407c <_dtoa_r+0xd4>
    4178:	fc 20 f8 90 	fmr     f1,f31
    417c:	7f e3 fb 78 	mr      r3,r31
    4180:	38 81 00 08 	addi    r4,r1,8
    4184:	38 a1 00 0c 	addi    r5,r1,12
    4188:	48 00 3a b9 	bl      7c40 <__d2b>
    418c:	57 a9 65 7f 	rlwinm. r9,r29,12,21,31
    4190:	7c 7c 1b 78 	mr      r28,r3
    4194:	41 82 03 c0 	beq-    4554 <_dtoa_r+0x5ac>
    4198:	db e1 00 b0 	stfd    f31,176(r1)
    419c:	39 29 fc 01 	addi    r9,r9,-1023
    41a0:	80 e1 00 0c 	lwz     r7,12(r1)
    41a4:	81 01 00 b0 	lwz     r8,176(r1)
    41a8:	55 0a 03 3e 	clrlwi  r10,r8,12
    41ac:	65 4a 3f f0 	oris    r10,r10,16368
    41b0:	91 41 00 b0 	stw     r10,176(r1)
    41b4:	39 40 00 00 	li      r10,0
    41b8:	91 41 00 c8 	stw     r10,200(r1)
    41bc:	6d 26 80 00 	xoris   r6,r9,32768
    41c0:	3d 40 43 30 	lis     r10,17200
    41c4:	90 c1 00 24 	stw     r6,36(r1)
    41c8:	80 de 80 1c 	lwz     r6,-32740(r30)
    41cc:	c8 01 00 b0 	lfd     f0,176(r1)
    41d0:	c1 86 00 00 	lfs     f12,0(r6)
    41d4:	91 41 00 20 	stw     r10,32(r1)
    41d8:	80 de 80 24 	lwz     r6,-32732(r30)
    41dc:	fd 80 60 28 	fsub    f12,f0,f12
    41e0:	81 1e 80 18 	lwz     r8,-32744(r30)
    41e4:	c9 66 00 00 	lfd     f11,0(r6)
    41e8:	c8 01 00 20 	lfd     f0,32(r1)
    41ec:	80 de 80 20 	lwz     r6,-32736(r30)
    41f0:	c1 a8 00 00 	lfs     f13,0(r8)
    41f4:	fd 40 68 28 	fsub    f10,f0,f13
    41f8:	c8 06 00 00 	lfd     f0,0(r6)
    41fc:	80 de 80 28 	lwz     r6,-32728(r30)
    4200:	fd 8c 58 3a 	fmadd   f12,f12,f0,f11
    4204:	c1 6e 00 00 	lfs     f11,0(r14)
    4208:	c8 06 00 00 	lfd     f0,0(r6)
    420c:	fc 0a 60 3a 	fmadd   f0,f10,f0,f12
    4210:	fd 80 00 1e 	fctiwz  f12,f0
    4214:	ff 80 58 00 	fcmpu   cr7,f0,f11
    4218:	d9 81 00 28 	stfd    f12,40(r1)
    421c:	82 e1 00 2c 	lwz     r23,44(r1)
    4220:	41 9c 05 94 	blt-    cr7,47b4 <_dtoa_r+0x80c>
    4224:	2b 97 00 16 	cmplwi  cr7,r23,22
    4228:	39 00 00 01 	li      r8,1
    422c:	91 01 00 b0 	stw     r8,176(r1)
    4230:	41 9d 00 30 	bgt-    cr7,4260 <_dtoa_r+0x2b8>
    4234:	81 5e 80 2c 	lwz     r10,-32724(r30)
    4238:	56 e6 18 38 	rlwinm  r6,r23,3,0,28
    423c:	92 01 00 d0 	stw     r16,208(r1)
    4240:	92 21 00 d4 	stw     r17,212(r1)
    4244:	7c 0a 34 ae 	lfdx    f0,r10,r6
    4248:	c9 01 00 d0 	lfd     f8,208(r1)
    424c:	ff 80 40 00 	fcmpu   cr7,f0,f8
    4250:	40 9d 08 20 	ble-    cr7,4a70 <_dtoa_r+0xac8>
    4254:	39 00 00 00 	li      r8,0
    4258:	3a f7 ff ff 	addi    r23,r23,-1
    425c:	91 01 00 b0 	stw     r8,176(r1)
    4260:	7c e9 38 50 	subf    r7,r9,r7
    4264:	3a 60 00 00 	li      r19,0
    4268:	35 e7 ff ff 	addic.  r15,r7,-1
    426c:	41 80 05 74 	blt-    47e0 <_dtoa_r+0x838>
    4270:	2e 17 00 00 	cmpwi   cr4,r23,0
    4274:	41 90 05 2c 	blt-    cr4,47a0 <_dtoa_r+0x7f8>
    4278:	92 e1 00 c0 	stw     r23,192(r1)
    427c:	7d ef ba 14 	add     r15,r15,r23
    4280:	3b 00 00 00 	li      r24,0
    4284:	2b 9a 00 09 	cmplwi  cr7,r26,9
    4288:	41 9d 03 38 	bgt-    cr7,45c0 <_dtoa_r+0x618>
    428c:	2f 9a 00 05 	cmpwi   cr7,r26,5
    4290:	38 a0 00 01 	li      r5,1
    4294:	40 9d 00 0c 	ble-    cr7,42a0 <_dtoa_r+0x2f8>
    4298:	3b 5a ff fc 	addi    r26,r26,-4
    429c:	38 a0 00 00 	li      r5,0
    42a0:	2f 9a 00 03 	cmpwi   cr7,r26,3
    42a4:	41 9e 0b 44 	beq-    cr7,4de8 <_dtoa_r+0xe40>
    42a8:	41 9d 08 bc 	bgt-    cr7,4b64 <_dtoa_r+0xbbc>
    42ac:	2f 9a 00 02 	cmpwi   cr7,r26,2
    42b0:	40 be 03 14 	bne+    cr7,45c4 <_dtoa_r+0x61c>
    42b4:	3a 40 00 00 	li      r18,0
    42b8:	2f 94 00 00 	cmpwi   cr7,r20,0
    42bc:	40 9d 0b 64 	ble-    cr7,4e20 <_dtoa_r+0xe78>
    42c0:	92 81 00 c4 	stw     r20,196(r1)
    42c4:	7e 9d a3 78 	mr      r29,r20
    42c8:	7e 95 a3 78 	mr      r21,r20
    42cc:	2b 9d 00 17 	cmplwi  cr7,r29,23
    42d0:	39 20 00 00 	li      r9,0
    42d4:	91 3f 00 44 	stw     r9,68(r31)
    42d8:	38 80 00 00 	li      r4,0
    42dc:	40 9d 00 28 	ble-    cr7,4304 <_dtoa_r+0x35c>
    42e0:	39 40 00 01 	li      r10,1
    42e4:	39 20 00 04 	li      r9,4
    42e8:	55 29 08 3c 	rlwinm  r9,r9,1,0,30
    42ec:	38 89 00 14 	addi    r4,r9,20
    42f0:	7f 84 e8 40 	cmplw   cr7,r4,r29
    42f4:	7d 44 53 78 	mr      r4,r10
    42f8:	39 4a 00 01 	addi    r10,r10,1
    42fc:	40 9d ff ec 	ble+    cr7,42e8 <_dtoa_r+0x340>
    4300:	90 9f 00 44 	stw     r4,68(r31)
    4304:	7f e3 fb 78 	mr      r3,r31
    4308:	90 a1 00 cc 	stw     r5,204(r1)
    430c:	48 00 2b 19 	bl      6e24 <_Balloc>
    4310:	2b 9d 00 0e 	cmplwi  cr7,r29,14
    4314:	7c 7b 1b 78 	mr      r27,r3
    4318:	90 7f 00 40 	stw     r3,64(r31)
    431c:	80 a1 00 cc 	lwz     r5,204(r1)
    4320:	41 9d 02 d4 	bgt-    cr7,45f4 <_dtoa_r+0x64c>
    4324:	2f 85 00 00 	cmpwi   cr7,r5,0
    4328:	41 9e 02 cc 	beq-    cr7,45f4 <_dtoa_r+0x64c>
    432c:	92 01 00 d0 	stw     r16,208(r1)
    4330:	92 21 00 d4 	stw     r17,212(r1)
    4334:	c9 21 00 d0 	lfd     f9,208(r1)
    4338:	40 91 0b 5c 	ble-    cr4,4e94 <_dtoa_r+0xeec>
    433c:	7e e9 26 70 	srawi   r9,r23,4
    4340:	56 e5 1e 78 	rlwinm  r5,r23,3,25,28
    4344:	71 2a 00 10 	andi.   r10,r9,16
    4348:	81 5e 80 2c 	lwz     r10,-32724(r30)
    434c:	7c 0a 2c ae 	lfdx    f0,r10,r5
    4350:	41 82 0a c4 	beq-    4e14 <_dtoa_r+0xe6c>
    4354:	81 5e 80 30 	lwz     r10,-32720(r30)
    4358:	55 29 07 3e 	clrlwi  r9,r9,28
    435c:	38 a0 00 03 	li      r5,3
    4360:	c9 0a 00 20 	lfd     f8,32(r10)
    4364:	fd a9 40 24 	fdiv    f13,f9,f8
    4368:	2f 89 00 00 	cmpwi   cr7,r9,0
    436c:	41 9e 00 2c 	beq-    cr7,4398 <_dtoa_r+0x3f0>
    4370:	81 5e 80 30 	lwz     r10,-32720(r30)
    4374:	55 28 07 fe 	clrlwi  r8,r9,31
    4378:	7d 29 0e 71 	srawi.  r9,r9,1
    437c:	2f 88 00 00 	cmpwi   cr7,r8,0
    4380:	41 9e 00 10 	beq-    cr7,4390 <_dtoa_r+0x3e8>
    4384:	c9 0a 00 00 	lfd     f8,0(r10)
    4388:	38 a5 00 01 	addi    r5,r5,1
    438c:	fc 00 02 32 	fmul    f0,f0,f8
    4390:	39 4a 00 08 	addi    r10,r10,8
    4394:	40 82 ff e0 	bne+    4374 <_dtoa_r+0x3cc>
    4398:	fc 0d 00 24 	fdiv    f0,f13,f0
    439c:	81 01 00 b0 	lwz     r8,176(r1)
    43a0:	2f 88 00 00 	cmpwi   cr7,r8,0
    43a4:	41 9e 00 14 	beq-    cr7,43b8 <_dtoa_r+0x410>
    43a8:	81 3e 80 34 	lwz     r9,-32716(r30)
    43ac:	c1 a9 00 00 	lfs     f13,0(r9)
    43b0:	ff 80 68 00 	fcmpu   cr7,f0,f13
    43b4:	41 9c 0c c4 	blt-    cr7,5078 <_dtoa_r+0x10d0>
    43b8:	3d 20 43 30 	lis     r9,17200
    43bc:	6c a5 80 00 	xoris   r5,r5,32768
    43c0:	91 21 00 40 	stw     r9,64(r1)
    43c4:	2f 95 00 00 	cmpwi   cr7,r21,0
    43c8:	90 a1 00 44 	stw     r5,68(r1)
    43cc:	81 1e 80 18 	lwz     r8,-32744(r30)
    43d0:	c9 01 00 40 	lfd     f8,64(r1)
    43d4:	c1 88 00 00 	lfs     f12,0(r8)
    43d8:	81 3e 80 3c 	lwz     r9,-32708(r30)
    43dc:	fd 88 60 28 	fsub    f12,f8,f12
    43e0:	c1 a9 00 00 	lfs     f13,0(r9)
    43e4:	fd ac 68 3a 	fmadd   f13,f12,f0,f13
    43e8:	d9 a1 00 d0 	stfd    f13,208(r1)
    43ec:	81 41 00 d0 	lwz     r10,208(r1)
    43f0:	81 61 00 d4 	lwz     r11,212(r1)
    43f4:	3d 4a fc c0 	addis   r10,r10,-832
    43f8:	41 9e 09 a0 	beq-    cr7,4d98 <_dtoa_r+0xdf0>
    43fc:	7e e4 bb 78 	mr      r4,r23
    4400:	7e ac ab 78 	mr      r12,r21
    4404:	2f 92 00 00 	cmpwi   cr7,r18,0
    4408:	41 9e 0b 34 	beq-    cr7,4f3c <_dtoa_r+0xf94>
    440c:	81 3e 80 2c 	lwz     r9,-32724(r30)
    4410:	38 ac ff ff 	addi    r5,r12,-1
    4414:	54 a5 18 38 	rlwinm  r5,r5,3,0,28
    4418:	fd a0 00 1e 	fctiwz  f13,f0
    441c:	7d 89 2c ae 	lfdx    f12,r9,r5
    4420:	3c a0 43 30 	lis     r5,17200
    4424:	81 3e 80 44 	lwz     r9,-32700(r30)
    4428:	3b bb 00 01 	addi    r29,r27,1
    442c:	d9 a1 00 48 	stfd    f13,72(r1)
    4430:	c1 09 00 00 	lfs     f8,0(r9)
    4434:	81 1e 80 18 	lwz     r8,-32744(r30)
    4438:	fd 08 60 24 	fdiv    f8,f8,f12
    443c:	81 21 00 4c 	lwz     r9,76(r1)
    4440:	90 a1 00 50 	stw     r5,80(r1)
    4444:	c1 48 00 00 	lfs     f10,0(r8)
    4448:	6d 25 80 00 	xoris   r5,r9,32768
    444c:	90 a1 00 54 	stw     r5,84(r1)
    4450:	39 29 00 30 	addi    r9,r9,48
    4454:	91 41 00 d0 	stw     r10,208(r1)
    4458:	55 29 06 3e 	clrlwi  r9,r9,24
    445c:	c9 61 00 50 	lfd     f11,80(r1)
    4460:	91 61 00 d4 	stw     r11,212(r1)
    4464:	c9 a1 00 d0 	lfd     f13,208(r1)
    4468:	99 3b 00 00 	stb     r9,0(r27)
    446c:	fd 80 50 90 	fmr     f12,f10
    4470:	fd a8 68 28 	fsub    f13,f8,f13
    4474:	fd 8b 60 28 	fsub    f12,f11,f12
    4478:	fc 00 60 28 	fsub    f0,f0,f12
    447c:	ff 8d 00 00 	fcmpu   cr7,f13,f0
    4480:	41 9d 00 94 	bgt-    cr7,4514 <_dtoa_r+0x56c>
    4484:	80 7e 80 34 	lwz     r3,-32716(r30)
    4488:	c1 83 00 00 	lfs     f12,0(r3)
    448c:	fd 8c 00 28 	fsub    f12,f12,f0
    4490:	ff 8d 60 00 	fcmpu   cr7,f13,f12
    4494:	41 9d 0c ac 	bgt-    cr7,5140 <_dtoa_r+0x1198>
    4498:	2f 8c 00 01 	cmpwi   cr7,r12,1
    449c:	40 9d 09 e8 	ble-    cr7,4e84 <_dtoa_r+0xedc>
    44a0:	80 be 80 38 	lwz     r5,-32712(r30)
    44a4:	7d 9b 62 14 	add     r12,r27,r12
    44a8:	7d 9d 60 50 	subf    r12,r29,r12
    44ac:	c1 85 00 00 	lfs     f12,0(r5)
    44b0:	7d 89 03 a6 	mtctr   r12
    44b4:	3c a0 43 30 	lis     r5,17200
    44b8:	48 00 00 18 	b       44d0 <_dtoa_r+0x528>
    44bc:	c1 63 00 00 	lfs     f11,0(r3)
    44c0:	fd 6b 00 28 	fsub    f11,f11,f0
    44c4:	ff 8b 68 00 	fcmpu   cr7,f11,f13
    44c8:	41 9c 0c 78 	blt-    cr7,5140 <_dtoa_r+0x1198>
    44cc:	42 40 09 b8 	bdz-    4e84 <_dtoa_r+0xedc>
    44d0:	fc 00 03 32 	fmul    f0,f0,f12
    44d4:	90 a1 00 60 	stw     r5,96(r1)
    44d8:	fd ad 03 32 	fmul    f13,f13,f12
    44dc:	fd 60 00 1e 	fctiwz  f11,f0
    44e0:	d9 61 00 58 	stfd    f11,88(r1)
    44e4:	81 21 00 5c 	lwz     r9,92(r1)
    44e8:	6d 2a 80 00 	xoris   r10,r9,32768
    44ec:	39 29 00 30 	addi    r9,r9,48
    44f0:	91 41 00 64 	stw     r10,100(r1)
    44f4:	55 29 06 3e 	clrlwi  r9,r9,24
    44f8:	c9 01 00 60 	lfd     f8,96(r1)
    44fc:	99 3d 00 00 	stb     r9,0(r29)
    4500:	3b bd 00 01 	addi    r29,r29,1
    4504:	fd 68 50 28 	fsub    f11,f8,f10
    4508:	fc 00 58 28 	fsub    f0,f0,f11
    450c:	ff 80 68 00 	fcmpu   cr7,f0,f13
    4510:	40 9c ff ac 	bge+    cr7,44bc <_dtoa_r+0x514>
    4514:	7c 97 23 78 	mr      r23,r4
    4518:	7f e3 fb 78 	mr      r3,r31
    451c:	7f 84 e3 78 	mr      r4,r28
    4520:	48 00 29 cd 	bl      6eec <_Bfree>
    4524:	2f 99 00 00 	cmpwi   cr7,r25,0
    4528:	3a f7 00 01 	addi    r23,r23,1
    452c:	39 20 00 00 	li      r9,0
    4530:	99 3d 00 00 	stb     r9,0(r29)
    4534:	92 f6 00 00 	stw     r23,0(r22)
    4538:	41 be fb 8c 	beq-    cr7,40c4 <_dtoa_r+0x11c>
    453c:	93 b9 00 00 	stw     r29,0(r25)
    4540:	4b ff fb 84 	b       40c4 <_dtoa_r+0x11c>
    4544:	57 a8 03 3f 	clrlwi. r8,r29,12
    4548:	40 a2 fb f4 	bne-    413c <_dtoa_r+0x194>
    454c:	83 7e 80 00 	lwz     r27,-32768(r30)
    4550:	4b ff fb f0 	b       4140 <_dtoa_r+0x198>
    4554:	80 e1 00 0c 	lwz     r7,12(r1)
    4558:	81 21 00 08 	lwz     r9,8(r1)
    455c:	7d 27 4a 14 	add     r9,r7,r9
    4560:	2f 89 fb ef 	cmpwi   cr7,r9,-1041
    4564:	41 9c 05 00 	blt-    cr7,4a64 <_dtoa_r+0xabc>
    4568:	20 c9 fc 0e 	subfic  r6,r9,-1010
    456c:	39 49 04 12 	addi    r10,r9,1042
    4570:	7f bd 30 30 	slw     r29,r29,r6
    4574:	7e 2a 54 30 	srw     r10,r17,r10
    4578:	7f bd 53 78 	or      r29,r29,r10
    457c:	3d 40 43 30 	lis     r10,17200
    4580:	93 a1 00 1c 	stw     r29,28(r1)
    4584:	91 41 00 18 	stw     r10,24(r1)
    4588:	39 00 00 01 	li      r8,1
    458c:	81 5e 80 14 	lwz     r10,-32748(r30)
    4590:	39 29 ff ff 	addi    r9,r9,-1
    4594:	c9 01 00 18 	lfd     f8,24(r1)
    4598:	c0 0a 00 00 	lfs     f0,0(r10)
    459c:	91 01 00 c8 	stw     r8,200(r1)
    45a0:	fc 08 00 28 	fsub    f0,f8,f0
    45a4:	d8 01 00 b0 	stfd    f0,176(r1)
    45a8:	81 41 00 b0 	lwz     r10,176(r1)
    45ac:	3d 4a fe 10 	addis   r10,r10,-496
    45b0:	91 41 00 b0 	stw     r10,176(r1)
    45b4:	4b ff fc 08 	b       41bc <_dtoa_r+0x214>
    45b8:	83 7e 80 08 	lwz     r27,-32760(r30)
    45bc:	4b ff fb 08 	b       40c4 <_dtoa_r+0x11c>
    45c0:	3b 40 00 00 	li      r26,0
    45c4:	39 20 00 00 	li      r9,0
    45c8:	7f e3 fb 78 	mr      r3,r31
    45cc:	91 3f 00 44 	stw     r9,68(r31)
    45d0:	38 80 00 00 	li      r4,0
    45d4:	3a a0 ff ff 	li      r21,-1
    45d8:	3a 80 00 00 	li      r20,0
    45dc:	48 00 28 49 	bl      6e24 <_Balloc>
    45e0:	39 20 ff ff 	li      r9,-1
    45e4:	90 7f 00 40 	stw     r3,64(r31)
    45e8:	7c 7b 1b 78 	mr      r27,r3
    45ec:	91 21 00 c4 	stw     r9,196(r1)
    45f0:	3a 40 00 01 	li      r18,1
    45f4:	81 21 00 08 	lwz     r9,8(r1)
    45f8:	2f 89 00 00 	cmpwi   cr7,r9,0
    45fc:	41 9c 01 58 	blt-    cr7,4754 <_dtoa_r+0x7ac>
    4600:	2f 97 00 0e 	cmpwi   cr7,r23,14
    4604:	41 9d 01 50 	bgt-    cr7,4754 <_dtoa_r+0x7ac>
    4608:	2f 94 00 00 	cmpwi   cr7,r20,0
    460c:	81 3e 80 2c 	lwz     r9,-32724(r30)
    4610:	56 ea 18 38 	rlwinm  r10,r23,3,0,28
    4614:	7d a9 54 ae 	lfdx    f13,r9,r10
    4618:	41 9c 05 f0 	blt-    cr7,4c08 <_dtoa_r+0xc60>
    461c:	92 01 00 d0 	stw     r16,208(r1)
    4620:	3d 20 43 30 	lis     r9,17200
    4624:	92 21 00 d4 	stw     r17,212(r1)
    4628:	2f 95 00 01 	cmpwi   cr7,r21,1
    462c:	81 1e 80 18 	lwz     r8,-32744(r30)
    4630:	3b bb 00 01 	addi    r29,r27,1
    4634:	c9 81 00 d0 	lfd     f12,208(r1)
    4638:	91 21 00 90 	stw     r9,144(r1)
    463c:	fd 6c 68 24 	fdiv    f11,f12,f13
    4640:	c1 48 00 00 	lfs     f10,0(r8)
    4644:	fd 60 58 1e 	fctiwz  f11,f11
    4648:	fc 00 50 90 	fmr     f0,f10
    464c:	d9 61 00 88 	stfd    f11,136(r1)
    4650:	81 41 00 8c 	lwz     r10,140(r1)
    4654:	6d 49 80 00 	xoris   r9,r10,32768
    4658:	91 21 00 94 	stw     r9,148(r1)
    465c:	39 2a 00 30 	addi    r9,r10,48
    4660:	c9 61 00 90 	lfd     f11,144(r1)
    4664:	99 3b 00 00 	stb     r9,0(r27)
    4668:	fc 0b 00 28 	fsub    f0,f11,f0
    466c:	fc 00 00 50 	fneg    f0,f0
    4670:	fc 00 63 7a 	fmadd   f0,f0,f13,f12
    4674:	41 9e 00 84 	beq-    cr7,46f8 <_dtoa_r+0x750>
    4678:	80 be 80 38 	lwz     r5,-32712(r30)
    467c:	c1 8e 00 00 	lfs     f12,0(r14)
    4680:	c1 65 00 00 	lfs     f11,0(r5)
    4684:	fc 00 02 f2 	fmul    f0,f0,f11
    4688:	ff 80 60 00 	fcmpu   cr7,f0,f12
    468c:	41 be fe 8c 	beq-    cr7,4518 <_dtoa_r+0x570>
    4690:	3a b5 ff ff 	addi    r21,r21,-1
    4694:	39 3b 00 02 	addi    r9,r27,2
    4698:	3c c0 43 30 	lis     r6,17200
    469c:	7e a9 03 a6 	mtctr   r21
    46a0:	48 00 00 18 	b       46b8 <_dtoa_r+0x710>
    46a4:	c1 65 00 00 	lfs     f11,0(r5)
    46a8:	c1 8e 00 00 	lfs     f12,0(r14)
    46ac:	fc 00 02 f2 	fmul    f0,f0,f11
    46b0:	ff 80 60 00 	fcmpu   cr7,f0,f12
    46b4:	41 be fe 64 	beq-    cr7,4518 <_dtoa_r+0x570>
    46b8:	fd 80 68 24 	fdiv    f12,f0,f13
    46bc:	90 c1 00 a0 	stw     r6,160(r1)
    46c0:	7d 3d 4b 78 	mr      r29,r9
    46c4:	fd 80 60 1e 	fctiwz  f12,f12
    46c8:	d9 81 00 98 	stfd    f12,152(r1)
    46cc:	81 41 00 9c 	lwz     r10,156(r1)
    46d0:	6d 47 80 00 	xoris   r7,r10,32768
    46d4:	90 e1 00 a4 	stw     r7,164(r1)
    46d8:	38 ea 00 30 	addi    r7,r10,48
    46dc:	c9 81 00 a0 	lfd     f12,160(r1)
    46e0:	98 e9 ff ff 	stb     r7,-1(r9)
    46e4:	39 29 00 01 	addi    r9,r9,1
    46e8:	fd 8c 50 28 	fsub    f12,f12,f10
    46ec:	fd 80 60 50 	fneg    f12,f12
    46f0:	fc 0c 03 7a 	fmadd   f0,f12,f13,f0
    46f4:	42 00 ff b0 	bdnz+   46a4 <_dtoa_r+0x6fc>
    46f8:	fc 00 00 2a 	fadd    f0,f0,f0
    46fc:	ff 8d 00 00 	fcmpu   cr7,f13,f0
    4700:	41 9c 00 10 	blt-    cr7,4710 <_dtoa_r+0x768>
    4704:	40 be fe 14 	bne-    cr7,4518 <_dtoa_r+0x570>
    4708:	71 48 00 01 	andi.   r8,r10,1
    470c:	41 a2 fe 0c 	beq-    4518 <_dtoa_r+0x570>
    4710:	89 3d ff ff 	lbz     r9,-1(r29)
    4714:	7d 5b e8 50 	subf    r10,r27,r29
    4718:	7d 49 03 a6 	mtctr   r10
    471c:	48 00 00 0c 	b       4728 <_dtoa_r+0x780>
    4720:	89 2a ff ff 	lbz     r9,-1(r10)
    4724:	7d 5d 53 78 	mr      r29,r10
    4728:	2f 89 00 39 	cmpwi   cr7,r9,57
    472c:	39 5d ff ff 	addi    r10,r29,-1
    4730:	40 9e 09 2c 	bne-    cr7,505c <_dtoa_r+0x10b4>
    4734:	42 00 ff ec 	bdnz+   4720 <_dtoa_r+0x778>
    4738:	39 20 00 30 	li      r9,48
    473c:	7f 6a db 78 	mr      r10,r27
    4740:	99 3b 00 00 	stb     r9,0(r27)
    4744:	39 20 00 31 	li      r9,49
    4748:	3a f7 00 01 	addi    r23,r23,1
    474c:	99 2a 00 00 	stb     r9,0(r10)
    4750:	4b ff fd c8 	b       4518 <_dtoa_r+0x570>
    4754:	2e 12 00 00 	cmpwi   cr4,r18,0
    4758:	2d 1a 00 01 	cmpwi   cr2,r26,1
    475c:	41 92 00 90 	beq-    cr4,47ec <_dtoa_r+0x844>
    4760:	40 89 05 24 	ble-    cr2,4c84 <_dtoa_r+0xcdc>
    4764:	39 d5 ff ff 	addi    r14,r21,-1
    4768:	7f 98 70 00 	cmpw    cr7,r24,r14
    476c:	41 9c 06 8c 	blt-    cr7,4df8 <_dtoa_r+0xe50>
    4770:	7d ce c0 50 	subf    r14,r14,r24
    4774:	2f 95 00 00 	cmpwi   cr7,r21,0
    4778:	7e 7d 9b 78 	mr      r29,r19
    477c:	7e a9 ab 78 	mr      r9,r21
    4780:	41 9c 08 b4 	blt-    cr7,5034 <_dtoa_r+0x108c>
    4784:	7f e3 fb 78 	mr      r3,r31
    4788:	38 80 00 01 	li      r4,1
    478c:	7e 73 4a 14 	add     r19,r19,r9
    4790:	7d ef 4a 14 	add     r15,r15,r9
    4794:	48 00 2b 15 	bl      72a8 <__i2b>
    4798:	7c 72 1b 78 	mr      r18,r3
    479c:	48 00 00 5c 	b       47f8 <_dtoa_r+0x850>
    47a0:	39 00 00 00 	li      r8,0
    47a4:	7e 77 98 50 	subf    r19,r23,r19
    47a8:	7f 17 00 d0 	neg     r24,r23
    47ac:	91 01 00 c0 	stw     r8,192(r1)
    47b0:	4b ff fa d4 	b       4284 <_dtoa_r+0x2dc>
    47b4:	6e e6 80 00 	xoris   r6,r23,32768
    47b8:	91 41 00 30 	stw     r10,48(r1)
    47bc:	90 c1 00 34 	stw     r6,52(r1)
    47c0:	c9 01 00 30 	lfd     f8,48(r1)
    47c4:	fd a8 68 28 	fsub    f13,f8,f13
    47c8:	ff 8d 00 00 	fcmpu   cr7,f13,f0
    47cc:	4f de f0 42 	crnot   4*cr7+eq,4*cr7+eq
    47d0:	7d 40 00 26 	mfcr    r10
    47d4:	55 4a ff fe 	rlwinm  r10,r10,31,31,31
    47d8:	7e ea b8 50 	subf    r23,r10,r23
    47dc:	4b ff fa 48 	b       4224 <_dtoa_r+0x27c>
    47e0:	7e 6f 00 d0 	neg     r19,r15
    47e4:	39 e0 00 00 	li      r15,0
    47e8:	4b ff fa 88 	b       4270 <_dtoa_r+0x2c8>
    47ec:	7f 0e c3 78 	mr      r14,r24
    47f0:	7e 7d 9b 78 	mr      r29,r19
    47f4:	3a 40 00 00 	li      r18,0
    47f8:	2f 9d 00 00 	cmpwi   cr7,r29,0
    47fc:	41 9e 00 24 	beq-    cr7,4820 <_dtoa_r+0x878>
    4800:	2f 8f 00 00 	cmpwi   cr7,r15,0
    4804:	40 9d 00 1c 	ble-    cr7,4820 <_dtoa_r+0x878>
    4808:	7f 8f e8 00 	cmpw    cr7,r15,r29
    480c:	7d e9 7b 78 	mr      r9,r15
    4810:	41 9d 03 f0 	bgt-    cr7,4c00 <_dtoa_r+0xc58>
    4814:	7e 69 98 50 	subf    r19,r9,r19
    4818:	7f a9 e8 50 	subf    r29,r9,r29
    481c:	7d e9 78 50 	subf    r15,r9,r15
    4820:	2f 98 00 00 	cmpwi   cr7,r24,0
    4824:	40 9d 00 58 	ble-    cr7,487c <_dtoa_r+0x8d4>
    4828:	41 92 05 a8 	beq-    cr4,4dd0 <_dtoa_r+0xe28>
    482c:	2f 8e 00 00 	cmpwi   cr7,r14,0
    4830:	40 9d 00 44 	ble-    cr7,4874 <_dtoa_r+0x8cc>
    4834:	7e 44 93 78 	mr      r4,r18
    4838:	7d c5 73 78 	mr      r5,r14
    483c:	7f e3 fb 78 	mr      r3,r31
    4840:	48 00 2c e5 	bl      7524 <__pow5mult>
    4844:	7f 85 e3 78 	mr      r5,r28
    4848:	7c 72 1b 78 	mr      r18,r3
    484c:	7f e3 fb 78 	mr      r3,r31
    4850:	7e 44 93 78 	mr      r4,r18
    4854:	48 00 2a 91 	bl      72e4 <__multiply>
    4858:	7f 84 e3 78 	mr      r4,r28
    485c:	7c 69 1b 78 	mr      r9,r3
    4860:	7f e3 fb 78 	mr      r3,r31
    4864:	91 21 00 cc 	stw     r9,204(r1)
    4868:	48 00 26 85 	bl      6eec <_Bfree>
    486c:	81 21 00 cc 	lwz     r9,204(r1)
    4870:	7d 3c 4b 78 	mr      r28,r9
    4874:	7c ae c0 51 	subf.   r5,r14,r24
    4878:	40 82 03 d4 	bne-    4c4c <_dtoa_r+0xca4>
    487c:	81 41 00 c0 	lwz     r10,192(r1)
    4880:	7f e3 fb 78 	mr      r3,r31
    4884:	38 80 00 01 	li      r4,1
    4888:	2d 8a 00 00 	cmpwi   cr3,r10,0
    488c:	48 00 2a 1d 	bl      72a8 <__i2b>
    4890:	7c 78 1b 78 	mr      r24,r3
    4894:	40 8d 00 18 	ble-    cr3,48ac <_dtoa_r+0x904>
    4898:	80 a1 00 c0 	lwz     r5,192(r1)
    489c:	7f 04 c3 78 	mr      r4,r24
    48a0:	7f e3 fb 78 	mr      r3,r31
    48a4:	48 00 2c 81 	bl      7524 <__pow5mult>
    48a8:	7c 78 1b 78 	mr      r24,r3
    48ac:	40 89 04 84 	ble-    cr2,4d30 <_dtoa_r+0xd88>
    48b0:	39 c0 00 00 	li      r14,0
    48b4:	40 8e 04 20 	bne-    cr3,4cd4 <_dtoa_r+0xd2c>
    48b8:	38 60 00 01 	li      r3,1
    48bc:	7d 23 7a 14 	add     r9,r3,r15
    48c0:	71 2a 00 1f 	andi.   r10,r9,31
    48c4:	41 82 01 8c 	beq-    4a50 <_dtoa_r+0xaa8>
    48c8:	21 2a 00 20 	subfic  r9,r10,32
    48cc:	2f 89 00 04 	cmpwi   cr7,r9,4
    48d0:	40 9d 08 b0 	ble-    cr7,5180 <_dtoa_r+0x11d8>
    48d4:	21 4a 00 1c 	subfic  r10,r10,28
    48d8:	7e 73 52 14 	add     r19,r19,r10
    48dc:	7f bd 52 14 	add     r29,r29,r10
    48e0:	7d ef 52 14 	add     r15,r15,r10
    48e4:	2f 93 00 00 	cmpwi   cr7,r19,0
    48e8:	40 9d 00 18 	ble-    cr7,4900 <_dtoa_r+0x958>
    48ec:	7f 84 e3 78 	mr      r4,r28
    48f0:	7f e3 fb 78 	mr      r3,r31
    48f4:	7e 65 9b 78 	mr      r5,r19
    48f8:	48 00 2d 7d 	bl      7674 <__lshift>
    48fc:	7c 7c 1b 78 	mr      r28,r3
    4900:	2f 8f 00 00 	cmpwi   cr7,r15,0
    4904:	40 9d 00 18 	ble-    cr7,491c <_dtoa_r+0x974>
    4908:	7f 04 c3 78 	mr      r4,r24
    490c:	7f e3 fb 78 	mr      r3,r31
    4910:	7d e5 7b 78 	mr      r5,r15
    4914:	48 00 2d 61 	bl      7674 <__lshift>
    4918:	7c 78 1b 78 	mr      r24,r3
    491c:	81 01 00 b0 	lwz     r8,176(r1)
    4920:	2f 88 00 00 	cmpwi   cr7,r8,0
    4924:	40 9e 03 d0 	bne-    cr7,4cf4 <_dtoa_r+0xd4c>
    4928:	2d 95 00 00 	cmpwi   cr3,r21,0
    492c:	40 8d 02 74 	ble-    cr3,4ba0 <_dtoa_r+0xbf8>
    4930:	41 92 01 4c 	beq-    cr4,4a7c <_dtoa_r+0xad4>
    4934:	2f 9d 00 00 	cmpwi   cr7,r29,0
    4938:	40 9d 00 18 	ble-    cr7,4950 <_dtoa_r+0x9a8>
    493c:	7e 44 93 78 	mr      r4,r18
    4940:	7f e3 fb 78 	mr      r3,r31
    4944:	7f a5 eb 78 	mr      r5,r29
    4948:	48 00 2d 2d 	bl      7674 <__lshift>
    494c:	7c 72 1b 78 	mr      r18,r3
    4950:	2f 8e 00 00 	cmpwi   cr7,r14,0
    4954:	7e 53 93 78 	mr      r19,r18
    4958:	40 9e 05 8c 	bne-    cr7,4ee4 <_dtoa_r+0xf3c>
    495c:	56 29 07 fe 	clrlwi  r9,r17,31
    4960:	7f 7d db 78 	mr      r29,r27
    4964:	2e 09 00 00 	cmpwi   cr4,r9,0
    4968:	7e 54 93 78 	mr      r20,r18
    496c:	7f 04 c3 78 	mr      r4,r24
    4970:	7f 83 e3 78 	mr      r3,r28
    4974:	4b ff f4 1d 	bl      3d90 <quorem>
    4978:	7e 84 a3 78 	mr      r4,r20
    497c:	7c 6e 1b 78 	mr      r14,r3
    4980:	7f 83 e3 78 	mr      r3,r28
    4984:	48 00 2e 5d 	bl      77e0 <__mcmp>
    4988:	7f 04 c3 78 	mr      r4,r24
    498c:	7c 6f 1b 78 	mr      r15,r3
    4990:	7e 65 9b 78 	mr      r5,r19
    4994:	7f e3 fb 78 	mr      r3,r31
    4998:	3a 2e 00 30 	addi    r17,r14,48
    499c:	48 00 2e a1 	bl      783c <__mdiff>
    49a0:	3a 00 00 01 	li      r16,1
    49a4:	81 23 00 0c 	lwz     r9,12(r3)
    49a8:	7c 72 1b 78 	mr      r18,r3
    49ac:	2f 89 00 00 	cmpwi   cr7,r9,0
    49b0:	41 9e 02 f0 	beq-    cr7,4ca0 <_dtoa_r+0xcf8>
    49b4:	7f e3 fb 78 	mr      r3,r31
    49b8:	7e 44 93 78 	mr      r4,r18
    49bc:	48 00 25 31 	bl      6eec <_Bfree>
    49c0:	7e 0a d3 79 	or.     r10,r16,r26
    49c4:	40 82 00 08 	bne-    49cc <_dtoa_r+0xa24>
    49c8:	41 92 07 60 	beq-    cr4,5128 <_dtoa_r+0x1180>
    49cc:	2f 8f 00 00 	cmpwi   cr7,r15,0
    49d0:	41 9c 04 68 	blt-    cr7,4e38 <_dtoa_r+0xe90>
    49d4:	7d e8 d3 79 	or.     r8,r15,r26
    49d8:	40 82 00 08 	bne-    49e0 <_dtoa_r+0xa38>
    49dc:	41 92 04 5c 	beq-    cr4,4e38 <_dtoa_r+0xe90>
    49e0:	2f 90 00 00 	cmpwi   cr7,r16,0
    49e4:	41 9d 06 38 	bgt-    cr7,501c <_dtoa_r+0x1074>
    49e8:	9a 3d 00 00 	stb     r17,0(r29)
    49ec:	3b bd 00 01 	addi    r29,r29,1
    49f0:	7d 3b e8 50 	subf    r9,r27,r29
    49f4:	7f 89 a8 00 	cmpw    cr7,r9,r21
    49f8:	41 9e 06 34 	beq-    cr7,502c <_dtoa_r+0x1084>
    49fc:	7f 84 e3 78 	mr      r4,r28
    4a00:	7f e3 fb 78 	mr      r3,r31
    4a04:	38 a0 00 0a 	li      r5,10
    4a08:	38 c0 00 00 	li      r6,0
    4a0c:	48 00 25 05 	bl      6f10 <__multadd>
    4a10:	7f 94 98 00 	cmpw    cr7,r20,r19
    4a14:	7c 7c 1b 78 	mr      r28,r3
    4a18:	41 9e 02 9c 	beq-    cr7,4cb4 <_dtoa_r+0xd0c>
    4a1c:	7e 84 a3 78 	mr      r4,r20
    4a20:	38 a0 00 0a 	li      r5,10
    4a24:	38 c0 00 00 	li      r6,0
    4a28:	7f e3 fb 78 	mr      r3,r31
    4a2c:	48 00 24 e5 	bl      6f10 <__multadd>
    4a30:	7e 64 9b 78 	mr      r4,r19
    4a34:	7c 74 1b 78 	mr      r20,r3
    4a38:	38 a0 00 0a 	li      r5,10
    4a3c:	7f e3 fb 78 	mr      r3,r31
    4a40:	38 c0 00 00 	li      r6,0
    4a44:	48 00 24 cd 	bl      6f10 <__multadd>
    4a48:	7c 73 1b 78 	mr      r19,r3
    4a4c:	4b ff ff 20 	b       496c <_dtoa_r+0x9c4>
    4a50:	39 40 00 1c 	li      r10,28
    4a54:	7e 73 52 14 	add     r19,r19,r10
    4a58:	7f bd 52 14 	add     r29,r29,r10
    4a5c:	7d ef 52 14 	add     r15,r15,r10
    4a60:	4b ff fe 84 	b       48e4 <_dtoa_r+0x93c>
    4a64:	23 a9 fb ee 	subfic  r29,r9,-1042
    4a68:	7e 3d e8 30 	slw     r29,r17,r29
    4a6c:	4b ff fb 10 	b       457c <_dtoa_r+0x5d4>
    4a70:	39 40 00 00 	li      r10,0
    4a74:	91 41 00 b0 	stw     r10,176(r1)
    4a78:	4b ff f7 e8 	b       4260 <_dtoa_r+0x2b8>
    4a7c:	3b 5b ff ff 	addi    r26,r27,-1
    4a80:	3b a0 00 01 	li      r29,1
    4a84:	48 00 00 10 	b       4a94 <_dtoa_r+0xaec>
    4a88:	48 00 24 89 	bl      6f10 <__multadd>
    4a8c:	3b bd 00 01 	addi    r29,r29,1
    4a90:	7c 7c 1b 78 	mr      r28,r3
    4a94:	7f 04 c3 78 	mr      r4,r24
    4a98:	7f 83 e3 78 	mr      r3,r28
    4a9c:	4b ff f2 f5 	bl      3d90 <quorem>
    4aa0:	7f 9d a8 00 	cmpw    cr7,r29,r21
    4aa4:	3a 23 00 30 	addi    r17,r3,48
    4aa8:	7f 84 e3 78 	mr      r4,r28
    4aac:	7f e3 fb 78 	mr      r3,r31
    4ab0:	38 a0 00 0a 	li      r5,10
    4ab4:	38 c0 00 00 	li      r6,0
    4ab8:	9e 3a 00 01 	stbu    r17,1(r26)
    4abc:	41 9c ff cc 	blt+    cr7,4a88 <_dtoa_r+0xae0>
    4ac0:	40 8d 05 80 	ble-    cr3,5040 <_dtoa_r+0x1098>
    4ac4:	7f bb aa 14 	add     r29,r27,r21
    4ac8:	3a 80 00 00 	li      r20,0
    4acc:	7f 84 e3 78 	mr      r4,r28
    4ad0:	38 a0 00 01 	li      r5,1
    4ad4:	7f e3 fb 78 	mr      r3,r31
    4ad8:	48 00 2b 9d 	bl      7674 <__lshift>
    4adc:	7f 04 c3 78 	mr      r4,r24
    4ae0:	7c 7c 1b 78 	mr      r28,r3
    4ae4:	48 00 2c fd 	bl      77e0 <__mcmp>
    4ae8:	2f 83 00 00 	cmpwi   cr7,r3,0
    4aec:	40 9d 01 74 	ble-    cr7,4c60 <_dtoa_r+0xcb8>
    4af0:	89 5d ff ff 	lbz     r10,-1(r29)
    4af4:	7d 1b e8 50 	subf    r8,r27,r29
    4af8:	7d 09 03 a6 	mtctr   r8
    4afc:	48 00 00 0c 	b       4b08 <_dtoa_r+0xb60>
    4b00:	89 49 ff ff 	lbz     r10,-1(r9)
    4b04:	7d 3d 4b 78 	mr      r29,r9
    4b08:	2f 8a 00 39 	cmpwi   cr7,r10,57
    4b0c:	39 3d ff ff 	addi    r9,r29,-1
    4b10:	40 9e 04 14 	bne-    cr7,4f24 <_dtoa_r+0xf7c>
    4b14:	42 00 ff ec 	bdnz+   4b00 <_dtoa_r+0xb58>
    4b18:	39 20 00 31 	li      r9,49
    4b1c:	3a f7 00 01 	addi    r23,r23,1
    4b20:	99 3b 00 00 	stb     r9,0(r27)
    4b24:	7f e3 fb 78 	mr      r3,r31
    4b28:	7f 04 c3 78 	mr      r4,r24
    4b2c:	48 00 23 c1 	bl      6eec <_Bfree>
    4b30:	2f 92 00 00 	cmpwi   cr7,r18,0
    4b34:	41 be f9 e4 	beq-    cr7,4518 <_dtoa_r+0x570>
    4b38:	2f 94 00 00 	cmpwi   cr7,r20,0
    4b3c:	41 9e 00 18 	beq-    cr7,4b54 <_dtoa_r+0xbac>
    4b40:	7f 94 90 00 	cmpw    cr7,r20,r18
    4b44:	41 9e 00 10 	beq-    cr7,4b54 <_dtoa_r+0xbac>
    4b48:	7f e3 fb 78 	mr      r3,r31
    4b4c:	7e 84 a3 78 	mr      r4,r20
    4b50:	48 00 23 9d 	bl      6eec <_Bfree>
    4b54:	7f e3 fb 78 	mr      r3,r31
    4b58:	7e 44 93 78 	mr      r4,r18
    4b5c:	48 00 23 91 	bl      6eec <_Bfree>
    4b60:	4b ff f9 b8 	b       4518 <_dtoa_r+0x570>
    4b64:	2f 9a 00 04 	cmpwi   cr7,r26,4
    4b68:	41 9e 02 88 	beq-    cr7,4df0 <_dtoa_r+0xe48>
    4b6c:	2f 9a 00 05 	cmpwi   cr7,r26,5
    4b70:	40 9e fa 54 	bne+    cr7,45c4 <_dtoa_r+0x61c>
    4b74:	3a 40 00 01 	li      r18,1
    4b78:	7d 34 ba 14 	add     r9,r20,r23
    4b7c:	3b a9 00 01 	addi    r29,r9,1
    4b80:	91 21 00 c4 	stw     r9,196(r1)
    4b84:	2f 9d 00 00 	cmpwi   cr7,r29,0
    4b88:	7f b5 eb 78 	mr      r21,r29
    4b8c:	41 9d f7 40 	bgt+    cr7,42cc <_dtoa_r+0x324>
    4b90:	39 20 00 00 	li      r9,0
    4b94:	38 80 00 00 	li      r4,0
    4b98:	91 3f 00 44 	stw     r9,68(r31)
    4b9c:	4b ff f7 68 	b       4304 <_dtoa_r+0x35c>
    4ba0:	2f 9a 00 02 	cmpwi   cr7,r26,2
    4ba4:	40 bd fd 8c 	ble-    cr7,4930 <_dtoa_r+0x988>
    4ba8:	40 8e 00 98 	bne-    cr3,4c40 <_dtoa_r+0xc98>
    4bac:	7f 04 c3 78 	mr      r4,r24
    4bb0:	38 a0 00 05 	li      r5,5
    4bb4:	38 c0 00 00 	li      r6,0
    4bb8:	7f e3 fb 78 	mr      r3,r31
    4bbc:	48 00 23 55 	bl      6f10 <__multadd>
    4bc0:	7c 78 1b 78 	mr      r24,r3
    4bc4:	7f 83 e3 78 	mr      r3,r28
    4bc8:	7f 04 c3 78 	mr      r4,r24
    4bcc:	48 00 2c 15 	bl      77e0 <__mcmp>
    4bd0:	2f 83 00 00 	cmpwi   cr7,r3,0
    4bd4:	40 9d 00 6c 	ble-    cr7,4c40 <_dtoa_r+0xc98>
    4bd8:	39 20 00 31 	li      r9,49
    4bdc:	3b bb 00 01 	addi    r29,r27,1
    4be0:	99 3b 00 00 	stb     r9,0(r27)
    4be4:	3a f7 00 01 	addi    r23,r23,1
    4be8:	7f e3 fb 78 	mr      r3,r31
    4bec:	7f 04 c3 78 	mr      r4,r24
    4bf0:	48 00 22 fd 	bl      6eec <_Bfree>
    4bf4:	2f 92 00 00 	cmpwi   cr7,r18,0
    4bf8:	40 9e ff 5c 	bne+    cr7,4b54 <_dtoa_r+0xbac>
    4bfc:	4b ff f9 1c 	b       4518 <_dtoa_r+0x570>
    4c00:	7f a9 eb 78 	mr      r9,r29
    4c04:	4b ff fc 10 	b       4814 <_dtoa_r+0x86c>
    4c08:	2f 95 00 00 	cmpwi   cr7,r21,0
    4c0c:	41 9d fa 10 	bgt+    cr7,461c <_dtoa_r+0x674>
    4c10:	40 9e 01 b4 	bne-    cr7,4dc4 <_dtoa_r+0xe1c>
    4c14:	81 3e 80 40 	lwz     r9,-32704(r30)
    4c18:	3b 00 00 00 	li      r24,0
    4c1c:	92 01 00 d0 	stw     r16,208(r1)
    4c20:	3a 40 00 00 	li      r18,0
    4c24:	c0 09 00 00 	lfs     f0,0(r9)
    4c28:	92 21 00 d4 	stw     r17,212(r1)
    4c2c:	fd ad 00 32 	fmul    f13,f13,f0
    4c30:	c8 01 00 d0 	lfd     f0,208(r1)
    4c34:	ff 8d 00 00 	fcmpu   cr7,f13,f0
    4c38:	4f dd f3 82 	cror    4*cr7+eq,4*cr7+gt,4*cr7+eq
    4c3c:	40 be ff 9c 	bne-    cr7,4bd8 <_dtoa_r+0xc30>
    4c40:	7e 97 a0 f8 	not     r23,r20
    4c44:	7f 7d db 78 	mr      r29,r27
    4c48:	4b ff ff a0 	b       4be8 <_dtoa_r+0xc40>
    4c4c:	7f 84 e3 78 	mr      r4,r28
    4c50:	7f e3 fb 78 	mr      r3,r31
    4c54:	48 00 28 d1 	bl      7524 <__pow5mult>
    4c58:	7c 7c 1b 78 	mr      r28,r3
    4c5c:	4b ff fc 20 	b       487c <_dtoa_r+0x8d4>
    4c60:	40 9e 00 0c 	bne-    cr7,4c6c <_dtoa_r+0xcc4>
    4c64:	72 2a 00 01 	andi.   r10,r17,1
    4c68:	40 a2 fe 88 	bne-    4af0 <_dtoa_r+0xb48>
    4c6c:	7f a9 eb 78 	mr      r9,r29
    4c70:	7d 3d 4b 78 	mr      r29,r9
    4c74:	8d 49 ff ff 	lbzu    r10,-1(r9)
    4c78:	2f 8a 00 30 	cmpwi   cr7,r10,48
    4c7c:	41 9e ff f4 	beq+    cr7,4c70 <_dtoa_r+0xcc8>
    4c80:	4b ff fe a4 	b       4b24 <_dtoa_r+0xb7c>
    4c84:	81 01 00 c8 	lwz     r8,200(r1)
    4c88:	2f 88 00 00 	cmpwi   cr7,r8,0
    4c8c:	41 9e 03 bc 	beq-    cr7,5048 <_dtoa_r+0x10a0>
    4c90:	39 29 04 33 	addi    r9,r9,1075
    4c94:	7f 0e c3 78 	mr      r14,r24
    4c98:	7e 7d 9b 78 	mr      r29,r19
    4c9c:	4b ff fa e8 	b       4784 <_dtoa_r+0x7dc>
    4ca0:	7f 83 e3 78 	mr      r3,r28
    4ca4:	7e 44 93 78 	mr      r4,r18
    4ca8:	48 00 2b 39 	bl      77e0 <__mcmp>
    4cac:	7c 70 1b 78 	mr      r16,r3
    4cb0:	4b ff fd 04 	b       49b4 <_dtoa_r+0xa0c>
    4cb4:	7e 84 a3 78 	mr      r4,r20
    4cb8:	7f e3 fb 78 	mr      r3,r31
    4cbc:	38 a0 00 0a 	li      r5,10
    4cc0:	38 c0 00 00 	li      r6,0
    4cc4:	48 00 22 4d 	bl      6f10 <__multadd>
    4cc8:	7c 74 1b 78 	mr      r20,r3
    4ccc:	7c 73 1b 78 	mr      r19,r3
    4cd0:	4b ff fc 9c 	b       496c <_dtoa_r+0x9c4>
    4cd4:	81 38 00 10 	lwz     r9,16(r24)
    4cd8:	39 29 00 03 	addi    r9,r9,3
    4cdc:	55 29 10 3a 	rlwinm  r9,r9,2,0,29
    4ce0:	7d 38 4a 14 	add     r9,r24,r9
    4ce4:	80 69 00 04 	lwz     r3,4(r9)
    4ce8:	48 00 24 9d 	bl      7184 <__hi0bits>
    4cec:	20 63 00 20 	subfic  r3,r3,32
    4cf0:	4b ff fb cc 	b       48bc <_dtoa_r+0x914>
    4cf4:	7f 83 e3 78 	mr      r3,r28
    4cf8:	7f 04 c3 78 	mr      r4,r24
    4cfc:	48 00 2a e5 	bl      77e0 <__mcmp>
    4d00:	2f 83 00 00 	cmpwi   cr7,r3,0
    4d04:	40 9c fc 24 	bge+    cr7,4928 <_dtoa_r+0x980>
    4d08:	7f 84 e3 78 	mr      r4,r28
    4d0c:	7f e3 fb 78 	mr      r3,r31
    4d10:	38 a0 00 0a 	li      r5,10
    4d14:	38 c0 00 00 	li      r6,0
    4d18:	48 00 21 f9 	bl      6f10 <__multadd>
    4d1c:	3a f7 ff ff 	addi    r23,r23,-1
    4d20:	7c 7c 1b 78 	mr      r28,r3
    4d24:	40 92 04 34 	bne-    cr4,5158 <_dtoa_r+0x11b0>
    4d28:	82 a1 00 c4 	lwz     r21,196(r1)
    4d2c:	4b ff fb fc 	b       4928 <_dtoa_r+0x980>
    4d30:	2f 91 00 00 	cmpwi   cr7,r17,0
    4d34:	39 c0 00 00 	li      r14,0
    4d38:	40 be fb 7c 	bne-    cr7,48b4 <_dtoa_r+0x90c>
    4d3c:	56 08 03 3f 	clrlwi. r8,r16,12
    4d40:	40 a2 fb 74 	bne-    48b4 <_dtoa_r+0x90c>
    4d44:	76 0a 7f f0 	andis.  r10,r16,32752
    4d48:	41 a2 fb 6c 	beq-    48b4 <_dtoa_r+0x90c>
    4d4c:	3a 73 00 01 	addi    r19,r19,1
    4d50:	39 ef 00 01 	addi    r15,r15,1
    4d54:	39 c0 00 01 	li      r14,1
    4d58:	4b ff fb 5c 	b       48b4 <_dtoa_r+0x90c>
    4d5c:	3d 20 43 30 	lis     r9,17200
    4d60:	6c a5 80 00 	xoris   r5,r5,32768
    4d64:	91 21 00 a8 	stw     r9,168(r1)
    4d68:	90 a1 00 ac 	stw     r5,172(r1)
    4d6c:	81 3e 80 18 	lwz     r9,-32744(r30)
    4d70:	c9 01 00 a8 	lfd     f8,168(r1)
    4d74:	c1 89 00 00 	lfs     f12,0(r9)
    4d78:	81 3e 80 3c 	lwz     r9,-32708(r30)
    4d7c:	fd 88 60 28 	fsub    f12,f8,f12
    4d80:	c1 a9 00 00 	lfs     f13,0(r9)
    4d84:	fd a0 6b 3a 	fmadd   f13,f0,f12,f13
    4d88:	d9 a1 00 d0 	stfd    f13,208(r1)
    4d8c:	81 41 00 d0 	lwz     r10,208(r1)
    4d90:	81 61 00 d4 	lwz     r11,212(r1)
    4d94:	3d 4a fc c0 	addis   r10,r10,-832
    4d98:	81 3e 80 40 	lwz     r9,-32704(r30)
    4d9c:	91 41 00 d0 	stw     r10,208(r1)
    4da0:	c1 89 00 00 	lfs     f12,0(r9)
    4da4:	91 61 00 d4 	stw     r11,212(r1)
    4da8:	fc 00 60 28 	fsub    f0,f0,f12
    4dac:	c9 a1 00 d0 	lfd     f13,208(r1)
    4db0:	ff 80 68 00 	fcmpu   cr7,f0,f13
    4db4:	41 9d 01 7c 	bgt-    cr7,4f30 <_dtoa_r+0xf88>
    4db8:	fd a0 68 50 	fneg    f13,f13
    4dbc:	ff 80 68 00 	fcmpu   cr7,f0,f13
    4dc0:	40 9c 00 c4 	bge-    cr7,4e84 <_dtoa_r+0xedc>
    4dc4:	3b 00 00 00 	li      r24,0
    4dc8:	3a 40 00 00 	li      r18,0
    4dcc:	4b ff fe 74 	b       4c40 <_dtoa_r+0xc98>
    4dd0:	7f 84 e3 78 	mr      r4,r28
    4dd4:	7f e3 fb 78 	mr      r3,r31
    4dd8:	7f 05 c3 78 	mr      r5,r24
    4ddc:	48 00 27 49 	bl      7524 <__pow5mult>
    4de0:	7c 7c 1b 78 	mr      r28,r3
    4de4:	4b ff fa 98 	b       487c <_dtoa_r+0x8d4>
    4de8:	3a 40 00 00 	li      r18,0
    4dec:	4b ff fd 8c 	b       4b78 <_dtoa_r+0xbd0>
    4df0:	3a 40 00 01 	li      r18,1
    4df4:	4b ff f4 c4 	b       42b8 <_dtoa_r+0x310>
    4df8:	81 21 00 c0 	lwz     r9,192(r1)
    4dfc:	7f 18 70 50 	subf    r24,r24,r14
    4e00:	7d 29 c2 14 	add     r9,r9,r24
    4e04:	7d d8 73 78 	mr      r24,r14
    4e08:	91 21 00 c0 	stw     r9,192(r1)
    4e0c:	39 c0 00 00 	li      r14,0
    4e10:	4b ff f9 64 	b       4774 <_dtoa_r+0x7cc>
    4e14:	fd a0 48 90 	fmr     f13,f9
    4e18:	38 a0 00 02 	li      r5,2
    4e1c:	4b ff f5 4c 	b       4368 <_dtoa_r+0x3c0>
    4e20:	39 00 00 01 	li      r8,1
    4e24:	3b a0 00 01 	li      r29,1
    4e28:	91 01 00 c4 	stw     r8,196(r1)
    4e2c:	3a a0 00 01 	li      r21,1
    4e30:	3a 80 00 01 	li      r20,1
    4e34:	4b ff fd 5c 	b       4b90 <_dtoa_r+0xbe8>
    4e38:	2f 90 00 00 	cmpwi   cr7,r16,0
    4e3c:	7e 3a 8b 78 	mr      r26,r17
    4e40:	40 9d 00 34 	ble-    cr7,4e74 <_dtoa_r+0xecc>
    4e44:	7f 84 e3 78 	mr      r4,r28
    4e48:	38 a0 00 01 	li      r5,1
    4e4c:	7f e3 fb 78 	mr      r3,r31
    4e50:	48 00 28 25 	bl      7674 <__lshift>
    4e54:	7f 04 c3 78 	mr      r4,r24
    4e58:	7c 7c 1b 78 	mr      r28,r3
    4e5c:	48 00 29 85 	bl      77e0 <__mcmp>
    4e60:	2f 83 00 00 	cmpwi   cr7,r3,0
    4e64:	40 9d 02 e4 	ble-    cr7,5148 <_dtoa_r+0x11a0>
    4e68:	2f 9a 00 39 	cmpwi   cr7,r26,57
    4e6c:	3a 2e 00 31 	addi    r17,r14,49
    4e70:	41 9e 02 74 	beq-    cr7,50e4 <_dtoa_r+0x113c>
    4e74:	9a 3d 00 00 	stb     r17,0(r29)
    4e78:	7e 72 9b 78 	mr      r18,r19
    4e7c:	3b bd 00 01 	addi    r29,r29,1
    4e80:	4b ff fc a4 	b       4b24 <_dtoa_r+0xb7c>
    4e84:	d9 21 00 d0 	stfd    f9,208(r1)
    4e88:	82 01 00 d0 	lwz     r16,208(r1)
    4e8c:	82 21 00 d4 	lwz     r17,212(r1)
    4e90:	4b ff f7 64 	b       45f4 <_dtoa_r+0x64c>
    4e94:	7d 57 00 d1 	neg.    r10,r23
    4e98:	41 82 01 d4 	beq-    506c <_dtoa_r+0x10c4>
    4e9c:	7d 49 26 71 	srawi.  r9,r10,4
    4ea0:	80 be 80 2c 	lwz     r5,-32724(r30)
    4ea4:	55 4a 1e 78 	rlwinm  r10,r10,3,25,28
    4ea8:	7c 05 54 ae 	lfdx    f0,r5,r10
    4eac:	fc 09 00 32 	fmul    f0,f9,f0
    4eb0:	41 82 02 c8 	beq-    5178 <_dtoa_r+0x11d0>
    4eb4:	81 5e 80 30 	lwz     r10,-32720(r30)
    4eb8:	38 a0 00 02 	li      r5,2
    4ebc:	55 28 07 fe 	clrlwi  r8,r9,31
    4ec0:	7d 29 0e 71 	srawi.  r9,r9,1
    4ec4:	2f 88 00 00 	cmpwi   cr7,r8,0
    4ec8:	41 9e 00 10 	beq-    cr7,4ed8 <_dtoa_r+0xf30>
    4ecc:	c9 0a 00 00 	lfd     f8,0(r10)
    4ed0:	38 a5 00 01 	addi    r5,r5,1
    4ed4:	fc 00 02 32 	fmul    f0,f0,f8
    4ed8:	39 4a 00 08 	addi    r10,r10,8
    4edc:	40 82 ff e0 	bne+    4ebc <_dtoa_r+0xf14>
    4ee0:	4b ff f4 bc 	b       439c <_dtoa_r+0x3f4>
    4ee4:	80 92 00 04 	lwz     r4,4(r18)
    4ee8:	7f e3 fb 78 	mr      r3,r31
    4eec:	48 00 1f 39 	bl      6e24 <_Balloc>
    4ef0:	81 32 00 10 	lwz     r9,16(r18)
    4ef4:	7c 7d 1b 78 	mr      r29,r3
    4ef8:	38 92 00 0c 	addi    r4,r18,12
    4efc:	38 a9 00 02 	addi    r5,r9,2
    4f00:	38 63 00 0c 	addi    r3,r3,12
    4f04:	54 a5 10 3a 	rlwinm  r5,r5,2,0,29
    4f08:	48 00 1e 05 	bl      6d0c <memcpy>
    4f0c:	7f e3 fb 78 	mr      r3,r31
    4f10:	7f a4 eb 78 	mr      r4,r29
    4f14:	38 a0 00 01 	li      r5,1
    4f18:	48 00 27 5d 	bl      7674 <__lshift>
    4f1c:	7c 73 1b 78 	mr      r19,r3
    4f20:	4b ff fa 3c 	b       495c <_dtoa_r+0x9b4>
    4f24:	39 4a 00 01 	addi    r10,r10,1
    4f28:	99 49 00 00 	stb     r10,0(r9)
    4f2c:	4b ff fb f8 	b       4b24 <_dtoa_r+0xb7c>
    4f30:	3b 00 00 00 	li      r24,0
    4f34:	3a 40 00 00 	li      r18,0
    4f38:	4b ff fc a0 	b       4bd8 <_dtoa_r+0xc30>
    4f3c:	fd a0 00 1e 	fctiwz  f13,f0
    4f40:	3d 20 43 30 	lis     r9,17200
    4f44:	91 21 00 70 	stw     r9,112(r1)
    4f48:	38 6c ff ff 	addi    r3,r12,-1
    4f4c:	81 1e 80 18 	lwz     r8,-32744(r30)
    4f50:	2f 8c 00 01 	cmpwi   cr7,r12,1
    4f54:	d9 a1 00 68 	stfd    f13,104(r1)
    4f58:	54 60 18 38 	rlwinm  r0,r3,3,0,28
    4f5c:	c1 68 00 00 	lfs     f11,0(r8)
    4f60:	3b bb 00 01 	addi    r29,r27,1
    4f64:	81 21 00 6c 	lwz     r9,108(r1)
    4f68:	fd a0 58 90 	fmr     f13,f11
    4f6c:	91 41 00 d0 	stw     r10,208(r1)
    4f70:	6d 25 80 00 	xoris   r5,r9,32768
    4f74:	91 61 00 d4 	stw     r11,212(r1)
    4f78:	90 a1 00 74 	stw     r5,116(r1)
    4f7c:	39 29 00 30 	addi    r9,r9,48
    4f80:	80 be 80 2c 	lwz     r5,-32724(r30)
    4f84:	c9 01 00 70 	lfd     f8,112(r1)
    4f88:	c9 81 00 d0 	lfd     f12,208(r1)
    4f8c:	fd a8 68 28 	fsub    f13,f8,f13
    4f90:	7d 45 04 ae 	lfdx    f10,r5,r0
    4f94:	99 3b 00 00 	stb     r9,0(r27)
    4f98:	fd 4a 03 32 	fmul    f10,f10,f12
    4f9c:	fc 00 68 28 	fsub    f0,f0,f13
    4fa0:	41 9e 00 5c 	beq-    cr7,4ffc <_dtoa_r+0x1054>
    4fa4:	39 3b ff ff 	addi    r9,r27,-1
    4fa8:	80 be 80 38 	lwz     r5,-32712(r30)
    4fac:	7d 89 62 14 	add     r12,r9,r12
    4fb0:	7f 6a db 78 	mr      r10,r27
    4fb4:	7d 9b 60 50 	subf    r12,r27,r12
    4fb8:	c1 85 00 00 	lfs     f12,0(r5)
    4fbc:	7d 89 03 a6 	mtctr   r12
    4fc0:	3d 60 43 30 	lis     r11,17200
    4fc4:	fc 00 03 32 	fmul    f0,f0,f12
    4fc8:	91 61 00 80 	stw     r11,128(r1)
    4fcc:	fd a0 00 1e 	fctiwz  f13,f0
    4fd0:	d9 a1 00 78 	stfd    f13,120(r1)
    4fd4:	81 21 00 7c 	lwz     r9,124(r1)
    4fd8:	6d 25 80 00 	xoris   r5,r9,32768
    4fdc:	39 29 00 30 	addi    r9,r9,48
    4fe0:	90 a1 00 84 	stw     r5,132(r1)
    4fe4:	c9 a1 00 80 	lfd     f13,128(r1)
    4fe8:	9d 2a 00 01 	stbu    r9,1(r10)
    4fec:	fd ad 58 28 	fsub    f13,f13,f11
    4ff0:	fc 00 68 28 	fsub    f0,f0,f13
    4ff4:	42 00 ff d0 	bdnz+   4fc4 <_dtoa_r+0x101c>
    4ff8:	7f bd 1a 14 	add     r29,r29,r3
    4ffc:	81 3e 80 44 	lwz     r9,-32700(r30)
    5000:	c1 a9 00 00 	lfs     f13,0(r9)
    5004:	fd 8a 68 2a 	fadd    f12,f10,f13
    5008:	ff 8c 00 00 	fcmpu   cr7,f12,f0
    500c:	40 9c 00 f0 	bge-    cr7,50fc <_dtoa_r+0x1154>
    5010:	89 3d ff ff 	lbz     r9,-1(r29)
    5014:	7c 97 23 78 	mr      r23,r4
    5018:	4b ff f6 fc 	b       4714 <_dtoa_r+0x76c>
    501c:	2f 91 00 39 	cmpwi   cr7,r17,57
    5020:	41 9e 00 c4 	beq-    cr7,50e4 <_dtoa_r+0x113c>
    5024:	3a 31 00 01 	addi    r17,r17,1
    5028:	4b ff fe 4c 	b       4e74 <_dtoa_r+0xecc>
    502c:	7e 72 9b 78 	mr      r18,r19
    5030:	4b ff fa 9c 	b       4acc <_dtoa_r+0xb24>
    5034:	7f b5 98 50 	subf    r29,r21,r19
    5038:	39 20 00 00 	li      r9,0
    503c:	4b ff f7 48 	b       4784 <_dtoa_r+0x7dc>
    5040:	3a a0 00 01 	li      r21,1
    5044:	4b ff fa 80 	b       4ac4 <_dtoa_r+0xb1c>
    5048:	81 21 00 0c 	lwz     r9,12(r1)
    504c:	7f 0e c3 78 	mr      r14,r24
    5050:	7e 7d 9b 78 	mr      r29,r19
    5054:	21 29 00 36 	subfic  r9,r9,54
    5058:	4b ff f7 2c 	b       4784 <_dtoa_r+0x7dc>
    505c:	39 29 00 01 	addi    r9,r9,1
    5060:	55 29 06 3e 	clrlwi  r9,r9,24
    5064:	99 2a 00 00 	stb     r9,0(r10)
    5068:	4b ff f4 b0 	b       4518 <_dtoa_r+0x570>
    506c:	fc 00 48 90 	fmr     f0,f9
    5070:	38 a0 00 02 	li      r5,2
    5074:	4b ff f3 28 	b       439c <_dtoa_r+0x3f4>
    5078:	2f 95 00 00 	cmpwi   cr7,r21,0
    507c:	41 be fc e0 	beq-    cr7,4d5c <_dtoa_r+0xdb4>
    5080:	81 21 00 c4 	lwz     r9,196(r1)
    5084:	2f 89 00 00 	cmpwi   cr7,r9,0
    5088:	40 bd fd fc 	ble-    cr7,4e84 <_dtoa_r+0xedc>
    508c:	39 25 00 01 	addi    r9,r5,1
    5090:	80 be 80 38 	lwz     r5,-32712(r30)
    5094:	6d 29 80 00 	xoris   r9,r9,32768
    5098:	81 5e 80 18 	lwz     r10,-32744(r30)
    509c:	91 21 00 3c 	stw     r9,60(r1)
    50a0:	3d 20 43 30 	lis     r9,17200
    50a4:	91 21 00 38 	stw     r9,56(r1)
    50a8:	38 97 ff ff 	addi    r4,r23,-1
    50ac:	c1 a5 00 00 	lfs     f13,0(r5)
    50b0:	c1 8a 00 00 	lfs     f12,0(r10)
    50b4:	c9 01 00 38 	lfd     f8,56(r1)
    50b8:	fc 00 03 72 	fmul    f0,f0,f13
    50bc:	81 3e 80 3c 	lwz     r9,-32708(r30)
    50c0:	fd 88 60 28 	fsub    f12,f8,f12
    50c4:	81 81 00 c4 	lwz     r12,196(r1)
    50c8:	c1 a9 00 00 	lfs     f13,0(r9)
    50cc:	fd a0 6b 3a 	fmadd   f13,f0,f12,f13
    50d0:	d9 a1 00 d0 	stfd    f13,208(r1)
    50d4:	81 41 00 d0 	lwz     r10,208(r1)
    50d8:	81 61 00 d4 	lwz     r11,212(r1)
    50dc:	3d 4a fc c0 	addis   r10,r10,-832
    50e0:	4b ff f3 24 	b       4404 <_dtoa_r+0x45c>
    50e4:	39 20 00 39 	li      r9,57
    50e8:	7e 72 9b 78 	mr      r18,r19
    50ec:	99 3d 00 00 	stb     r9,0(r29)
    50f0:	39 40 00 39 	li      r10,57
    50f4:	3b bd 00 01 	addi    r29,r29,1
    50f8:	4b ff f9 fc 	b       4af4 <_dtoa_r+0xb4c>
    50fc:	fd ad 50 28 	fsub    f13,f13,f10
    5100:	ff 8d 00 00 	fcmpu   cr7,f13,f0
    5104:	40 bd fd 80 	ble-    cr7,4e84 <_dtoa_r+0xedc>
    5108:	7f a9 eb 78 	mr      r9,r29
    510c:	89 49 ff ff 	lbz     r10,-1(r9)
    5110:	7d 3d 4b 78 	mr      r29,r9
    5114:	39 29 ff ff 	addi    r9,r9,-1
    5118:	2f 8a 00 30 	cmpwi   cr7,r10,48
    511c:	41 9e ff f0 	beq+    cr7,510c <_dtoa_r+0x1164>
    5120:	7c 97 23 78 	mr      r23,r4
    5124:	4b ff f3 f4 	b       4518 <_dtoa_r+0x570>
    5128:	2f 91 00 39 	cmpwi   cr7,r17,57
    512c:	41 be ff b8 	beq-    cr7,50e4 <_dtoa_r+0x113c>
    5130:	2f 8f 00 00 	cmpwi   cr7,r15,0
    5134:	40 bd fd 40 	ble-    cr7,4e74 <_dtoa_r+0xecc>
    5138:	3a 2e 00 31 	addi    r17,r14,49
    513c:	4b ff fd 38 	b       4e74 <_dtoa_r+0xecc>
    5140:	7c 97 23 78 	mr      r23,r4
    5144:	4b ff f5 d0 	b       4714 <_dtoa_r+0x76c>
    5148:	40 be fd 2c 	bne-    cr7,4e74 <_dtoa_r+0xecc>
    514c:	72 29 00 01 	andi.   r9,r17,1
    5150:	41 a2 fd 24 	beq-    4e74 <_dtoa_r+0xecc>
    5154:	4b ff fd 14 	b       4e68 <_dtoa_r+0xec0>
    5158:	7e 44 93 78 	mr      r4,r18
    515c:	7f e3 fb 78 	mr      r3,r31
    5160:	38 a0 00 0a 	li      r5,10
    5164:	38 c0 00 00 	li      r6,0
    5168:	48 00 1d a9 	bl      6f10 <__multadd>
    516c:	82 a1 00 c4 	lwz     r21,196(r1)
    5170:	7c 72 1b 78 	mr      r18,r3
    5174:	4b ff f7 b4 	b       4928 <_dtoa_r+0x980>
    5178:	38 a0 00 02 	li      r5,2
    517c:	4b ff f2 20 	b       439c <_dtoa_r+0x3f4>
    5180:	41 9e f7 64 	beq+    cr7,48e4 <_dtoa_r+0x93c>
    5184:	21 4a 00 3c 	subfic  r10,r10,60
    5188:	4b ff f8 cc 	b       4a54 <_dtoa_r+0xaac>

0000518c <__sflush_r>:
    518c:	7c 08 02 a6 	mflr    r0
    5190:	94 21 ff e0 	stwu    r1,-32(r1)
    5194:	93 61 00 0c 	stw     r27,12(r1)
    5198:	7c 7b 1b 78 	mr      r27,r3
    519c:	90 01 00 24 	stw     r0,36(r1)
    51a0:	93 a1 00 14 	stw     r29,20(r1)
    51a4:	7c 9d 23 78 	mr      r29,r4
    51a8:	a9 24 00 0c 	lha     r9,12(r4)
    51ac:	93 81 00 10 	stw     r28,16(r1)
    51b0:	55 2a 07 38 	rlwinm  r10,r9,0,28,28
    51b4:	93 c1 00 18 	stw     r30,24(r1)
    51b8:	7d 46 07 35 	extsh.  r6,r10
    51bc:	93 e1 00 1c 	stw     r31,28(r1)
    51c0:	40 82 01 00 	bne-    52c0 <__sflush_r+0x134>
    51c4:	81 44 00 04 	lwz     r10,4(r4)
    51c8:	61 28 08 00 	ori     r8,r9,2048
    51cc:	b1 04 00 0c 	sth     r8,12(r4)
    51d0:	2f 8a 00 00 	cmpwi   cr7,r10,0
    51d4:	40 9d 01 84 	ble-    cr7,5358 <__sflush_r+0x1cc>
    51d8:	81 5d 00 28 	lwz     r10,40(r29)
    51dc:	2f 8a 00 00 	cmpwi   cr7,r10,0
    51e0:	41 9e 00 b8 	beq-    cr7,5298 <__sflush_r+0x10c>
    51e4:	55 29 04 e6 	rlwinm  r9,r9,0,19,19
    51e8:	83 fb 00 00 	lwz     r31,0(r27)
    51ec:	7d 27 07 35 	extsh.  r7,r9
    51f0:	38 e0 00 00 	li      r7,0
    51f4:	90 fb 00 00 	stw     r7,0(r27)
    51f8:	41 82 01 70 	beq-    5368 <__sflush_r+0x1dc>
    51fc:	80 bd 00 50 	lwz     r5,80(r29)
    5200:	55 08 07 7a 	rlwinm  r8,r8,0,29,29
    5204:	7d 06 07 35 	extsh.  r6,r8
    5208:	41 82 00 20 	beq-    5228 <__sflush_r+0x9c>
    520c:	81 1d 00 30 	lwz     r8,48(r29)
    5210:	81 3d 00 04 	lwz     r9,4(r29)
    5214:	2f 88 00 00 	cmpwi   cr7,r8,0
    5218:	7c a9 28 50 	subf    r5,r9,r5
    521c:	41 9e 00 0c 	beq-    cr7,5228 <__sflush_r+0x9c>
    5220:	81 3d 00 3c 	lwz     r9,60(r29)
    5224:	7c a9 28 50 	subf    r5,r9,r5
    5228:	7f 63 db 78 	mr      r3,r27
    522c:	80 9d 00 1c 	lwz     r4,28(r29)
    5230:	38 c0 00 00 	li      r6,0
    5234:	7d 49 03 a6 	mtctr   r10
    5238:	4e 80 04 21 	bctrl
    523c:	2f 83 ff ff 	cmpwi   cr7,r3,-1
    5240:	41 9e 01 58 	beq-    cr7,5398 <__sflush_r+0x20c>
    5244:	a9 3d 00 0c 	lha     r9,12(r29)
    5248:	81 5d 00 10 	lwz     r10,16(r29)
    524c:	55 28 04 e6 	rlwinm  r8,r9,0,19,19
    5250:	55 29 05 66 	rlwinm  r9,r9,0,21,19
    5254:	7d 06 07 35 	extsh.  r6,r8
    5258:	b1 3d 00 0c 	sth     r9,12(r29)
    525c:	39 20 00 00 	li      r9,0
    5260:	91 5d 00 00 	stw     r10,0(r29)
    5264:	91 3d 00 04 	stw     r9,4(r29)
    5268:	40 82 01 60 	bne-    53c8 <__sflush_r+0x23c>
    526c:	80 9d 00 30 	lwz     r4,48(r29)
    5270:	93 fb 00 00 	stw     r31,0(r27)
    5274:	2f 84 00 00 	cmpwi   cr7,r4,0
    5278:	41 9e 00 20 	beq-    cr7,5298 <__sflush_r+0x10c>
    527c:	39 3d 00 40 	addi    r9,r29,64
    5280:	7f 84 48 00 	cmpw    cr7,r4,r9
    5284:	41 9e 00 0c 	beq-    cr7,5290 <__sflush_r+0x104>
    5288:	7f 63 db 78 	mr      r3,r27
    528c:	48 00 08 01 	bl      5a8c <_free_r>
    5290:	39 20 00 00 	li      r9,0
    5294:	91 3d 00 30 	stw     r9,48(r29)
    5298:	38 60 00 00 	li      r3,0
    529c:	80 01 00 24 	lwz     r0,36(r1)
    52a0:	83 61 00 0c 	lwz     r27,12(r1)
    52a4:	7c 08 03 a6 	mtlr    r0
    52a8:	83 81 00 10 	lwz     r28,16(r1)
    52ac:	83 a1 00 14 	lwz     r29,20(r1)
    52b0:	83 c1 00 18 	lwz     r30,24(r1)
    52b4:	83 e1 00 1c 	lwz     r31,28(r1)
    52b8:	38 21 00 20 	addi    r1,r1,32
    52bc:	4e 80 00 20 	blr
    52c0:	83 84 00 10 	lwz     r28,16(r4)
    52c4:	2f 9c 00 00 	cmpwi   cr7,r28,0
    52c8:	41 be ff d0 	beq-    cr7,5298 <__sflush_r+0x10c>
    52cc:	71 26 00 03 	andi.   r6,r9,3
    52d0:	83 e4 00 00 	lwz     r31,0(r4)
    52d4:	39 40 00 00 	li      r10,0
    52d8:	93 84 00 00 	stw     r28,0(r4)
    52dc:	7f fc f8 50 	subf    r31,r28,r31
    52e0:	40 82 00 08 	bne-    52e8 <__sflush_r+0x15c>
    52e4:	81 44 00 14 	lwz     r10,20(r4)
    52e8:	2f 9f 00 00 	cmpwi   cr7,r31,0
    52ec:	91 5d 00 08 	stw     r10,8(r29)
    52f0:	40 bd ff a8 	ble-    cr7,5298 <__sflush_r+0x10c>
    52f4:	81 3d 00 24 	lwz     r9,36(r29)
    52f8:	7f 85 e3 78 	mr      r5,r28
    52fc:	7f e6 fb 78 	mr      r6,r31
    5300:	7f 63 db 78 	mr      r3,r27
    5304:	80 9d 00 1c 	lwz     r4,28(r29)
    5308:	7d 29 03 a6 	mtctr   r9
    530c:	4e 80 04 21 	bctrl
    5310:	2c 03 00 00 	cmpwi   r3,0
    5314:	7f e3 f8 50 	subf    r31,r3,r31
    5318:	7f 9c 1a 14 	add     r28,r28,r3
    531c:	2f 9f 00 00 	cmpwi   cr7,r31,0
    5320:	41 81 ff d0 	bgt+    52f0 <__sflush_r+0x164>
    5324:	80 01 00 24 	lwz     r0,36(r1)
    5328:	38 60 ff ff 	li      r3,-1
    532c:	a1 3d 00 0c 	lhz     r9,12(r29)
    5330:	7c 08 03 a6 	mtlr    r0
    5334:	83 61 00 0c 	lwz     r27,12(r1)
    5338:	61 29 00 40 	ori     r9,r9,64
    533c:	83 81 00 10 	lwz     r28,16(r1)
    5340:	b1 3d 00 0c 	sth     r9,12(r29)
    5344:	83 c1 00 18 	lwz     r30,24(r1)
    5348:	83 a1 00 14 	lwz     r29,20(r1)
    534c:	83 e1 00 1c 	lwz     r31,28(r1)
    5350:	38 21 00 20 	addi    r1,r1,32
    5354:	4e 80 00 20 	blr
    5358:	81 44 00 3c 	lwz     r10,60(r4)
    535c:	2f 8a 00 00 	cmpwi   cr7,r10,0
    5360:	41 9d fe 78 	bgt+    cr7,51d8 <__sflush_r+0x4c>
    5364:	4b ff ff 34 	b       5298 <__sflush_r+0x10c>
    5368:	38 a0 00 00 	li      r5,0
    536c:	7f 63 db 78 	mr      r3,r27
    5370:	80 9d 00 1c 	lwz     r4,28(r29)
    5374:	38 c0 00 01 	li      r6,1
    5378:	7d 49 03 a6 	mtctr   r10
    537c:	4e 80 04 21 	bctrl
    5380:	2f 83 ff ff 	cmpwi   cr7,r3,-1
    5384:	7c 65 1b 78 	mr      r5,r3
    5388:	41 9e 00 78 	beq-    cr7,5400 <__sflush_r+0x274>
    538c:	a9 1d 00 0c 	lha     r8,12(r29)
    5390:	81 5d 00 28 	lwz     r10,40(r29)
    5394:	4b ff fe 6c 	b       5200 <__sflush_r+0x74>
    5398:	81 3b 00 00 	lwz     r9,0(r27)
    539c:	2f 89 00 00 	cmpwi   cr7,r9,0
    53a0:	40 9e 00 30 	bne-    cr7,53d0 <__sflush_r+0x244>
    53a4:	a9 5d 00 0c 	lha     r10,12(r29)
    53a8:	81 1d 00 10 	lwz     r8,16(r29)
    53ac:	55 47 04 e6 	rlwinm  r7,r10,0,19,19
    53b0:	55 4a 05 66 	rlwinm  r10,r10,0,21,19
    53b4:	7c e6 07 35 	extsh.  r6,r7
    53b8:	b1 5d 00 0c 	sth     r10,12(r29)
    53bc:	91 3d 00 04 	stw     r9,4(r29)
    53c0:	91 1d 00 00 	stw     r8,0(r29)
    53c4:	41 a2 fe a8 	beq-    526c <__sflush_r+0xe0>
    53c8:	90 7d 00 50 	stw     r3,80(r29)
    53cc:	4b ff fe a0 	b       526c <__sflush_r+0xe0>
    53d0:	2f 89 00 1d 	cmpwi   cr7,r9,29
    53d4:	41 9e 00 0c 	beq-    cr7,53e0 <__sflush_r+0x254>
    53d8:	2f 89 00 16 	cmpwi   cr7,r9,22
    53dc:	40 be ff 48 	bne-    cr7,5324 <__sflush_r+0x198>
    53e0:	a1 5d 00 0c 	lhz     r10,12(r29)
    53e4:	81 3d 00 10 	lwz     r9,16(r29)
    53e8:	55 4a 05 66 	rlwinm  r10,r10,0,21,19
    53ec:	b1 5d 00 0c 	sth     r10,12(r29)
    53f0:	39 40 00 00 	li      r10,0
    53f4:	91 5d 00 04 	stw     r10,4(r29)
    53f8:	91 3d 00 00 	stw     r9,0(r29)
    53fc:	4b ff fe 70 	b       526c <__sflush_r+0xe0>
    5400:	81 3b 00 00 	lwz     r9,0(r27)
    5404:	2f 89 00 00 	cmpwi   cr7,r9,0
    5408:	41 be ff 84 	beq-    cr7,538c <__sflush_r+0x200>
    540c:	2f 89 00 1d 	cmpwi   cr7,r9,29
    5410:	41 9e 00 0c 	beq-    cr7,541c <__sflush_r+0x290>
    5414:	2f 89 00 16 	cmpwi   cr7,r9,22
    5418:	40 9e ff 0c 	bne+    cr7,5324 <__sflush_r+0x198>
    541c:	93 fb 00 00 	stw     r31,0(r27)
    5420:	38 60 00 00 	li      r3,0
    5424:	4b ff fe 78 	b       529c <__sflush_r+0x110>

00005428 <_fflush_r>:
    5428:	94 21 ff e0 	stwu    r1,-32(r1)
    542c:	7c 08 02 a6 	mflr    r0
    5430:	93 e1 00 1c 	stw     r31,28(r1)
    5434:	7c 7f 1b 79 	mr.     r31,r3
    5438:	90 01 00 24 	stw     r0,36(r1)
    543c:	41 82 00 10 	beq-    544c <_fflush_r+0x24>
    5440:	81 3f 00 38 	lwz     r9,56(r31)
    5444:	2f 89 00 00 	cmpwi   cr7,r9,0
    5448:	41 9e 00 40 	beq-    cr7,5488 <_fflush_r+0x60>
    544c:	a9 24 00 0c 	lha     r9,12(r4)
    5450:	2f 89 00 00 	cmpwi   cr7,r9,0
    5454:	40 9e 00 1c 	bne-    cr7,5470 <_fflush_r+0x48>
    5458:	80 01 00 24 	lwz     r0,36(r1)
    545c:	38 60 00 00 	li      r3,0
    5460:	83 e1 00 1c 	lwz     r31,28(r1)
    5464:	7c 08 03 a6 	mtlr    r0
    5468:	38 21 00 20 	addi    r1,r1,32
    546c:	4e 80 00 20 	blr
    5470:	80 01 00 24 	lwz     r0,36(r1)
    5474:	7f e3 fb 78 	mr      r3,r31
    5478:	83 e1 00 1c 	lwz     r31,28(r1)
    547c:	7c 08 03 a6 	mtlr    r0
    5480:	38 21 00 20 	addi    r1,r1,32
    5484:	4b ff fd 08 	b       518c <__sflush_r>
    5488:	90 81 00 08 	stw     r4,8(r1)
    548c:	48 00 02 1d 	bl      56a8 <__sinit>
    5490:	80 81 00 08 	lwz     r4,8(r1)
    5494:	4b ff ff b8 	b       544c <_fflush_r+0x24>
    5498:	00 00 f8 b0 	.long 0xf8b0

0000549c <fflush>:
    549c:	94 21 ff f0 	stwu    r1,-16(r1)
    54a0:	7c 08 02 a6 	mflr    r0
    54a4:	42 9f 00 05 	bcl-    20,4*cr7+so,54a8 <fflush+0xc>
    54a8:	7c 64 1b 79 	mr.     r4,r3
    54ac:	93 c1 00 08 	stw     r30,8(r1)
    54b0:	7f c8 02 a6 	mflr    r30
    54b4:	90 01 00 14 	stw     r0,20(r1)
    54b8:	80 1e ff f0 	lwz     r0,-16(r30)
    54bc:	7f c0 f2 14 	add     r30,r0,r30
    54c0:	41 82 00 20 	beq-    54e0 <fflush+0x44>
    54c4:	80 01 00 14 	lwz     r0,20(r1)
    54c8:	81 3e 80 08 	lwz     r9,-32760(r30)
    54cc:	7c 08 03 a6 	mtlr    r0
    54d0:	83 c1 00 08 	lwz     r30,8(r1)
    54d4:	80 69 00 00 	lwz     r3,0(r9)
    54d8:	38 21 00 10 	addi    r1,r1,16
    54dc:	4b ff ff 4c 	b       5428 <_fflush_r>
    54e0:	80 01 00 14 	lwz     r0,20(r1)
    54e4:	81 3e 80 00 	lwz     r9,-32768(r30)
    54e8:	80 9e 80 04 	lwz     r4,-32764(r30)
    54ec:	7c 08 03 a6 	mtlr    r0
    54f0:	83 c1 00 08 	lwz     r30,8(r1)
    54f4:	80 69 00 00 	lwz     r3,0(r9)
    54f8:	38 21 00 10 	addi    r1,r1,16
    54fc:	48 00 09 60 	b       5e5c <_fwalk_reent>

00005500 <__fp_lock>:
    5500:	38 60 00 00 	li      r3,0
    5504:	4e 80 00 20 	blr

00005508 <__fp_unlock>:
    5508:	38 60 00 00 	li      r3,0
    550c:	4e 80 00 20 	blr
    5510:	00 00 f8 44 	.long 0xf844

00005514 <_cleanup_r>:
    5514:	94 21 ff f0 	stwu    r1,-16(r1)
    5518:	7c 08 02 a6 	mflr    r0
    551c:	42 9f 00 05 	bcl-    20,4*cr7+so,5520 <_cleanup_r+0xc>
    5520:	93 c1 00 08 	stw     r30,8(r1)
    5524:	7f c8 02 a6 	mflr    r30
    5528:	90 01 00 14 	stw     r0,20(r1)
    552c:	80 1e ff f0 	lwz     r0,-16(r30)
    5530:	7f c0 f2 14 	add     r30,r0,r30
    5534:	80 01 00 14 	lwz     r0,20(r1)
    5538:	80 9e 80 00 	lwz     r4,-32768(r30)
    553c:	7c 08 03 a6 	mtlr    r0
    5540:	83 c1 00 08 	lwz     r30,8(r1)
    5544:	38 21 00 10 	addi    r1,r1,16
    5548:	48 00 08 24 	b       5d6c <_fwalk>
    554c:	00 00 f8 08 	.long 0xf808

00005550 <std.isra.0>:
    5550:	94 21 ff f0 	stwu    r1,-16(r1)
    5554:	7c 08 02 a6 	mflr    r0
    5558:	42 9f 00 05 	bcl-    20,4*cr7+so,555c <std.isra.0+0xc>
    555c:	39 20 00 00 	li      r9,0
    5560:	93 c1 00 08 	stw     r30,8(r1)
    5564:	7f c8 02 a6 	mflr    r30
    5568:	90 01 00 14 	stw     r0,20(r1)
    556c:	93 e1 00 0c 	stw     r31,12(r1)
    5570:	7c 7f 1b 78 	mr      r31,r3
    5574:	80 1e ff f0 	lwz     r0,-16(r30)
    5578:	b0 83 00 0c 	sth     r4,12(r3)
    557c:	38 80 00 00 	li      r4,0
    5580:	b0 a3 00 0e 	sth     r5,14(r3)
    5584:	7f c0 f2 14 	add     r30,r0,r30
    5588:	91 23 00 00 	stw     r9,0(r3)
    558c:	38 a0 00 08 	li      r5,8
    5590:	91 23 00 04 	stw     r9,4(r3)
    5594:	91 23 00 08 	stw     r9,8(r3)
    5598:	91 23 00 64 	stw     r9,100(r3)
    559c:	91 23 00 10 	stw     r9,16(r3)
    55a0:	91 23 00 14 	stw     r9,20(r3)
    55a4:	91 23 00 18 	stw     r9,24(r3)
    55a8:	38 63 00 5c 	addi    r3,r3,92
    55ac:	4b ff c0 55 	bl      1600 <memset>
    55b0:	81 3e 80 04 	lwz     r9,-32764(r30)
    55b4:	80 01 00 14 	lwz     r0,20(r1)
    55b8:	91 3f 00 20 	stw     r9,32(r31)
    55bc:	81 3e 80 08 	lwz     r9,-32760(r30)
    55c0:	7c 08 03 a6 	mtlr    r0
    55c4:	93 ff 00 1c 	stw     r31,28(r31)
    55c8:	91 3f 00 24 	stw     r9,36(r31)
    55cc:	81 3e 80 0c 	lwz     r9,-32756(r30)
    55d0:	91 3f 00 28 	stw     r9,40(r31)
    55d4:	81 3e 80 10 	lwz     r9,-32752(r30)
    55d8:	83 c1 00 08 	lwz     r30,8(r1)
    55dc:	91 3f 00 2c 	stw     r9,44(r31)
    55e0:	83 e1 00 0c 	lwz     r31,12(r1)
    55e4:	38 21 00 10 	addi    r1,r1,16
    55e8:	4e 80 00 20 	blr

000055ec <__sfmoreglue>:
    55ec:	94 21 ff e0 	stwu    r1,-32(r1)
    55f0:	7c 08 02 a6 	mflr    r0
    55f4:	93 a1 00 14 	stw     r29,20(r1)
    55f8:	1f a4 00 68 	mulli   r29,r4,104
    55fc:	93 81 00 10 	stw     r28,16(r1)
    5600:	7c 9c 23 78 	mr      r28,r4
    5604:	38 9d 00 0c 	addi    r4,r29,12
    5608:	93 e1 00 1c 	stw     r31,28(r1)
    560c:	90 01 00 24 	stw     r0,36(r1)
    5610:	93 c1 00 18 	stw     r30,24(r1)
    5614:	48 00 0d 75 	bl      6388 <_malloc_r>
    5618:	7c 7f 1b 79 	mr.     r31,r3
    561c:	41 82 00 24 	beq-    5640 <__sfmoreglue+0x54>
    5620:	38 7f 00 0c 	addi    r3,r31,12
    5624:	39 20 00 00 	li      r9,0
    5628:	91 3f 00 00 	stw     r9,0(r31)
    562c:	38 80 00 00 	li      r4,0
    5630:	93 9f 00 04 	stw     r28,4(r31)
    5634:	7f a5 eb 78 	mr      r5,r29
    5638:	90 7f 00 08 	stw     r3,8(r31)
    563c:	4b ff bf c5 	bl      1600 <memset>
    5640:	80 01 00 24 	lwz     r0,36(r1)
    5644:	7f e3 fb 78 	mr      r3,r31
    5648:	83 81 00 10 	lwz     r28,16(r1)
    564c:	7c 08 03 a6 	mtlr    r0
    5650:	83 a1 00 14 	lwz     r29,20(r1)
    5654:	83 c1 00 18 	lwz     r30,24(r1)
    5658:	83 e1 00 1c 	lwz     r31,28(r1)
    565c:	38 21 00 20 	addi    r1,r1,32
    5660:	4e 80 00 20 	blr
    5664:	00 00 f6 f0 	.long 0xf6f0

00005668 <_cleanup>:
    5668:	94 21 ff f0 	stwu    r1,-16(r1)
    566c:	7c 08 02 a6 	mflr    r0
    5670:	42 9f 00 05 	bcl-    20,4*cr7+so,5674 <_cleanup+0xc>
    5674:	93 c1 00 08 	stw     r30,8(r1)
    5678:	7f c8 02 a6 	mflr    r30
    567c:	90 01 00 14 	stw     r0,20(r1)
    5680:	80 1e ff f0 	lwz     r0,-16(r30)
    5684:	7f c0 f2 14 	add     r30,r0,r30
    5688:	80 01 00 14 	lwz     r0,20(r1)
    568c:	81 3e 80 14 	lwz     r9,-32748(r30)
    5690:	7c 08 03 a6 	mtlr    r0
    5694:	83 c1 00 08 	lwz     r30,8(r1)
    5698:	80 69 00 00 	lwz     r3,0(r9)
    569c:	38 21 00 10 	addi    r1,r1,16
    56a0:	4b ff fe 74 	b       5514 <_cleanup_r>
    56a4:	00 00 f6 b0 	.long 0xf6b0

000056a8 <__sinit>:
    56a8:	7c 08 02 a6 	mflr    r0
    56ac:	94 21 ff f0 	stwu    r1,-16(r1)
    56b0:	42 9f 00 05 	bcl-    20,4*cr7+so,56b4 <__sinit+0xc>
    56b4:	93 c1 00 08 	stw     r30,8(r1)
    56b8:	7f c8 02 a6 	mflr    r30
    56bc:	90 01 00 14 	stw     r0,20(r1)
    56c0:	93 e1 00 0c 	stw     r31,12(r1)
    56c4:	7c 7f 1b 78 	mr      r31,r3
    56c8:	81 23 00 38 	lwz     r9,56(r3)
    56cc:	80 1e ff f0 	lwz     r0,-16(r30)
    56d0:	2f 89 00 00 	cmpwi   cr7,r9,0
    56d4:	7f c0 f2 14 	add     r30,r0,r30
    56d8:	41 9e 00 1c 	beq-    cr7,56f4 <__sinit+0x4c>
    56dc:	80 01 00 14 	lwz     r0,20(r1)
    56e0:	83 c1 00 08 	lwz     r30,8(r1)
    56e4:	7c 08 03 a6 	mtlr    r0
    56e8:	83 e1 00 0c 	lwz     r31,12(r1)
    56ec:	38 21 00 10 	addi    r1,r1,16
    56f0:	4e 80 00 20 	blr
    56f4:	81 5e 80 18 	lwz     r10,-32744(r30)
    56f8:	39 03 02 ec 	addi    r8,r3,748
    56fc:	91 3f 02 e0 	stw     r9,736(r31)
    5700:	39 20 00 03 	li      r9,3
    5704:	91 5f 00 3c 	stw     r10,60(r31)
    5708:	39 40 00 01 	li      r10,1
    570c:	91 5f 00 38 	stw     r10,56(r31)
    5710:	38 80 00 04 	li      r4,4
    5714:	91 3f 02 e4 	stw     r9,740(r31)
    5718:	38 a0 00 00 	li      r5,0
    571c:	91 1f 02 e8 	stw     r8,744(r31)
    5720:	80 63 00 04 	lwz     r3,4(r3)
    5724:	4b ff fe 2d 	bl      5550 <std.isra.0>
    5728:	80 7f 00 08 	lwz     r3,8(r31)
    572c:	38 80 00 09 	li      r4,9
    5730:	38 a0 00 01 	li      r5,1
    5734:	4b ff fe 1d 	bl      5550 <std.isra.0>
    5738:	80 01 00 14 	lwz     r0,20(r1)
    573c:	80 7f 00 0c 	lwz     r3,12(r31)
    5740:	38 80 00 12 	li      r4,18
    5744:	83 c1 00 08 	lwz     r30,8(r1)
    5748:	7c 08 03 a6 	mtlr    r0
    574c:	83 e1 00 0c 	lwz     r31,12(r1)
    5750:	38 a0 00 02 	li      r5,2
    5754:	38 21 00 10 	addi    r1,r1,16
    5758:	4b ff fd f8 	b       5550 <std.isra.0>
    575c:	00 00 f5 f8 	.long 0xf5f8

00005760 <__sfp>:
    5760:	94 21 ff e0 	stwu    r1,-32(r1)
    5764:	7c 08 02 a6 	mflr    r0
    5768:	42 9f 00 05 	bcl-    20,4*cr7+so,576c <__sfp+0xc>
    576c:	93 c1 00 18 	stw     r30,24(r1)
    5770:	7f c8 02 a6 	mflr    r30
    5774:	90 01 00 24 	stw     r0,36(r1)
    5778:	93 a1 00 14 	stw     r29,20(r1)
    577c:	80 1e ff f0 	lwz     r0,-16(r30)
    5780:	93 81 00 10 	stw     r28,16(r1)
    5784:	7c 7c 1b 78 	mr      r28,r3
    5788:	7f c0 f2 14 	add     r30,r0,r30
    578c:	93 e1 00 1c 	stw     r31,28(r1)
    5790:	81 3e 80 14 	lwz     r9,-32748(r30)
    5794:	83 a9 00 00 	lwz     r29,0(r9)
    5798:	81 3d 00 38 	lwz     r9,56(r29)
    579c:	2f 89 00 00 	cmpwi   cr7,r9,0
    57a0:	41 9e 00 c8 	beq-    cr7,5868 <__sfp+0x108>
    57a4:	3b bd 02 e0 	addi    r29,r29,736
    57a8:	81 3d 00 04 	lwz     r9,4(r29)
    57ac:	83 fd 00 08 	lwz     r31,8(r29)
    57b0:	35 49 ff ff 	addic.  r10,r9,-1
    57b4:	41 80 00 2c 	blt-    57e0 <__sfp+0x80>
    57b8:	a9 5f 00 0c 	lha     r10,12(r31)
    57bc:	2f 8a 00 00 	cmpwi   cr7,r10,0
    57c0:	41 9e 00 34 	beq-    cr7,57f4 <__sfp+0x94>
    57c4:	7d 29 03 a6 	mtctr   r9
    57c8:	48 00 00 10 	b       57d8 <__sfp+0x78>
    57cc:	a9 3f 00 0c 	lha     r9,12(r31)
    57d0:	2f 89 00 00 	cmpwi   cr7,r9,0
    57d4:	41 9e 00 20 	beq-    cr7,57f4 <__sfp+0x94>
    57d8:	3b ff 00 68 	addi    r31,r31,104
    57dc:	42 00 ff f0 	bdnz+   57cc <__sfp+0x6c>
    57e0:	80 7d 00 00 	lwz     r3,0(r29)
    57e4:	2f 83 00 00 	cmpwi   cr7,r3,0
    57e8:	41 9e 00 8c 	beq-    cr7,5874 <__sfp+0x114>
    57ec:	7c 7d 1b 78 	mr      r29,r3
    57f0:	4b ff ff b8 	b       57a8 <__sfp+0x48>
    57f4:	39 20 ff ff 	li      r9,-1
    57f8:	3b a0 00 00 	li      r29,0
    57fc:	b1 3f 00 0e 	sth     r9,14(r31)
    5800:	39 20 00 01 	li      r9,1
    5804:	b1 3f 00 0c 	sth     r9,12(r31)
    5808:	38 7f 00 5c 	addi    r3,r31,92
    580c:	93 bf 00 64 	stw     r29,100(r31)
    5810:	38 80 00 00 	li      r4,0
    5814:	93 bf 00 00 	stw     r29,0(r31)
    5818:	38 a0 00 08 	li      r5,8
    581c:	93 bf 00 08 	stw     r29,8(r31)
    5820:	93 bf 00 04 	stw     r29,4(r31)
    5824:	93 bf 00 10 	stw     r29,16(r31)
    5828:	93 bf 00 14 	stw     r29,20(r31)
    582c:	93 bf 00 18 	stw     r29,24(r31)
    5830:	4b ff bd d1 	bl      1600 <memset>
    5834:	93 bf 00 30 	stw     r29,48(r31)
    5838:	93 bf 00 34 	stw     r29,52(r31)
    583c:	93 bf 00 44 	stw     r29,68(r31)
    5840:	93 bf 00 48 	stw     r29,72(r31)
    5844:	80 01 00 24 	lwz     r0,36(r1)
    5848:	7f e3 fb 78 	mr      r3,r31
    584c:	83 81 00 10 	lwz     r28,16(r1)
    5850:	7c 08 03 a6 	mtlr    r0
    5854:	83 a1 00 14 	lwz     r29,20(r1)
    5858:	83 c1 00 18 	lwz     r30,24(r1)
    585c:	83 e1 00 1c 	lwz     r31,28(r1)
    5860:	38 21 00 20 	addi    r1,r1,32
    5864:	4e 80 00 20 	blr
    5868:	7f a3 eb 78 	mr      r3,r29
    586c:	4b ff fe 3d 	bl      56a8 <__sinit>
    5870:	4b ff ff 34 	b       57a4 <__sfp+0x44>
    5874:	7f 83 e3 78 	mr      r3,r28
    5878:	38 80 00 04 	li      r4,4
    587c:	4b ff fd 71 	bl      55ec <__sfmoreglue>
    5880:	2f 83 00 00 	cmpwi   cr7,r3,0
    5884:	90 7d 00 00 	stw     r3,0(r29)
    5888:	40 9e ff 64 	bne+    cr7,57ec <__sfp+0x8c>
    588c:	39 20 00 0c 	li      r9,12
    5890:	3b e0 00 00 	li      r31,0
    5894:	91 3c 00 00 	stw     r9,0(r28)
    5898:	4b ff ff ac 	b       5844 <__sfp+0xe4>

0000589c <__sfp_lock_acquire>:
    589c:	4e 80 00 20 	blr

000058a0 <__sfp_lock_release>:
    58a0:	4e 80 00 20 	blr

000058a4 <__sinit_lock_acquire>:
    58a4:	4e 80 00 20 	blr

000058a8 <__sinit_lock_release>:
    58a8:	4e 80 00 20 	blr
    58ac:	00 00 f4 a8 	.long 0xf4a8

000058b0 <__fp_lock_all>:
    58b0:	94 21 ff f0 	stwu    r1,-16(r1)
    58b4:	7c 08 02 a6 	mflr    r0
    58b8:	42 9f 00 05 	bcl-    20,4*cr7+so,58bc <__fp_lock_all+0xc>
    58bc:	93 c1 00 08 	stw     r30,8(r1)
    58c0:	7f c8 02 a6 	mflr    r30
    58c4:	90 01 00 14 	stw     r0,20(r1)
    58c8:	80 1e ff f0 	lwz     r0,-16(r30)
    58cc:	7f c0 f2 14 	add     r30,r0,r30
    58d0:	80 01 00 14 	lwz     r0,20(r1)
    58d4:	81 3e 80 1c 	lwz     r9,-32740(r30)
    58d8:	80 9e 80 20 	lwz     r4,-32736(r30)
    58dc:	7c 08 03 a6 	mtlr    r0
    58e0:	83 c1 00 08 	lwz     r30,8(r1)
    58e4:	80 69 00 00 	lwz     r3,0(r9)
    58e8:	38 21 00 10 	addi    r1,r1,16
    58ec:	48 00 04 80 	b       5d6c <_fwalk>
    58f0:	00 00 f4 64 	.long 0xf464

000058f4 <__fp_unlock_all>:
    58f4:	94 21 ff f0 	stwu    r1,-16(r1)
    58f8:	7c 08 02 a6 	mflr    r0
    58fc:	42 9f 00 05 	bcl-    20,4*cr7+so,5900 <__fp_unlock_all+0xc>
    5900:	93 c1 00 08 	stw     r30,8(r1)
    5904:	7f c8 02 a6 	mflr    r30
    5908:	90 01 00 14 	stw     r0,20(r1)
    590c:	80 1e ff f0 	lwz     r0,-16(r30)
    5910:	7f c0 f2 14 	add     r30,r0,r30
    5914:	80 01 00 14 	lwz     r0,20(r1)
    5918:	81 3e 80 1c 	lwz     r9,-32740(r30)
    591c:	80 9e 80 24 	lwz     r4,-32732(r30)
    5920:	7c 08 03 a6 	mtlr    r0
    5924:	83 c1 00 08 	lwz     r30,8(r1)
    5928:	80 69 00 00 	lwz     r3,0(r9)
    592c:	38 21 00 10 	addi    r1,r1,16
    5930:	48 00 04 3c 	b       5d6c <_fwalk>
    5934:	00 00 f4 48 	.long 0xf448

00005938 <_malloc_trim_r>:
    5938:	94 21 ff e0 	stwu    r1,-32(r1)
    593c:	7c 08 02 a6 	mflr    r0
    5940:	42 9f 00 05 	bcl-    20,4*cr7+so,5944 <_malloc_trim_r+0xc>
    5944:	93 c1 00 18 	stw     r30,24(r1)
    5948:	7f c8 02 a6 	mflr    r30
    594c:	90 01 00 24 	stw     r0,36(r1)
    5950:	93 61 00 0c 	stw     r27,12(r1)
    5954:	7c 9b 23 78 	mr      r27,r4
    5958:	80 1e ff f0 	lwz     r0,-16(r30)
    595c:	93 81 00 10 	stw     r28,16(r1)
    5960:	7f c0 f2 14 	add     r30,r0,r30
    5964:	93 a1 00 14 	stw     r29,20(r1)
    5968:	93 e1 00 1c 	stw     r31,28(r1)
    596c:	7c 7f 1b 78 	mr      r31,r3
    5970:	48 00 14 ad 	bl      6e1c <__malloc_lock>
    5974:	83 be 80 00 	lwz     r29,-32768(r30)
    5978:	81 3d 00 08 	lwz     r9,8(r29)
    597c:	83 89 00 04 	lwz     r28,4(r9)
    5980:	57 9c 00 3a 	rlwinm  r28,r28,0,0,29
    5984:	39 3c 0f ef 	addi    r9,r28,4079
    5988:	7f 7b 48 50 	subf    r27,r27,r9
    598c:	57 7b 00 26 	rlwinm  r27,r27,0,0,19
    5990:	3b 7b f0 00 	addi    r27,r27,-4096
    5994:	2f 9b 0f ff 	cmpwi   cr7,r27,4095
    5998:	40 9d 00 20 	ble-    cr7,59b8 <_malloc_trim_r+0x80>
    599c:	7f e3 fb 78 	mr      r3,r31
    59a0:	38 80 00 00 	li      r4,0
    59a4:	48 00 27 71 	bl      8114 <_sbrk_r>
    59a8:	81 3d 00 08 	lwz     r9,8(r29)
    59ac:	7d 29 e2 14 	add     r9,r9,r28
    59b0:	7f 83 48 00 	cmpw    cr7,r3,r9
    59b4:	41 9e 00 34 	beq-    cr7,59e8 <_malloc_trim_r+0xb0>
    59b8:	7f e3 fb 78 	mr      r3,r31
    59bc:	48 00 14 65 	bl      6e20 <__malloc_unlock>
    59c0:	80 01 00 24 	lwz     r0,36(r1)
    59c4:	83 61 00 0c 	lwz     r27,12(r1)
    59c8:	38 60 00 00 	li      r3,0
    59cc:	7c 08 03 a6 	mtlr    r0
    59d0:	83 81 00 10 	lwz     r28,16(r1)
    59d4:	83 a1 00 14 	lwz     r29,20(r1)
    59d8:	83 c1 00 18 	lwz     r30,24(r1)
    59dc:	83 e1 00 1c 	lwz     r31,28(r1)
    59e0:	38 21 00 20 	addi    r1,r1,32
    59e4:	4e 80 00 20 	blr
    59e8:	7f e3 fb 78 	mr      r3,r31
    59ec:	7c 9b 00 d0 	neg     r4,r27
    59f0:	48 00 27 25 	bl      8114 <_sbrk_r>
    59f4:	2f 83 ff ff 	cmpwi   cr7,r3,-1
    59f8:	41 9e 00 54 	beq-    cr7,5a4c <_malloc_trim_r+0x114>
    59fc:	81 3e 80 04 	lwz     r9,-32764(r30)
    5a00:	7f 9b e0 50 	subf    r28,r27,r28
    5a04:	81 1d 00 08 	lwz     r8,8(r29)
    5a08:	63 9c 00 01 	ori     r28,r28,1
    5a0c:	81 49 00 00 	lwz     r10,0(r9)
    5a10:	7f e3 fb 78 	mr      r3,r31
    5a14:	93 88 00 04 	stw     r28,4(r8)
    5a18:	7f 7b 50 50 	subf    r27,r27,r10
    5a1c:	93 69 00 00 	stw     r27,0(r9)
    5a20:	48 00 14 01 	bl      6e20 <__malloc_unlock>
    5a24:	80 01 00 24 	lwz     r0,36(r1)
    5a28:	38 60 00 01 	li      r3,1
    5a2c:	83 61 00 0c 	lwz     r27,12(r1)
    5a30:	7c 08 03 a6 	mtlr    r0
    5a34:	83 81 00 10 	lwz     r28,16(r1)
    5a38:	83 a1 00 14 	lwz     r29,20(r1)
    5a3c:	83 c1 00 18 	lwz     r30,24(r1)
    5a40:	83 e1 00 1c 	lwz     r31,28(r1)
    5a44:	38 21 00 20 	addi    r1,r1,32
    5a48:	4e 80 00 20 	blr
    5a4c:	7f e3 fb 78 	mr      r3,r31
    5a50:	38 80 00 00 	li      r4,0
    5a54:	48 00 26 c1 	bl      8114 <_sbrk_r>
    5a58:	81 3d 00 08 	lwz     r9,8(r29)
    5a5c:	7d 49 18 50 	subf    r10,r9,r3
    5a60:	2f 8a 00 0f 	cmpwi   cr7,r10,15
    5a64:	40 bd ff 54 	ble-    cr7,59b8 <_malloc_trim_r+0x80>
    5a68:	81 1e 80 08 	lwz     r8,-32760(r30)
    5a6c:	61 4a 00 01 	ori     r10,r10,1
    5a70:	91 49 00 04 	stw     r10,4(r9)
    5a74:	81 08 00 00 	lwz     r8,0(r8)
    5a78:	7c 68 18 50 	subf    r3,r8,r3
    5a7c:	81 1e 80 04 	lwz     r8,-32764(r30)
    5a80:	90 68 00 00 	stw     r3,0(r8)
    5a84:	4b ff ff 34 	b       59b8 <_malloc_trim_r+0x80>
    5a88:	00 00 f2 f4 	.long 0xf2f4

00005a8c <_free_r>:
    5a8c:	94 21 ff e0 	stwu    r1,-32(r1)
    5a90:	7c 08 02 a6 	mflr    r0
    5a94:	42 9f 00 05 	bcl-    20,4*cr7+so,5a98 <_free_r+0xc>
    5a98:	93 c1 00 18 	stw     r30,24(r1)
    5a9c:	7f c8 02 a6 	mflr    r30
    5aa0:	93 e1 00 1c 	stw     r31,28(r1)
    5aa4:	7c 9f 23 79 	mr.     r31,r4
    5aa8:	90 01 00 24 	stw     r0,36(r1)
    5aac:	80 1e ff f0 	lwz     r0,-16(r30)
    5ab0:	93 a1 00 14 	stw     r29,20(r1)
    5ab4:	7f c0 f2 14 	add     r30,r0,r30
    5ab8:	41 82 01 38 	beq-    5bf0 <_free_r+0x164>
    5abc:	7c 7d 1b 78 	mr      r29,r3
    5ac0:	48 00 13 5d 	bl      6e1c <__malloc_lock>
    5ac4:	80 bf ff fc 	lwz     r5,-4(r31)
    5ac8:	39 1f ff f8 	addi    r8,r31,-8
    5acc:	80 fe 80 00 	lwz     r7,-32768(r30)
    5ad0:	54 a9 00 3c 	rlwinm  r9,r5,0,0,30
    5ad4:	80 c7 00 08 	lwz     r6,8(r7)
    5ad8:	7d 48 4a 14 	add     r10,r8,r9
    5adc:	7f 86 50 00 	cmpw    cr7,r6,r10
    5ae0:	80 ca 00 04 	lwz     r6,4(r10)
    5ae4:	54 c6 00 3a 	rlwinm  r6,r6,0,0,29
    5ae8:	41 9e 01 7c 	beq-    cr7,5c64 <_free_r+0x1d8>
    5aec:	70 a4 00 01 	andi.   r4,r5,1
    5af0:	90 ca 00 04 	stw     r6,4(r10)
    5af4:	38 80 00 00 	li      r4,0
    5af8:	40 82 00 2c 	bne-    5b24 <_free_r+0x98>
    5afc:	80 7f ff f8 	lwz     r3,-8(r31)
    5b00:	39 67 00 08 	addi    r11,r7,8
    5b04:	7d 03 40 50 	subf    r8,r3,r8
    5b08:	7d 29 1a 14 	add     r9,r9,r3
    5b0c:	80 a8 00 08 	lwz     r5,8(r8)
    5b10:	7f 85 58 00 	cmpw    cr7,r5,r11
    5b14:	41 9e 01 a8 	beq-    cr7,5cbc <_free_r+0x230>
    5b18:	80 68 00 0c 	lwz     r3,12(r8)
    5b1c:	90 65 00 0c 	stw     r3,12(r5)
    5b20:	90 a3 00 08 	stw     r5,8(r3)
    5b24:	7c aa 32 14 	add     r5,r10,r6
    5b28:	2f 84 00 00 	cmpwi   cr7,r4,0
    5b2c:	80 a5 00 04 	lwz     r5,4(r5)
    5b30:	70 a3 00 01 	andi.   r3,r5,1
    5b34:	40 82 00 28 	bne-    5b5c <_free_r+0xd0>
    5b38:	7d 29 32 14 	add     r9,r9,r6
    5b3c:	80 ca 00 08 	lwz     r6,8(r10)
    5b40:	40 9e 00 10 	bne-    cr7,5b50 <_free_r+0xc4>
    5b44:	80 be 80 14 	lwz     r5,-32748(r30)
    5b48:	7f 06 28 00 	cmpw    cr6,r6,r5
    5b4c:	41 9a 01 78 	beq-    cr6,5cc4 <_free_r+0x238>
    5b50:	81 4a 00 0c 	lwz     r10,12(r10)
    5b54:	91 46 00 0c 	stw     r10,12(r6)
    5b58:	90 ca 00 08 	stw     r6,8(r10)
    5b5c:	61 2a 00 01 	ori     r10,r9,1
    5b60:	7d 28 49 2e 	stwx    r9,r8,r9
    5b64:	91 48 00 04 	stw     r10,4(r8)
    5b68:	40 9e 00 68 	bne-    cr7,5bd0 <_free_r+0x144>
    5b6c:	2b 89 01 ff 	cmplwi  cr7,r9,511
    5b70:	40 9d 00 9c 	ble-    cr7,5c0c <_free_r+0x180>
    5b74:	55 2a ba 7e 	rlwinm  r10,r9,23,9,31
    5b78:	2b 8a 00 04 	cmplwi  cr7,r10,4
    5b7c:	41 9d 01 68 	bgt-    cr7,5ce4 <_free_r+0x258>
    5b80:	55 25 d1 be 	rlwinm  r5,r9,26,6,31
    5b84:	38 a5 00 38 	addi    r5,r5,56
    5b88:	54 a6 08 3c 	rlwinm  r6,r5,1,0,30
    5b8c:	54 c6 10 3a 	rlwinm  r6,r6,2,0,29
    5b90:	7c c7 32 14 	add     r6,r7,r6
    5b94:	81 46 00 08 	lwz     r10,8(r6)
    5b98:	7f 8a 30 00 	cmpw    cr7,r10,r6
    5b9c:	41 9e 01 5c 	beq-    cr7,5cf8 <_free_r+0x26c>
    5ba0:	80 ea 00 04 	lwz     r7,4(r10)
    5ba4:	54 e7 00 3a 	rlwinm  r7,r7,0,0,29
    5ba8:	7f 89 38 40 	cmplw   cr7,r9,r7
    5bac:	40 9c 00 10 	bge-    cr7,5bbc <_free_r+0x130>
    5bb0:	81 4a 00 08 	lwz     r10,8(r10)
    5bb4:	7f 86 50 00 	cmpw    cr7,r6,r10
    5bb8:	40 9e ff e8 	bne+    cr7,5ba0 <_free_r+0x114>
    5bbc:	81 2a 00 0c 	lwz     r9,12(r10)
    5bc0:	91 28 00 0c 	stw     r9,12(r8)
    5bc4:	91 48 00 08 	stw     r10,8(r8)
    5bc8:	91 0a 00 0c 	stw     r8,12(r10)
    5bcc:	91 09 00 08 	stw     r8,8(r9)
    5bd0:	80 01 00 24 	lwz     r0,36(r1)
    5bd4:	7f a3 eb 78 	mr      r3,r29
    5bd8:	83 c1 00 18 	lwz     r30,24(r1)
    5bdc:	83 a1 00 14 	lwz     r29,20(r1)
    5be0:	7c 08 03 a6 	mtlr    r0
    5be4:	83 e1 00 1c 	lwz     r31,28(r1)
    5be8:	38 21 00 20 	addi    r1,r1,32
    5bec:	48 00 12 34 	b       6e20 <__malloc_unlock>
    5bf0:	80 01 00 24 	lwz     r0,36(r1)
    5bf4:	83 a1 00 14 	lwz     r29,20(r1)
    5bf8:	7c 08 03 a6 	mtlr    r0
    5bfc:	83 c1 00 18 	lwz     r30,24(r1)
    5c00:	83 e1 00 1c 	lwz     r31,28(r1)
    5c04:	38 21 00 20 	addi    r1,r1,32
    5c08:	4e 80 00 20 	blr
    5c0c:	55 29 e8 fe 	rlwinm  r9,r9,29,3,31
    5c10:	80 a7 00 04 	lwz     r5,4(r7)
    5c14:	55 2a 18 38 	rlwinm  r10,r9,3,0,28
    5c18:	38 80 00 01 	li      r4,1
    5c1c:	7d 47 52 14 	add     r10,r7,r10
    5c20:	7d 29 16 70 	srawi   r9,r9,2
    5c24:	80 ca 00 08 	lwz     r6,8(r10)
    5c28:	7c 89 48 30 	slw     r9,r4,r9
    5c2c:	80 01 00 24 	lwz     r0,36(r1)
    5c30:	7d 25 2b 78 	or      r5,r9,r5
    5c34:	91 48 00 0c 	stw     r10,12(r8)
    5c38:	7f a3 eb 78 	mr      r3,r29
    5c3c:	90 c8 00 08 	stw     r6,8(r8)
    5c40:	7c 08 03 a6 	mtlr    r0
    5c44:	83 a1 00 14 	lwz     r29,20(r1)
    5c48:	83 c1 00 18 	lwz     r30,24(r1)
    5c4c:	83 e1 00 1c 	lwz     r31,28(r1)
    5c50:	90 a7 00 04 	stw     r5,4(r7)
    5c54:	91 0a 00 08 	stw     r8,8(r10)
    5c58:	91 06 00 0c 	stw     r8,12(r6)
    5c5c:	38 21 00 20 	addi    r1,r1,32
    5c60:	48 00 11 c0 	b       6e20 <__malloc_unlock>
    5c64:	70 a3 00 01 	andi.   r3,r5,1
    5c68:	7d 26 4a 14 	add     r9,r6,r9
    5c6c:	40 82 00 20 	bne-    5c8c <_free_r+0x200>
    5c70:	80 bf ff f8 	lwz     r5,-8(r31)
    5c74:	7d 05 40 50 	subf    r8,r5,r8
    5c78:	7d 29 2a 14 	add     r9,r9,r5
    5c7c:	80 c8 00 0c 	lwz     r6,12(r8)
    5c80:	81 48 00 08 	lwz     r10,8(r8)
    5c84:	90 ca 00 0c 	stw     r6,12(r10)
    5c88:	91 46 00 08 	stw     r10,8(r6)
    5c8c:	81 5e 80 0c 	lwz     r10,-32756(r30)
    5c90:	61 25 00 01 	ori     r5,r9,1
    5c94:	90 a8 00 04 	stw     r5,4(r8)
    5c98:	80 ca 00 00 	lwz     r6,0(r10)
    5c9c:	91 07 00 08 	stw     r8,8(r7)
    5ca0:	7f 89 30 40 	cmplw   cr7,r9,r6
    5ca4:	41 9c ff 2c 	blt+    cr7,5bd0 <_free_r+0x144>
    5ca8:	81 3e 80 10 	lwz     r9,-32752(r30)
    5cac:	7f a3 eb 78 	mr      r3,r29
    5cb0:	80 89 00 00 	lwz     r4,0(r9)
    5cb4:	4b ff fc 85 	bl      5938 <_malloc_trim_r>
    5cb8:	4b ff ff 18 	b       5bd0 <_free_r+0x144>
    5cbc:	38 80 00 01 	li      r4,1
    5cc0:	4b ff fe 64 	b       5b24 <_free_r+0x98>
    5cc4:	61 2a 00 01 	ori     r10,r9,1
    5cc8:	91 07 00 14 	stw     r8,20(r7)
    5ccc:	91 07 00 10 	stw     r8,16(r7)
    5cd0:	90 c8 00 0c 	stw     r6,12(r8)
    5cd4:	90 c8 00 08 	stw     r6,8(r8)
    5cd8:	91 48 00 04 	stw     r10,4(r8)
    5cdc:	7d 28 49 2e 	stwx    r9,r8,r9
    5ce0:	4b ff fe f0 	b       5bd0 <_free_r+0x144>
    5ce4:	2b 8a 00 14 	cmplwi  cr7,r10,20
    5ce8:	41 9d 00 30 	bgt-    cr7,5d18 <_free_r+0x28c>
    5cec:	38 aa 00 5b 	addi    r5,r10,91
    5cf0:	54 a6 08 3c 	rlwinm  r6,r5,1,0,30
    5cf4:	4b ff fe 98 	b       5b8c <_free_r+0x100>
    5cf8:	81 27 00 04 	lwz     r9,4(r7)
    5cfc:	7c a5 16 70 	srawi   r5,r5,2
    5d00:	38 c0 00 01 	li      r6,1
    5d04:	7c c6 28 30 	slw     r6,r6,r5
    5d08:	7c c9 4b 78 	or      r9,r6,r9
    5d0c:	91 27 00 04 	stw     r9,4(r7)
    5d10:	7d 49 53 78 	mr      r9,r10
    5d14:	4b ff fe ac 	b       5bc0 <_free_r+0x134>
    5d18:	2b 8a 00 54 	cmplwi  cr7,r10,84
    5d1c:	41 9d 00 14 	bgt-    cr7,5d30 <_free_r+0x2a4>
    5d20:	55 25 a3 3e 	rlwinm  r5,r9,20,12,31
    5d24:	38 a5 00 6e 	addi    r5,r5,110
    5d28:	54 a6 08 3c 	rlwinm  r6,r5,1,0,30
    5d2c:	4b ff fe 60 	b       5b8c <_free_r+0x100>
    5d30:	2b 8a 01 54 	cmplwi  cr7,r10,340
    5d34:	41 9d 00 14 	bgt-    cr7,5d48 <_free_r+0x2bc>
    5d38:	55 25 8b fe 	rlwinm  r5,r9,17,15,31
    5d3c:	38 a5 00 77 	addi    r5,r5,119
    5d40:	54 a6 08 3c 	rlwinm  r6,r5,1,0,30
    5d44:	4b ff fe 48 	b       5b8c <_free_r+0x100>
    5d48:	2b 8a 05 54 	cmplwi  cr7,r10,1364
    5d4c:	41 9d 00 14 	bgt-    cr7,5d60 <_free_r+0x2d4>
    5d50:	55 25 74 be 	rlwinm  r5,r9,14,18,31
    5d54:	38 a5 00 7c 	addi    r5,r5,124
    5d58:	54 a6 08 3c 	rlwinm  r6,r5,1,0,30
    5d5c:	4b ff fe 30 	b       5b8c <_free_r+0x100>
    5d60:	38 c0 00 fc 	li      r6,252
    5d64:	38 a0 00 7e 	li      r5,126
    5d68:	4b ff fe 24 	b       5b8c <_free_r+0x100>

00005d6c <_fwalk>:
    5d6c:	94 21 ff e0 	stwu    r1,-32(r1)
    5d70:	7c 08 02 a6 	mflr    r0
    5d74:	93 81 00 10 	stw     r28,16(r1)
    5d78:	37 83 02 e0 	addic.  r28,r3,736
    5d7c:	90 01 00 24 	stw     r0,36(r1)
    5d80:	93 41 00 08 	stw     r26,8(r1)
    5d84:	93 61 00 0c 	stw     r27,12(r1)
    5d88:	93 a1 00 14 	stw     r29,20(r1)
    5d8c:	93 c1 00 18 	stw     r30,24(r1)
    5d90:	93 e1 00 1c 	stw     r31,28(r1)
    5d94:	41 82 00 98 	beq-    5e2c <_fwalk+0xc0>
    5d98:	7c 9a 23 78 	mr      r26,r4
    5d9c:	3b 60 00 00 	li      r27,0
    5da0:	83 bc 00 04 	lwz     r29,4(r28)
    5da4:	83 fc 00 08 	lwz     r31,8(r28)
    5da8:	37 bd ff ff 	addic.  r29,r29,-1
    5dac:	41 80 00 48 	blt-    5df4 <_fwalk+0x88>
    5db0:	a1 3f 00 0c 	lhz     r9,12(r31)
    5db4:	55 2a 04 3e 	clrlwi  r10,r9,16
    5db8:	2b 8a 00 01 	cmplwi  cr7,r10,1
    5dbc:	71 2a ff ff 	andi.   r10,r9,65535
    5dc0:	41 82 00 24 	beq-    5de4 <_fwalk+0x78>
    5dc4:	40 9d 00 20 	ble-    cr7,5de4 <_fwalk+0x78>
    5dc8:	a9 3f 00 0e 	lha     r9,14(r31)
    5dcc:	7f e3 fb 78 	mr      r3,r31
    5dd0:	2f 89 ff ff 	cmpwi   cr7,r9,-1
    5dd4:	41 9e 00 10 	beq-    cr7,5de4 <_fwalk+0x78>
    5dd8:	7f 49 03 a6 	mtctr   r26
    5ddc:	4e 80 04 21 	bctrl
    5de0:	7f 7b 1b 78 	or      r27,r27,r3
    5de4:	2f 9d 00 00 	cmpwi   cr7,r29,0
    5de8:	3b ff 00 68 	addi    r31,r31,104
    5dec:	3b bd ff ff 	addi    r29,r29,-1
    5df0:	40 9e ff c0 	bne+    cr7,5db0 <_fwalk+0x44>
    5df4:	83 9c 00 00 	lwz     r28,0(r28)
    5df8:	2f 9c 00 00 	cmpwi   cr7,r28,0
    5dfc:	40 9e ff a4 	bne+    cr7,5da0 <_fwalk+0x34>
    5e00:	80 01 00 24 	lwz     r0,36(r1)
    5e04:	7f 63 db 78 	mr      r3,r27
    5e08:	83 41 00 08 	lwz     r26,8(r1)
    5e0c:	7c 08 03 a6 	mtlr    r0
    5e10:	83 61 00 0c 	lwz     r27,12(r1)
    5e14:	83 81 00 10 	lwz     r28,16(r1)
    5e18:	83 a1 00 14 	lwz     r29,20(r1)
    5e1c:	83 c1 00 18 	lwz     r30,24(r1)
    5e20:	83 e1 00 1c 	lwz     r31,28(r1)
    5e24:	38 21 00 20 	addi    r1,r1,32
    5e28:	4e 80 00 20 	blr
    5e2c:	80 01 00 24 	lwz     r0,36(r1)
    5e30:	3b 60 00 00 	li      r27,0
    5e34:	7f 63 db 78 	mr      r3,r27
    5e38:	83 41 00 08 	lwz     r26,8(r1)
    5e3c:	7c 08 03 a6 	mtlr    r0
    5e40:	83 61 00 0c 	lwz     r27,12(r1)
    5e44:	83 81 00 10 	lwz     r28,16(r1)
    5e48:	83 a1 00 14 	lwz     r29,20(r1)
    5e4c:	83 c1 00 18 	lwz     r30,24(r1)
    5e50:	83 e1 00 1c 	lwz     r31,28(r1)
    5e54:	38 21 00 20 	addi    r1,r1,32
    5e58:	4e 80 00 20 	blr

00005e5c <_fwalk_reent>:
    5e5c:	94 21 ff d0 	stwu    r1,-48(r1)
    5e60:	7c 08 02 a6 	mflr    r0
    5e64:	93 81 00 20 	stw     r28,32(r1)
    5e68:	37 83 02 e0 	addic.  r28,r3,736
    5e6c:	93 41 00 18 	stw     r26,24(r1)
    5e70:	7c 7a 1b 78 	mr      r26,r3
    5e74:	90 01 00 34 	stw     r0,52(r1)
    5e78:	93 21 00 14 	stw     r25,20(r1)
    5e7c:	93 61 00 1c 	stw     r27,28(r1)
    5e80:	93 a1 00 24 	stw     r29,36(r1)
    5e84:	93 c1 00 28 	stw     r30,40(r1)
    5e88:	93 e1 00 2c 	stw     r31,44(r1)
    5e8c:	41 82 00 a0 	beq-    5f2c <_fwalk_reent+0xd0>
    5e90:	7c 99 23 78 	mr      r25,r4
    5e94:	3b 60 00 00 	li      r27,0
    5e98:	83 bc 00 04 	lwz     r29,4(r28)
    5e9c:	83 fc 00 08 	lwz     r31,8(r28)
    5ea0:	37 bd ff ff 	addic.  r29,r29,-1
    5ea4:	41 80 00 4c 	blt-    5ef0 <_fwalk_reent+0x94>
    5ea8:	a1 3f 00 0c 	lhz     r9,12(r31)
    5eac:	55 2a 04 3e 	clrlwi  r10,r9,16
    5eb0:	2b 8a 00 01 	cmplwi  cr7,r10,1
    5eb4:	71 2a ff ff 	andi.   r10,r9,65535
    5eb8:	41 82 00 28 	beq-    5ee0 <_fwalk_reent+0x84>
    5ebc:	40 9d 00 24 	ble-    cr7,5ee0 <_fwalk_reent+0x84>
    5ec0:	a9 3f 00 0e 	lha     r9,14(r31)
    5ec4:	7f e4 fb 78 	mr      r4,r31
    5ec8:	7f 43 d3 78 	mr      r3,r26
    5ecc:	2f 89 ff ff 	cmpwi   cr7,r9,-1
    5ed0:	41 9e 00 10 	beq-    cr7,5ee0 <_fwalk_reent+0x84>
    5ed4:	7f 29 03 a6 	mtctr   r25
    5ed8:	4e 80 04 21 	bctrl
    5edc:	7f 7b 1b 78 	or      r27,r27,r3
    5ee0:	2f 9d 00 00 	cmpwi   cr7,r29,0
    5ee4:	3b ff 00 68 	addi    r31,r31,104
    5ee8:	3b bd ff ff 	addi    r29,r29,-1
    5eec:	40 9e ff bc 	bne+    cr7,5ea8 <_fwalk_reent+0x4c>
    5ef0:	83 9c 00 00 	lwz     r28,0(r28)
    5ef4:	2f 9c 00 00 	cmpwi   cr7,r28,0
    5ef8:	40 9e ff a0 	bne+    cr7,5e98 <_fwalk_reent+0x3c>
    5efc:	80 01 00 34 	lwz     r0,52(r1)
    5f00:	7f 63 db 78 	mr      r3,r27
    5f04:	83 21 00 14 	lwz     r25,20(r1)
    5f08:	7c 08 03 a6 	mtlr    r0
    5f0c:	83 41 00 18 	lwz     r26,24(r1)
    5f10:	83 61 00 1c 	lwz     r27,28(r1)
    5f14:	83 81 00 20 	lwz     r28,32(r1)
    5f18:	83 a1 00 24 	lwz     r29,36(r1)
    5f1c:	83 c1 00 28 	lwz     r30,40(r1)
    5f20:	83 e1 00 2c 	lwz     r31,44(r1)
    5f24:	38 21 00 30 	addi    r1,r1,48
    5f28:	4e 80 00 20 	blr
    5f2c:	80 01 00 34 	lwz     r0,52(r1)
    5f30:	3b 60 00 00 	li      r27,0
    5f34:	7f 63 db 78 	mr      r3,r27
    5f38:	83 21 00 14 	lwz     r25,20(r1)
    5f3c:	7c 08 03 a6 	mtlr    r0
    5f40:	83 41 00 18 	lwz     r26,24(r1)
    5f44:	83 61 00 1c 	lwz     r27,28(r1)
    5f48:	83 81 00 20 	lwz     r28,32(r1)
    5f4c:	83 a1 00 24 	lwz     r29,36(r1)
    5f50:	83 c1 00 28 	lwz     r30,40(r1)
    5f54:	83 e1 00 2c 	lwz     r31,44(r1)
    5f58:	38 21 00 30 	addi    r1,r1,48
    5f5c:	4e 80 00 20 	blr
    5f60:	00 00 ee 34 	.long 0xee34

00005f64 <_setlocale_r>:
    5f64:	94 21 ff e0 	stwu    r1,-32(r1)
    5f68:	7c 08 02 a6 	mflr    r0
    5f6c:	42 9f 00 05 	bcl-    20,4*cr7+so,5f70 <_setlocale_r+0xc>
    5f70:	93 c1 00 18 	stw     r30,24(r1)
    5f74:	7f c8 02 a6 	mflr    r30
    5f78:	93 a1 00 14 	stw     r29,20(r1)
    5f7c:	7c bd 2b 79 	mr.     r29,r5
    5f80:	90 01 00 24 	stw     r0,36(r1)
    5f84:	80 1e ff f0 	lwz     r0,-16(r30)
    5f88:	93 e1 00 1c 	stw     r31,28(r1)
    5f8c:	7f c0 f2 14 	add     r30,r0,r30
    5f90:	41 82 00 84 	beq-    6014 <_setlocale_r+0xb0>
    5f94:	80 9e 80 04 	lwz     r4,-32764(r30)
    5f98:	7f a3 eb 78 	mr      r3,r29
    5f9c:	48 00 23 71 	bl      830c <strcmp>
    5fa0:	83 fe 80 00 	lwz     r31,-32768(r30)
    5fa4:	2f 83 00 00 	cmpwi   cr7,r3,0
    5fa8:	40 9e 00 24 	bne-    cr7,5fcc <_setlocale_r+0x68>
    5fac:	80 01 00 24 	lwz     r0,36(r1)
    5fb0:	7f e3 fb 78 	mr      r3,r31
    5fb4:	83 a1 00 14 	lwz     r29,20(r1)
    5fb8:	7c 08 03 a6 	mtlr    r0
    5fbc:	83 c1 00 18 	lwz     r30,24(r1)
    5fc0:	83 e1 00 1c 	lwz     r31,28(r1)
    5fc4:	38 21 00 20 	addi    r1,r1,32
    5fc8:	4e 80 00 20 	blr
    5fcc:	7f a3 eb 78 	mr      r3,r29
    5fd0:	7f e4 fb 78 	mr      r4,r31
    5fd4:	48 00 23 39 	bl      830c <strcmp>
    5fd8:	2f 83 00 00 	cmpwi   cr7,r3,0
    5fdc:	41 9e ff d0 	beq+    cr7,5fac <_setlocale_r+0x48>
    5fe0:	80 9e 80 08 	lwz     r4,-32760(r30)
    5fe4:	7f a3 eb 78 	mr      r3,r29
    5fe8:	48 00 23 25 	bl      830c <strcmp>
    5fec:	80 01 00 24 	lwz     r0,36(r1)
    5ff0:	30 63 ff ff 	addic   r3,r3,-1
    5ff4:	7c 63 19 10 	subfe   r3,r3,r3
    5ff8:	83 a1 00 14 	lwz     r29,20(r1)
    5ffc:	7c 08 03 a6 	mtlr    r0
    6000:	7f e3 18 38 	and     r3,r31,r3
    6004:	83 c1 00 18 	lwz     r30,24(r1)
    6008:	83 e1 00 1c 	lwz     r31,28(r1)
    600c:	38 21 00 20 	addi    r1,r1,32
    6010:	4e 80 00 20 	blr
    6014:	83 fe 80 00 	lwz     r31,-32768(r30)
    6018:	4b ff ff 94 	b       5fac <_setlocale_r+0x48>
    601c:	00 00 ed 78 	.long 0xed78

00006020 <__locale_charset>:
    6020:	94 21 ff f0 	stwu    r1,-16(r1)
    6024:	7c 08 02 a6 	mflr    r0
    6028:	42 9f 00 05 	bcl-    20,4*cr7+so,602c <__locale_charset+0xc>
    602c:	93 c1 00 08 	stw     r30,8(r1)
    6030:	7f c8 02 a6 	mflr    r30
    6034:	90 01 00 14 	stw     r0,20(r1)
    6038:	80 1e ff f0 	lwz     r0,-16(r30)
    603c:	7f c0 f2 14 	add     r30,r0,r30
    6040:	80 01 00 14 	lwz     r0,20(r1)
    6044:	80 7e 80 0c 	lwz     r3,-32756(r30)
    6048:	7c 08 03 a6 	mtlr    r0
    604c:	83 c1 00 08 	lwz     r30,8(r1)
    6050:	38 21 00 10 	addi    r1,r1,16
    6054:	4e 80 00 20 	blr
    6058:	00 00 ed 3c 	.long 0xed3c

0000605c <__locale_mb_cur_max>:
    605c:	94 21 ff f0 	stwu    r1,-16(r1)
    6060:	7c 08 02 a6 	mflr    r0
    6064:	42 9f 00 05 	bcl-    20,4*cr7+so,6068 <__locale_mb_cur_max+0xc>
    6068:	93 c1 00 08 	stw     r30,8(r1)
    606c:	7f c8 02 a6 	mflr    r30
    6070:	90 01 00 14 	stw     r0,20(r1)
    6074:	80 1e ff f0 	lwz     r0,-16(r30)
    6078:	7f c0 f2 14 	add     r30,r0,r30
    607c:	80 01 00 14 	lwz     r0,20(r1)
    6080:	81 3e 80 10 	lwz     r9,-32752(r30)
    6084:	7c 08 03 a6 	mtlr    r0
    6088:	83 c1 00 08 	lwz     r30,8(r1)
    608c:	80 69 00 00 	lwz     r3,0(r9)
    6090:	38 21 00 10 	addi    r1,r1,16
    6094:	4e 80 00 20 	blr
    6098:	00 00 ec fc 	.long 0xecfc

0000609c <__locale_msgcharset>:
    609c:	94 21 ff f0 	stwu    r1,-16(r1)
    60a0:	7c 08 02 a6 	mflr    r0
    60a4:	42 9f 00 05 	bcl-    20,4*cr7+so,60a8 <__locale_msgcharset+0xc>
    60a8:	93 c1 00 08 	stw     r30,8(r1)
    60ac:	7f c8 02 a6 	mflr    r30
    60b0:	90 01 00 14 	stw     r0,20(r1)
    60b4:	80 1e ff f0 	lwz     r0,-16(r30)
    60b8:	7f c0 f2 14 	add     r30,r0,r30
    60bc:	80 01 00 14 	lwz     r0,20(r1)
    60c0:	80 7e 80 0c 	lwz     r3,-32756(r30)
    60c4:	7c 08 03 a6 	mtlr    r0
    60c8:	83 c1 00 08 	lwz     r30,8(r1)
    60cc:	38 63 00 20 	addi    r3,r3,32
    60d0:	38 21 00 10 	addi    r1,r1,16
    60d4:	4e 80 00 20 	blr

000060d8 <__locale_cjk_lang>:
    60d8:	38 60 00 00 	li      r3,0
    60dc:	4e 80 00 20 	blr
    60e0:	00 00 ec b4 	.long 0xecb4

000060e4 <_localeconv_r>:
    60e4:	94 21 ff f0 	stwu    r1,-16(r1)
    60e8:	7c 08 02 a6 	mflr    r0
    60ec:	42 9f 00 05 	bcl-    20,4*cr7+so,60f0 <_localeconv_r+0xc>
    60f0:	93 c1 00 08 	stw     r30,8(r1)
    60f4:	7f c8 02 a6 	mflr    r30
    60f8:	90 01 00 14 	stw     r0,20(r1)
    60fc:	80 1e ff f0 	lwz     r0,-16(r30)
    6100:	7f c0 f2 14 	add     r30,r0,r30
    6104:	80 01 00 14 	lwz     r0,20(r1)
    6108:	80 7e 80 14 	lwz     r3,-32748(r30)
    610c:	7c 08 03 a6 	mtlr    r0
    6110:	83 c1 00 08 	lwz     r30,8(r1)
    6114:	38 21 00 10 	addi    r1,r1,16
    6118:	4e 80 00 20 	blr
    611c:	00 00 ec 78 	.long 0xec78

00006120 <setlocale>:
    6120:	94 21 ff f0 	stwu    r1,-16(r1)
    6124:	7c 08 02 a6 	mflr    r0
    6128:	42 9f 00 05 	bcl-    20,4*cr7+so,612c <setlocale+0xc>
    612c:	7c 69 1b 78 	mr      r9,r3
    6130:	93 c1 00 08 	stw     r30,8(r1)
    6134:	7f c8 02 a6 	mflr    r30
    6138:	90 01 00 14 	stw     r0,20(r1)
    613c:	7c 85 23 78 	mr      r5,r4
    6140:	7d 24 4b 78 	mr      r4,r9
    6144:	80 1e ff f0 	lwz     r0,-16(r30)
    6148:	7f c0 f2 14 	add     r30,r0,r30
    614c:	80 01 00 14 	lwz     r0,20(r1)
    6150:	81 5e 80 18 	lwz     r10,-32744(r30)
    6154:	7c 08 03 a6 	mtlr    r0
    6158:	83 c1 00 08 	lwz     r30,8(r1)
    615c:	80 6a 00 00 	lwz     r3,0(r10)
    6160:	38 21 00 10 	addi    r1,r1,16
    6164:	4b ff fe 00 	b       5f64 <_setlocale_r>
    6168:	00 00 ec 2c 	.long 0xec2c

0000616c <localeconv>:
    616c:	94 21 ff f0 	stwu    r1,-16(r1)
    6170:	7c 08 02 a6 	mflr    r0
    6174:	42 9f 00 05 	bcl-    20,4*cr7+so,6178 <localeconv+0xc>
    6178:	93 c1 00 08 	stw     r30,8(r1)
    617c:	7f c8 02 a6 	mflr    r30
    6180:	90 01 00 14 	stw     r0,20(r1)
    6184:	80 1e ff f0 	lwz     r0,-16(r30)
    6188:	7f c0 f2 14 	add     r30,r0,r30
    618c:	80 01 00 14 	lwz     r0,20(r1)
    6190:	80 7e 80 14 	lwz     r3,-32748(r30)
    6194:	7c 08 03 a6 	mtlr    r0
    6198:	83 c1 00 08 	lwz     r30,8(r1)
    619c:	38 21 00 10 	addi    r1,r1,16
    61a0:	4e 80 00 20 	blr
    61a4:	00 00 ec 0c 	.long 0xec0c

000061a8 <__smakebuf_r>:
    61a8:	7c 08 02 a6 	mflr    r0
    61ac:	94 21 ff a0 	stwu    r1,-96(r1)
    61b0:	42 9f 00 05 	bcl-    20,4*cr7+so,61b4 <__smakebuf_r+0xc>
    61b4:	93 c1 00 58 	stw     r30,88(r1)
    61b8:	7f c8 02 a6 	mflr    r30
    61bc:	90 01 00 64 	stw     r0,100(r1)
    61c0:	93 e1 00 5c 	stw     r31,92(r1)
    61c4:	7c 9f 23 78 	mr      r31,r4
    61c8:	a9 24 00 0c 	lha     r9,12(r4)
    61cc:	80 1e ff f0 	lwz     r0,-16(r30)
    61d0:	55 2a 07 bc 	rlwinm  r10,r9,0,30,30
    61d4:	93 61 00 4c 	stw     r27,76(r1)
    61d8:	7d 48 07 35 	extsh.  r8,r10
    61dc:	93 81 00 50 	stw     r28,80(r1)
    61e0:	93 a1 00 54 	stw     r29,84(r1)
    61e4:	7f c0 f2 14 	add     r30,r0,r30
    61e8:	40 82 00 e4 	bne-    62cc <__smakebuf_r+0x124>
    61ec:	a8 84 00 0e 	lha     r4,14(r4)
    61f0:	7c 7c 1b 78 	mr      r28,r3
    61f4:	2f 84 00 00 	cmpwi   cr7,r4,0
    61f8:	41 9c 00 50 	blt-    cr7,6248 <__smakebuf_r+0xa0>
    61fc:	38 a1 00 08 	addi    r5,r1,8
    6200:	48 00 3d b9 	bl      9fb8 <_fstat_r>
    6204:	2f 83 00 00 	cmpwi   cr7,r3,0
    6208:	41 9c 00 3c 	blt-    cr7,6244 <__smakebuf_r+0x9c>
    620c:	83 61 00 0c 	lwz     r27,12(r1)
    6210:	39 20 00 00 	li      r9,0
    6214:	61 29 80 00 	ori     r9,r9,32768
    6218:	57 7b 04 26 	rlwinm  r27,r27,0,16,19
    621c:	7f 9b 48 00 	cmpw    cr7,r27,r9
    6220:	6b 7b 20 00 	xori    r27,r27,8192
    6224:	7f 7b 00 34 	cntlzw  r27,r27
    6228:	57 7b d9 7e 	rlwinm  r27,r27,27,5,31
    622c:	41 9e 00 d8 	beq-    cr7,6304 <__smakebuf_r+0x15c>
    6230:	a1 3f 00 0c 	lhz     r9,12(r31)
    6234:	3b a0 04 00 	li      r29,1024
    6238:	61 29 08 00 	ori     r9,r9,2048
    623c:	b1 3f 00 0c 	sth     r9,12(r31)
    6240:	48 00 00 2c 	b       626c <__smakebuf_r+0xc4>
    6244:	a9 3f 00 0c 	lha     r9,12(r31)
    6248:	55 3d 06 30 	rlwinm  r29,r9,0,24,24
    624c:	61 29 08 00 	ori     r9,r9,2048
    6250:	7f bd 07 34 	extsh   r29,r29
    6254:	b1 3f 00 0c 	sth     r9,12(r31)
    6258:	33 bd ff ff 	addic   r29,r29,-1
    625c:	7f bd e9 10 	subfe   r29,r29,r29
    6260:	3b 60 00 00 	li      r27,0
    6264:	57 bd 05 b2 	rlwinm  r29,r29,0,22,25
    6268:	3b bd 00 40 	addi    r29,r29,64
    626c:	7f 83 e3 78 	mr      r3,r28
    6270:	7f a4 eb 78 	mr      r4,r29
    6274:	48 00 01 15 	bl      6388 <_malloc_r>
    6278:	2c 03 00 00 	cmpwi   r3,0
    627c:	41 82 00 d8 	beq-    6354 <__smakebuf_r+0x1ac>
    6280:	a1 5f 00 0c 	lhz     r10,12(r31)
    6284:	2f 9b 00 00 	cmpwi   cr7,r27,0
    6288:	61 48 00 80 	ori     r8,r10,128
    628c:	81 5e 80 04 	lwz     r10,-32764(r30)
    6290:	91 5c 00 3c 	stw     r10,60(r28)
    6294:	b1 1f 00 0c 	sth     r8,12(r31)
    6298:	90 7f 00 00 	stw     r3,0(r31)
    629c:	90 7f 00 10 	stw     r3,16(r31)
    62a0:	93 bf 00 14 	stw     r29,20(r31)
    62a4:	40 9e 00 8c 	bne-    cr7,6330 <__smakebuf_r+0x188>
    62a8:	80 01 00 64 	lwz     r0,100(r1)
    62ac:	83 61 00 4c 	lwz     r27,76(r1)
    62b0:	7c 08 03 a6 	mtlr    r0
    62b4:	83 81 00 50 	lwz     r28,80(r1)
    62b8:	83 a1 00 54 	lwz     r29,84(r1)
    62bc:	83 c1 00 58 	lwz     r30,88(r1)
    62c0:	83 e1 00 5c 	lwz     r31,92(r1)
    62c4:	38 21 00 60 	addi    r1,r1,96
    62c8:	4e 80 00 20 	blr
    62cc:	80 01 00 64 	lwz     r0,100(r1)
    62d0:	39 24 00 43 	addi    r9,r4,67
    62d4:	91 24 00 00 	stw     r9,0(r4)
    62d8:	7c 08 03 a6 	mtlr    r0
    62dc:	91 24 00 10 	stw     r9,16(r4)
    62e0:	39 20 00 01 	li      r9,1
    62e4:	83 61 00 4c 	lwz     r27,76(r1)
    62e8:	83 81 00 50 	lwz     r28,80(r1)
    62ec:	83 a1 00 54 	lwz     r29,84(r1)
    62f0:	83 c1 00 58 	lwz     r30,88(r1)
    62f4:	83 e1 00 5c 	lwz     r31,92(r1)
    62f8:	91 24 00 14 	stw     r9,20(r4)
    62fc:	38 21 00 60 	addi    r1,r1,96
    6300:	4e 80 00 20 	blr
    6304:	81 5f 00 28 	lwz     r10,40(r31)
    6308:	81 3e 80 00 	lwz     r9,-32768(r30)
    630c:	7f 8a 48 00 	cmpw    cr7,r10,r9
    6310:	40 9e ff 20 	bne+    cr7,6230 <__smakebuf_r+0x88>
    6314:	a1 3f 00 0c 	lhz     r9,12(r31)
    6318:	3b a0 04 00 	li      r29,1024
    631c:	61 29 04 00 	ori     r9,r9,1024
    6320:	b1 3f 00 0c 	sth     r9,12(r31)
    6324:	39 20 04 00 	li      r9,1024
    6328:	91 3f 00 4c 	stw     r9,76(r31)
    632c:	4b ff ff 40 	b       626c <__smakebuf_r+0xc4>
    6330:	a8 9f 00 0e 	lha     r4,14(r31)
    6334:	7f 83 e3 78 	mr      r3,r28
    6338:	48 00 42 65 	bl      a59c <_isatty_r>
    633c:	2f 83 00 00 	cmpwi   cr7,r3,0
    6340:	41 be ff 68 	beq-    cr7,62a8 <__smakebuf_r+0x100>
    6344:	a1 3f 00 0c 	lhz     r9,12(r31)
    6348:	61 29 00 01 	ori     r9,r9,1
    634c:	b1 3f 00 0c 	sth     r9,12(r31)
    6350:	4b ff ff 58 	b       62a8 <__smakebuf_r+0x100>
    6354:	a9 3f 00 0c 	lha     r9,12(r31)
    6358:	55 2a 05 ac 	rlwinm  r10,r9,0,22,22
    635c:	7d 48 07 35 	extsh.  r8,r10
    6360:	40 a2 ff 48 	bne-    62a8 <__smakebuf_r+0x100>
    6364:	61 29 00 02 	ori     r9,r9,2
    6368:	39 5f 00 43 	addi    r10,r31,67
    636c:	b1 3f 00 0c 	sth     r9,12(r31)
    6370:	39 20 00 01 	li      r9,1
    6374:	91 5f 00 00 	stw     r10,0(r31)
    6378:	91 5f 00 10 	stw     r10,16(r31)
    637c:	91 3f 00 14 	stw     r9,20(r31)
    6380:	4b ff ff 28 	b       62a8 <__smakebuf_r+0x100>
    6384:	00 00 ea 34 	.long 0xea34

00006388 <_malloc_r>:
    6388:	94 21 ff c0 	stwu    r1,-64(r1)
    638c:	7c 08 02 a6 	mflr    r0
    6390:	42 9f 00 05 	bcl-    20,4*cr7+so,6394 <_malloc_r+0xc>
    6394:	93 a1 00 34 	stw     r29,52(r1)
    6398:	3b a4 00 0b 	addi    r29,r4,11
    639c:	93 c1 00 38 	stw     r30,56(r1)
    63a0:	7f c8 02 a6 	mflr    r30
    63a4:	2b 9d 00 16 	cmplwi  cr7,r29,22
    63a8:	90 01 00 44 	stw     r0,68(r1)
    63ac:	93 61 00 2c 	stw     r27,44(r1)
    63b0:	7c 7b 1b 78 	mr      r27,r3
    63b4:	80 1e ff f0 	lwz     r0,-16(r30)
    63b8:	92 a1 00 14 	stw     r21,20(r1)
    63bc:	92 c1 00 18 	stw     r22,24(r1)
    63c0:	7f c0 f2 14 	add     r30,r0,r30
    63c4:	92 e1 00 1c 	stw     r23,28(r1)
    63c8:	93 01 00 20 	stw     r24,32(r1)
    63cc:	93 21 00 24 	stw     r25,36(r1)
    63d0:	93 41 00 28 	stw     r26,40(r1)
    63d4:	93 81 00 30 	stw     r28,48(r1)
    63d8:	93 e1 00 3c 	stw     r31,60(r1)
    63dc:	40 9d 00 b0 	ble-    cr7,648c <_malloc_r+0x104>
    63e0:	57 bd 00 39 	rlwinm. r29,r29,0,0,28
    63e4:	41 80 00 b4 	blt-    6498 <_malloc_r+0x110>
    63e8:	7f 84 e8 40 	cmplw   cr7,r4,r29
    63ec:	41 9d 00 ac 	bgt-    cr7,6498 <_malloc_r+0x110>
    63f0:	7f 63 db 78 	mr      r3,r27
    63f4:	48 00 0a 29 	bl      6e1c <__malloc_lock>
    63f8:	2b 9d 01 f7 	cmplwi  cr7,r29,503
    63fc:	41 9d 00 e8 	bgt-    cr7,64e4 <_malloc_r+0x15c>
    6400:	83 9e 80 00 	lwz     r28,-32768(r30)
    6404:	57 a5 e8 fe 	rlwinm  r5,r29,29,3,31
    6408:	7d 3c ea 14 	add     r9,r28,r29
    640c:	83 e9 00 0c 	lwz     r31,12(r9)
    6410:	7f 9f 48 00 	cmpw    cr7,r31,r9
    6414:	41 9e 05 f0 	beq-    cr7,6a04 <_malloc_r+0x67c>
    6418:	81 5f 00 04 	lwz     r10,4(r31)
    641c:	81 1f 00 0c 	lwz     r8,12(r31)
    6420:	55 4a 00 3a 	rlwinm  r10,r10,0,0,29
    6424:	7d 5f 52 14 	add     r10,r31,r10
    6428:	80 ea 00 04 	lwz     r7,4(r10)
    642c:	81 3f 00 08 	lwz     r9,8(r31)
    6430:	60 e7 00 01 	ori     r7,r7,1
    6434:	7f 63 db 78 	mr      r3,r27
    6438:	3b ff 00 08 	addi    r31,r31,8
    643c:	91 09 00 0c 	stw     r8,12(r9)
    6440:	91 28 00 08 	stw     r9,8(r8)
    6444:	90 ea 00 04 	stw     r7,4(r10)
    6448:	48 00 09 d9 	bl      6e20 <__malloc_unlock>
    644c:	80 01 00 44 	lwz     r0,68(r1)
    6450:	7f e3 fb 78 	mr      r3,r31
    6454:	82 a1 00 14 	lwz     r21,20(r1)
    6458:	7c 08 03 a6 	mtlr    r0
    645c:	82 c1 00 18 	lwz     r22,24(r1)
    6460:	82 e1 00 1c 	lwz     r23,28(r1)
    6464:	83 01 00 20 	lwz     r24,32(r1)
    6468:	83 21 00 24 	lwz     r25,36(r1)
    646c:	83 41 00 28 	lwz     r26,40(r1)
    6470:	83 61 00 2c 	lwz     r27,44(r1)
    6474:	83 81 00 30 	lwz     r28,48(r1)
    6478:	83 a1 00 34 	lwz     r29,52(r1)
    647c:	83 c1 00 38 	lwz     r30,56(r1)
    6480:	83 e1 00 3c 	lwz     r31,60(r1)
    6484:	38 21 00 40 	addi    r1,r1,64
    6488:	4e 80 00 20 	blr
    648c:	3b a0 00 10 	li      r29,16
    6490:	7f 84 e8 40 	cmplw   cr7,r4,r29
    6494:	40 9d ff 5c 	ble+    cr7,63f0 <_malloc_r+0x68>
    6498:	80 01 00 44 	lwz     r0,68(r1)
    649c:	3b e0 00 00 	li      r31,0
    64a0:	39 20 00 0c 	li      r9,12
    64a4:	7f e3 fb 78 	mr      r3,r31
    64a8:	7c 08 03 a6 	mtlr    r0
    64ac:	91 3b 00 00 	stw     r9,0(r27)
    64b0:	82 a1 00 14 	lwz     r21,20(r1)
    64b4:	82 c1 00 18 	lwz     r22,24(r1)
    64b8:	82 e1 00 1c 	lwz     r23,28(r1)
    64bc:	83 01 00 20 	lwz     r24,32(r1)
    64c0:	83 21 00 24 	lwz     r25,36(r1)
    64c4:	83 41 00 28 	lwz     r26,40(r1)
    64c8:	83 61 00 2c 	lwz     r27,44(r1)
    64cc:	83 81 00 30 	lwz     r28,48(r1)
    64d0:	83 a1 00 34 	lwz     r29,52(r1)
    64d4:	83 c1 00 38 	lwz     r30,56(r1)
    64d8:	83 e1 00 3c 	lwz     r31,60(r1)
    64dc:	38 21 00 40 	addi    r1,r1,64
    64e0:	4e 80 00 20 	blr
    64e4:	57 a5 ba 7f 	rlwinm. r5,r29,23,9,31
    64e8:	41 82 01 e8 	beq-    66d0 <_malloc_r+0x348>
    64ec:	2b 85 00 04 	cmplwi  cr7,r5,4
    64f0:	41 9d 04 4c 	bgt-    cr7,693c <_malloc_r+0x5b4>
    64f4:	57 a5 d1 be 	rlwinm  r5,r29,26,6,31
    64f8:	38 a5 00 38 	addi    r5,r5,56
    64fc:	54 a8 08 3c 	rlwinm  r8,r5,1,0,30
    6500:	83 9e 80 00 	lwz     r28,-32768(r30)
    6504:	55 08 10 3a 	rlwinm  r8,r8,2,0,29
    6508:	7d 1c 42 14 	add     r8,r28,r8
    650c:	83 e8 00 0c 	lwz     r31,12(r8)
    6510:	7f 88 f8 00 	cmpw    cr7,r8,r31
    6514:	41 9e 00 4c 	beq-    cr7,6560 <_malloc_r+0x1d8>
    6518:	81 5f 00 04 	lwz     r10,4(r31)
    651c:	55 4a 00 3a 	rlwinm  r10,r10,0,0,29
    6520:	7d 3d 50 50 	subf    r9,r29,r10
    6524:	2f 89 00 0f 	cmpwi   cr7,r9,15
    6528:	41 9d 01 b4 	bgt-    cr7,66dc <_malloc_r+0x354>
    652c:	2f 89 00 00 	cmpwi   cr7,r9,0
    6530:	41 bc 00 24 	blt+    cr7,6554 <_malloc_r+0x1cc>
    6534:	48 00 01 b0 	b       66e4 <_malloc_r+0x35c>
    6538:	81 5f 00 04 	lwz     r10,4(r31)
    653c:	55 4a 00 3a 	rlwinm  r10,r10,0,0,29
    6540:	7d 3d 50 50 	subf    r9,r29,r10
    6544:	2f 89 00 0f 	cmpwi   cr7,r9,15
    6548:	2f 09 00 00 	cmpwi   cr6,r9,0
    654c:	41 9d 01 90 	bgt-    cr7,66dc <_malloc_r+0x354>
    6550:	40 98 01 94 	bge-    cr6,66e4 <_malloc_r+0x35c>
    6554:	83 ff 00 0c 	lwz     r31,12(r31)
    6558:	7f 88 f8 00 	cmpw    cr7,r8,r31
    655c:	40 9e ff dc 	bne+    cr7,6538 <_malloc_r+0x1b0>
    6560:	38 a5 00 01 	addi    r5,r5,1
    6564:	83 fc 00 10 	lwz     r31,16(r28)
    6568:	38 9c 00 08 	addi    r4,r28,8
    656c:	7f 9f 20 00 	cmpw    cr7,r31,r4
    6570:	41 9e 04 8c 	beq-    cr7,69fc <_malloc_r+0x674>
    6574:	81 5f 00 04 	lwz     r10,4(r31)
    6578:	55 4a 00 3a 	rlwinm  r10,r10,0,0,29
    657c:	7d 3d 50 50 	subf    r9,r29,r10
    6580:	2f 89 00 0f 	cmpwi   cr7,r9,15
    6584:	41 9d 04 40 	bgt-    cr7,69c4 <_malloc_r+0x63c>
    6588:	2f 89 00 00 	cmpwi   cr7,r9,0
    658c:	90 9c 00 14 	stw     r4,20(r28)
    6590:	90 9c 00 10 	stw     r4,16(r28)
    6594:	40 9c 01 60 	bge-    cr7,66f4 <_malloc_r+0x36c>
    6598:	2b 8a 01 ff 	cmplwi  cr7,r10,511
    659c:	41 9d 03 c0 	bgt-    cr7,695c <_malloc_r+0x5d4>
    65a0:	55 4a e8 fe 	rlwinm  r10,r10,29,3,31
    65a4:	80 fc 00 04 	lwz     r7,4(r28)
    65a8:	55 49 18 38 	rlwinm  r9,r10,3,0,28
    65ac:	38 c0 00 01 	li      r6,1
    65b0:	7d 3c 4a 14 	add     r9,r28,r9
    65b4:	7d 4a 16 70 	srawi   r10,r10,2
    65b8:	81 09 00 08 	lwz     r8,8(r9)
    65bc:	7c ca 50 30 	slw     r10,r6,r10
    65c0:	7d 4a 3b 78 	or      r10,r10,r7
    65c4:	91 3f 00 0c 	stw     r9,12(r31)
    65c8:	91 1f 00 08 	stw     r8,8(r31)
    65cc:	91 5c 00 04 	stw     r10,4(r28)
    65d0:	93 e9 00 08 	stw     r31,8(r9)
    65d4:	93 e8 00 0c 	stw     r31,12(r8)
    65d8:	7c a9 16 70 	srawi   r9,r5,2
    65dc:	38 e0 00 01 	li      r7,1
    65e0:	7c e7 48 30 	slw     r7,r7,r9
    65e4:	7f 87 50 40 	cmplw   cr7,r7,r10
    65e8:	41 9d 01 68 	bgt-    cr7,6750 <_malloc_r+0x3c8>
    65ec:	7d 49 38 39 	and.    r9,r10,r7
    65f0:	40 82 00 28 	bne-    6618 <_malloc_r+0x290>
    65f4:	54 e7 08 3c 	rlwinm  r7,r7,1,0,30
    65f8:	54 a5 00 3a 	rlwinm  r5,r5,0,0,29
    65fc:	7d 49 38 39 	and.    r9,r10,r7
    6600:	38 a5 00 04 	addi    r5,r5,4
    6604:	40 82 00 14 	bne-    6618 <_malloc_r+0x290>
    6608:	54 e7 08 3c 	rlwinm  r7,r7,1,0,30
    660c:	38 a5 00 04 	addi    r5,r5,4
    6610:	7d 49 38 39 	and.    r9,r10,r7
    6614:	41 82 ff f4 	beq+    6608 <_malloc_r+0x280>
    6618:	54 ab 18 38 	rlwinm  r11,r5,3,0,28
    661c:	7c a3 2b 78 	mr      r3,r5
    6620:	7d 7c 5a 14 	add     r11,r28,r11
    6624:	7d 66 5b 78 	mr      r6,r11
    6628:	81 26 00 0c 	lwz     r9,12(r6)
    662c:	7f 86 48 00 	cmpw    cr7,r6,r9
    6630:	41 9e 00 4c 	beq-    cr7,667c <_malloc_r+0x2f4>
    6634:	81 09 00 04 	lwz     r8,4(r9)
    6638:	55 08 00 3a 	rlwinm  r8,r8,0,0,29
    663c:	7d 5d 40 50 	subf    r10,r29,r8
    6640:	2f 8a 00 0f 	cmpwi   cr7,r10,15
    6644:	41 9d 03 d8 	bgt-    cr7,6a1c <_malloc_r+0x694>
    6648:	2f 8a 00 00 	cmpwi   cr7,r10,0
    664c:	41 bc 00 24 	blt+    cr7,6670 <_malloc_r+0x2e8>
    6650:	48 00 04 14 	b       6a64 <_malloc_r+0x6dc>
    6654:	81 09 00 04 	lwz     r8,4(r9)
    6658:	55 08 00 3a 	rlwinm  r8,r8,0,0,29
    665c:	7d 5d 40 50 	subf    r10,r29,r8
    6660:	2f 8a 00 0f 	cmpwi   cr7,r10,15
    6664:	2f 0a 00 00 	cmpwi   cr6,r10,0
    6668:	41 9d 03 b4 	bgt-    cr7,6a1c <_malloc_r+0x694>
    666c:	40 98 03 f8 	bge-    cr6,6a64 <_malloc_r+0x6dc>
    6670:	81 29 00 0c 	lwz     r9,12(r9)
    6674:	7f 86 48 00 	cmpw    cr7,r6,r9
    6678:	40 9e ff dc 	bne+    cr7,6654 <_malloc_r+0x2cc>
    667c:	38 63 00 01 	addi    r3,r3,1
    6680:	38 c6 00 08 	addi    r6,r6,8
    6684:	70 6a 00 03 	andi.   r10,r3,3
    6688:	40 82 ff a0 	bne+    6628 <_malloc_r+0x2a0>
    668c:	70 aa 00 03 	andi.   r10,r5,3
    6690:	39 2b ff f8 	addi    r9,r11,-8
    6694:	38 a5 ff ff 	addi    r5,r5,-1
    6698:	41 82 05 4c 	beq-    6be4 <_malloc_r+0x85c>
    669c:	81 6b 00 00 	lwz     r11,0(r11)
    66a0:	7f 8b 48 00 	cmpw    cr7,r11,r9
    66a4:	41 9e ff e8 	beq+    cr7,668c <_malloc_r+0x304>
    66a8:	81 3c 00 04 	lwz     r9,4(r28)
    66ac:	54 e7 08 3c 	rlwinm  r7,r7,1,0,30
    66b0:	7f 87 48 40 	cmplw   cr7,r7,r9
    66b4:	41 9d 00 9c 	bgt-    cr7,6750 <_malloc_r+0x3c8>
    66b8:	2f 87 00 00 	cmpwi   cr7,r7,0
    66bc:	41 9e 00 94 	beq-    cr7,6750 <_malloc_r+0x3c8>
    66c0:	7d 2a 38 39 	and.    r10,r9,r7
    66c4:	41 82 04 04 	beq-    6ac8 <_malloc_r+0x740>
    66c8:	7c 65 1b 78 	mr      r5,r3
    66cc:	4b ff ff 4c 	b       6618 <_malloc_r+0x290>
    66d0:	57 a5 e8 fe 	rlwinm  r5,r29,29,3,31
    66d4:	54 a8 08 3c 	rlwinm  r8,r5,1,0,30
    66d8:	4b ff fe 28 	b       6500 <_malloc_r+0x178>
    66dc:	38 a5 ff ff 	addi    r5,r5,-1
    66e0:	4b ff fe 80 	b       6560 <_malloc_r+0x1d8>
    66e4:	7d 5f 52 14 	add     r10,r31,r10
    66e8:	81 1f 00 0c 	lwz     r8,12(r31)
    66ec:	80 ea 00 04 	lwz     r7,4(r10)
    66f0:	4b ff fd 3c 	b       642c <_malloc_r+0xa4>
    66f4:	7d 5f 52 14 	add     r10,r31,r10
    66f8:	7f 63 db 78 	mr      r3,r27
    66fc:	81 2a 00 04 	lwz     r9,4(r10)
    6700:	3b ff 00 08 	addi    r31,r31,8
    6704:	61 29 00 01 	ori     r9,r9,1
    6708:	91 2a 00 04 	stw     r9,4(r10)
    670c:	48 00 07 15 	bl      6e20 <__malloc_unlock>
    6710:	80 01 00 44 	lwz     r0,68(r1)
    6714:	7f e3 fb 78 	mr      r3,r31
    6718:	82 a1 00 14 	lwz     r21,20(r1)
    671c:	7c 08 03 a6 	mtlr    r0
    6720:	82 c1 00 18 	lwz     r22,24(r1)
    6724:	82 e1 00 1c 	lwz     r23,28(r1)
    6728:	83 01 00 20 	lwz     r24,32(r1)
    672c:	83 21 00 24 	lwz     r25,36(r1)
    6730:	83 41 00 28 	lwz     r26,40(r1)
    6734:	83 61 00 2c 	lwz     r27,44(r1)
    6738:	83 81 00 30 	lwz     r28,48(r1)
    673c:	83 a1 00 34 	lwz     r29,52(r1)
    6740:	83 c1 00 38 	lwz     r30,56(r1)
    6744:	83 e1 00 3c 	lwz     r31,60(r1)
    6748:	38 21 00 40 	addi    r1,r1,64
    674c:	4e 80 00 20 	blr
    6750:	83 fc 00 08 	lwz     r31,8(r28)
    6754:	83 3f 00 04 	lwz     r25,4(r31)
    6758:	57 39 00 3a 	rlwinm  r25,r25,0,0,29
    675c:	7f 99 e8 40 	cmplw   cr7,r25,r29
    6760:	41 9c 00 10 	blt-    cr7,6770 <_malloc_r+0x3e8>
    6764:	7d 3d c8 50 	subf    r9,r29,r25
    6768:	2f 89 00 0f 	cmpwi   cr7,r9,15
    676c:	41 9d 01 6c 	bgt-    cr7,68d8 <_malloc_r+0x550>
    6770:	82 be 80 08 	lwz     r21,-32760(r30)
    6774:	7e df ca 14 	add     r22,r31,r25
    6778:	81 3e 80 04 	lwz     r9,-32764(r30)
    677c:	81 55 00 00 	lwz     r10,0(r21)
    6780:	81 29 00 00 	lwz     r9,0(r9)
    6784:	2f 8a ff ff 	cmpwi   cr7,r10,-1
    6788:	7d 3d 4a 14 	add     r9,r29,r9
    678c:	3b 09 10 0f 	addi    r24,r9,4111
    6790:	57 18 00 26 	rlwinm  r24,r24,0,0,19
    6794:	41 9e 03 b0 	beq-    cr7,6b44 <_malloc_r+0x7bc>
    6798:	7f 63 db 78 	mr      r3,r27
    679c:	7f 04 c3 78 	mr      r4,r24
    67a0:	48 00 19 75 	bl      8114 <_sbrk_r>
    67a4:	2f 83 ff ff 	cmpwi   cr7,r3,-1
    67a8:	7c 7a 1b 78 	mr      r26,r3
    67ac:	41 9e 03 0c 	beq-    cr7,6ab8 <_malloc_r+0x730>
    67b0:	7f 96 18 40 	cmplw   cr7,r22,r3
    67b4:	41 9d 02 fc 	bgt-    cr7,6ab0 <_malloc_r+0x728>
    67b8:	82 fe 80 0c 	lwz     r23,-32756(r30)
    67bc:	7f 96 d0 00 	cmpw    cr7,r22,r26
    67c0:	81 37 00 00 	lwz     r9,0(r23)
    67c4:	7d 38 4a 14 	add     r9,r24,r9
    67c8:	91 37 00 00 	stw     r9,0(r23)
    67cc:	41 9e 03 98 	beq-    cr7,6b64 <_malloc_r+0x7dc>
    67d0:	81 55 00 00 	lwz     r10,0(r21)
    67d4:	2f 8a ff ff 	cmpwi   cr7,r10,-1
    67d8:	41 9e 03 d4 	beq-    cr7,6bac <_malloc_r+0x824>
    67dc:	7e d6 d0 50 	subf    r22,r22,r26
    67e0:	7d 29 b2 14 	add     r9,r9,r22
    67e4:	91 37 00 00 	stw     r9,0(r23)
    67e8:	73 4a 00 07 	andi.   r10,r26,7
    67ec:	39 20 10 00 	li      r9,4096
    67f0:	41 82 00 10 	beq-    6800 <_malloc_r+0x478>
    67f4:	21 2a 00 08 	subfic  r9,r10,8
    67f8:	7f 5a 4a 14 	add     r26,r26,r9
    67fc:	21 2a 10 08 	subfic  r9,r10,4104
    6800:	7f 1a c2 14 	add     r24,r26,r24
    6804:	7f 63 db 78 	mr      r3,r27
    6808:	57 18 05 3e 	clrlwi  r24,r24,20
    680c:	7f 18 48 50 	subf    r24,r24,r9
    6810:	7f 04 c3 78 	mr      r4,r24
    6814:	48 00 19 01 	bl      8114 <_sbrk_r>
    6818:	2f 83 ff ff 	cmpwi   cr7,r3,-1
    681c:	41 9e 03 84 	beq-    cr7,6ba0 <_malloc_r+0x818>
    6820:	7d 5a 18 50 	subf    r10,r26,r3
    6824:	7d 58 52 14 	add     r10,r24,r10
    6828:	61 4a 00 01 	ori     r10,r10,1
    682c:	7f 9f e0 00 	cmpw    cr7,r31,r28
    6830:	81 37 00 00 	lwz     r9,0(r23)
    6834:	93 5c 00 08 	stw     r26,8(r28)
    6838:	7d 38 4a 14 	add     r9,r24,r9
    683c:	91 5a 00 04 	stw     r10,4(r26)
    6840:	91 37 00 00 	stw     r9,0(r23)
    6844:	41 9e 00 3c 	beq-    cr7,6880 <_malloc_r+0x4f8>
    6848:	2b 99 00 0f 	cmplwi  cr7,r25,15
    684c:	40 9d 02 cc 	ble-    cr7,6b18 <_malloc_r+0x790>
    6850:	39 59 ff f4 	addi    r10,r25,-12
    6854:	81 1f 00 04 	lwz     r8,4(r31)
    6858:	55 4a 00 38 	rlwinm  r10,r10,0,0,28
    685c:	38 e0 00 05 	li      r7,5
    6860:	2b 8a 00 0f 	cmplwi  cr7,r10,15
    6864:	55 06 07 fe 	clrlwi  r6,r8,31
    6868:	7d 1f 52 14 	add     r8,r31,r10
    686c:	7d 4a 33 78 	or      r10,r10,r6
    6870:	91 5f 00 04 	stw     r10,4(r31)
    6874:	90 e8 00 04 	stw     r7,4(r8)
    6878:	90 e8 00 08 	stw     r7,8(r8)
    687c:	41 9d 03 10 	bgt-    cr7,6b8c <_malloc_r+0x804>
    6880:	81 5e 80 10 	lwz     r10,-32752(r30)
    6884:	81 0a 00 00 	lwz     r8,0(r10)
    6888:	7f 89 40 40 	cmplw   cr7,r9,r8
    688c:	40 9d 00 08 	ble-    cr7,6894 <_malloc_r+0x50c>
    6890:	91 2a 00 00 	stw     r9,0(r10)
    6894:	81 5e 80 14 	lwz     r10,-32748(r30)
    6898:	83 fc 00 08 	lwz     r31,8(r28)
    689c:	81 0a 00 00 	lwz     r8,0(r10)
    68a0:	7f 89 40 40 	cmplw   cr7,r9,r8
    68a4:	40 9d 00 08 	ble-    cr7,68ac <_malloc_r+0x524>
    68a8:	91 2a 00 00 	stw     r9,0(r10)
    68ac:	81 3f 00 04 	lwz     r9,4(r31)
    68b0:	55 29 00 3a 	rlwinm  r9,r9,0,0,29
    68b4:	7f 89 e8 40 	cmplw   cr7,r9,r29
    68b8:	7d 3d 48 50 	subf    r9,r29,r9
    68bc:	41 9c 00 0c 	blt-    cr7,68c8 <_malloc_r+0x540>
    68c0:	2f 89 00 0f 	cmpwi   cr7,r9,15
    68c4:	41 bd 00 14 	bgt+    cr7,68d8 <_malloc_r+0x550>
    68c8:	7f 63 db 78 	mr      r3,r27
    68cc:	3b e0 00 00 	li      r31,0
    68d0:	48 00 05 51 	bl      6e20 <__malloc_unlock>
    68d4:	4b ff fb 78 	b       644c <_malloc_r+0xc4>
    68d8:	7d 5f ea 14 	add     r10,r31,r29
    68dc:	61 29 00 01 	ori     r9,r9,1
    68e0:	63 bd 00 01 	ori     r29,r29,1
    68e4:	91 5c 00 08 	stw     r10,8(r28)
    68e8:	93 bf 00 04 	stw     r29,4(r31)
    68ec:	7f 63 db 78 	mr      r3,r27
    68f0:	91 2a 00 04 	stw     r9,4(r10)
    68f4:	3b ff 00 08 	addi    r31,r31,8
    68f8:	48 00 05 29 	bl      6e20 <__malloc_unlock>
    68fc:	80 01 00 44 	lwz     r0,68(r1)
    6900:	7f e3 fb 78 	mr      r3,r31
    6904:	82 a1 00 14 	lwz     r21,20(r1)
    6908:	7c 08 03 a6 	mtlr    r0
    690c:	82 c1 00 18 	lwz     r22,24(r1)
    6910:	82 e1 00 1c 	lwz     r23,28(r1)
    6914:	83 01 00 20 	lwz     r24,32(r1)
    6918:	83 21 00 24 	lwz     r25,36(r1)
    691c:	83 41 00 28 	lwz     r26,40(r1)
    6920:	83 61 00 2c 	lwz     r27,44(r1)
    6924:	83 81 00 30 	lwz     r28,48(r1)
    6928:	83 a1 00 34 	lwz     r29,52(r1)
    692c:	83 c1 00 38 	lwz     r30,56(r1)
    6930:	83 e1 00 3c 	lwz     r31,60(r1)
    6934:	38 21 00 40 	addi    r1,r1,64
    6938:	4e 80 00 20 	blr
    693c:	2b 85 00 14 	cmplwi  cr7,r5,20
    6940:	40 9d 01 54 	ble-    cr7,6a94 <_malloc_r+0x70c>
    6944:	2b 85 00 54 	cmplwi  cr7,r5,84
    6948:	41 9d 01 98 	bgt-    cr7,6ae0 <_malloc_r+0x758>
    694c:	57 a5 a3 3e 	rlwinm  r5,r29,20,12,31
    6950:	38 a5 00 6e 	addi    r5,r5,110
    6954:	54 a8 08 3c 	rlwinm  r8,r5,1,0,30
    6958:	4b ff fb a8 	b       6500 <_malloc_r+0x178>
    695c:	55 49 ba 7e 	rlwinm  r9,r10,23,9,31
    6960:	2b 89 00 04 	cmplwi  cr7,r9,4
    6964:	40 9d 01 3c 	ble-    cr7,6aa0 <_malloc_r+0x718>
    6968:	2b 89 00 14 	cmplwi  cr7,r9,20
    696c:	41 9d 01 e0 	bgt-    cr7,6b4c <_malloc_r+0x7c4>
    6970:	39 09 00 5b 	addi    r8,r9,91
    6974:	55 07 08 3c 	rlwinm  r7,r8,1,0,30
    6978:	54 e7 10 3a 	rlwinm  r7,r7,2,0,29
    697c:	7c fc 3a 14 	add     r7,r28,r7
    6980:	81 27 00 08 	lwz     r9,8(r7)
    6984:	7f 89 38 00 	cmpw    cr7,r9,r7
    6988:	41 9e 01 70 	beq-    cr7,6af8 <_malloc_r+0x770>
    698c:	81 09 00 04 	lwz     r8,4(r9)
    6990:	55 08 00 3a 	rlwinm  r8,r8,0,0,29
    6994:	7f 8a 40 40 	cmplw   cr7,r10,r8
    6998:	40 9c 00 10 	bge-    cr7,69a8 <_malloc_r+0x620>
    699c:	81 29 00 08 	lwz     r9,8(r9)
    69a0:	7f 87 48 00 	cmpw    cr7,r7,r9
    69a4:	40 9e ff e8 	bne+    cr7,698c <_malloc_r+0x604>
    69a8:	81 09 00 0c 	lwz     r8,12(r9)
    69ac:	81 5c 00 04 	lwz     r10,4(r28)
    69b0:	91 1f 00 0c 	stw     r8,12(r31)
    69b4:	91 3f 00 08 	stw     r9,8(r31)
    69b8:	93 e9 00 0c 	stw     r31,12(r9)
    69bc:	93 e8 00 08 	stw     r31,8(r8)
    69c0:	4b ff fc 18 	b       65d8 <_malloc_r+0x250>
    69c4:	7d 5f ea 14 	add     r10,r31,r29
    69c8:	61 28 00 01 	ori     r8,r9,1
    69cc:	63 bd 00 01 	ori     r29,r29,1
    69d0:	91 5c 00 14 	stw     r10,20(r28)
    69d4:	93 bf 00 04 	stw     r29,4(r31)
    69d8:	7f 63 db 78 	mr      r3,r27
    69dc:	91 5c 00 10 	stw     r10,16(r28)
    69e0:	3b ff 00 08 	addi    r31,r31,8
    69e4:	90 8a 00 0c 	stw     r4,12(r10)
    69e8:	90 8a 00 08 	stw     r4,8(r10)
    69ec:	91 0a 00 04 	stw     r8,4(r10)
    69f0:	7d 2a 49 2e 	stwx    r9,r10,r9
    69f4:	48 00 04 2d 	bl      6e20 <__malloc_unlock>
    69f8:	4b ff fa 54 	b       644c <_malloc_r+0xc4>
    69fc:	81 5c 00 04 	lwz     r10,4(r28)
    6a00:	4b ff fb d8 	b       65d8 <_malloc_r+0x250>
    6a04:	39 3f 00 08 	addi    r9,r31,8
    6a08:	83 ff 00 14 	lwz     r31,20(r31)
    6a0c:	38 a5 00 02 	addi    r5,r5,2
    6a10:	7f 89 f8 00 	cmpw    cr7,r9,r31
    6a14:	41 9e fb 50 	beq+    cr7,6564 <_malloc_r+0x1dc>
    6a18:	4b ff fa 00 	b       6418 <_malloc_r+0x90>
    6a1c:	7d 3f 4b 78 	mr      r31,r9
    6a20:	80 c9 00 0c 	lwz     r6,12(r9)
    6a24:	84 ff 00 08 	lwzu    r7,8(r31)
    6a28:	7d 09 ea 14 	add     r8,r9,r29
    6a2c:	61 45 00 01 	ori     r5,r10,1
    6a30:	63 bd 00 01 	ori     r29,r29,1
    6a34:	90 c7 00 0c 	stw     r6,12(r7)
    6a38:	7f 63 db 78 	mr      r3,r27
    6a3c:	90 e6 00 08 	stw     r7,8(r6)
    6a40:	93 a9 00 04 	stw     r29,4(r9)
    6a44:	91 1c 00 14 	stw     r8,20(r28)
    6a48:	91 1c 00 10 	stw     r8,16(r28)
    6a4c:	90 88 00 0c 	stw     r4,12(r8)
    6a50:	90 88 00 08 	stw     r4,8(r8)
    6a54:	90 a8 00 04 	stw     r5,4(r8)
    6a58:	7d 48 51 2e 	stwx    r10,r8,r10
    6a5c:	48 00 03 c5 	bl      6e20 <__malloc_unlock>
    6a60:	4b ff f9 ec 	b       644c <_malloc_r+0xc4>
    6a64:	7d 09 42 14 	add     r8,r9,r8
    6a68:	7d 3f 4b 78 	mr      r31,r9
    6a6c:	80 e8 00 04 	lwz     r7,4(r8)
    6a70:	7f 63 db 78 	mr      r3,r27
    6a74:	81 49 00 0c 	lwz     r10,12(r9)
    6a78:	85 3f 00 08 	lwzu    r9,8(r31)
    6a7c:	60 e7 00 01 	ori     r7,r7,1
    6a80:	90 e8 00 04 	stw     r7,4(r8)
    6a84:	91 49 00 0c 	stw     r10,12(r9)
    6a88:	91 2a 00 08 	stw     r9,8(r10)
    6a8c:	48 00 03 95 	bl      6e20 <__malloc_unlock>
    6a90:	4b ff f9 bc 	b       644c <_malloc_r+0xc4>
    6a94:	38 a5 00 5b 	addi    r5,r5,91
    6a98:	54 a8 08 3c 	rlwinm  r8,r5,1,0,30
    6a9c:	4b ff fa 64 	b       6500 <_malloc_r+0x178>
    6aa0:	55 48 d1 be 	rlwinm  r8,r10,26,6,31
    6aa4:	39 08 00 38 	addi    r8,r8,56
    6aa8:	55 07 08 3c 	rlwinm  r7,r8,1,0,30
    6aac:	4b ff fe cc 	b       6978 <_malloc_r+0x5f0>
    6ab0:	7f 9f e0 00 	cmpw    cr7,r31,r28
    6ab4:	41 be fd 04 	beq-    cr7,67b8 <_malloc_r+0x430>
    6ab8:	83 fc 00 08 	lwz     r31,8(r28)
    6abc:	81 3f 00 04 	lwz     r9,4(r31)
    6ac0:	55 29 00 3a 	rlwinm  r9,r9,0,0,29
    6ac4:	4b ff fd f0 	b       68b4 <_malloc_r+0x52c>
    6ac8:	54 e7 08 3c 	rlwinm  r7,r7,1,0,30
    6acc:	38 63 00 04 	addi    r3,r3,4
    6ad0:	7d 2a 38 39 	and.    r10,r9,r7
    6ad4:	41 a2 ff f4 	beq-    6ac8 <_malloc_r+0x740>
    6ad8:	7c 65 1b 78 	mr      r5,r3
    6adc:	4b ff fb 3c 	b       6618 <_malloc_r+0x290>
    6ae0:	2b 85 01 54 	cmplwi  cr7,r5,340
    6ae4:	41 9d 00 48 	bgt-    cr7,6b2c <_malloc_r+0x7a4>
    6ae8:	57 a5 8b fe 	rlwinm  r5,r29,17,15,31
    6aec:	38 a5 00 77 	addi    r5,r5,119
    6af0:	54 a8 08 3c 	rlwinm  r8,r5,1,0,30
    6af4:	4b ff fa 0c 	b       6500 <_malloc_r+0x178>
    6af8:	81 5c 00 04 	lwz     r10,4(r28)
    6afc:	7d 08 16 70 	srawi   r8,r8,2
    6b00:	38 e0 00 01 	li      r7,1
    6b04:	7c e8 40 30 	slw     r8,r7,r8
    6b08:	7d 0a 53 78 	or      r10,r8,r10
    6b0c:	7d 28 4b 78 	mr      r8,r9
    6b10:	91 5c 00 04 	stw     r10,4(r28)
    6b14:	4b ff fe 9c 	b       69b0 <_malloc_r+0x628>
    6b18:	39 20 00 01 	li      r9,1
    6b1c:	7f 5f d3 78 	mr      r31,r26
    6b20:	91 3a 00 04 	stw     r9,4(r26)
    6b24:	39 20 00 00 	li      r9,0
    6b28:	4b ff fd 8c 	b       68b4 <_malloc_r+0x52c>
    6b2c:	2b 85 05 54 	cmplwi  cr7,r5,1364
    6b30:	41 9d 00 50 	bgt-    cr7,6b80 <_malloc_r+0x7f8>
    6b34:	57 a5 74 be 	rlwinm  r5,r29,14,18,31
    6b38:	38 a5 00 7c 	addi    r5,r5,124
    6b3c:	54 a8 08 3c 	rlwinm  r8,r5,1,0,30
    6b40:	4b ff f9 c0 	b       6500 <_malloc_r+0x178>
    6b44:	3b 09 00 10 	addi    r24,r9,16
    6b48:	4b ff fc 50 	b       6798 <_malloc_r+0x410>
    6b4c:	2b 89 00 54 	cmplwi  cr7,r9,84
    6b50:	41 9d 00 64 	bgt-    cr7,6bb4 <_malloc_r+0x82c>
    6b54:	55 48 a3 3e 	rlwinm  r8,r10,20,12,31
    6b58:	39 08 00 6e 	addi    r8,r8,110
    6b5c:	55 07 08 3c 	rlwinm  r7,r8,1,0,30
    6b60:	4b ff fe 18 	b       6978 <_malloc_r+0x5f0>
    6b64:	72 ca 0f ff 	andi.   r10,r22,4095
    6b68:	40 a2 fc 68 	bne-    67d0 <_malloc_r+0x448>
    6b6c:	81 5c 00 08 	lwz     r10,8(r28)
    6b70:	7d 18 ca 14 	add     r8,r24,r25
    6b74:	61 08 00 01 	ori     r8,r8,1
    6b78:	91 0a 00 04 	stw     r8,4(r10)
    6b7c:	4b ff fd 04 	b       6880 <_malloc_r+0x4f8>
    6b80:	39 00 00 fc 	li      r8,252
    6b84:	38 a0 00 7e 	li      r5,126
    6b88:	4b ff f9 78 	b       6500 <_malloc_r+0x178>
    6b8c:	7f 63 db 78 	mr      r3,r27
    6b90:	38 9f 00 08 	addi    r4,r31,8
    6b94:	4b ff ee f9 	bl      5a8c <_free_r>
    6b98:	81 37 00 00 	lwz     r9,0(r23)
    6b9c:	4b ff fc e4 	b       6880 <_malloc_r+0x4f8>
    6ba0:	39 40 00 01 	li      r10,1
    6ba4:	3b 00 00 00 	li      r24,0
    6ba8:	4b ff fc 84 	b       682c <_malloc_r+0x4a4>
    6bac:	93 55 00 00 	stw     r26,0(r21)
    6bb0:	4b ff fc 38 	b       67e8 <_malloc_r+0x460>
    6bb4:	2b 89 01 54 	cmplwi  cr7,r9,340
    6bb8:	41 9d 00 14 	bgt-    cr7,6bcc <_malloc_r+0x844>
    6bbc:	55 48 8b fe 	rlwinm  r8,r10,17,15,31
    6bc0:	39 08 00 77 	addi    r8,r8,119
    6bc4:	55 07 08 3c 	rlwinm  r7,r8,1,0,30
    6bc8:	4b ff fd b0 	b       6978 <_malloc_r+0x5f0>
    6bcc:	2b 89 05 54 	cmplwi  cr7,r9,1364
    6bd0:	41 9d 00 24 	bgt-    cr7,6bf4 <_malloc_r+0x86c>
    6bd4:	55 48 74 be 	rlwinm  r8,r10,14,18,31
    6bd8:	39 08 00 7c 	addi    r8,r8,124
    6bdc:	55 07 08 3c 	rlwinm  r7,r8,1,0,30
    6be0:	4b ff fd 98 	b       6978 <_malloc_r+0x5f0>
    6be4:	81 3c 00 04 	lwz     r9,4(r28)
    6be8:	7d 29 38 78 	andc    r9,r9,r7
    6bec:	91 3c 00 04 	stw     r9,4(r28)
    6bf0:	4b ff fa bc 	b       66ac <_malloc_r+0x324>
    6bf4:	38 e0 00 fc 	li      r7,252
    6bf8:	39 00 00 7e 	li      r8,126
    6bfc:	4b ff fd 7c 	b       6978 <_malloc_r+0x5f0>

00006c00 <memchr>:
    6c00:	70 67 00 03 	andi.   r7,r3,3
    6c04:	7c 08 02 a6 	mflr    r0
    6c08:	94 21 ff f0 	stwu    r1,-16(r1)
    6c0c:	54 88 06 3e 	clrlwi  r8,r4,24
    6c10:	90 01 00 14 	stw     r0,20(r1)
    6c14:	93 c1 00 08 	stw     r30,8(r1)
    6c18:	41 82 00 ec 	beq-    6d04 <memchr+0x104>
    6c1c:	2f 85 00 00 	cmpwi   cr7,r5,0
    6c20:	39 25 ff ff 	addi    r9,r5,-1
    6c24:	41 9e 00 70 	beq-    cr7,6c94 <memchr+0x94>
    6c28:	89 43 00 00 	lbz     r10,0(r3)
    6c2c:	7f 8a 40 00 	cmpw    cr7,r10,r8
    6c30:	41 9e 00 68 	beq-    cr7,6c98 <memchr+0x98>
    6c34:	7c a9 03 a6 	mtctr   r5
    6c38:	48 00 00 18 	b       6c50 <memchr+0x50>
    6c3c:	42 40 00 58 	bdz-    6c94 <memchr+0x94>
    6c40:	89 43 00 00 	lbz     r10,0(r3)
    6c44:	39 29 ff ff 	addi    r9,r9,-1
    6c48:	7f 8a 40 00 	cmpw    cr7,r10,r8
    6c4c:	41 9e 00 4c 	beq-    cr7,6c98 <memchr+0x98>
    6c50:	38 63 00 01 	addi    r3,r3,1
    6c54:	70 6a 00 03 	andi.   r10,r3,3
    6c58:	40 82 ff e4 	bne+    6c3c <memchr+0x3c>
    6c5c:	2b 89 00 03 	cmplwi  cr7,r9,3
    6c60:	41 9d 00 4c 	bgt-    cr7,6cac <memchr+0xac>
    6c64:	2f 89 00 00 	cmpwi   cr7,r9,0
    6c68:	41 9e 00 2c 	beq-    cr7,6c94 <memchr+0x94>
    6c6c:	89 43 00 00 	lbz     r10,0(r3)
    6c70:	7f 8a 40 00 	cmpw    cr7,r10,r8
    6c74:	41 9e 00 24 	beq-    cr7,6c98 <memchr+0x98>
    6c78:	7d 29 03 a6 	mtctr   r9
    6c7c:	48 00 00 10 	b       6c8c <memchr+0x8c>
    6c80:	89 23 00 00 	lbz     r9,0(r3)
    6c84:	7f 89 40 00 	cmpw    cr7,r9,r8
    6c88:	41 9e 00 10 	beq-    cr7,6c98 <memchr+0x98>
    6c8c:	38 63 00 01 	addi    r3,r3,1
    6c90:	42 00 ff f0 	bdnz+   6c80 <memchr+0x80>
    6c94:	38 60 00 00 	li      r3,0
    6c98:	80 01 00 14 	lwz     r0,20(r1)
    6c9c:	83 c1 00 08 	lwz     r30,8(r1)
    6ca0:	7c 08 03 a6 	mtlr    r0
    6ca4:	38 21 00 10 	addi    r1,r1,16
    6ca8:	4e 80 00 20 	blr
    6cac:	54 84 06 3e 	clrlwi  r4,r4,24
    6cb0:	38 e9 ff fc 	addi    r7,r9,-4
    6cb4:	54 8a 40 2e 	rlwinm  r10,r4,8,0,23
    6cb8:	54 e7 f0 be 	rlwinm  r7,r7,30,2,31
    6cbc:	7d 4a 23 78 	or      r10,r10,r4
    6cc0:	38 e7 00 01 	addi    r7,r7,1
    6cc4:	55 45 80 1e 	rlwinm  r5,r10,16,0,15
    6cc8:	3c c0 80 80 	lis     r6,-32640
    6ccc:	7c e9 03 a6 	mtctr   r7
    6cd0:	7c a5 53 78 	or      r5,r5,r10
    6cd4:	60 c6 80 80 	ori     r6,r6,32896
    6cd8:	81 43 00 00 	lwz     r10,0(r3)
    6cdc:	7c aa 52 78 	xor     r10,r5,r10
    6ce0:	3c ea fe ff 	addis   r7,r10,-257
    6ce4:	38 e7 fe ff 	addi    r7,r7,-257
    6ce8:	7c ea 50 78 	andc    r10,r7,r10
    6cec:	7d 47 30 39 	and.    r7,r10,r6
    6cf0:	40 a2 ff 74 	bne-    6c64 <memchr+0x64>
    6cf4:	39 29 ff fc 	addi    r9,r9,-4
    6cf8:	38 63 00 04 	addi    r3,r3,4
    6cfc:	42 00 ff dc 	bdnz+   6cd8 <memchr+0xd8>
    6d00:	4b ff ff 64 	b       6c64 <memchr+0x64>
    6d04:	7c a9 2b 78 	mr      r9,r5
    6d08:	4b ff ff 54 	b       6c5c <memchr+0x5c>

00006d0c <memcpy>:
    6d0c:	2b 85 00 0f 	cmplwi  cr7,r5,15
    6d10:	7c 08 02 a6 	mflr    r0
    6d14:	94 21 ff f0 	stwu    r1,-16(r1)
    6d18:	90 01 00 14 	stw     r0,20(r1)
    6d1c:	93 c1 00 08 	stw     r30,8(r1)
    6d20:	40 9d 00 b4 	ble-    cr7,6dd4 <memcpy+0xc8>
    6d24:	7c 89 1b 78 	or      r9,r4,r3
    6d28:	71 2a 00 03 	andi.   r10,r9,3
    6d2c:	40 82 00 e0 	bne-    6e0c <memcpy+0x100>
    6d30:	39 05 ff f0 	addi    r8,r5,-16
    6d34:	7c 8a 23 78 	mr      r10,r4
