	.file	"powerpc-elf.c"

 # rs6000/powerpc options: -msdata=data -G 8
 # GNU C (GCC) version 4.7.2 (powerpc-elf)
 #	compiled by GNU C version 4.2.1 20070719  [FreeBSD], GMP version 5.1.1, MPFR version 3.1.2, MPC version 1.0.1
 # GGC heuristics: --param ggc-min-expand=100 --param ggc-min-heapsize=131072
 # options passed:  -D ___FreeBSD___ -D ARCH="powerpc-elf" powerpc-elf.c
 # -auxbase-strip powerpc-elf.s -g -O -Wall -fno-builtin -fverbose-asm
 # -fomit-frame-pointer
 # options enabled:  -fauto-inc-dec -fbranch-count-reg
 # -fcombine-stack-adjustments -fcommon -fcompare-elim -fcprop-registers
 # -fdebug-types-section -fdefer-pop -fdelete-null-pointer-checks
 # -fdwarf2-cfi-asm -fearly-inlining -feliminate-unused-debug-types
 # -fforward-propagate -ffunction-cse -fgcse-lm -fgnu-runtime
 # -fguess-branch-probability -fident -fif-conversion -fif-conversion2
 # -finline -finline-atomics -finline-functions-called-once -fipa-profile
 # -fipa-pure-const -fipa-reference -fira-share-save-slots
 # -fira-share-spill-slots -fivopts -fkeep-static-consts
 # -fleading-underscore -fmath-errno -fmerge-constants
 # -fmerge-debug-strings -fmove-loop-invariants -fomit-frame-pointer
 # -fpeephole -fprefetch-loop-arrays -freg-struct-return
 # -fsched-critical-path-heuristic -fsched-dep-count-heuristic
 # -fsched-group-heuristic -fsched-interblock -fsched-last-insn-heuristic
 # -fsched-rank-heuristic -fsched-spec -fsched-spec-insn-heuristic
 # -fsched-stalled-insns-dep -fsection-anchors -fshow-column -fshrink-wrap
 # -fsigned-zeros -fsplit-ivs-in-unroller -fsplit-wide-types
 # -fstrict-volatile-bitfields -ftoplevel-reorder -ftrapping-math
 # -ftree-bit-ccp -ftree-ccp -ftree-ch -ftree-copy-prop -ftree-copyrename
 # -ftree-cselim -ftree-dce -ftree-dominator-opts -ftree-dse
 # -ftree-forwprop -ftree-fre -ftree-loop-if-convert -ftree-loop-im
 # -ftree-loop-ivcanon -ftree-loop-optimize -ftree-parallelize-loops=
 # -ftree-phiprop -ftree-pta -ftree-reassoc -ftree-scev-cprop -ftree-sink
 # -ftree-slp-vectorize -ftree-sra -ftree-ter -ftree-vect-loop-version
 # -funit-at-a-time -fvar-tracking -fvar-tracking-assignments -fverbose-asm
 # -fzero-initialized-in-bss -m32 -malign-branch-targets -malways-hint
 # -mbig -mbig-endian -mblock-move-inline-limit= -mbss-plt -mfriz
 # -mgen-cell-microcode -mhard-float -mnew-mnemonics -mno-fp-in-toc
 # -mpointers-to-nested-functions -mpowerpc -msched-groups -msched-prolog
 # -msvr4-struct-return -mtls-markers -mupdate -mvectorize-builtins
 # -mvsx-scalar-double

	.section	".text"
.Ltext0:
	.cfi_sections	.debug_frame
	.align 2
	.globl _exit
	.type	_exit, @function
_exit:
.LFB0:
	.file 1 "powerpc-elf.c"
	.loc 1 39 0
	.cfi_startproc
.LVL0:
	stwu 1,-16(1)	 #,,
.LCFI0:
	.cfi_def_cfa_offset 16
	mflr 0	 #,
	stw 0,20(1)	 #,
	.cfi_offset 65, 4
	.loc 1 40 0
	bl __exit	 #
.LVL1:
	.cfi_endproc
.LFE0:
	.size	_exit, .-_exit
	.align 2
	.globl read
	.type	read, @function
read:
.LFB1:
	.loc 1 44 0
	.cfi_startproc
.LVL2:
	stwu 1,-16(1)	 #,,
.LCFI1:
	.cfi_def_cfa_offset 16
	mflr 0	 #,
	stw 0,20(1)	 #,
	.cfi_offset 65, 4
	.loc 1 45 0
	bl __read	 #
.LVL3:
	.loc 1 46 0
	lwz 0,20(1)	 #,
	mtlr 0	 #,
	addi 1,1,16	 #,,
.LCFI2:
	.cfi_restore 65
	.cfi_def_cfa_offset 0
	blr	 #
	.cfi_endproc
.LFE1:
	.size	read, .-read
	.align 2
	.globl write
	.type	write, @function
write:
.LFB2:
	.loc 1 48 0
	.cfi_startproc
.LVL4:
	stwu 1,-16(1)	 #,,
.LCFI3:
	.cfi_def_cfa_offset 16
	mflr 0	 #,
	stw 0,20(1)	 #,
	.cfi_offset 65, 4
	.loc 1 49 0
	bl __write	 #
.LVL5:
	.loc 1 50 0
	lwz 0,20(1)	 #,
	mtlr 0	 #,
	addi 1,1,16	 #,,
.LCFI4:
	.cfi_restore 65
	.cfi_def_cfa_offset 0
	blr	 #
	.cfi_endproc
.LFE2:
	.size	write, .-write
	.align 2
	.globl open
	.type	open, @function
open:
.LFB3:
	.loc 1 52 0
	.cfi_startproc
.LVL6:
	stwu 1,-16(1)	 #,,
.LCFI5:
	.cfi_def_cfa_offset 16
	mflr 0	 #,
	stw 0,20(1)	 #,
	.cfi_offset 65, 4
	.loc 1 53 0
	bl __open	 #
.LVL7:
	.loc 1 54 0
	lwz 0,20(1)	 #,
	mtlr 0	 #,
	addi 1,1,16	 #,,
.LCFI6:
	.cfi_restore 65
	.cfi_def_cfa_offset 0
	blr	 #
	.cfi_endproc
.LFE3:
	.size	open, .-open
	.align 2
	.globl close
	.type	close, @function
close:
.LFB4:
	.loc 1 56 0
	.cfi_startproc
.LVL8:
	stwu 1,-16(1)	 #,,
.LCFI7:
	.cfi_def_cfa_offset 16
	mflr 0	 #,
	stw 0,20(1)	 #,
	.cfi_offset 65, 4
	.loc 1 57 0
	bl __close	 #
.LVL9:
	.loc 1 58 0
	lwz 0,20(1)	 #,
	mtlr 0	 #,
	addi 1,1,16	 #,,
.LCFI8:
	.cfi_restore 65
	.cfi_def_cfa_offset 0
	blr	 #
	.cfi_endproc
.LFE4:
	.size	close, .-close
	.align 2
	.globl fstat
	.type	fstat, @function
fstat:
.LFB5:
	.loc 1 63 0
	.cfi_startproc
.LVL10:
	stwu 1,-16(1)	 #,,
.LCFI9:
	.cfi_def_cfa_offset 16
	mflr 0	 #,
	stw 0,20(1)	 #,
	.cfi_offset 65, 4
	.loc 1 64 0
	mr 3,4	 #, sb
.LVL11:
	li 4,0	 #,
.LVL12:
	li 5,60	 #,
	bl memset	 #
.LVL13:
	.loc 1 66 0
	li 3,0	 #,
	lwz 0,20(1)	 #,
	mtlr 0	 #,
	addi 1,1,16	 #,,
.LCFI10:
	.cfi_restore 65
	.cfi_def_cfa_offset 0
	blr	 #
	.cfi_endproc
.LFE5:
	.size	fstat, .-fstat
	.align 2
	.globl lseek
	.type	lseek, @function
lseek:
.LFB6:
	.loc 1 69 0
	.cfi_startproc
.LVL14:
	.loc 1 71 0
	mr 3,4	 #, offset
.LVL15:
	blr
	.cfi_endproc
.LFE6:
	.size	lseek, .-lseek
	.align 2
	.globl sbrk
	.type	sbrk, @function
sbrk:
.LFB7:
	.loc 1 77 0
	.cfi_startproc
.LVL16:
	.loc 1 79 0
	lis 10,sbrk_top@ha	 # tmp126,
	lwz 9,sbrk_top@l(10)	 # sbrk_top, old_top
.LVL17:
	.loc 1 80 0
	add 3,9,3	 # tmp129, old_top, incr
.LVL18:
	stw 3,sbrk_top@l(10)	 # sbrk_top, tmp129
	.loc 1 82 0
	mr 3,9	 #, old_top
	blr
	.cfi_endproc
.LFE7:
	.size	sbrk, .-sbrk
	.align 2
	.globl isatty
	.type	isatty, @function
isatty:
.LFB8:
	.loc 1 85 0
	.cfi_startproc
.LVL19:
	.loc 1 87 0
	li 3,1	 #,
.LVL20:
	blr
	.cfi_endproc
.LFE8:
	.size	isatty, .-isatty
	.align 2
	.globl main
	.type	main, @function
main:
.LFB11:
	.loc 1 173 0
	.cfi_startproc
	stwu 1,-16(1)	 #,,
.LCFI11:
	.cfi_def_cfa_offset 16
	mflr 0	 #,
	stw 0,20(1)	 #,
	.cfi_offset 65, 4
	.loc 1 174 0
	lis 3,.LC0@ha	 # tmp123,
	la 3,.LC0@l(3)	 #,, tmp123
	lis 9,data_value@ha	 # tmp125,
	lwz 4,data_value@l(9)	 # data_value,
	lis 5,.LC1@ha	 # tmp128,
	la 5,.LC1@l(5)	 #,, tmp128
	crxor 6,6,6
	bl printf	 #
.LVL21:
	.loc 1 175 0
	li 3,0	 #,
	bl exit	 #
.LVL22:
	.cfi_endproc
.LFE11:
	.size	main, .-main
	.align 2
	.globl _startmain
	.type	_startmain, @function
_startmain:
.LFB10:
	.loc 1 166 0
	.cfi_startproc
	stwu 1,-16(1)	 #,,
.LCFI12:
	.cfi_def_cfa_offset 16
	mflr 0	 #,
	stw 0,20(1)	 #,
	.cfi_offset 65, 4
.LBB4:
.LBB5:
	.loc 1 159 0
	lis 9,_bss_start@ha	 # tmp126,
	la 9,_bss_start@l(9)	 # tmp125,, tmp126
	mr 3,9	 #, tmp125
	li 4,0	 #,
	lis 5,_ebss@ha	 # tmp129,
	la 5,_ebss@l(5)	 # tmp128,, tmp129
	subf 5,9,5	 #, tmp125, tmp128
	bl memset	 #
.LVL23:
.LBE5:
.LBE4:
	.loc 1 168 0
	bl main	 #
.LVL24:
	.cfi_endproc
.LFE10:
	.size	_startmain, .-_startmain
	.globl sbrk_top
	.comm	bss_value,4,4
	.globl data_value
	.section	.rodata.str1.4,"aMS",@progbits,1
	.align 2
.LC0:
	.string	"Hello World! %08lx This architecture is %s\n"
.LC1:
	.string	"powerpc-elf"
	.section	.sdata,"aw",@progbits
	.align 2
	.type	sbrk_top, @object
	.size	sbrk_top, 4
sbrk_top:
	.long	_heap
	.type	data_value, @object
	.size	data_value, 4
data_value:
	.long	-1414661426
	.section	".text"
.Letext0:
	.file 2 "/usr/local/cross2-gcc4/lib/gcc/powerpc-elf/4.7.2/include/stddef.h"
	.file 3 "/usr/local/cross2-gcc4/lib/gcc/powerpc-elf/4.7.2/../../../../powerpc-elf/include/sys/_types.h"
	.file 4 "/usr/local/cross2-gcc4/lib/gcc/powerpc-elf/4.7.2/../../../../powerpc-elf/include/sys/types.h"
	.file 5 "/usr/local/cross2-gcc4/lib/gcc/powerpc-elf/4.7.2/../../../../powerpc-elf/include/sys/stat.h"
	.file 6 "syscall.h"
	.file 7 "/usr/local/cross2-gcc4/lib/gcc/powerpc-elf/4.7.2/../../../../powerpc-elf/include/string.h"
	.file 8 "/usr/local/cross2-gcc4/lib/gcc/powerpc-elf/4.7.2/../../../../powerpc-elf/include/stdio.h"
	.file 9 "/usr/local/cross2-gcc4/lib/gcc/powerpc-elf/4.7.2/../../../../powerpc-elf/include/stdlib.h"