
rx-elf.x:     file format elf32-rx-le


Disassembly of section .text:

00001400 <_start>:
    1400:	fb 02 10 cd 00 00             	mov.l	#0xcd10, r0
    1406:	05 49 5c 00                   	bsr.a	704f <__startmain>

0000140a <___exit>:
    140a:	66 15                         	mov.l	#1, r5
    140c:	75 60 ff                      	int #255
    140f:	02                            	rts

00001410 <___read>:
    1410:	66 45                         	mov.l	#4, r5
    1412:	75 60 ff                      	int #255
    1415:	02                            	rts

00001416 <___write>:
    1416:	66 55                         	mov.l	#5, r5
    1418:	75 60 ff                      	int #255
    141b:	02                            	rts

0000141c <___open>:
    141c:	66 25                         	mov.l	#2, r5
    141e:	75 60 ff                      	int #255
    1421:	02                            	rts

00001422 <___close>:
    1422:	66 35                         	mov.l	#3, r5
    1424:	75 60 ff                      	int #255
    1427:	02                            	rts

00001428 <_exit>:
    1428:	7e a7                         	push.l	r7

0000142a <.LCFI0>:
    142a:	66 02                         	mov.l	#0, r2

0000142c <.LM3>:
    142c:	ef 17                         	mov.l	r1, r7

0000142e <.LM4>:
    142e:	05 ea 1a 00                   	bsr.a	2f18 <___call_exitprocs>

00001432 <.LM5>:
    1432:	fb e2 10 78 00 00             	mov.l	#0x7810, r14
    1438:	ec e1                         	mov.l	[r14], r1
    143a:	ed 1e 0f                      	mov.l	60[r1], r14
    143d:	61 0e                         	cmp	#0, r14
    143f:	13                            	beq.s	1442 <.LM7>

00001440 <.LM6>:
    1440:	7f 1e                         	jsr	r14

00001442 <.LM7>:
    1442:	ef 71                         	mov.l	r7, r1
    1444:	05 ac 5b 00                   	bsr.a	6ff0 <__exit>

00001448 <_memset>:
    1448:	ef 14                         	mov.l	r1, r4
    144a:	7f 88                         	sstr.b
    144c:	ef 41                         	mov.l	r4, r1
    144e:	02                            	rts

0000144f <__printf_r>:
    144f:	60 40                         	sub	#4, r0

00001451 <.LCFI0>:
    1451:	66 84                         	mov.l	#8, r4
    1453:	4b 04                         	add	r0, r4

00001455 <.LM3>:
    1455:	fd 2a 43                      	mov.l	[r4+], r3

00001458 <.LVL2>:
    1458:	a8 92                         	mov.l	8[r1], r2
    145a:	05 26 00 00                   	bsr.a	1480 <__vfprintf_r>

0000145e <.LM4>:
    145e:	67 01                         	rtsd	#4

00001460 <_printf>:
    1460:	fb e2 00 80 00 00             	mov.l	#0x8000, r14

00001466 <.LM7>:
    1466:	60 40                         	sub	#4, r0

00001468 <.LCFI1>:
    1468:	ec e1                         	mov.l	[r14], r1

0000146a <.LM9>:
    146a:	66 84                         	mov.l	#8, r4
    146c:	4b 04                         	add	r0, r4

0000146e <.LM10>:
    146e:	fd 2a 43                      	mov.l	[r4+], r3

00001471 <.LVL7>:
    1471:	a8 92                         	mov.l	8[r1], r2
    1473:	05 0d 00 00                   	bsr.a	1480 <__vfprintf_r>

00001477 <.LM11>:
    1477:	67 01                         	rtsd	#4

00001479 <.LFE1>:
    1479:	00                            	brk
    147a:	00                            	brk
    147b:	00                            	brk
    147c:	00                            	brk
    147d:	00                            	brk
	...

00001480 <__vfprintf_r>:
    1480:	6e 6d                         	pushm	r6-r13

00001482 <.LCFI0>:
    1482:	72 00 e4 fa                   	add	#0xfffffae4, r0, r0

00001486 <.LCFI1>:
    1486:	ef 29                         	mov.l	r2, r9
    1488:	ef 37                         	mov.l	r3, r7
    148a:	eb 04 3b 01                   	mov.l	r4, 1260[r0]
    148e:	ef 1d                         	mov.l	r1, r13

00001490 <.LM3>:
    1490:	05 4a 30 00                   	bsr.a	44da <__localeconv_r>

00001494 <.LVL1>:
    1494:	ec 11                         	mov.l	[r1], r1
    1496:	eb 01 3d 01                   	mov.l	r1, 1268[r0]

0000149a <.LM4>:
    149a:	05 8b 40 00                   	bsr.a	5525 <_strlen>

0000149e <.LVL3>:
    149e:	eb 01 3f 01                   	mov.l	r1, 1276[r0]

000014a2 <.LM5>:
    14a2:	61 0d                         	cmp	#0, r13
    14a4:	20 0c                         	beq.b	14b0 <.LM7>

000014a6 <.LM6>:
    14a6:	ed da 0e                      	mov.l	56[r13], r10
    14a9:	61 0a                         	cmp	#0, r10
    14ab:	3a 73 05                      	beq.w	1a1e <.LM135>

000014ae <.LVL5>:
    14ae:	ef 00                         	nop

000014b0 <.LM7>:
    14b0:	dd 9a 06                      	mov.w	12[r9], r10
    14b3:	ef ab                         	mov.l	r10, r11
    14b5:	76 2b 00 20                   	and	#0x2000, r11
    14b9:	df bb                         	mov.w	r11, r11
    14bb:	61 0b                         	cmp	#0, r11
    14bd:	21 17                         	bne.b	14d4 <.LM9>

000014bf <.LM8>:
    14bf:	ed 9b 19                      	mov.l	100[r9], r11
    14c2:	ef ac                         	mov.l	r10, r12
    14c4:	76 3c 00 20                   	or	#0x2000, r12
    14c8:	76 2b ff df                   	and	#0xffffdfff, r11
    14cc:	df ca                         	mov.w	r12, r10
    14ce:	d7 9c 06                      	mov.w	r12, 12[r9]
    14d1:	e7 9b 19                      	mov.l	r11, 100[r9]

000014d4 <.LM9>:
    14d4:	ef ab                         	mov.l	r10, r11
    14d6:	64 8b                         	and	#8, r11
    14d8:	df bb                         	mov.w	r11, r11
    14da:	61 0b                         	cmp	#0, r11
    14dc:	3a 43 04                      	beq.w	191f <.LM104>

000014df <.LM10>:
    14df:	ed 9b 04                      	mov.l	16[r9], r11
    14e2:	61 0b                         	cmp	#0, r11
    14e4:	3a 3b 04                      	beq.w	191f <.LM104>

000014e7 <.LM11>:
    14e7:	ef ab                         	mov.l	r10, r11
    14e9:	75 2b 1a                      	and	#26, r11
    14ec:	61 ab                         	cmp	#10, r11
    14ee:	3a 4b 04                      	beq.w	1939 <.LM106>

000014f1 <.LM12>:
    14f1:	fa 06 3a 01 00                	mov.l	#0, 1256[r0]

000014f6 <.LM13>:
    14f6:	ee 0c 3a 01                   	mov.l	1256[r0], r12

000014fa <.LM14>:
    14fa:	72 0e 9c 04                   	add	#0x49c, r0, r14

000014fe <.LM15>:
    14fe:	72 0a 9b 04                   	add	#0x49b, r0, r10

00001502 <.LM16>:
    1502:	66 cb                         	mov.l	#12, r11
    1504:	4b 0b                         	add	r0, r11

00001506 <.LM17>:
    1506:	eb 0e 32 01                   	mov.l	r14, 1224[r0]
    150a:	43 ae                         	sub	r10, r14

0000150c <.LM18>:
    150c:	eb 0a 33 01                   	mov.l	r10, 1228[r0]

00001510 <.LM19>:
    1510:	eb 0b 27 01                   	mov.l	r11, 1180[r0]

00001514 <.LM20>:
    1514:	fa 06 29 01 00                	mov.l	#0, 1188[r0]

00001519 <.LM21>:
    1519:	fa 06 28 01 00                	mov.l	#0, 1184[r0]

0000151e <.LM22>:
    151e:	eb 07 35 01                   	mov.l	r7, 1236[r0]

00001522 <.LM23>:
    1522:	eb 0c 40 01                   	mov.l	r12, 1280[r0]

00001526 <.LM24>:
    1526:	eb 0c 42 01                   	mov.l	r12, 1288[r0]

0000152a <.LM25>:
    152a:	eb 0c 41 01                   	mov.l	r12, 1284[r0]

0000152e <.LM26>:
    152e:	eb 0c 38 01                   	mov.l	r12, 1248[r0]

00001532 <.LM27>:
    1532:	ef bf                         	mov.l	r11, r15
    1534:	eb 0e 44 01                   	mov.l	r14, 1296[r0]
    1538:	eb 0d 39 01                   	mov.l	r13, 1252[r0]

0000153c <.LM28>:
    153c:	ee 0d 35 01                   	mov.l	1236[r0], r13
    1540:	58 d7                         	movu.b	[r13], r7
    1542:	61 07                         	cmp	#0, r7
    1544:	3a 88 03                      	beq.w	18cc <.LVL74>

00001547 <.LVL10>:
    1547:	03                            	nop
    1548:	75 57 25                      	cmp	#37, r7
    154b:	3a 81 03                      	beq.w	18cc <.LVL74>

0000154e <.LM29>:
    154e:	ef db                         	mov.l	r13, r11
    1550:	62 1b                         	add	#1, r11
    1552:	0f                            	bra.s	1559 <.LM31>

00001553 <.LM30>:
    1553:	75 5a 25                      	cmp	#37, r10
    1556:	3a 88 03                      	beq.w	18de <.LVL76>

00001559 <.LM31>:
    1559:	58 ba                         	movu.b	[r11], r10

0000155b <.LM32>:
    155b:	ef b7                         	mov.l	r11, r7

0000155d <.LVL13>:
    155d:	62 1b                         	add	#1, r11

0000155f <.LM33>:
    155f:	61 0a                         	cmp	#0, r10
    1561:	21 f2                         	bne.b	1553 <.LM30>
    1563:	ee 0e 35 01                   	mov.l	1236[r0], r14
    1567:	ff 0a e7                      	sub	r14, r7, r10

0000156a <.LM34>:
    156a:	61 0a                         	cmp	#0, r10
    156c:	20 35                         	beq.b	15a1 <.LM37>

0000156e <.LM35>:
    156e:	ee 0e 28 01                   	mov.l	1184[r0], r14
    1572:	ee 0b 29 01                   	mov.l	1188[r0], r11
    1576:	ee 0c 35 01                   	mov.l	1236[r0], r12
    157a:	4b ab                         	add	r10, r11
    157c:	62 1e                         	add	#1, r14
    157e:	e3 fc                         	mov.l	r12, [r15]
    1580:	e7 fa 01                      	mov.l	r10, 4[r15]
    1583:	eb 0b 29 01                   	mov.l	r11, 1188[r0]

00001587 <.LVL15>:
    1587:	eb 0e 28 01                   	mov.l	r14, 1184[r0]
    158b:	61 7e                         	cmp	#7, r14
    158d:	2b 05                         	ble.b	1592 <.LVL15+0xb>
    158f:	38 74 04                      	bra.w	1a03 <.LM133>
    1592:	62 8f                         	add	#8, r15

00001594 <.LVL16>:
    1594:	76 10 01 00                   	mul	#1, r0

00001598 <.LM36>:
    1598:	06 8a 0a 38 01                	add	1248[r0].l, r10

0000159d <.LVL17>:
    159d:	eb 0a 38 01                   	mov.l	r10, 1248[r0]

000015a1 <.LM37>:
    15a1:	58 7a                         	movu.b	[r7], r10
    15a3:	61 0a                         	cmp	#0, r10
    15a5:	3a 23 04                      	beq.w	19c8 <.LBE21>

000015a8 <.LM38>:
    15a8:	fa 06 37 01 00                	mov.l	#0, 1244[r0]

000015ad <.LM39>:
    15ad:	ee 0e 37 01                   	mov.l	1244[r0], r14

000015b1 <.LM40>:
    15b1:	71 7d 01                      	add	#1, r7, r13

000015b4 <.LVL20>:
    15b4:	59 7a 01                      	movu.b	1[r7], r10
    15b7:	eb 0d 35 01                   	mov.l	r13, 1236[r0]

000015bb <.LM41>:
    15bb:	fa 04 c6 04 00                	mov.b	#0, 1222[r0]

000015c0 <.LVL22>:
    15c0:	66 0b                         	mov.l	#0, r11

000015c2 <.LM42>:
    15c2:	fb 56 ff                      	mov.l	#-1, r5

000015c5 <.LM43>:
    15c5:	eb 0e 34 01                   	mov.l	r14, 1232[r0]
    15c9:	ef d7                         	mov.l	r13, r7

000015cb <.LM44>:
    15cb:	62 17                         	add	#1, r7

000015cd <.LM45>:
    15cd:	71 ac e0                      	add	#-32, r10, r12
    15d0:	75 5c 58                      	cmp	#88, r12
    15d3:	24 05                         	bgtu.b	15d8 <.L22>
    15d5:	38 fe 02                      	bra.w	18d3 <.LM98>

000015d8 <.L22>:
    15d8:	eb 07 35 01                   	mov.l	r7, 1236[r0]
    15dc:	cb 0b c6 04                   	mov.b	r11, 1222[r0]

000015e0 <.LM46>:
    15e0:	61 0a                         	cmp	#0, r10
    15e2:	3a e6 03                      	beq.w	19c8 <.LBE21>

000015e5 <.LM47>:
    15e5:	fa 06 3c 01 00                	mov.l	#0, 1264[r0]

000015ea <.LM48>:
    15ea:	ee 0d 3c 01                   	mov.l	1264[r0], r13

000015ee <.LM49>:
    15ee:	fa 06 36 01 01                	mov.l	#1, 1240[r0]

000015f3 <.LM50>:
    15f3:	ee 0b 36 01                   	mov.l	1240[r0], r11

000015f7 <.LM51>:
    15f7:	cb 0a 74 04                   	mov.b	r10, 1140[r0]

000015fb <.LM52>:
    15fb:	fa 04 c6 04 00                	mov.b	#0, 1222[r0]

00001600 <.LM53>:
    1600:	eb 0d 3e 01                   	mov.l	r13, 1272[r0]

00001604 <.LM54>:
    1604:	72 07 74 04                   	add	#0x474, r0, r7

00001608 <.LVL27>:
    1608:	ef d6                         	mov.l	r13, r6

0000160a <.LM55>:
    160a:	ee 0d 34 01                   	mov.l	1232[r0], r13
    160e:	64 2d                         	and	#2, r13
    1610:	20 0c                         	beq.b	161c <.LM57>

00001612 <.LM56>:
    1612:	ee 0c 36 01                   	mov.l	1240[r0], r12
    1616:	62 2c                         	add	#2, r12
    1618:	eb 0c 36 01                   	mov.l	r12, 1240[r0]

0000161c <.LM57>:
    161c:	ee 0c 34 01                   	mov.l	1232[r0], r12
    1620:	76 2c 84 00                   	and	#132, r12
    1624:	3b b2 00                      	bne.w	16d6 <.LM66>

00001627 <.LM58>:
    1627:	ee 08 37 01                   	mov.l	1244[r0], r8
    162b:	06 82 08 36 01                	sub	1240[r0].l, r8

00001630 <.LVL30>:
    1630:	61 08                         	cmp	#0, r8
    1632:	2a 05                         	bgt.b	1637 <.LM59>
    1634:	38 a2 00                      	bra.w	16d6 <.LM66>

00001637 <.LM59>:
    1637:	75 58 10                      	cmp	#16, r8
    163a:	ee 0e 28 01                   	mov.l	1184[r0], r14
    163e:	2b 72                         	ble.b	16b0 <.LM64>

00001640 <.LM60>:
    1640:	eb 0a 43 01                   	mov.l	r10, 1292[r0]
    1644:	fb 62 38 55 00 00             	mov.l	#0x5538, r6
    164a:	ef 8a                         	mov.l	r8, r10
    164c:	ef c8                         	mov.l	r12, r8

0000164e <.LVL32>:
    164e:	ef bc                         	mov.l	r11, r12
    1650:	ef 7b                         	mov.l	r7, r11
    1652:	ee 07 39 01                   	mov.l	1252[r0], r7
    1656:	2e 0c                         	bra.b	1662 <.LM61>

00001658 <.LVL33>:
    1658:	62 8f                         	add	#8, r15

0000165a <.LVL34>:
    165a:	71 aa f0                      	add	#-16, r10, r10
    165d:	75 5a 10                      	cmp	#16, r10
    1660:	2b 42                         	ble.b	16a2 <.LVL38+0xc>

00001662 <.LM61>:
    1662:	ee 03 29 01                   	mov.l	1188[r0], r3
    1666:	62 1e                         	add	#1, r14
    1668:	71 33 10                      	add	#16, r3, r3
    166b:	f8 f2 b8 79 00 00             	mov.l	#0x79b8, [r15]
    1671:	f9 f6 01 10                   	mov.l	#16, 4[r15]
    1675:	eb 03 29 01                   	mov.l	r3, 1188[r0]

00001679 <.LVL36>:
    1679:	eb 0e 28 01                   	mov.l	r14, 1184[r0]
    167d:	61 7e                         	cmp	#7, r14
    167f:	2b d9                         	ble.b	1658 <.LVL33>

00001681 <.LM62>:
    1681:	fb 3a 9c 04                   	mov.l	#0x49c, r3
    1685:	4b 03                         	add	r0, r3
    1687:	ef 71                         	mov.l	r7, r1
    1689:	ef 92                         	mov.l	r9, r2
    168b:	7f 16                         	jsr	r6

0000168d <.LVL37>:
    168d:	61 01                         	cmp	#0, r1
    168f:	3b 51 03                      	bne.w	19e0 <.L18>

00001692 <.LM63>:
    1692:	66 cf                         	mov.l	#12, r15
    1694:	4b 0f                         	add	r0, r15

00001696 <.LVL38>:
    1696:	71 aa f0                      	add	#-16, r10, r10
    1699:	75 5a 10                      	cmp	#16, r10
    169c:	ee 0e 28 01                   	mov.l	1184[r0], r14
    16a0:	2a c2                         	bgt.b	1662 <.LM61>
    16a2:	ef b7                         	mov.l	r11, r7
    16a4:	ef cb                         	mov.l	r12, r11
    16a6:	ef 8c                         	mov.l	r8, r12
    16a8:	ef a8                         	mov.l	r10, r8
    16aa:	ee 0a 43 01                   	mov.l	1292[r0], r10

000016ae <.LVL40>:
    16ae:	ef 00                         	nop

000016b0 <.LM64>:
    16b0:	ee 03 29 01                   	mov.l	1188[r0], r3
    16b4:	62 1e                         	add	#1, r14
    16b6:	4b 83                         	add	r8, r3
    16b8:	f8 f2 b8 79 00 00             	mov.l	#0x79b8, [r15]
    16be:	e7 f8 01                      	mov.l	r8, 4[r15]
    16c1:	eb 03 29 01                   	mov.l	r3, 1188[r0]

000016c5 <.LVL41>:
    16c5:	eb 0e 28 01                   	mov.l	r14, 1184[r0]
    16c9:	61 7e                         	cmp	#7, r14
    16cb:	2b 05                         	ble.b	16d0 <.LVL41+0xb>
    16cd:	38 e0 0c                      	bra.w	23ad <.LBE14>
    16d0:	5a 06 c6 04                   	movu.b	1222[r0], r6

000016d4 <.LM65>:
    16d4:	62 8f                         	add	#8, r15

000016d6 <.LM66>:
    16d6:	61 06                         	cmp	#0, r6
    16d8:	20 29                         	beq.b	1701 <.LM68>

000016da <.LM67>:
    16da:	ee 0e 28 01                   	mov.l	1184[r0], r14
    16de:	ee 04 29 01                   	mov.l	1188[r0], r4
    16e2:	72 03 c6 04                   	add	#0x4c6, r0, r3
    16e6:	62 14                         	add	#1, r4
    16e8:	62 1e                         	add	#1, r14
    16ea:	e3 f3                         	mov.l	r3, [r15]
    16ec:	f9 f6 01 01                   	mov.l	#1, 4[r15]
    16f0:	eb 04 29 01                   	mov.l	r4, 1188[r0]

000016f4 <.LVL43>:
    16f4:	eb 0e 28 01                   	mov.l	r14, 1184[r0]
    16f8:	61 7e                         	cmp	#7, r14
    16fa:	2b 05                         	ble.b	16ff <.LVL43+0xb>
    16fc:	38 30 0b                      	bra.w	222c <.LM337>
    16ff:	62 8f                         	add	#8, r15

00001701 <.LM68>:
    1701:	61 0d                         	cmp	#0, r13
    1703:	20 29                         	beq.b	172c <.LM70>

00001705 <.LM69>:
    1705:	ee 0e 28 01                   	mov.l	1184[r0], r14
    1709:	ee 0d 29 01                   	mov.l	1188[r0], r13
    170d:	72 04 c4 04                   	add	#0x4c4, r0, r4
    1711:	62 2d                         	add	#2, r13
    1713:	62 1e                         	add	#1, r14
    1715:	e3 f4                         	mov.l	r4, [r15]
    1717:	f9 f6 01 02                   	mov.l	#2, 4[r15]
    171b:	eb 0d 29 01                   	mov.l	r13, 1188[r0]

0000171f <.LVL45>:
    171f:	eb 0e 28 01                   	mov.l	r14, 1184[r0]
    1723:	61 7e                         	cmp	#7, r14
    1725:	2b 05                         	ble.b	172a <.LVL45+0xb>
    1727:	38 e9 0a                      	bra.w	2210 <.LM335>
    172a:	62 8f                         	add	#8, r15

0000172c <.LM70>:
    172c:	75 5c 80                      	cmp	#128, r12
    172f:	3a 86 09                      	beq.w	20b5 <.LM316>

00001732 <.LM71>:
    1732:	ee 08 3c 01                   	mov.l	1264[r0], r8
    1736:	43 b8                         	sub	r11, r8

00001738 <.LVL48>:
    1738:	61 08                         	cmp	#0, r8
    173a:	2a 05                         	bgt.b	173f <.LM72>
    173c:	38 86 00                      	bra.w	17c2 <.LM79>

0000173f <.LM72>:
    173f:	75 58 10                      	cmp	#16, r8
    1742:	ee 0e 28 01                   	mov.l	1184[r0], r14
    1746:	2b 5a                         	ble.b	17a0 <.LM77>

00001748 <.LM73>:
    1748:	fb c2 38 55 00 00             	mov.l	#0x5538, r12
    174e:	ee 0d 39 01                   	mov.l	1252[r0], r13
    1752:	2e 0e                         	bra.b	1760 <.LM74>

00001754 <.LVL49>:
    1754:	62 8f                         	add	#8, r15

00001756 <.LVL50>:
    1756:	71 88 f0                      	add	#-16, r8, r8
    1759:	75 58 10                      	cmp	#16, r8
    175c:	2b 44                         	ble.b	17a0 <.LM77>
    175e:	ef 00                         	nop

00001760 <.LM74>:
    1760:	ee 04 29 01                   	mov.l	1188[r0], r4
    1764:	62 1e                         	add	#1, r14
    1766:	71 44 10                      	add	#16, r4, r4
    1769:	f8 f2 c8 79 00 00             	mov.l	#0x79c8, [r15]
    176f:	f9 f6 01 10                   	mov.l	#16, 4[r15]
    1773:	eb 04 29 01                   	mov.l	r4, 1188[r0]

00001777 <.LVL52>:
    1777:	eb 0e 28 01                   	mov.l	r14, 1184[r0]
    177b:	61 7e                         	cmp	#7, r14
    177d:	2b d7                         	ble.b	1754 <.LVL49>

0000177f <.LM75>:
    177f:	fb 3a 9c 04                   	mov.l	#0x49c, r3
    1783:	4b 03                         	add	r0, r3
    1785:	ef d1                         	mov.l	r13, r1
    1787:	ef 92                         	mov.l	r9, r2
    1789:	7f 1c                         	jsr	r12

0000178b <.LVL53>:
    178b:	61 01                         	cmp	#0, r1
    178d:	3b 53 02                      	bne.w	19e0 <.L18>

00001790 <.LM76>:
    1790:	66 cf                         	mov.l	#12, r15
    1792:	4b 0f                         	add	r0, r15

00001794 <.LVL54>:
    1794:	71 88 f0                      	add	#-16, r8, r8
    1797:	75 58 10                      	cmp	#16, r8
    179a:	ee 0e 28 01                   	mov.l	1184[r0], r14
    179e:	2a c2                         	bgt.b	1760 <.LM74>

000017a0 <.LM77>:
    17a0:	ee 0c 29 01                   	mov.l	1188[r0], r12
    17a4:	62 1e                         	add	#1, r14
    17a6:	4b 8c                         	add	r8, r12
    17a8:	f8 f2 c8 79 00 00             	mov.l	#0x79c8, [r15]
    17ae:	e7 f8 01                      	mov.l	r8, 4[r15]
    17b1:	eb 0c 29 01                   	mov.l	r12, 1188[r0]

000017b5 <.LVL56>:
    17b5:	eb 0e 28 01                   	mov.l	r14, 1184[r0]
    17b9:	61 7e                         	cmp	#7, r14
    17bb:	2b 05                         	ble.b	17c0 <.LM78>
    17bd:	38 37 0a                      	bra.w	21f4 <.LM333>

000017c0 <.LM78>:
    17c0:	62 8f                         	add	#8, r15

000017c2 <.LM79>:
    17c2:	ee 0d 34 01                   	mov.l	1232[r0], r13
    17c6:	fd 78 cd 00 01                	tst	#256, r13
    17cb:	3b f8 07                      	bne.w	1fc3 <.LM303>

000017ce <.LM80>:
    17ce:	ee 0e 28 01                   	mov.l	1184[r0], r14
    17d2:	ee 0a 29 01                   	mov.l	1188[r0], r10
    17d6:	62 1e                         	add	#1, r14
    17d8:	4b ba                         	add	r11, r10
    17da:	e3 f7                         	mov.l	r7, [r15]
    17dc:	e7 fb 01                      	mov.l	r11, 4[r15]
    17df:	eb 0a 29 01                   	mov.l	r10, 1188[r0]

000017e3 <.LVL58>:
    17e3:	eb 0e 28 01                   	mov.l	r14, 1184[r0]
    17e7:	61 7e                         	cmp	#7, r14
    17e9:	2b 05                         	ble.b	17ee <.LBB12>
    17eb:	38 6d 07                      	bra.w	1f58 <.LM286>

000017ee <.LBB12>:
    17ee:	62 8f                         	add	#8, r15

000017f0 <.LBE12>:
    17f0:	ee 0c 34 01                   	mov.l	1232[r0], r12
    17f4:	fd 74 cc 04                   	tst	#4, r12
    17f8:	3a a4 00                      	beq.w	189c <.LVL71>

000017fb <.LM83>:
    17fb:	ee 0a 37 01                   	mov.l	1244[r0], r10
    17ff:	06 82 0a 36 01                	sub	1240[r0].l, r10

00001804 <.LVL61>:
    1804:	61 0a                         	cmp	#0, r10
    1806:	2a 05                         	bgt.b	180b <.LM84>
    1808:	38 94 00                      	bra.w	189c <.LVL71>

0000180b <.LM84>:
    180b:	75 5a 10                      	cmp	#16, r10
    180e:	ee 0e 28 01                   	mov.l	1184[r0], r14
    1812:	2b 58                         	ble.b	186a <.LM89>

00001814 <.LM85>:
    1814:	fb 72 38 55 00 00             	mov.l	#0x5538, r7
    181a:	ee 0c 39 01                   	mov.l	1252[r0], r12
    181e:	2e 0c                         	bra.b	182a <.LM86>

00001820 <.LVL62>:
    1820:	62 8f                         	add	#8, r15

00001822 <.LVL63>:
    1822:	71 aa f0                      	add	#-16, r10, r10
    1825:	75 5a 10                      	cmp	#16, r10
    1828:	2b 42                         	ble.b	186a <.LM89>

0000182a <.LM86>:
    182a:	ee 0b 29 01                   	mov.l	1188[r0], r11
    182e:	62 1e                         	add	#1, r14
    1830:	71 bb 10                      	add	#16, r11, r11
    1833:	f8 f2 b8 79 00 00             	mov.l	#0x79b8, [r15]
    1839:	f9 f6 01 10                   	mov.l	#16, 4[r15]
    183d:	eb 0b 29 01                   	mov.l	r11, 1188[r0]

00001841 <.LVL65>:
    1841:	eb 0e 28 01                   	mov.l	r14, 1184[r0]
    1845:	61 7e                         	cmp	#7, r14
    1847:	2b d9                         	ble.b	1820 <.LVL62>

00001849 <.LM87>:
    1849:	fb 3a 9c 04                   	mov.l	#0x49c, r3
    184d:	4b 03                         	add	r0, r3
    184f:	ef c1                         	mov.l	r12, r1
    1851:	ef 92                         	mov.l	r9, r2
    1853:	7f 17                         	jsr	r7

00001855 <.LVL66>:
    1855:	61 01                         	cmp	#0, r1
    1857:	3b 89 01                      	bne.w	19e0 <.L18>

0000185a <.LM88>:
    185a:	66 cf                         	mov.l	#12, r15
    185c:	4b 0f                         	add	r0, r15

0000185e <.LVL67>:
    185e:	71 aa f0                      	add	#-16, r10, r10
    1861:	75 5a 10                      	cmp	#16, r10
    1864:	ee 0e 28 01                   	mov.l	1184[r0], r14
    1868:	2a c2                         	bgt.b	182a <.LM86>

0000186a <.LM89>:
    186a:	ee 07 29 01                   	mov.l	1188[r0], r7
    186e:	62 1e                         	add	#1, r14
    1870:	4b a7                         	add	r10, r7
    1872:	f8 f2 b8 79 00 00             	mov.l	#0x79b8, [r15]
    1878:	e7 fa 01                      	mov.l	r10, 4[r15]
    187b:	eb 07 29 01                   	mov.l	r7, 1188[r0]

0000187f <.LVL69>:
    187f:	eb 0e 28 01                   	mov.l	r14, 1184[r0]
    1883:	61 7e                         	cmp	#7, r14
    1885:	2b 1b                         	ble.b	18a0 <.LM91>

00001887 <.LM90>:
    1887:	ee 01 39 01                   	mov.l	1252[r0], r1
    188b:	fb 3a 9c 04                   	mov.l	#0x49c, r3
    188f:	4b 03                         	add	r0, r3
    1891:	ef 92                         	mov.l	r9, r2
    1893:	05 a5 3c 00                   	bsr.a	5538 <___sprint_r>

00001897 <.LVL70>:
    1897:	61 01                         	cmp	#0, r1
    1899:	3b 47 01                      	bne.w	19e0 <.L18>

0000189c <.LVL71>:
    189c:	ee 07 29 01                   	mov.l	1188[r0], r7

000018a0 <.LM91>:
    18a0:	ee 0a 36 01                   	mov.l	1240[r0], r10
    18a4:	06 a2 04 0a 37 01             	max	1244[r0].l, r10
    18aa:	06 8a 0a 38 01                	add	1248[r0].l, r10
    18af:	eb 0a 38 01                   	mov.l	r10, 1248[r0]

000018b3 <.LM92>:
    18b3:	61 07                         	cmp	#0, r7
    18b5:	3b 27 09                      	bne.w	21dc <.LM332>

000018b8 <.LM93>:
    18b8:	ee 0d 35 01                   	mov.l	1236[r0], r13

000018bc <.LM94>:
    18bc:	66 cf                         	mov.l	#12, r15

000018be <.LM95>:
    18be:	58 d7                         	movu.b	[r13], r7

000018c0 <.LM96>:
    18c0:	4b 0f                         	add	r0, r15
    18c2:	fa 06 28 01 00                	mov.l	#0, 1184[r0]

000018c7 <.LM97>:
    18c7:	61 07                         	cmp	#0, r7
    18c9:	3b 7f fc                      	bne.w	1548 <.LVL10+0x1>

000018cc <.LVL74>:
    18cc:	ee 07 35 01                   	mov.l	1236[r0], r7
    18d0:	38 d1 fc                      	bra.w	15a1 <.LM37>

000018d3 <.LM98>:
    18d3:	fb d2 54 78 00 00             	mov.l	#0x7854, r13
    18d9:	fe 6c dc                      	mov.l	[r12, r13], r12
    18dc:	7f 0c                         	jmp	r12

000018de <.LVL76>:
    18de:	ee 0b 35 01                   	mov.l	1236[r0], r11
    18e2:	ff 0a b7                      	sub	r11, r7, r10
    18e5:	38 85 fc                      	bra.w	156a <.LM34>

000018e8 <.L25>:
    18e8:	ee 0a 3b 01                   	mov.l	1260[r0], r10

000018ec <.LVL78>:
    18ec:	62 3a                         	add	#3, r10
    18ee:	75 2a fc                      	and	#-4, r10
    18f1:	ec ac                         	mov.l	[r10], r12
    18f3:	62 4a                         	add	#4, r10
    18f5:	eb 0c 37 01                   	mov.l	r12, 1244[r0]
    18f9:	eb 0a 3b 01                   	mov.l	r10, 1260[r0]

000018fd <.LM100>:
    18fd:	61 0c                         	cmp	#0, r12
    18ff:	29 05                         	blt.b	1904 <.LM101>
    1901:	38 79 04                      	bra.w	1d7a <.LVL178>

00001904 <.LM101>:
    1904:	ee 0d 37 01                   	mov.l	1244[r0], r13
    1908:	7e 1d                         	neg	r13
    190a:	eb 0d 37 01                   	mov.l	r13, 1244[r0]

0000190e <.LVL80>:
    190e:	ef 00                         	nop

00001910 <.L27>:
    1910:	ee 0e 34 01                   	mov.l	1232[r0], r14
    1914:	65 4e                         	or	#4, r14
    1916:	eb 0e 34 01                   	mov.l	r14, 1232[r0]

0000191a <.LVL81>:
    191a:	58 7a                         	movu.b	[r7], r10

0000191c <.LM103>:
    191c:	38 af fc                      	bra.w	15cb <.LM44>

0000191f <.LM104>:
    191f:	ef d1                         	mov.l	r13, r1
    1921:	ef 92                         	mov.l	r9, r2
    1923:	05 ed 14 00                   	bsr.a	2e10 <___swsetup_r>

00001927 <.LVL83>:
    1927:	61 01                         	cmp	#0, r1
    1929:	3b c7 00                      	bne.w	19f0 <.LM131>
    192c:	dd 9a 06                      	mov.w	12[r9], r10

0000192f <.LM105>:
    192f:	ef ab                         	mov.l	r10, r11
    1931:	75 2b 1a                      	and	#26, r11
    1934:	61 ab                         	cmp	#10, r11
    1936:	3b bb fb                      	bne.w	14f1 <.LM12>

00001939 <.LM106>:
    1939:	dd 9b 07                      	mov.w	14[r9], r11

0000193c <.LM107>:
    193c:	df bc                         	mov.w	r11, r12
    193e:	61 0c                         	cmp	#0, r12
    1940:	28 05                         	bge.b	1945 <.LBB21>
    1942:	38 af fb                      	bra.w	14f1 <.LM12>

00001945 <.LBB21>:
    1945:	75 2a fd                      	and	#-3, r10

00001948 <.LM109>:
    1948:	ef 73                         	mov.l	r7, r3

0000194a <.LM110>:
    194a:	db 0a 0c 02                   	mov.w	r10, 1048[r0]

0000194e <.LM111>:
    194e:	ed 97 19                      	mov.l	100[r9], r7

00001951 <.LM112>:
    1951:	db 0b 0d 02                   	mov.w	r11, 1050[r0]

00001955 <.LM113>:
    1955:	ed 9a 07                      	mov.l	28[r9], r10

00001958 <.LM114>:
    1958:	ed 9b 09                      	mov.l	36[r9], r11

0000195b <.LM115>:
    195b:	fb 2a 0c 04                   	mov.l	#0x40c, r2
    195f:	ee 04 3b 01                   	mov.l	1260[r0], r4

00001963 <.LM116>:
    1963:	66 cc                         	mov.l	#12, r12
    1965:	4b 0c                         	add	r0, r12

00001967 <.LM117>:
    1967:	4b 02                         	add	r0, r2
    1969:	ef d1                         	mov.l	r13, r1

0000196b <.LM118>:
    196b:	eb 07 1c 01                   	mov.l	r7, 1136[r0]

0000196f <.LM119>:
    196f:	eb 0a 0a 01                   	mov.l	r10, 1064[r0]

00001973 <.LM120>:
    1973:	eb 0b 0c 01                   	mov.l	r11, 1072[r0]

00001977 <.LM121>:
    1977:	eb 0c 03 01                   	mov.l	r12, 1036[r0]
    197b:	eb 0c 07 01                   	mov.l	r12, 1052[r0]

0000197f <.LM122>:
    197f:	fa 0a 05 01 00 04             	mov.l	#0x400, 1044[r0]
    1985:	fa 0a 08 01 00 04             	mov.l	#0x400, 1056[r0]

0000198b <.LM123>:
    198b:	fa 06 09 01 00                	mov.l	#0, 1060[r0]

00001990 <.LM124>:
    1990:	05 f0 fa ff                   	bsr.a	1480 <__vfprintf_r>

00001994 <.LVL86>:
    1994:	eb 01 38 01                   	mov.l	r1, 1248[r0]

00001998 <.LM125>:
    1998:	61 01                         	cmp	#0, r1
    199a:	29 16                         	blt.b	19b0 <.LBE22>
    199c:	fb 2a 0c 04                   	mov.l	#0x40c, r2
    19a0:	4b 02                         	add	r0, r2
    19a2:	ef d1                         	mov.l	r13, r1

000019a4 <.LVL88>:
    19a4:	05 b4 25 00                   	bsr.a	3f58 <__fflush_r>

000019a8 <.LVL89>:
    19a8:	61 01                         	cmp	#0, r1
    19aa:	3b 0d 14                      	bne.w	2db7 <.LBB24>
    19ad:	fc 13 00                      	nop

000019b0 <.LBE22>:
    19b0:	de 07 0c 02                   	mov.w	1048[r0], r7

000019b4 <.LBB23>:
    19b4:	75 27 40                      	and	#64, r7
    19b7:	df 77                         	mov.w	r7, r7
    19b9:	61 07                         	cmp	#0, r7
    19bb:	20 3d                         	beq.b	19f8 <.LM132>

000019bd <.LM127>:
    19bd:	dd 97 06                      	mov.w	12[r9], r7
    19c0:	75 37 40                      	or	#64, r7
    19c3:	d7 97 06                      	mov.w	r7, 12[r9]
    19c6:	2e 32                         	bra.b	19f8 <.LM132>

000019c8 <.LBE21>:
    19c8:	ee 07 29 01                   	mov.l	1188[r0], r7
    19cc:	ee 0d 39 01                   	mov.l	1252[r0], r13

000019d0 <.LDL1>:
    19d0:	61 07                         	cmp	#0, r7
    19d2:	20 0e                         	beq.b	19e0 <.L18>

000019d4 <.LM129>:
    19d4:	ef d1                         	mov.l	r13, r1
    19d6:	ef 92                         	mov.l	r9, r2
    19d8:	72 03 9c 04                   	add	#0x49c, r0, r3
    19dc:	05 5c 3b 00                   	bsr.a	5538 <___sprint_r>

000019e0 <.L18>:
    19e0:	dd 97 06                      	mov.w	12[r9], r7
    19e3:	75 27 40                      	and	#64, r7
    19e6:	df 77                         	mov.w	r7, r7
    19e8:	61 07                         	cmp	#0, r7
    19ea:	20 0e                         	beq.b	19f8 <.LM132>

000019ec <.LVL92>:
    19ec:	76 10 01 00                   	mul	#1, r0

000019f0 <.LM131>:
    19f0:	fa 06 38 01 ff                	mov.l	#-1, 1248[r0]
    19f5:	fc 13 00                      	nop

000019f8 <.LM132>:
    19f8:	ee 01 38 01                   	mov.l	1248[r0], r1
    19fc:	72 00 1c 05                   	add	#0x51c, r0, r0

00001a00 <.LVL93>:
    1a00:	3f 6d 08                      	rtsd	#32, r6-r13

00001a03 <.LM133>:
    1a03:	ee 01 39 01                   	mov.l	1252[r0], r1
    1a07:	fb 3a 9c 04                   	mov.l	#0x49c, r3
    1a0b:	4b 03                         	add	r0, r3
    1a0d:	ef 92                         	mov.l	r9, r2
    1a0f:	05 29 3b 00                   	bsr.a	5538 <___sprint_r>

00001a13 <.LVL95>:
    1a13:	61 01                         	cmp	#0, r1
    1a15:	21 cb                         	bne.b	19e0 <.L18>

00001a17 <.LM134>:
    1a17:	66 cf                         	mov.l	#12, r15
    1a19:	4b 0f                         	add	r0, r15
    1a1b:	38 7d fb                      	bra.w	1598 <.LM36>

00001a1e <.LM135>:
    1a1e:	ef d1                         	mov.l	r13, r1

00001a20 <.LVL97>:
    1a20:	05 24 26 00                   	bsr.a	4044 <___sinit>

00001a24 <.LVL98>:
    1a24:	38 8c fa                      	bra.w	14b0 <.LM7>

00001a27 <.L31>:
    1a27:	cb 0b c6 04                   	mov.b	r11, 1222[r0]

00001a2b <.LM136>:
    1a2b:	ee 0b 34 01                   	mov.l	1232[r0], r11
    1a2f:	eb 07 35 01                   	mov.l	r7, 1236[r0]
    1a33:	75 3b 10                      	or	#16, r11
    1a36:	eb 0b 34 01                   	mov.l	r11, 1232[r0]

00001a3a <.LM137>:
    1a3a:	ee 0c 34 01                   	mov.l	1232[r0], r12
    1a3e:	fd 74 cc 20                   	tst	#32, r12
    1a42:	3a 46 02                      	beq.w	1c88 <.LM205>

00001a45 <.LVL101>:
    1a45:	fc 13 00                      	nop

00001a48 <.LM138>:
    1a48:	ee 07 3b 01                   	mov.l	1260[r0], r7

00001a4c <.LVL102>:
    1a4c:	62 37                         	add	#3, r7
    1a4e:	75 27 fc                      	and	#-4, r7
    1a51:	ed 7c 01                      	mov.l	4[r7], r12

00001a54 <.LVL103>:
    1a54:	71 7d 08                      	add	#8, r7, r13
    1a57:	ec 78                         	mov.l	[r7], r8
    1a59:	eb 0d 3b 01                   	mov.l	r13, 1260[r0]

00001a5d <.LVL104>:
    1a5d:	ef cb                         	mov.l	r12, r11

00001a5f <.LVL105>:
    1a5f:	03                            	nop

00001a60 <.LM139>:
    1a60:	61 0c                         	cmp	#0, r12
    1a62:	28 05                         	bge.b	1a67 <.LM139+0x7>
    1a64:	38 b9 0b                      	bra.w	261d <.LM411>
    1a67:	ce 06 c6 04                   	mov.b	1222[r0], r6

00001a6b <.LM140>:
    1a6b:	66 17                         	mov.l	#1, r7

00001a6d <.L71>:
    1a6d:	61 05                         	cmp	#0, r5
    1a6f:	29 0e                         	blt.b	1a7d <.LM143>

00001a71 <.LM142>:
    1a71:	ee 0c 34 01                   	mov.l	1232[r0], r12
    1a75:	76 2c 7f ff                   	and	#-129, r12
    1a79:	eb 0c 34 01                   	mov.l	r12, 1232[r0]

00001a7d <.LM143>:
    1a7d:	ff 5c b8                      	or	r11, r8, r12

00001a80 <.LM144>:
    1a80:	5b 77                         	movu.b	r7, r7

00001a82 <.LM145>:
    1a82:	3b f2 04                      	bne.w	1f74 <.LM288>

00001a85 <.LM146>:
    1a85:	61 05                         	cmp	#0, r5
    1a87:	3b ed 04                      	bne.w	1f74 <.LM288>

00001a8a <.LM147>:
    1a8a:	61 07                         	cmp	#0, r7
    1a8c:	3b 5e 08                      	bne.w	22ea <.LM355>

00001a8f <.LM148>:
    1a8f:	ee 07 34 01                   	mov.l	1232[r0], r7

00001a93 <.LVL109>:
    1a93:	fd 74 c7 01                   	tst	#1, r7
    1a97:	3a 53 08                      	beq.w	22ea <.LM355>

00001a9a <.LM149>:
    1a9a:	fb 7a 9b 04                   	mov.l	#0x49b, r7
    1a9e:	ee 0b 44 01                   	mov.l	1296[r0], r11

00001aa2 <.LVL111>:
    1aa2:	fa 04 9b 04 30                	mov.b	#48, 1179[r0]
    1aa7:	4b 07                         	add	r0, r7

00001aa9 <.LVL112>:
    1aa9:	ef bc                         	mov.l	r11, r12
    1aab:	fc 13 5c                      	max	r5, r12
    1aae:	eb 0c 36 01                   	mov.l	r12, 1240[r0]

00001ab2 <.LBB25>:
    1ab2:	eb 05 3c 01                   	mov.l	r5, 1264[r0]
    1ab6:	fa 06 3e 01 00                	mov.l	#0, 1272[r0]

00001abb <.L64>:
    1abb:	5b 66                         	movu.b	r6, r6
    1abd:	61 06                         	cmp	#0, r6
    1abf:	3a 4b fb                      	beq.w	160a <.LM55>

00001ac2 <.LM152>:
    1ac2:	ee 0e 36 01                   	mov.l	1240[r0], r14
    1ac6:	62 1e                         	add	#1, r14
    1ac8:	eb 0e 36 01                   	mov.l	r14, 1240[r0]

00001acc <.LVL115>:
    1acc:	38 3e fb                      	bra.w	160a <.LM55>

00001acf <.L32>:
    1acf:	eb 07 35 01                   	mov.l	r7, 1236[r0]

00001ad3 <.LM153>:
    1ad3:	ee 07 3b 01                   	mov.l	1260[r0], r7

00001ad7 <.LM154>:
    1ad7:	ee 0d 34 01                   	mov.l	1232[r0], r13

00001adb <.LM155>:
    1adb:	62 37                         	add	#3, r7
    1add:	75 27 fc                      	and	#-4, r7
    1ae0:	cb 0b c6 04                   	mov.b	r11, 1222[r0]

00001ae4 <.LM156>:
    1ae4:	fd 74 cd 08                   	tst	#8, r13
    1ae8:	3a 7b 0c                      	beq.w	2763 <.LM448>

00001aeb <.LM157>:
    1aeb:	71 7e 04                      	add	#4, r7, r14
    1aee:	ec 77                         	mov.l	[r7], r7
    1af0:	eb 0e 3b 01                   	mov.l	r14, 1260[r0]

00001af4 <.LVL118>:
    1af4:	eb 07 40 01                   	mov.l	r7, 1280[r0]

00001af8 <.LM158>:
    1af8:	ee 0b 40 01                   	mov.l	1280[r0], r11
    1afc:	eb 05 45 01                   	mov.l	r5, 1300[r0]
    1b00:	eb 0f 46 01                   	mov.l	r15, 1304[r0]
    1b04:	fb 72 18 54 00 00             	mov.l	#0x5418, r7
    1b0a:	ef b1                         	mov.l	r11, r1
    1b0c:	7f 17                         	jsr	r7

00001b0e <.LVL120>:
    1b0e:	61 11                         	cmp	#1, r1
    1b10:	ee 05 45 01                   	mov.l	1300[r0], r5
    1b14:	ee 0f 46 01                   	mov.l	1304[r0], r15
    1b18:	3b 1e 0b                      	bne.w	2636 <.LM414>

00001b1b <.LM159>:
    1b1b:	fd 72 1b 00 00 00 00          	fcmp	#0, r11
    1b22:	26 05                         	bpz.b	1b27 <.Ldebug_abbrev0+0xb>
    1b24:	38 b1 10                      	bra.w	2bd5 <.LM545>
    1b27:	ce 06 c6 04                   	mov.b	1222[r0], r6

00001b2b <.LM160>:
    1b2b:	75 5a 47                      	cmp	#71, r10
    1b2e:	2a 05                         	bgt.b	1b33 <.LM161>
    1b30:	38 b8 0e                      	bra.w	29e8 <.LM496>

00001b33 <.LM161>:
    1b33:	fb 72 1a 78 00 00             	mov.l	#0x781a, r7

00001b39 <.LM162>:
    1b39:	ee 0c 34 01                   	mov.l	1232[r0], r12

00001b3d <.LM163>:
    1b3d:	fa 06 3c 01 00                	mov.l	#0, 1264[r0]

00001b42 <.LM164>:
    1b42:	ee 0d 3c 01                   	mov.l	1264[r0], r13

00001b46 <.LM165>:
    1b46:	fa 06 36 01 03                	mov.l	#3, 1240[r0]

00001b4b <.LM166>:
    1b4b:	76 2c 7f ff                   	and	#-129, r12
    1b4f:	eb 0c 34 01                   	mov.l	r12, 1232[r0]

00001b53 <.LM167>:
    1b53:	ee 0b 36 01                   	mov.l	1240[r0], r11

00001b57 <.LM168>:
    1b57:	eb 0d 3e 01                   	mov.l	r13, 1272[r0]

00001b5b <.LM169>:
    1b5b:	38 60 ff                      	bra.w	1abb <.L64>

00001b5e <.L33>:
    1b5e:	ee 0c 34 01                   	mov.l	1232[r0], r12
    1b62:	65 8c                         	or	#8, r12
    1b64:	eb 0c 34 01                   	mov.l	r12, 1232[r0]

00001b68 <.LVL124>:
    1b68:	58 7a                         	movu.b	[r7], r10

00001b6a <.LM171>:
    1b6a:	38 61 fa                      	bra.w	15cb <.LM44>

00001b6d <.L34>:
    1b6d:	ee 0d 34 01                   	mov.l	1232[r0], r13
    1b71:	eb 07 35 01                   	mov.l	r7, 1236[r0]
    1b75:	75 3d 10                      	or	#16, r13
    1b78:	eb 0d 34 01                   	mov.l	r13, 1232[r0]

00001b7c <.LM173>:
    1b7c:	ee 0b 34 01                   	mov.l	1232[r0], r11
    1b80:	75 2b 20                      	and	#32, r11
    1b83:	3a ae 08                      	beq.w	2431 <.LM380>

00001b86 <.LM174>:
    1b86:	ee 07 3b 01                   	mov.l	1260[r0], r7

00001b8a <.LVL128>:
    1b8a:	62 37                         	add	#3, r7
    1b8c:	75 27 fc                      	and	#-4, r7
    1b8f:	71 7e 08                      	add	#8, r7, r14
    1b92:	ec 78                         	mov.l	[r7], r8
    1b94:	ed 7b 01                      	mov.l	4[r7], r11
    1b97:	eb 0e 3b 01                   	mov.l	r14, 1260[r0]

00001b9b <.LM175>:
    1b9b:	66 07                         	mov.l	#0, r7

00001b9d <.LVL130>:
    1b9d:	fc 13 00                      	nop

00001ba0 <.L123>:
    1ba0:	fa 04 c6 04 00                	mov.b	#0, 1222[r0]
    1ba5:	66 06                         	mov.l	#0, r6
    1ba7:	38 c6 fe                      	bra.w	1a6d <.L71>

00001baa <.L35>:
    1baa:	eb 07 35 01                   	mov.l	r7, 1236[r0]

00001bae <.LM177>:
    1bae:	ee 07 34 01                   	mov.l	1232[r0], r7

00001bb2 <.LVL132>:
    1bb2:	75 37 10                      	or	#16, r7
    1bb5:	eb 07 34 01                   	mov.l	r7, 1232[r0]

00001bb9 <.LM178>:
    1bb9:	ee 0b 34 01                   	mov.l	1232[r0], r11
    1bbd:	75 2b 20                      	and	#32, r11
    1bc0:	3a 92 08                      	beq.w	2452 <.LM383>

00001bc3 <.LM179>:
    1bc3:	ee 07 3b 01                   	mov.l	1260[r0], r7
    1bc7:	62 37                         	add	#3, r7
    1bc9:	75 27 fc                      	and	#-4, r7
    1bcc:	71 7b 08                      	add	#8, r7, r11
    1bcf:	eb 0b 3b 01                   	mov.l	r11, 1260[r0]

00001bd3 <.LVL134>:
    1bd3:	ec 78                         	mov.l	[r7], r8
    1bd5:	ed 7b 01                      	mov.l	4[r7], r11

00001bd8 <.LM180>:
    1bd8:	66 17                         	mov.l	#1, r7
    1bda:	2e c6                         	bra.b	1ba0 <.L123>

00001bdc <.L36>:
    1bdc:	cb 0b c6 04                   	mov.b	r11, 1222[r0]

00001be0 <.LM181>:
    1be0:	ee 0b 34 01                   	mov.l	1232[r0], r11
    1be4:	eb 07 35 01                   	mov.l	r7, 1236[r0]

00001be8 <.LM182>:
    1be8:	fa 02 42 01 26 78 00 00       	mov.l	#0x7826, 1288[r0]

00001bf0 <.LM183>:
    1bf0:	75 2b 20                      	and	#32, r11
    1bf3:	3a 6e 02                      	beq.w	1e61 <.LM271>

00001bf6 <.LVL137>:
    1bf6:	ef 00                         	nop

00001bf8 <.LM184>:
    1bf8:	ee 07 3b 01                   	mov.l	1260[r0], r7

00001bfc <.LVL138>:
    1bfc:	62 37                         	add	#3, r7
    1bfe:	75 27 fc                      	and	#-4, r7
    1c01:	71 7b 08                      	add	#8, r7, r11
    1c04:	eb 0b 3b 01                   	mov.l	r11, 1260[r0]

00001c08 <.LVL139>:
    1c08:	ec 78                         	mov.l	[r7], r8
    1c0a:	ed 7b 01                      	mov.l	4[r7], r11

00001c0d <.LVL140>:
    1c0d:	fc 13 00                      	nop

00001c10 <.LM185>:
    1c10:	ee 0e 34 01                   	mov.l	1232[r0], r14
    1c14:	fd 74 ce 01                   	tst	#1, r14
    1c18:	3a dd 06                      	beq.w	22f5 <.LM358>

00001c1b <.LM186>:
    1c1b:	ff 57 b8                      	or	r11, r8, r7
    1c1e:	3a d7 06                      	beq.w	22f5 <.LM358>

00001c21 <.LM187>:
    1c21:	65 2e                         	or	#2, r14

00001c23 <.LM188>:
    1c23:	fa 04 c4 04 30                	mov.b	#48, 1220[r0]

00001c28 <.LM189>:
    1c28:	cb 0a c5 04                   	mov.b	r10, 1221[r0]

00001c2c <.LM190>:
    1c2c:	eb 0e 34 01                   	mov.l	r14, 1232[r0]

00001c30 <.LM191>:
    1c30:	66 27                         	mov.l	#2, r7
    1c32:	38 6e ff                      	bra.w	1ba0 <.L123>

00001c35 <.L37>:
    1c35:	eb 07 35 01                   	mov.l	r7, 1236[r0]

00001c39 <.LM192>:
    1c39:	ee 07 3b 01                   	mov.l	1260[r0], r7

00001c3d <.LM193>:
    1c3d:	fa 06 3c 01 00                	mov.l	#0, 1264[r0]

00001c42 <.LM194>:
    1c42:	62 37                         	add	#3, r7
    1c44:	75 27 fc                      	and	#-4, r7
    1c47:	71 7e 04                      	add	#4, r7, r14
    1c4a:	cc 77                         	mov.b	[r7], r7

00001c4c <.LM195>:
    1c4c:	fa 06 36 01 01                	mov.l	#1, 1240[r0]

00001c51 <.LM196>:
    1c51:	cb 07 74 04                   	mov.b	r7, 1140[r0]

00001c55 <.LM197>:
    1c55:	ee 07 3c 01                   	mov.l	1264[r0], r7

00001c59 <.LM198>:
    1c59:	eb 0e 3b 01                   	mov.l	r14, 1260[r0]

00001c5d <.LM199>:
    1c5d:	eb 07 3e 01                   	mov.l	r7, 1272[r0]

00001c61 <.LM200>:
    1c61:	fa 04 c6 04 00                	mov.b	#0, 1222[r0]

00001c66 <.LM201>:
    1c66:	ee 0b 36 01                   	mov.l	1240[r0], r11

00001c6a <.LM202>:
    1c6a:	72 07 74 04                   	add	#0x474, r0, r7

00001c6e <.LVL145>:
    1c6e:	ee 06 3c 01                   	mov.l	1264[r0], r6

00001c72 <.LM203>:
    1c72:	38 98 f9                      	bra.w	160a <.LM55>

00001c75 <.L38>:
    1c75:	ee 0c 34 01                   	mov.l	1232[r0], r12
    1c79:	eb 07 35 01                   	mov.l	r7, 1236[r0]
    1c7d:	cb 0b c6 04                   	mov.b	r11, 1222[r0]

00001c81 <.LVL147>:
    1c81:	fd 74 cc 20                   	tst	#32, r12
    1c85:	3b c3 fd                      	bne.w	1a48 <.LM138>

00001c88 <.LM205>:
    1c88:	ee 0e 34 01                   	mov.l	1232[r0], r14
    1c8c:	fd 74 ce 10                   	tst	#16, r14
    1c90:	3a 54 0b                      	beq.w	27e4 <.LM458>

00001c93 <.LM206>:
    1c93:	ee 07 3b 01                   	mov.l	1260[r0], r7

00001c97 <.LVL148>:
    1c97:	03                            	nop

00001c98 <.LM207>:
    1c98:	62 37                         	add	#3, r7
    1c9a:	75 27 fc                      	and	#-4, r7
    1c9d:	ec 78                         	mov.l	[r7], r8
    1c9f:	62 47                         	add	#4, r7
    1ca1:	fd bf 8b                      	shar	#31, r8, r11
    1ca4:	eb 07 3b 01                   	mov.l	r7, 1260[r0]

00001ca8 <.LVL149>:
    1ca8:	ef bc                         	mov.l	r11, r12

00001caa <.LVL150>:
    1caa:	38 b6 fd                      	bra.w	1a60 <.LM139>

00001cad <.L28>:
    1cad:	ef 7d                         	mov.l	r7, r13
    1caf:	fd 38 da                      	movu.b	[r13+], r10

00001cb2 <.LVL152>:
    1cb2:	75 5a 2a                      	cmp	#42, r10
    1cb5:	3a c2 10                      	beq.w	2d77 <.LM591>

00001cb8 <.LM209>:
    1cb8:	71 ac d0                      	add	#-48, r10, r12
    1cbb:	61 9c                         	cmp	#9, r12
    1cbd:	66 05                         	mov.l	#0, r5

00001cbf <.LVL154>:
    1cbf:	25 05                         	bleu.b	1cc4 <.LM210>
    1cc1:	38 da 0f                      	bra.w	2c9b <.LM566>

00001cc4 <.LM210>:
    1cc4:	ff 27 55                      	add	r5, r5, r7

00001cc7 <.LM211>:
    1cc7:	fd 38 da                      	movu.b	[r13+], r10

00001cca <.LM212>:
    1cca:	6c 35                         	shll	#3, r5
    1ccc:	4b 75                         	add	r7, r5
    1cce:	4b c5                         	add	r12, r5

00001cd0 <.LM213>:
    1cd0:	71 ac d0                      	add	#-48, r10, r12
    1cd3:	61 9c                         	cmp	#9, r12

00001cd5 <.LM214>:
    1cd5:	ef d7                         	mov.l	r13, r7

00001cd7 <.LM215>:
    1cd7:	25 ed                         	bleu.b	1cc4 <.LM210>
    1cd9:	fd 74 45 ff                   	max	#-1, r5

00001cdd <.LM216>:
    1cdd:	38 f0 f8                      	bra.w	15cd <.LM45>

00001ce0 <.L39>:
    1ce0:	ee 0d 34 01                   	mov.l	1232[r0], r13
    1ce4:	75 3d 40                      	or	#64, r13
    1ce7:	eb 0d 34 01                   	mov.l	r13, 1232[r0]

00001ceb <.LVL161>:
    1ceb:	58 7a                         	movu.b	[r7], r10

00001ced <.LM218>:
    1ced:	38 de f8                      	bra.w	15cb <.LM44>

00001cf0 <.L40>:
    1cf0:	58 7a                         	movu.b	[r7], r10

00001cf2 <.LM220>:
    1cf2:	ef 7c                         	mov.l	r7, r12

00001cf4 <.LM221>:
    1cf4:	75 5a 6c                      	cmp	#108, r10
    1cf7:	3a 20 0d                      	beq.w	2a17 <.LM500>

00001cfa <.LM222>:
    1cfa:	ee 0c 34 01                   	mov.l	1232[r0], r12
    1cfe:	75 3c 10                      	or	#16, r12
    1d01:	eb 0c 34 01                   	mov.l	r12, 1232[r0]

00001d05 <.LVL165>:
    1d05:	38 c6 f8                      	bra.w	15cb <.LM44>

00001d08 <.L41>:
    1d08:	cb 0b c6 04                   	mov.b	r11, 1222[r0]

00001d0c <.LM223>:
    1d0c:	ee 0b 34 01                   	mov.l	1232[r0], r11
    1d10:	eb 07 35 01                   	mov.l	r7, 1236[r0]
    1d14:	fd 74 cb 20                   	tst	#32, r11
    1d18:	3a 5a 0a                      	beq.w	2772 <.LM449>

00001d1b <.LM224>:
    1d1b:	ee 07 3b 01                   	mov.l	1260[r0], r7

00001d1f <.LVL167>:
    1d1f:	ee 0b 38 01                   	mov.l	1248[r0], r11
    1d23:	62 37                         	add	#3, r7
    1d25:	75 27 fc                      	and	#-4, r7
    1d28:	ec 7a                         	mov.l	[r7], r10

00001d2a <.LVL168>:
    1d2a:	ee 0c 38 01                   	mov.l	1248[r0], r12
    1d2e:	6b fb                         	shar	#31, r11
    1d30:	62 47                         	add	#4, r7
    1d32:	eb 07 3b 01                   	mov.l	r7, 1260[r0]

00001d36 <.LVL169>:
    1d36:	e3 ac                         	mov.l	r12, [r10]
    1d38:	e7 ab 01                      	mov.l	r11, 4[r10]
    1d3b:	38 01 f8                      	bra.w	153c <.LM28>

00001d3e <.L43>:
    1d3e:	eb 07 35 01                   	mov.l	r7, 1236[r0]

00001d42 <.LM225>:
    1d42:	ee 07 3b 01                   	mov.l	1260[r0], r7

00001d46 <.LM226>:
    1d46:	ee 0c 34 01                   	mov.l	1232[r0], r12

00001d4a <.LM227>:
    1d4a:	62 37                         	add	#3, r7
    1d4c:	75 27 fc                      	and	#-4, r7
    1d4f:	71 7a 04                      	add	#4, r7, r10

00001d52 <.LM228>:
    1d52:	65 2c                         	or	#2, r12

00001d54 <.LM229>:
    1d54:	eb 0a 3b 01                   	mov.l	r10, 1260[r0]

00001d58 <.LVL173>:
    1d58:	ec 78                         	mov.l	[r7], r8
    1d5a:	66 0b                         	mov.l	#0, r11

00001d5c <.LM230>:
    1d5c:	eb 0c 34 01                   	mov.l	r12, 1232[r0]

00001d60 <.LM231>:
    1d60:	fa 04 c4 04 30                	mov.b	#48, 1220[r0]

00001d65 <.LM232>:
    1d65:	fa 04 c5 04 78                	mov.b	#120, 1221[r0]

00001d6a <.LM233>:
    1d6a:	fa 02 42 01 37 78 00 00       	mov.l	#0x7837, 1288[r0]

00001d72 <.LM234>:
    1d72:	66 27                         	mov.l	#2, r7

00001d74 <.LM235>:
    1d74:	75 4a 78                      	mov.l	#120, r10

00001d77 <.LM236>:
    1d77:	38 29 fe                      	bra.w	1ba0 <.L123>

00001d7a <.LVL178>:
    1d7a:	58 7a                         	movu.b	[r7], r10
    1d7c:	38 4f f8                      	bra.w	15cb <.LM44>

00001d7f <.L26>:
    1d7f:	75 4b 2b                      	mov.l	#43, r11
    1d82:	58 7a                         	movu.b	[r7], r10

00001d84 <.LM238>:
    1d84:	38 47 f8                      	bra.w	15cb <.LM44>

00001d87 <.L29>:
    1d87:	ee 0a 34 01                   	mov.l	1232[r0], r10

00001d8b <.LVL182>:
    1d8b:	76 3a 80 00                   	or	#128, r10
    1d8f:	eb 0a 34 01                   	mov.l	r10, 1232[r0]

00001d93 <.LVL183>:
    1d93:	58 7a                         	movu.b	[r7], r10

00001d95 <.LM240>:
    1d95:	38 36 f8                      	bra.w	15cb <.LM44>

00001d98 <.L30>:
    1d98:	ef 7d                         	mov.l	r7, r13

00001d9a <.LM241>:
    1d9a:	66 0c                         	mov.l	#0, r12

00001d9c <.LM242>:
    1d9c:	71 a7 d0                      	add	#-48, r10, r7
    1d9f:	ff 2e cc                      	add	r12, r12, r14

00001da2 <.LM243>:
    1da2:	fd 38 da                      	movu.b	[r13+], r10

00001da5 <.LM244>:
    1da5:	6c 3c                         	shll	#3, r12

00001da7 <.LVL188>:
    1da7:	4b ec                         	add	r14, r12
    1da9:	4b 7c                         	add	r7, r12

00001dab <.LM245>:
    1dab:	71 ae d0                      	add	#-48, r10, r14
    1dae:	61 9e                         	cmp	#9, r14

00001db0 <.LM246>:
    1db0:	ef d7                         	mov.l	r13, r7

00001db2 <.LM247>:
    1db2:	25 ea                         	bleu.b	1d9c <.LM242>

00001db4 <.LM248>:
    1db4:	eb 0c 37 01                   	mov.l	r12, 1244[r0]
    1db8:	38 15 f8                      	bra.w	15cd <.LM45>

00001dbb <.L23>:
    1dbb:	5b ba                         	movu.b	r11, r10

00001dbd <.LVL192>:
    1dbd:	61 0a                         	cmp	#0, r10
    1dbf:	21 bb                         	bne.b	1d7a <.LVL178>

00001dc1 <.LM250>:
    1dc1:	75 4b 20                      	mov.l	#32, r11
    1dc4:	58 7a                         	movu.b	[r7], r10
    1dc6:	38 05 f8                      	bra.w	15cb <.LM44>

00001dc9 <.L24>:
    1dc9:	ee 0e 34 01                   	mov.l	1232[r0], r14
    1dcd:	65 1e                         	or	#1, r14
    1dcf:	eb 0e 34 01                   	mov.l	r14, 1232[r0]

00001dd3 <.LVL194>:
    1dd3:	58 7a                         	movu.b	[r7], r10

00001dd5 <.LM252>:
    1dd5:	38 f6 f7                      	bra.w	15cb <.LM44>

00001dd8 <.L45>:
    1dd8:	ee 0b 3b 01                   	mov.l	1260[r0], r11
    1ddc:	eb 07 35 01                   	mov.l	r7, 1236[r0]
    1de0:	62 3b                         	add	#3, r11
    1de2:	75 2b fc                      	and	#-4, r11
    1de5:	ec b7                         	mov.l	[r11], r7

00001de7 <.LVL197>:
    1de7:	62 4b                         	add	#4, r11

00001de9 <.LM254>:
    1de9:	fa 04 c6 04 00                	mov.b	#0, 1222[r0]

00001dee <.LM255>:
    1dee:	eb 0b 3b 01                   	mov.l	r11, 1260[r0]

00001df2 <.LM256>:
    1df2:	61 07                         	cmp	#0, r7
    1df4:	3a df 0c                      	beq.w	2ad3 <.LBE41>

00001df7 <.LM257>:
    1df7:	61 05                         	cmp	#0, r5

00001df9 <.LBB26>:
    1df9:	ef 71                         	mov.l	r7, r1

00001dfb <.LBE26>:
    1dfb:	28 05                         	bge.b	1e00 <.LBB27>
    1dfd:	38 49 0c                      	bra.w	2a46 <.LM505>

00001e00 <.LBB27>:
    1e00:	ef 53                         	mov.l	r5, r3
    1e02:	66 02                         	mov.l	#0, r2
    1e04:	eb 05 45 01                   	mov.l	r5, 1300[r0]
    1e08:	eb 0f 46 01                   	mov.l	r15, 1304[r0]
    1e0c:	05 7c 2d 00                   	bsr.a	4b88 <_memchr>

00001e10 <.LM261>:
    1e10:	61 01                         	cmp	#0, r1
    1e12:	ee 05 45 01                   	mov.l	1300[r0], r5
    1e16:	ee 0f 46 01                   	mov.l	1304[r0], r15
    1e1a:	3a 38 0e                      	beq.w	2c52 <.LVL471>

00001e1d <.LM262>:
    1e1d:	ff 0b 71                      	sub	r7, r1, r11

00001e20 <.LM263>:
    1e20:	fa 06 3c 01 00                	mov.l	#0, 1264[r0]

00001e25 <.LM264>:
    1e25:	47 5b                         	cmp	r5, r11
    1e27:	2a 05                         	bgt.b	1e2c <.LM264+0x7>
    1e29:	38 13 0b                      	bra.w	293c <.LVL405>
    1e2c:	ef 5c                         	mov.l	r5, r12

00001e2e <.LM265>:
    1e2e:	ee 0d 3c 01                   	mov.l	1264[r0], r13
    1e32:	fd 74 4c 00                   	max	#0, r12
    1e36:	eb 0c 36 01                   	mov.l	r12, 1240[r0]
    1e3a:	ce 06 c6 04                   	mov.b	1222[r0], r6

00001e3e <.LM266>:
    1e3e:	ef 5b                         	mov.l	r5, r11

00001e40 <.LM267>:
    1e40:	eb 0d 3e 01                   	mov.l	r13, 1272[r0]
    1e44:	38 77 fc                      	bra.w	1abb <.L64>

00001e47 <.L47>:
    1e47:	cb 0b c6 04                   	mov.b	r11, 1222[r0]

00001e4b <.LBE27>:
    1e4b:	ee 0b 34 01                   	mov.l	1232[r0], r11
    1e4f:	eb 07 35 01                   	mov.l	r7, 1236[r0]

00001e53 <.LM269>:
    1e53:	fa 02 42 01 37 78 00 00       	mov.l	#0x7837, 1288[r0]

00001e5b <.LM270>:
    1e5b:	75 2b 20                      	and	#32, r11
    1e5e:	3b 9a fd                      	bne.w	1bf8 <.LM184>

00001e61 <.LM271>:
    1e61:	ee 07 34 01                   	mov.l	1232[r0], r7

00001e65 <.LVL206>:
    1e65:	75 27 10                      	and	#16, r7
    1e68:	3a 3a 09                      	beq.w	27a2 <.LM454>

00001e6b <.LM272>:
    1e6b:	ee 07 3b 01                   	mov.l	1260[r0], r7
    1e6f:	62 37                         	add	#3, r7
    1e71:	75 27 fc                      	and	#-4, r7
    1e74:	71 7c 04                      	add	#4, r7, r12
    1e77:	eb 0c 3b 01                   	mov.l	r12, 1260[r0]

00001e7b <.LVL207>:
    1e7b:	ec 78                         	mov.l	[r7], r8
    1e7d:	38 93 fd                      	bra.w	1c10 <.LM185>

00001e80 <.L44>:
    1e80:	ee 0d 34 01                   	mov.l	1232[r0], r13
    1e84:	75 3d 20                      	or	#32, r13
    1e87:	eb 0d 34 01                   	mov.l	r13, 1232[r0]

00001e8b <.LVL209>:
    1e8b:	58 7a                         	movu.b	[r7], r10

00001e8d <.LM274>:
    1e8d:	38 3e f7                      	bra.w	15cb <.LM44>

00001e90 <.L364>:
    1e90:	eb 07 35 01                   	mov.l	r7, 1236[r0]
    1e94:	38 e8 fc                      	bra.w	1b7c <.LM173>

00001e97 <.L365>:
    1e97:	eb 07 35 01                   	mov.l	r7, 1236[r0]
    1e9b:	38 1e fd                      	bra.w	1bb9 <.LM178>

00001e9e <.LM275>:
    1e9e:	ee 0a 3a 01                   	mov.l	1256[r0], r10
    1ea2:	61 1a                         	cmp	#1, r10
    1ea4:	2a 05                         	bgt.b	1ea9 <.LM276>
    1ea6:	38 ea 02                      	bra.w	2190 <.LM328>

00001ea9 <.LM276>:
    1ea9:	ee 0e 28 01                   	mov.l	1184[r0], r14
    1ead:	ee 0a 29 01                   	mov.l	1188[r0], r10
    1eb1:	62 1e                         	add	#1, r14
    1eb3:	62 1a                         	add	#1, r10
    1eb5:	e3 f7                         	mov.l	r7, [r15]
    1eb7:	f9 f6 01 01                   	mov.l	#1, 4[r15]
    1ebb:	eb 0a 29 01                   	mov.l	r10, 1188[r0]

00001ebf <.LVL213>:
    1ebf:	eb 0e 28 01                   	mov.l	r14, 1184[r0]
    1ec3:	61 7e                         	cmp	#7, r14
    1ec5:	2b 05                         	ble.b	1eca <.LLST23+0x5>
    1ec7:	38 d7 06                      	bra.w	259e <.LBE29>
    1eca:	71 f6 08                      	add	#8, r15, r6

00001ecd <.LVL214>:
    1ecd:	fc 13 00                      	nop

00001ed0 <.LM277>:
    1ed0:	ee 0a 29 01                   	mov.l	1188[r0], r10
    1ed4:	ee 0c 3d 01                   	mov.l	1268[r0], r12
    1ed8:	ee 0d 3f 01                   	mov.l	1276[r0], r13
    1edc:	62 1e                         	add	#1, r14
    1ede:	06 8a 0a 3f 01                	add	1276[r0].l, r10
    1ee3:	e3 6c                         	mov.l	r12, [r6]
    1ee5:	e7 6d 01                      	mov.l	r13, 4[r6]
    1ee8:	eb 0a 29 01                   	mov.l	r10, 1188[r0]

00001eec <.LVL215>:
    1eec:	eb 0e 28 01                   	mov.l	r14, 1184[r0]
    1ef0:	61 7e                         	cmp	#7, r14
    1ef2:	2b 05                         	ble.b	1ef7 <.LVL215+0xb>
    1ef4:	38 ca 06                      	bra.w	25be <.LM406>
    1ef7:	62 86                         	add	#8, r6

00001ef9 <.LM278>:
    1ef9:	ee 0a 40 01                   	mov.l	1280[r0], r10
    1efd:	fd 72 1a 00 00 00 00          	fcmp	#0, r10

00001f04 <.LM279>:
    1f04:	ee 0a 3a 01                   	mov.l	1256[r0], r10

00001f08 <.LM280>:
    1f08:	3a c5 04                      	beq.w	23cd <.LM372>

00001f0b <.LM281>:
    1f0b:	ee 0b 29 01                   	mov.l	1188[r0], r11
    1f0f:	60 1a                         	sub	#1, r10

00001f11 <.LM282>:
    1f11:	62 17                         	add	#1, r7

00001f13 <.LM283>:
    1f13:	4b ab                         	add	r10, r11
    1f15:	62 1e                         	add	#1, r14
    1f17:	e3 67                         	mov.l	r7, [r6]
    1f19:	e7 6a 01                      	mov.l	r10, 4[r6]
    1f1c:	eb 0b 29 01                   	mov.l	r11, 1188[r0]

00001f20 <.LVL218>:
    1f20:	eb 0e 28 01                   	mov.l	r14, 1184[r0]
    1f24:	61 7e                         	cmp	#7, r14
    1f26:	2b 05                         	ble.b	1f2b <.LM284>
    1f28:	38 94 02                      	bra.w	21bc <.LM330>

00001f2b <.LM284>:
    1f2b:	62 86                         	add	#8, r6
    1f2d:	fc 13 00                      	nop

00001f30 <.LM285>:
    1f30:	ee 07 29 01                   	mov.l	1188[r0], r7
    1f34:	ee 0b 41 01                   	mov.l	1284[r0], r11
    1f38:	72 0a af 04                   	add	#0x4af, r0, r10
    1f3c:	06 8a 07 41 01                	add	1284[r0].l, r7
    1f41:	62 1e                         	add	#1, r14
    1f43:	e3 6a                         	mov.l	r10, [r6]
    1f45:	e7 6b 01                      	mov.l	r11, 4[r6]
    1f48:	eb 07 29 01                   	mov.l	r7, 1188[r0]

00001f4c <.LVL221>:
    1f4c:	eb 0e 28 01                   	mov.l	r14, 1184[r0]
    1f50:	61 7e                         	cmp	#7, r14
    1f52:	2a 05                         	bgt.b	1f57 <.LVL222>
    1f54:	38 36 02                      	bra.w	218a <.LM327>

00001f57 <.LVL222>:
    1f57:	03                            	nop

00001f58 <.LM286>:
    1f58:	ee 01 39 01                   	mov.l	1252[r0], r1
    1f5c:	fb 3a 9c 04                   	mov.l	#0x49c, r3
    1f60:	4b 03                         	add	r0, r3
    1f62:	ef 92                         	mov.l	r9, r2
    1f64:	05 d4 35 00                   	bsr.a	5538 <___sprint_r>

00001f68 <.LVL223>:
    1f68:	61 01                         	cmp	#0, r1
    1f6a:	3b 76 fa                      	bne.w	19e0 <.L18>

00001f6d <.LM287>:
    1f6d:	66 cf                         	mov.l	#12, r15
    1f6f:	4b 0f                         	add	r0, r15
    1f71:	38 7f f8                      	bra.w	17f0 <.LBE12>

00001f74 <.LM288>:
    1f74:	61 17                         	cmp	#1, r7
    1f76:	3a ff 02                      	beq.w	2275 <.LM346>
    1f79:	61 27                         	cmp	#2, r7
    1f7b:	3a cd 02                      	beq.w	2248 <.LM339>

00001f7e <.LM289>:
    1f7e:	fb da 9b 04                   	mov.l	#0x49b, r13
    1f82:	4b 0d                         	add	r0, r13

00001f84 <.LM290>:
    1f84:	ef 8c                         	mov.l	r8, r12

00001f86 <.LM291>:
    1f86:	fd dd be                      	shll	#29, r11, r14

00001f89 <.LM292>:
    1f89:	64 7c                         	and	#7, r12

00001f8b <.LM293>:
    1f8b:	68 38                         	shlr	#3, r8

00001f8d <.LM294>:
    1f8d:	71 cc 30                      	add	#48, r12, r12

00001f90 <.LM295>:
    1f90:	57 e8                         	or	r14, r8
    1f92:	68 3b                         	shlr	#3, r11

00001f94 <.LM296>:
    1f94:	ef d7                         	mov.l	r13, r7

00001f96 <.LVL227>:
    1f96:	c3 dc                         	mov.b	r12, [r13]

00001f98 <.LM297>:
    1f98:	ff 5e b8                      	or	r11, r8, r14
    1f9b:	60 1d                         	sub	#1, r13
    1f9d:	61 0e                         	cmp	#0, r14
    1f9f:	21 e5                         	bne.b	1f84 <.LM290>

00001fa1 <.LM298>:
    1fa1:	ee 0e 34 01                   	mov.l	1232[r0], r14

00001fa5 <.LM299>:
    1fa5:	ef 7b                         	mov.l	r7, r11

00001fa7 <.LM300>:
    1fa7:	fd 74 ce 01                   	tst	#1, r14
    1fab:	20 0f                         	beq.b	1fba <.LM302+0x7>

00001fad <.LM301>:
    1fad:	5b cc                         	movu.b	r12, r12
    1faf:	75 5c 30                      	cmp	#48, r12
    1fb2:	10                            	beq.s	1fba <.LM302+0x7>

00001fb3 <.LM302>:
    1fb3:	60 1b                         	sub	#1, r11
    1fb5:	ef d7                         	mov.l	r13, r7
    1fb7:	f8 b4 30                      	mov.b	#48, [r11]
    1fba:	ee 0b 32 01                   	mov.l	1224[r0], r11
    1fbe:	43 7b                         	sub	r7, r11
    1fc0:	38 e9 fa                      	bra.w	1aa9 <.LVL112>

00001fc3 <.LM303>:
    1fc3:	75 5a 65                      	cmp	#101, r10
    1fc6:	2a 05                         	bgt.b	1fcb <.LM304>
    1fc8:	38 d6 fe                      	bra.w	1e9e <.LM275>

00001fcb <.LM304>:
    1fcb:	ee 0e 40 01                   	mov.l	1280[r0], r14
    1fcf:	fd 72 1e 00 00 00 00          	fcmp	#0, r14
    1fd6:	3b 24 03                      	bne.w	22fa <.LM359>

00001fd9 <.LM305>:
    1fd9:	ee 0e 28 01                   	mov.l	1184[r0], r14
    1fdd:	ee 07 29 01                   	mov.l	1188[r0], r7
    1fe1:	62 1e                         	add	#1, r14
    1fe3:	62 17                         	add	#1, r7
    1fe5:	f8 f2 4f 78 00 00             	mov.l	#0x784f, [r15]
    1feb:	f9 f6 01 01                   	mov.l	#1, 4[r15]
    1fef:	eb 07 29 01                   	mov.l	r7, 1188[r0]

00001ff3 <.LVL231>:
    1ff3:	eb 0e 28 01                   	mov.l	r14, 1184[r0]
    1ff7:	61 7e                         	cmp	#7, r14
    1ff9:	2b 05                         	ble.b	1ffe <.LVL231+0xb>
    1ffb:	38 55 08                      	bra.w	2850 <.LBE18>
    1ffe:	62 8f                         	add	#8, r15

00002000 <.LM306>:
    2000:	ee 07 30 01                   	mov.l	1216[r0], r7
    2004:	06 86 07 3a 01                	cmp	1256[r0].l, r7
    2009:	29 0f                         	blt.b	2018 <.LM308>

0000200b <.LM307>:
    200b:	ee 07 34 01                   	mov.l	1232[r0], r7
    200f:	fd 74 c7 01                   	tst	#1, r7
    2013:	3a dd f7                      	beq.w	17f0 <.LBE12>
    2016:	ef 00                         	nop

00002018 <.LM308>:
    2018:	ee 0e 28 01                   	mov.l	1184[r0], r14
    201c:	ee 07 29 01                   	mov.l	1188[r0], r7
    2020:	ee 0a 3d 01                   	mov.l	1268[r0], r10
    2024:	ee 0b 3f 01                   	mov.l	1276[r0], r11
    2028:	06 8a 07 3f 01                	add	1276[r0].l, r7
    202d:	62 1e                         	add	#1, r14
    202f:	e3 fa                         	mov.l	r10, [r15]
    2031:	e7 fb 01                      	mov.l	r11, 4[r15]
    2034:	eb 07 29 01                   	mov.l	r7, 1188[r0]

00002038 <.LVL233>:
    2038:	eb 0e 28 01                   	mov.l	r14, 1184[r0]
    203c:	61 7e                         	cmp	#7, r14
    203e:	2b 05                         	ble.b	2043 <.LVL233+0xb>
    2040:	38 ea 09                      	bra.w	2a2a <.LM503>
    2043:	62 8f                         	add	#8, r15

00002045 <.LVL234>:
    2045:	fc 13 00                      	nop

00002048 <.LM309>:
    2048:	ee 0a 3a 01                   	mov.l	1256[r0], r10
    204c:	60 1a                         	sub	#1, r10

0000204e <.LVL235>:
    204e:	61 0a                         	cmp	#0, r10
    2050:	2a 05                         	bgt.b	2055 <.LM310>
    2052:	38 9e f7                      	bra.w	17f0 <.LBE12>

00002055 <.LM310>:
    2055:	75 5a 10                      	cmp	#16, r10
    2058:	ee 0e 28 01                   	mov.l	1184[r0], r14
    205c:	2a 05                         	bgt.b	2061 <.LM311>
    205e:	38 15 04                      	bra.w	2473 <.LBB15>

00002061 <.LM311>:
    2061:	fb 72 38 55 00 00             	mov.l	#0x5538, r7
    2067:	ee 0c 39 01                   	mov.l	1252[r0], r12
    206b:	2e 10                         	bra.b	207b <.LM313>

0000206d <.LVL236>:
    206d:	62 8f                         	add	#8, r15

0000206f <.LVL237>:
    206f:	03                            	nop

00002070 <.LM312>:
    2070:	71 aa f0                      	add	#-16, r10, r10
    2073:	75 5a 10                      	cmp	#16, r10
    2076:	2a 05                         	bgt.b	207b <.LM313>
    2078:	38 fb 03                      	bra.w	2473 <.LBB15>

0000207b <.LM313>:
    207b:	ee 0b 29 01                   	mov.l	1188[r0], r11
    207f:	62 1e                         	add	#1, r14
    2081:	71 bb 10                      	add	#16, r11, r11
    2084:	f8 f2 c8 79 00 00             	mov.l	#0x79c8, [r15]
    208a:	f9 f6 01 10                   	mov.l	#16, 4[r15]
    208e:	eb 0b 29 01                   	mov.l	r11, 1188[r0]

00002092 <.LVL239>:
    2092:	eb 0e 28 01                   	mov.l	r14, 1184[r0]
    2096:	61 7e                         	cmp	#7, r14
    2098:	2b d5                         	ble.b	206d <.LVL236>

0000209a <.LM314>:
    209a:	fb 3a 9c 04                   	mov.l	#0x49c, r3
    209e:	4b 03                         	add	r0, r3
    20a0:	ef c1                         	mov.l	r12, r1
    20a2:	ef 92                         	mov.l	r9, r2
    20a4:	7f 17                         	jsr	r7

000020a6 <.LVL240>:
    20a6:	61 01                         	cmp	#0, r1
    20a8:	3b 38 f9                      	bne.w	19e0 <.L18>

000020ab <.LM315>:
    20ab:	66 cf                         	mov.l	#12, r15
    20ad:	ee 0e 28 01                   	mov.l	1184[r0], r14
    20b1:	4b 0f                         	add	r0, r15
    20b3:	2e bd                         	bra.b	2070 <.LM312>

000020b5 <.LM316>:
    20b5:	ee 0d 37 01                   	mov.l	1244[r0], r13
    20b9:	06 82 0d 36 01                	sub	1240[r0].l, r13

000020be <.LVL242>:
    20be:	61 0d                         	cmp	#0, r13
    20c0:	2a 05                         	bgt.b	20c5 <.LM317>
    20c2:	38 70 f6                      	bra.w	1732 <.LM71>

000020c5 <.LM317>:
    20c5:	75 5d 10                      	cmp	#16, r13
    20c8:	ee 0e 28 01                   	mov.l	1184[r0], r14
    20cc:	2b 58                         	ble.b	2124 <.LM322>

000020ce <.LM318>:
    20ce:	fb c2 38 55 00 00             	mov.l	#0x5538, r12
    20d4:	ee 08 39 01                   	mov.l	1252[r0], r8
    20d8:	2e 0c                         	bra.b	20e4 <.LM319>

000020da <.LVL243>:
    20da:	62 8f                         	add	#8, r15

000020dc <.LVL244>:
    20dc:	71 dd f0                      	add	#-16, r13, r13
    20df:	75 5d 10                      	cmp	#16, r13
    20e2:	2b 42                         	ble.b	2124 <.LM322>

000020e4 <.LM319>:
    20e4:	ee 04 29 01                   	mov.l	1188[r0], r4
    20e8:	62 1e                         	add	#1, r14
    20ea:	71 44 10                      	add	#16, r4, r4
    20ed:	f8 f2 c8 79 00 00             	mov.l	#0x79c8, [r15]
    20f3:	f9 f6 01 10                   	mov.l	#16, 4[r15]
    20f7:	eb 04 29 01                   	mov.l	r4, 1188[r0]

000020fb <.LVL246>:
    20fb:	eb 0e 28 01                   	mov.l	r14, 1184[r0]
    20ff:	61 7e                         	cmp	#7, r14
    2101:	2b d9                         	ble.b	20da <.LVL243>

00002103 <.LM320>:
    2103:	fb 3a 9c 04                   	mov.l	#0x49c, r3
    2107:	4b 03                         	add	r0, r3
    2109:	ef 81                         	mov.l	r8, r1
    210b:	ef 92                         	mov.l	r9, r2
    210d:	7f 1c                         	jsr	r12

0000210f <.LVL247>:
    210f:	61 01                         	cmp	#0, r1
    2111:	3b cf f8                      	bne.w	19e0 <.L18>

00002114 <.LM321>:
    2114:	66 cf                         	mov.l	#12, r15
    2116:	4b 0f                         	add	r0, r15

00002118 <.LVL248>:
    2118:	71 dd f0                      	add	#-16, r13, r13
    211b:	75 5d 10                      	cmp	#16, r13
    211e:	ee 0e 28 01                   	mov.l	1184[r0], r14
    2122:	2a c2                         	bgt.b	20e4 <.LM319>

00002124 <.LM322>:
    2124:	ee 0c 29 01                   	mov.l	1188[r0], r12
    2128:	62 1e                         	add	#1, r14
    212a:	4b dc                         	add	r13, r12
    212c:	f8 f2 c8 79 00 00             	mov.l	#0x79c8, [r15]
    2132:	e7 fd 01                      	mov.l	r13, 4[r15]
    2135:	eb 0c 29 01                   	mov.l	r12, 1188[r0]

00002139 <.LVL250>:
    2139:	eb 0e 28 01                   	mov.l	r14, 1184[r0]
    213d:	61 7e                         	cmp	#7, r14
    213f:	2b 05                         	ble.b	2144 <.LM323>
    2141:	38 c0 04                      	bra.w	2601 <.LM409>

00002144 <.LM323>:
    2144:	62 8f                         	add	#8, r15

00002146 <.LVL251>:
    2146:	38 ec f5                      	bra.w	1732 <.LM71>

00002149 <.LM324>:
    2149:	ee 01 39 01                   	mov.l	1252[r0], r1
    214d:	fb 3a 9c 04                   	mov.l	#0x49c, r3
    2151:	4b 03                         	add	r0, r3
    2153:	ef 92                         	mov.l	r9, r2
    2155:	05 e3 33 00                   	bsr.a	5538 <___sprint_r>

00002159 <.LVL253>:
    2159:	61 01                         	cmp	#0, r1
    215b:	3b 85 f8                      	bne.w	19e0 <.L18>

0000215e <.LM325>:
    215e:	66 c6                         	mov.l	#12, r6

00002160 <.LVL254>:
    2160:	ee 0e 28 01                   	mov.l	1184[r0], r14
    2164:	4b 06                         	add	r0, r6
    2166:	ef 00                         	nop

00002168 <.LM326>:
    2168:	ee 0a 29 01                   	mov.l	1188[r0], r10
    216c:	e3 67                         	mov.l	r7, [r6]
    216e:	ee 07 3a 01                   	mov.l	1256[r0], r7
    2172:	62 1e                         	add	#1, r14
    2174:	06 8a 0a 3a 01                	add	1256[r0].l, r10
    2179:	a0 6f                         	mov.l	r7, 4[r6]
    217b:	eb 0a 29 01                   	mov.l	r10, 1188[r0]

0000217f <.LVL256>:
    217f:	eb 0e 28 01                   	mov.l	r14, 1184[r0]
    2183:	61 7e                         	cmp	#7, r14
    2185:	2b 05                         	ble.b	218a <.LM327>
    2187:	38 d1 fd                      	bra.w	1f58 <.LM286>

0000218a <.LM327>:
    218a:	71 6f 08                      	add	#8, r6, r15
    218d:	38 63 f6                      	bra.w	17f0 <.LBE12>

00002190 <.LM328>:
    2190:	ee 0b 34 01                   	mov.l	1232[r0], r11
    2194:	fd 74 cb 01                   	tst	#1, r11
    2198:	3b 11 fd                      	bne.w	1ea9 <.LM276>

0000219b <.LM329>:
    219b:	ee 0e 28 01                   	mov.l	1184[r0], r14
    219f:	ee 0a 29 01                   	mov.l	1188[r0], r10
    21a3:	62 1e                         	add	#1, r14
    21a5:	62 1a                         	add	#1, r10
    21a7:	e3 f7                         	mov.l	r7, [r15]
    21a9:	f9 f6 01 01                   	mov.l	#1, 4[r15]
    21ad:	eb 0a 29 01                   	mov.l	r10, 1188[r0]

000021b1 <.LVL259>:
    21b1:	eb 0e 28 01                   	mov.l	r14, 1184[r0]
    21b5:	61 7e                         	cmp	#7, r14
    21b7:	2a 05                         	bgt.b	21bc <.LM330>
    21b9:	38 38 08                      	bra.w	29f1 <.LM497>

000021bc <.LM330>:
    21bc:	ee 01 39 01                   	mov.l	1252[r0], r1
    21c0:	fb 3a 9c 04                   	mov.l	#0x49c, r3
    21c4:	4b 03                         	add	r0, r3
    21c6:	ef 92                         	mov.l	r9, r2
    21c8:	05 70 33 00                   	bsr.a	5538 <___sprint_r>

000021cc <.LVL261>:
    21cc:	61 01                         	cmp	#0, r1
    21ce:	3b 12 f8                      	bne.w	19e0 <.L18>

000021d1 <.LM331>:
    21d1:	66 c6                         	mov.l	#12, r6
    21d3:	4b 06                         	add	r0, r6
    21d5:	ee 0e 28 01                   	mov.l	1184[r0], r14
    21d9:	38 57 fd                      	bra.w	1f30 <.LM285>

000021dc <.LM332>:
    21dc:	ee 01 39 01                   	mov.l	1252[r0], r1
    21e0:	fb 3a 9c 04                   	mov.l	#0x49c, r3
    21e4:	4b 03                         	add	r0, r3
    21e6:	ef 92                         	mov.l	r9, r2
    21e8:	05 50 33 00                   	bsr.a	5538 <___sprint_r>

000021ec <.LVL263>:
    21ec:	61 01                         	cmp	#0, r1
    21ee:	3a ca f6                      	beq.w	18b8 <.LM93>
    21f1:	38 ef f7                      	bra.w	19e0 <.L18>

000021f4 <.LM333>:
    21f4:	ee 01 39 01                   	mov.l	1252[r0], r1
    21f8:	fb 3a 9c 04                   	mov.l	#0x49c, r3
    21fc:	4b 03                         	add	r0, r3
    21fe:	ef 92                         	mov.l	r9, r2
    2200:	05 38 33 00                   	bsr.a	5538 <___sprint_r>

00002204 <.LVL265>:
    2204:	61 01                         	cmp	#0, r1
    2206:	3b da f7                      	bne.w	19e0 <.L18>

00002209 <.LM334>:
    2209:	66 cf                         	mov.l	#12, r15
    220b:	4b 0f                         	add	r0, r15
    220d:	38 b5 f5                      	bra.w	17c2 <.LM79>

00002210 <.LM335>:
    2210:	ee 01 39 01                   	mov.l	1252[r0], r1
    2214:	fb 3a 9c 04                   	mov.l	#0x49c, r3
    2218:	4b 03                         	add	r0, r3
    221a:	ef 92                         	mov.l	r9, r2
    221c:	05 1c 33 00                   	bsr.a	5538 <___sprint_r>

00002220 <.LVL267>:
    2220:	61 01                         	cmp	#0, r1
    2222:	3b be f7                      	bne.w	19e0 <.L18>

00002225 <.LM336>:
    2225:	66 cf                         	mov.l	#12, r15
    2227:	4b 0f                         	add	r0, r15
    2229:	38 03 f5                      	bra.w	172c <.LM70>

0000222c <.LM337>:
    222c:	ee 01 39 01                   	mov.l	1252[r0], r1
    2230:	fb 3a 9c 04                   	mov.l	#0x49c, r3
    2234:	4b 03                         	add	r0, r3
    2236:	ef 92                         	mov.l	r9, r2
    2238:	05 00 33 00                   	bsr.a	5538 <___sprint_r>

0000223c <.LVL269>:
    223c:	61 01                         	cmp	#0, r1
    223e:	3b a2 f7                      	bne.w	19e0 <.L18>

00002241 <.LM338>:
    2241:	66 cf                         	mov.l	#12, r15
    2243:	4b 0f                         	add	r0, r15
    2245:	38 bc f4                      	bra.w	1701 <.LM68>

00002248 <.LM339>:
    2248:	fb ca 9b 04                   	mov.l	#0x49b, r12
    224c:	ee 04 42 01                   	mov.l	1288[r0], r4
    2250:	4b 0c                         	add	r0, r12

00002252 <.LM340>:
    2252:	ef c7                         	mov.l	r12, r7

00002254 <.LVL272>:
    2254:	ef 8c                         	mov.l	r8, r12
    2256:	64 fc                         	and	#15, r12

00002258 <.LM341>:
    2258:	fd dc be                      	shll	#28, r11, r14
    225b:	fd 84 8d                      	shlr	#4, r8, r13

0000225e <.LM342>:
    225e:	fe 4c 4c                      	mov.b	[r12, r4], r12

00002261 <.LM343>:
    2261:	68 4b                         	shlr	#4, r11

00002263 <.LVL273>:
    2263:	ff 58 de                      	or	r13, r14, r8

00002266 <.LM344>:
    2266:	c3 7c                         	mov.b	r12, [r7]

00002268 <.LM345>:
    2268:	ff 5d b8                      	or	r11, r8, r13
    226b:	71 7c ff                      	add	#-1, r7, r12
    226e:	61 0d                         	cmp	#0, r13
    2270:	21 e2                         	bne.b	2252 <.LM340>
    2272:	38 48 fd                      	bra.w	1fba <.LM302+0x7>

00002275 <.LM346>:
    2275:	61 0b                         	cmp	#0, r11
    2277:	1d                            	bne.s	227c <.LM347>
    2278:	61 98                         	cmp	#9, r8
    227a:	25 5c                         	bleu.b	22d6 <.LM353>

0000227c <.LM347>:
    227c:	fb ea 9b 04                   	mov.l	#0x49b, r14
    2280:	eb 0a 36 01                   	mov.l	r10, 1240[r0]
    2284:	4b 0e                         	add	r0, r14
    2286:	ef 8a                         	mov.l	r8, r10

00002288 <.LVL276>:
    2288:	fb d2 40 74 00 00             	mov.l	#0x7440, r13
    228e:	fb c2 70 70 00 00             	mov.l	#0x7070, r12
    2294:	eb 0f 3c 01                   	mov.l	r15, 1264[r0]
    2298:	ef 58                         	mov.l	r5, r8

0000229a <.LM348>:
    229a:	ef a1                         	mov.l	r10, r1
    229c:	ef b2                         	mov.l	r11, r2
    229e:	66 a3                         	mov.l	#10, r3
    22a0:	66 04                         	mov.l	#0, r4
    22a2:	ef e7                         	mov.l	r14, r7

000022a4 <.LVL278>:
    22a4:	7f 1d                         	jsr	r13
    22a6:	71 11 30                      	add	#48, r1, r1
    22a9:	c3 71                         	mov.b	r1, [r7]

000022ab <.LM349>:
    22ab:	ef b2                         	mov.l	r11, r2
    22ad:	ef a1                         	mov.l	r10, r1
    22af:	66 04                         	mov.l	#0, r4
    22b1:	66 a3                         	mov.l	#10, r3
    22b3:	7f 1c                         	jsr	r12

000022b5 <.LM350>:
    22b5:	ff 54 21                      	or	r2, r1, r4
    22b8:	71 7e ff                      	add	#-1, r7, r14
    22bb:	61 04                         	cmp	#0, r4

000022bd <.LM351>:
    22bd:	ef 1a                         	mov.l	r1, r10

000022bf <.LVL281>:
    22bf:	ef 2b                         	mov.l	r2, r11

000022c1 <.LM352>:
    22c1:	21 d9                         	bne.b	229a <.LM348>
    22c3:	ee 0b 32 01                   	mov.l	1224[r0], r11
    22c7:	ee 0a 36 01                   	mov.l	1240[r0], r10
    22cb:	ee 0f 3c 01                   	mov.l	1264[r0], r15
    22cf:	ef 85                         	mov.l	r8, r5
    22d1:	43 7b                         	sub	r7, r11
    22d3:	38 d6 f7                      	bra.w	1aa9 <.LVL112>

000022d6 <.LM353>:
    22d6:	71 88 30                      	add	#48, r8, r8

000022d9 <.LVL284>:
    22d9:	fb 7a 9b 04                   	mov.l	#0x49b, r7

000022dd <.LVL285>:
    22dd:	cb 08 9b 04                   	mov.b	r8, 1179[r0]
    22e1:	ee 0b 44 01                   	mov.l	1296[r0], r11
    22e5:	4b 07                         	add	r0, r7

000022e7 <.LM354>:
    22e7:	38 c2 f7                      	bra.w	1aa9 <.LVL112>

000022ea <.LM355>:
    22ea:	fb 7a 9c 04                   	mov.l	#0x49c, r7

000022ee <.LM356>:
    22ee:	ef 5b                         	mov.l	r5, r11

000022f0 <.LM357>:
    22f0:	4b 07                         	add	r0, r7
    22f2:	38 b7 f7                      	bra.w	1aa9 <.LVL112>

000022f5 <.LM358>:
    22f5:	66 27                         	mov.l	#2, r7
    22f7:	38 a9 f8                      	bra.w	1ba0 <.L123>

000022fa <.LM359>:
    22fa:	ee 0b 30 01                   	mov.l	1216[r0], r11
    22fe:	61 0b                         	cmp	#0, r11
    2300:	2a 05                         	bgt.b	2305 <.LVL292>
    2302:	38 6a 05                      	bra.w	286c <.LM467>

00002305 <.LVL292>:
    2305:	ee 0c 3a 01                   	mov.l	1256[r0], r12

00002309 <.LBB14>:
    2309:	ee 0b 3a 01                   	mov.l	1256[r0], r11
    230d:	06 a2 05 0c 3e 01             	min	1272[r0].l, r12
    2313:	4b 7b                         	add	r7, r11

00002315 <.LVL293>:
    2315:	61 0c                         	cmp	#0, r12
    2317:	2b 24                         	ble.b	233b <.LM363>

00002319 <.LM361>:
    2319:	ee 0e 28 01                   	mov.l	1184[r0], r14
    231d:	ee 0a 29 01                   	mov.l	1188[r0], r10
    2321:	62 1e                         	add	#1, r14
    2323:	4b ca                         	add	r12, r10
    2325:	e3 f7                         	mov.l	r7, [r15]
    2327:	e7 fc 01                      	mov.l	r12, 4[r15]
    232a:	eb 0a 29 01                   	mov.l	r10, 1188[r0]

0000232e <.LVL294>:
    232e:	eb 0e 28 01                   	mov.l	r14, 1184[r0]
    2332:	61 7e                         	cmp	#7, r14
    2334:	2b 05                         	ble.b	2339 <.LM362>
    2336:	38 3c 07                      	bra.w	2a72 <.LBB19>

00002339 <.LM362>:
    2339:	62 8f                         	add	#8, r15

0000233b <.LM363>:
    233b:	ee 0a 3e 01                   	mov.l	1272[r0], r10
    233f:	fd 74 4c 00                   	max	#0, r12

00002343 <.LVL296>:
    2343:	ff 0c ca                      	sub	r12, r10, r12

00002346 <.LVL297>:
    2346:	61 0c                         	cmp	#0, r12
    2348:	2a 05                         	bgt.b	234d <.LM364>
    234a:	38 66 01                      	bra.w	24b0 <.LBE16>

0000234d <.LM364>:
    234d:	75 5c 10                      	cmp	#16, r12
    2350:	ee 0e 28 01                   	mov.l	1184[r0], r14
    2354:	2a 05                         	bgt.b	2359 <.LM365>
    2356:	38 d5 04                      	bra.w	282b <.LBB18>

00002359 <.LM365>:
    2359:	fb a2 38 55 00 00             	mov.l	#0x5538, r10
    235f:	ee 0d 39 01                   	mov.l	1252[r0], r13
    2363:	2e 10                         	bra.b	2373 <.LM367>

00002365 <.LVL298>:
    2365:	62 8f                         	add	#8, r15

00002367 <.LVL299>:
    2367:	03                            	nop

00002368 <.LM366>:
    2368:	71 cc f0                      	add	#-16, r12, r12
    236b:	75 5c 10                      	cmp	#16, r12
    236e:	2a 05                         	bgt.b	2373 <.LM367>
    2370:	38 bb 04                      	bra.w	282b <.LBB18>

00002373 <.LM367>:
    2373:	ee 04 29 01                   	mov.l	1188[r0], r4
    2377:	62 1e                         	add	#1, r14
    2379:	71 44 10                      	add	#16, r4, r4
    237c:	f8 f2 c8 79 00 00             	mov.l	#0x79c8, [r15]
    2382:	f9 f6 01 10                   	mov.l	#16, 4[r15]
    2386:	eb 04 29 01                   	mov.l	r4, 1188[r0]

0000238a <.LVL301>:
    238a:	eb 0e 28 01                   	mov.l	r14, 1184[r0]
    238e:	61 7e                         	cmp	#7, r14
    2390:	2b d5                         	ble.b	2365 <.LVL298>

00002392 <.LM368>:
    2392:	fb 3a 9c 04                   	mov.l	#0x49c, r3
    2396:	4b 03                         	add	r0, r3
    2398:	ef d1                         	mov.l	r13, r1
    239a:	ef 92                         	mov.l	r9, r2
    239c:	7f 1a                         	jsr	r10

0000239e <.LVL302>:
    239e:	61 01                         	cmp	#0, r1
    23a0:	3b 40 f6                      	bne.w	19e0 <.L18>

000023a3 <.LM369>:
    23a3:	66 cf                         	mov.l	#12, r15
    23a5:	ee 0e 28 01                   	mov.l	1184[r0], r14
    23a9:	4b 0f                         	add	r0, r15
    23ab:	2e bd                         	bra.b	2368 <.LM366>

000023ad <.LBE14>:
    23ad:	ee 01 39 01                   	mov.l	1252[r0], r1
    23b1:	fb 3a 9c 04                   	mov.l	#0x49c, r3
    23b5:	4b 03                         	add	r0, r3
    23b7:	ef 92                         	mov.l	r9, r2
    23b9:	05 7f 31 00                   	bsr.a	5538 <___sprint_r>

000023bd <.LVL304>:
    23bd:	61 01                         	cmp	#0, r1
    23bf:	3b 21 f6                      	bne.w	19e0 <.L18>

000023c2 <.LM371>:
    23c2:	66 cf                         	mov.l	#12, r15
    23c4:	5a 06 c6 04                   	movu.b	1222[r0], r6
    23c8:	4b 0f                         	add	r0, r15
    23ca:	38 0c f3                      	bra.w	16d6 <.LM66>

000023cd <.LM372>:
    23cd:	60 1a                         	sub	#1, r10

000023cf <.LVL306>:
    23cf:	61 0a                         	cmp	#0, r10
    23d1:	2a 05                         	bgt.b	23d6 <.LM373>
    23d3:	38 5d fb                      	bra.w	1f30 <.LM285>

000023d6 <.LM373>:
    23d6:	75 5a 10                      	cmp	#16, r10
    23d9:	2a 05                         	bgt.b	23de <.LM374>
    23db:	38 03 02                      	bra.w	25de <.LM408>

000023de <.LM374>:
    23de:	fb 72 38 55 00 00             	mov.l	#0x5538, r7

000023e4 <.LVL307>:
    23e4:	ee 0c 39 01                   	mov.l	1252[r0], r12
    23e8:	2e 10                         	bra.b	23f8 <.LM377>

000023ea <.LM375>:
    23ea:	62 86                         	add	#8, r6

000023ec <.LM376>:
    23ec:	71 aa f0                      	add	#-16, r10, r10
    23ef:	75 5a 10                      	cmp	#16, r10
    23f2:	2a 05                         	bgt.b	23f7 <.LM376+0xb>
    23f4:	38 ea 01                      	bra.w	25de <.LM408>
    23f7:	03                            	nop

000023f8 <.LM377>:
    23f8:	ee 0b 29 01                   	mov.l	1188[r0], r11
    23fc:	62 1e                         	add	#1, r14
    23fe:	71 bb 10                      	add	#16, r11, r11
    2401:	f8 62 c8 79 00 00             	mov.l	#0x79c8, [r6]
    2407:	3e 61 10                      	mov.l	#16, 4[r6]
    240a:	eb 0b 29 01                   	mov.l	r11, 1188[r0]

0000240e <.LVL311>:
    240e:	eb 0e 28 01                   	mov.l	r14, 1184[r0]
    2412:	61 7e                         	cmp	#7, r14
    2414:	2b d6                         	ble.b	23ea <.LM375>

00002416 <.LM378>:
    2416:	fb 3a 9c 04                   	mov.l	#0x49c, r3
    241a:	4b 03                         	add	r0, r3
    241c:	ef c1                         	mov.l	r12, r1
    241e:	ef 92                         	mov.l	r9, r2
    2420:	7f 17                         	jsr	r7

00002422 <.LVL312>:
    2422:	61 01                         	cmp	#0, r1
    2424:	3b bc f5                      	bne.w	19e0 <.L18>

00002427 <.LM379>:
    2427:	66 c6                         	mov.l	#12, r6

00002429 <.LVL313>:
    2429:	ee 0e 28 01                   	mov.l	1184[r0], r14
    242d:	4b 06                         	add	r0, r6
    242f:	2e bd                         	bra.b	23ec <.LM376>

00002431 <.LM380>:
    2431:	ee 07 34 01                   	mov.l	1232[r0], r7

00002435 <.LVL315>:
    2435:	75 27 10                      	and	#16, r7
    2438:	3a 8b 03                      	beq.w	27c3 <.LM456>

0000243b <.LM381>:
    243b:	ee 07 3b 01                   	mov.l	1260[r0], r7
    243f:	62 37                         	add	#3, r7
    2441:	75 27 fc                      	and	#-4, r7
    2444:	71 7c 04                      	add	#4, r7, r12
    2447:	eb 0c 3b 01                   	mov.l	r12, 1260[r0]

0000244b <.LVL316>:
    244b:	ec 78                         	mov.l	[r7], r8

0000244d <.LM382>:
    244d:	cf b7                         	mov.b	r11, r7
    244f:	38 51 f7                      	bra.w	1ba0 <.L123>

00002452 <.LM383>:
    2452:	ee 07 34 01                   	mov.l	1232[r0], r7
    2456:	75 27 10                      	and	#16, r7
    2459:	3a af 03                      	beq.w	2808 <.LM460>

0000245c <.LM384>:
    245c:	ee 07 3b 01                   	mov.l	1260[r0], r7
    2460:	62 37                         	add	#3, r7
    2462:	75 27 fc                      	and	#-4, r7
    2465:	71 7c 04                      	add	#4, r7, r12
    2468:	eb 0c 3b 01                   	mov.l	r12, 1260[r0]

0000246c <.LVL318>:
    246c:	ec 78                         	mov.l	[r7], r8

0000246e <.LM385>:
    246e:	66 17                         	mov.l	#1, r7
    2470:	38 30 f7                      	bra.w	1ba0 <.L123>

00002473 <.LBB15>:
    2473:	ee 07 29 01                   	mov.l	1188[r0], r7
    2477:	62 1e                         	add	#1, r14
    2479:	4b a7                         	add	r10, r7
    247b:	f8 f2 c8 79 00 00             	mov.l	#0x79c8, [r15]
    2481:	e7 fa 01                      	mov.l	r10, 4[r15]
    2484:	eb 07 29 01                   	mov.l	r7, 1188[r0]

00002488 <.LVL320>:
    2488:	eb 0e 28 01                   	mov.l	r14, 1184[r0]
    248c:	61 7e                         	cmp	#7, r14
    248e:	2a 05                         	bgt.b	2493 <.LVL320+0xb>
    2490:	38 5e f3                      	bra.w	17ee <.LBB12>
    2493:	38 c5 fa                      	bra.w	1f58 <.LM286>

00002496 <.LBB16>:
    2496:	ee 01 39 01                   	mov.l	1252[r0], r1
    249a:	fb 3a 9c 04                   	mov.l	#0x49c, r3
    249e:	4b 03                         	add	r0, r3
    24a0:	ef 92                         	mov.l	r9, r2
    24a2:	05 96 30 00                   	bsr.a	5538 <___sprint_r>

000024a6 <.LVL322>:
    24a6:	61 01                         	cmp	#0, r1
    24a8:	3b 38 f5                      	bne.w	19e0 <.L18>

000024ab <.LM388>:
    24ab:	66 cf                         	mov.l	#12, r15
    24ad:	4b 0f                         	add	r0, r15
    24af:	03                            	nop

000024b0 <.LBE16>:
    24b0:	ee 0a 30 01                   	mov.l	1216[r0], r10

000024b4 <.LM390>:
    24b4:	06 8a 07 3e 01                	add	1272[r0].l, r7

000024b9 <.LM391>:
    24b9:	06 86 0a 3a 01                	cmp	1256[r0].l, r10
    24be:	28 05                         	bge.b	24c3 <.LM392>
    24c0:	38 ae 00                      	bra.w	256e <.LBE17>

000024c3 <.LM392>:
    24c3:	ee 0c 34 01                   	mov.l	1232[r0], r12

000024c7 <.LVL325>:
    24c7:	fd 74 cc 01                   	tst	#1, r12
    24cb:	3b a3 00                      	bne.w	256e <.LBE17>
    24ce:	ef 00                         	nop

000024d0 <.LBB17>:
    24d0:	ee 0e 3a 01                   	mov.l	1256[r0], r14
    24d4:	43 7b                         	sub	r7, r11

000024d6 <.LVL327>:
    24d6:	ff 0a ae                      	sub	r10, r14, r10
    24d9:	fc 17 ab                      	min	r10, r11
    24dc:	61 0b                         	cmp	#0, r11
    24de:	2b 24                         	ble.b	2502 <.LM396>

000024e0 <.LM394>:
    24e0:	ee 0e 28 01                   	mov.l	1184[r0], r14
    24e4:	ee 0c 29 01                   	mov.l	1188[r0], r12
    24e8:	62 1e                         	add	#1, r14
    24ea:	4b bc                         	add	r11, r12
    24ec:	e3 f7                         	mov.l	r7, [r15]
    24ee:	e7 fb 01                      	mov.l	r11, 4[r15]
    24f1:	eb 0c 29 01                   	mov.l	r12, 1188[r0]

000024f5 <.LVL329>:
    24f5:	eb 0e 28 01                   	mov.l	r14, 1184[r0]
    24f9:	61 7e                         	cmp	#7, r14
    24fb:	2b 05                         	ble.b	2500 <.LM395>
    24fd:	38 00 06                      	bra.w	2afd <.LBB20>

00002500 <.LM395>:
    2500:	62 8f                         	add	#8, r15

00002502 <.LM396>:
    2502:	fd 74 4b 00                   	max	#0, r11

00002506 <.LVL331>:
    2506:	43 ba                         	sub	r11, r10

00002508 <.LVL332>:
    2508:	61 0a                         	cmp	#0, r10
    250a:	2a 05                         	bgt.b	250f <.LM397>
    250c:	38 e4 f2                      	bra.w	17f0 <.LBE12>

0000250f <.LM397>:
    250f:	75 5a 10                      	cmp	#16, r10
    2512:	ee 0e 28 01                   	mov.l	1184[r0], r14
    2516:	2a 05                         	bgt.b	251b <.LM398>
    2518:	38 5b ff                      	bra.w	2473 <.LBB15>

0000251b <.LM398>:
    251b:	fb 72 38 55 00 00             	mov.l	#0x5538, r7

00002521 <.LVL333>:
    2521:	ee 0c 39 01                   	mov.l	1252[r0], r12
    2525:	2e 0f                         	bra.b	2534 <.LM400>

00002527 <.LVL334>:
    2527:	62 8f                         	add	#8, r15

00002529 <.LM399>:
    2529:	71 aa f0                      	add	#-16, r10, r10
    252c:	75 5a 10                      	cmp	#16, r10
    252f:	2a 05                         	bgt.b	2534 <.LM400>
    2531:	38 42 ff                      	bra.w	2473 <.LBB15>

00002534 <.LM400>:
    2534:	ee 0b 29 01                   	mov.l	1188[r0], r11
    2538:	62 1e                         	add	#1, r14
    253a:	71 bb 10                      	add	#16, r11, r11
    253d:	f8 f2 c8 79 00 00             	mov.l	#0x79c8, [r15]
    2543:	f9 f6 01 10                   	mov.l	#16, 4[r15]
    2547:	eb 0b 29 01                   	mov.l	r11, 1188[r0]

0000254b <.LVL337>:
    254b:	eb 0e 28 01                   	mov.l	r14, 1184[r0]
    254f:	61 7e                         	cmp	#7, r14
    2551:	2b d6                         	ble.b	2527 <.LVL334>

00002553 <.LM401>:
    2553:	fb 3a 9c 04                   	mov.l	#0x49c, r3
    2557:	4b 03                         	add	r0, r3
    2559:	ef c1                         	mov.l	r12, r1
    255b:	ef 92                         	mov.l	r9, r2
    255d:	7f 17                         	jsr	r7

0000255f <.LVL338>:
    255f:	61 01                         	cmp	#0, r1
    2561:	3b 7f f4                      	bne.w	19e0 <.L18>

00002564 <.LM402>:
    2564:	66 cf                         	mov.l	#12, r15
    2566:	ee 0e 28 01                   	mov.l	1184[r0], r14
    256a:	4b 0f                         	add	r0, r15
    256c:	2e bd                         	bra.b	2529 <.LM399>

0000256e <.LBE17>:
    256e:	ee 0d 3d 01                   	mov.l	1268[r0], r13
    2572:	ee 0e 28 01                   	mov.l	1184[r0], r14
    2576:	ee 0c 29 01                   	mov.l	1188[r0], r12
    257a:	e3 fd                         	mov.l	r13, [r15]
    257c:	ee 0d 3f 01                   	mov.l	1276[r0], r13
    2580:	06 8a 0c 3f 01                	add	1276[r0].l, r12
    2585:	62 1e                         	add	#1, r14
    2587:	e7 fd 01                      	mov.l	r13, 4[r15]
    258a:	eb 0c 29 01                   	mov.l	r12, 1188[r0]

0000258e <.LVL340>:
    258e:	eb 0e 28 01                   	mov.l	r14, 1184[r0]
    2592:	61 7e                         	cmp	#7, r14
    2594:	2b 05                         	ble.b	2599 <.LVL340+0xb>
    2596:	38 1d 05                      	bra.w	2ab3 <.LBB41>
    2599:	62 8f                         	add	#8, r15

0000259b <.LVL341>:
    259b:	38 35 ff                      	bra.w	24d0 <.LBB17>

0000259e <.LBE29>:
    259e:	ee 01 39 01                   	mov.l	1252[r0], r1
    25a2:	fb 3a 9c 04                   	mov.l	#0x49c, r3
    25a6:	4b 03                         	add	r0, r3
    25a8:	ef 92                         	mov.l	r9, r2
    25aa:	05 8e 2f 00                   	bsr.a	5538 <___sprint_r>

000025ae <.LVL343>:
    25ae:	61 01                         	cmp	#0, r1
    25b0:	3b 30 f4                      	bne.w	19e0 <.L18>

000025b3 <.LM405>:
    25b3:	66 c6                         	mov.l	#12, r6
    25b5:	ee 0e 28 01                   	mov.l	1184[r0], r14
    25b9:	4b 06                         	add	r0, r6
    25bb:	38 15 f9                      	bra.w	1ed0 <.LM277>

000025be <.LM406>:
    25be:	ee 01 39 01                   	mov.l	1252[r0], r1
    25c2:	fb 3a 9c 04                   	mov.l	#0x49c, r3
    25c6:	4b 03                         	add	r0, r3
    25c8:	ef 92                         	mov.l	r9, r2
    25ca:	05 6e 2f 00                   	bsr.a	5538 <___sprint_r>

000025ce <.LVL345>:
    25ce:	61 01                         	cmp	#0, r1
    25d0:	3b 10 f4                      	bne.w	19e0 <.L18>

000025d3 <.LM407>:
    25d3:	66 c6                         	mov.l	#12, r6

000025d5 <.LVL346>:
    25d5:	ee 0e 28 01                   	mov.l	1184[r0], r14
    25d9:	4b 06                         	add	r0, r6
    25db:	38 1e f9                      	bra.w	1ef9 <.LM278>

000025de <.LM408>:
    25de:	ee 07 29 01                   	mov.l	1188[r0], r7
    25e2:	62 1e                         	add	#1, r14
    25e4:	4b a7                         	add	r10, r7
    25e6:	f8 62 c8 79 00 00             	mov.l	#0x79c8, [r6]
    25ec:	e7 6a 01                      	mov.l	r10, 4[r6]
    25ef:	eb 07 29 01                   	mov.l	r7, 1188[r0]

000025f3 <.LVL348>:
    25f3:	eb 0e 28 01                   	mov.l	r14, 1184[r0]
    25f7:	61 7e                         	cmp	#7, r14
    25f9:	2a 05                         	bgt.b	25fe <.LVL348+0xb>
    25fb:	38 30 f9                      	bra.w	1f2b <.LM284>
    25fe:	38 be fb                      	bra.w	21bc <.LM330>

00002601 <.LM409>:
    2601:	ee 01 39 01                   	mov.l	1252[r0], r1
    2605:	fb 3a 9c 04                   	mov.l	#0x49c, r3
    2609:	4b 03                         	add	r0, r3
    260b:	ef 92                         	mov.l	r9, r2
    260d:	05 2b 2f 00                   	bsr.a	5538 <___sprint_r>

00002611 <.LVL350>:
    2611:	61 01                         	cmp	#0, r1
    2613:	3b cd f3                      	bne.w	19e0 <.L18>

00002616 <.LM410>:
    2616:	66 cf                         	mov.l	#12, r15
    2618:	4b 0f                         	add	r0, r15
    261a:	38 18 f1                      	bra.w	1732 <.LM71>

0000261d <.LM411>:
    261d:	66 07                         	mov.l	#0, r7
    261f:	ff 0c 87                      	sub	r8, r7, r12
    2622:	fc 03 b7                      	sbb	r11, r7
    2625:	ef 7b                         	mov.l	r7, r11

00002627 <.LVL352>:
    2627:	ef c8                         	mov.l	r12, r8

00002629 <.LM412>:
    2629:	fa 04 c6 04 2d                	mov.b	#45, 1222[r0]
    262e:	75 46 2d                      	mov.l	#45, r6

00002631 <.LM413>:
    2631:	66 17                         	mov.l	#1, r7

00002633 <.LVL354>:
    2633:	38 3a f4                      	bra.w	1a6d <.L71>

00002636 <.LM414>:
    2636:	eb 05 45 01                   	mov.l	r5, 1300[r0]
    263a:	eb 0f 46 01                   	mov.l	r15, 1304[r0]
    263e:	ef b1                         	mov.l	r11, r1
    2640:	7f 17                         	jsr	r7

00002642 <.LVL356>:
    2642:	61 01                         	cmp	#0, r1
    2644:	ee 05 45 01                   	mov.l	1300[r0], r5
    2648:	ee 0f 46 01                   	mov.l	1304[r0], r15
    264c:	3a 09 03                      	beq.w	2955 <.LBE39>

0000264f <.LM415>:
    264f:	75 05 ff                      	cmp	#-1, r5
    2652:	3a 50 06                      	beq.w	2ca2 <.LM568>

00002655 <.LM416>:
    2655:	75 5a 67                      	cmp	#103, r10
    2658:	3a 15 06                      	beq.w	2c6d <.LBE52>

0000265b <.LM417>:
    265b:	75 5a 47                      	cmp	#71, r10
    265e:	3a 0f 06                      	beq.w	2c6d <.LBE52>

00002661 <.LM418>:
    2661:	ee 0d 34 01                   	mov.l	1232[r0], r13

00002665 <.LBB30>:
    2665:	ee 0e 40 01                   	mov.l	1280[r0], r14

00002669 <.LBE30>:
    2669:	76 3d 00 01                   	or	#256, r13

0000266d <.LBB32>:
    266d:	61 0e                         	cmp	#0, r14
    266f:	28 05                         	bge.b	2674 <.LM422>
    2671:	38 54 06                      	bra.w	2cc5 <.LBB34>

00002674 <.LM422>:
    2674:	66 08                         	mov.l	#0, r8

00002676 <.LVL359>:
    2676:	ef 00                         	nop

00002678 <.LM423>:
    2678:	75 5a 66                      	cmp	#102, r10
    267b:	3a 79 05                      	beq.w	2bf4 <.LBB33>
    267e:	75 5a 46                      	cmp	#70, r10
    2681:	3a 73 05                      	beq.w	2bf4 <.LBB33>

00002684 <.LM424>:
    2684:	75 5a 65                      	cmp	#101, r10
    2687:	3a 4a 06                      	beq.w	2cd1 <.LM573>
    268a:	75 5a 45                      	cmp	#69, r10
    268d:	3a 44 06                      	beq.w	2cd1 <.LM573>
    2690:	ef 5c                         	mov.l	r5, r12

00002692 <.LM425>:
    2692:	72 04 c0 04                   	add	#0x4c0, r0, r4

00002696 <.LM426>:
    2696:	72 0e bc 04                   	add	#0x4bc, r0, r14
    269a:	72 07 b8 04                   	add	#0x4b8, r0, r7
    269e:	ee 01 39 01                   	mov.l	1252[r0], r1
    26a2:	e3 04                         	mov.l	r4, [r0]
    26a4:	a0 87                         	mov.l	r7, 8[r0]
    26a6:	e7 0e 01                      	mov.l	r14, 4[r0]
    26a9:	ef b2                         	mov.l	r11, r2
    26ab:	66 23                         	mov.l	#2, r3
    26ad:	ef c4                         	mov.l	r12, r4
    26af:	eb 05 45 01                   	mov.l	r5, 1300[r0]
    26b3:	eb 0f 46 01                   	mov.l	r15, 1304[r0]
    26b7:	05 71 0a 00                   	bsr.a	3128 <__dtoa_r>

000026bb <.LM427>:
    26bb:	75 5a 67                      	cmp	#103, r10

000026be <.LM428>:
    26be:	ef 17                         	mov.l	r1, r7

000026c0 <.LM429>:
    26c0:	ee 05 45 01                   	mov.l	1300[r0], r5
    26c4:	ee 0f 46 01                   	mov.l	1304[r0], r15
    26c8:	10                            	beq.s	26d0 <.LM429+0x10>
    26c9:	75 5a 47                      	cmp	#71, r10
    26cc:	21 0f                         	bne.b	26db <.LM430>
    26ce:	ef 00                         	nop
    26d0:	ee 0e 34 01                   	mov.l	1232[r0], r14
    26d4:	fd 74 ce 01                   	tst	#1, r14
    26d8:	3a ff 05                      	beq.w	2cd7 <.LVL485>

000026db <.LM430>:
    26db:	ff 2e c7                      	add	r12, r7, r14

000026de <.LM431>:
    26de:	75 5a 46                      	cmp	#70, r10
    26e1:	3a 4b 05                      	beq.w	2c2c <.LM554>

000026e4 <.LVL364>:
    26e4:	76 10 01 00                   	mul	#1, r0

000026e8 <.LM432>:
    26e8:	fd 72 1b 00 00 00 00          	fcmp	#0, r11
    26ef:	20 1b                         	beq.b	270a <.LM436>

000026f1 <.LM433>:
    26f1:	ee 0b 2e 01                   	mov.l	1208[r0], r11

000026f5 <.LVL365>:
    26f5:	47 be                         	cmp	r11, r14
    26f7:	24 05                         	bgtu.b	26fc <.LM434>
    26f9:	38 ee 06                      	bra.w	2de7 <.LBB36>

000026fc <.LM434>:
    26fc:	75 4c 30                      	mov.l	#48, r12
    26ff:	fd 20 bc                      	mov.b	r12, [r11+]
    2702:	eb 0b 2e 01                   	mov.l	r11, 1208[r0]

00002706 <.LM435>:
    2706:	47 be                         	cmp	r11, r14
    2708:	21 f4                         	bne.b	26fc <.LM434>

0000270a <.LM436>:
    270a:	43 7e                         	sub	r7, r14
    270c:	eb 0e 3a 01                   	mov.l	r14, 1256[r0]

00002710 <.LBE32>:
    2710:	75 5a 67                      	cmp	#103, r10
    2713:	3a 18 04                      	beq.w	2b2b <.LM523>

00002716 <.LM438>:
    2716:	75 5a 47                      	cmp	#71, r10
    2719:	3a 12 04                      	beq.w	2b2b <.LM523>

0000271c <.LM439>:
    271c:	75 5a 66                      	cmp	#102, r10
    271f:	3b ba 06                      	bne.w	2dd9 <.LVL518>

00002722 <.LM440>:
    2722:	ee 0c 30 01                   	mov.l	1216[r0], r12
    2726:	61 0c                         	cmp	#0, r12
    2728:	2a 05                         	bgt.b	272d <.LM441>
    272a:	38 33 06                      	bra.w	2d5d <.LM588>

0000272d <.LM441>:
    272d:	61 05                         	cmp	#0, r5
    272f:	3b 09 06                      	bne.w	2d38 <.LBE47>

00002732 <.LM442>:
    2732:	ee 0e 34 01                   	mov.l	1232[r0], r14

00002736 <.LVL369>:
    2736:	fd 74 ce 01                   	tst	#1, r14
    273a:	3b fe 05                      	bne.w	2d38 <.LBE47>
    273d:	ef cb                         	mov.l	r12, r11
    273f:	fd 74 4b 00                   	max	#0, r11
    2743:	eb 0b 36 01                   	mov.l	r11, 1240[r0]

00002747 <.LM443>:
    2747:	ef cb                         	mov.l	r12, r11

00002749 <.LM444>:
    2749:	eb 0c 3e 01                   	mov.l	r12, 1272[r0]

0000274d <.LM445>:
    274d:	5b 88                         	movu.b	r8, r8
    274f:	61 08                         	cmp	#0, r8
    2751:	3b 8f 04                      	bne.w	2be0 <.LM546>
    2754:	ce 06 c6 04                   	mov.b	1222[r0], r6

00002758 <.LM446>:
    2758:	eb 0d 34 01                   	mov.l	r13, 1232[r0]

0000275c <.LM447>:
    275c:	eb 08 3c 01                   	mov.l	r8, 1264[r0]
    2760:	38 5b f3                      	bra.w	1abb <.L64>

00002763 <.LM448>:
    2763:	ec 7b                         	mov.l	[r7], r11
    2765:	62 47                         	add	#4, r7
    2767:	eb 0b 40 01                   	mov.l	r11, 1280[r0]
    276b:	eb 07 3b 01                   	mov.l	r7, 1260[r0]

0000276f <.LVL373>:
    276f:	38 89 f3                      	bra.w	1af8 <.LM158>

00002772 <.LM449>:
    2772:	ee 0d 34 01                   	mov.l	1232[r0], r13
    2776:	fd 74 cd 10                   	tst	#16, r13
    277a:	3b 12 02                      	bne.w	298c <.LM490>

0000277d <.LM450>:
    277d:	ee 07 34 01                   	mov.l	1232[r0], r7

00002781 <.LVL375>:
    2781:	fd 74 c7 40                   	tst	#64, r7

00002785 <.LM451>:
    2785:	ee 07 3b 01                   	mov.l	1260[r0], r7

00002789 <.LM452>:
    2789:	3a 36 04                      	beq.w	2bbf <.LM544>

0000278c <.LM453>:
    278c:	62 37                         	add	#3, r7
    278e:	75 27 fc                      	and	#-4, r7
    2791:	ec 7a                         	mov.l	[r7], r10

00002793 <.LVL376>:
    2793:	de 0b 70 02                   	mov.w	1248[r0], r11
    2797:	62 47                         	add	#4, r7
    2799:	eb 07 3b 01                   	mov.l	r7, 1260[r0]

0000279d <.LVL377>:
    279d:	d3 ab                         	mov.w	r11, [r10]
    279f:	38 9d ed                      	bra.w	153c <.LM28>

000027a2 <.LM454>:
    27a2:	ee 0b 34 01                   	mov.l	1232[r0], r11
    27a6:	75 2b 40                      	and	#64, r11
    27a9:	3a 2b 02                      	beq.w	29d4 <.LM495>

000027ac <.LM455>:
    27ac:	ee 0b 3b 01                   	mov.l	1260[r0], r11
    27b0:	62 3b                         	add	#3, r11
    27b2:	75 2b fc                      	and	#-4, r11
    27b5:	71 bd 04                      	add	#4, r11, r13
    27b8:	5c b8                         	movu.w	[r11], r8
    27ba:	eb 0d 3b 01                   	mov.l	r13, 1260[r0]

000027be <.LVL379>:
    27be:	ef 7b                         	mov.l	r7, r11
    27c0:	38 50 f4                      	bra.w	1c10 <.LM185>

000027c3 <.LM456>:
    27c3:	ee 0b 34 01                   	mov.l	1232[r0], r11
    27c7:	75 2b 40                      	and	#64, r11
    27ca:	3a f3 01                      	beq.w	29bd <.LM493>

000027cd <.LM457>:
    27cd:	ee 0c 3b 01                   	mov.l	1260[r0], r12
    27d1:	ef 7b                         	mov.l	r7, r11
    27d3:	62 3c                         	add	#3, r12
    27d5:	75 2c fc                      	and	#-4, r12
    27d8:	71 cd 04                      	add	#4, r12, r13
    27db:	eb 0d 3b 01                   	mov.l	r13, 1260[r0]

000027df <.LVL381>:
    27df:	5c c8                         	movu.w	[r12], r8
    27e1:	38 bf f3                      	bra.w	1ba0 <.L123>

000027e4 <.LM458>:
    27e4:	ee 07 34 01                   	mov.l	1232[r0], r7

000027e8 <.LVL383>:
    27e8:	fd 74 c7 40                   	tst	#64, r7
    27ec:	ee 07 3b 01                   	mov.l	1260[r0], r7
    27f0:	3a a8 f4                      	beq.w	1c98 <.LM207>

000027f3 <.LM459>:
    27f3:	62 37                         	add	#3, r7
    27f5:	75 27 fc                      	and	#-4, r7
    27f8:	dc 78                         	mov.w	[r7], r8
    27fa:	62 47                         	add	#4, r7
    27fc:	fd bf 8b                      	shar	#31, r8, r11
    27ff:	eb 07 3b 01                   	mov.l	r7, 1260[r0]

00002803 <.LVL384>:
    2803:	ef bc                         	mov.l	r11, r12

00002805 <.LVL385>:
    2805:	38 5b f2                      	bra.w	1a60 <.LM139>

00002808 <.LM460>:
    2808:	ee 0b 34 01                   	mov.l	1232[r0], r11
    280c:	75 2b 40                      	and	#64, r11
    280f:	3a 97 01                      	beq.w	29a6 <.LM491>

00002812 <.LM461>:
    2812:	ee 0b 3b 01                   	mov.l	1260[r0], r11
    2816:	62 3b                         	add	#3, r11
    2818:	75 2b fc                      	and	#-4, r11
    281b:	71 bd 04                      	add	#4, r11, r13
    281e:	5c b8                         	movu.w	[r11], r8
    2820:	eb 0d 3b 01                   	mov.l	r13, 1260[r0]

00002824 <.LVL387>:
    2824:	ef 7b                         	mov.l	r7, r11

00002826 <.LM462>:
    2826:	66 17                         	mov.l	#1, r7
    2828:	38 78 f3                      	bra.w	1ba0 <.L123>

0000282b <.LBB18>:
    282b:	ee 0a 29 01                   	mov.l	1188[r0], r10
    282f:	62 1e                         	add	#1, r14
    2831:	4b ca                         	add	r12, r10
    2833:	f8 f2 c8 79 00 00             	mov.l	#0x79c8, [r15]
    2839:	e7 fc 01                      	mov.l	r12, 4[r15]
    283c:	eb 0a 29 01                   	mov.l	r10, 1188[r0]

00002840 <.LVL389>:
    2840:	eb 0e 28 01                   	mov.l	r14, 1184[r0]
    2844:	61 7e                         	cmp	#7, r14
    2846:	2b 05                         	ble.b	284b <.LM464>
    2848:	38 4e fc                      	bra.w	2496 <.LBB16>

0000284b <.LM464>:
    284b:	62 8f                         	add	#8, r15

0000284d <.LVL390>:
    284d:	38 63 fc                      	bra.w	24b0 <.LBE16>

00002850 <.LBE18>:
    2850:	ee 01 39 01                   	mov.l	1252[r0], r1
    2854:	fb 3a 9c 04                   	mov.l	#0x49c, r3
    2858:	4b 03                         	add	r0, r3
    285a:	ef 92                         	mov.l	r9, r2
    285c:	05 dc 2c 00                   	bsr.a	5538 <___sprint_r>

00002860 <.LVL392>:
    2860:	61 01                         	cmp	#0, r1
    2862:	3b 7e f1                      	bne.w	19e0 <.L18>

00002865 <.LM466>:
    2865:	66 cf                         	mov.l	#12, r15
    2867:	4b 0f                         	add	r0, r15
    2869:	38 97 f7                      	bra.w	2000 <.LM306>

0000286c <.LM467>:
    286c:	ee 0e 28 01                   	mov.l	1184[r0], r14
    2870:	ee 0a 29 01                   	mov.l	1188[r0], r10
    2874:	62 1e                         	add	#1, r14
    2876:	62 1a                         	add	#1, r10
    2878:	f8 f2 4f 78 00 00             	mov.l	#0x784f, [r15]
    287e:	f9 f6 01 01                   	mov.l	#1, 4[r15]
    2882:	eb 0a 29 01                   	mov.l	r10, 1188[r0]

00002886 <.LVL394>:
    2886:	eb 0e 28 01                   	mov.l	r14, 1184[r0]
    288a:	61 7e                         	cmp	#7, r14
    288c:	2b 05                         	ble.b	2891 <.LVL394+0xb>
    288e:	38 69 01                      	bra.w	29f7 <.LM498>
    2891:	62 8f                         	add	#8, r15

00002893 <.LM468>:
    2893:	61 0b                         	cmp	#0, r11
    2895:	21 15                         	bne.b	28aa <.LM470>

00002897 <.LM469>:
    2897:	ee 0c 3a 01                   	mov.l	1256[r0], r12
    289b:	61 0c                         	cmp	#0, r12
    289d:	21 0d                         	bne.b	28aa <.LM470>
    289f:	ee 0d 34 01                   	mov.l	1232[r0], r13
    28a3:	fd 74 cd 01                   	tst	#1, r13
    28a7:	3a 49 ef                      	beq.w	17f0 <.LBE12>

000028aa <.LM470>:
    28aa:	ee 0e 28 01                   	mov.l	1184[r0], r14
    28ae:	ee 0a 29 01                   	mov.l	1188[r0], r10
    28b2:	ee 0c 3d 01                   	mov.l	1268[r0], r12
    28b6:	ee 0d 3f 01                   	mov.l	1276[r0], r13
    28ba:	06 8a 0a 3f 01                	add	1276[r0].l, r10
    28bf:	62 1e                         	add	#1, r14
    28c1:	e3 fc                         	mov.l	r12, [r15]
    28c3:	e7 fd 01                      	mov.l	r13, 4[r15]
    28c6:	eb 0a 29 01                   	mov.l	r10, 1188[r0]

000028ca <.LVL396>:
    28ca:	eb 0e 28 01                   	mov.l	r14, 1184[r0]
    28ce:	61 7e                         	cmp	#7, r14
    28d0:	2b 05                         	ble.b	28d5 <.LVL396+0xb>
    28d2:	38 a5 03                      	bra.w	2c77 <.LM564>
    28d5:	71 f6 08                      	add	#8, r15, r6

000028d8 <.LM471>:
    28d8:	7e 1b                         	neg	r11

000028da <.LVL398>:
    28da:	61 0b                         	cmp	#0, r11
    28dc:	2a 05                         	bgt.b	28e1 <.LM472>
    28de:	38 8a f8                      	bra.w	2168 <.LM326>

000028e1 <.LM472>:
    28e1:	75 5b 10                      	cmp	#16, r11
    28e4:	2a 05                         	bgt.b	28e9 <.LM473>
    28e6:	38 a8 01                      	bra.w	2a8e <.LBE19>

000028e9 <.LM473>:
    28e9:	fb a2 38 55 00 00             	mov.l	#0x5538, r10
    28ef:	ee 0d 39 01                   	mov.l	1252[r0], r13
    28f3:	2e 10                         	bra.b	2903 <.LM476>

000028f5 <.LM474>:
    28f5:	62 86                         	add	#8, r6

000028f7 <.LVL400>:
    28f7:	03                            	nop

000028f8 <.LM475>:
    28f8:	71 bb f0                      	add	#-16, r11, r11
    28fb:	75 5b 10                      	cmp	#16, r11
    28fe:	2a 05                         	bgt.b	2903 <.LM476>
    2900:	38 8e 01                      	bra.w	2a8e <.LBE19>

00002903 <.LM476>:
    2903:	ee 0c 29 01                   	mov.l	1188[r0], r12
    2907:	62 1e                         	add	#1, r14
    2909:	71 cc 10                      	add	#16, r12, r12
    290c:	f8 62 c8 79 00 00             	mov.l	#0x79c8, [r6]
    2912:	3e 61 10                      	mov.l	#16, 4[r6]
    2915:	eb 0c 29 01                   	mov.l	r12, 1188[r0]

00002919 <.LVL402>:
    2919:	eb 0e 28 01                   	mov.l	r14, 1184[r0]
    291d:	61 7e                         	cmp	#7, r14
    291f:	2b d6                         	ble.b	28f5 <.LM474>

00002921 <.LM477>:
    2921:	fb 3a 9c 04                   	mov.l	#0x49c, r3
    2925:	4b 03                         	add	r0, r3
    2927:	ef d1                         	mov.l	r13, r1
    2929:	ef 92                         	mov.l	r9, r2
    292b:	7f 1a                         	jsr	r10

0000292d <.LVL403>:
    292d:	61 01                         	cmp	#0, r1
    292f:	3b b1 f0                      	bne.w	19e0 <.L18>

00002932 <.LM478>:
    2932:	66 c6                         	mov.l	#12, r6

00002934 <.LVL404>:
    2934:	ee 0e 28 01                   	mov.l	1184[r0], r14
    2938:	4b 06                         	add	r0, r6
    293a:	2e be                         	bra.b	28f8 <.LM475>

0000293c <.LVL405>:
    293c:	ef be                         	mov.l	r11, r14

0000293e <.LBB39>:
    293e:	ee 0c 3c 01                   	mov.l	1264[r0], r12
    2942:	fd 74 4e 00                   	max	#0, r14
    2946:	eb 0e 36 01                   	mov.l	r14, 1240[r0]
    294a:	ce 06 c6 04                   	mov.b	1222[r0], r6
    294e:	eb 0c 3e 01                   	mov.l	r12, 1272[r0]
    2952:	38 69 f1                      	bra.w	1abb <.L64>

00002955 <.LBE39>:
    2955:	75 5a 47                      	cmp	#71, r10
    2958:	2b 05                         	ble.b	295d <.LM481>
    295a:	38 c8 01                      	bra.w	2b22 <.LBE20>

0000295d <.LM481>:
    295d:	fb 72 1e 78 00 00             	mov.l	#0x781e, r7

00002963 <.LM482>:
    2963:	ee 0e 34 01                   	mov.l	1232[r0], r14

00002967 <.LM483>:
    2967:	fa 06 3c 01 00                	mov.l	#0, 1264[r0]

0000296c <.LM484>:
    296c:	ee 0c 3c 01                   	mov.l	1264[r0], r12

00002970 <.LM485>:
    2970:	fa 06 36 01 03                	mov.l	#3, 1240[r0]

00002975 <.LM486>:
    2975:	76 2e 7f ff                   	and	#-129, r14
    2979:	eb 0e 34 01                   	mov.l	r14, 1232[r0]

0000297d <.LVL408>:
    297d:	ce 06 c6 04                   	mov.b	1222[r0], r6

00002981 <.LM487>:
    2981:	ee 0b 36 01                   	mov.l	1240[r0], r11

00002985 <.LM488>:
    2985:	eb 0c 3e 01                   	mov.l	r12, 1272[r0]

00002989 <.LM489>:
    2989:	38 32 f1                      	bra.w	1abb <.L64>

0000298c <.LM490>:
    298c:	ee 07 3b 01                   	mov.l	1260[r0], r7

00002990 <.LVL410>:
    2990:	ee 0e 38 01                   	mov.l	1248[r0], r14
    2994:	62 37                         	add	#3, r7
    2996:	75 27 fc                      	and	#-4, r7
    2999:	ec 7a                         	mov.l	[r7], r10

0000299b <.LVL411>:
    299b:	62 47                         	add	#4, r7
    299d:	eb 07 3b 01                   	mov.l	r7, 1260[r0]

000029a1 <.LVL412>:
    29a1:	e3 ae                         	mov.l	r14, [r10]
    29a3:	38 99 eb                      	bra.w	153c <.LM28>

000029a6 <.LM491>:
    29a6:	ee 07 3b 01                   	mov.l	1260[r0], r7
    29aa:	62 37                         	add	#3, r7
    29ac:	75 27 fc                      	and	#-4, r7
    29af:	71 7e 04                      	add	#4, r7, r14
    29b2:	eb 0e 3b 01                   	mov.l	r14, 1260[r0]

000029b6 <.LVL414>:
    29b6:	ec 78                         	mov.l	[r7], r8

000029b8 <.LM492>:
    29b8:	66 17                         	mov.l	#1, r7
    29ba:	38 e6 f1                      	bra.w	1ba0 <.L123>

000029bd <.LM493>:
    29bd:	ee 07 3b 01                   	mov.l	1260[r0], r7
    29c1:	62 37                         	add	#3, r7
    29c3:	75 27 fc                      	and	#-4, r7
    29c6:	71 7e 04                      	add	#4, r7, r14
    29c9:	eb 0e 3b 01                   	mov.l	r14, 1260[r0]

000029cd <.LVL416>:
    29cd:	ec 78                         	mov.l	[r7], r8

000029cf <.LM494>:
    29cf:	cf b7                         	mov.b	r11, r7
    29d1:	38 cf f1                      	bra.w	1ba0 <.L123>

000029d4 <.LM495>:
    29d4:	ee 07 3b 01                   	mov.l	1260[r0], r7
    29d8:	62 37                         	add	#3, r7
    29da:	75 27 fc                      	and	#-4, r7
    29dd:	ec 78                         	mov.l	[r7], r8
    29df:	62 47                         	add	#4, r7
    29e1:	eb 07 3b 01                   	mov.l	r7, 1260[r0]

000029e5 <.LVL418>:
    29e5:	38 2b f2                      	bra.w	1c10 <.LM185>

000029e8 <.LM496>:
    29e8:	fb 72 16 78 00 00             	mov.l	#0x7816, r7
    29ee:	38 4b f1                      	bra.w	1b39 <.LM162>

000029f1 <.LM497>:
    29f1:	71 f6 08                      	add	#8, r15, r6
    29f4:	38 3c f5                      	bra.w	1f30 <.LM285>

000029f7 <.LM498>:
    29f7:	ee 01 39 01                   	mov.l	1252[r0], r1
    29fb:	fb 3a 9c 04                   	mov.l	#0x49c, r3
    29ff:	4b 03                         	add	r0, r3
    2a01:	ef 92                         	mov.l	r9, r2
    2a03:	05 35 2b 00                   	bsr.a	5538 <___sprint_r>

00002a07 <.LVL421>:
    2a07:	61 01                         	cmp	#0, r1
    2a09:	3b d7 ef                      	bne.w	19e0 <.L18>

00002a0c <.LM499>:
    2a0c:	66 cf                         	mov.l	#12, r15
    2a0e:	ee 0b 30 01                   	mov.l	1216[r0], r11
    2a12:	4b 0f                         	add	r0, r15
    2a14:	38 7f fe                      	bra.w	2893 <.LM468>

00002a17 <.LM500>:
    2a17:	ee 0e 34 01                   	mov.l	1232[r0], r14

00002a1b <.LM501>:
    2a1b:	62 17                         	add	#1, r7

00002a1d <.LM502>:
    2a1d:	75 3e 20                      	or	#32, r14
    2a20:	eb 0e 34 01                   	mov.l	r14, 1232[r0]

00002a24 <.LVL424>:
    2a24:	59 ca 01                      	movu.b	1[r12], r10
    2a27:	38 a4 eb                      	bra.w	15cb <.LM44>

00002a2a <.LM503>:
    2a2a:	ee 01 39 01                   	mov.l	1252[r0], r1
    2a2e:	fb 3a 9c 04                   	mov.l	#0x49c, r3
    2a32:	4b 03                         	add	r0, r3
    2a34:	ef 92                         	mov.l	r9, r2
    2a36:	05 02 2b 00                   	bsr.a	5538 <___sprint_r>

00002a3a <.LVL426>:
    2a3a:	61 01                         	cmp	#0, r1
    2a3c:	3b a4 ef                      	bne.w	19e0 <.L18>

00002a3f <.LM504>:
    2a3f:	66 cf                         	mov.l	#12, r15
    2a41:	4b 0f                         	add	r0, r15
    2a43:	38 05 f6                      	bra.w	2048 <.LM309>

00002a46 <.LM505>:
    2a46:	eb 0f 46 01                   	mov.l	r15, 1304[r0]
    2a4a:	05 db 2a 00                   	bsr.a	5525 <_strlen>

00002a4e <.LM506>:
    2a4e:	fa 06 3c 01 00                	mov.l	#0, 1264[r0]
    2a53:	ef 1d                         	mov.l	r1, r13

00002a55 <.LM507>:
    2a55:	ee 0e 3c 01                   	mov.l	1264[r0], r14
    2a59:	fd 74 4d 00                   	max	#0, r13

00002a5d <.LM508>:
    2a5d:	ef 1b                         	mov.l	r1, r11

00002a5f <.LVL429>:
    2a5f:	eb 0d 36 01                   	mov.l	r13, 1240[r0]
    2a63:	ce 06 c6 04                   	mov.b	1222[r0], r6

00002a67 <.LM509>:
    2a67:	eb 0e 3e 01                   	mov.l	r14, 1272[r0]
    2a6b:	ee 0f 46 01                   	mov.l	1304[r0], r15
    2a6f:	38 4c f0                      	bra.w	1abb <.L64>

00002a72 <.LBB19>:
    2a72:	ee 01 39 01                   	mov.l	1252[r0], r1
    2a76:	fb 3a 9c 04                   	mov.l	#0x49c, r3
    2a7a:	4b 03                         	add	r0, r3
    2a7c:	ef 92                         	mov.l	r9, r2
    2a7e:	05 ba 2a 00                   	bsr.a	5538 <___sprint_r>

00002a82 <.LVL431>:
    2a82:	61 01                         	cmp	#0, r1
    2a84:	3b 5c ef                      	bne.w	19e0 <.L18>

00002a87 <.LM511>:
    2a87:	66 cf                         	mov.l	#12, r15
    2a89:	4b 0f                         	add	r0, r15
    2a8b:	38 b0 f8                      	bra.w	233b <.LM363>

00002a8e <.LBE19>:
    2a8e:	ee 0a 29 01                   	mov.l	1188[r0], r10
    2a92:	62 1e                         	add	#1, r14
    2a94:	4b ba                         	add	r11, r10
    2a96:	f8 62 c8 79 00 00             	mov.l	#0x79c8, [r6]
    2a9c:	e7 6b 01                      	mov.l	r11, 4[r6]
    2a9f:	eb 0a 29 01                   	mov.l	r10, 1188[r0]

00002aa3 <.LVL433>:
    2aa3:	eb 0e 28 01                   	mov.l	r14, 1184[r0]
    2aa7:	61 7e                         	cmp	#7, r14
    2aa9:	2b 05                         	ble.b	2aae <.LM513>
    2aab:	38 9e f6                      	bra.w	2149 <.LM324>

00002aae <.LM513>:
    2aae:	62 86                         	add	#8, r6

00002ab0 <.LVL434>:
    2ab0:	38 b8 f6                      	bra.w	2168 <.LM326>

00002ab3 <.LBB41>:
    2ab3:	ee 01 39 01                   	mov.l	1252[r0], r1
    2ab7:	fb 3a 9c 04                   	mov.l	#0x49c, r3
    2abb:	4b 03                         	add	r0, r3
    2abd:	ef 92                         	mov.l	r9, r2
    2abf:	05 79 2a 00                   	bsr.a	5538 <___sprint_r>

00002ac3 <.LVL436>:
    2ac3:	61 01                         	cmp	#0, r1
    2ac5:	3b 1b ef                      	bne.w	19e0 <.L18>

00002ac8 <.LM515>:
    2ac8:	66 cf                         	mov.l	#12, r15
    2aca:	ee 0a 30 01                   	mov.l	1216[r0], r10
    2ace:	4b 0f                         	add	r0, r15
    2ad0:	38 00 fa                      	bra.w	24d0 <.LBB17>

00002ad3 <.LBE41>:
    2ad3:	61 65                         	cmp	#6, r5
    2ad5:	ef 5b                         	mov.l	r5, r11

00002ad7 <.LVL438>:
    2ad7:	25 04                         	bleu.b	2adb <.LM517>
    2ad9:	66 6b                         	mov.l	#6, r11

00002adb <.LM517>:
    2adb:	fa 06 3c 01 00                	mov.l	#0, 1264[r0]

00002ae0 <.LM518>:
    2ae0:	ee 0e 3c 01                   	mov.l	1264[r0], r14
    2ae4:	ef bd                         	mov.l	r11, r13
    2ae6:	fd 74 4d 00                   	max	#0, r13
    2aea:	eb 0d 36 01                   	mov.l	r13, 1240[r0]
    2aee:	eb 0e 3e 01                   	mov.l	r14, 1272[r0]

00002af2 <.LM519>:
    2af2:	fb 72 48 78 00 00             	mov.l	#0x7848, r7
    2af8:	ef e6                         	mov.l	r14, r6
    2afa:	38 10 eb                      	bra.w	160a <.LM55>

00002afd <.LBB20>:
    2afd:	ee 01 39 01                   	mov.l	1252[r0], r1
    2b01:	fb 3a 9c 04                   	mov.l	#0x49c, r3
    2b05:	4b 03                         	add	r0, r3
    2b07:	ef 92                         	mov.l	r9, r2
    2b09:	05 2f 2a 00                   	bsr.a	5538 <___sprint_r>

00002b0d <.LVL441>:
    2b0d:	61 01                         	cmp	#0, r1
    2b0f:	3b d1 ee                      	bne.w	19e0 <.L18>
    2b12:	ee 0a 3a 01                   	mov.l	1256[r0], r10

00002b16 <.LM521>:
    2b16:	66 cf                         	mov.l	#12, r15
    2b18:	06 82 0a 30 01                	sub	1216[r0].l, r10
    2b1d:	4b 0f                         	add	r0, r15
    2b1f:	38 e3 f9                      	bra.w	2502 <.LM396>

00002b22 <.LBE20>:
    2b22:	fb 72 22 78 00 00             	mov.l	#0x7822, r7
    2b28:	38 3b fe                      	bra.w	2963 <.LM482>

00002b2b <.LM523>:
    2b2b:	ee 0c 30 01                   	mov.l	1216[r0], r12
    2b2f:	75 0c fd                      	cmp	#-3, r12
    2b32:	ef cb                         	mov.l	r12, r11

00002b34 <.LVL444>:
    2b34:	29 06                         	blt.b	2b3a <.LM525>

00002b36 <.LM524>:
    2b36:	47 c5                         	cmp	r12, r5
    2b38:	28 60                         	bge.b	2b98 <.LM542>

00002b3a <.LM525>:
    2b3a:	60 2a                         	sub	#2, r10

00002b3c <.LM526>:
    2b3c:	60 1b                         	sub	#1, r11
    2b3e:	eb 0b 30 01                   	mov.l	r11, 1216[r0]

00002b42 <.LBB43>:
    2b42:	cb 0a af 04                   	mov.b	r10, 1199[r0]

00002b46 <.LM528>:
    2b46:	26 05                         	bpz.b	2b4b <.LM529>
    2b48:	38 4e 02                      	bra.w	2d96 <.LBB48>

00002b4b <.LM529>:
    2b4b:	fa 04 b0 04 2b                	mov.b	#43, 1200[r0]

00002b50 <.LM530>:
    2b50:	61 9b                         	cmp	#9, r11
    2b52:	2b 05                         	ble.b	2b57 <.LM531>
    2b54:	38 8a 01                      	bra.w	2cde <.LBB46>

00002b57 <.LM531>:
    2b57:	71 bb 30                      	add	#48, r11, r11

00002b5a <.LVL449>:
    2b5a:	cb 0b b2 04                   	mov.b	r11, 1202[r0]

00002b5e <.LM532>:
    2b5e:	fa 04 b1 04 30                	mov.b	#48, 1201[r0]

00002b63 <.LM533>:
    2b63:	72 0b b3 04                   	add	#0x4b3, r0, r11

00002b67 <.LVL451>:
    2b67:	03                            	nop

00002b68 <.LM534>:
    2b68:	72 0c af 04                   	add	#0x4af, r0, r12

00002b6c <.LM535>:
    2b6c:	ff 0c cb                      	sub	r12, r11, r12

00002b6f <.LBE43>:
    2b6f:	ee 0b 3a 01                   	mov.l	1256[r0], r11

00002b73 <.LBB45>:
    2b73:	eb 0c 41 01                   	mov.l	r12, 1284[r0]

00002b77 <.LBE45>:
    2b77:	4b cb                         	add	r12, r11

00002b79 <.LM539>:
    2b79:	ee 0c 3a 01                   	mov.l	1256[r0], r12
    2b7d:	61 1c                         	cmp	#1, r12
    2b7f:	2a 05                         	bgt.b	2b84 <.LM540>
    2b81:	38 3e 02                      	bra.w	2dbf <.LBE24>

00002b84 <.LM540>:
    2b84:	62 1b                         	add	#1, r11
    2b86:	ef bc                         	mov.l	r11, r12
    2b88:	fd 74 4c 00                   	max	#0, r12
    2b8c:	eb 0c 36 01                   	mov.l	r12, 1240[r0]

00002b90 <.LM541>:
    2b90:	fa 06 3e 01 00                	mov.l	#0, 1272[r0]
    2b95:	38 b8 fb                      	bra.w	274d <.LM445>

00002b98 <.LM542>:
    2b98:	06 86 0c 3a 01                	cmp	1256[r0].l, r12
    2b9d:	28 05                         	bge.b	2ba2 <.LM543>
    2b9f:	38 08 01                      	bra.w	2ca7 <.LM569>

00002ba2 <.LM543>:
    2ba2:	ee 0a 34 01                   	mov.l	1232[r0], r10

00002ba6 <.LVL457>:
    2ba6:	fd 74 ca 01                   	tst	#1, r10
    2baa:	3b a0 01                      	bne.w	2d4a <.LM587>
    2bad:	ef cb                         	mov.l	r12, r11
    2baf:	fd 74 4b 00                   	max	#0, r11

00002bb3 <.LVL458>:
    2bb3:	eb 0b 36 01                   	mov.l	r11, 1240[r0]
    2bb7:	75 4a 67                      	mov.l	#103, r10
    2bba:	ef cb                         	mov.l	r12, r11
    2bbc:	38 8d fb                      	bra.w	2749 <.LM444>

00002bbf <.LM544>:
    2bbf:	62 37                         	add	#3, r7
    2bc1:	75 27 fc                      	and	#-4, r7
    2bc4:	ec 7a                         	mov.l	[r7], r10

00002bc6 <.LVL460>:
    2bc6:	ee 0c 38 01                   	mov.l	1248[r0], r12
    2bca:	62 47                         	add	#4, r7
    2bcc:	eb 07 3b 01                   	mov.l	r7, 1260[r0]

00002bd0 <.LVL461>:
    2bd0:	e3 ac                         	mov.l	r12, [r10]
    2bd2:	38 6a e9                      	bra.w	153c <.LM28>

00002bd5 <.LM545>:
    2bd5:	fa 04 c6 04 2d                	mov.b	#45, 1222[r0]
    2bda:	75 46 2d                      	mov.l	#45, r6
    2bdd:	38 4e ef                      	bra.w	1b2b <.LM160>

00002be0 <.LM546>:
    2be0:	fa 04 c6 04 2d                	mov.b	#45, 1222[r0]

00002be5 <.LM547>:
    2be5:	eb 0d 34 01                   	mov.l	r13, 1232[r0]

00002be9 <.LM548>:
    2be9:	fa 06 3c 01 00                	mov.l	#0, 1264[r0]
    2bee:	75 46 2d                      	mov.l	#45, r6
    2bf1:	38 d1 ee                      	bra.w	1ac2 <.LM152>

00002bf4 <.LBB33>:
    2bf4:	72 0e c0 04                   	add	#0x4c0, r0, r14

00002bf8 <.LM550>:
    2bf8:	72 0c bc 04                   	add	#0x4bc, r0, r12
    2bfc:	72 07 b8 04                   	add	#0x4b8, r0, r7
    2c00:	ee 01 39 01                   	mov.l	1252[r0], r1
    2c04:	e3 0e                         	mov.l	r14, [r0]
    2c06:	e7 0c 01                      	mov.l	r12, 4[r0]
    2c09:	a0 87                         	mov.l	r7, 8[r0]
    2c0b:	ef 54                         	mov.l	r5, r4
    2c0d:	ef b2                         	mov.l	r11, r2
    2c0f:	66 33                         	mov.l	#3, r3
    2c11:	eb 05 45 01                   	mov.l	r5, 1300[r0]
    2c15:	eb 0f 46 01                   	mov.l	r15, 1304[r0]
    2c19:	05 0f 05 00                   	bsr.a	3128 <__dtoa_r>

00002c1d <.LM551>:
    2c1d:	ee 05 45 01                   	mov.l	1300[r0], r5
    2c21:	ee 0f 46 01                   	mov.l	1304[r0], r15

00002c25 <.LM552>:
    2c25:	ef 17                         	mov.l	r1, r7

00002c27 <.LM553>:
    2c27:	ff 2e 51                      	add	r5, r1, r14

00002c2a <.LVL467>:
    2c2a:	ef 5c                         	mov.l	r5, r12

00002c2c <.LM554>:
    2c2c:	58 74                         	movu.b	[r7], r4
    2c2e:	75 54 30                      	cmp	#48, r4
    2c31:	12                            	beq.s	2c3b <.LM556>
    2c32:	ee 0c 30 01                   	mov.l	1216[r0], r12

00002c36 <.LM555>:
    2c36:	4b ce                         	add	r12, r14
    2c38:	38 b0 fa                      	bra.w	26e8 <.LM432>

00002c3b <.LM556>:
    2c3b:	fd 72 1b 00 00 00 00          	fcmp	#0, r11
    2c42:	20 f0                         	beq.b	2c32 <.LM554+0x6>

00002c44 <.LM557>:
    2c44:	66 14                         	mov.l	#1, r4
    2c46:	ff 0c c4                      	sub	r12, r4, r12
    2c49:	eb 0c 30 01                   	mov.l	r12, 1216[r0]

00002c4d <.LM558>:
    2c4d:	4b ce                         	add	r12, r14
    2c4f:	38 99 fa                      	bra.w	26e8 <.LM432>

00002c52 <.LVL471>:
    2c52:	ef 5b                         	mov.l	r5, r11

00002c54 <.LVL472>:
    2c54:	fd 74 4b 00                   	max	#0, r11
    2c58:	eb 0b 36 01                   	mov.l	r11, 1240[r0]

00002c5c <.LBB52>:
    2c5c:	eb 01 3c 01                   	mov.l	r1, 1264[r0]
    2c60:	ce 06 c6 04                   	mov.b	1222[r0], r6

00002c64 <.LM560>:
    2c64:	ef 5b                         	mov.l	r5, r11

00002c66 <.LM561>:
    2c66:	eb 01 3e 01                   	mov.l	r1, 1272[r0]
    2c6a:	38 51 ee                      	bra.w	1abb <.L64>

00002c6d <.LBE52>:
    2c6d:	61 05                         	cmp	#0, r5
    2c6f:	3b f2 f9                      	bne.w	2661 <.LM418>

00002c72 <.LM563>:
    2c72:	66 15                         	mov.l	#1, r5
    2c74:	38 ed f9                      	bra.w	2661 <.LM418>

00002c77 <.LM564>:
    2c77:	ee 01 39 01                   	mov.l	1252[r0], r1
    2c7b:	fb 3a 9c 04                   	mov.l	#0x49c, r3
    2c7f:	4b 03                         	add	r0, r3
    2c81:	ef 92                         	mov.l	r9, r2
    2c83:	05 b5 28 00                   	bsr.a	5538 <___sprint_r>

00002c87 <.LVL475>:
    2c87:	61 01                         	cmp	#0, r1
    2c89:	3b 57 ed                      	bne.w	19e0 <.L18>

00002c8c <.LM565>:
    2c8c:	66 c6                         	mov.l	#12, r6
    2c8e:	ee 0b 30 01                   	mov.l	1216[r0], r11
    2c92:	ee 0e 28 01                   	mov.l	1184[r0], r14
    2c96:	4b 06                         	add	r0, r6
    2c98:	38 40 fc                      	bra.w	28d8 <.LM471>

00002c9b <.LM566>:
    2c9b:	ef d7                         	mov.l	r13, r7

00002c9d <.LM567>:
    2c9d:	66 05                         	mov.l	#0, r5
    2c9f:	38 2e e9                      	bra.w	15cd <.LM45>

00002ca2 <.LM568>:
    2ca2:	66 65                         	mov.l	#6, r5
    2ca4:	38 bd f9                      	bra.w	2661 <.LM418>

00002ca7 <.LM569>:
    2ca7:	61 0c                         	cmp	#0, r12
    2ca9:	2a 05                         	bgt.b	2cae <.LM569+0x7>
    2cab:	38 f5 00                      	bra.w	2da0 <.LBE48>
    2cae:	66 1b                         	mov.l	#1, r11

00002cb0 <.LM570>:
    2cb0:	06 8a 0b 3a 01                	add	1256[r0].l, r11

00002cb5 <.LVL479>:
    2cb5:	ef ba                         	mov.l	r11, r10

00002cb7 <.LVL480>:
    2cb7:	fd 74 4a 00                   	max	#0, r10
    2cbb:	eb 0a 36 01                   	mov.l	r10, 1240[r0]
    2cbf:	75 4a 67                      	mov.l	#103, r10
    2cc2:	38 87 fa                      	bra.w	2749 <.LM444>

00002cc5 <.LBB34>:
    2cc5:	70 bb 00 00 00 80             	add	#0x80000000, r11, r11

00002ccb <.LM572>:
    2ccb:	75 48 2d                      	mov.l	#45, r8
    2cce:	38 aa f9                      	bra.w	2678 <.LM423>

00002cd1 <.LM573>:
    2cd1:	71 5c 01                      	add	#1, r5, r12

00002cd4 <.LVL484>:
    2cd4:	38 be f9                      	bra.w	2692 <.LM425>

00002cd7 <.LVL485>:
    2cd7:	ee 0e 2e 01                   	mov.l	1208[r0], r14
    2cdb:	38 2f fa                      	bra.w	270a <.LM436>

00002cde <.LBB46>:
    2cde:	72 0e ae 04                   	add	#0x4ae, r0, r14

00002ce2 <.LM575>:
    2ce2:	ef b4                         	mov.l	r11, r4
    2ce4:	fd 74 84 0a                   	div	#10, r4
    2ce8:	ff 23 44                      	add	r4, r4, r3
    2ceb:	fd c3 4c                      	shll	#3, r4, r12
    2cee:	4b 3c                         	add	r3, r12
    2cf0:	43 cb                         	sub	r12, r11

00002cf2 <.LVL488>:
    2cf2:	71 bb 30                      	add	#48, r11, r11
    2cf5:	c3 eb                         	mov.b	r11, [r14]
    2cf7:	ef ec                         	mov.l	r14, r12

00002cf9 <.LVL489>:
    2cf9:	60 1e                         	sub	#1, r14

00002cfb <.LM576>:
    2cfb:	61 94                         	cmp	#9, r4
    2cfd:	ef 4b                         	mov.l	r4, r11

00002cff <.LVL490>:
    2cff:	2a e3                         	bgt.b	2ce2 <.LM575>

00002d01 <.LM577>:
    2d01:	71 bb 30                      	add	#48, r11, r11

00002d04 <.LM578>:
    2d04:	72 03 af 04                   	add	#0x4af, r0, r3

00002d08 <.LM579>:
    2d08:	c3 eb                         	mov.b	r11, [r14]

00002d0a <.LM580>:
    2d0a:	47 e3                         	cmp	r14, r3

00002d0c <.LM581>:
    2d0c:	cf b4                         	mov.b	r11, r4

00002d0e <.LM582>:
    2d0e:	24 05                         	bgtu.b	2d13 <.LM582+0x5>
    2d10:	38 d0 00                      	bra.w	2de0 <.LBB49>
    2d13:	ef cb                         	mov.l	r12, r11

00002d15 <.LBB35>:
    2d15:	72 0e b1 04                   	add	#0x4b1, r0, r14

00002d19 <.LVL494>:
    2d19:	0f                            	bra.s	2d20 <.LBB47>

00002d1a <.LVL495>:
    2d1a:	fd 28 b4                      	mov.b	[r11+], r4
    2d1d:	fc 13 00                      	nop

00002d20 <.LBB47>:
    2d20:	fd 20 e4                      	mov.b	r4, [r14+]
    2d23:	47 3b                         	cmp	r3, r11
    2d25:	21 f5                         	bne.b	2d1a <.LVL495>

00002d27 <.LM585>:
    2d27:	72 0b b0 04                   	add	#0x4b0, r0, r11
    2d2b:	fb ea b1 04                   	mov.l	#0x4b1, r14

00002d2f <.LVL497>:
    2d2f:	43 cb                         	sub	r12, r11
    2d31:	4b 0e                         	add	r0, r14
    2d33:	4b eb                         	add	r14, r11
    2d35:	38 33 fe                      	bra.w	2b68 <.LM534>

00002d38 <.LBE47>:
    2d38:	71 5b 01                      	add	#1, r5, r11
    2d3b:	4b cb                         	add	r12, r11

00002d3d <.LVL499>:
    2d3d:	ef be                         	mov.l	r11, r14
    2d3f:	fd 74 4e 00                   	max	#0, r14
    2d43:	eb 0e 36 01                   	mov.l	r14, 1240[r0]
    2d47:	38 02 fa                      	bra.w	2749 <.LM444>

00002d4a <.LM587>:
    2d4a:	71 cb 01                      	add	#1, r12, r11
    2d4d:	ef be                         	mov.l	r11, r14

00002d4f <.LVL502>:
    2d4f:	fd 74 4e 00                   	max	#0, r14
    2d53:	eb 0e 36 01                   	mov.l	r14, 1240[r0]
    2d57:	75 4a 67                      	mov.l	#103, r10
    2d5a:	38 ef f9                      	bra.w	2749 <.LM444>

00002d5d <.LM588>:
    2d5d:	61 05                         	cmp	#0, r5
    2d5f:	21 48                         	bne.b	2da7 <.LM597>

00002d61 <.LM589>:
    2d61:	ee 0b 34 01                   	mov.l	1232[r0], r11
    2d65:	fd 74 cb 01                   	tst	#1, r11
    2d69:	21 3e                         	bne.b	2da7 <.LM597>
    2d6b:	fa 06 36 01 01                	mov.l	#1, 1240[r0]

00002d70 <.LM590>:
    2d70:	ee 0b 36 01                   	mov.l	1240[r0], r11
    2d74:	38 d5 f9                      	bra.w	2749 <.LM444>

00002d77 <.LM591>:
    2d77:	ee 0a 3b 01                   	mov.l	1260[r0], r10

00002d7b <.LVL505>:
    2d7b:	62 3a                         	add	#3, r10
    2d7d:	75 2a fc                      	and	#-4, r10
    2d80:	ec a5                         	mov.l	[r10], r5

00002d82 <.LVL506>:
    2d82:	62 4a                         	add	#4, r10
    2d84:	eb 0a 3b 01                   	mov.l	r10, 1260[r0]

00002d88 <.LM592>:
    2d88:	61 05                         	cmp	#0, r5
    2d8a:	cd 7a 01                      	mov.b	1[r7], r10

00002d8d <.LVL508>:
    2d8d:	29 5f                         	blt.b	2dec <.LBE36>

00002d8f <.LM593>:
    2d8f:	ef d7                         	mov.l	r13, r7

00002d91 <.LVL509>:
    2d91:	5b aa                         	movu.b	r10, r10
    2d93:	38 38 e8                      	bra.w	15cb <.LM44>

00002d96 <.LBB48>:
    2d96:	7e 1b                         	neg	r11

00002d98 <.LM595>:
    2d98:	fa 04 b0 04 2d                	mov.b	#45, 1200[r0]

00002d9d <.LVL512>:
    2d9d:	38 b3 fd                      	bra.w	2b50 <.LM530>

00002da0 <.LBE48>:
    2da0:	66 2b                         	mov.l	#2, r11
    2da2:	43 cb                         	sub	r12, r11
    2da4:	38 0c ff                      	bra.w	2cb0 <.LM570>

00002da7 <.LM597>:
    2da7:	71 5b 02                      	add	#2, r5, r11
    2daa:	ef be                         	mov.l	r11, r14

00002dac <.LVL515>:
    2dac:	fd 74 4e 00                   	max	#0, r14
    2db0:	eb 0e 36 01                   	mov.l	r14, 1240[r0]
    2db4:	38 95 f9                      	bra.w	2749 <.LM444>

00002db7 <.LBB24>:
    2db7:	fa 06 38 01 ff                	mov.l	#-1, 1248[r0]
    2dbc:	38 f4 eb                      	bra.w	19b0 <.LBE22>

00002dbf <.LBE24>:
    2dbf:	ee 0c 34 01                   	mov.l	1232[r0], r12
    2dc3:	64 1c                         	and	#1, r12
    2dc5:	3b bf fd                      	bne.w	2b84 <.LM540>
    2dc8:	ef be                         	mov.l	r11, r14
    2dca:	fd 74 4e 00                   	max	#0, r14
    2dce:	eb 0e 36 01                   	mov.l	r14, 1240[r0]

00002dd2 <.LM600>:
    2dd2:	eb 0c 3e 01                   	mov.l	r12, 1272[r0]
    2dd6:	38 77 f9                      	bra.w	274d <.LM445>

00002dd9 <.LVL518>:
    2dd9:	ee 0b 30 01                   	mov.l	1216[r0], r11
    2ddd:	38 5f fd                      	bra.w	2b3c <.LM526>

00002de0 <.LBB49>:
    2de0:	72 0b b1 04                   	add	#0x4b1, r0, r11

00002de4 <.LVL520>:
    2de4:	38 84 fd                      	bra.w	2b68 <.LM534>

00002de7 <.LBB36>:
    2de7:	ef be                         	mov.l	r11, r14

00002de9 <.LVL522>:
    2de9:	38 21 f9                      	bra.w	270a <.LM436>

00002dec <.LBE36>:
    2dec:	fb 56 ff                      	mov.l	#-1, r5

00002def <.LM604>:
    2def:	ef d7                         	mov.l	r13, r7

00002df1 <.LVL525>:
    2df1:	5b aa                         	movu.b	r10, r10
    2df3:	38 d8 e7                      	bra.w	15cb <.LM44>

00002df6 <.LFE2>:
    2df6:	ef 00                         	nop

00002df8 <_vfprintf>:
    2df8:	ef 34                         	mov.l	r3, r4

00002dfa <.LM607>:
    2dfa:	fb 32 00 80 00 00             	mov.l	#0x8000, r3

00002e00 <.LM608>:
    2e00:	ef 15                         	mov.l	r1, r5
    2e02:	ef 2e                         	mov.l	r2, r14

00002e04 <.LM609>:
    2e04:	ec 31                         	mov.l	[r3], r1

00002e06 <.LVL528>:
    2e06:	ef 52                         	mov.l	r5, r2

00002e08 <.LVL529>:
    2e08:	ef e3                         	mov.l	r14, r3
    2e0a:	04 76 e6 ff                   	bra.a	1480 <__vfprintf_r>

00002e0e <.LFE1>:
	...

00002e10 <___swsetup_r>:
    2e10:	6e 7a                         	pushm	r7-r10

00002e12 <.LCFI0>:
    2e12:	fb 72 00 80 00 00             	mov.l	#0x8000, r7
    2e18:	ec 7e                         	mov.l	[r7], r14

00002e1a <.LM3>:
    2e1a:	ef 1a                         	mov.l	r1, r10

00002e1c <.LM4>:
    2e1c:	61 0e                         	cmp	#0, r14

00002e1e <.LM5>:
    2e1e:	ef 27                         	mov.l	r2, r7

00002e20 <.LM6>:
    2e20:	11                            	beq.s	2e29 <.LM8>

00002e21 <.LM7>:
    2e21:	ed e4 0e                      	mov.l	56[r14], r4
    2e24:	61 04                         	cmp	#0, r4
    2e26:	3a a7 00                      	beq.w	2ecd <.LM35>

00002e29 <.LM8>:
    2e29:	dd 7e 06                      	mov.w	12[r7], r14
    2e2c:	ef e4                         	mov.l	r14, r4
    2e2e:	64 84                         	and	#8, r4
    2e30:	df 44                         	mov.w	r4, r4
    2e32:	61 04                         	cmp	#0, r4
    2e34:	20 29                         	beq.b	2e5d <.LM17>
    2e36:	a9 74                         	mov.l	16[r7], r4

00002e38 <.LM9>:
    2e38:	61 04                         	cmp	#0, r4
    2e3a:	20 47                         	beq.b	2e81 <.LM23>

00002e3c <.LM10>:
    2e3c:	ef e3                         	mov.l	r14, r3
    2e3e:	64 13                         	and	#1, r3
    2e40:	21 5c                         	bne.b	2e9c <.LM25>

00002e42 <.LM11>:
    2e42:	64 2e                         	and	#2, r14
    2e44:	df ee                         	mov.w	r14, r14
    2e46:	61 0e                         	cmp	#0, r14
    2e48:	18                            	bne.s	2e50 <.LM13>

00002e49 <.LM12>:
    2e49:	a9 7b                         	mov.l	20[r7], r3
    2e4b:	77 10 01 00 00                	mul	#1, r0

00002e50 <.LM13>:
    2e50:	a0 f3                         	mov.l	r3, 8[r7]

00002e52 <.LM14>:
    2e52:	61 04                         	cmp	#0, r4
    2e54:	20 5c                         	beq.b	2eb0 <.LM29>

00002e56 <.LVL2>:
    2e56:	ef 00                         	nop

00002e58 <.LM15>:
    2e58:	66 01                         	mov.l	#0, r1

00002e5a <.LM16>:
    2e5a:	3f 7a 04                      	rtsd	#16, r7-r10

00002e5d <.LM17>:
    2e5d:	ef e4                         	mov.l	r14, r4
    2e5f:	75 24 10                      	and	#16, r4
    2e62:	df 44                         	mov.w	r4, r4
    2e64:	61 04                         	cmp	#0, r4
    2e66:	3a 9c 00                      	beq.w	2f02 <.LM44>

00002e69 <.LM18>:
    2e69:	ef e4                         	mov.l	r14, r4
    2e6b:	64 44                         	and	#4, r4
    2e6d:	df 44                         	mov.w	r4, r4
    2e6f:	61 04                         	cmp	#0, r4
    2e71:	21 65                         	bne.b	2ed6 <.LM36>
    2e73:	a9 74                         	mov.l	16[r7], r4

00002e75 <.LM19>:
    2e75:	ef e3                         	mov.l	r14, r3
    2e77:	65 83                         	or	#8, r3
    2e79:	91 f3                         	mov.w	r3, 12[r7]

00002e7b <.LM20>:
    2e7b:	61 04                         	cmp	#0, r4

00002e7d <.LM21>:
    2e7d:	df 3e                         	mov.w	r3, r14

00002e7f <.LM22>:
    2e7f:	21 bd                         	bne.b	2e3c <.LM10>

00002e81 <.LM23>:
    2e81:	ef e3                         	mov.l	r14, r3
    2e83:	76 23 80 02                   	and	#640, r3
    2e87:	76 03 00 02                   	cmp	#512, r3
    2e8b:	20 b1                         	beq.b	2e3c <.LM10>

00002e8d <.LM24>:
    2e8d:	ef a1                         	mov.l	r10, r1
    2e8f:	ef 72                         	mov.l	r7, r2
    2e91:	05 6f 16 00                   	bsr.a	4500 <___smakebuf_r>

00002e95 <.LVL4>:
    2e95:	dd 7e 06                      	mov.w	12[r7], r14
    2e98:	a9 74                         	mov.l	16[r7], r4
    2e9a:	2e a2                         	bra.b	2e3c <.LM10>

00002e9c <.LM25>:
    2e9c:	ed 7a 05                      	mov.l	20[r7], r10

00002e9f <.LM26>:
    2e9f:	3e 72 00                      	mov.l	#0, 8[r7]

00002ea2 <.LM27>:
    2ea2:	7e 1a                         	neg	r10
    2ea4:	e7 7a 06                      	mov.l	r10, 24[r7]

00002ea7 <.LM28>:
    2ea7:	61 04                         	cmp	#0, r4
    2ea9:	21 af                         	bne.b	2e58 <.LM15>
    2eab:	77 10 01 00 00                	mul	#1, r0

00002eb0 <.LM29>:
    2eb0:	dd 7a 06                      	mov.w	12[r7], r10

00002eb3 <.LM30>:
    2eb3:	ef 41                         	mov.l	r4, r1

00002eb5 <.LM31>:
    2eb5:	ef ae                         	mov.l	r10, r14
    2eb7:	76 2e 80 00                   	and	#128, r14
    2ebb:	df ee                         	mov.w	r14, r14
    2ebd:	61 0e                         	cmp	#0, r14
    2ebf:	20 9b                         	beq.b	2e5a <.LM16>

00002ec1 <.LM32>:
    2ec1:	75 3a 40                      	or	#64, r10
    2ec4:	d7 7a 06                      	mov.w	r10, 12[r7]

00002ec7 <.LM33>:
    2ec7:	fb 16 ff                      	mov.l	#-1, r1

00002eca <.LM34>:
    2eca:	3f 7a 04                      	rtsd	#16, r7-r10

00002ecd <.LM35>:
    2ecd:	ef e1                         	mov.l	r14, r1

00002ecf <.LVL7>:
    2ecf:	05 75 11 00                   	bsr.a	4044 <___sinit>

00002ed3 <.LVL8>:
    2ed3:	38 56 ff                      	bra.w	2e29 <.LM8>

00002ed6 <.LM36>:
    2ed6:	ab 72                         	mov.l	48[r7], r2
    2ed8:	61 02                         	cmp	#0, r2
    2eda:	20 19                         	beq.b	2ef3 <.LM40>

00002edc <.LM37>:
    2edc:	71 74 40                      	add	#64, r7, r4
    2edf:	47 42                         	cmp	r4, r2
    2ee1:	20 0f                         	beq.b	2ef0 <.LM39>

00002ee3 <.LM38>:
    2ee3:	ef a1                         	mov.l	r10, r1
    2ee5:	05 1b 13 00                   	bsr.a	4200 <__free_r>

00002ee9 <.LVL9>:
    2ee9:	dd 7e 06                      	mov.w	12[r7], r14
    2eec:	76 10 01 00                   	mul	#1, r0

00002ef0 <.LM39>:
    2ef0:	3e 7c 00                      	mov.l	#0, 48[r7]

00002ef3 <.LM40>:
    2ef3:	a9 74                         	mov.l	16[r7], r4

00002ef5 <.LM41>:
    2ef5:	77 2e db ff 00                	and	#0xffdb, r14

00002efa <.LM42>:
    2efa:	3e 71 00                      	mov.l	#0, 4[r7]

00002efd <.LM43>:
    2efd:	e3 74                         	mov.l	r4, [r7]
    2eff:	38 76 ff                      	bra.w	2e75 <.LM19>

00002f02 <.LM44>:
    2f02:	f8 a6 09                      	mov.l	#9, [r10]

00002f05 <.LM45>:
    2f05:	75 3e 40                      	or	#64, r14
    2f08:	d7 7e 06                      	mov.w	r14, 12[r7]

00002f0b <.LM46>:
    2f0b:	fb 16 ff                      	mov.l	#-1, r1

00002f0e <.LM47>:
    2f0e:	3f 7a 04                      	rtsd	#16, r7-r10

00002f11 <.LFE0>:
    2f11:	0f                            	bra.s	2f18 <___call_exitprocs>
    2f12:	03                            	nop
    2f13:	03                            	nop
    2f14:	03                            	nop
    2f15:	03                            	nop
    2f16:	03                            	nop
    2f17:	03                            	nop

00002f18 <___call_exitprocs>:
    2f18:	6e 6d                         	pushm	r6-r13

00002f1a <.LCFI0>:
    2f1a:	fb 72 10 78 00 00             	mov.l	#0x7810, r7
    2f20:	ec 77                         	mov.l	[r7], r7
    2f22:	60 c0                         	sub	#12, r0

00002f24 <.LCFI1>:
    2f24:	e3 07                         	mov.l	r7, [r0]

00002f26 <.LM2>:
    2f26:	72 77 48 01                   	add	#328, r7, r7

00002f2a <.LM3>:
    2f2a:	a0 09                         	mov.l	r1, 4[r0]
    2f2c:	ef 2d                         	mov.l	r2, r13

00002f2e <.LM4>:
    2f2e:	a0 87                         	mov.l	r7, 8[r0]

00002f30 <.LBB2>:
    2f30:	66 1c                         	mov.l	#1, r12

00002f32 <.LBE2>:
    2f32:	ec 07                         	mov.l	[r0], r7

00002f34 <.LM7>:
    2f34:	ed 08 02                      	mov.l	8[r0], r8

00002f37 <.LM8>:
    2f37:	ed 76 52                      	mov.l	328[r7], r6

00002f3a <.LM9>:
    2f3a:	61 06                         	cmp	#0, r6
    2f3c:	3a 86 00                      	beq.w	2fc2 <.LM30>

00002f3f <.LM10>:
    2f3f:	ed 6a 01                      	mov.l	4[r6], r10
    2f42:	71 a7 ff                      	add	#-1, r10, r7

00002f45 <.LVL4>:
    2f45:	27 73                         	bn.b	2fb8 <.LM29>

00002f47 <.LM11>:
    2f47:	71 ae 01                      	add	#1, r10, r14
    2f4a:	fd c2 7b                      	shll	#2, r7, r11
    2f4d:	72 6a 88 00                   	add	#136, r6, r10

00002f51 <.LVL5>:
    2f51:	6c 2e                         	shll	#2, r14
    2f53:	4b ba                         	add	r11, r10

00002f55 <.LVL6>:
    2f55:	ff 29 e6                      	add	r14, r6, r9
    2f58:	2e 14                         	bra.b	2f6c <.LBB4>

00002f5a <.LBB3>:
    2f5a:	ed ab 20                      	mov.l	128[r10], r11
    2f5d:	47 db                         	cmp	r13, r11
    2f5f:	20 11                         	beq.b	2f70 <.LM15>

00002f61 <.LBE3>:
    2f61:	60 17                         	sub	#1, r7

00002f63 <.LVL8>:
    2f63:	60 4a                         	sub	#4, r10
    2f65:	60 49                         	sub	#4, r9
    2f67:	75 07 ff                      	cmp	#-1, r7
    2f6a:	20 4e                         	beq.b	2fb8 <.LM29>

00002f6c <.LBB4>:
    2f6c:	61 0d                         	cmp	#0, r13
    2f6e:	21 ec                         	bne.b	2f5a <.LBB3>

00002f70 <.LM15>:
    2f70:	ed 6b 01                      	mov.l	4[r6], r11

00002f73 <.LM16>:
    2f73:	ec 9f                         	mov.l	[r9], r15

00002f75 <.LM17>:
    2f75:	60 1b                         	sub	#1, r11
    2f77:	47 7b                         	cmp	r7, r11
    2f79:	20 50                         	beq.b	2fc9 <.LM32>

00002f7b <.LM18>:
    2f7b:	f8 96 00                      	mov.l	#0, [r9]

00002f7e <.LM19>:
    2f7e:	61 0f                         	cmp	#0, r15
    2f80:	20 e1                         	beq.b	2f61 <.LBE3>

00002f82 <.LM20>:
    2f82:	ef c2                         	mov.l	r12, r2
    2f84:	fd 62 72                      	shll	r7, r2

00002f87 <.LM21>:
    2f87:	06 a1 0c 62 62                	tst	392[r6].l, r2

00002f8c <.LM22>:
    2f8c:	ed 6b 01                      	mov.l	4[r6], r11

00002f8f <.LM23>:
    2f8f:	20 36                         	beq.b	2fc5 <.LBB5>

00002f91 <.LM24>:
    2f91:	06 a1 0c 62 63                	tst	396[r6].l, r2
    2f96:	21 37                         	bne.b	2fcd <.LM33>

00002f98 <.LM25>:
    2f98:	ec a2                         	mov.l	[r10], r2
    2f9a:	a8 09                         	mov.l	4[r0], r1
    2f9c:	7f 1f                         	jsr	r15

00002f9e <.LVL12>:
    2f9e:	ef 00                         	nop

00002fa0 <.LM26>:
    2fa0:	a8 6a                         	mov.l	4[r6], r2
    2fa2:	47 b2                         	cmp	r11, r2
    2fa4:	21 8e                         	bne.b	2f32 <.LBE2>

00002fa6 <.LM27>:
    2fa6:	ec 8b                         	mov.l	[r8], r11

00002fa8 <.LVL13>:
    2fa8:	47 6b                         	cmp	r6, r11
    2faa:	21 88                         	bne.b	2f32 <.LBE2>

00002fac <.LBE4>:
    2fac:	60 17                         	sub	#1, r7

00002fae <.LVL14>:
    2fae:	60 4a                         	sub	#4, r10
    2fb0:	60 49                         	sub	#4, r9
    2fb2:	75 07 ff                      	cmp	#-1, r7
    2fb5:	21 b7                         	bne.b	2f6c <.LBB4>

00002fb7 <.LVL15>:
    2fb7:	03                            	nop

00002fb8 <.LM29>:
    2fb8:	fb 72 00 00 00 00             	mov.l	#0, r7

00002fbe <.LVL16>:
    2fbe:	61 07                         	cmp	#0, r7
    2fc0:	21 13                         	bne.b	2fd3 <.LBE5>

00002fc2 <.LM30>:
    2fc2:	3f 6d 0b                      	rtsd	#44, r6-r13

00002fc5 <.LBB5>:
    2fc5:	7f 1f                         	jsr	r15

00002fc7 <.LVL19>:
    2fc7:	2e d9                         	bra.b	2fa0 <.LM26>

00002fc9 <.LM32>:
    2fc9:	a0 6f                         	mov.l	r7, 4[r6]
    2fcb:	2e b3                         	bra.b	2f7e <.LM19>

00002fcd <.LM33>:
    2fcd:	ec a1                         	mov.l	[r10], r1
    2fcf:	7f 1f                         	jsr	r15

00002fd1 <.LVL22>:
    2fd1:	2e cf                         	bra.b	2fa0 <.LM26>

00002fd3 <.LBE5>:
    2fd3:	a8 6f                         	mov.l	4[r6], r7
    2fd5:	61 07                         	cmp	#0, r7
    2fd7:	ec 67                         	mov.l	[r6], r7
    2fd9:	21 13                         	bne.b	2fec <.LM40>

00002fdb <.LM35>:
    2fdb:	61 07                         	cmp	#0, r7
    2fdd:	20 0f                         	beq.b	2fec <.LM40>

00002fdf <.LM36>:
    2fdf:	ef 61                         	mov.l	r6, r1

00002fe1 <.LM37>:
    2fe1:	e3 87                         	mov.l	r7, [r8]

00002fe3 <.LM38>:
    2fe3:	05 00 00 00                   	bsr.a	2fe3 <.LM38>

00002fe7 <.LM39>:
    2fe7:	ec 86                         	mov.l	[r8], r6

00002fe9 <.LVL25>:
    2fe9:	38 51 ff                      	bra.w	2f3a <.LM9>

00002fec <.LM40>:
    2fec:	ef 68                         	mov.l	r6, r8

00002fee <.LM41>:
    2fee:	ef 76                         	mov.l	r7, r6

00002ff0 <.LVL28>:
    2ff0:	38 4a ff                      	bra.w	2f3a <.LM9>

00002ff3 <.LFE0>:
    2ff3:	77 10 01 00 00                	mul	#1, r0

00002ff8 <_quorem>:
    2ff8:	6e 6d                         	pushm	r6-r13

00002ffa <.LCFI0>:
    2ffa:	ed 2a 04                      	mov.l	16[r2], r10

00002ffd <.LM3>:
    2ffd:	ef 1d                         	mov.l	r1, r13

00002fff <.LM4>:
    2fff:	06 85 1a 04                   	cmp	16[r1].l, r10
    3003:	2b 05                         	ble.b	3008 <.LM5>
    3005:	38 1b 01                      	bra.w	3120 <.LM61>

00003008 <.LM5>:
    3008:	71 a9 04                      	add	#4, r10, r9

0000300b <.LM6>:
    300b:	fe 69 27                      	mov.l	[r9, r2], r7
    300e:	fe 69 1b                      	mov.l	[r9, r1], r11
    3011:	62 17                         	add	#1, r7

00003013 <.LM7>:
    3013:	6c 29                         	shll	#2, r9

00003015 <.LM8>:
    3015:	fc 27 7b                      	divu	r7, r11

00003018 <.LM9>:
    3018:	60 1a                         	sub	#1, r10

0000301a <.LM10>:
    301a:	71 27 14                      	add	#20, r2, r7

0000301d <.LM11>:
    301d:	4b 29                         	add	r2, r9

0000301f <.LM12>:
    301f:	71 1c 14                      	add	#20, r1, r12

00003022 <.LM13>:
    3022:	61 0b                         	cmp	#0, r11
    3024:	3a 87 00                      	beq.w	30ab <.LM38>
    3027:	66 01                         	mov.l	#0, r1

00003029 <.LVL6>:
    3029:	ef 74                         	mov.l	r7, r4
    302b:	ef ce                         	mov.l	r12, r14
    302d:	ef 13                         	mov.l	r1, r3

0000302f <.LVL7>:
    302f:	03                            	nop

00003030 <.LM14>:
    3030:	fd 2a 46                      	mov.l	[r4+], r6

00003033 <.LM15>:
    3033:	ec ef                         	mov.l	[r14], r15

00003035 <.LM16>:
    3035:	ef 68                         	mov.l	r6, r8
    3037:	77 28 ff ff 00                	and	#0xffff, r8
    303c:	4f b8                         	mul	r11, r8
    303e:	4b 18                         	add	r1, r8

00003040 <.LM17>:
    3040:	69 06                         	shlr	#16, r6

00003042 <.LM18>:
    3042:	ef f5                         	mov.l	r15, r5

00003044 <.LM19>:
    3044:	fd 90 81                      	shlr	#16, r8, r1

00003047 <.LM20>:
    3047:	77 25 ff ff 00                	and	#0xffff, r5

0000304c <.LM21>:
    304c:	4f b6                         	mul	r11, r6
    304e:	4b 61                         	add	r6, r1

00003050 <.LM22>:
    3050:	4b 53                         	add	r5, r3

00003052 <.LVL13>:
    3052:	77 28 ff ff 00                	and	#0xffff, r8

00003057 <.LVL14>:
    3057:	ff 05 83                      	sub	r8, r3, r5

0000305a <.LM23>:
    305a:	ef 18                         	mov.l	r1, r8
    305c:	77 28 ff ff 00                	and	#0xffff, r8
    3061:	fd 90 f3                      	shlr	#16, r15, r3
    3064:	43 83                         	sub	r8, r3

00003066 <.LM24>:
    3066:	fd b0 58                      	shar	#16, r5, r8

00003069 <.LM25>:
    3069:	4b 83                         	add	r8, r3

0000306b <.LM26>:
    306b:	fd d0 38                      	shll	#16, r3, r8
    306e:	77 25 ff ff 00                	and	#0xffff, r5
    3073:	57 85                         	or	r8, r5

00003075 <.LM27>:
    3075:	69 01                         	shlr	#16, r1

00003077 <.LM28>:
    3077:	6b 03                         	shar	#16, r3

00003079 <.LM29>:
    3079:	fd 22 e5                      	mov.l	r5, [r14+]

0000307c <.LM30>:
    307c:	47 49                         	cmp	r4, r9
    307e:	22 b2                         	bc.b	3030 <.LM14>

00003080 <.LM31>:
    3080:	71 ae 05                      	add	#5, r10, r14

00003083 <.LVL18>:
    3083:	fe 6e d4                      	mov.l	[r14, r13], r4

00003086 <.LVL19>:
    3086:	61 04                         	cmp	#0, r4
    3088:	21 23                         	bne.b	30ab <.LM38>

0000308a <.LM32>:
    308a:	6c 2e                         	shll	#2, r14
    308c:	4b de                         	add	r13, r14

0000308e <.LM33>:
    308e:	60 4e                         	sub	#4, r14

00003090 <.LVL20>:
    3090:	47 ec                         	cmp	r14, r12
    3092:	23 0e                         	bnc.b	30a0 <.LM36+0x6>
    3094:	2e 14                         	bra.b	30a8 <.LM37>

00003096 <.LM34>:
    3096:	60 4e                         	sub	#4, r14

00003098 <.LM35>:
    3098:	60 1a                         	sub	#1, r10

0000309a <.LM36>:
    309a:	47 ec                         	cmp	r14, r12
    309c:	22 0c                         	bc.b	30a8 <.LM37>
    309e:	ef 00                         	nop
    30a0:	ec e4                         	mov.l	[r14], r4
    30a2:	61 04                         	cmp	#0, r4
    30a4:	20 f2                         	beq.b	3096 <.LM34>
    30a6:	ef 00                         	nop

000030a8 <.LM37>:
    30a8:	e7 da 04                      	mov.l	r10, 16[r13]

000030ab <.LM38>:
    30ab:	ef d1                         	mov.l	r13, r1
    30ad:	05 f3 1f 00                   	bsr.a	50a0 <___mcmp>

000030b1 <.LVL24>:
    30b1:	61 01                         	cmp	#0, r1
    30b3:	29 68                         	blt.b	311b <.LM59>

000030b5 <.LM39>:
    30b5:	62 1b                         	add	#1, r11

000030b7 <.LM40>:
    30b7:	ef ce                         	mov.l	r12, r14

000030b9 <.LM41>:
    30b9:	66 04                         	mov.l	#0, r4

000030bb <.LM42>:
    30bb:	ec e5                         	mov.l	[r14], r5

000030bd <.LM43>:
    30bd:	fd 2a 72                      	mov.l	[r7+], r2

000030c0 <.LM44>:
    30c0:	ef 53                         	mov.l	r5, r3
    30c2:	77 23 ff ff 00                	and	#0xffff, r3
    30c7:	ef 21                         	mov.l	r2, r1
    30c9:	4b 34                         	add	r3, r4

000030cb <.LVL28>:
    30cb:	77 21 ff ff 00                	and	#0xffff, r1

000030d0 <.LVL29>:
    30d0:	ff 03 14                      	sub	r1, r4, r3

000030d3 <.LM45>:
    30d3:	69 02                         	shlr	#16, r2

000030d5 <.LVL31>:
    30d5:	fd 90 54                      	shlr	#16, r5, r4
    30d8:	43 24                         	sub	r2, r4

000030da <.LM46>:
    30da:	fd b0 31                      	shar	#16, r3, r1

000030dd <.LM47>:
    30dd:	4b 14                         	add	r1, r4

000030df <.LM48>:
    30df:	fd d0 42                      	shll	#16, r4, r2

000030e2 <.LVL34>:
    30e2:	77 23 ff ff 00                	and	#0xffff, r3

000030e7 <.LVL35>:
    30e7:	57 23                         	or	r2, r3

000030e9 <.LM49>:
    30e9:	6b 04                         	shar	#16, r4

000030eb <.LM50>:
    30eb:	fd 22 e3                      	mov.l	r3, [r14+]

000030ee <.LM51>:
    30ee:	47 79                         	cmp	r7, r9
    30f0:	22 cb                         	bc.b	30bb <.LM42>

000030f2 <.LM52>:
    30f2:	71 a7 05                      	add	#5, r10, r7

000030f5 <.LVL39>:
    30f5:	fe 67 de                      	mov.l	[r7, r13], r14
    30f8:	61 0e                         	cmp	#0, r14
    30fa:	21 21                         	bne.b	311b <.LM59>

000030fc <.LM53>:
    30fc:	6c 27                         	shll	#2, r7
    30fe:	4b d7                         	add	r13, r7

00003100 <.LM54>:
    3100:	60 47                         	sub	#4, r7
    3102:	47 7c                         	cmp	r7, r12
    3104:	23 0c                         	bnc.b	3110 <.LM57+0x4>
    3106:	2e 12                         	bra.b	3118 <.LM58>

00003108 <.LM55>:
    3108:	60 47                         	sub	#4, r7

0000310a <.LM56>:
    310a:	60 1a                         	sub	#1, r10

0000310c <.LM57>:
    310c:	47 7c                         	cmp	r7, r12
    310e:	22 0a                         	bc.b	3118 <.LM58>
    3110:	ec 7e                         	mov.l	[r7], r14
    3112:	61 0e                         	cmp	#0, r14
    3114:	20 f4                         	beq.b	3108 <.LM55>
    3116:	ef 00                         	nop

00003118 <.LM58>:
    3118:	e7 da 04                      	mov.l	r10, 16[r13]

0000311b <.LM59>:
    311b:	ef b1                         	mov.l	r11, r1

0000311d <.LM60>:
    311d:	3f 6d 08                      	rtsd	#32, r6-r13

00003120 <.LM61>:
    3120:	66 01                         	mov.l	#0, r1

00003122 <.LM62>:
    3122:	3f 6d 08                      	rtsd	#32, r6-r13

00003125 <.LFE0>:
    3125:	fc 13 00                      	nop

00003128 <__dtoa_r>:
    3128:	6e 6d                         	pushm	r6-r13

0000312a <.LCFI1>:
    312a:	71 00 a4                      	add	#-92, r0, r0

0000312d <.LCFI2>:
    312d:	75 47 80                      	mov.l	#128, r7
    3130:	4b 07                         	add	r0, r7
    3132:	ec 7d                         	mov.l	[r7], r13

00003134 <.LM65>:
    3134:	ed 1c 10                      	mov.l	64[r1], r12

00003137 <.LM66>:
    3137:	ed 79 01                      	mov.l	4[r7], r9
    313a:	a8 f7                         	mov.l	8[r7], r7
    313c:	a0 8b                         	mov.l	r3, 12[r0]
    313e:	a1 04                         	mov.l	r4, 16[r0]
    3140:	e7 0d 06                      	mov.l	r13, 24[r0]
    3143:	a0 87                         	mov.l	r7, 8[r0]

00003145 <.LM67>:
    3145:	61 0c                         	cmp	#0, r12

00003147 <.LM68>:
    3147:	ef 1a                         	mov.l	r1, r10
    3149:	ef 2b                         	mov.l	r2, r11

0000314b <.LM69>:
    314b:	20 1a                         	beq.b	3165 <.LM76>

0000314d <.LM70>:
    314d:	ed 1d 11                      	mov.l	68[r1], r13

00003150 <.LM71>:
    3150:	66 17                         	mov.l	#1, r7
    3152:	fd 62 d7                      	shll	r13, r7

00003155 <.LM72>:
    3155:	e7 cd 01                      	mov.l	r13, 4[r12]

00003158 <.LM73>:
    3158:	e7 c7 02                      	mov.l	r7, 8[r12]

0000315b <.LM74>:
    315b:	ef c2                         	mov.l	r12, r2

0000315d <.LVL49>:
    315d:	05 a3 1a 00                   	bsr.a	4c00 <__Bfree>

00003161 <.LM75>:
    3161:	f9 a6 10 00                   	mov.l	#0, 64[r10]

00003165 <.LM76>:
    3165:	71 b7 00                      	add	#0, r11, r7
    3168:	28 53                         	bge.b	31bb <.LM92>

0000316a <.LM77>:
    316a:	ef 7b                         	mov.l	r7, r11

0000316c <.LVL51>:
    316c:	74 2b ff ff ff 7f             	and	#0x7fffffff, r11

00003172 <.LM78>:
    3172:	ef b5                         	mov.l	r11, r5
    3174:	74 25 00 00 80 7f             	and	#0x7f800000, r5

0000317a <.LM79>:
    317a:	f8 96 01                      	mov.l	#1, [r9]

0000317d <.LM80>:
    317d:	74 05 00 00 80 7f             	cmp	#0x7f800000, r5
    3183:	ef bc                         	mov.l	r11, r12
    3185:	21 4b                         	bne.b	31d0 <.LM95>
    3187:	03                            	nop

00003188 <.LM81>:
    3188:	ed 0e 06                      	mov.l	24[r0], r14

0000318b <.LM82>:
    318b:	fd 7c cb ff ff 0f             	tst	#0xfffff, r11

00003191 <.LM83>:
    3191:	f8 ea 0f 27                   	mov.l	#0x270f, [r14]

00003195 <.LM84>:
    3195:	3a d7 02                      	beq.w	346c <.LM196>
    3198:	fb 82 e1 79 00 00             	mov.l	#0x79e1, r8
    319e:	ef 00                         	nop

000031a0 <.LM85>:
    31a0:	a8 87                         	mov.l	8[r0], r7
    31a2:	61 07                         	cmp	#0, r7
    31a4:	20 4f                         	beq.b	31f3 <.LM102>

000031a6 <.LM86>:
    31a6:	59 87 03                      	movu.b	3[r8], r7
    31a9:	61 07                         	cmp	#0, r7
    31ab:	3a ec 02                      	beq.w	3497 <.LM202>

000031ae <.LM87>:
    31ae:	71 87 08                      	add	#8, r8, r7

000031b1 <.LM88>:
    31b1:	ed 0a 02                      	mov.l	8[r0], r10

000031b4 <.LM89>:
    31b4:	ef 81                         	mov.l	r8, r1

000031b6 <.LM90>:
    31b6:	e3 a7                         	mov.l	r7, [r10]

000031b8 <.LM91>:
    31b8:	3f 6d 1f                      	rtsd	#124, r6-r13

000031bb <.LM92>:
    31bb:	ef b5                         	mov.l	r11, r5
    31bd:	74 25 00 00 80 7f             	and	#0x7f800000, r5

000031c3 <.LM93>:
    31c3:	f8 96 00                      	mov.l	#0, [r9]

000031c6 <.LM94>:
    31c6:	74 05 00 00 80 7f             	cmp	#0x7f800000, r5
    31cc:	ef bc                         	mov.l	r11, r12
    31ce:	20 ba                         	beq.b	3188 <.LM81>

000031d0 <.LM95>:
    31d0:	fd 72 1b 00 00 00 00          	fcmp	#0, r11
    31d7:	21 21                         	bne.b	31f8 <.LM103>

000031d9 <.LM96>:
    31d9:	ed 0b 06                      	mov.l	24[r0], r11

000031dc <.LM97>:
    31dc:	ed 0c 02                      	mov.l	8[r0], r12

000031df <.LM98>:
    31df:	f8 b6 01                      	mov.l	#1, [r11]

000031e2 <.LM99>:
    31e2:	61 0c                         	cmp	#0, r12
    31e4:	3a aa 02                      	beq.w	348e <.LM201>

000031e7 <.LM100>:
    31e7:	f8 c2 50 78 00 00             	mov.l	#0x7850, [r12]

000031ed <.LM101>:
    31ed:	fb 82 4f 78 00 00             	mov.l	#0x784f, r8

000031f3 <.LM102>:
    31f3:	ef 81                         	mov.l	r8, r1
    31f5:	3f 6d 1f                      	rtsd	#124, r6-r13

000031f8 <.LM103>:
    31f8:	71 04 04                      	add	#4, r0, r4
    31fb:	ef a1                         	mov.l	r10, r1
    31fd:	ef b2                         	mov.l	r11, r2
    31ff:	ef 03                         	mov.l	r0, r3
    3201:	a4 85                         	mov.l	r5, 72[r0]

00003203 <.LM104>:
    3203:	fd 97 bd                      	shlr	#23, r11, r13

00003206 <.LM105>:
    3206:	05 6a 20 00                   	bsr.a	5270 <___d2b>

0000320a <.LVL61>:
    320a:	a2 89                         	mov.l	r1, 44[r0]

0000320c <.LM106>:
    320c:	76 2d ff 00                   	and	#255, r13

00003210 <.LVL63>:
    3210:	ac 85                         	mov.l	72[r0], r5
    3212:	3b 63 02                      	bne.w	3475 <.LM197>

00003215 <.LM107>:
    3215:	ed 0f 01                      	mov.l	4[r0], r15

00003218 <.LVL65>:
    3218:	ec 0d                         	mov.l	[r0], r13

0000321a <.LM108>:
    321a:	fb 76 8b                      	mov.l	#-117, r7

0000321d <.LM109>:
    321d:	4b fd                         	add	r15, r13

0000321f <.LM110>:
    321f:	43 d7                         	sub	r13, r7
    3221:	ef be                         	mov.l	r11, r14
    3223:	fd 62 7e                      	shll	r7, r14

00003226 <.LVL68>:
    3226:	ef e7                         	mov.l	r14, r7

00003228 <.LM111>:
    3228:	26 05                         	bpz.b	322d <.LM111+0x5>
    322a:	38 e9 08                      	bra.w	3b13 <.LM442>
    322d:	fc 47 e7                      	itof	r14, r7

00003230 <.LM112>:
    3230:	70 77 00 00 80 f0             	add	#0xf0800000, r7, r7

00003236 <.LM113>:
    3236:	60 1d                         	sub	#1, r13

00003238 <.LM114>:
    3238:	3e 08 01                      	mov.l	#1, 32[r0]

0000323b <.LVL72>:
    323b:	77 10 01 00 00                	mul	#1, r0

00003240 <.LM115>:
    3240:	fd 72 07 00 00 c0 3f          	fsub	#0x3fc00000, r7

00003247 <.LVL73>:
    3247:	fd 72 37 3b 3d 94 3e          	fmul	#0x3e943d3b, r7
    324e:	fc 47 de                      	itof	r13, r14
    3251:	fd 72 3e 9b 20 9a 3e          	fmul	#0x3e9a209b, r14
    3258:	fd 72 27 45 51 34 3e          	fadd	#0x3e345145, r7
    325f:	fc 8b e7                      	fadd	r14, r7

00003262 <.LM116>:
    3262:	fc 97 7e                      	ftoi	r7, r14
    3265:	e7 0e 05                      	mov.l	r14, 20[r0]

00003268 <.LM117>:
    3268:	fd 72 17 00 00 00 00          	fcmp	#0, r7
    326f:	26 05                         	bpz.b	3274 <.LM118>
    3271:	38 8b 03                      	bra.w	35fc <.LM254>

00003274 <.LM118>:
    3274:	ed 0e 05                      	mov.l	20[r0], r14
    3277:	61 ae                         	cmp	#10, r14
    3279:	25 05                         	bleu.b	327e <.LM119>
    327b:	38 22 02                      	bra.w	349d <.LM203>

0000327e <.LM119>:
    327e:	fb 72 00 7a 00 00             	mov.l	#0x7a00, r7
    3284:	fe 6e 77                      	mov.l	[r14, r7], r7
    3287:	fc 87 7b                      	fcmp	r7, r11
    328a:	27 05                         	bn.b	328f <.LM120>
    328c:	38 af 05                      	bra.w	383b <.LM344>

0000328f <.LM120>:
    328f:	ef e7                         	mov.l	r14, r7
    3291:	60 17                         	sub	#1, r7
    3293:	a1 0f                         	mov.l	r7, 20[r0]

00003295 <.LM121>:
    3295:	3e 0e 00                      	mov.l	#0, 56[r0]

00003298 <.LM122>:
    3298:	43 df                         	sub	r13, r15
    329a:	60 1f                         	sub	#1, r15

0000329c <.LM123>:
    329c:	26 05                         	bpz.b	32a1 <.LM124>
    329e:	38 70 03                      	bra.w	360e <.LM256>

000032a1 <.LM124>:
    32a1:	3e 07 00                      	mov.l	#0, 28[r0]

000032a4 <.LM125>:
    32a4:	ed 0d 05                      	mov.l	20[r0], r13

000032a7 <.LVL81>:
    32a7:	61 0d                         	cmp	#0, r13
    32a9:	28 05                         	bge.b	32ae <.LM126>
    32ab:	38 6d 03                      	bra.w	3618 <.LM258>

000032ae <.LM126>:
    32ae:	4b df                         	add	r13, r15
    32b0:	e7 0d 0c                      	mov.l	r13, 48[r0]

000032b3 <.LM127>:
    32b3:	3e 09 00                      	mov.l	#0, 36[r0]

000032b6 <.LVL84>:
    32b6:	ef 00                         	nop

000032b8 <.LM128>:
    32b8:	ed 0d 03                      	mov.l	12[r0], r13
    32bb:	61 9d                         	cmp	#9, r13
    32bd:	25 05                         	bleu.b	32c2 <.LM129>
    32bf:	38 e4 01                      	bra.w	34a3 <.LM204>

000032c2 <.LM129>:
    32c2:	61 5d                         	cmp	#5, r13
    32c4:	2a 05                         	bgt.b	32c9 <.LM130>
    32c6:	38 f9 0a                      	bra.w	3dbf <.LM533>

000032c9 <.LM130>:
    32c9:	60 4d                         	sub	#4, r13

000032cb <.LVL86>:
    32cb:	e7 0d 03                      	mov.l	r13, 12[r0]

000032ce <.LM131>:
    32ce:	66 06                         	mov.l	#0, r6

000032d0 <.LM132>:
    32d0:	ed 0e 03                      	mov.l	12[r0], r14
    32d3:	61 3e                         	cmp	#3, r14
    32d5:	3a 4d 08                      	beq.w	3b22 <.LM443>
    32d8:	2b 05                         	ble.b	32dd <.LM132+0xd>
    32da:	38 67 05                      	bra.w	3841 <.LM345>
    32dd:	61 2e                         	cmp	#2, r14
    32df:	3b c7 01                      	bne.w	34a6 <.LM205>

000032e2 <.LM133>:
    32e2:	3e 0a 00                      	mov.l	#0, 40[r0]
    32e5:	fc 13 00                      	nop

000032e8 <.LM134>:
    32e8:	ed 0d 04                      	mov.l	16[r0], r13
    32eb:	61 0d                         	cmp	#0, r13
    32ed:	2a 05                         	bgt.b	32f2 <.LM134+0xa>
    32ef:	38 5a 08                      	bra.w	3b49 <.LM449>
    32f2:	ef d9                         	mov.l	r13, r9
    32f4:	e7 0d 0f                      	mov.l	r13, 60[r0]
    32f7:	ef d7                         	mov.l	r13, r7

000032f9 <.LM135>:
    32f9:	f9 a6 11 00                   	mov.l	#0, 68[r10]
    32fd:	75 59 17                      	cmp	#23, r9
    3300:	24 05                         	bgtu.b	3305 <.LLST15+0x3>
    3302:	38 b8 0a                      	bra.w	3dba <.LM532>
    3305:	66 1e                         	mov.l	#1, r14
    3307:	66 4d                         	mov.l	#4, r13

00003309 <.LM136>:
    3309:	4b dd                         	add	r13, r13

0000330b <.LM137>:
    330b:	ef e2                         	mov.l	r14, r2

0000330d <.LM138>:
    330d:	71 d4 14                      	add	#20, r13, r4
    3310:	62 1e                         	add	#1, r14
    3312:	47 94                         	cmp	r9, r4
    3314:	25 f5                         	bleu.b	3309 <.LM136>
    3316:	e7 a2 11                      	mov.l	r2, 68[r10]

00003319 <.LM139>:
    3319:	f9 02 0d a0 4b 00 00          	mov.l	#0x4ba0, 52[r0]
    3320:	ed 0d 0d                      	mov.l	52[r0], r13
    3323:	a4 85                         	mov.l	r5, 72[r0]
    3325:	e7 0f 11                      	mov.l	r15, 68[r0]
    3328:	ef a1                         	mov.l	r10, r1

0000332a <.LVL94>:
    332a:	7f 1d                         	jsr	r13

0000332c <.LVL95>:
    332c:	e7 a1 10                      	mov.l	r1, 64[r10]

0000332f <.LM140>:
    332f:	61 59                         	cmp	#5, r9

00003331 <.LM141>:
    3331:	ef 18                         	mov.l	r1, r8

00003333 <.LM142>:
    3333:	ac 85                         	mov.l	72[r0], r5
    3335:	ed 0f 11                      	mov.l	68[r0], r15
    3338:	25 05                         	bleu.b	333d <.LM143>
    333a:	38 9a 01                      	bra.w	34d4 <.LM208>

0000333d <.LM143>:
    333d:	61 06                         	cmp	#0, r6
    333f:	3a 95 01                      	beq.w	34d4 <.LM208>

00003342 <.LM144>:
    3342:	ed 0e 05                      	mov.l	20[r0], r14
    3345:	61 0e                         	cmp	#0, r14
    3347:	2a 05                         	bgt.b	334c <.LM145>
    3349:	38 8e 08                      	bra.w	3bd7 <.LM465>

0000334c <.LM145>:
    334c:	ef e4                         	mov.l	r14, r4

0000334e <.LM146>:
    334e:	ef ed                         	mov.l	r14, r13

00003350 <.LM147>:
    3350:	64 f4                         	and	#15, r4

00003352 <.LM148>:
    3352:	6a 4d                         	shar	#4, r13

00003354 <.LM149>:
    3354:	fb e2 00 7a 00 00             	mov.l	#0x7a00, r14

0000335a <.LM150>:
    335a:	fd 74 cd 02                   	tst	#2, r13

0000335e <.LM151>:
    335e:	fe 64 e3                      	mov.l	[r4, r14], r3

00003361 <.LM152>:
    3361:	3a e1 07                      	beq.w	3b42 <.LM447>

00003364 <.LM153>:
    3364:	fb e2 f8 79 00 00             	mov.l	#0x79f8, r14
    336a:	ef b2                         	mov.l	r11, r2

0000336c <.LM154>:
    336c:	64 1d                         	and	#1, r13

0000336e <.LM155>:
    336e:	fc 91 e2 04                   	fdiv	16[r14].l, r2

00003372 <.LM156>:
    3372:	66 34                         	mov.l	#3, r4

00003374 <.LM157>:
    3374:	61 0d                         	cmp	#0, r13
    3376:	20 1c                         	beq.b	3392 <.LM162>
    3378:	fb e2 f8 79 00 00             	mov.l	#0x79f8, r14

0000337e <.LVL102>:
    337e:	ef 00                         	nop

00003380 <.LM158>:
    3380:	fd 74 cd 01                   	tst	#1, r13
    3384:	16                            	beq.s	338a <.LM161>

00003385 <.LM159>:
    3385:	fc 8c e3                      	fmul	[r14].l, r3

00003388 <.LM160>:
    3388:	62 14                         	add	#1, r4

0000338a <.LM161>:
    338a:	6a 1d                         	shar	#1, r13
    338c:	62 4e                         	add	#4, r14
    338e:	61 0d                         	cmp	#0, r13
    3390:	21 f0                         	bne.b	3380 <.LM158>

00003392 <.LM162>:
    3392:	fc 93 32                      	fdiv	r3, r2

00003395 <.LVL106>:
    3395:	fc 13 00                      	nop

00003398 <.LM163>:
    3398:	ed 0d 0e                      	mov.l	56[r0], r13
    339b:	61 0d                         	cmp	#0, r13
    339d:	20 0e                         	beq.b	33ab <.LM165>

0000339f <.LM164>:
    339f:	fd 72 12 00 00 80 3f          	fcmp	#0x3f800000, r2
    33a6:	26 05                         	bpz.b	33ab <.LM165>
    33a8:	38 60 09                      	bra.w	3d08 <.LM513>

000033ab <.LM165>:
    33ab:	fc 47 44                      	itof	r4, r4

000033ae <.LVL108>:
    33ae:	fc 8f 24                      	fmul	r2, r4
    33b1:	fd 72 24 00 00 e0 40          	fadd	#0x40e00000, r4

000033b8 <.LM166>:
    33b8:	70 41 00 00 80 f4             	add	#0xf4800000, r4, r1

000033be <.LM167>:
    33be:	61 07                         	cmp	#0, r7
    33c0:	3a 08 07                      	beq.w	3ac8 <.LM437>
    33c3:	ed 0e 05                      	mov.l	20[r0], r14
    33c6:	ef 79                         	mov.l	r7, r9
    33c8:	e7 0e 10                      	mov.l	r14, 64[r0]

000033cb <.LM168>:
    33cb:	ed 0d 0a                      	mov.l	40[r0], r13
    33ce:	61 0d                         	cmp	#0, r13
    33d0:	3a 77 08                      	beq.w	3c47 <.LM481>

000033d3 <.LM169>:
    33d3:	71 94 ff                      	add	#-1, r9, r4
    33d6:	6c 24                         	shll	#2, r4

000033d8 <.LM170>:
    33d8:	fc 97 2e                      	ftoi	r2, r14

000033db <.LM171>:
    33db:	70 44 00 7a 00 00             	add	#0x7a00, r4, r4
    33e1:	fb d2 00 00 00 3f             	mov.l	#0x3f000000, r13

000033e7 <.LM172>:
    33e7:	71 e3 30                      	add	#48, r14, r3

000033ea <.LM173>:
    33ea:	fc 90 4d                      	fdiv	[r4].l, r13

000033ed <.LM174>:
    33ed:	fc 47 ee                      	itof	r14, r14
    33f0:	fc 83 e2                      	fsub	r14, r2

000033f3 <.LM175>:
    33f3:	ef 86                         	mov.l	r8, r6

000033f5 <.LM176>:
    33f5:	fc 83 1d                      	fsub	r1, r13

000033f8 <.LM177>:
    33f8:	fd 20 63                      	mov.b	r3, [r6+]

000033fb <.LM178>:
    33fb:	fc 87 d2                      	fcmp	r13, r2

000033fe <.LM179>:
    33fe:	ef 2e                         	mov.l	r2, r14

00003400 <.LM180>:
    3400:	26 05                         	bpz.b	3405 <.LM181>
    3402:	38 9c 09                      	bra.w	3d9e <.LM530>

00003405 <.LM181>:
    3405:	fb 12 00 00 80 3f             	mov.l	#0x3f800000, r1
    340b:	ef 14                         	mov.l	r1, r4
    340d:	fc 83 24                      	fsub	r2, r4
    3410:	fc 87 d4                      	fcmp	r13, r4
    3413:	26 05                         	bpz.b	3418 <.LM182>
    3415:	38 80 09                      	bra.w	3d95 <.LM529>

00003418 <.LM182>:
    3418:	61 19                         	cmp	#1, r9
    341a:	2a 05                         	bgt.b	341f <.LM182+0x7>
    341c:	38 b8 00                      	bra.w	34d4 <.LM208>
    341f:	ef 64                         	mov.l	r6, r4

00003421 <.LM183>:
    3421:	4b 89                         	add	r8, r9

00003423 <.LVL118>:
    3423:	2e 15                         	bra.b	3438 <.LM186>

00003425 <.LM184>:
    3425:	ef 12                         	mov.l	r1, r2
    3427:	fc 83 e2                      	fsub	r14, r2
    342a:	fc 87 d2                      	fcmp	r13, r2
    342d:	26 05                         	bpz.b	3432 <.LM185>
    342f:	38 3c 09                      	bra.w	3d6b <.L83>

00003432 <.LM185>:
    3432:	47 94                         	cmp	r9, r4
    3434:	3a a0 00                      	beq.w	34d4 <.LM208>

00003437 <.LVL120>:
    3437:	03                            	nop

00003438 <.LM186>:
    3438:	fd 72 3e 00 00 20 41          	fmul	#0x41200000, r14

0000343f <.LM187>:
    343f:	fc 97 e2                      	ftoi	r14, r2

00003442 <.LM188>:
    3442:	71 23 30                      	add	#48, r2, r3

00003445 <.LM189>:
    3445:	fc 47 22                      	itof	r2, r2

00003448 <.LM190>:
    3448:	fd 72 3d 00 00 20 41          	fmul	#0x41200000, r13

0000344f <.LM191>:
    344f:	fc 83 2e                      	fsub	r2, r14

00003452 <.LM192>:
    3452:	fd 20 43                      	mov.b	r3, [r4+]

00003455 <.LM193>:
    3455:	fc 87 de                      	fcmp	r13, r14

00003458 <.LM194>:
    3458:	ef 46                         	mov.l	r4, r6

0000345a <.LM195>:
    345a:	26 cb                         	bpz.b	3425 <.LM184>
    345c:	ed 0e 10                      	mov.l	64[r0], r14

0000345f <.LVL125>:
    345f:	e7 0e 05                      	mov.l	r14, 20[r0]

00003462 <.LVL126>:
    3462:	f9 02 08 00 4c 00 00          	mov.l	#0x4c00, 32[r0]
    3469:	38 af 03                      	bra.w	3818 <.L82>

0000346c <.LM196>:
    346c:	fb 82 d8 79 00 00             	mov.l	#0x79d8, r8
    3472:	38 2e fd                      	bra.w	31a0 <.LM85>

00003475 <.LM197>:
    3475:	ef b7                         	mov.l	r11, r7
    3477:	77 27 ff ff 7f                	and	#0x7fffff, r7

0000347c <.LM198>:
    347c:	74 37 00 00 80 3f             	or	#0x3f800000, r7

00003482 <.LM199>:
    3482:	71 dd 81                      	add	#-127, r13, r13

00003485 <.LVL130>:
    3485:	ed 0f 01                      	mov.l	4[r0], r15

00003488 <.LM200>:
    3488:	3e 08 00                      	mov.l	#0, 32[r0]
    348b:	38 b5 fd                      	bra.w	3240 <.LM115>

0000348e <.LM201>:
    348e:	fb 82 4f 78 00 00             	mov.l	#0x784f, r8
    3494:	38 5f fd                      	bra.w	31f3 <.LM102>

00003497 <.LM202>:
    3497:	71 87 03                      	add	#3, r8, r7
    349a:	38 17 fd                      	bra.w	31b1 <.LM88>

0000349d <.LM203>:
    349d:	3e 0e 01                      	mov.l	#1, 56[r0]
    34a0:	38 f8 fd                      	bra.w	3298 <.LM122>

000034a3 <.LM204>:
    34a3:	3e 03 00                      	mov.l	#0, 12[r0]

000034a6 <.LM205>:
    34a6:	f9 02 0d a0 4b 00 00          	mov.l	#0x4ba0, 52[r0]

000034ad <.LM206>:
    34ad:	f9 a6 11 00                   	mov.l	#0, 68[r10]

000034b1 <.LM207>:
    34b1:	ed 0d 0d                      	mov.l	52[r0], r13
    34b4:	a4 85                         	mov.l	r5, 72[r0]
    34b6:	e7 0f 11                      	mov.l	r15, 68[r0]
    34b9:	ef a1                         	mov.l	r10, r1

000034bb <.LVL136>:
    34bb:	66 02                         	mov.l	#0, r2
    34bd:	7f 1d                         	jsr	r13

000034bf <.LVL137>:
    34bf:	fb 76 ff                      	mov.l	#-1, r7
    34c2:	ac 85                         	mov.l	72[r0], r5
    34c4:	ed 0f 11                      	mov.l	68[r0], r15
    34c7:	ef 18                         	mov.l	r1, r8
    34c9:	e7 a1 10                      	mov.l	r1, 64[r10]

000034cc <.LVL138>:
    34cc:	3e 04 00                      	mov.l	#0, 16[r0]
    34cf:	a3 8f                         	mov.l	r7, 60[r0]
    34d1:	3e 0a 01                      	mov.l	#1, 40[r0]

000034d4 <.LM208>:
    34d4:	ec 0d                         	mov.l	[r0], r13
    34d6:	61 0d                         	cmp	#0, r13
    34d8:	28 05                         	bge.b	34dd <.LM209>
    34da:	38 d2 00                      	bra.w	35ac <.LM239>

000034dd <.LM209>:
    34dd:	ed 0e 05                      	mov.l	20[r0], r14
    34e0:	61 6e                         	cmp	#6, r14
    34e2:	2b 05                         	ble.b	34e7 <.LM210>
    34e4:	38 c8 00                      	bra.w	35ac <.LM239>

000034e7 <.LM210>:
    34e7:	fb c2 00 7a 00 00             	mov.l	#0x7a00, r12
    34ed:	fe 6e c4                      	mov.l	[r14, r12], r4

000034f0 <.LM211>:
    34f0:	ed 0c 04                      	mov.l	16[r0], r12
    34f3:	61 0c                         	cmp	#0, r12
    34f5:	28 05                         	bge.b	34fa <.LM212>
    34f7:	38 9f 03                      	bra.w	3896 <.LM356>

000034fa <.LM212>:
    34fa:	ef bd                         	mov.l	r11, r13
    34fc:	fc 93 4d                      	fdiv	r4, r13
    34ff:	fc 97 dd                      	ftoi	r13, r13

00003502 <.LM213>:
    3502:	fc 47 dc                      	itof	r13, r12
    3505:	fc 8f 4c                      	fmul	r4, r12

00003508 <.LM214>:
    3508:	71 de 30                      	add	#48, r13, r14
    350b:	ef 86                         	mov.l	r8, r6

0000350d <.LM215>:
    350d:	fc 83 cb                      	fsub	r12, r11

00003510 <.LM216>:
    3510:	fd 20 6e                      	mov.b	r14, [r6+]

00003513 <.LM217>:
    3513:	61 17                         	cmp	#1, r7
    3515:	20 48                         	beq.b	355d <.LM227>

00003517 <.LM218>:
    3517:	fd 72 3b 00 00 20 41          	fmul	#0x41200000, r11

0000351e <.LVL145>:
    351e:	fd 72 1b 00 00 00 00          	fcmp	#0, r11
    3525:	ef 6e                         	mov.l	r6, r14
    3527:	21 16                         	bne.b	353d <.LM219>
    3529:	38 39 ff                      	bra.w	3462 <.LVL126>

0000352c <.LVL146>:
    352c:	fd 72 3b 00 00 20 41          	fmul	#0x41200000, r11

00003533 <.LVL147>:
    3533:	fd 72 1b 00 00 00 00          	fcmp	#0, r11
    353a:	3a 28 ff                      	beq.w	3462 <.LVL126>

0000353d <.LM219>:
    353d:	ef bd                         	mov.l	r11, r13

0000353f <.LVL149>:
    353f:	fc 93 4d                      	fdiv	r4, r13
    3542:	fc 97 dd                      	ftoi	r13, r13

00003545 <.LM220>:
    3545:	71 dc 30                      	add	#48, r13, r12
    3548:	fd 20 ec                      	mov.b	r12, [r14+]

0000354b <.LM221>:
    354b:	fc 47 dc                      	itof	r13, r12
    354e:	fc 8f 4c                      	fmul	r4, r12

00003551 <.LM222>:
    3551:	ff 03 8e                      	sub	r8, r14, r3

00003554 <.LM223>:
    3554:	fc 83 cb                      	fsub	r12, r11

00003557 <.LM224>:
    3557:	47 37                         	cmp	r3, r7

00003559 <.LM225>:
    3559:	ef e6                         	mov.l	r14, r6

0000355b <.LM226>:
    355b:	21 d1                         	bne.b	352c <.LVL146>

0000355d <.LM227>:
    355d:	fc 8b bb                      	fadd	r11, r11

00003560 <.LM228>:
    3560:	fc 87 b4                      	fcmp	r11, r4
    3563:	27 0d                         	bn.b	3570 <.LM229+0xb>

00003565 <.LM229>:
    3565:	3b fd fe                      	bne.w	3462 <.LVL126>
    3568:	fd 74 cd 01                   	tst	#1, r13
    356c:	3a f6 fe                      	beq.w	3462 <.LVL126>
    356f:	03                            	nop
    3570:	71 67 ff                      	add	#-1, r6, r7

00003573 <.LVL154>:
    3573:	cc 73                         	mov.b	[r7], r3
    3575:	0d                            	bra.s	357a <.LM230>

00003576 <.LVL155>:
    3576:	cc c3                         	mov.b	[r12], r3
    3578:	ef 76                         	mov.l	r7, r6

0000357a <.LM230>:
    357a:	71 67 ff                      	add	#-1, r6, r7

0000357d <.LVL157>:
    357d:	5b 3b                         	movu.b	r3, r11

0000357f <.LM231>:
    357f:	71 7c ff                      	add	#-1, r7, r12

00003582 <.LM232>:
    3582:	75 5b 39                      	cmp	#57, r11
    3585:	3b 63 07                      	bne.w	3ce8 <.LVL408>

00003588 <.LM233>:
    3588:	47 78                         	cmp	r7, r8
    358a:	21 ec                         	bne.b	3576 <.LVL155>

0000358c <.LM234>:
    358c:	ed 0d 05                      	mov.l	20[r0], r13

0000358f <.LM235>:
    358f:	f8 84 30                      	mov.b	#48, [r8]

00003592 <.LM236>:
    3592:	62 1d                         	add	#1, r13
    3594:	e7 0d 05                      	mov.l	r13, 20[r0]

00003597 <.LM237>:
    3597:	ef 87                         	mov.l	r8, r7

00003599 <.LVL159>:
    3599:	75 43 31                      	mov.l	#49, r3

0000359c <.LVL160>:
    359c:	76 10 01 00                   	mul	#1, r0

000035a0 <.LM238>:
    35a0:	c3 73                         	mov.b	r3, [r7]

000035a2 <.LVL161>:
    35a2:	f9 02 08 00 4c 00 00          	mov.l	#0x4c00, 32[r0]
    35a9:	38 6f 02                      	bra.w	3818 <.L82>

000035ac <.LM239>:
    35ac:	ed 0b 0a                      	mov.l	40[r0], r11

000035af <.LVL163>:
    35af:	61 0b                         	cmp	#0, r11
    35b1:	20 7d                         	beq.b	362e <.LM265>

000035b3 <.LM240>:
    35b3:	ed 0e 03                      	mov.l	12[r0], r14
    35b6:	61 1e                         	cmp	#1, r14
    35b8:	2a 05                         	bgt.b	35bd <.LM241>
    35ba:	38 18 03                      	bra.w	38d2 <.LM366>

000035bd <.LM241>:
    35bd:	aa 0c                         	mov.l	36[r0], r4

000035bf <.LM242>:
    35bf:	71 76 ff                      	add	#-1, r7, r6

000035c2 <.LM243>:
    35c2:	47 64                         	cmp	r6, r4
    35c4:	28 05                         	bge.b	35c9 <.LM244>
    35c6:	38 68 05                      	bra.w	3b2e <.LM445>

000035c9 <.LM244>:
    35c9:	ff 06 64                      	sub	r6, r4, r6

000035cc <.LM245>:
    35cc:	61 07                         	cmp	#0, r7

000035ce <.LM246>:
    35ce:	ed 09 07                      	mov.l	28[r0], r9

000035d1 <.LM247>:
    35d1:	28 05                         	bge.b	35d6 <.LM247+0x5>
    35d3:	38 0e 07                      	bra.w	3ce1 <.LM506>
    35d6:	ef 7d                         	mov.l	r7, r13

000035d8 <.LM248>:
    35d8:	ed 0e 07                      	mov.l	28[r0], r14

000035db <.LM249>:
    35db:	4b df                         	add	r13, r15

000035dd <.LM250>:
    35dd:	4b de                         	add	r13, r14

000035df <.LM251>:
    35df:	a4 85                         	mov.l	r5, 72[r0]
    35e1:	e7 0f 11                      	mov.l	r15, 68[r0]
    35e4:	fb b2 08 4e 00 00             	mov.l	#0x4e08, r11
    35ea:	ef a1                         	mov.l	r10, r1
    35ec:	66 12                         	mov.l	#1, r2

000035ee <.LM252>:
    35ee:	e7 0e 07                      	mov.l	r14, 28[r0]

000035f1 <.LM253>:
    35f1:	7f 1b                         	jsr	r11

000035f3 <.LVL168>:
    35f3:	ef 1d                         	mov.l	r1, r13

000035f5 <.LVL169>:
    35f5:	ac 85                         	mov.l	72[r0], r5
    35f7:	ed 0f 11                      	mov.l	68[r0], r15
    35fa:	2e 42                         	bra.b	363c <.LM268>

000035fc <.LM254>:
    35fc:	fc 47 ee                      	itof	r14, r14

000035ff <.LVL171>:
    35ff:	fc 87 7e                      	fcmp	r7, r14
    3602:	3a 72 fc                      	beq.w	3274 <.LM118>

00003605 <.LM255>:
    3605:	a9 0f                         	mov.l	20[r0], r7

00003607 <.LVL172>:
    3607:	60 17                         	sub	#1, r7
    3609:	a1 0f                         	mov.l	r7, 20[r0]

0000360b <.LVL173>:
    360b:	38 69 fc                      	bra.w	3274 <.LM118>

0000360e <.LM256>:
    360e:	7e 1f                         	neg	r15

00003610 <.LVL175>:
    3610:	e7 0f 07                      	mov.l	r15, 28[r0]

00003613 <.LM257>:
    3613:	66 0f                         	mov.l	#0, r15

00003615 <.LVL177>:
    3615:	38 8f fc                      	bra.w	32a4 <.LM125>

00003618 <.LM258>:
    3618:	ed 0e 07                      	mov.l	28[r0], r14

0000361b <.LM259>:
    361b:	a9 0f                         	mov.l	20[r0], r7

0000361d <.LM260>:
    361d:	06 81 0e 05                   	sub	20[r0].l, r14

00003621 <.LM261>:
    3621:	7e 17                         	neg	r7

00003623 <.LM262>:
    3623:	e7 0e 07                      	mov.l	r14, 28[r0]

00003626 <.LM263>:
    3626:	a2 0f                         	mov.l	r7, 36[r0]

00003628 <.LM264>:
    3628:	3e 0c 00                      	mov.l	#0, 48[r0]
    362b:	38 8d fc                      	bra.w	32b8 <.LM128>

0000362e <.LM265>:
    362e:	aa 0e                         	mov.l	36[r0], r6

00003630 <.LM266>:
    3630:	ed 09 07                      	mov.l	28[r0], r9

00003633 <.LM267>:
    3633:	ed 0d 0a                      	mov.l	40[r0], r13
    3636:	fb b2 08 4e 00 00             	mov.l	#0x4e08, r11

0000363c <.LM268>:
    363c:	61 09                         	cmp	#0, r9
    363e:	20 15                         	beq.b	3653 <.LM276>

00003640 <.LM269>:
    3640:	61 0f                         	cmp	#0, r15
    3642:	2b 11                         	ble.b	3653 <.LM276>

00003644 <.LM270>:
    3644:	ef fe                         	mov.l	r15, r14

00003646 <.LM271>:
    3646:	a9 8c                         	mov.l	28[r0], r4

00003648 <.LM272>:
    3648:	fc 17 9e                      	min	r9, r14

0000364b <.LM273>:
    364b:	43 e4                         	sub	r14, r4
    364d:	a1 8c                         	mov.l	r4, 28[r0]

0000364f <.LM274>:
    364f:	43 e9                         	sub	r14, r9

00003651 <.LM275>:
    3651:	43 ef                         	sub	r14, r15

00003653 <.LM276>:
    3653:	ed 0e 09                      	mov.l	36[r0], r14
    3656:	61 0e                         	cmp	#0, r14
    3658:	2a 05                         	bgt.b	365d <.LM277>
    365a:	38 0d 04                      	bra.w	3a67 <.LVL315>

0000365d <.LM277>:
    365d:	ed 0e 0a                      	mov.l	40[r0], r14
    3660:	61 0e                         	cmp	#0, r14
    3662:	3a 91 04                      	beq.w	3af3 <.LM441>

00003665 <.LM278>:
    3665:	61 06                         	cmp	#0, r6
    3667:	2a 05                         	bgt.b	366c <.LM279>
    3669:	38 23 02                      	bra.w	388c <.LVL251>

0000366c <.LM279>:
    366c:	ef d2                         	mov.l	r13, r2
    366e:	ef 63                         	mov.l	r6, r3
    3670:	ef a1                         	mov.l	r10, r1
    3672:	a4 85                         	mov.l	r5, 72[r0]
    3674:	e7 0f 11                      	mov.l	r15, 68[r0]
    3677:	05 d9 18 00                   	bsr.a	4f50 <___pow5mult>

0000367b <.LVL187>:
    367b:	ef 1d                         	mov.l	r1, r13

0000367d <.LM280>:
    367d:	aa 8b                         	mov.l	44[r0], r3
    367f:	ef d2                         	mov.l	r13, r2
    3681:	ef a1                         	mov.l	r10, r1

00003683 <.LVL189>:
    3683:	05 9d 17 00                   	bsr.a	4e20 <___multiply>

00003687 <.LM281>:
    3687:	f9 02 08 00 4c 00 00          	mov.l	#0x4c00, 32[r0]

0000368e <.LM282>:
    368e:	ef 1e                         	mov.l	r1, r14

00003690 <.LM283>:
    3690:	aa 8a                         	mov.l	44[r0], r2
    3692:	aa 03                         	mov.l	32[r0], r3
    3694:	e7 0e 13                      	mov.l	r14, 76[r0]
    3697:	ef a1                         	mov.l	r10, r1

00003699 <.LVL192>:
    3699:	7f 13                         	jsr	r3

0000369b <.LM284>:
    369b:	ed 0e 13                      	mov.l	76[r0], r14
    369e:	ed 0f 11                      	mov.l	68[r0], r15
    36a1:	ac 85                         	mov.l	72[r0], r5
    36a3:	e7 0e 0b                      	mov.l	r14, 44[r0]

000036a6 <.LVL194>:
    36a6:	ef 00                         	nop

000036a8 <.LM285>:
    36a8:	aa 0b                         	mov.l	36[r0], r3
    36aa:	43 63                         	sub	r6, r3

000036ac <.LVL195>:
    36ac:	3b fc 04                      	bne.w	3ba8 <.LM462>

000036af <.LVL196>:
    36af:	03                            	nop

000036b0 <.LM286>:
    36b0:	a4 85                         	mov.l	r5, 72[r0]
    36b2:	e7 0f 11                      	mov.l	r15, 68[r0]
    36b5:	ef a1                         	mov.l	r10, r1
    36b7:	66 12                         	mov.l	#1, r2
    36b9:	7f 1b                         	jsr	r11

000036bb <.LM287>:
    36bb:	ab 04                         	mov.l	48[r0], r4

000036bd <.LM288>:
    36bd:	ef 1b                         	mov.l	r1, r11

000036bf <.LM289>:
    36bf:	61 04                         	cmp	#0, r4
    36c1:	ac 85                         	mov.l	72[r0], r5
    36c3:	ed 0f 11                      	mov.l	68[r0], r15
    36c6:	2b 13                         	ble.b	36d9 <.LM291>

000036c8 <.LM290>:
    36c8:	ef b2                         	mov.l	r11, r2
    36ca:	ef a1                         	mov.l	r10, r1

000036cc <.LVL199>:
    36cc:	ef 43                         	mov.l	r4, r3
    36ce:	05 82 18 00                   	bsr.a	4f50 <___pow5mult>

000036d2 <.LVL200>:
    36d2:	ed 0f 11                      	mov.l	68[r0], r15
    36d5:	ac 85                         	mov.l	72[r0], r5
    36d7:	ef 1b                         	mov.l	r1, r11

000036d9 <.LM291>:
    36d9:	ed 0e 03                      	mov.l	12[r0], r14
    36dc:	61 1e                         	cmp	#1, r14
    36de:	2a 05                         	bgt.b	36e3 <.LM292>
    36e0:	38 91 01                      	bra.w	3871 <.LM350>

000036e3 <.LM292>:
    36e3:	66 0c                         	mov.l	#0, r12

000036e5 <.LVL202>:
    36e5:	fc 13 00                      	nop

000036e8 <.LM293>:
    36e8:	ed 0e 0c                      	mov.l	48[r0], r14
    36eb:	61 0e                         	cmp	#0, r14
    36ed:	3b 5f 03                      	bne.w	3a4c <.LM425>
    36f0:	66 11                         	mov.l	#1, r1

000036f2 <.LM294>:
    36f2:	ff 2e f1                      	add	r15, r1, r14
    36f5:	75 2e 1f                      	and	#31, r14

000036f8 <.LVL204>:
    36f8:	3a ed 01                      	beq.w	38e5 <.LM369>

000036fb <.LM295>:
    36fb:	75 44 20                      	mov.l	#32, r4
    36fe:	43 e4                         	sub	r14, r4

00003700 <.LM296>:
    3700:	61 44                         	cmp	#4, r4
    3702:	2a 05                         	bgt.b	3707 <.LM297>
    3704:	38 aa 06                      	bra.w	3dae <.LM531>

00003707 <.LM297>:
    3707:	75 44 1c                      	mov.l	#28, r4

0000370a <.LVL206>:
    370a:	ff 0e e4                      	sub	r14, r4, r14

0000370d <.LVL207>:
    370d:	fc 13 00                      	nop

00003710 <.LM298>:
    3710:	a9 8c                         	mov.l	28[r0], r4

00003712 <.LM299>:
    3712:	4b e9                         	add	r14, r9

00003714 <.LM300>:
    3714:	4b e4                         	add	r14, r4
    3716:	a1 8c                         	mov.l	r4, 28[r0]

00003718 <.LM301>:
    3718:	4b ef                         	add	r14, r15

0000371a <.LM302>:
    371a:	ed 0e 07                      	mov.l	28[r0], r14
    371d:	61 0e                         	cmp	#0, r14
    371f:	2b 14                         	ble.b	3733 <.LM304>

00003721 <.LM303>:
    3721:	aa 8a                         	mov.l	44[r0], r2
    3723:	ef a1                         	mov.l	r10, r1
    3725:	ef e3                         	mov.l	r14, r3
    3727:	e7 0f 11                      	mov.l	r15, 68[r0]
    372a:	05 c6 18 00                   	bsr.a	4ff0 <___lshift>

0000372e <.LVL211>:
    372e:	ed 0f 11                      	mov.l	68[r0], r15
    3731:	a2 89                         	mov.l	r1, 44[r0]

00003733 <.LM304>:
    3733:	61 0f                         	cmp	#0, r15
    3735:	2b 0e                         	ble.b	3743 <.LM306>

00003737 <.LM305>:
    3737:	ef b2                         	mov.l	r11, r2
    3739:	ef a1                         	mov.l	r10, r1
    373b:	ef f3                         	mov.l	r15, r3
    373d:	05 b3 18 00                   	bsr.a	4ff0 <___lshift>

00003741 <.LVL213>:
    3741:	ef 1b                         	mov.l	r1, r11

00003743 <.LM306>:
    3743:	ab 84                         	mov.l	56[r0], r4
    3745:	61 04                         	cmp	#0, r4
    3747:	3b cf 02                      	bne.w	3a16 <.LM419>

0000374a <.LM307>:
    374a:	61 07                         	cmp	#0, r7
    374c:	2a 05                         	bgt.b	3751 <.LM308>
    374e:	38 23 03                      	bra.w	3a71 <.LM426>

00003751 <.LM308>:
    3751:	ed 0e 0a                      	mov.l	40[r0], r14
    3754:	61 0e                         	cmp	#0, r14
    3756:	3b 95 01                      	bne.w	38eb <.LM370>
    3759:	f9 02 09 f8 2f 00 00          	mov.l	#0x2ff8, 36[r0]
    3760:	e7 0d 03                      	mov.l	r13, 12[r0]
    3763:	ef 89                         	mov.l	r8, r9

00003765 <.LM309>:
    3765:	fb c2 20 4c 00 00             	mov.l	#0x4c20, r12

0000376b <.LVL217>:
    376b:	ed 0d 0b                      	mov.l	44[r0], r13

0000376e <.LVL218>:
    376e:	aa 0e                         	mov.l	36[r0], r6

00003770 <.LVL219>:
    3770:	0d                            	bra.s	3775 <.LM310>

00003771 <.LVL220>:
    3771:	7f 1c                         	jsr	r12

00003773 <.LVL221>:
    3773:	ef 1d                         	mov.l	r1, r13

00003775 <.LM310>:
    3775:	ef b2                         	mov.l	r11, r2
    3777:	ef d1                         	mov.l	r13, r1
    3779:	7f 16                         	jsr	r6

0000377b <.LVL223>:
    377b:	71 1e 30                      	add	#48, r1, r14

0000377e <.LVL224>:
    377e:	fd 20 9e                      	mov.b	r14, [r9+]

00003781 <.LM311>:
    3781:	ff 0f 89                      	sub	r8, r9, r15

00003784 <.LM312>:
    3784:	47 f7                         	cmp	r15, r7

00003786 <.LM313>:
    3786:	ef a1                         	mov.l	r10, r1
    3788:	ef d2                         	mov.l	r13, r2
    378a:	66 a3                         	mov.l	#10, r3
    378c:	66 04                         	mov.l	#0, r4

0000378e <.LM314>:
    378e:	2a e3                         	bgt.b	3771 <.LVL220>

00003790 <.LM315>:
    3790:	fd 74 47 01                   	max	#1, r7

00003794 <.LVL227>:
    3794:	e7 0d 0b                      	mov.l	r13, 44[r0]
    3797:	ed 0d 03                      	mov.l	12[r0], r13

0000379a <.LVL228>:
    379a:	ff 26 78                      	add	r7, r8, r6
    379d:	f9 02 07 a0 50 00 00          	mov.l	#0x50a0, 28[r0]

000037a4 <.LM316>:
    37a4:	66 07                         	mov.l	#0, r7

000037a6 <.LVL229>:
    37a6:	ef 00                         	nop

000037a8 <.LM317>:
    37a8:	aa 8a                         	mov.l	44[r0], r2
    37aa:	66 13                         	mov.l	#1, r3
    37ac:	ef a1                         	mov.l	r10, r1
    37ae:	e7 0e 13                      	mov.l	r14, 76[r0]
    37b1:	05 3f 18 00                   	bsr.a	4ff0 <___lshift>

000037b5 <.LM318>:
    37b5:	ed 0c 07                      	mov.l	28[r0], r12
    37b8:	ef b2                         	mov.l	r11, r2

000037ba <.LM319>:
    37ba:	a2 89                         	mov.l	r1, 44[r0]

000037bc <.LM320>:
    37bc:	7f 1c                         	jsr	r12

000037be <.LM321>:
    37be:	61 01                         	cmp	#0, r1
    37c0:	ed 0e 13                      	mov.l	76[r0], r14
    37c3:	2a 05                         	bgt.b	37c8 <.L142>
    37c5:	38 fa 03                      	bra.w	3bbf <.LM463>

000037c8 <.L142>:
    37c8:	71 6c ff                      	add	#-1, r6, r12
    37cb:	cc ce                         	mov.b	[r12], r14
    37cd:	0d                            	bra.s	37d2 <.LM322>

000037ce <.LVL233>:
    37ce:	cc 3e                         	mov.b	[r3], r14
    37d0:	ef c6                         	mov.l	r12, r6

000037d2 <.LM322>:
    37d2:	71 6c ff                      	add	#-1, r6, r12

000037d5 <.LVL235>:
    37d5:	5b e4                         	movu.b	r14, r4

000037d7 <.LM323>:
    37d7:	71 c3 ff                      	add	#-1, r12, r3

000037da <.LM324>:
    37da:	75 54 39                      	cmp	#57, r4
    37dd:	3b 63 04                      	bne.w	3c40 <.LM480>

000037e0 <.LM325>:
    37e0:	47 c8                         	cmp	r12, r8
    37e2:	21 ec                         	bne.b	37ce <.LVL233>

000037e4 <.LM326>:
    37e4:	ed 0e 05                      	mov.l	20[r0], r14

000037e7 <.LM327>:
    37e7:	f8 84 31                      	mov.b	#49, [r8]

000037ea <.LM328>:
    37ea:	62 1e                         	add	#1, r14
    37ec:	e7 0e 05                      	mov.l	r14, 20[r0]

000037ef <.LVL236>:
    37ef:	03                            	nop

000037f0 <.L135>:
    37f0:	ef b2                         	mov.l	r11, r2
    37f2:	ed 0b 08                      	mov.l	32[r0], r11

000037f5 <.LVL237>:
    37f5:	ef a1                         	mov.l	r10, r1
    37f7:	7f 1b                         	jsr	r11

000037f9 <.LM330>:
    37f9:	61 0d                         	cmp	#0, r13
    37fb:	20 1d                         	beq.b	3818 <.L82>

000037fd <.LM331>:
    37fd:	61 07                         	cmp	#0, r7
    37ff:	20 0d                         	beq.b	380c <.LM334>

00003801 <.LM332>:
    3801:	47 d7                         	cmp	r13, r7
    3803:	11                            	beq.s	380c <.LM334>

00003804 <.LM333>:
    3804:	ef a1                         	mov.l	r10, r1
    3806:	ef 72                         	mov.l	r7, r2
    3808:	05 f8 13 00                   	bsr.a	4c00 <__Bfree>

0000380c <.LM334>:
    380c:	ed 0c 08                      	mov.l	32[r0], r12
    380f:	ef a1                         	mov.l	r10, r1
    3811:	ef d2                         	mov.l	r13, r2
    3813:	7f 1c                         	jsr	r12

00003815 <.LVL240>:
    3815:	fc 13 00                      	nop

00003818 <.L82>:
    3818:	aa 07                         	mov.l	32[r0], r7
    381a:	aa 8a                         	mov.l	44[r0], r2
    381c:	ef a1                         	mov.l	r10, r1
    381e:	7f 17                         	jsr	r7

00003820 <.LM336>:
    3820:	a9 0f                         	mov.l	20[r0], r7
    3822:	ed 0a 06                      	mov.l	24[r0], r10

00003825 <.LM337>:
    3825:	ed 0b 02                      	mov.l	8[r0], r11

00003828 <.LM338>:
    3828:	62 17                         	add	#1, r7

0000382a <.LM339>:
    382a:	3c 60 00                      	mov.b	#0, [r6]

0000382d <.LM340>:
    382d:	e3 a7                         	mov.l	r7, [r10]

0000382f <.LM341>:
    382f:	61 0b                         	cmp	#0, r11
    3831:	3a c2 f9                      	beq.w	31f3 <.LM102>

00003834 <.LM342>:
    3834:	e3 b6                         	mov.l	r6, [r11]

00003836 <.LM343>:
    3836:	ef 81                         	mov.l	r8, r1
    3838:	3f 6d 1f                      	rtsd	#124, r6-r13

0000383b <.LM344>:
    383b:	3e 0e 00                      	mov.l	#0, 56[r0]
    383e:	38 5a fa                      	bra.w	3298 <.LM122>

00003841 <.LM345>:
    3841:	a8 8f                         	mov.l	12[r0], r7
    3843:	61 47                         	cmp	#4, r7
    3845:	3a e3 02                      	beq.w	3b28 <.LM444>
    3848:	61 57                         	cmp	#5, r7
    384a:	3b 5c fc                      	bne.w	34a6 <.LM205>

0000384d <.LM346>:
    384d:	3e 0a 01                      	mov.l	#1, 40[r0]

00003850 <.LM347>:
    3850:	ed 0e 04                      	mov.l	16[r0], r14

00003853 <.LVL246>:
    3853:	06 89 0e 05                   	add	20[r0].l, r14
    3857:	ef e9                         	mov.l	r14, r9
    3859:	62 19                         	add	#1, r9

0000385b <.LVL247>:
    385b:	e7 0e 0f                      	mov.l	r14, 60[r0]

0000385e <.LM348>:
    385e:	71 97 00                      	add	#0, r9, r7
    3861:	2b 05                         	ble.b	3866 <.LVL248>
    3863:	38 96 fa                      	bra.w	32f9 <.LM135>

00003866 <.LVL248>:
    3866:	ef 00                         	nop

00003868 <.LM349>:
    3868:	f9 a6 11 00                   	mov.l	#0, 68[r10]
    386c:	66 02                         	mov.l	#0, r2
    386e:	38 ab fa                      	bra.w	3319 <.LM139>

00003871 <.LM350>:
    3871:	fd 7c cc ff ff 7f             	tst	#0x7fffff, r12
    3877:	3b 6c fe                      	bne.w	36e3 <.LM292>

0000387a <.LM351>:
    387a:	61 05                         	cmp	#0, r5
    387c:	3a 71 04                      	beq.w	3ced <.LM508>

0000387f <.LM352>:
    387f:	a9 8c                         	mov.l	28[r0], r4

00003881 <.LM353>:
    3881:	62 1f                         	add	#1, r15

00003883 <.LM354>:
    3883:	62 14                         	add	#1, r4
    3885:	a1 8c                         	mov.l	r4, 28[r0]

00003887 <.LM355>:
    3887:	66 1c                         	mov.l	#1, r12
    3889:	38 5f fe                      	bra.w	36e8 <.LM293>

0000388c <.LVL251>:
    388c:	f9 02 08 00 4c 00 00          	mov.l	#0x4c00, 32[r0]
    3893:	38 15 fe                      	bra.w	36a8 <.LM285>

00003896 <.LM356>:
    3896:	61 07                         	cmp	#0, r7
    3898:	2b 05                         	ble.b	389d <.LM357>
    389a:	38 60 fc                      	bra.w	34fa <.LM212>

0000389d <.LM357>:
    389d:	3b 48 02                      	bne.w	3ae5 <.LM440>

000038a0 <.LM358>:
    38a0:	fd 72 34 00 00 a0 40          	fmul	#0x40a00000, r4

000038a7 <.LVL254>:
    38a7:	fc 87 b4                      	fcmp	r11, r4
    38aa:	f9 02 08 00 4c 00 00          	mov.l	#0x4c00, 32[r0]

000038b1 <.LM359>:
    38b1:	ef 7b                         	mov.l	r7, r11

000038b3 <.LVL255>:
    38b3:	ef 7d                         	mov.l	r7, r13

000038b5 <.LM360>:
    38b5:	26 05                         	bpz.b	38ba <.L80>
    38b7:	38 e9 01                      	bra.w	3aa0 <.L79>

000038ba <.L80>:
    38ba:	a9 07                         	mov.l	16[r0], r7

000038bc <.LM362>:
    38bc:	ef 86                         	mov.l	r8, r6

000038be <.LM363>:
    38be:	7e 07                         	not	r7
    38c0:	a1 0f                         	mov.l	r7, 20[r0]

000038c2 <.LM364>:
    38c2:	aa 07                         	mov.l	32[r0], r7
    38c4:	ef a1                         	mov.l	r10, r1
    38c6:	ef b2                         	mov.l	r11, r2
    38c8:	7f 17                         	jsr	r7

000038ca <.LM365>:
    38ca:	61 0d                         	cmp	#0, r13
    38cc:	3b 40 ff                      	bne.w	380c <.LM334>
    38cf:	38 49 ff                      	bra.w	3818 <.L82>

000038d2 <.LM366>:
    38d2:	aa 03                         	mov.l	32[r0], r3
    38d4:	61 03                         	cmp	#0, r3
    38d6:	3a 1c 04                      	beq.w	3cf2 <.LM509>

000038d9 <.LM367>:
    38d9:	72 dd 96 00                   	add	#150, r13, r13
    38dd:	aa 0e                         	mov.l	36[r0], r6

000038df <.LM368>:
    38df:	ed 09 07                      	mov.l	28[r0], r9
    38e2:	38 f6 fc                      	bra.w	35d8 <.LM248>

000038e5 <.LM369>:
    38e5:	75 4e 1c                      	mov.l	#28, r14

000038e8 <.LVL261>:
    38e8:	38 28 fe                      	bra.w	3710 <.LM298>

000038eb <.LM370>:
    38eb:	61 09                         	cmp	#0, r9
    38ed:	2b 0e                         	ble.b	38fb <.LM372>

000038ef <.LM371>:
    38ef:	ef d2                         	mov.l	r13, r2
    38f1:	ef a1                         	mov.l	r10, r1
    38f3:	ef 93                         	mov.l	r9, r3
    38f5:	05 fb 16 00                   	bsr.a	4ff0 <___lshift>

000038f9 <.LVL263>:
    38f9:	ef 1d                         	mov.l	r1, r13

000038fb <.LM372>:
    38fb:	61 0c                         	cmp	#0, r12
    38fd:	3b 18 03                      	bne.w	3c15 <.LM475>
    3900:	ef dc                         	mov.l	r13, r12

00003902 <.LM373>:
    3902:	71 8e ff                      	add	#-1, r8, r14
    3905:	4b 7e                         	add	r7, r14

00003907 <.LM374>:
    3907:	ef b6                         	mov.l	r11, r6

00003909 <.LVL266>:
    3909:	ed 0b 0b                      	mov.l	44[r0], r11

0000390c <.LVL267>:
    390c:	f9 02 07 a0 50 00 00          	mov.l	#0x50a0, 28[r0]

00003913 <.LM375>:
    3913:	e7 0e 0a                      	mov.l	r14, 40[r0]
    3916:	ef d7                         	mov.l	r13, r7

00003918 <.LVL268>:
    3918:	f9 02 09 f8 2f 00 00          	mov.l	#0x2ff8, 36[r0]

0000391f <.LM376>:
    391f:	fb 92 20 4c 00 00             	mov.l	#0x4c20, r9

00003925 <.LVL269>:
    3925:	e7 08 0c                      	mov.l	r8, 48[r0]

00003928 <.LM377>:
    3928:	ed 0d 09                      	mov.l	36[r0], r13
    392b:	ef 62                         	mov.l	r6, r2
    392d:	ef b1                         	mov.l	r11, r1
    392f:	7f 1d                         	jsr	r13

00003931 <.LM378>:
    3931:	ed 0e 07                      	mov.l	28[r0], r14

00003934 <.LM379>:
    3934:	a1 01                         	mov.l	r1, 16[r0]

00003936 <.LM380>:
    3936:	ef 72                         	mov.l	r7, r2
    3938:	ef b1                         	mov.l	r11, r1
    393a:	7f 1e                         	jsr	r14

0000393c <.LM381>:
    393c:	ef c3                         	mov.l	r12, r3

0000393e <.LM382>:
    393e:	ef 1d                         	mov.l	r1, r13

00003940 <.LM383>:
    3940:	ef 62                         	mov.l	r6, r2
    3942:	ef a1                         	mov.l	r10, r1
    3944:	05 94 17 00                   	bsr.a	50d8 <___mdiff>

00003948 <.LM384>:
    3948:	ed 0e 04                      	mov.l	16[r0], r14

0000394b <.LM385>:
    394b:	a8 9b                         	mov.l	12[r1], r3

0000394d <.LM386>:
    394d:	71 ee 30                      	add	#48, r14, r14

00003950 <.LM387>:
    3950:	61 03                         	cmp	#0, r3

00003952 <.LM388>:
    3952:	ef 14                         	mov.l	r1, r4

00003954 <.LM389>:
    3954:	20 62                         	beq.b	39b6 <.LM407>

00003956 <.LM390>:
    3956:	aa 03                         	mov.l	32[r0], r3
    3958:	e7 0e 13                      	mov.l	r14, 76[r0]
    395b:	ef a1                         	mov.l	r10, r1

0000395d <.LVL277>:
    395d:	ef 42                         	mov.l	r4, r2
    395f:	7f 13                         	jsr	r3

00003961 <.LVL278>:
    3961:	ed 0e 13                      	mov.l	76[r0], r14

00003964 <.LM391>:
    3964:	66 13                         	mov.l	#1, r3

00003966 <.LM392>:
    3966:	61 0d                         	cmp	#0, r13
    3968:	28 05                         	bge.b	396d <.LM393>
    396a:	38 ec 01                      	bra.w	3b56 <.LVL345>

0000396d <.LM393>:
    396d:	19                            	bne.s	3976 <.LM395>

0000396e <.LM394>:
    396e:	ed 0d 03                      	mov.l	12[r0], r13

00003971 <.LVL280>:
    3971:	61 0d                         	cmp	#0, r13
    3973:	3a e3 01                      	beq.w	3b56 <.LVL345>

00003976 <.LM395>:
    3976:	61 03                         	cmp	#0, r3
    3978:	2b 05                         	ble.b	397d <.LM396>
    397a:	38 43 03                      	bra.w	3cbd <.LVL399>

0000397d <.LM396>:
    397d:	ef 8d                         	mov.l	r8, r13
    397f:	fd 20 de                      	mov.b	r14, [r13+]

00003982 <.LM397>:
    3982:	06 85 08 0a                   	cmp	40[r0].l, r8
    3986:	3a 4c 03                      	beq.w	3cd2 <.LVL402>

00003989 <.LM398>:
    3989:	ef b2                         	mov.l	r11, r2
    398b:	ef a1                         	mov.l	r10, r1
    398d:	66 a3                         	mov.l	#10, r3
    398f:	66 04                         	mov.l	#0, r4
    3991:	7f 19                         	jsr	r9

00003993 <.LM399>:
    3993:	47 c7                         	cmp	r12, r7

00003995 <.LM400>:
    3995:	ef 1b                         	mov.l	r1, r11

00003997 <.LM401>:
    3997:	20 6c                         	beq.b	3a03 <.LM417>

00003999 <.LM402>:
    3999:	ef 72                         	mov.l	r7, r2
    399b:	66 a3                         	mov.l	#10, r3
    399d:	66 04                         	mov.l	#0, r4
    399f:	ef a1                         	mov.l	r10, r1

000039a1 <.LVL284>:
    39a1:	7f 19                         	jsr	r9

000039a3 <.LM403>:
    39a3:	ef c2                         	mov.l	r12, r2

000039a5 <.LM404>:
    39a5:	ef 17                         	mov.l	r1, r7

000039a7 <.LM405>:
    39a7:	66 a3                         	mov.l	#10, r3
    39a9:	ef a1                         	mov.l	r10, r1

000039ab <.LVL287>:
    39ab:	66 04                         	mov.l	#0, r4
    39ad:	7f 19                         	jsr	r9

000039af <.LVL288>:
    39af:	ef 1c                         	mov.l	r1, r12

000039b1 <.LM406>:
    39b1:	ef d8                         	mov.l	r13, r8
    39b3:	38 75 ff                      	bra.w	3928 <.LM377>

000039b6 <.LM407>:
    39b6:	ef 42                         	mov.l	r4, r2
    39b8:	ef b1                         	mov.l	r11, r1

000039ba <.LVL291>:
    39ba:	e7 0e 13                      	mov.l	r14, 76[r0]
    39bd:	a4 0c                         	mov.l	r4, 68[r0]
    39bf:	05 e1 16 00                   	bsr.a	50a0 <___mcmp>

000039c3 <.LM408>:
    39c3:	ac 0c                         	mov.l	68[r0], r4

000039c5 <.LM409>:
    39c5:	ef 13                         	mov.l	r1, r3

000039c7 <.LM410>:
    39c7:	ef 42                         	mov.l	r4, r2
    39c9:	aa 04                         	mov.l	32[r0], r4
    39cb:	a4 0b                         	mov.l	r3, 68[r0]
    39cd:	ef a1                         	mov.l	r10, r1

000039cf <.LVL294>:
    39cf:	7f 14                         	jsr	r4

000039d1 <.LM411>:
    39d1:	ac 0b                         	mov.l	68[r0], r3
    39d3:	ed 0e 13                      	mov.l	76[r0], r14
    39d6:	61 03                         	cmp	#0, r3
    39d8:	21 8e                         	bne.b	3966 <.LM392>
    39da:	a8 8c                         	mov.l	12[r0], r4
    39dc:	61 04                         	cmp	#0, r4
    39de:	21 88                         	bne.b	3966 <.LM392>
    39e0:	e7 0b 0b                      	mov.l	r11, 44[r0]

000039e3 <.LM412>:
    39e3:	75 5e 39                      	cmp	#57, r14
    39e6:	ef 6b                         	mov.l	r6, r11

000039e8 <.LVL296>:
    39e8:	ef 84                         	mov.l	r8, r4
    39ea:	a9 06                         	mov.l	16[r0], r6

000039ec <.LVL297>:
    39ec:	ed 08 0c                      	mov.l	48[r0], r8

000039ef <.LVL298>:
    39ef:	3a aa 01                      	beq.w	3b99 <.L133>

000039f2 <.LM413>:
    39f2:	61 0d                         	cmp	#0, r13
    39f4:	2b 05                         	ble.b	39f9 <.LM415>

000039f6 <.LM414>:
    39f6:	71 6e 31                      	add	#49, r6, r14

000039f9 <.LM415>:
    39f9:	ef 46                         	mov.l	r4, r6
    39fb:	fd 20 6e                      	mov.b	r14, [r6+]

000039fe <.LM416>:
    39fe:	ef cd                         	mov.l	r12, r13
    3a00:	38 f0 fd                      	bra.w	37f0 <.L135>

00003a03 <.LM417>:
    3a03:	ef 72                         	mov.l	r7, r2
    3a05:	ef a1                         	mov.l	r10, r1

00003a07 <.LVL302>:
    3a07:	66 a3                         	mov.l	#10, r3
    3a09:	66 04                         	mov.l	#0, r4
    3a0b:	7f 19                         	jsr	r9

00003a0d <.LVL303>:
    3a0d:	ef 17                         	mov.l	r1, r7

00003a0f <.LVL304>:
    3a0f:	ef 1c                         	mov.l	r1, r12

00003a11 <.LM418>:
    3a11:	ef d8                         	mov.l	r13, r8
    3a13:	38 15 ff                      	bra.w	3928 <.LM377>

00003a16 <.LM419>:
    3a16:	aa 89                         	mov.l	44[r0], r1
    3a18:	ef b2                         	mov.l	r11, r2
    3a1a:	05 86 16 00                   	bsr.a	50a0 <___mcmp>

00003a1e <.LVL307>:
    3a1e:	61 01                         	cmp	#0, r1
    3a20:	29 05                         	blt.b	3a25 <.LM420>
    3a22:	38 28 fd                      	bra.w	374a <.LM307>

00003a25 <.LM420>:
    3a25:	aa 8a                         	mov.l	44[r0], r2
    3a27:	fb 72 20 4c 00 00             	mov.l	#0x4c20, r7

00003a2d <.LVL308>:
    3a2d:	ef a1                         	mov.l	r10, r1
    3a2f:	66 a3                         	mov.l	#10, r3
    3a31:	66 04                         	mov.l	#0, r4
    3a33:	7f 17                         	jsr	r7

00003a35 <.LM421>:
    3a35:	ed 0e 05                      	mov.l	20[r0], r14

00003a38 <.LM422>:
    3a38:	a2 89                         	mov.l	r1, 44[r0]

00003a3a <.LM423>:
    3a3a:	60 1e                         	sub	#1, r14
    3a3c:	e7 0e 05                      	mov.l	r14, 20[r0]

00003a3f <.LM424>:
    3a3f:	ed 0e 0a                      	mov.l	40[r0], r14

00003a42 <.LVL311>:
    3a42:	61 0e                         	cmp	#0, r14
    3a44:	3b 3b 03                      	bne.w	3d7f <.LM527>
    3a47:	ab 8f                         	mov.l	60[r0], r7
    3a49:	38 01 fd                      	bra.w	374a <.LM307>

00003a4c <.LM425>:
    3a4c:	ed be 04                      	mov.l	16[r11], r14
    3a4f:	62 4e                         	add	#4, r14
    3a51:	fe 6e b1                      	mov.l	[r14, r11], r1

00003a54 <.LVL313>:
    3a54:	e7 0f 11                      	mov.l	r15, 68[r0]
    3a57:	05 e9 12 00                   	bsr.a	4d40 <___hi0bits>

00003a5b <.LVL314>:
    3a5b:	75 4e 20                      	mov.l	#32, r14
    3a5e:	ff 01 1e                      	sub	r1, r14, r1
    3a61:	ed 0f 11                      	mov.l	68[r0], r15
    3a64:	38 8e fc                      	bra.w	36f2 <.LM294>

00003a67 <.LVL315>:
    3a67:	f9 02 08 00 4c 00 00          	mov.l	#0x4c00, 32[r0]
    3a6e:	38 42 fc                      	bra.w	36b0 <.LM286>

00003a71 <.LM426>:
    3a71:	ed 0e 03                      	mov.l	12[r0], r14
    3a74:	61 2e                         	cmp	#2, r14
    3a76:	2a 05                         	bgt.b	3a7b <.LM427>
    3a78:	38 d9 fc                      	bra.w	3751 <.LM308>

00003a7b <.LM427>:
    3a7b:	61 07                         	cmp	#0, r7
    3a7d:	3b 3d fe                      	bne.w	38ba <.L80>

00003a80 <.LM428>:
    3a80:	ef b2                         	mov.l	r11, r2
    3a82:	66 53                         	mov.l	#5, r3
    3a84:	ef 74                         	mov.l	r7, r4
    3a86:	ef a1                         	mov.l	r10, r1
    3a88:	05 98 11 00                   	bsr.a	4c20 <___multadd>

00003a8c <.LVL317>:
    3a8c:	ef 1b                         	mov.l	r1, r11

00003a8e <.LVL318>:
    3a8e:	aa 89                         	mov.l	44[r0], r1

00003a90 <.LVL319>:
    3a90:	ef b2                         	mov.l	r11, r2
    3a92:	05 0e 16 00                   	bsr.a	50a0 <___mcmp>

00003a96 <.LVL320>:
    3a96:	61 01                         	cmp	#0, r1
    3a98:	2a 05                         	bgt.b	3a9d <.LVL321>
    3a9a:	38 20 fe                      	bra.w	38ba <.L80>

00003a9d <.LVL321>:
    3a9d:	fc 13 00                      	nop

00003aa0 <.L79>:
    3aa0:	ed 0e 05                      	mov.l	20[r0], r14

00003aa3 <.LM430>:
    3aa3:	ef 86                         	mov.l	r8, r6
    3aa5:	75 4c 31                      	mov.l	#49, r12

00003aa8 <.LM431>:
    3aa8:	62 1e                         	add	#1, r14

00003aaa <.LM432>:
    3aaa:	fd 20 6c                      	mov.b	r12, [r6+]

00003aad <.LM433>:
    3aad:	e7 0e 05                      	mov.l	r14, 20[r0]

00003ab0 <.LM434>:
    3ab0:	38 12 fe                      	bra.w	38c2 <.LM364>

00003ab3 <.LM435>:
    3ab3:	fc 47 44                      	itof	r4, r4

00003ab6 <.LVL325>:
    3ab6:	fc 8f 24                      	fmul	r2, r4
    3ab9:	fd 72 24 00 00 e0 40          	fadd	#0x40e00000, r4

00003ac0 <.LM436>:
    3ac0:	70 41 00 00 80 f4             	add	#0xf4800000, r4, r1

00003ac6 <.LVL327>:
    3ac6:	ef 00                         	nop

00003ac8 <.LM437>:
    3ac8:	fd 72 02 00 00 a0 40          	fsub	#0x40a00000, r2

00003acf <.LM438>:
    3acf:	fc 87 21                      	fcmp	r2, r1
    3ad2:	26 05                         	bpz.b	3ad7 <.LM439>
    3ad4:	38 db 01                      	bra.w	3caf <.LM502>

00003ad7 <.LM439>:
    3ad7:	70 11 00 00 00 80             	add	#0x80000000, r1, r1

00003add <.LVL329>:
    3add:	fc 87 12                      	fcmp	r1, r2
    3ae0:	27 05                         	bn.b	3ae5 <.LM440>
    3ae2:	38 f2 f9                      	bra.w	34d4 <.LM208>

00003ae5 <.LM440>:
    3ae5:	66 0b                         	mov.l	#0, r11
    3ae7:	ef bd                         	mov.l	r11, r13
    3ae9:	f9 02 08 00 4c 00 00          	mov.l	#0x4c00, 32[r0]
    3af0:	38 ca fd                      	bra.w	38ba <.L80>

00003af3 <.LM441>:
    3af3:	aa 8a                         	mov.l	44[r0], r2
    3af5:	aa 0b                         	mov.l	36[r0], r3
    3af7:	ef a1                         	mov.l	r10, r1
    3af9:	a4 85                         	mov.l	r5, 72[r0]
    3afb:	e7 0f 11                      	mov.l	r15, 68[r0]
    3afe:	05 52 14 00                   	bsr.a	4f50 <___pow5mult>

00003b02 <.LVL332>:
    3b02:	a2 89                         	mov.l	r1, 44[r0]

00003b04 <.LVL333>:
    3b04:	f9 02 08 00 4c 00 00          	mov.l	#0x4c00, 32[r0]
    3b0b:	ed 0f 11                      	mov.l	68[r0], r15
    3b0e:	ac 85                         	mov.l	72[r0], r5
    3b10:	38 a0 fb                      	bra.w	36b0 <.LM286>

00003b13 <.LM442>:
    3b13:	68 17                         	shlr	#1, r7

00003b15 <.LVL335>:
    3b15:	64 1e                         	and	#1, r14

00003b17 <.LVL336>:
    3b17:	57 7e                         	or	r7, r14
    3b19:	fc 47 e7                      	itof	r14, r7
    3b1c:	fc 8b 77                      	fadd	r7, r7
    3b1f:	38 11 f7                      	bra.w	3230 <.LM112>

00003b22 <.LM443>:
    3b22:	3e 0a 00                      	mov.l	#0, 40[r0]
    3b25:	38 2b fd                      	bra.w	3850 <.LM347>

00003b28 <.LM444>:
    3b28:	3e 0a 01                      	mov.l	#1, 40[r0]
    3b2b:	38 bd f7                      	bra.w	32e8 <.LM134>

00003b2e <.LM445>:
    3b2e:	ed 0d 09                      	mov.l	36[r0], r13
    3b31:	a2 0e                         	mov.l	r6, 36[r0]
    3b33:	ff 0b d6                      	sub	r13, r6, r11

00003b36 <.LVL339>:
    3b36:	06 89 0b 0c                   	add	48[r0].l, r11

00003b3a <.LVL340>:
    3b3a:	e7 0b 0c                      	mov.l	r11, 48[r0]

00003b3d <.LM446>:
    3b3d:	66 06                         	mov.l	#0, r6

00003b3f <.LVL342>:
    3b3f:	38 8d fa                      	bra.w	35cc <.LM245>

00003b42 <.LM447>:
    3b42:	ef b2                         	mov.l	r11, r2

00003b44 <.LM448>:
    3b44:	66 24                         	mov.l	#2, r4
    3b46:	38 2e f8                      	bra.w	3374 <.LM157>

00003b49 <.LM449>:
    3b49:	66 19                         	mov.l	#1, r9

00003b4b <.LM450>:
    3b4b:	e7 09 0f                      	mov.l	r9, 60[r0]
    3b4e:	ef 97                         	mov.l	r9, r7
    3b50:	e7 09 04                      	mov.l	r9, 16[r0]
    3b53:	38 15 fd                      	bra.w	3868 <.LM349>

00003b56 <.LVL345>:
    3b56:	e7 0b 0b                      	mov.l	r11, 44[r0]

00003b59 <.LM451>:
    3b59:	61 03                         	cmp	#0, r3
    3b5b:	ef 6b                         	mov.l	r6, r11

00003b5d <.LVL346>:
    3b5d:	ef 84                         	mov.l	r8, r4
    3b5f:	a9 06                         	mov.l	16[r0], r6

00003b61 <.LVL347>:
    3b61:	ed 08 0c                      	mov.l	48[r0], r8

00003b64 <.LM452>:
    3b64:	ef ed                         	mov.l	r14, r13

00003b66 <.LM453>:
    3b66:	2a 05                         	bgt.b	3b6b <.LM454>
    3b68:	38 91 fe                      	bra.w	39f9 <.LM415>

00003b6b <.LM454>:
    3b6b:	aa 8a                         	mov.l	44[r0], r2
    3b6d:	66 13                         	mov.l	#1, r3
    3b6f:	ef a1                         	mov.l	r10, r1
    3b71:	a4 0c                         	mov.l	r4, 68[r0]
    3b73:	e7 0e 13                      	mov.l	r14, 76[r0]
    3b76:	05 7a 14 00                   	bsr.a	4ff0 <___lshift>

00003b7a <.LM455>:
    3b7a:	a9 8b                         	mov.l	28[r0], r3
    3b7c:	ef b2                         	mov.l	r11, r2

00003b7e <.LM456>:
    3b7e:	a2 89                         	mov.l	r1, 44[r0]

00003b80 <.LM457>:
    3b80:	7f 13                         	jsr	r3

00003b82 <.LM458>:
    3b82:	61 01                         	cmp	#0, r1
    3b84:	ac 0c                         	mov.l	68[r0], r4
    3b86:	ed 0e 13                      	mov.l	76[r0], r14
    3b89:	2a 05                         	bgt.b	3b8e <.Ldebug_abbrev0+0x3>
    3b8b:	38 e7 01                      	bra.w	3d72 <.LM526>
    3b8e:	ef 00                         	nop

00003b90 <.LM459>:
    3b90:	71 6e 31                      	add	#49, r6, r14

00003b93 <.LVL352>:
    3b93:	75 5d 39                      	cmp	#57, r13
    3b96:	3b 63 fe                      	bne.w	39f9 <.LM415>

00003b99 <.L133>:
    3b99:	ef 46                         	mov.l	r4, r6
    3b9b:	75 44 39                      	mov.l	#57, r4
    3b9e:	fd 20 64                      	mov.b	r4, [r6+]

00003ba1 <.LM461>:
    3ba1:	ef cd                         	mov.l	r12, r13
    3ba3:	cf 4e                         	mov.b	r4, r14
    3ba5:	38 2d fc                      	bra.w	37d2 <.LM322>

00003ba8 <.LM462>:
    3ba8:	aa 8a                         	mov.l	44[r0], r2
    3baa:	ef a1                         	mov.l	r10, r1
    3bac:	a4 85                         	mov.l	r5, 72[r0]
    3bae:	e7 0f 11                      	mov.l	r15, 68[r0]
    3bb1:	05 9f 13 00                   	bsr.a	4f50 <___pow5mult>

00003bb5 <.LVL356>:
    3bb5:	a2 89                         	mov.l	r1, 44[r0]

00003bb7 <.LVL357>:
    3bb7:	ac 85                         	mov.l	72[r0], r5
    3bb9:	ed 0f 11                      	mov.l	68[r0], r15
    3bbc:	38 f4 fa                      	bra.w	36b0 <.LM286>

00003bbf <.LM463>:
    3bbf:	19                            	bne.s	3bc8 <.LM463+0x9>
    3bc0:	fd 74 ce 01                   	tst	#1, r14
    3bc4:	3b 04 fc                      	bne.w	37c8 <.L142>
    3bc7:	03                            	nop
    3bc8:	ef 6c                         	mov.l	r6, r12

00003bca <.LVL359>:
    3bca:	ef c6                         	mov.l	r12, r6

00003bcc <.LM464>:
    3bcc:	fd 3c ce                      	movu.b	[-r12], r14

00003bcf <.LVL361>:
    3bcf:	75 5e 30                      	cmp	#48, r14
    3bd2:	20 f8                         	beq.b	3bca <.LVL359>
    3bd4:	38 1c fc                      	bra.w	37f0 <.L135>

00003bd7 <.LM465>:
    3bd7:	ed 0d 05                      	mov.l	20[r0], r13
    3bda:	7e 1d                         	neg	r13

00003bdc <.LVL363>:
    3bdc:	3a 25 01                      	beq.w	3d01 <.LM511>

00003bdf <.LM466>:
    3bdf:	ef de                         	mov.l	r13, r14

00003be1 <.LVL364>:
    3be1:	64 fe                         	and	#15, r14
    3be3:	6c 2e                         	shll	#2, r14
    3be5:	70 ee 00 7a 00 00             	add	#0x7a00, r14, r14
    3beb:	ef b2                         	mov.l	r11, r2

00003bed <.LM467>:
    3bed:	6a 4d                         	shar	#4, r13

00003bef <.LM468>:
    3bef:	fc 8c e2                      	fmul	[r14].l, r2

00003bf2 <.LM469>:
    3bf2:	61 0d                         	cmp	#0, r13
    3bf4:	3a 9c 01                      	beq.w	3d90 <.LM528>
    3bf7:	fb e2 f8 79 00 00             	mov.l	#0x79f8, r14

00003bfd <.LM470>:
    3bfd:	66 24                         	mov.l	#2, r4

00003bff <.LVL367>:
    3bff:	03                            	nop

00003c00 <.LM471>:
    3c00:	fd 74 cd 01                   	tst	#1, r13
    3c04:	16                            	beq.s	3c0a <.LM474>

00003c05 <.LM472>:
    3c05:	fc 8c e2                      	fmul	[r14].l, r2

00003c08 <.LM473>:
    3c08:	62 14                         	add	#1, r4

00003c0a <.LM474>:
    3c0a:	6a 1d                         	shar	#1, r13
    3c0c:	62 4e                         	add	#4, r14
    3c0e:	61 0d                         	cmp	#0, r13
    3c10:	21 f0                         	bne.b	3c00 <.LM471>
    3c12:	38 86 f7                      	bra.w	3398 <.LM163>

00003c15 <.LM475>:
    3c15:	ed d2 01                      	mov.l	4[r13], r2
    3c18:	ed 0c 0d                      	mov.l	52[r0], r12

00003c1b <.LVL372>:
    3c1b:	ef a1                         	mov.l	r10, r1
    3c1d:	7f 1c                         	jsr	r12

00003c1f <.LM476>:
    3c1f:	ed d3 04                      	mov.l	16[r13], r3

00003c22 <.LM477>:
    3c22:	ef 1c                         	mov.l	r1, r12

00003c24 <.LM478>:
    3c24:	62 23                         	add	#2, r3
    3c26:	6c 23                         	shll	#2, r3
    3c28:	71 d2 0c                      	add	#12, r13, r2
    3c2b:	62 c1                         	add	#12, r1

00003c2d <.LVL375>:
    3c2d:	05 6a 0f 00                   	bsr.a	4b97 <_memcpy>

00003c31 <.LM479>:
    3c31:	ef c2                         	mov.l	r12, r2
    3c33:	ef a1                         	mov.l	r10, r1
    3c35:	66 13                         	mov.l	#1, r3
    3c37:	05 b9 13 00                   	bsr.a	4ff0 <___lshift>

00003c3b <.LVL377>:
    3c3b:	ef 1c                         	mov.l	r1, r12

00003c3d <.LVL378>:
    3c3d:	38 c5 fc                      	bra.w	3902 <.LM373>

00003c40 <.LM480>:
    3c40:	62 1e                         	add	#1, r14
    3c42:	c3 ce                         	mov.b	r14, [r12]

00003c44 <.LVL380>:
    3c44:	38 ac fb                      	bra.w	37f0 <.L135>

00003c47 <.LM481>:
    3c47:	71 9e ff                      	add	#-1, r9, r14
    3c4a:	6c 2e                         	shll	#2, r14

00003c4c <.LM482>:
    3c4c:	fc 97 2d                      	ftoi	r2, r13

00003c4f <.LM483>:
    3c4f:	70 ee 00 7a 00 00             	add	#0x7a00, r14, r14

00003c55 <.LM484>:
    3c55:	71 d4 30                      	add	#48, r13, r4

00003c58 <.LM485>:
    3c58:	fc 8c e1                      	fmul	[r14].l, r1

00003c5b <.LM486>:
    3c5b:	fc 47 dd                      	itof	r13, r13

00003c5e <.LVL383>:
    3c5e:	ef 2e                         	mov.l	r2, r14

00003c60 <.LM487>:
    3c60:	ef 86                         	mov.l	r8, r6

00003c62 <.LM488>:
    3c62:	fc 83 de                      	fsub	r13, r14

00003c65 <.LM489>:
    3c65:	fd 20 64                      	mov.b	r4, [r6+]

00003c68 <.LM490>:
    3c68:	61 19                         	cmp	#1, r9
    3c6a:	20 26                         	beq.b	3c90 <.LM501>

00003c6c <.LM491>:
    3c6c:	ff 22 98                      	add	r9, r8, r2

00003c6f <.LM492>:
    3c6f:	ef 6d                         	mov.l	r6, r13

00003c71 <.LM493>:
    3c71:	fd 72 3e 00 00 20 41          	fmul	#0x41200000, r14

00003c78 <.LM494>:
    3c78:	fc 97 e4                      	ftoi	r14, r4

00003c7b <.LM495>:
    3c7b:	71 43 30                      	add	#48, r4, r3

00003c7e <.LM496>:
    3c7e:	fc 47 44                      	itof	r4, r4

00003c81 <.LM497>:
    3c81:	fd 20 d3                      	mov.b	r3, [r13+]

00003c84 <.LM498>:
    3c84:	fc 83 4e                      	fsub	r4, r14

00003c87 <.LM499>:
    3c87:	47 2d                         	cmp	r2, r13
    3c89:	21 e8                         	bne.b	3c71 <.LM493>

00003c8b <.LM500>:
    3c8b:	60 19                         	sub	#1, r9

00003c8d <.LVL393>:
    3c8d:	4b 96                         	add	r9, r6

00003c8f <.LVL394>:
    3c8f:	03                            	nop

00003c90 <.LM501>:
    3c90:	ef 1d                         	mov.l	r1, r13
    3c92:	fd 72 2d 00 00 00 3f          	fadd	#0x3f000000, r13
    3c99:	fc 87 ed                      	fcmp	r14, r13
    3c9c:	27 05                         	bn.b	3ca1 <.LLST30+0xb>
    3c9e:	38 a2 00                      	bra.w	3d40 <.LM522>
    3ca1:	ed 0e 10                      	mov.l	64[r0], r14

00003ca4 <.LVL395>:
    3ca4:	71 67 ff                      	add	#-1, r6, r7

00003ca7 <.LVL396>:
    3ca7:	cc 73                         	mov.b	[r7], r3
    3ca9:	e7 0e 05                      	mov.l	r14, 20[r0]
    3cac:	38 ce f8                      	bra.w	357a <.LM230>

00003caf <.LM502>:
    3caf:	66 0b                         	mov.l	#0, r11

00003cb1 <.LVL398>:
    3cb1:	ef bd                         	mov.l	r11, r13
    3cb3:	f9 02 08 00 4c 00 00          	mov.l	#0x4c00, 32[r0]
    3cba:	38 e6 fd                      	bra.w	3aa0 <.L79>

00003cbd <.LVL399>:
    3cbd:	e7 0b 0b                      	mov.l	r11, 44[r0]

00003cc0 <.LM503>:
    3cc0:	75 5e 39                      	cmp	#57, r14
    3cc3:	ef 84                         	mov.l	r8, r4
    3cc5:	ef 6b                         	mov.l	r6, r11

00003cc7 <.LVL400>:
    3cc7:	ed 08 0c                      	mov.l	48[r0], r8

00003cca <.LVL401>:
    3cca:	3a cf fe                      	beq.w	3b99 <.L133>

00003ccd <.LM504>:
    3ccd:	62 1e                         	add	#1, r14
    3ccf:	38 2a fd                      	bra.w	39f9 <.LM415>

00003cd2 <.LVL402>:
    3cd2:	e7 0b 0b                      	mov.l	r11, 44[r0]
    3cd5:	ed 08 0c                      	mov.l	48[r0], r8
    3cd8:	ef 6b                         	mov.l	r6, r11

00003cda <.LVL403>:
    3cda:	ef d6                         	mov.l	r13, r6

00003cdc <.LM505>:
    3cdc:	ef cd                         	mov.l	r12, r13

00003cde <.LVL405>:
    3cde:	38 ca fa                      	bra.w	37a8 <.LM317>

00003ce1 <.LM506>:
    3ce1:	43 79                         	sub	r7, r9

00003ce3 <.LM507>:
    3ce3:	66 0d                         	mov.l	#0, r13
    3ce5:	38 f3 f8                      	bra.w	35d8 <.LM248>

00003ce8 <.LVL408>:
    3ce8:	62 13                         	add	#1, r3
    3cea:	38 b6 f8                      	bra.w	35a0 <.LM238>

00003ced <.LM508>:
    3ced:	ef 5c                         	mov.l	r5, r12
    3cef:	38 f9 f9                      	bra.w	36e8 <.LM293>

00003cf2 <.LM509>:
    3cf2:	75 4d 19                      	mov.l	#25, r13
    3cf5:	06 81 0d 01                   	sub	4[r0].l, r13
    3cf9:	aa 0e                         	mov.l	36[r0], r6

00003cfb <.LM510>:
    3cfb:	ed 09 07                      	mov.l	28[r0], r9
    3cfe:	38 da f8                      	bra.w	35d8 <.LM248>

00003d01 <.LM511>:
    3d01:	ef b2                         	mov.l	r11, r2

00003d03 <.LM512>:
    3d03:	66 24                         	mov.l	#2, r4
    3d05:	38 93 f6                      	bra.w	3398 <.LM163>

00003d08 <.LM513>:
    3d08:	61 07                         	cmp	#0, r7
    3d0a:	3a a9 fd                      	beq.w	3ab3 <.LM435>

00003d0d <.LM514>:
    3d0d:	ed 0e 0f                      	mov.l	60[r0], r14
    3d10:	61 0e                         	cmp	#0, r14
    3d12:	2a 05                         	bgt.b	3d17 <.LM515>
    3d14:	38 c0 f7                      	bra.w	34d4 <.LM208>

00003d17 <.LM515>:
    3d17:	62 14                         	add	#1, r4

00003d19 <.LM516>:
    3d19:	fd 72 32 00 00 20 41          	fmul	#0x41200000, r2

00003d20 <.LM517>:
    3d20:	fc 47 41                      	itof	r4, r1

00003d23 <.LM518>:
    3d23:	ed 0d 05                      	mov.l	20[r0], r13

00003d26 <.LM519>:
    3d26:	fc 8f 21                      	fmul	r2, r1
    3d29:	fd 72 21 00 00 e0 40          	fadd	#0x40e00000, r1

00003d30 <.LM520>:
    3d30:	60 1d                         	sub	#1, r13
    3d32:	e7 0d 10                      	mov.l	r13, 64[r0]

00003d35 <.LM521>:
    3d35:	70 11 00 00 80 f4             	add	#0xf4800000, r1, r1

00003d3b <.LVL418>:
    3d3b:	ef e9                         	mov.l	r14, r9
    3d3d:	38 8e f6                      	bra.w	33cb <.LM168>

00003d40 <.LM522>:
    3d40:	fb d2 00 00 00 3f             	mov.l	#0x3f000000, r13
    3d46:	fc 83 1d                      	fsub	r1, r13
    3d49:	fc 87 de                      	fcmp	r13, r14
    3d4c:	27 05                         	bn.b	3d51 <.LM522+0x11>
    3d4e:	38 86 f7                      	bra.w	34d4 <.LM208>
    3d51:	ef 67                         	mov.l	r6, r7

00003d53 <.LVL420>:
    3d53:	ef 76                         	mov.l	r7, r6

00003d55 <.LM523>:
    3d55:	fd 3c 7b                      	movu.b	[-r7], r11

00003d58 <.LVL422>:
    3d58:	75 5b 30                      	cmp	#48, r11
    3d5b:	20 f8                         	beq.b	3d53 <.LVL420>

00003d5d <.LM524>:
    3d5d:	ac 03                         	mov.l	64[r0], r3
    3d5f:	f9 02 08 00 4c 00 00          	mov.l	#0x4c00, 32[r0]
    3d66:	a1 0b                         	mov.l	r3, 20[r0]
    3d68:	38 b0 fa                      	bra.w	3818 <.L82>

00003d6b <.L83>:
    3d6b:	ac 04                         	mov.l	64[r0], r4

00003d6d <.LVL424>:
    3d6d:	a1 0c                         	mov.l	r4, 20[r0]
    3d6f:	38 0b f8                      	bra.w	357a <.LM230>

00003d72 <.LM526>:
    3d72:	3b 87 fc                      	bne.w	39f9 <.LM415>
    3d75:	fd 74 ce 01                   	tst	#1, r14
    3d79:	3a 80 fc                      	beq.w	39f9 <.LM415>
    3d7c:	38 14 fe                      	bra.w	3b90 <.LM459>

00003d7f <.LM527>:
    3d7f:	ef d2                         	mov.l	r13, r2
    3d81:	ef a1                         	mov.l	r10, r1

00003d83 <.LVL427>:
    3d83:	66 a3                         	mov.l	#10, r3
    3d85:	66 04                         	mov.l	#0, r4
    3d87:	7f 17                         	jsr	r7

00003d89 <.LVL428>:
    3d89:	ef 1d                         	mov.l	r1, r13

00003d8b <.LVL429>:
    3d8b:	ab 8f                         	mov.l	60[r0], r7
    3d8d:	38 bd f9                      	bra.w	374a <.LM307>

00003d90 <.LM528>:
    3d90:	66 24                         	mov.l	#2, r4
    3d92:	38 06 f6                      	bra.w	3398 <.LM163>

00003d95 <.LM529>:
    3d95:	ed 0e 10                      	mov.l	64[r0], r14
    3d98:	e7 0e 05                      	mov.l	r14, 20[r0]
    3d9b:	38 df f7                      	bra.w	357a <.LM230>

00003d9e <.LM530>:
    3d9e:	ed 0d 10                      	mov.l	64[r0], r13

00003da1 <.LVL432>:
    3da1:	f9 02 08 00 4c 00 00          	mov.l	#0x4c00, 32[r0]
    3da8:	e7 0d 05                      	mov.l	r13, 20[r0]
    3dab:	38 6d fa                      	bra.w	3818 <.L82>

00003dae <.LM531>:
    3dae:	3a 6c f9                      	beq.w	371a <.LM302>
    3db1:	75 44 3c                      	mov.l	#60, r4

00003db4 <.LVL434>:
    3db4:	ff 0e e4                      	sub	r14, r4, r14

00003db7 <.LVL435>:
    3db7:	38 59 f9                      	bra.w	3710 <.LM298>

00003dba <.LM532>:
    3dba:	66 02                         	mov.l	#0, r2
    3dbc:	38 5d f5                      	bra.w	3319 <.LM139>

00003dbf <.LM533>:
    3dbf:	66 16                         	mov.l	#1, r6
    3dc1:	38 0f f5                      	bra.w	32d0 <.LM132>

00003dc4 <.LFE1>:
    3dc4:	76 10 01 00                   	mul	#1, r0

00003dc8 <___sflush_r>:
    3dc8:	6e 7d                         	pushm	r7-r13

00003dca <.LCFI0>:
    3dca:	dd 2e 06                      	mov.w	12[r2], r14

00003dcd <.LM3>:
    3dcd:	ef 2a                         	mov.l	r2, r10

00003dcf <.LM4>:
    3dcf:	ef e7                         	mov.l	r14, r7
    3dd1:	64 87                         	and	#8, r7
    3dd3:	df 77                         	mov.w	r7, r7
    3dd5:	61 07                         	cmp	#0, r7

00003dd7 <.LM5>:
    3dd7:	ef 1c                         	mov.l	r1, r12

00003dd9 <.LM6>:
    3dd9:	21 7b                         	bne.b	3e54 <.LBE2>

00003ddb <.LM7>:
    3ddb:	ef e7                         	mov.l	r14, r7

00003ddd <.LM8>:
    3ddd:	a8 2c                         	mov.l	4[r2], r4

00003ddf <.LM9>:
    3ddf:	76 37 00 08                   	or	#0x800, r7
    3de3:	d7 a7 06                      	mov.w	r7, 12[r10]

00003de6 <.LM10>:
    3de6:	61 04                         	cmp	#0, r4

00003de8 <.LM11>:
    3de8:	df 7b                         	mov.w	r7, r11

00003dea <.LM12>:
    3dea:	2a 05                         	bgt.b	3def <.LM12+0x5>
    3dec:	38 fb 00                      	bra.w	3ee7 <.LM69>
    3def:	03                            	nop

00003df0 <.LM13>:
    3df0:	ed a7 0a                      	mov.l	40[r10], r7
    3df3:	61 07                         	cmp	#0, r7
    3df5:	3a e8 00                      	beq.w	3edd <.LM66>

00003df8 <.LBB2>:
    3df8:	76 2e 00 10                   	and	#0x1000, r14

00003dfc <.LVL2>:
    3dfc:	df e3                         	mov.w	r14, r3

00003dfe <.LM15>:
    3dfe:	ec cd                         	mov.l	[r12], r13

00003e00 <.LM16>:
    3e00:	61 03                         	cmp	#0, r3

00003e02 <.LM17>:
    3e02:	f8 c6 00                      	mov.l	#0, [r12]

00003e05 <.LM18>:
    3e05:	3a ef 00                      	beq.w	3ef4 <.LM71>

00003e08 <.LM19>:
    3e08:	ed a3 14                      	mov.l	80[r10], r3

00003e0b <.LM20>:
    3e0b:	64 4b                         	and	#4, r11
    3e0d:	df bb                         	mov.w	r11, r11
    3e0f:	61 0b                         	cmp	#0, r11
    3e11:	20 10                         	beq.b	3e21 <.LM25>

00003e13 <.LM21>:
    3e13:	ed ab 0c                      	mov.l	48[r10], r11

00003e16 <.LM22>:
