	.file	"sh-elf.c"
	.text
! GNU C (GCC) version 4.7.2 (sh-elf)
!	compiled by GNU C version 4.2.1 20070719  [FreeBSD], GMP version 5.1.1, MPFR version 3.1.2, MPC version 1.0.1
! GGC heuristics: --param ggc-min-expand=100 --param ggc-min-heapsize=131072
! options passed:  -D ___FreeBSD___ -D ARCH="sh-elf" -D USE_SYSCALL_WRAPPER
! -D USE_UNDERLINE_WRAPPER -D USE_ORIGINAL_ERRNO sh-elf.c
! -auxbase-strip sh-elf.s -g -O -Wall -fno-builtin -fverbose-asm
! -fomit-frame-pointer
! options enabled:  -fauto-inc-dec -fbranch-count-reg
! -fcombine-stack-adjustments -fcommon -fcompare-elim -fcprop-registers
! -fdebug-types-section -fdefer-pop -fdelayed-branch
! -fdelete-null-pointer-checks -fdwarf2-cfi-asm -fearly-inlining
! -feliminate-unused-debug-types -fforward-propagate -ffunction-cse
! -fgcse-lm -fgnu-runtime -fguess-branch-probability -fident
! -fif-conversion -fif-conversion2 -finline -finline-atomics
! -finline-functions-called-once -fipa-profile -fipa-pure-const
! -fipa-reference -fira-share-save-slots -fira-share-spill-slots -fivopts
! -fkeep-static-consts -fleading-underscore -fmath-errno -fmerge-constants
! -fmerge-debug-strings -fmove-loop-invariants -fomit-frame-pointer
! -fpeephole -fprefetch-loop-arrays -freg-struct-return
! -fsched-critical-path-heuristic -fsched-dep-count-heuristic
! -fsched-group-heuristic -fsched-interblock -fsched-last-insn-heuristic
! -fsched-rank-heuristic -fsched-spec -fsched-spec-insn-heuristic
! -fsched-stalled-insns-dep -fshow-column -fshrink-wrap -fsigned-zeros
! -fsplit-ivs-in-unroller -fsplit-wide-types -fstrict-volatile-bitfields
! -ftoplevel-reorder -ftrapping-math -ftree-bit-ccp -ftree-ccp -ftree-ch
! -ftree-copy-prop -ftree-copyrename -ftree-cselim -ftree-dce
! -ftree-dominator-opts -ftree-dse -ftree-forwprop -ftree-fre
! -ftree-loop-if-convert -ftree-loop-im -ftree-loop-ivcanon
! -ftree-loop-optimize -ftree-parallelize-loops= -ftree-phiprop -ftree-pta
! -ftree-reassoc -ftree-scev-cprop -ftree-sink -ftree-slp-vectorize
! -ftree-sra -ftree-ter -ftree-vect-loop-version -funit-at-a-time
! -fvar-tracking -fvar-tracking-assignments -fverbose-asm
! -fzero-initialized-in-bss -maccumulate-outgoing-args -mb

	.text
.Ltext0:
	.cfi_sections	.debug_frame
	.align 1
	.global	___exit
	.type	___exit, @function
___exit:
.LFB0:
	.file 1 "sh-elf.c"
	.loc 1 17 0
	.cfi_startproc
.LVL0:
	sts.l	pr,@-r15	!,
.LCFI0:
	.cfi_def_cfa_offset 4
	.cfi_offset 17, -4
	mov	r4,r5	! status, status
.LVL1:
	.loc 1 18 0
	mov.l	.L2,r1	!, tmp161
	jsr	@r1	! tmp161
	mov	#0,r4	!,
.LVL2:
.L3:
	.align 2
.L2:
	.long	___r_exit
	.cfi_endproc
.LFE0:
	.size	___exit, .-___exit
	.align 1
	.global	___read
	.type	___read, @function
___read:
.LFB1:
	.loc 1 21 0
	.cfi_startproc
.LVL3:
	sts.l	pr,@-r15	!,
.LCFI1:
	.cfi_def_cfa_offset 4
	.cfi_offset 17, -4
	mov	r4,r2	! fd, fd
	mov	r5,r1	! buffer, buffer
	mov	r6,r7	! size, size
	.loc 1 22 0
	mov	#0,r4	!,
.LVL4:
	mov	r2,r5	! fd,
.LVL5:
	mov.l	.L5,r0	!, tmp165
	jsr	@r0	! tmp165
	mov	r1,r6	! buffer,
.LVL6:
	.loc 1 23 0
	lds.l   @r15+,pr	!,
	rts	
	nop
.L6:
	.align 2
.L5:
	.long	___r_read
	.cfi_endproc
.LFE1:
	.size	___read, .-___read
	.align 1
	.global	___write
	.type	___write, @function
___write:
.LFB2:
	.loc 1 25 0
	.cfi_startproc
.LVL7:
	sts.l	pr,@-r15	!,
.LCFI2:
	.cfi_def_cfa_offset 4
	.cfi_offset 17, -4
	mov	r4,r2	! fd, fd
	mov	r5,r1	! buffer, buffer
	mov	r6,r7	! size, size
	.loc 1 26 0
	mov	#0,r4	!,
.LVL8:
	mov	r2,r5	! fd,
.LVL9:
	mov.l	.L8,r0	!, tmp165
	jsr	@r0	! tmp165
	mov	r1,r6	! buffer,
.LVL10:
	.loc 1 27 0
	lds.l   @r15+,pr	!,
	rts	
	nop
.L9:
	.align 2
.L8:
	.long	___r_write
	.cfi_endproc
.LFE2:
	.size	___write, .-___write
	.align 1
	.global	___open
	.type	___open, @function
___open:
.LFB3:
	.loc 1 29 0
	.cfi_startproc
.LVL11:
	sts.l	pr,@-r15	!,
.LCFI3:
	.cfi_def_cfa_offset 4
	.cfi_offset 17, -4
	mov	r4,r2	! path, path
	mov	r5,r1	! flags, flags
	mov	r6,r7	! mode, mode
	.loc 1 30 0
	mov	#0,r4	!,
.LVL12:
	mov	r2,r5	! path,
.LVL13:
	mov.l	.L11,r0	!, tmp165
	jsr	@r0	! tmp165
	mov	r1,r6	! flags,
.LVL14:
	.loc 1 31 0
	lds.l   @r15+,pr	!,
	rts	
	nop
.L12:
	.align 2
.L11:
	.long	___r_open
	.cfi_endproc
.LFE3:
	.size	___open, .-___open
	.align 1
	.global	___close
	.type	___close, @function
___close:
.LFB4:
	.loc 1 33 0
	.cfi_startproc
.LVL15:
	sts.l	pr,@-r15	!,
.LCFI4:
	.cfi_def_cfa_offset 4
	.cfi_offset 17, -4
	mov	r4,r5	! fd, fd
.LVL16:
	.loc 1 34 0
	mov.l	.L14,r0	!, tmp163
	jsr	@r0	! tmp163
	mov	#0,r4	!,
.LVL17:
	.loc 1 35 0
	lds.l   @r15+,pr	!,
	rts	
	nop
.L15:
	.align 2
.L14:
	.long	___r_close
	.cfi_endproc
.LFE4:
	.size	___close, .-___close
	.align 1
	.global	__exit
	.type	__exit, @function
__exit:
.LFB5:
	.loc 1 39 0
	.cfi_startproc
.LVL18:
	sts.l	pr,@-r15	!,
.LCFI5:
	.cfi_def_cfa_offset 4
	.cfi_offset 17, -4
	.loc 1 40 0
	mov.l	.L17,r1	!, tmp161
	jsr	@r1
	nop	! tmp161
.LVL19:
.L18:
	.align 2
.L17:
	.long	___exit
	.cfi_endproc
.LFE5:
	.size	__exit, .-__exit
	.align 1
	.global	_read
	.type	_read, @function
_read:
.LFB6:
	.loc 1 44 0
	.cfi_startproc
.LVL20:
	sts.l	pr,@-r15	!,
.LCFI6:
	.cfi_def_cfa_offset 4
	.cfi_offset 17, -4
	.loc 1 45 0
	mov.l	.L20,r0	!, tmp165
	jsr	@r0
	nop	! tmp165
.LVL21:
	.loc 1 46 0
	lds.l   @r15+,pr	!,
	rts	
	nop
.L21:
	.align 2
.L20:
	.long	___read
	.cfi_endproc
.LFE6:
	.size	_read, .-_read
	.align 1
	.global	_write
	.type	_write, @function
_write:
.LFB7:
	.loc 1 48 0
	.cfi_startproc
.LVL22:
	sts.l	pr,@-r15	!,
.LCFI7:
	.cfi_def_cfa_offset 4
	.cfi_offset 17, -4
	.loc 1 49 0
	mov.l	.L23,r0	!, tmp165
	jsr	@r0
	nop	! tmp165
.LVL23:
	.loc 1 50 0
	lds.l   @r15+,pr	!,
	rts	
	nop
.L24:
	.align 2
.L23:
	.long	___write
	.cfi_endproc
.LFE7:
	.size	_write, .-_write
	.align 1
	.global	_open
	.type	_open, @function
_open:
.LFB8:
	.loc 1 52 0
	.cfi_startproc
.LVL24:
	sts.l	pr,@-r15	!,
.LCFI8:
	.cfi_def_cfa_offset 4
	.cfi_offset 17, -4
	.loc 1 53 0
	mov.l	.L26,r0	!, tmp165
	jsr	@r0
	nop	! tmp165
.LVL25:
	.loc 1 54 0
	lds.l   @r15+,pr	!,
	rts	
	nop
.L27:
	.align 2
.L26:
	.long	___open
	.cfi_endproc
.LFE8:
	.size	_open, .-_open
	.align 1
	.global	_close
	.type	_close, @function
_close:
.LFB9:
	.loc 1 56 0
	.cfi_startproc
.LVL26:
	sts.l	pr,@-r15	!,
.LCFI9:
	.cfi_def_cfa_offset 4
	.cfi_offset 17, -4
	.loc 1 57 0
	mov.l	.L29,r0	!, tmp163
	jsr	@r0
	nop	! tmp163
.LVL27:
	.loc 1 58 0
	lds.l   @r15+,pr	!,
	rts	
	nop
.L30:
	.align 2
.L29:
	.long	___close
	.cfi_endproc
.LFE9:
	.size	_close, .-_close
	.align 1
	.global	_fstat
	.type	_fstat, @function
_fstat:
.LFB10:
	.loc 1 63 0
	.cfi_startproc
.LVL28:
	sts.l	pr,@-r15	!,
.LCFI10:
	.cfi_def_cfa_offset 4
	.cfi_offset 17, -4
	.loc 1 64 0
	mov	r5,r4	! sb,
.LVL29:
	mov	#0,r5	!,
.LVL30:
	mov.l	.L32,r0	!, tmp163
	jsr	@r0	! tmp163
	mov	#60,r6	!,
.LVL31:
	.loc 1 66 0
	mov	#0,r0	!,
	lds.l   @r15+,pr	!,
	rts	
	nop
.L33:
	.align 2
.L32:
	.long	_memset
	.cfi_endproc
.LFE10:
	.size	_fstat, .-_fstat
	.align 1
	.global	_lseek
	.type	_lseek, @function
_lseek:
.LFB11:
	.loc 1 69 0
	.cfi_startproc
.LVL32:
	.loc 1 71 0
	rts	
	mov	r5,r0	! offset,
	.cfi_endproc
.LFE11:
	.size	_lseek, .-_lseek
	.align 1
	.global	_sbrk
	.type	_sbrk, @function
_sbrk:
.LFB12:
	.loc 1 77 0
	.cfi_startproc
.LVL33:
	.loc 1 79 0
	mov.l	.L36,r1	!, tmp165
	mov.l	@r1,r0	! sbrk_top, old_top
.LVL34:
	.loc 1 80 0
	add	r0,r4	! old_top, tmp167
.LVL35:
	.loc 1 82 0
	rts	
	mov.l	r4,@r1	! tmp167, sbrk_top
.L37:
	.align 2
.L36:
	.long	_sbrk_top
	.cfi_endproc
.LFE12:
	.size	_sbrk, .-_sbrk
	.align 1
	.global	_isatty
	.type	_isatty, @function
_isatty:
.LFB13:
	.loc 1 85 0
	.cfi_startproc
.LVL36:
	.loc 1 87 0
	rts	
	mov	#1,r0	!,
	.cfi_endproc
.LFE13:
	.size	_isatty, .-_isatty
	.align 1
	.global	__read
	.type	__read, @function
__read:
.LFB14:
	.loc 1 91 0
	.cfi_startproc
.LVL37:
	sts.l	pr,@-r15	!,
.LCFI11:
	.cfi_def_cfa_offset 4
	.cfi_offset 17, -4
	.loc 1 92 0
	mov.l	.L40,r0	!, tmp165
	jsr	@r0
	nop	! tmp165
.LVL38:
	.loc 1 93 0
	lds.l   @r15+,pr	!,
	rts	
	nop
.L41:
	.align 2
.L40:
	.long	_read
	.cfi_endproc
.LFE14:
	.size	__read, .-__read
	.align 1
	.global	__write
	.type	__write, @function
__write:
.LFB15:
	.loc 1 95 0
	.cfi_startproc
.LVL39:
	sts.l	pr,@-r15	!,
.LCFI12:
	.cfi_def_cfa_offset 4
	.cfi_offset 17, -4
	.loc 1 96 0
	mov.l	.L43,r0	!, tmp165
	jsr	@r0
	nop	! tmp165
.LVL40:
	.loc 1 97 0
	lds.l   @r15+,pr	!,
	rts	
	nop
.L44:
	.align 2
.L43:
	.long	_write
	.cfi_endproc
.LFE15:
	.size	__write, .-__write
	.align 1
	.global	__open
	.type	__open, @function
__open:
.LFB16:
	.loc 1 99 0
	.cfi_startproc
.LVL41:
	sts.l	pr,@-r15	!,
.LCFI13:
	.cfi_def_cfa_offset 4
	.cfi_offset 17, -4
	.loc 1 100 0
	mov.l	.L46,r0	!, tmp165
	jsr	@r0
	nop	! tmp165
.LVL42:
	.loc 1 101 0
	lds.l   @r15+,pr	!,
	rts	
	nop
.L47:
	.align 2
.L46:
	.long	_open
	.cfi_endproc
.LFE16:
	.size	__open, .-__open
	.align 1
	.global	__close
	.type	__close, @function
__close:
.LFB17:
	.loc 1 103 0
	.cfi_startproc
.LVL43:
	sts.l	pr,@-r15	!,
.LCFI14:
	.cfi_def_cfa_offset 4
	.cfi_offset 17, -4
	.loc 1 104 0
	mov.l	.L49,r0	!, tmp163
	jsr	@r0
	nop	! tmp163
.LVL44:
	.loc 1 105 0
	lds.l   @r15+,pr	!,
	rts	
	nop
.L50:
	.align 2
.L49:
	.long	_close
	.cfi_endproc
.LFE17:
	.size	__close, .-__close
	.align 1
	.global	__fstat
	.type	__fstat, @function
__fstat:
.LFB18:
	.loc 1 107 0
	.cfi_startproc
.LVL45:
	sts.l	pr,@-r15	!,
.LCFI15:
	.cfi_def_cfa_offset 4
	.cfi_offset 17, -4
	.loc 1 108 0
	mov.l	.L52,r0	!, tmp164
	jsr	@r0
	nop	! tmp164
.LVL46:
	.loc 1 109 0
	lds.l   @r15+,pr	!,
	rts	
	nop
.L53:
	.align 2
.L52:
	.long	_fstat
	.cfi_endproc
.LFE18:
	.size	__fstat, .-__fstat
	.align 1
	.global	__lseek
	.type	__lseek, @function
__lseek:
.LFB19:
	.loc 1 111 0
	.cfi_startproc
.LVL47:
	sts.l	pr,@-r15	!,
.LCFI16:
	.cfi_def_cfa_offset 4
	.cfi_offset 17, -4
	.loc 1 112 0
	mov.l	.L55,r0	!, tmp165
	jsr	@r0
	nop	! tmp165
.LVL48:
	.loc 1 113 0
	lds.l   @r15+,pr	!,
	rts	
	nop
.L56:
	.align 2
.L55:
	.long	_lseek
	.cfi_endproc
.LFE19:
	.size	__lseek, .-__lseek
	.align 1
	.global	__sbrk
	.type	__sbrk, @function
__sbrk:
.LFB20:
	.loc 1 115 0
	.cfi_startproc
.LVL49:
	sts.l	pr,@-r15	!,
.LCFI17:
	.cfi_def_cfa_offset 4
	.cfi_offset 17, -4
	.loc 1 116 0
	mov.l	.L58,r0	!, tmp163
	jsr	@r0
	nop	! tmp163
.LVL50:
	.loc 1 117 0
	lds.l   @r15+,pr	!,
	rts	
	nop
.L59:
	.align 2
.L58:
	.long	_sbrk
	.cfi_endproc
.LFE20:
	.size	__sbrk, .-__sbrk
	.align 1
	.global	__isatty
	.type	__isatty, @function
__isatty:
.LFB21:
	.loc 1 119 0
	.cfi_startproc
.LVL51:
	sts.l	pr,@-r15	!,
.LCFI18:
	.cfi_def_cfa_offset 4
	.cfi_offset 17, -4
	.loc 1 120 0
	mov.l	.L61,r0	!, tmp163
	jsr	@r0
	nop	! tmp163
.LVL52:
	.loc 1 121 0
	lds.l   @r15+,pr	!,
	rts	
	nop
.L62:
	.align 2
.L61:
	.long	_isatty
	.cfi_endproc
.LFE21:
	.size	__isatty, .-__isatty
	.section	.rodata.str1.4,"aMS",@progbits,1
	.align 2
.LC0:
	.string	"Hello World! %08lx This architecture is %s\n"
	.align 2
.LC1:
	.string	"sh-elf"
	.text
	.align 1
	.global	_main
	.type	_main, @function
_main:
.LFB24:
	.loc 1 173 0
	.cfi_startproc
	sts.l	pr,@-r15	!,
.LCFI19:
	.cfi_def_cfa_offset 4
	.cfi_offset 17, -4
	.loc 1 174 0
	mov.l	.L64,r4	!,
	mov.l	.L65,r1	!, tmp163
	mov.l	.L66,r6	!,
	mov.l	.L67,r0	!, tmp165
	jsr	@r0	! tmp165
	mov.l	@r1,r5	! data_value,
.LVL53:
	.loc 1 175 0
	mov.l	.L68,r1	!, tmp166
	jsr	@r1	! tmp166
	mov	#0,r4	!,
.LVL54:
.L69:
	.align 2
.L64:
	.long	.LC0
.L65:
	.long	_data_value
.L66:
	.long	.LC1
.L67:
	.long	_printf
.L68:
	.long	_exit
	.cfi_endproc
.LFE24:
	.size	_main, .-_main
	.align 1
	.global	__startmain
	.type	__startmain, @function
__startmain:
.LFB23:
	.loc 1 166 0
	.cfi_startproc
	sts.l	pr,@-r15	!,
.LCFI20:
	.cfi_def_cfa_offset 4
	.cfi_offset 17, -4
.LBB4:
.LBB5:
	.loc 1 159 0
	mov.l	.L71,r1	!, tmp165
	mov	r1,r4	! tmp165,
	mov	#0,r5	!,
	mov.l	.L72,r6	!, tmp167
	mov.l	.L73,r0	!, tmp169
	jsr	@r0	! tmp169
	sub	r1,r6	! tmp165,
.LVL55:
.LBE5:
.LBE4:
	.loc 1 168 0
	mov.l	.L74,r0	!, tmp170
	jsr	@r0
	nop	! tmp170
.LVL56:
.L75:
	.align 2
.L71:
	.long	__bss_start
.L72:
	.long	__ebss
.L73:
	.long	_memset
.L74:
	.long	_main
	.cfi_endproc
.LFE23:
	.size	__startmain, .-__startmain
	.global	_sbrk_top
	.data
	.align 2
	.type	_sbrk_top, @object
	.size	_sbrk_top, 4
_sbrk_top:
	.long	__heap
	.comm	_errno,4,4
	.comm	_bss_value,4,4
	.global	_data_value
	.align 2
	.type	_data_value, @object
	.size	_data_value, 4
_data_value:
	.long	-1414661426
	.text
.Letext0:
	.file 2 "/usr/local/cross2-gcc4/lib/gcc/sh-elf/4.7.2/../../../../sh-elf/include/sys/_types.h"
	.file 3 "/usr/local/cross2-gcc4/lib/gcc/sh-elf/4.7.2/../../../../sh-elf/include/sys/types.h"
	.file 4 "/usr/local/cross2-gcc4/lib/gcc/sh-elf/4.7.2/../../../../sh-elf/include/sys/stat.h"