
sh-elf.x:     file format elf32-sh


Disassembly of section .text:

00001400 <_start>:
    1400:	df 0f       	mov.l	1440 <_stack_addr>,r15	! f110 <__end>
    1402:	d1 10       	mov.l	1444 <_main_addr>,r1	! 161c <__startmain>
    1404:	41 0b       	jsr	@r1
    1406:	00 09       	nop	
    1408:	65 03       	mov	r0,r5

0000140a <___r_exit>:
    140a:	e4 01       	mov	#1,r4
    140c:	c3 22       	trapa	#34
    140e:	00 0b       	rts	
    1410:	00 09       	nop	

00001412 <___r_read>:
    1412:	e4 03       	mov	#3,r4
    1414:	c3 22       	trapa	#34
    1416:	00 0b       	rts	
    1418:	00 09       	nop	

0000141a <___r_write>:
    141a:	e4 04       	mov	#4,r4
    141c:	c3 22       	trapa	#34
    141e:	00 0b       	rts	
    1420:	00 09       	nop	

00001422 <___r_open>:
    1422:	e4 05       	mov	#5,r4
    1424:	c3 22       	trapa	#34
    1426:	00 0b       	rts	
    1428:	00 09       	nop	

0000142a <___r_close>:
    142a:	e4 06       	mov	#6,r4
    142c:	c3 22       	trapa	#34
    142e:	00 0b       	rts	
    1430:	00 09       	nop	
    1432:	00 09       	nop	
    1434:	00 09       	nop	
    1436:	00 09       	nop	
    1438:	00 09       	nop	
    143a:	00 09       	nop	
    143c:	00 09       	nop	
    143e:	00 09       	nop	

00001440 <_stack_addr>:
    1440:	00 00       	.word 0x0000
    1442:	f1 10       	.word 0xf110

00001444 <_main_addr>:
    1444:	00 00       	.word 0x0000
    1446:	16 1c       	mov.l	r1,@(48,r6)
    1448:	00 09       	nop	
    144a:	00 09       	nop	
    144c:	00 09       	nop	
    144e:	00 09       	nop	

00001450 <___exit>:
    1450:	4f 22       	sts.l	pr,@-r15
    1452:	65 43       	mov	r4,r5
    1454:	d1 01       	mov.l	145c <___exit+0xc>,r1	! 140a <___r_exit>
    1456:	41 0b       	jsr	@r1
    1458:	e4 00       	mov	#0,r4
    145a:	00 09       	nop	
    145c:	00 00       	.word 0x0000
    145e:	14 0a       	mov.l	r0,@(40,r4)

00001460 <___read>:
    1460:	4f 22       	sts.l	pr,@-r15
    1462:	62 43       	mov	r4,r2
    1464:	61 53       	mov	r5,r1
    1466:	67 63       	mov	r6,r7
    1468:	e4 00       	mov	#0,r4
    146a:	65 23       	mov	r2,r5
    146c:	d0 02       	mov.l	1478 <___read+0x18>,r0	! 1412 <___r_read>
    146e:	40 0b       	jsr	@r0
    1470:	66 13       	mov	r1,r6
    1472:	4f 26       	lds.l	@r15+,pr
    1474:	00 0b       	rts	
    1476:	00 09       	nop	
    1478:	00 00       	.word 0x0000
    147a:	14 12       	mov.l	r1,@(8,r4)

0000147c <___write>:
    147c:	4f 22       	sts.l	pr,@-r15
    147e:	62 43       	mov	r4,r2
    1480:	61 53       	mov	r5,r1
    1482:	67 63       	mov	r6,r7
    1484:	e4 00       	mov	#0,r4
    1486:	65 23       	mov	r2,r5
    1488:	d0 02       	mov.l	1494 <___write+0x18>,r0	! 141a <___r_write>
    148a:	40 0b       	jsr	@r0
    148c:	66 13       	mov	r1,r6
    148e:	4f 26       	lds.l	@r15+,pr
    1490:	00 0b       	rts	
    1492:	00 09       	nop	
    1494:	00 00       	.word 0x0000
    1496:	14 1a       	mov.l	r1,@(40,r4)

00001498 <___open>:
    1498:	4f 22       	sts.l	pr,@-r15
    149a:	62 43       	mov	r4,r2
    149c:	61 53       	mov	r5,r1
    149e:	67 63       	mov	r6,r7
    14a0:	e4 00       	mov	#0,r4
    14a2:	65 23       	mov	r2,r5
    14a4:	d0 02       	mov.l	14b0 <___open+0x18>,r0	! 1422 <___r_open>
    14a6:	40 0b       	jsr	@r0
    14a8:	66 13       	mov	r1,r6
    14aa:	4f 26       	lds.l	@r15+,pr
    14ac:	00 0b       	rts	
    14ae:	00 09       	nop	
    14b0:	00 00       	.word 0x0000
    14b2:	14 22       	mov.l	r2,@(8,r4)

000014b4 <___close>:
    14b4:	4f 22       	sts.l	pr,@-r15
    14b6:	65 43       	mov	r4,r5
    14b8:	d0 02       	mov.l	14c4 <___close+0x10>,r0	! 142a <___r_close>
    14ba:	40 0b       	jsr	@r0
    14bc:	e4 00       	mov	#0,r4
    14be:	4f 26       	lds.l	@r15+,pr
    14c0:	00 0b       	rts	
    14c2:	00 09       	nop	
    14c4:	00 00       	.word 0x0000
    14c6:	14 2a       	mov.l	r2,@(40,r4)

000014c8 <__exit>:
    14c8:	4f 22       	sts.l	pr,@-r15
    14ca:	d1 01       	mov.l	14d0 <__exit+0x8>,r1	! 1450 <___exit>
    14cc:	41 0b       	jsr	@r1
    14ce:	00 09       	nop	
    14d0:	00 00       	.word 0x0000
    14d2:	14 50       	mov.l	r5,@(0,r4)

000014d4 <_read>:
    14d4:	4f 22       	sts.l	pr,@-r15
    14d6:	d0 03       	mov.l	14e4 <_read+0x10>,r0	! 1460 <___read>
    14d8:	40 0b       	jsr	@r0
    14da:	00 09       	nop	
    14dc:	4f 26       	lds.l	@r15+,pr
    14de:	00 0b       	rts	
    14e0:	00 09       	nop	
    14e2:	00 09       	nop	
    14e4:	00 00       	.word 0x0000
    14e6:	14 60       	mov.l	r6,@(0,r4)

000014e8 <_write>:
    14e8:	4f 22       	sts.l	pr,@-r15
    14ea:	d0 03       	mov.l	14f8 <_write+0x10>,r0	! 147c <___write>
    14ec:	40 0b       	jsr	@r0
    14ee:	00 09       	nop	
    14f0:	4f 26       	lds.l	@r15+,pr
    14f2:	00 0b       	rts	
    14f4:	00 09       	nop	
    14f6:	00 09       	nop	
    14f8:	00 00       	.word 0x0000
    14fa:	14 7c       	mov.l	r7,@(48,r4)

000014fc <_open>:
    14fc:	4f 22       	sts.l	pr,@-r15
    14fe:	d0 03       	mov.l	150c <_open+0x10>,r0	! 1498 <___open>
    1500:	40 0b       	jsr	@r0
    1502:	00 09       	nop	
    1504:	4f 26       	lds.l	@r15+,pr
    1506:	00 0b       	rts	
    1508:	00 09       	nop	
    150a:	00 09       	nop	
    150c:	00 00       	.word 0x0000
    150e:	14 98       	mov.l	r9,@(32,r4)

00001510 <_close>:
    1510:	4f 22       	sts.l	pr,@-r15
    1512:	d0 03       	mov.l	1520 <_close+0x10>,r0	! 14b4 <___close>
    1514:	40 0b       	jsr	@r0
    1516:	00 09       	nop	
    1518:	4f 26       	lds.l	@r15+,pr
    151a:	00 0b       	rts	
    151c:	00 09       	nop	
    151e:	00 09       	nop	
    1520:	00 00       	.word 0x0000
    1522:	14 b4       	mov.l	r11,@(16,r4)

00001524 <_fstat>:
    1524:	4f 22       	sts.l	pr,@-r15
    1526:	64 53       	mov	r5,r4
    1528:	e5 00       	mov	#0,r5
    152a:	d0 03       	mov.l	1538 <_fstat+0x14>,r0	! 1670 <_memset>
    152c:	40 0b       	jsr	@r0
    152e:	e6 3c       	mov	#60,r6
    1530:	e0 00       	mov	#0,r0
    1532:	4f 26       	lds.l	@r15+,pr
    1534:	00 0b       	rts	
    1536:	00 09       	nop	
    1538:	00 00       	.word 0x0000
    153a:	16 70       	mov.l	r7,@(0,r6)

0000153c <_lseek>:
    153c:	00 0b       	rts	
    153e:	60 53       	mov	r5,r0

00001540 <_sbrk>:
    1540:	d1 02       	mov.l	154c <_sbrk+0xc>,r1	! a400 <__gp>
    1542:	60 12       	mov.l	@r1,r0
    1544:	34 0c       	add	r0,r4
    1546:	00 0b       	rts	
    1548:	21 42       	mov.l	r4,@r1
    154a:	00 09       	nop	
    154c:	00 00       	.word 0x0000
    154e:	a4 00       	bra	1d52 <__vfprintf_r+0x64a>

00001550 <_isatty>:
    1550:	00 0b       	rts	
    1552:	e0 01       	mov	#1,r0

00001554 <__read>:
    1554:	4f 22       	sts.l	pr,@-r15
    1556:	d0 03       	mov.l	1564 <__read+0x10>,r0	! 14d4 <_read>
    1558:	40 0b       	jsr	@r0
    155a:	00 09       	nop	
    155c:	4f 26       	lds.l	@r15+,pr
    155e:	00 0b       	rts	
    1560:	00 09       	nop	
    1562:	00 09       	nop	
    1564:	00 00       	.word 0x0000
    1566:	14 d4       	mov.l	r13,@(16,r4)

00001568 <__write>:
    1568:	4f 22       	sts.l	pr,@-r15
    156a:	d0 03       	mov.l	1578 <__write+0x10>,r0	! 14e8 <_write>
    156c:	40 0b       	jsr	@r0
    156e:	00 09       	nop	
    1570:	4f 26       	lds.l	@r15+,pr
    1572:	00 0b       	rts	
    1574:	00 09       	nop	
    1576:	00 09       	nop	
    1578:	00 00       	.word 0x0000
    157a:	14 e8       	mov.l	r14,@(32,r4)

0000157c <__open>:
    157c:	4f 22       	sts.l	pr,@-r15
    157e:	d0 03       	mov.l	158c <__open+0x10>,r0	! 14fc <_open>
    1580:	40 0b       	jsr	@r0
    1582:	00 09       	nop	
    1584:	4f 26       	lds.l	@r15+,pr
    1586:	00 0b       	rts	
    1588:	00 09       	nop	
    158a:	00 09       	nop	
    158c:	00 00       	.word 0x0000
    158e:	14 fc       	mov.l	r15,@(48,r4)

00001590 <__close>:
    1590:	4f 22       	sts.l	pr,@-r15
    1592:	d0 03       	mov.l	15a0 <__close+0x10>,r0	! 1510 <_close>
    1594:	40 0b       	jsr	@r0
    1596:	00 09       	nop	
    1598:	4f 26       	lds.l	@r15+,pr
    159a:	00 0b       	rts	
    159c:	00 09       	nop	
    159e:	00 09       	nop	
    15a0:	00 00       	.word 0x0000
    15a2:	15 10       	mov.l	r1,@(0,r5)

000015a4 <__fstat>:
    15a4:	4f 22       	sts.l	pr,@-r15
    15a6:	d0 03       	mov.l	15b4 <__fstat+0x10>,r0	! 1524 <_fstat>
    15a8:	40 0b       	jsr	@r0
    15aa:	00 09       	nop	
    15ac:	4f 26       	lds.l	@r15+,pr
    15ae:	00 0b       	rts	
    15b0:	00 09       	nop	
    15b2:	00 09       	nop	
    15b4:	00 00       	.word 0x0000
    15b6:	15 24       	mov.l	r2,@(16,r5)

000015b8 <__lseek>:
    15b8:	4f 22       	sts.l	pr,@-r15
    15ba:	d0 03       	mov.l	15c8 <__lseek+0x10>,r0	! 153c <_lseek>
    15bc:	40 0b       	jsr	@r0
    15be:	00 09       	nop	
    15c0:	4f 26       	lds.l	@r15+,pr
    15c2:	00 0b       	rts	
    15c4:	00 09       	nop	
    15c6:	00 09       	nop	
    15c8:	00 00       	.word 0x0000
    15ca:	15 3c       	mov.l	r3,@(48,r5)

000015cc <__sbrk>:
    15cc:	4f 22       	sts.l	pr,@-r15
    15ce:	d0 03       	mov.l	15dc <__sbrk+0x10>,r0	! 1540 <_sbrk>
    15d0:	40 0b       	jsr	@r0
    15d2:	00 09       	nop	
    15d4:	4f 26       	lds.l	@r15+,pr
    15d6:	00 0b       	rts	
    15d8:	00 09       	nop	
    15da:	00 09       	nop	
    15dc:	00 00       	.word 0x0000
    15de:	15 40       	mov.l	r4,@(0,r5)

000015e0 <__isatty>:
    15e0:	4f 22       	sts.l	pr,@-r15
    15e2:	d0 03       	mov.l	15f0 <__isatty+0x10>,r0	! 1550 <_isatty>
    15e4:	40 0b       	jsr	@r0
    15e6:	00 09       	nop	
    15e8:	4f 26       	lds.l	@r15+,pr
    15ea:	00 0b       	rts	
    15ec:	00 09       	nop	
    15ee:	00 09       	nop	
    15f0:	00 00       	.word 0x0000
    15f2:	15 50       	mov.l	r5,@(0,r5)

000015f4 <_main>:
    15f4:	4f 22       	sts.l	pr,@-r15
    15f6:	d4 04       	mov.l	1608 <_main+0x14>,r4	! 9df8 <__etext>
    15f8:	d1 04       	mov.l	160c <_main+0x18>,r1	! a404 <_data_value>
    15fa:	d6 05       	mov.l	1610 <_main+0x1c>,r6	! 9e24
    15fc:	d0 05       	mov.l	1614 <_main+0x20>,r0	! 16d8 <_printf>
    15fe:	40 0b       	jsr	@r0
    1600:	65 12       	mov.l	@r1,r5
    1602:	d1 05       	mov.l	1618 <_main+0x24>,r1	! 1644 <_exit>
    1604:	41 0b       	jsr	@r1
    1606:	e4 00       	mov	#0,r4
    1608:	00 00       	.word 0x0000
    160a:	9d f8       	mov.w	17fe <__vfprintf_r+0xf6>,r13	! 9
    160c:	00 00       	.word 0x0000
    160e:	a4 04       	bra	1e1a <__vfprintf_r+0x712>
    1610:	00 00       	.word 0x0000
    1612:	9e 24       	mov.w	165e <_exit+0x1a>,r14	! d103
    1614:	00 00       	.word 0x0000
    1616:	16 d8       	mov.l	r13,@(32,r6)
    1618:	00 00       	.word 0x0000
    161a:	16 44       	mov.l	r4,@(16,r6)

0000161c <__startmain>:
    161c:	4f 22       	sts.l	pr,@-r15
    161e:	d1 05       	mov.l	1634 <__startmain+0x18>,r1	! acc0 <__edata>
    1620:	64 13       	mov	r1,r4
    1622:	e5 00       	mov	#0,r5
    1624:	d6 04       	mov.l	1638 <__startmain+0x1c>,r6	! ed08 <__ebss>
    1626:	d0 05       	mov.l	163c <__startmain+0x20>,r0	! 1670 <_memset>
    1628:	40 0b       	jsr	@r0
    162a:	36 18       	sub	r1,r6
    162c:	d0 04       	mov.l	1640 <__startmain+0x24>,r0	! 15f4 <_main>
    162e:	40 0b       	jsr	@r0
    1630:	00 09       	nop	
    1632:	00 09       	nop	
    1634:	00 00       	.word 0x0000
    1636:	ac c0       	bra	fba <_.tmp+0xf7a>
    1638:	00 00       	.word 0x0000
    163a:	ed 08       	mov	#8,r13
    163c:	00 00       	.word 0x0000
    163e:	16 70       	mov.l	r7,@(0,r6)
    1640:	00 00       	.word 0x0000
    1642:	15 f4       	mov.l	r15,@(16,r5)

00001644 <_exit>:
    1644:	d1 07       	mov.l	1664 <_exit+0x20>,r1	! 3204 <___call_exitprocs>
    1646:	e5 00       	mov	#0,r5
    1648:	2f 86       	mov.l	r8,@-r15
    164a:	4f 22       	sts.l	pr,@-r15
    164c:	41 0b       	jsr	@r1
    164e:	68 43       	mov	r4,r8
    1650:	d1 05       	mov.l	1668 <_exit+0x24>,r1	! 9e2c <__global_impure_ptr>
    1652:	64 12       	mov.l	@r1,r4
    1654:	51 4f       	mov.l	@(60,r4),r1
    1656:	21 18       	tst	r1,r1
    1658:	89 01       	bt	165e <_exit+0x1a>
    165a:	41 0b       	jsr	@r1
    165c:	00 09       	nop	
    165e:	d1 03       	mov.l	166c <_exit+0x28>,r1	! 14c8 <__exit>
    1660:	41 0b       	jsr	@r1
    1662:	64 83       	mov	r8,r4
    1664:	00 00       	.word 0x0000
    1666:	32 04       	div1	r0,r2
    1668:	00 00       	.word 0x0000
    166a:	9e 2c       	mov.w	16c6 <__printf_r+0x16>,r14	! 400b
    166c:	00 00       	.word 0x0000
    166e:	14 c8       	mov.l	r12,@(32,r4)

00001670 <_memset>:
    1670:	e0 0c       	mov	#12,r0
    1672:	30 67       	cmp/gt	r6,r0
    1674:	60 43       	mov	r4,r0
    1676:	36 4c       	add	r4,r6
    1678:	89 12       	bt	16a0 <L_store_byte_loop_check0>
    167a:	c8 03       	tst	#3,r0
    167c:	65 5c       	extu.b	r5,r5
    167e:	89 03       	bt	1688 <L_dup_bytes>

00001680 <L_align_loop>:
    1680:	20 50       	mov.b	r5,@r0
    1682:	70 01       	add	#1,r0
    1684:	c8 03       	tst	#3,r0
    1686:	8b fb       	bf	1680 <L_align_loop>

00001688 <L_dup_bytes>:
    1688:	62 58       	swap.b	r5,r2
    168a:	25 2b       	or	r2,r5
    168c:	62 59       	swap.w	r5,r2
    168e:	25 2b       	or	r2,r5
    1690:	76 f0       	add	#-16,r6
    1692:	00 09       	nop	

00001694 <L_store_long_loop>:
    1694:	20 52       	mov.l	r5,@r0
    1696:	30 62       	cmp/hs	r6,r0
    1698:	10 51       	mov.l	r5,@(4,r0)
    169a:	70 08       	add	#8,r0
    169c:	8b fa       	bf	1694 <L_store_long_loop>
    169e:	76 10       	add	#16,r6

000016a0 <L_store_byte_loop_check0>:
    16a0:	30 60       	cmp/eq	r6,r0
    16a2:	89 03       	bt	16ac <L_exit>

000016a4 <L_store_byte_loop>:
    16a4:	20 50       	mov.b	r5,@r0
    16a6:	70 01       	add	#1,r0
    16a8:	30 60       	cmp/eq	r6,r0
    16aa:	8b fb       	bf	16a4 <L_store_byte_loop>

000016ac <L_exit>:
    16ac:	00 0b       	rts	
    16ae:	60 43       	mov	r4,r0

000016b0 <__printf_r>:
    16b0:	2f 76       	mov.l	r7,@-r15
    16b2:	61 43       	mov	r4,r1
    16b4:	2f 66       	mov.l	r6,@-r15
    16b6:	e2 08       	mov	#8,r2
    16b8:	4f 22       	sts.l	pr,@-r15
    16ba:	66 53       	mov	r5,r6
    16bc:	d0 05       	mov.l	16d4 <__printf_r+0x24>,r0	! 1708 <__vfprintf_r>
    16be:	7f fc       	add	#-4,r15
    16c0:	55 12       	mov.l	@(8,r1),r5
    16c2:	32 fc       	add	r15,r2
    16c4:	2f 22       	mov.l	r2,@r15
    16c6:	40 0b       	jsr	@r0
    16c8:	67 23       	mov	r2,r7
    16ca:	7f 04       	add	#4,r15
    16cc:	4f 26       	lds.l	@r15+,pr
    16ce:	00 0b       	rts	
    16d0:	7f 08       	add	#8,r15
    16d2:	00 09       	nop	
    16d4:	00 00       	.word 0x0000
    16d6:	17 08       	mov.l	r0,@(32,r7)

000016d8 <_printf>:
    16d8:	2f 76       	mov.l	r7,@-r15
    16da:	e2 08       	mov	#8,r2
    16dc:	2f 66       	mov.l	r6,@-r15
    16de:	66 43       	mov	r4,r6
    16e0:	2f 56       	mov.l	r5,@-r15
    16e2:	d1 07       	mov.l	1700 <_printf+0x28>,r1	! a408 <__impure_ptr>
    16e4:	4f 22       	sts.l	pr,@-r15
    16e6:	61 12       	mov.l	@r1,r1
    16e8:	7f fc       	add	#-4,r15
    16ea:	d0 06       	mov.l	1704 <_printf+0x2c>,r0	! 1708 <__vfprintf_r>
    16ec:	32 fc       	add	r15,r2
    16ee:	55 12       	mov.l	@(8,r1),r5
    16f0:	64 13       	mov	r1,r4
    16f2:	2f 22       	mov.l	r2,@r15
    16f4:	40 0b       	jsr	@r0
    16f6:	67 23       	mov	r2,r7
    16f8:	7f 04       	add	#4,r15
    16fa:	4f 26       	lds.l	@r15+,pr
    16fc:	00 0b       	rts	
    16fe:	7f 0c       	add	#12,r15
    1700:	00 00       	.word 0x0000
    1702:	a4 08       	bra	1f16 <__vfprintf_r+0x80e>
    1704:	00 00       	.word 0x0000
    1706:	17 08       	mov.l	r0,@(32,r7)

00001708 <__vfprintf_r>:
    1708:	2f 86       	mov.l	r8,@-r15
    170a:	68 63       	mov	r6,r8
    170c:	2f 96       	mov.l	r9,@-r15
    170e:	2f a6       	mov.l	r10,@-r15
    1710:	2f b6       	mov.l	r11,@-r15
    1712:	2f c6       	mov.l	r12,@-r15
    1714:	2f d6       	mov.l	r13,@-r15
    1716:	2f e6       	mov.l	r14,@-r15
    1718:	91 6b       	mov.w	17f2 <__vfprintf_r+0xea>,r1	! 540
    171a:	4f 22       	sts.l	pr,@-r15
    171c:	d0 38       	mov.l	1800 <__vfprintf_r+0xf8>,r0	! 503c <__localeconv_r>
    171e:	3f 18       	sub	r1,r15
    1720:	1f 58       	mov.l	r5,@(32,r15)
    1722:	1f 47       	mov.l	r4,@(28,r15)
    1724:	40 0b       	jsr	@r0
    1726:	1f 7d       	mov.l	r7,@(52,r15)
    1728:	60 02       	mov.l	@r0,r0
    172a:	e1 40       	mov	#64,r1
    172c:	d2 35       	mov.l	1804 <__vfprintf_r+0xfc>,r2	! 66b0 <_strlen>
    172e:	31 fc       	add	r15,r1
    1730:	64 03       	mov	r0,r4
    1732:	42 0b       	jsr	@r2
    1734:	11 05       	mov.l	r0,@(20,r1)
    1736:	e3 40       	mov	#64,r3
    1738:	33 fc       	add	r15,r3
    173a:	13 08       	mov.l	r0,@(32,r3)
    173c:	e4 00       	mov	#0,r4
    173e:	50 f7       	mov.l	@(28,r15),r0
    1740:	e5 00       	mov	#0,r5
    1742:	13 4a       	mov.l	r4,@(40,r3)
    1744:	20 08       	tst	r0,r0
    1746:	13 5b       	mov.l	r5,@(44,r3)
    1748:	89 04       	bt	1754 <__vfprintf_r+0x4c>
    174a:	51 0e       	mov.l	@(56,r0),r1
    174c:	21 18       	tst	r1,r1
    174e:	8b 01       	bf	1754 <__vfprintf_r+0x4c>
    1750:	a2 ce       	bra	1cf0 <__vfprintf_r+0x5e8>
    1752:	00 09       	nop	
    1754:	52 f8       	mov.l	@(32,r15),r2
    1756:	e0 44       	mov	#68,r0
    1758:	91 4c       	mov.w	17f4 <__vfprintf_r+0xec>,r1	! 2000
    175a:	72 0c       	add	#12,r2
    175c:	67 21       	mov.w	@r2,r7
    175e:	0f 26       	mov.l	r2,@(r0,r15)
    1760:	27 18       	tst	r1,r7
    1762:	8b 07       	bf	1774 <__vfprintf_r+0x6c>
    1764:	27 1b       	or	r1,r7
    1766:	22 71       	mov.w	r7,@r2
    1768:	52 f8       	mov.l	@(32,r15),r2
    176a:	93 44       	mov.w	17f6 <__vfprintf_r+0xee>,r3	! dfff
    176c:	72 40       	add	#64,r2
    176e:	51 29       	mov.l	@(36,r2),r1
    1770:	21 39       	and	r3,r1
    1772:	12 19       	mov.l	r1,@(36,r2)
    1774:	60 73       	mov	r7,r0
    1776:	c8 08       	tst	#8,r0
    1778:	89 03       	bt	1782 <__vfprintf_r+0x7a>
    177a:	52 f8       	mov.l	@(32,r15),r2
    177c:	51 24       	mov.l	@(16,r2),r1
    177e:	21 18       	tst	r1,r1
    1780:	8b 02       	bf	1788 <__vfprintf_r+0x80>
    1782:	a2 3d       	bra	1c00 <__vfprintf_r+0x4f8>
    1784:	54 f7       	mov.l	@(28,r15),r4
    1786:	00 09       	nop	
    1788:	e1 1a       	mov	#26,r1
    178a:	21 79       	and	r7,r1
    178c:	60 13       	mov	r1,r0
    178e:	88 0a       	cmp/eq	#10,r0
    1790:	8b 02       	bf	1798 <__vfprintf_r+0x90>
    1792:	a2 43       	bra	1c1c <__vfprintf_r+0x514>
    1794:	51 f8       	mov.l	@(32,r15),r1
    1796:	00 09       	nop	
    1798:	91 2e       	mov.w	17f8 <__vfprintf_r+0xf0>,r1	! a4
    179a:	e4 40       	mov	#64,r4
    179c:	92 2d       	mov.w	17fa <__vfprintf_r+0xf2>,r2	! 140
    179e:	31 fc       	add	r15,r1
    17a0:	34 fc       	add	r15,r4
    17a2:	32 fc       	add	r15,r2
    17a4:	21 22       	mov.l	r2,@r1
    17a6:	6c 23       	mov	r2,r12
    17a8:	92 28       	mov.w	17fc <__vfprintf_r+0xf4>,r2	! b0
    17aa:	e3 00       	mov	#0,r3
    17ac:	11 32       	mov.l	r3,@(8,r1)
    17ae:	32 fc       	add	r15,r2
    17b0:	14 20       	mov.l	r2,@(0,r4)
    17b2:	72 28       	add	#40,r2
    17b4:	11 31       	mov.l	r3,@(4,r1)
    17b6:	e0 00       	mov	#0,r0
    17b8:	14 36       	mov.l	r3,@(24,r4)
    17ba:	14 34       	mov.l	r3,@(16,r4)
    17bc:	14 3c       	mov.l	r3,@(48,r4)
    17be:	53 40       	mov.l	@(0,r4),r3
    17c0:	14 23       	mov.l	r2,@(12,r4)
    17c2:	73 27       	add	#39,r3
    17c4:	32 38       	sub	r3,r2
    17c6:	1f 0c       	mov.l	r0,@(48,r15)
    17c8:	14 39       	mov.l	r3,@(36,r4)
    17ca:	14 2f       	mov.l	r2,@(60,r4)
    17cc:	1f 86       	mov.l	r8,@(24,r15)
    17ce:	54 f6       	mov.l	@(24,r15),r4
    17d0:	e1 ff       	mov	#-1,r1
    17d2:	62 40       	mov.b	@r4,r2
    17d4:	60 23       	mov	r2,r0
    17d6:	88 25       	cmp/eq	#37,r0
    17d8:	60 1a       	negc	r1,r0
    17da:	c8 ff       	tst	#-1,r0
    17dc:	89 03       	bt	17e6 <__vfprintf_r+0xde>
    17de:	22 28       	tst	r2,r2
    17e0:	60 1a       	negc	r1,r0
    17e2:	c8 ff       	tst	#-1,r0
    17e4:	8b 02       	bf	17ec <__vfprintf_r+0xe4>
    17e6:	a1 8c       	bra	1b02 <__vfprintf_r+0x3fa>
    17e8:	58 f6       	mov.l	@(24,r15),r8
    17ea:	00 09       	nop	
    17ec:	62 43       	mov	r4,r2
    17ee:	a0 0f       	bra	1810 <__vfprintf_r+0x108>
    17f0:	72 01       	add	#1,r2
    17f2:	05 40       	.word 0x0540
    17f4:	20 00       	mov.b	r0,@r0
    17f6:	df ff       	mov.l	1bf4 <__vfprintf_r+0x4ec>,r15	! 50f5cb04
    17f8:	00 a4       	mov.b	r10,@(r0,r0)
    17fa:	01 40       	.word 0x0140
    17fc:	00 b0       	.word 0x00b0
    17fe:	00 09       	nop	
    1800:	00 00       	.word 0x0000
    1802:	50 3c       	mov.l	@(48,r3),r0
    1804:	00 00       	.word 0x0000
    1806:	66 b0       	mov.b	@r11,r6
    1808:	23 38       	tst	r3,r3
    180a:	60 1a       	negc	r1,r0
    180c:	c8 ff       	tst	#-1,r0
    180e:	89 06       	bt	181e <__vfprintf_r+0x116>
    1810:	68 23       	mov	r2,r8
    1812:	63 24       	mov.b	@r2+,r3
    1814:	60 33       	mov	r3,r0
    1816:	88 25       	cmp/eq	#37,r0
    1818:	60 1a       	negc	r1,r0
    181a:	c8 ff       	tst	#-1,r0
    181c:	8b f4       	bf	1808 <__vfprintf_r+0x100>
    181e:	51 f6       	mov.l	@(24,r15),r1
    1820:	69 83       	mov	r8,r9
    1822:	39 18       	sub	r1,r9
    1824:	29 98       	tst	r9,r9
    1826:	89 13       	bt	1850 <__vfprintf_r+0x148>
    1828:	96 6c       	mov.w	1904 <__vfprintf_r+0x1fc>,r6	! a4
    182a:	e2 07       	mov	#7,r2
    182c:	2c 12       	mov.l	r1,@r12
    182e:	36 fc       	add	r15,r6
    1830:	51 62       	mov.l	@(8,r6),r1
    1832:	1c 91       	mov.l	r9,@(4,r12)
    1834:	31 9c       	add	r9,r1
    1836:	16 12       	mov.l	r1,@(8,r6)
    1838:	51 61       	mov.l	@(4,r6),r1
    183a:	71 01       	add	#1,r1
    183c:	16 11       	mov.l	r1,@(4,r6)
    183e:	31 27       	cmp/gt	r2,r1
    1840:	8b 02       	bf	1848 <__vfprintf_r+0x140>
    1842:	a2 4d       	bra	1ce0 <__vfprintf_r+0x5d8>
    1844:	54 f7       	mov.l	@(28,r15),r4
    1846:	00 09       	nop	
    1848:	7c 08       	add	#8,r12
    184a:	50 fc       	mov.l	@(48,r15),r0
    184c:	30 9c       	add	r9,r0
    184e:	1f 0c       	mov.l	r0,@(48,r15)
    1850:	61 80       	mov.b	@r8,r1
    1852:	21 18       	tst	r1,r1
    1854:	89 1b       	bt	188e <__vfprintf_r+0x186>
    1856:	90 56       	mov.w	1906 <__vfprintf_r+0x1fe>,r0	! 83
    1858:	e2 00       	mov	#0,r2
    185a:	78 01       	add	#1,r8
    185c:	0f 24       	mov.b	r2,@(r0,r15)
    185e:	e0 00       	mov	#0,r0
    1860:	97 52       	mov.w	1908 <__vfprintf_r+0x200>,r7	! fb43
    1862:	e2 00       	mov	#0,r2
    1864:	1f 86       	mov.l	r8,@(24,r15)
    1866:	ee ff       	mov	#-1,r14
    1868:	69 80       	mov.b	@r8,r9
    186a:	e1 58       	mov	#88,r1
    186c:	1f 05       	mov.l	r0,@(20,r15)
    186e:	e6 2b       	mov	#43,r6
    1870:	1f 2e       	mov.l	r2,@(56,r15)
    1872:	e5 20       	mov	#32,r5
    1874:	e2 09       	mov	#9,r2
    1876:	63 83       	mov	r8,r3
    1878:	73 01       	add	#1,r3
    187a:	64 93       	mov	r9,r4
    187c:	74 e0       	add	#-32,r4
    187e:	34 16       	cmp/hi	r1,r4
    1880:	89 02       	bt	1888 <__vfprintf_r+0x180>
    1882:	a1 41       	bra	1b08 <__vfprintf_r+0x400>
    1884:	00 09       	nop	
    1886:	00 09       	nop	
    1888:	1f 36       	mov.l	r3,@(24,r15)
    188a:	29 98       	tst	r9,r9
    188c:	8b 02       	bf	1894 <__vfprintf_r+0x18c>
    188e:	a2 09       	bra	1ca4 <__vfprintf_r+0x59c>
    1890:	00 09       	nop	
    1892:	00 09       	nop	
    1894:	95 39       	mov.w	190a <__vfprintf_r+0x202>,r5	! 540
    1896:	e2 00       	mov	#0,r2
    1898:	90 38       	mov.w	190c <__vfprintf_r+0x204>,r0	! fb70
    189a:	35 fc       	add	r15,r5
    189c:	05 94       	mov.b	r9,@(r0,r5)
    189e:	90 32       	mov.w	1906 <__vfprintf_r+0x1fe>,r0	! 83
    18a0:	0f 24       	mov.b	r2,@(r0,r15)
    18a2:	e0 01       	mov	#1,r0
    18a4:	e1 01       	mov	#1,r1
    18a6:	1f 0b       	mov.l	r0,@(44,r15)
    18a8:	e0 40       	mov	#64,r0
    18aa:	1f 19       	mov.l	r1,@(36,r15)
    18ac:	01 fe       	mov.l	@(r0,r15),r1
    18ae:	1f 1f       	mov.l	r1,@(60,r15)
    18b0:	e3 40       	mov	#64,r3
    18b2:	e4 00       	mov	#0,r4
    18b4:	33 fc       	add	r15,r3
    18b6:	13 42       	mov.l	r4,@(8,r3)
    18b8:	13 47       	mov.l	r4,@(28,r3)
    18ba:	5b f5       	mov.l	@(20,r15),r11
    18bc:	e2 02       	mov	#2,r2
    18be:	2b 29       	and	r2,r11
    18c0:	2b b8       	tst	r11,r11
    18c2:	89 02       	bt	18ca <__vfprintf_r+0x1c2>
    18c4:	53 f9       	mov.l	@(36,r15),r3
    18c6:	73 02       	add	#2,r3
    18c8:	1f 39       	mov.l	r3,@(36,r15)
    18ca:	50 f5       	mov.l	@(20,r15),r0
    18cc:	c9 84       	and	#-124,r0
    18ce:	1f 0a       	mov.l	r0,@(40,r15)
    18d0:	20 08       	tst	r0,r0
    18d2:	8b 54       	bf	197e <__vfprintf_r+0x276>
    18d4:	5e fe       	mov.l	@(56,r15),r14
    18d6:	51 f9       	mov.l	@(36,r15),r1
    18d8:	3e 18       	sub	r1,r14
    18da:	4e 15       	cmp/pl	r14
    18dc:	8b 4f       	bf	197e <__vfprintf_r+0x276>
    18de:	e2 10       	mov	#16,r2
    18e0:	3e 27       	cmp/gt	r2,r14
    18e2:	d3 0b       	mov.l	1910 <__vfprintf_r+0x208>,r3	! 9e78 <_blanks.4040>
    18e4:	8b 3a       	bf	195c <__vfprintf_r+0x254>
    18e6:	98 0d       	mov.w	1904 <__vfprintf_r+0x1fc>,r8	! a4
    18e8:	e2 40       	mov	#64,r2
    18ea:	32 fc       	add	r15,r2
    18ec:	38 fc       	add	r15,r8
    18ee:	12 9d       	mov.l	r9,@(52,r2)
    18f0:	67 c3       	mov	r12,r7
    18f2:	12 be       	mov.l	r11,@(56,r2)
    18f4:	ea 10       	mov	#16,r10
    18f6:	6b e3       	mov	r14,r11
    18f8:	ed 07       	mov	#7,r13
    18fa:	6e 83       	mov	r8,r14
    18fc:	59 f8       	mov.l	@(32,r15),r9
    18fe:	6c 33       	mov	r3,r12
    1900:	a0 0c       	bra	191c <__vfprintf_r+0x214>
    1902:	58 f7       	mov.l	@(28,r15),r8
    1904:	00 a4       	mov.b	r10,@(r0,r0)
    1906:	00 83       	.word 0x0083
    1908:	fb 43       	.word 0xfb43
    190a:	05 40       	.word 0x0540
    190c:	fb 70       	.word 0xfb70
    190e:	00 09       	nop	
    1910:	00 00       	.word 0x0000
    1912:	9e 78       	mov.w	1a06 <__vfprintf_r+0x2fe>,r14	! 59f8
    1914:	7b f0       	add	#-16,r11
    1916:	3b a7       	cmp/gt	r10,r11
    1918:	77 08       	add	#8,r7
    191a:	8b 18       	bf	194e <__vfprintf_r+0x246>
    191c:	51 e2       	mov.l	@(8,r14),r1
    191e:	27 c2       	mov.l	r12,@r7
    1920:	71 10       	add	#16,r1
    1922:	17 a1       	mov.l	r10,@(4,r7)
    1924:	1e 12       	mov.l	r1,@(8,r14)
    1926:	51 e1       	mov.l	@(4,r14),r1
    1928:	71 01       	add	#1,r1
    192a:	1e 11       	mov.l	r1,@(4,r14)
    192c:	31 d7       	cmp/gt	r13,r1
    192e:	8b f1       	bf	1914 <__vfprintf_r+0x20c>
    1930:	d3 39       	mov.l	1a18 <__vfprintf_r+0x310>,r3	! 66d0 <___sprint_r>
    1932:	64 83       	mov	r8,r4
    1934:	65 93       	mov	r9,r5
    1936:	43 0b       	jsr	@r3
    1938:	66 e3       	mov	r14,r6
    193a:	20 08       	tst	r0,r0
    193c:	89 02       	bt	1944 <__vfprintf_r+0x23c>
    193e:	a1 bc       	bra	1cba <__vfprintf_r+0x5b2>
    1940:	e0 44       	mov	#68,r0
    1942:	00 09       	nop	
    1944:	97 62       	mov.w	1a0c <__vfprintf_r+0x304>,r7	! 140
    1946:	7b f0       	add	#-16,r11
    1948:	3b a7       	cmp/gt	r10,r11
    194a:	37 fc       	add	r15,r7
    194c:	89 e6       	bt	191c <__vfprintf_r+0x214>
    194e:	e4 40       	mov	#64,r4
    1950:	34 fc       	add	r15,r4
    1952:	6e b3       	mov	r11,r14
    1954:	59 4d       	mov.l	@(52,r4),r9
    1956:	63 c3       	mov	r12,r3
    1958:	5b 4e       	mov.l	@(56,r4),r11
    195a:	6c 73       	mov	r7,r12
    195c:	96 57       	mov.w	1a0e <__vfprintf_r+0x306>,r6	! a4
    195e:	2c 32       	mov.l	r3,@r12
    1960:	36 fc       	add	r15,r6
    1962:	52 62       	mov.l	@(8,r6),r2
    1964:	51 61       	mov.l	@(4,r6),r1
    1966:	32 ec       	add	r14,r2
    1968:	1c e1       	mov.l	r14,@(4,r12)
    196a:	71 01       	add	#1,r1
    196c:	16 22       	mov.l	r2,@(8,r6)
    196e:	e2 07       	mov	#7,r2
    1970:	16 11       	mov.l	r1,@(4,r6)
    1972:	31 27       	cmp/gt	r2,r1
    1974:	8b 02       	bf	197c <__vfprintf_r+0x274>
    1976:	a6 55       	bra	2624 <__vfprintf_r+0xf1c>
    1978:	54 f7       	mov.l	@(28,r15),r4
    197a:	00 09       	nop	
    197c:	7c 08       	add	#8,r12
    197e:	91 47       	mov.w	1a10 <__vfprintf_r+0x308>,r1	! 83
    1980:	31 fc       	add	r15,r1
    1982:	62 10       	mov.b	@r1,r2
    1984:	22 28       	tst	r2,r2
    1986:	89 10       	bt	19aa <__vfprintf_r+0x2a2>
    1988:	96 41       	mov.w	1a0e <__vfprintf_r+0x306>,r6	! a4
    198a:	e2 07       	mov	#7,r2
    198c:	2c 12       	mov.l	r1,@r12
    198e:	36 fc       	add	r15,r6
    1990:	e1 01       	mov	#1,r1
    1992:	1c 11       	mov.l	r1,@(4,r12)
    1994:	51 62       	mov.l	@(8,r6),r1
    1996:	71 01       	add	#1,r1
    1998:	16 12       	mov.l	r1,@(8,r6)
    199a:	51 61       	mov.l	@(4,r6),r1
    199c:	71 01       	add	#1,r1
    199e:	16 11       	mov.l	r1,@(4,r6)
    19a0:	31 27       	cmp/gt	r2,r1
    19a2:	8b 01       	bf	19a8 <__vfprintf_r+0x2a0>
    19a4:	a5 6a       	bra	247c <__vfprintf_r+0xd74>
    19a6:	54 f7       	mov.l	@(28,r15),r4
    19a8:	7c 08       	add	#8,r12
    19aa:	2b b8       	tst	r11,r11
    19ac:	89 13       	bt	19d6 <__vfprintf_r+0x2ce>
    19ae:	91 30       	mov.w	1a12 <__vfprintf_r+0x30a>,r1	! 84
    19b0:	e2 07       	mov	#7,r2
    19b2:	96 2c       	mov.w	1a0e <__vfprintf_r+0x306>,r6	! a4
    19b4:	31 fc       	add	r15,r1
    19b6:	2c 12       	mov.l	r1,@r12
    19b8:	36 fc       	add	r15,r6
    19ba:	e1 02       	mov	#2,r1
    19bc:	1c 11       	mov.l	r1,@(4,r12)
    19be:	51 62       	mov.l	@(8,r6),r1
    19c0:	71 02       	add	#2,r1
    19c2:	16 12       	mov.l	r1,@(8,r6)
    19c4:	51 61       	mov.l	@(4,r6),r1
    19c6:	71 01       	add	#1,r1
    19c8:	16 11       	mov.l	r1,@(4,r6)
    19ca:	31 27       	cmp/gt	r2,r1
    19cc:	8b 02       	bf	19d4 <__vfprintf_r+0x2cc>
    19ce:	a5 5d       	bra	248c <__vfprintf_r+0xd84>
    19d0:	54 f7       	mov.l	@(28,r15),r4
    19d2:	00 09       	nop	
    19d4:	7c 08       	add	#8,r12
    19d6:	91 1d       	mov.w	1a14 <__vfprintf_r+0x30c>,r1	! 80
    19d8:	50 fa       	mov.l	@(40,r15),r0
    19da:	30 10       	cmp/eq	r1,r0
    19dc:	8b 02       	bf	19e4 <__vfprintf_r+0x2dc>
    19de:	a4 7d       	bra	22dc <__vfprintf_r+0xbd4>
    19e0:	5e fe       	mov.l	@(56,r15),r14
    19e2:	00 09       	nop	
    19e4:	e0 48       	mov	#72,r0
    19e6:	0e fe       	mov.l	@(r0,r15),r14
    19e8:	53 fb       	mov.l	@(44,r15),r3
    19ea:	3e 38       	sub	r3,r14
    19ec:	4e 15       	cmp/pl	r14
    19ee:	8b 48       	bf	1a82 <__vfprintf_r+0x37a>
    19f0:	e1 10       	mov	#16,r1
    19f2:	3e 17       	cmp/gt	r1,r14
    19f4:	d8 09       	mov.l	1a1c <__vfprintf_r+0x314>,r8	! 9e88 <_zeroes.4041>
    19f6:	8b 33       	bf	1a60 <__vfprintf_r+0x358>
    19f8:	9d 09       	mov.w	1a0e <__vfprintf_r+0x306>,r13	! a4
    19fa:	62 c3       	mov	r12,r2
    19fc:	1f 9a       	mov.l	r9,@(40,r15)
    19fe:	6c 83       	mov	r8,r12
    1a00:	ea 10       	mov	#16,r10
    1a02:	3d fc       	add	r15,r13
    1a04:	eb 07       	mov	#7,r11
    1a06:	59 f8       	mov.l	@(32,r15),r9
    1a08:	a0 0e       	bra	1a28 <__vfprintf_r+0x320>
    1a0a:	58 f7       	mov.l	@(28,r15),r8
    1a0c:	01 40       	.word 0x0140
    1a0e:	00 a4       	mov.b	r10,@(r0,r0)
    1a10:	00 83       	.word 0x0083
    1a12:	00 84       	mov.b	r8,@(r0,r0)
    1a14:	00 80       	.word 0x0080
    1a16:	00 09       	nop	
    1a18:	00 00       	.word 0x0000
    1a1a:	66 d0       	mov.b	@r13,r6
    1a1c:	00 00       	.word 0x0000
    1a1e:	9e 88       	mov.w	1b32 <__vfprintf_r+0x42a>,r14	! fd64
    1a20:	7e f0       	add	#-16,r14
    1a22:	3e a7       	cmp/gt	r10,r14
    1a24:	72 08       	add	#8,r2
    1a26:	8b 18       	bf	1a5a <__vfprintf_r+0x352>
    1a28:	51 d2       	mov.l	@(8,r13),r1
    1a2a:	22 c2       	mov.l	r12,@r2
    1a2c:	71 10       	add	#16,r1
    1a2e:	12 a1       	mov.l	r10,@(4,r2)
    1a30:	1d 12       	mov.l	r1,@(8,r13)
    1a32:	51 d1       	mov.l	@(4,r13),r1
    1a34:	71 01       	add	#1,r1
    1a36:	1d 11       	mov.l	r1,@(4,r13)
    1a38:	31 b7       	cmp/gt	r11,r1
    1a3a:	8b f1       	bf	1a20 <__vfprintf_r+0x318>
    1a3c:	d7 38       	mov.l	1b20 <__vfprintf_r+0x418>,r7	! 66d0 <___sprint_r>
    1a3e:	64 83       	mov	r8,r4
    1a40:	65 93       	mov	r9,r5
    1a42:	47 0b       	jsr	@r7
    1a44:	66 d3       	mov	r13,r6
    1a46:	20 08       	tst	r0,r0
    1a48:	89 02       	bt	1a50 <__vfprintf_r+0x348>
    1a4a:	a1 36       	bra	1cba <__vfprintf_r+0x5b2>
    1a4c:	e0 44       	mov	#68,r0
    1a4e:	00 09       	nop	
    1a50:	92 60       	mov.w	1b14 <__vfprintf_r+0x40c>,r2	! 140
    1a52:	7e f0       	add	#-16,r14
    1a54:	3e a7       	cmp/gt	r10,r14
    1a56:	32 fc       	add	r15,r2
    1a58:	89 e6       	bt	1a28 <__vfprintf_r+0x320>
    1a5a:	59 fa       	mov.l	@(40,r15),r9
    1a5c:	68 c3       	mov	r12,r8
    1a5e:	6c 23       	mov	r2,r12
    1a60:	96 59       	mov.w	1b16 <__vfprintf_r+0x40e>,r6	! a4
    1a62:	e2 07       	mov	#7,r2
    1a64:	2c 82       	mov.l	r8,@r12
    1a66:	36 fc       	add	r15,r6
    1a68:	51 62       	mov.l	@(8,r6),r1
    1a6a:	1c e1       	mov.l	r14,@(4,r12)
    1a6c:	31 ec       	add	r14,r1
    1a6e:	16 12       	mov.l	r1,@(8,r6)
    1a70:	51 61       	mov.l	@(4,r6),r1
    1a72:	71 01       	add	#1,r1
    1a74:	16 11       	mov.l	r1,@(4,r6)
    1a76:	31 27       	cmp/gt	r2,r1
    1a78:	8b 02       	bf	1a80 <__vfprintf_r+0x378>
    1a7a:	a4 f7       	bra	246c <__vfprintf_r+0xd64>
    1a7c:	54 f7       	mov.l	@(28,r15),r4
    1a7e:	00 09       	nop	
    1a80:	7c 08       	add	#8,r12
    1a82:	91 49       	mov.w	1b18 <__vfprintf_r+0x410>,r1	! 100
    1a84:	50 f5       	mov.l	@(20,r15),r0
    1a86:	20 18       	tst	r1,r0
    1a88:	89 02       	bt	1a90 <__vfprintf_r+0x388>
    1a8a:	a3 45       	bra	2118 <__vfprintf_r+0xa10>
    1a8c:	e1 65       	mov	#101,r1
    1a8e:	00 09       	nop	
    1a90:	50 ff       	mov.l	@(60,r15),r0
    1a92:	96 40       	mov.w	1b16 <__vfprintf_r+0x40e>,r6	! a4
    1a94:	2c 02       	mov.l	r0,@r12
    1a96:	36 fc       	add	r15,r6
    1a98:	50 fb       	mov.l	@(44,r15),r0
    1a9a:	51 62       	mov.l	@(8,r6),r1
    1a9c:	1c 01       	mov.l	r0,@(4,r12)
    1a9e:	31 0c       	add	r0,r1
    1aa0:	16 12       	mov.l	r1,@(8,r6)
    1aa2:	e2 07       	mov	#7,r2
    1aa4:	51 61       	mov.l	@(4,r6),r1
    1aa6:	71 01       	add	#1,r1
    1aa8:	16 11       	mov.l	r1,@(4,r6)
    1aaa:	31 27       	cmp/gt	r2,r1
    1aac:	8b 02       	bf	1ab4 <__vfprintf_r+0x3ac>
    1aae:	a4 c5       	bra	243c <__vfprintf_r+0xd34>
    1ab0:	00 09       	nop	
    1ab2:	00 09       	nop	
    1ab4:	7c 08       	add	#8,r12
    1ab6:	50 f5       	mov.l	@(20,r15),r0
    1ab8:	c8 04       	tst	#4,r0
    1aba:	89 01       	bt	1ac0 <__vfprintf_r+0x3b8>
    1abc:	a3 ae       	bra	221c <__vfprintf_r+0xb14>
    1abe:	5b fe       	mov.l	@(56,r15),r11
    1ac0:	91 2b       	mov.w	1b1a <__vfprintf_r+0x412>,r1	! 540
    1ac2:	90 2b       	mov.w	1b1c <__vfprintf_r+0x414>,r0	! fb6c
    1ac4:	31 fc       	add	r15,r1
    1ac6:	02 1e       	mov.l	@(r0,r1),r2
    1ac8:	51 f9       	mov.l	@(36,r15),r1
    1aca:	54 fe       	mov.l	@(56,r15),r4
    1acc:	31 43       	cmp/ge	r4,r1
    1ace:	89 00       	bt	1ad2 <__vfprintf_r+0x3ca>
    1ad0:	61 43       	mov	r4,r1
    1ad2:	50 fc       	mov.l	@(48,r15),r0
    1ad4:	22 28       	tst	r2,r2
    1ad6:	30 1c       	add	r1,r0
    1ad8:	1f 0c       	mov.l	r0,@(48,r15)
    1ada:	89 01       	bt	1ae0 <__vfprintf_r+0x3d8>
    1adc:	a4 b8       	bra	2450 <__vfprintf_r+0xd48>
    1ade:	54 f7       	mov.l	@(28,r15),r4
    1ae0:	90 1d       	mov.w	1b1e <__vfprintf_r+0x416>,r0	! a8
    1ae2:	e2 00       	mov	#0,r2
    1ae4:	54 f6       	mov.l	@(24,r15),r4
    1ae6:	e1 ff       	mov	#-1,r1
    1ae8:	0f 26       	mov.l	r2,@(r0,r15)
    1aea:	62 40       	mov.b	@r4,r2
    1aec:	60 23       	mov	r2,r0
    1aee:	9c 11       	mov.w	1b14 <__vfprintf_r+0x40c>,r12	! 140
    1af0:	88 25       	cmp/eq	#37,r0
    1af2:	60 1a       	negc	r1,r0
    1af4:	c8 ff       	tst	#-1,r0
    1af6:	3c fc       	add	r15,r12
    1af8:	89 02       	bt	1b00 <__vfprintf_r+0x3f8>
    1afa:	ae 71       	bra	17e0 <__vfprintf_r+0xd8>
    1afc:	22 28       	tst	r2,r2
    1afe:	00 09       	nop	
    1b00:	58 f6       	mov.l	@(24,r15),r8
    1b02:	ae a6       	bra	1852 <__vfprintf_r+0x14a>
    1b04:	61 80       	mov.b	@r8,r1
    1b06:	00 09       	nop	
    1b08:	c7 06       	mova	1b24 <__vfprintf_r+0x41c>,r0
    1b0a:	34 4c       	add	r4,r4
    1b0c:	04 4d       	mov.w	@(r0,r4),r4
    1b0e:	34 0c       	add	r0,r4
    1b10:	44 2b       	jmp	@r4
    1b12:	00 09       	nop	
    1b14:	01 40       	.word 0x0140
    1b16:	00 a4       	mov.b	r10,@(r0,r0)
    1b18:	01 00       	.word 0x0100
    1b1a:	05 40       	.word 0x0540
    1b1c:	fb 6c       	.word 0xfb6c
    1b1e:	00 a8       	.word 0x00a8
    1b20:	00 00       	.word 0x0000
    1b22:	66 d0       	mov.b	@r13,r6
    1b24:	04 a4       	mov.b	r10,@(r0,r4)
    1b26:	fd 64       	.word 0xfd64
    1b28:	fd 64       	.word 0xfd64
    1b2a:	04 bc       	mov.b	@(r0,r11),r4
    1b2c:	fd 64       	.word 0xfd64
    1b2e:	fd 64       	.word 0xfd64
    1b30:	fd 64       	.word 0xfd64
    1b32:	fd 64       	.word 0xfd64
    1b34:	fd 64       	.word 0xfd64
    1b36:	fd 64       	.word 0xfd64
    1b38:	00 b4       	mov.b	r11,@(r0,r0)
    1b3a:	04 6c       	mov.b	@(r0,r6),r4
    1b3c:	fd 64       	.word 0xfd64
    1b3e:	00 d0       	.word 0x00d0
    1b40:	04 28       	.word 0x0428
    1b42:	fd 64       	.word 0xfd64
    1b44:	04 78       	.word 0x0478
    1b46:	04 84       	mov.b	r8,@(r0,r4)
    1b48:	04 84       	mov.b	r8,@(r0,r4)
    1b4a:	04 84       	mov.b	r8,@(r0,r4)
    1b4c:	04 84       	mov.b	r8,@(r0,r4)
    1b4e:	04 84       	mov.b	r8,@(r0,r4)
    1b50:	04 84       	mov.b	r8,@(r0,r4)
    1b52:	04 84       	mov.b	r8,@(r0,r4)
    1b54:	04 84       	mov.b	r8,@(r0,r4)
    1b56:	04 84       	mov.b	r8,@(r0,r4)
    1b58:	fd 64       	.word 0xfd64
    1b5a:	fd 64       	.word 0xfd64
    1b5c:	fd 64       	.word 0xfd64
    1b5e:	fd 64       	.word 0xfd64
    1b60:	fd 64       	.word 0xfd64
    1b62:	fd 64       	.word 0xfd64
    1b64:	fd 64       	.word 0xfd64
    1b66:	fd 64       	.word 0xfd64
    1b68:	fd 64       	.word 0xfd64
    1b6a:	fd 64       	.word 0xfd64
    1b6c:	01 f8       	.word 0x01f8
    1b6e:	02 d8       	.word 0x02d8
    1b70:	fd 64       	.word 0xfd64
    1b72:	02 d8       	.word 0x02d8
    1b74:	fd 64       	.word 0xfd64
    1b76:	fd 64       	.word 0xfd64
    1b78:	fd 64       	.word 0xfd64
    1b7a:	fd 64       	.word 0xfd64
    1b7c:	03 50       	.word 0x0350
    1b7e:	fd 64       	.word 0xfd64
    1b80:	fd 64       	.word 0xfd64
    1b82:	03 c8       	.word 0x03c8
    1b84:	fd 64       	.word 0xfd64
    1b86:	fd 64       	.word 0xfd64
    1b88:	fd 64       	.word 0xfd64
    1b8a:	fd 64       	.word 0xfd64
    1b8c:	fd 64       	.word 0xfd64
    1b8e:	03 f8       	.word 0x03f8
    1b90:	fd 64       	.word 0xfd64
    1b92:	fd 64       	.word 0xfd64
    1b94:	03 6c       	mov.b	@(r0,r6),r3
    1b96:	fd 64       	.word 0xfd64
    1b98:	fd 64       	.word 0xfd64
    1b9a:	fd 64       	.word 0xfd64
    1b9c:	fd 64       	.word 0xfd64
    1b9e:	fd 64       	.word 0xfd64
    1ba0:	fd 64       	.word 0xfd64
    1ba2:	fd 64       	.word 0xfd64
    1ba4:	fd 64       	.word 0xfd64
    1ba6:	fd 64       	.word 0xfd64
    1ba8:	fd 64       	.word 0xfd64
    1baa:	03 ac       	mov.b	@(r0,r10),r3
    1bac:	05 dc       	mov.b	@(r0,r13),r5
    1bae:	02 d8       	.word 0x02d8
    1bb0:	02 d8       	.word 0x02d8
    1bb2:	02 d8       	.word 0x02d8
    1bb4:	05 d0       	.word 0x05d0
    1bb6:	05 dc       	mov.b	@(r0,r13),r5
    1bb8:	fd 64       	.word 0xfd64
    1bba:	fd 64       	.word 0xfd64
    1bbc:	05 98       	.word 0x0598
    1bbe:	fd 64       	.word 0xfd64
    1bc0:	05 ac       	mov.b	@(r0,r10),r5
    1bc2:	05 e0       	.word 0x05e0
    1bc4:	04 d0       	.word 0x04d0
    1bc6:	05 04       	mov.b	r0,@(r0,r5)
    1bc8:	fd 64       	.word 0xfd64
    1bca:	05 10       	.word 0x0510
    1bcc:	fd 64       	.word 0xfd64
    1bce:	05 e4       	mov.b	r14,@(r0,r5)
    1bd0:	fd 64       	.word 0xfd64
    1bd2:	fd 64       	.word 0xfd64
    1bd4:	05 6c       	mov.b	@(r0,r6),r5
    1bd6:	00 09       	nop	
    1bd8:	50 fd       	mov.l	@(52,r15),r0
    1bda:	54 fd       	mov.l	@(52,r15),r4
    1bdc:	60 02       	mov.l	@r0,r0
    1bde:	74 04       	add	#4,r4
    1be0:	1f 0e       	mov.l	r0,@(56,r15)
    1be2:	40 11       	cmp/pz	r0
    1be4:	8b 02       	bf	1bec <__vfprintf_r+0x4e4>
    1be6:	a1 d1       	bra	1f8c <__vfprintf_r+0x884>
    1be8:	69 30       	mov.b	@r3,r9
    1bea:	00 09       	nop	
    1bec:	50 fe       	mov.l	@(56,r15),r0
    1bee:	1f 4d       	mov.l	r4,@(52,r15)
    1bf0:	60 0b       	neg	r0,r0
    1bf2:	1f 0e       	mov.l	r0,@(56,r15)
    1bf4:	50 f5       	mov.l	@(20,r15),r0
    1bf6:	cb 04       	or	#4,r0
    1bf8:	1f 05       	mov.l	r0,@(20,r15)
    1bfa:	ae 3d       	bra	1878 <__vfprintf_r+0x170>
    1bfc:	69 30       	mov.b	@r3,r9
    1bfe:	00 09       	nop	
    1c00:	d0 41       	mov.l	1d08 <__vfprintf_r+0x600>,r0	! 3108 <___swsetup_r>
    1c02:	40 0b       	jsr	@r0
    1c04:	55 f8       	mov.l	@(32,r15),r5
    1c06:	20 08       	tst	r0,r0
    1c08:	8b 5b       	bf	1cc2 <__vfprintf_r+0x5ba>
    1c0a:	e0 44       	mov	#68,r0
    1c0c:	01 fe       	mov.l	@(r0,r15),r1
    1c0e:	67 11       	mov.w	@r1,r7
    1c10:	e1 1a       	mov	#26,r1
    1c12:	21 79       	and	r7,r1
    1c14:	60 13       	mov	r1,r0
    1c16:	88 0a       	cmp/eq	#10,r0
    1c18:	8b 04       	bf	1c24 <__vfprintf_r+0x51c>
    1c1a:	51 f8       	mov.l	@(32,r15),r1
    1c1c:	71 0e       	add	#14,r1
    1c1e:	61 11       	mov.w	@r1,r1
    1c20:	41 11       	cmp/pz	r1
    1c22:	89 01       	bt	1c28 <__vfprintf_r+0x520>
    1c24:	ad b8       	bra	1798 <__vfprintf_r+0x90>
    1c26:	00 09       	nop	
    1c28:	e3 fd       	mov	#-3,r3
    1c2a:	60 73       	mov	r7,r0
    1c2c:	20 39       	and	r3,r0
    1c2e:	99 64       	mov.w	1cfa <__vfprintf_r+0x5f2>,r9	! d8
    1c30:	66 83       	mov	r8,r6
    1c32:	53 f8       	mov.l	@(32,r15),r3
    1c34:	39 fc       	add	r15,r9
    1c36:	62 93       	mov	r9,r2
    1c38:	73 40       	add	#64,r3
    1c3a:	53 39       	mov.l	@(36,r3),r3
    1c3c:	72 0c       	add	#12,r2
    1c3e:	22 01       	mov.w	r0,@r2
    1c40:	72 34       	add	#52,r2
    1c42:	12 39       	mov.l	r3,@(36,r2)
    1c44:	72 ce       	add	#-50,r2
    1c46:	22 11       	mov.w	r1,@r2
    1c48:	65 93       	mov	r9,r5
    1c4a:	52 f8       	mov.l	@(32,r15),r2
    1c4c:	d0 2f       	mov.l	1d0c <__vfprintf_r+0x604>,r0	! 1708 <__vfprintf_r>
    1c4e:	51 27       	mov.l	@(28,r2),r1
    1c50:	54 f7       	mov.l	@(28,r15),r4
    1c52:	19 17       	mov.l	r1,@(28,r9)
    1c54:	51 29       	mov.l	@(36,r2),r1
    1c56:	57 fd       	mov.l	@(52,r15),r7
    1c58:	19 19       	mov.l	r1,@(36,r9)
    1c5a:	91 4f       	mov.w	1cfc <__vfprintf_r+0x5f4>,r1	! 140
    1c5c:	31 fc       	add	r15,r1
    1c5e:	29 12       	mov.l	r1,@r9
    1c60:	19 14       	mov.l	r1,@(16,r9)
    1c62:	91 4c       	mov.w	1cfe <__vfprintf_r+0x5f6>,r1	! 400
    1c64:	19 12       	mov.l	r1,@(8,r9)
    1c66:	19 15       	mov.l	r1,@(20,r9)
    1c68:	e1 00       	mov	#0,r1
    1c6a:	40 0b       	jsr	@r0
    1c6c:	19 16       	mov.l	r1,@(24,r9)
    1c6e:	1f 0c       	mov.l	r0,@(48,r15)
    1c70:	40 11       	cmp/pz	r0
    1c72:	8b 0b       	bf	1c8c <__vfprintf_r+0x584>
    1c74:	d0 26       	mov.l	1d10 <__vfprintf_r+0x608>,r0	! 4940 <__fflush_r>
    1c76:	65 93       	mov	r9,r5
    1c78:	40 0b       	jsr	@r0
    1c7a:	54 f7       	mov.l	@(28,r15),r4
    1c7c:	20 08       	tst	r0,r0
    1c7e:	89 05       	bt	1c8c <__vfprintf_r+0x584>
    1c80:	d0 01       	mov.l	1c88 <__vfprintf_r+0x580>,r0	! 30b8
    1c82:	40 2b       	jmp	@r0
    1c84:	e0 ff       	mov	#-1,r0
    1c86:	00 09       	nop	
    1c88:	00 00       	.word 0x0000
    1c8a:	30 b8       	sub	r11,r0
    1c8c:	91 38       	mov.w	1d00 <__vfprintf_r+0x5f8>,r1	! 540
    1c8e:	90 38       	mov.w	1d02 <__vfprintf_r+0x5fa>,r0	! fba4
    1c90:	31 fc       	add	r15,r1
    1c92:	00 1d       	mov.w	@(r0,r1),r0
    1c94:	c8 40       	tst	#64,r0
    1c96:	89 16       	bt	1cc6 <__vfprintf_r+0x5be>
    1c98:	e0 44       	mov	#68,r0
    1c9a:	02 fe       	mov.l	@(r0,r15),r2
    1c9c:	60 21       	mov.w	@r2,r0
    1c9e:	cb 40       	or	#64,r0
    1ca0:	a0 11       	bra	1cc6 <__vfprintf_r+0x5be>
    1ca2:	22 01       	mov.w	r0,@r2
    1ca4:	96 2e       	mov.w	1d04 <__vfprintf_r+0x5fc>,r6	! a4
    1ca6:	36 fc       	add	r15,r6
    1ca8:	51 62       	mov.l	@(8,r6),r1
    1caa:	21 18       	tst	r1,r1
    1cac:	89 04       	bt	1cb8 <__vfprintf_r+0x5b0>
    1cae:	d0 19       	mov.l	1d14 <__vfprintf_r+0x60c>,r0	! 66d0 <___sprint_r>
    1cb0:	54 f7       	mov.l	@(28,r15),r4
    1cb2:	40 0b       	jsr	@r0
    1cb4:	55 f8       	mov.l	@(32,r15),r5
    1cb6:	00 09       	nop	
    1cb8:	e0 44       	mov	#68,r0
    1cba:	02 fe       	mov.l	@(r0,r15),r2
    1cbc:	60 21       	mov.w	@r2,r0
    1cbe:	c8 40       	tst	#64,r0
    1cc0:	89 01       	bt	1cc6 <__vfprintf_r+0x5be>
    1cc2:	e0 ff       	mov	#-1,r0
    1cc4:	1f 0c       	mov.l	r0,@(48,r15)
    1cc6:	50 fc       	mov.l	@(48,r15),r0
    1cc8:	97 1a       	mov.w	1d00 <__vfprintf_r+0x5f8>,r7	! 540
    1cca:	3f 7c       	add	r7,r15
    1ccc:	4f 26       	lds.l	@r15+,pr
    1cce:	6e f6       	mov.l	@r15+,r14
    1cd0:	6d f6       	mov.l	@r15+,r13
    1cd2:	6c f6       	mov.l	@r15+,r12
    1cd4:	6b f6       	mov.l	@r15+,r11
    1cd6:	6a f6       	mov.l	@r15+,r10
    1cd8:	69 f6       	mov.l	@r15+,r9
    1cda:	68 f6       	mov.l	@r15+,r8
    1cdc:	00 0b       	rts	
    1cde:	00 09       	nop	
    1ce0:	d0 0c       	mov.l	1d14 <__vfprintf_r+0x60c>,r0	! 66d0 <___sprint_r>
    1ce2:	40 0b       	jsr	@r0
    1ce4:	55 f8       	mov.l	@(32,r15),r5
    1ce6:	20 08       	tst	r0,r0
    1ce8:	8b e6       	bf	1cb8 <__vfprintf_r+0x5b0>
    1cea:	9c 07       	mov.w	1cfc <__vfprintf_r+0x5f4>,r12	! 140
    1cec:	ad ad       	bra	184a <__vfprintf_r+0x142>
    1cee:	3c fc       	add	r15,r12
    1cf0:	d1 09       	mov.l	1d18 <__vfprintf_r+0x610>,r1	! 4a90 <___sinit>
    1cf2:	41 0b       	jsr	@r1
    1cf4:	64 03       	mov	r0,r4
    1cf6:	ad 2e       	bra	1756 <__vfprintf_r+0x4e>
    1cf8:	52 f8       	mov.l	@(32,r15),r2
    1cfa:	00 d8       	.word 0x00d8
    1cfc:	01 40       	.word 0x0140
    1cfe:	04 00       	.word 0x0400
    1d00:	05 40       	.word 0x0540
    1d02:	fb a4       	.word 0xfba4
    1d04:	00 a4       	mov.b	r10,@(r0,r0)
    1d06:	00 09       	nop	
    1d08:	00 00       	.word 0x0000
    1d0a:	31 08       	sub	r0,r1
    1d0c:	00 00       	.word 0x0000
    1d0e:	17 08       	mov.l	r0,@(32,r7)
    1d10:	00 00       	.word 0x0000
    1d12:	49 40       	.word 0x4940
    1d14:	00 00       	.word 0x0000
    1d16:	66 d0       	mov.b	@r13,r6
    1d18:	00 00       	.word 0x0000
    1d1a:	4a 90       	.word 0x4a90
    1d1c:	50 f5       	mov.l	@(20,r15),r0
    1d1e:	1f 36       	mov.l	r3,@(24,r15)
    1d20:	cb 10       	or	#16,r0
    1d22:	1f 05       	mov.l	r0,@(20,r15)
    1d24:	50 f5       	mov.l	@(20,r15),r0
    1d26:	c9 20       	and	#32,r0
    1d28:	20 08       	tst	r0,r0
    1d2a:	8b 01       	bf	1d30 <__vfprintf_r+0x628>
    1d2c:	a4 d6       	bra	26dc <__vfprintf_r+0xfd4>
    1d2e:	51 f5       	mov.l	@(20,r15),r1
    1d30:	52 fd       	mov.l	@(52,r15),r2
    1d32:	61 22       	mov.l	@r2,r1
    1d34:	5d 21       	mov.l	@(4,r2),r13
    1d36:	72 08       	add	#8,r2
    1d38:	1f 2d       	mov.l	r2,@(52,r15)
    1d3a:	6b 13       	mov	r1,r11
    1d3c:	41 11       	cmp/pz	r1
    1d3e:	89 01       	bt	1d44 <__vfprintf_r+0x63c>
    1d40:	a5 c6       	bra	28d0 <__vfprintf_r+0x11c8>
    1d42:	00 08       	clrt	
    1d44:	61 b3       	mov	r11,r1
    1d46:	21 db       	or	r13,r1
    1d48:	21 18       	tst	r1,r1
    1d4a:	e1 ff       	mov	#-1,r1
    1d4c:	61 1a       	negc	r1,r1
    1d4e:	63 1c       	extu.b	r1,r3
    1d50:	e2 01       	mov	#1,r2
    1d52:	4e 11       	cmp/pz	r14
    1d54:	8b 03       	bf	1d5e <__vfprintf_r+0x656>
    1d56:	50 f5       	mov.l	@(20,r15),r0
    1d58:	91 91       	mov.w	1e7e <__vfprintf_r+0x776>,r1	! ff7f
    1d5a:	20 19       	and	r1,r0
    1d5c:	1f 05       	mov.l	r0,@(20,r15)
    1d5e:	2e e8       	tst	r14,r14
    1d60:	e0 ff       	mov	#-1,r0
    1d62:	60 0a       	negc	r0,r0
    1d64:	c8 ff       	tst	#-1,r0
    1d66:	8b 03       	bf	1d70 <__vfprintf_r+0x668>
    1d68:	23 38       	tst	r3,r3
    1d6a:	8b 01       	bf	1d70 <__vfprintf_r+0x668>
    1d6c:	a2 46       	bra	21fc <__vfprintf_r+0xaf4>
    1d6e:	22 28       	tst	r2,r2
    1d70:	60 23       	mov	r2,r0
    1d72:	88 01       	cmp/eq	#1,r0
    1d74:	8b 02       	bf	1d7c <__vfprintf_r+0x674>
    1d76:	a4 25       	bra	25c4 <__vfprintf_r+0xebc>
    1d78:	2b b8       	tst	r11,r11
    1d7a:	00 09       	nop	
    1d7c:	88 02       	cmp/eq	#2,r0
    1d7e:	e0 4c       	mov	#76,r0
    1d80:	8b 02       	bf	1d88 <__vfprintf_r+0x680>
    1d82:	a3 f7       	bra	2574 <__vfprintf_r+0xe6c>
    1d84:	02 fe       	mov.l	@(r0,r15),r2
    1d86:	00 09       	nop	
    1d88:	01 fe       	mov.l	@(r0,r15),r1
    1d8a:	60 d3       	mov	r13,r0
    1d8c:	63 13       	mov	r1,r3
    1d8e:	67 b3       	mov	r11,r7
    1d90:	47 28       	shll16	r7
    1d92:	47 01       	shlr	r7
    1d94:	61 03       	mov	r0,r1
    1d96:	47 09       	shlr2	r7
    1d98:	41 09       	shlr2	r1
    1d9a:	47 28       	shll16	r7
    1d9c:	41 01       	shlr	r1
    1d9e:	21 7b       	or	r7,r1
    1da0:	e2 07       	mov	#7,r2
    1da2:	67 b3       	mov	r11,r7
    1da4:	22 09       	and	r0,r2
    1da6:	47 09       	shlr2	r7
    1da8:	47 01       	shlr	r7
    1daa:	72 30       	add	#48,r2
    1dac:	23 24       	mov.b	r2,@-r3
    1dae:	27 78       	tst	r7,r7
    1db0:	6b 73       	mov	r7,r11
    1db2:	60 13       	mov	r1,r0
    1db4:	8b eb       	bf	1d8e <__vfprintf_r+0x686>
    1db6:	21 18       	tst	r1,r1
    1db8:	8b e9       	bf	1d8e <__vfprintf_r+0x686>
    1dba:	50 f5       	mov.l	@(20,r15),r0
    1dbc:	61 33       	mov	r3,r1
    1dbe:	1f 3f       	mov.l	r3,@(60,r15)
    1dc0:	c8 01       	tst	#1,r0
    1dc2:	89 01       	bt	1dc8 <__vfprintf_r+0x6c0>
    1dc4:	a5 74       	bra	28b0 <__vfprintf_r+0x11a8>
    1dc6:	60 23       	mov	r2,r0
    1dc8:	e0 4c       	mov	#76,r0
    1dca:	00 fe       	mov.l	@(r0,r15),r0
    1dcc:	30 38       	sub	r3,r0
    1dce:	1f 0b       	mov.l	r0,@(44,r15)
    1dd0:	50 fb       	mov.l	@(44,r15),r0
    1dd2:	1f 09       	mov.l	r0,@(36,r15)
    1dd4:	30 e3       	cmp/ge	r14,r0
    1dd6:	89 00       	bt	1dda <__vfprintf_r+0x6d2>
    1dd8:	1f e9       	mov.l	r14,@(36,r15)
    1dda:	92 51       	mov.w	1e80 <__vfprintf_r+0x778>,r2	! 540
    1ddc:	e3 40       	mov	#64,r3
    1dde:	90 50       	mov.w	1e82 <__vfprintf_r+0x77a>,r0	! fb43
    1de0:	33 fc       	add	r15,r3
    1de2:	32 fc       	add	r15,r2
    1de4:	e4 00       	mov	#0,r4
    1de6:	01 2c       	mov.b	@(r0,r2),r1
    1de8:	13 e2       	mov.l	r14,@(8,r3)
    1dea:	13 47       	mov.l	r4,@(28,r3)
    1dec:	21 18       	tst	r1,r1
    1dee:	89 02       	bt	1df6 <__vfprintf_r+0x6ee>
    1df0:	51 f9       	mov.l	@(36,r15),r1
    1df2:	71 01       	add	#1,r1
    1df4:	1f 19       	mov.l	r1,@(36,r15)
    1df6:	ad 61       	bra	18bc <__vfprintf_r+0x1b4>
    1df8:	5b f5       	mov.l	@(20,r15),r11
    1dfa:	00 09       	nop	
    1dfc:	50 f5       	mov.l	@(20,r15),r0
    1dfe:	1f 36       	mov.l	r3,@(24,r15)
    1e00:	c8 08       	tst	#8,r0
    1e02:	8b 01       	bf	1e08 <__vfprintf_r+0x700>
    1e04:	a6 3a       	bra	2a7c <__vfprintf_r+0x1374>
    1e06:	55 fd       	mov.l	@(52,r15),r5
    1e08:	51 fd       	mov.l	@(52,r15),r1
    1e0a:	e4 40       	mov	#64,r4
    1e0c:	34 fc       	add	r15,r4
    1e0e:	6b 12       	mov.l	@r1,r11
    1e10:	58 11       	mov.l	@(4,r1),r8
    1e12:	71 08       	add	#8,r1
    1e14:	14 ba       	mov.l	r11,@(40,r4)
    1e16:	14 8b       	mov.l	r8,@(44,r4)
    1e18:	1f 1d       	mov.l	r1,@(52,r15)
    1e1a:	da 1a       	mov.l	1e84 <__vfprintf_r+0x77c>,r10	! 64f4 <___fpclassifyd>
    1e1c:	64 b3       	mov	r11,r4
    1e1e:	4a 0b       	jsr	@r10
    1e20:	65 83       	mov	r8,r5
    1e22:	88 01       	cmp/eq	#1,r0
    1e24:	64 b3       	mov	r11,r4
    1e26:	65 83       	mov	r8,r5
    1e28:	89 02       	bt	1e30 <__vfprintf_r+0x728>
    1e2a:	a5 5f       	bra	28ec <__vfprintf_r+0x11e4>
    1e2c:	00 09       	nop	
    1e2e:	00 09       	nop	
    1e30:	d0 15       	mov.l	1e88 <__vfprintf_r+0x780>,r0	! 9658 <___ltdf2>
    1e32:	e6 00       	mov	#0,r6
    1e34:	40 0b       	jsr	@r0
    1e36:	e7 00       	mov	#0,r7
    1e38:	40 11       	cmp/pz	r0
    1e3a:	89 05       	bt	1e48 <__vfprintf_r+0x740>
    1e3c:	d3 01       	mov.l	1e44 <__vfprintf_r+0x73c>,r3	! 2e20
    1e3e:	43 2b       	jmp	@r3
    1e40:	e1 2d       	mov	#45,r1
    1e42:	00 09       	nop	
    1e44:	00 00       	.word 0x0000
    1e46:	2e 20       	mov.b	r2,@r14
    1e48:	92 1a       	mov.w	1e80 <__vfprintf_r+0x778>,r2	! 540
    1e4a:	90 1a       	mov.w	1e82 <__vfprintf_r+0x77a>,r0	! fb43
    1e4c:	32 fc       	add	r15,r2
    1e4e:	01 2c       	mov.b	@(r0,r2),r1
    1e50:	e2 47       	mov	#71,r2
    1e52:	39 27       	cmp/gt	r2,r9
    1e54:	89 02       	bt	1e5c <__vfprintf_r+0x754>
    1e56:	a6 c5       	bra	2be4 <__vfprintf_r+0x14dc>
    1e58:	00 09       	nop	
    1e5a:	00 09       	nop	
    1e5c:	d0 0b       	mov.l	1e8c <__vfprintf_r+0x784>,r0	! 9e38
    1e5e:	1f 0f       	mov.l	r0,@(60,r15)
    1e60:	92 0d       	mov.w	1e7e <__vfprintf_r+0x776>,r2	! ff7f
    1e62:	50 f5       	mov.l	@(20,r15),r0
    1e64:	20 29       	and	r2,r0
    1e66:	1f 05       	mov.l	r0,@(20,r15)
    1e68:	e2 03       	mov	#3,r2
    1e6a:	e0 03       	mov	#3,r0
    1e6c:	1f 29       	mov.l	r2,@(36,r15)
    1e6e:	a6 b3       	bra	2bd8 <__vfprintf_r+0x14d0>
    1e70:	1f 0b       	mov.l	r0,@(44,r15)
    1e72:	00 09       	nop	
    1e74:	50 f5       	mov.l	@(20,r15),r0
    1e76:	cb 08       	or	#8,r0
    1e78:	1f 05       	mov.l	r0,@(20,r15)
    1e7a:	ac fd       	bra	1878 <__vfprintf_r+0x170>
    1e7c:	69 30       	mov.b	@r3,r9
    1e7e:	ff 7f       	.word 0xff7f
    1e80:	05 40       	.word 0x0540
    1e82:	fb 43       	.word 0xfb43
    1e84:	00 00       	.word 0x0000
    1e86:	64 f4       	mov.b	@r15+,r4
    1e88:	00 00       	.word 0x0000
    1e8a:	96 58       	mov.w	1f3e <__vfprintf_r+0x836>,r6	! 21db
    1e8c:	00 00       	.word 0x0000
    1e8e:	9e 38       	mov.w	1f02 <__vfprintf_r+0x7fa>,r14	! 52fd
    1e90:	d1 57       	mov.l	1ff0 <__vfprintf_r+0x8e8>,r1	! 9e44
    1e92:	e0 50       	mov	#80,r0
    1e94:	1f 36       	mov.l	r3,@(24,r15)
    1e96:	0f 16       	mov.l	r1,@(r0,r15)
    1e98:	50 f5       	mov.l	@(20,r15),r0
    1e9a:	c8 20       	tst	#32,r0
    1e9c:	8b 02       	bf	1ea4 <__vfprintf_r+0x79c>
    1e9e:	a1 03       	bra	20a8 <__vfprintf_r+0x9a0>
    1ea0:	c8 10       	tst	#16,r0
    1ea2:	00 09       	nop	
    1ea4:	51 fd       	mov.l	@(52,r15),r1
    1ea6:	6b 12       	mov.l	@r1,r11
    1ea8:	5d 11       	mov.l	@(4,r1),r13
    1eaa:	71 08       	add	#8,r1
    1eac:	1f 1d       	mov.l	r1,@(52,r15)
    1eae:	50 f5       	mov.l	@(20,r15),r0
    1eb0:	c8 01       	tst	#1,r0
    1eb2:	89 01       	bt	1eb8 <__vfprintf_r+0x7b0>
    1eb4:	a3 f0       	bra	2698 <__vfprintf_r+0xf90>
    1eb6:	2b b8       	tst	r11,r11
    1eb8:	61 b3       	mov	r11,r1
    1eba:	21 db       	or	r13,r1
    1ebc:	21 18       	tst	r1,r1
    1ebe:	e1 ff       	mov	#-1,r1
    1ec0:	61 1a       	negc	r1,r1
    1ec2:	63 1c       	extu.b	r1,r3
    1ec4:	e2 02       	mov	#2,r2
    1ec6:	00 09       	nop	
    1ec8:	90 8f       	mov.w	1fea <__vfprintf_r+0x8e2>,r0	! 83
    1eca:	e7 00       	mov	#0,r7
    1ecc:	af 41       	bra	1d52 <__vfprintf_r+0x64a>
    1ece:	0f 74       	mov.b	r7,@(r0,r15)
    1ed0:	52 fd       	mov.l	@(52,r15),r2
    1ed2:	1f 36       	mov.l	r3,@(24,r15)
    1ed4:	93 8a       	mov.w	1fec <__vfprintf_r+0x8e4>,r3	! 540
    1ed6:	61 22       	mov.l	@r2,r1
    1ed8:	33 fc       	add	r15,r3
    1eda:	90 88       	mov.w	1fee <__vfprintf_r+0x8e6>,r0	! fb70
    1edc:	e2 00       	mov	#0,r2
    1ede:	54 fd       	mov.l	@(52,r15),r4
    1ee0:	03 14       	mov.b	r1,@(r0,r3)
    1ee2:	74 04       	add	#4,r4
    1ee4:	90 81       	mov.w	1fea <__vfprintf_r+0x8e2>,r0	! 83
    1ee6:	1f 4d       	mov.l	r4,@(52,r15)
    1ee8:	ac db       	bra	18a2 <__vfprintf_r+0x19a>
    1eea:	0f 24       	mov.b	r2,@(r0,r15)
    1eec:	50 f5       	mov.l	@(20,r15),r0
    1eee:	1f 36       	mov.l	r3,@(24,r15)
    1ef0:	cb 10       	or	#16,r0
    1ef2:	1f 05       	mov.l	r0,@(20,r15)
    1ef4:	50 f5       	mov.l	@(20,r15),r0
    1ef6:	c8 20       	tst	#32,r0
    1ef8:	8b 02       	bf	1f00 <__vfprintf_r+0x7f8>
    1efa:	a3 fd       	bra	26f8 <__vfprintf_r+0xff0>
    1efc:	c8 10       	tst	#16,r0
    1efe:	00 09       	nop	
    1f00:	51 fd       	mov.l	@(52,r15),r1
    1f02:	52 fd       	mov.l	@(52,r15),r2
    1f04:	6b 12       	mov.l	@r1,r11
    1f06:	72 08       	add	#8,r2
    1f08:	5d 11       	mov.l	@(4,r1),r13
    1f0a:	61 b3       	mov	r11,r1
    1f0c:	1f 2d       	mov.l	r2,@(52,r15)
    1f0e:	21 db       	or	r13,r1
    1f10:	21 18       	tst	r1,r1
    1f12:	e1 ff       	mov	#-1,r1
    1f14:	61 1a       	negc	r1,r1
    1f16:	63 1c       	extu.b	r1,r3
    1f18:	af d6       	bra	1ec8 <__vfprintf_r+0x7c0>
    1f1a:	e2 00       	mov	#0,r2
    1f1c:	50 f5       	mov.l	@(20,r15),r0
    1f1e:	1f 36       	mov.l	r3,@(24,r15)
    1f20:	cb 10       	or	#16,r0
    1f22:	1f 05       	mov.l	r0,@(20,r15)
    1f24:	50 f5       	mov.l	@(20,r15),r0
    1f26:	c8 20       	tst	#32,r0
    1f28:	8b 02       	bf	1f30 <__vfprintf_r+0x828>
    1f2a:	a3 c7       	bra	26bc <__vfprintf_r+0xfb4>
    1f2c:	c8 10       	tst	#16,r0
    1f2e:	00 09       	nop	
    1f30:	51 fd       	mov.l	@(52,r15),r1
    1f32:	52 fd       	mov.l	@(52,r15),r2
    1f34:	6b 12       	mov.l	@r1,r11
    1f36:	72 08       	add	#8,r2
    1f38:	5d 11       	mov.l	@(4,r1),r13
    1f3a:	61 b3       	mov	r11,r1
    1f3c:	1f 2d       	mov.l	r2,@(52,r15)
    1f3e:	21 db       	or	r13,r1
    1f40:	21 18       	tst	r1,r1
    1f42:	e1 ff       	mov	#-1,r1
    1f44:	61 1a       	negc	r1,r1
    1f46:	63 1c       	extu.b	r1,r3
    1f48:	af be       	bra	1ec8 <__vfprintf_r+0x7c0>
    1f4a:	e2 01       	mov	#1,r2
    1f4c:	69 34       	mov.b	@r3+,r9
    1f4e:	60 93       	mov	r9,r0
    1f50:	88 2a       	cmp/eq	#42,r0
    1f52:	8b 05       	bf	1f60 <__vfprintf_r+0x858>
    1f54:	d0 01       	mov.l	1f5c <__vfprintf_r+0x854>,r0	! 3094
    1f56:	40 2b       	jmp	@r0
    1f58:	50 fd       	mov.l	@(52,r15),r0
    1f5a:	00 09       	nop	
    1f5c:	00 00       	.word 0x0000
    1f5e:	30 94       	div1	r9,r0
    1f60:	64 93       	mov	r9,r4
    1f62:	74 d0       	add	#-48,r4
    1f64:	34 26       	cmp/hi	r2,r4
    1f66:	60 33       	mov	r3,r0
    1f68:	ee 00       	mov	#0,r14
    1f6a:	89 0d       	bt	1f88 <__vfprintf_r+0x880>
    1f6c:	63 e3       	mov	r14,r3
    1f6e:	43 08       	shll2	r3
    1f70:	3e 3c       	add	r3,r14
    1f72:	69 04       	mov.b	@r0+,r9
    1f74:	3e ec       	add	r14,r14
    1f76:	3e 4c       	add	r4,r14
    1f78:	64 93       	mov	r9,r4
    1f7a:	74 d0       	add	#-48,r4
    1f7c:	34 26       	cmp/hi	r2,r4
    1f7e:	63 03       	mov	r0,r3
    1f80:	8b f4       	bf	1f6c <__vfprintf_r+0x864>
    1f82:	4e 11       	cmp/pz	r14
    1f84:	89 00       	bt	1f88 <__vfprintf_r+0x880>
    1f86:	ee ff       	mov	#-1,r14
    1f88:	ac 78       	bra	187c <__vfprintf_r+0x174>
    1f8a:	64 93       	mov	r9,r4
    1f8c:	ac 74       	bra	1878 <__vfprintf_r+0x170>
    1f8e:	1f 4d       	mov.l	r4,@(52,r15)
    1f90:	94 2c       	mov.w	1fec <__vfprintf_r+0x8e4>,r4	! 540
    1f92:	60 73       	mov	r7,r0
    1f94:	34 fc       	add	r15,r4
    1f96:	04 64       	mov.b	r6,@(r0,r4)
    1f98:	ac 6e       	bra	1878 <__vfprintf_r+0x170>
    1f9a:	69 30       	mov.b	@r3,r9
    1f9c:	50 f5       	mov.l	@(20,r15),r0
    1f9e:	cb 80       	or	#-128,r0
    1fa0:	1f 05       	mov.l	r0,@(20,r15)
    1fa2:	ac 69       	bra	1878 <__vfprintf_r+0x170>
    1fa4:	69 30       	mov.b	@r3,r9
    1fa6:	00 09       	nop	
    1fa8:	60 33       	mov	r3,r0
    1faa:	e4 00       	mov	#0,r4
    1fac:	63 43       	mov	r4,r3
    1fae:	43 08       	shll2	r3
    1fb0:	34 3c       	add	r3,r4
    1fb2:	79 d0       	add	#-48,r9
    1fb4:	34 4c       	add	r4,r4
    1fb6:	34 9c       	add	r9,r4
    1fb8:	69 04       	mov.b	@r0+,r9
    1fba:	68 93       	mov	r9,r8
    1fbc:	78 d0       	add	#-48,r8
    1fbe:	38 26       	cmp/hi	r2,r8
    1fc0:	63 03       	mov	r0,r3
    1fc2:	8b f3       	bf	1fac <__vfprintf_r+0x8a4>
    1fc4:	ac 59       	bra	187a <__vfprintf_r+0x172>
    1fc6:	1f 4e       	mov.l	r4,@(56,r15)
    1fc8:	94 0f       	mov.w	1fea <__vfprintf_r+0x8e2>,r4	! 83
    1fca:	34 fc       	add	r15,r4
    1fcc:	60 40       	mov.b	@r4,r0
    1fce:	20 08       	tst	r0,r0
    1fd0:	89 02       	bt	1fd8 <__vfprintf_r+0x8d0>
    1fd2:	a5 1f       	bra	2a14 <__vfprintf_r+0x130c>
    1fd4:	69 30       	mov.b	@r3,r9
    1fd6:	00 09       	nop	
    1fd8:	24 50       	mov.b	r5,@r4
    1fda:	ac 4d       	bra	1878 <__vfprintf_r+0x170>
    1fdc:	69 30       	mov.b	@r3,r9
    1fde:	00 09       	nop	
    1fe0:	50 f5       	mov.l	@(20,r15),r0
    1fe2:	cb 01       	or	#1,r0
    1fe4:	1f 05       	mov.l	r0,@(20,r15)
    1fe6:	ac 47       	bra	1878 <__vfprintf_r+0x170>
    1fe8:	69 30       	mov.b	@r3,r9
    1fea:	00 83       	.word 0x0083
    1fec:	05 40       	.word 0x0540
    1fee:	fb 70       	.word 0xfb70
    1ff0:	00 00       	.word 0x0000
    1ff2:	9e 44       	mov.w	207e <__vfprintf_r+0x976>,r14	! e700
    1ff4:	55 fd       	mov.l	@(52,r15),r5
    1ff6:	e2 30       	mov	#48,r2
    1ff8:	91 88       	mov.w	210c <__vfprintf_r+0xa04>,r1	! 84
    1ffa:	eb 00       	mov	#0,r11
    1ffc:	6d 52       	mov.l	@r5,r13
    1ffe:	31 fc       	add	r15,r1
    2000:	50 f5       	mov.l	@(20,r15),r0
    2002:	2d d8       	tst	r13,r13
    2004:	21 20       	mov.b	r2,@r1
    2006:	71 01       	add	#1,r1
    2008:	e2 78       	mov	#120,r2
    200a:	21 20       	mov.b	r2,@r1
    200c:	cb 02       	or	#2,r0
    200e:	d2 40       	mov.l	2110 <__vfprintf_r+0xa08>,r2	! 9e58
    2010:	e1 ff       	mov	#-1,r1
    2012:	1f 05       	mov.l	r0,@(20,r15)
    2014:	61 1a       	negc	r1,r1
    2016:	75 04       	add	#4,r5
    2018:	e0 50       	mov	#80,r0
    201a:	1f 36       	mov.l	r3,@(24,r15)
    201c:	e9 78       	mov	#120,r9
    201e:	0f 26       	mov.l	r2,@(r0,r15)
    2020:	63 1c       	extu.b	r1,r3
    2022:	1f 5d       	mov.l	r5,@(52,r15)
    2024:	af 50       	bra	1ec8 <__vfprintf_r+0x7c0>
    2026:	e2 02       	mov	#2,r2
    2028:	50 f5       	mov.l	@(20,r15),r0
    202a:	cb 20       	or	#32,r0
    202c:	1f 05       	mov.l	r0,@(20,r15)
    202e:	ac 23       	bra	1878 <__vfprintf_r+0x170>
    2030:	69 30       	mov.b	@r3,r9
    2032:	00 09       	nop	
    2034:	98 6b       	mov.w	210e <__vfprintf_r+0xa06>,r8	! 83
    2036:	e1 00       	mov	#0,r1
    2038:	1f 36       	mov.l	r3,@(24,r15)
    203a:	38 fc       	add	r15,r8
    203c:	53 fd       	mov.l	@(52,r15),r3
    203e:	28 10       	mov.b	r1,@r8
    2040:	63 32       	mov.l	@r3,r3
    2042:	5a fd       	mov.l	@(52,r15),r10
    2044:	23 38       	tst	r3,r3
    2046:	1f 3f       	mov.l	r3,@(60,r15)
    2048:	7a 04       	add	#4,r10
    204a:	8b 01       	bf	2050 <__vfprintf_r+0x948>
    204c:	a6 ac       	bra	2da8 <__vfprintf_r+0x16a0>
    204e:	e1 06       	mov	#6,r1
    2050:	4e 11       	cmp/pz	r14
    2052:	54 ff       	mov.l	@(60,r15),r4
    2054:	89 02       	bt	205c <__vfprintf_r+0x954>
    2056:	a6 4d       	bra	2cf4 <__vfprintf_r+0x15ec>
    2058:	00 09       	nop	
    205a:	00 09       	nop	
    205c:	d0 2d       	mov.l	2114 <__vfprintf_r+0xa0c>,r0	! 574c <_memchr>
    205e:	e5 00       	mov	#0,r5
    2060:	40 0b       	jsr	@r0
    2062:	66 e3       	mov	r14,r6
    2064:	20 08       	tst	r0,r0
    2066:	8b 01       	bf	206c <__vfprintf_r+0x964>
    2068:	a7 5e       	bra	2f28 <__vfprintf_r+0x1820>
    206a:	1f e9       	mov.l	r14,@(36,r15)
    206c:	54 ff       	mov.l	@(60,r15),r4
    206e:	30 48       	sub	r4,r0
    2070:	1f 0b       	mov.l	r0,@(44,r15)
    2072:	30 e7       	cmp/gt	r14,r0
    2074:	89 02       	bt	207c <__vfprintf_r+0x974>
    2076:	a5 a9       	bra	2bcc <__vfprintf_r+0x14c4>
    2078:	50 fb       	mov.l	@(44,r15),r0
    207a:	00 09       	nop	
    207c:	e5 40       	mov	#64,r5
    207e:	e7 00       	mov	#0,r7
    2080:	35 fc       	add	r15,r5
    2082:	1f e9       	mov.l	r14,@(36,r15)
    2084:	61 80       	mov.b	@r8,r1
    2086:	1f eb       	mov.l	r14,@(44,r15)
    2088:	1f ad       	mov.l	r10,@(52,r15)
    208a:	15 72       	mov.l	r7,@(8,r5)
    208c:	ae ae       	bra	1dec <__vfprintf_r+0x6e4>
    208e:	15 77       	mov.l	r7,@(28,r5)
    2090:	d7 1f       	mov.l	2110 <__vfprintf_r+0xa08>,r7	! 9e58
    2092:	e0 50       	mov	#80,r0
    2094:	1f 36       	mov.l	r3,@(24,r15)
    2096:	0f 76       	mov.l	r7,@(r0,r15)
    2098:	50 f5       	mov.l	@(20,r15),r0
    209a:	c8 20       	tst	#32,r0
    209c:	89 02       	bt	20a4 <__vfprintf_r+0x99c>
    209e:	af 02       	bra	1ea6 <__vfprintf_r+0x79e>
    20a0:	51 fd       	mov.l	@(52,r15),r1
    20a2:	00 09       	nop	
    20a4:	50 f5       	mov.l	@(20,r15),r0
    20a6:	c8 10       	tst	#16,r0
    20a8:	8b 02       	bf	20b0 <__vfprintf_r+0x9a8>
    20aa:	a5 0d       	bra	2ac8 <__vfprintf_r+0x13c0>
    20ac:	50 f5       	mov.l	@(20,r15),r0
    20ae:	00 09       	nop	
    20b0:	51 fd       	mov.l	@(52,r15),r1
    20b2:	eb 00       	mov	#0,r11
    20b4:	6d 16       	mov.l	@r1+,r13
    20b6:	ae fa       	bra	1eae <__vfprintf_r+0x7a6>
    20b8:	1f 1d       	mov.l	r1,@(52,r15)
    20ba:	00 09       	nop	
    20bc:	69 30       	mov.b	@r3,r9
    20be:	60 93       	mov	r9,r0
    20c0:	88 6c       	cmp/eq	#108,r0
    20c2:	8b 01       	bf	20c8 <__vfprintf_r+0x9c0>
    20c4:	a5 e4       	bra	2c90 <__vfprintf_r+0x1588>
    20c6:	50 f5       	mov.l	@(20,r15),r0
    20c8:	50 f5       	mov.l	@(20,r15),r0
    20ca:	cb 10       	or	#16,r0
    20cc:	ab d4       	bra	1878 <__vfprintf_r+0x170>
    20ce:	1f 05       	mov.l	r0,@(20,r15)
    20d0:	50 f5       	mov.l	@(20,r15),r0
    20d2:	1f 36       	mov.l	r3,@(24,r15)
    20d4:	c8 20       	tst	#32,r0
    20d6:	8b 01       	bf	20dc <__vfprintf_r+0x9d4>
    20d8:	a4 e2       	bra	2aa0 <__vfprintf_r+0x1398>
    20da:	50 f5       	mov.l	@(20,r15),r0
    20dc:	52 fd       	mov.l	@(52,r15),r2
    20de:	50 fc       	mov.l	@(48,r15),r0
    20e0:	61 22       	mov.l	@r2,r1
    20e2:	62 03       	mov	r0,r2
    20e4:	42 00       	shll	r2
    20e6:	32 2a       	subc	r2,r2
    20e8:	11 01       	mov.l	r0,@(4,r1)
    20ea:	21 22       	mov.l	r2,@r1
    20ec:	51 fd       	mov.l	@(52,r15),r1
    20ee:	71 04       	add	#4,r1
    20f0:	ab 6d       	bra	17ce <__vfprintf_r+0xc6>
    20f2:	1f 1d       	mov.l	r1,@(52,r15)
    20f4:	50 f5       	mov.l	@(20,r15),r0
    20f6:	cb 40       	or	#64,r0
    20f8:	1f 05       	mov.l	r0,@(20,r15)
    20fa:	ab bd       	bra	1878 <__vfprintf_r+0x170>
    20fc:	69 30       	mov.b	@r3,r9
    20fe:	00 09       	nop	
    2100:	ae 10       	bra	1d24 <__vfprintf_r+0x61c>
    2102:	1f 36       	mov.l	r3,@(24,r15)
    2104:	ae f6       	bra	1ef4 <__vfprintf_r+0x7ec>
    2106:	1f 36       	mov.l	r3,@(24,r15)
    2108:	af 0c       	bra	1f24 <__vfprintf_r+0x81c>
    210a:	1f 36       	mov.l	r3,@(24,r15)
    210c:	00 84       	mov.b	r8,@(r0,r0)
    210e:	00 83       	.word 0x0083
    2110:	00 00       	.word 0x0000
    2112:	9e 58       	mov.w	21c6 <__vfprintf_r+0xabe>,r14	! 5cf8
    2114:	00 00       	.word 0x0000
    2116:	57 4c       	mov.l	@(48,r4),r7
    2118:	39 17       	cmp/gt	r1,r9
    211a:	89 01       	bt	2120 <__vfprintf_r+0xa18>
    211c:	a1 2a       	bra	2374 <__vfprintf_r+0xc6c>
    211e:	e0 58       	mov	#88,r0
    2120:	d0 4b       	mov.l	2250 <__vfprintf_r+0xb48>,r0	! 9508 <___eqdf2>
    2122:	e1 40       	mov	#64,r1
    2124:	31 fc       	add	r15,r1
    2126:	54 1a       	mov.l	@(40,r1),r4
    2128:	e6 00       	mov	#0,r6
    212a:	55 1b       	mov.l	@(44,r1),r5
    212c:	40 0b       	jsr	@r0
    212e:	e7 00       	mov	#0,r7
    2130:	20 08       	tst	r0,r0
    2132:	89 01       	bt	2138 <__vfprintf_r+0xa30>
    2134:	a1 c2       	bra	24bc <__vfprintf_r+0xdb4>
    2136:	00 09       	nop	
    2138:	d1 46       	mov.l	2254 <__vfprintf_r+0xb4c>,r1	! 9e74
    213a:	e2 07       	mov	#7,r2
    213c:	96 82       	mov.w	2244 <__vfprintf_r+0xb3c>,r6	! a4
    213e:	2c 12       	mov.l	r1,@r12
    2140:	36 fc       	add	r15,r6
    2142:	e1 01       	mov	#1,r1
    2144:	1c 11       	mov.l	r1,@(4,r12)
    2146:	51 62       	mov.l	@(8,r6),r1
    2148:	71 01       	add	#1,r1
    214a:	16 12       	mov.l	r1,@(8,r6)
    214c:	51 61       	mov.l	@(4,r6),r1
    214e:	71 01       	add	#1,r1
    2150:	16 11       	mov.l	r1,@(4,r6)
    2152:	31 27       	cmp/gt	r2,r1
    2154:	8b 02       	bf	215c <__vfprintf_r+0xa54>
    2156:	a4 c9       	bra	2aec <__vfprintf_r+0x13e4>
    2158:	54 f7       	mov.l	@(28,r15),r4
    215a:	00 09       	nop	
    215c:	7c 08       	add	#8,r12
    215e:	92 72       	mov.w	2246 <__vfprintf_r+0xb3e>,r2	! 540
    2160:	90 72       	mov.w	2248 <__vfprintf_r+0xb40>,r0	! fb48
    2162:	32 fc       	add	r15,r2
    2164:	01 2e       	mov.l	@(r0,r2),r1
    2166:	e0 58       	mov	#88,r0
    2168:	03 fe       	mov.l	@(r0,r15),r3
    216a:	31 33       	cmp/ge	r3,r1
    216c:	8b 02       	bf	2174 <__vfprintf_r+0xa6c>
    216e:	50 f5       	mov.l	@(20,r15),r0
    2170:	c8 01       	tst	#1,r0
    2172:	89 19       	bt	21a8 <__vfprintf_r+0xaa0>
    2174:	e0 54       	mov	#84,r0
    2176:	96 65       	mov.w	2244 <__vfprintf_r+0xb3c>,r6	! a4
    2178:	01 fe       	mov.l	@(r0,r15),r1
    217a:	36 fc       	add	r15,r6
    217c:	e0 60       	mov	#96,r0
    217e:	2c 12       	mov.l	r1,@r12
    2180:	02 fe       	mov.l	@(r0,r15),r2
    2182:	51 62       	mov.l	@(8,r6),r1
    2184:	1c 21       	mov.l	r2,@(4,r12)
    2186:	31 2c       	add	r2,r1
    2188:	16 12       	mov.l	r1,@(8,r6)
    218a:	e2 07       	mov	#7,r2
    218c:	51 61       	mov.l	@(4,r6),r1
    218e:	71 01       	add	#1,r1
    2190:	16 11       	mov.l	r1,@(4,r6)
    2192:	31 27       	cmp/gt	r2,r1
    2194:	8b 02       	bf	219c <__vfprintf_r+0xa94>
    2196:	a5 83       	bra	2ca0 <__vfprintf_r+0x1598>
    2198:	54 f7       	mov.l	@(28,r15),r4
    219a:	00 09       	nop	
    219c:	7c 08       	add	#8,r12
    219e:	e0 58       	mov	#88,r0
    21a0:	0d fe       	mov.l	@(r0,r15),r13
    21a2:	7d ff       	add	#-1,r13
    21a4:	4d 15       	cmp/pl	r13
    21a6:	89 01       	bt	21ac <__vfprintf_r+0xaa4>
    21a8:	ac 86       	bra	1ab8 <__vfprintf_r+0x3b0>
    21aa:	50 f5       	mov.l	@(20,r15),r0
    21ac:	e1 10       	mov	#16,r1
    21ae:	3d 17       	cmp/gt	r1,r13
    21b0:	d8 29       	mov.l	2258 <__vfprintf_r+0xb50>,r8	! 9e88 <_zeroes.4041>
    21b2:	89 01       	bt	21b8 <__vfprintf_r+0xab0>
    21b4:	a2 bf       	bra	2736 <__vfprintf_r+0x102e>
    21b6:	00 09       	nop	
    21b8:	9b 44       	mov.w	2244 <__vfprintf_r+0xb3c>,r11	! a4
    21ba:	62 c3       	mov	r12,r2
    21bc:	ee 10       	mov	#16,r14
    21be:	3b fc       	add	r15,r11
    21c0:	ea 07       	mov	#7,r10
    21c2:	d9 26       	mov.l	225c <__vfprintf_r+0xb54>,r9	! 66d0 <___sprint_r>
    21c4:	a0 06       	bra	21d4 <__vfprintf_r+0xacc>
    21c6:	5c f8       	mov.l	@(32,r15),r12
    21c8:	72 08       	add	#8,r2
    21ca:	7d f0       	add	#-16,r13
    21cc:	3d e7       	cmp/gt	r14,r13
    21ce:	89 01       	bt	21d4 <__vfprintf_r+0xacc>
    21d0:	a2 b1       	bra	2736 <__vfprintf_r+0x102e>
    21d2:	6c 23       	mov	r2,r12
    21d4:	51 b2       	mov.l	@(8,r11),r1
    21d6:	22 82       	mov.l	r8,@r2
    21d8:	71 10       	add	#16,r1
    21da:	12 e1       	mov.l	r14,@(4,r2)
    21dc:	1b 12       	mov.l	r1,@(8,r11)
    21de:	51 b1       	mov.l	@(4,r11),r1
    21e0:	71 01       	add	#1,r1
    21e2:	1b 11       	mov.l	r1,@(4,r11)
    21e4:	31 a7       	cmp/gt	r10,r1
    21e6:	8b ef       	bf	21c8 <__vfprintf_r+0xac0>
    21e8:	54 f7       	mov.l	@(28,r15),r4
    21ea:	65 c3       	mov	r12,r5
    21ec:	49 0b       	jsr	@r9
    21ee:	66 b3       	mov	r11,r6
    21f0:	20 08       	tst	r0,r0
    21f2:	8b 67       	bf	22c4 <__vfprintf_r+0xbbc>
    21f4:	92 29       	mov.w	224a <__vfprintf_r+0xb42>,r2	! 140
    21f6:	af e8       	bra	21ca <__vfprintf_r+0xac2>
    21f8:	32 fc       	add	r15,r2
    21fa:	00 09       	nop	
    21fc:	8b 68       	bf	22d0 <__vfprintf_r+0xbc8>
    21fe:	50 f5       	mov.l	@(20,r15),r0
    2200:	c8 01       	tst	#1,r0
    2202:	89 65       	bt	22d0 <__vfprintf_r+0xbc8>
    2204:	92 1f       	mov.w	2246 <__vfprintf_r+0xb3e>,r2	! 540
    2206:	e1 30       	mov	#48,r1
    2208:	90 20       	mov.w	224c <__vfprintf_r+0xb44>,r0	! fb97
    220a:	32 fc       	add	r15,r2
    220c:	02 14       	mov.b	r1,@(r0,r2)
    220e:	e0 7c       	mov	#124,r0
    2210:	03 fe       	mov.l	@(r0,r15),r3
    2212:	e0 64       	mov	#100,r0
    2214:	04 fe       	mov.l	@(r0,r15),r4
    2216:	1f 3b       	mov.l	r3,@(44,r15)
    2218:	ad da       	bra	1dd0 <__vfprintf_r+0x6c8>
    221a:	1f 4f       	mov.l	r4,@(60,r15)
    221c:	52 f9       	mov.l	@(36,r15),r2
    221e:	3b 28       	sub	r2,r11
    2220:	4b 15       	cmp/pl	r11
    2222:	89 01       	bt	2228 <__vfprintf_r+0xb20>
    2224:	a1 44       	bra	24b0 <__vfprintf_r+0xda8>
    2226:	00 09       	nop	
    2228:	e1 10       	mov	#16,r1
    222a:	3b 17       	cmp/gt	r1,r11
    222c:	d3 0c       	mov.l	2260 <__vfprintf_r+0xb58>,r3	! 9e78 <_blanks.4040>
    222e:	8b 35       	bf	229c <__vfprintf_r+0xb94>
    2230:	9a 08       	mov.w	2244 <__vfprintf_r+0xb3c>,r10	! a4
    2232:	67 c3       	mov	r12,r7
    2234:	ed 10       	mov	#16,r13
    2236:	3a fc       	add	r15,r10
    2238:	6c a3       	mov	r10,r12
    223a:	ee 07       	mov	#7,r14
    223c:	6a b3       	mov	r11,r10
    223e:	d8 07       	mov.l	225c <__vfprintf_r+0xb54>,r8	! 66d0 <___sprint_r>
    2240:	a0 14       	bra	226c <__vfprintf_r+0xb64>
    2242:	6b 33       	mov	r3,r11
    2244:	00 a4       	mov.b	r10,@(r0,r0)
    2246:	05 40       	.word 0x0540
    2248:	fb 48       	.word 0xfb48
    224a:	01 40       	.word 0x0140
    224c:	fb 97       	.word 0xfb97
    224e:	00 09       	nop	
    2250:	00 00       	.word 0x0000
    2252:	95 08       	mov.w	2266 <__vfprintf_r+0xb5e>,r5	! 3ad7
    2254:	00 00       	.word 0x0000
    2256:	9e 74       	mov.w	2342 <__vfprintf_r+0xc3a>,r14	! e207
    2258:	00 00       	.word 0x0000
    225a:	9e 88       	mov.w	236e <__vfprintf_r+0xc66>,r14	! 66d0 <___sprint_r>
    225c:	00 00       	.word 0x0000
    225e:	66 d0       	mov.b	@r13,r6
    2260:	00 00       	.word 0x0000
    2262:	9e 78       	mov.w	2356 <__vfprintf_r+0xc4e>,r14	! 3127
    2264:	7a f0       	add	#-16,r10
    2266:	3a d7       	cmp/gt	r13,r10
    2268:	77 08       	add	#8,r7
    226a:	8b 14       	bf	2296 <__vfprintf_r+0xb8e>
    226c:	51 c2       	mov.l	@(8,r12),r1
    226e:	27 b2       	mov.l	r11,@r7
    2270:	71 10       	add	#16,r1
    2272:	17 d1       	mov.l	r13,@(4,r7)
    2274:	1c 12       	mov.l	r1,@(8,r12)
    2276:	51 c1       	mov.l	@(4,r12),r1
    2278:	71 01       	add	#1,r1
    227a:	1c 11       	mov.l	r1,@(4,r12)
    227c:	31 e7       	cmp/gt	r14,r1
    227e:	8b f1       	bf	2264 <__vfprintf_r+0xb5c>
    2280:	54 f7       	mov.l	@(28,r15),r4
    2282:	66 c3       	mov	r12,r6
    2284:	48 0b       	jsr	@r8
    2286:	55 f8       	mov.l	@(32,r15),r5
    2288:	20 08       	tst	r0,r0
    228a:	8b 1b       	bf	22c4 <__vfprintf_r+0xbbc>
    228c:	97 6b       	mov.w	2366 <__vfprintf_r+0xc5e>,r7	! 140
    228e:	7a f0       	add	#-16,r10
    2290:	3a d7       	cmp/gt	r13,r10
    2292:	37 fc       	add	r15,r7
    2294:	89 ea       	bt	226c <__vfprintf_r+0xb64>
    2296:	63 b3       	mov	r11,r3
    2298:	6c 73       	mov	r7,r12
    229a:	6b a3       	mov	r10,r11
    229c:	98 64       	mov.w	2368 <__vfprintf_r+0xc60>,r8	! a4
    229e:	2c 32       	mov.l	r3,@r12
    22a0:	38 fc       	add	r15,r8
    22a2:	52 82       	mov.l	@(8,r8),r2
    22a4:	e3 07       	mov	#7,r3
    22a6:	51 81       	mov.l	@(4,r8),r1
    22a8:	32 bc       	add	r11,r2
    22aa:	1c b1       	mov.l	r11,@(4,r12)
    22ac:	71 01       	add	#1,r1
    22ae:	18 22       	mov.l	r2,@(8,r8)
    22b0:	31 37       	cmp/gt	r3,r1
    22b2:	18 11       	mov.l	r1,@(4,r8)
    22b4:	8b 09       	bf	22ca <__vfprintf_r+0xbc2>
    22b6:	d0 2d       	mov.l	236c <__vfprintf_r+0xc64>,r0	! 66d0 <___sprint_r>
    22b8:	66 83       	mov	r8,r6
    22ba:	54 f7       	mov.l	@(28,r15),r4
    22bc:	40 0b       	jsr	@r0
    22be:	55 f8       	mov.l	@(32,r15),r5
    22c0:	20 08       	tst	r0,r0
    22c2:	89 01       	bt	22c8 <__vfprintf_r+0xbc0>
    22c4:	ac f9       	bra	1cba <__vfprintf_r+0x5b2>
    22c6:	e0 44       	mov	#68,r0
    22c8:	52 82       	mov.l	@(8,r8),r2
    22ca:	ab fe       	bra	1aca <__vfprintf_r+0x3c2>
    22cc:	51 f9       	mov.l	@(36,r15),r1
    22ce:	00 09       	nop	
    22d0:	e0 00       	mov	#0,r0
    22d2:	1f 0b       	mov.l	r0,@(44,r15)
    22d4:	e0 4c       	mov	#76,r0
    22d6:	01 fe       	mov.l	@(r0,r15),r1
    22d8:	ad 7a       	bra	1dd0 <__vfprintf_r+0x6c8>
    22da:	1f 1f       	mov.l	r1,@(60,r15)
    22dc:	51 f9       	mov.l	@(36,r15),r1
    22de:	3e 18       	sub	r1,r14
    22e0:	4e 15       	cmp/pl	r14
    22e2:	8b 3e       	bf	2362 <__vfprintf_r+0xc5a>
    22e4:	e1 10       	mov	#16,r1
    22e6:	3e 17       	cmp/gt	r1,r14
    22e8:	d8 21       	mov.l	2370 <__vfprintf_r+0xc68>,r8	! 9e88 <_zeroes.4041>
    22ea:	8b 29       	bf	2340 <__vfprintf_r+0xc38>
    22ec:	9d 3c       	mov.w	2368 <__vfprintf_r+0xc60>,r13	! a4
    22ee:	62 c3       	mov	r12,r2
    22f0:	1f 9a       	mov.l	r9,@(40,r15)
    22f2:	6c 83       	mov	r8,r12
    22f4:	ea 10       	mov	#16,r10
    22f6:	3d fc       	add	r15,r13
    22f8:	eb 07       	mov	#7,r11
    22fa:	59 f8       	mov.l	@(32,r15),r9
    22fc:	a0 04       	bra	2308 <__vfprintf_r+0xc00>
    22fe:	58 f7       	mov.l	@(28,r15),r8
    2300:	7e f0       	add	#-16,r14
    2302:	3e a7       	cmp/gt	r10,r14
    2304:	72 08       	add	#8,r2
    2306:	8b 18       	bf	233a <__vfprintf_r+0xc32>
    2308:	51 d2       	mov.l	@(8,r13),r1
    230a:	22 c2       	mov.l	r12,@r2
    230c:	71 10       	add	#16,r1
    230e:	12 a1       	mov.l	r10,@(4,r2)
    2310:	1d 12       	mov.l	r1,@(8,r13)
    2312:	51 d1       	mov.l	@(4,r13),r1
    2314:	71 01       	add	#1,r1
    2316:	1d 11       	mov.l	r1,@(4,r13)
    2318:	31 b7       	cmp/gt	r11,r1
    231a:	8b f1       	bf	2300 <__vfprintf_r+0xbf8>
    231c:	d2 13       	mov.l	236c <__vfprintf_r+0xc64>,r2	! 66d0 <___sprint_r>
    231e:	64 83       	mov	r8,r4
    2320:	65 93       	mov	r9,r5
    2322:	42 0b       	jsr	@r2
    2324:	66 d3       	mov	r13,r6
    2326:	20 08       	tst	r0,r0
    2328:	89 02       	bt	2330 <__vfprintf_r+0xc28>
    232a:	ac c6       	bra	1cba <__vfprintf_r+0x5b2>
    232c:	e0 44       	mov	#68,r0
    232e:	00 09       	nop	
    2330:	92 19       	mov.w	2366 <__vfprintf_r+0xc5e>,r2	! 140
    2332:	7e f0       	add	#-16,r14
    2334:	3e a7       	cmp/gt	r10,r14
    2336:	32 fc       	add	r15,r2
    2338:	89 e6       	bt	2308 <__vfprintf_r+0xc00>
    233a:	59 fa       	mov.l	@(40,r15),r9
    233c:	68 c3       	mov	r12,r8
    233e:	6c 23       	mov	r2,r12
    2340:	96 12       	mov.w	2368 <__vfprintf_r+0xc60>,r6	! a4
    2342:	e2 07       	mov	#7,r2
    2344:	2c 82       	mov.l	r8,@r12
    2346:	36 fc       	add	r15,r6
    2348:	51 62       	mov.l	@(8,r6),r1
    234a:	1c e1       	mov.l	r14,@(4,r12)
    234c:	31 ec       	add	r14,r1
    234e:	16 12       	mov.l	r1,@(8,r6)
    2350:	51 61       	mov.l	@(4,r6),r1
    2352:	71 01       	add	#1,r1
    2354:	16 11       	mov.l	r1,@(4,r6)
    2356:	31 27       	cmp/gt	r2,r1
    2358:	8b 02       	bf	2360 <__vfprintf_r+0xc58>
    235a:	a2 9d       	bra	2898 <__vfprintf_r+0x1190>
    235c:	54 f7       	mov.l	@(28,r15),r4
    235e:	00 09       	nop	
    2360:	7c 08       	add	#8,r12
    2362:	ab 40       	bra	19e6 <__vfprintf_r+0x2de>
    2364:	e0 48       	mov	#72,r0
    2366:	01 40       	.word 0x0140
    2368:	00 a4       	mov.b	r10,@(r0,r0)
    236a:	00 09       	nop	
    236c:	00 00       	.word 0x0000
    236e:	66 d0       	mov.b	@r13,r6
    2370:	00 00       	.word 0x0000
    2372:	9e 88       	mov.w	2486 <__vfprintf_r+0xd7e>,r14	! 9c0b
    2374:	04 fe       	mov.l	@(r0,r15),r4
    2376:	e1 01       	mov	#1,r1
    2378:	34 17       	cmp/gt	r1,r4
    237a:	89 01       	bt	2380 <__vfprintf_r+0xc78>
    237c:	a2 58       	bra	2830 <__vfprintf_r+0x1128>
    237e:	50 f5       	mov.l	@(20,r15),r0
    2380:	96 8c       	mov.w	249c <__vfprintf_r+0xd94>,r6	! a4
    2382:	e1 01       	mov	#1,r1
    2384:	1c 11       	mov.l	r1,@(4,r12)
    2386:	36 fc       	add	r15,r6
    2388:	51 62       	mov.l	@(8,r6),r1
    238a:	e2 07       	mov	#7,r2
    238c:	50 ff       	mov.l	@(60,r15),r0
    238e:	71 01       	add	#1,r1
    2390:	2c 02       	mov.l	r0,@r12
    2392:	16 12       	mov.l	r1,@(8,r6)
    2394:	51 61       	mov.l	@(4,r6),r1
    2396:	71 01       	add	#1,r1
    2398:	16 11       	mov.l	r1,@(4,r6)
    239a:	31 27       	cmp/gt	r2,r1
    239c:	8b 02       	bf	23a4 <__vfprintf_r+0xc9c>
    239e:	a2 63       	bra	2868 <__vfprintf_r+0x1160>
    23a0:	54 f7       	mov.l	@(28,r15),r4
    23a2:	00 09       	nop	
    23a4:	7c 08       	add	#8,r12
    23a6:	e0 54       	mov	#84,r0
    23a8:	96 78       	mov.w	249c <__vfprintf_r+0xd94>,r6	! a4
    23aa:	01 fe       	mov.l	@(r0,r15),r1
    23ac:	36 fc       	add	r15,r6
    23ae:	e0 60       	mov	#96,r0
    23b0:	2c 12       	mov.l	r1,@r12
    23b2:	02 fe       	mov.l	@(r0,r15),r2
    23b4:	51 62       	mov.l	@(8,r6),r1
    23b6:	1c 21       	mov.l	r2,@(4,r12)
    23b8:	31 2c       	add	r2,r1
    23ba:	16 12       	mov.l	r1,@(8,r6)
    23bc:	e2 07       	mov	#7,r2
    23be:	51 61       	mov.l	@(4,r6),r1
    23c0:	71 01       	add	#1,r1
    23c2:	16 11       	mov.l	r1,@(4,r6)
    23c4:	31 27       	cmp/gt	r2,r1
    23c6:	8b 01       	bf	23cc <__vfprintf_r+0xcc4>
    23c8:	a2 56       	bra	2878 <__vfprintf_r+0x1170>
    23ca:	54 f7       	mov.l	@(28,r15),r4
    23cc:	7c 08       	add	#8,r12
    23ce:	d0 36       	mov.l	24a8 <__vfprintf_r+0xda0>,r0	! 955c <___nedf2>
    23d0:	e7 40       	mov	#64,r7
    23d2:	37 fc       	add	r15,r7
    23d4:	54 7a       	mov.l	@(40,r7),r4
    23d6:	e6 00       	mov	#0,r6
    23d8:	55 7b       	mov.l	@(44,r7),r5
    23da:	40 0b       	jsr	@r0
    23dc:	e7 00       	mov	#0,r7
    23de:	20 08       	tst	r0,r0
    23e0:	8b 02       	bf	23e8 <__vfprintf_r+0xce0>
    23e2:	a1 2b       	bra	263c <__vfprintf_r+0xf34>
    23e4:	e0 58       	mov	#88,r0
    23e6:	00 09       	nop	
    23e8:	51 ff       	mov.l	@(60,r15),r1
    23ea:	e0 58       	mov	#88,r0
    23ec:	96 56       	mov.w	249c <__vfprintf_r+0xd94>,r6	! a4
    23ee:	71 01       	add	#1,r1
    23f0:	02 fe       	mov.l	@(r0,r15),r2
    23f2:	36 fc       	add	r15,r6
    23f4:	2c 12       	mov.l	r1,@r12
    23f6:	72 ff       	add	#-1,r2
    23f8:	51 62       	mov.l	@(8,r6),r1
    23fa:	1c 21       	mov.l	r2,@(4,r12)
    23fc:	31 2c       	add	r2,r1
    23fe:	16 12       	mov.l	r1,@(8,r6)
    2400:	e2 07       	mov	#7,r2
    2402:	51 61       	mov.l	@(4,r6),r1
    2404:	71 01       	add	#1,r1
    2406:	16 11       	mov.l	r1,@(4,r6)
    2408:	31 27       	cmp/gt	r2,r1
    240a:	8b 01       	bf	2410 <__vfprintf_r+0xd08>
    240c:	a2 3c       	bra	2888 <__vfprintf_r+0x1180>
    240e:	54 f7       	mov.l	@(28,r15),r4
    2410:	7c 08       	add	#8,r12
    2412:	91 44       	mov.w	249e <__vfprintf_r+0xd96>,r1	! 94
    2414:	e0 70       	mov	#112,r0
    2416:	96 41       	mov.w	249c <__vfprintf_r+0xd94>,r6	! a4
    2418:	31 fc       	add	r15,r1
    241a:	2c 12       	mov.l	r1,@r12
    241c:	36 fc       	add	r15,r6
    241e:	01 fe       	mov.l	@(r0,r15),r1
    2420:	02 fe       	mov.l	@(r0,r15),r2
    2422:	1c 11       	mov.l	r1,@(4,r12)
    2424:	51 62       	mov.l	@(8,r6),r1
    2426:	31 2c       	add	r2,r1
    2428:	16 12       	mov.l	r1,@(8,r6)
    242a:	e2 07       	mov	#7,r2
    242c:	51 61       	mov.l	@(4,r6),r1
    242e:	71 01       	add	#1,r1
    2430:	16 11       	mov.l	r1,@(4,r6)
    2432:	31 27       	cmp/gt	r2,r1
    2434:	89 02       	bt	243c <__vfprintf_r+0xd34>
    2436:	ab 3e       	bra	1ab6 <__vfprintf_r+0x3ae>
    2438:	7c 08       	add	#8,r12
    243a:	00 09       	nop	
    243c:	d0 1b       	mov.l	24ac <__vfprintf_r+0xda4>,r0	! 66d0 <___sprint_r>
    243e:	54 f7       	mov.l	@(28,r15),r4
    2440:	40 0b       	jsr	@r0
    2442:	55 f8       	mov.l	@(32,r15),r5
    2444:	20 08       	tst	r0,r0
    2446:	8b 0f       	bf	2468 <__vfprintf_r+0xd60>
    2448:	9c 2a       	mov.w	24a0 <__vfprintf_r+0xd98>,r12	! 140
    244a:	ab 34       	bra	1ab6 <__vfprintf_r+0x3ae>
    244c:	3c fc       	add	r15,r12
    244e:	00 09       	nop	
    2450:	91 27       	mov.w	24a2 <__vfprintf_r+0xd9a>,r1	! 540
    2452:	96 27       	mov.w	24a4 <__vfprintf_r+0xd9c>,r6	! fb64
    2454:	31 fc       	add	r15,r1
    2456:	d0 15       	mov.l	24ac <__vfprintf_r+0xda4>,r0	! 66d0 <___sprint_r>
    2458:	36 1c       	add	r1,r6
    245a:	40 0b       	jsr	@r0
    245c:	55 f8       	mov.l	@(32,r15),r5
    245e:	20 08       	tst	r0,r0
    2460:	8b 02       	bf	2468 <__vfprintf_r+0xd60>
    2462:	ab 3d       	bra	1ae0 <__vfprintf_r+0x3d8>
    2464:	00 09       	nop	
    2466:	00 09       	nop	
    2468:	ac 27       	bra	1cba <__vfprintf_r+0x5b2>
    246a:	e0 44       	mov	#68,r0
    246c:	d0 0f       	mov.l	24ac <__vfprintf_r+0xda4>,r0	! 66d0 <___sprint_r>
    246e:	40 0b       	jsr	@r0
    2470:	55 f8       	mov.l	@(32,r15),r5
    2472:	20 08       	tst	r0,r0
    2474:	8b f8       	bf	2468 <__vfprintf_r+0xd60>
    2476:	9c 13       	mov.w	24a0 <__vfprintf_r+0xd98>,r12	! 140
    2478:	ab 03       	bra	1a82 <__vfprintf_r+0x37a>
    247a:	3c fc       	add	r15,r12
    247c:	d0 0b       	mov.l	24ac <__vfprintf_r+0xda4>,r0	! 66d0 <___sprint_r>
    247e:	40 0b       	jsr	@r0
    2480:	55 f8       	mov.l	@(32,r15),r5
    2482:	20 08       	tst	r0,r0
    2484:	8b f0       	bf	2468 <__vfprintf_r+0xd60>
    2486:	9c 0b       	mov.w	24a0 <__vfprintf_r+0xd98>,r12	! 140
    2488:	aa 8f       	bra	19aa <__vfprintf_r+0x2a2>
    248a:	3c fc       	add	r15,r12
    248c:	d0 07       	mov.l	24ac <__vfprintf_r+0xda4>,r0	! 66d0 <___sprint_r>
    248e:	40 0b       	jsr	@r0
    2490:	55 f8       	mov.l	@(32,r15),r5
    2492:	20 08       	tst	r0,r0
    2494:	8b e8       	bf	2468 <__vfprintf_r+0xd60>
    2496:	9c 03       	mov.w	24a0 <__vfprintf_r+0xd98>,r12	! 140
    2498:	aa 9d       	bra	19d6 <__vfprintf_r+0x2ce>
    249a:	3c fc       	add	r15,r12
    249c:	00 a4       	mov.b	r10,@(r0,r0)
    249e:	00 94       	mov.b	r9,@(r0,r0)
    24a0:	01 40       	.word 0x0140
    24a2:	05 40       	.word 0x0540
    24a4:	fb 64       	.word 0xfb64
    24a6:	00 09       	nop	
    24a8:	00 00       	.word 0x0000
    24aa:	95 5c       	mov.w	2566 <__vfprintf_r+0xe5e>,r5	! 66b3
    24ac:	00 00       	.word 0x0000
    24ae:	66 d0       	mov.b	@r13,r6
    24b0:	93 7f       	mov.w	25b2 <__vfprintf_r+0xeaa>,r3	! 540
    24b2:	90 7f       	mov.w	25b4 <__vfprintf_r+0xeac>,r0	! fb6c
    24b4:	33 fc       	add	r15,r3
    24b6:	ab 07       	bra	1ac8 <__vfprintf_r+0x3c0>
    24b8:	02 3e       	mov.l	@(r0,r3),r2
    24ba:	00 09       	nop	
    24bc:	98 7b       	mov.w	25b6 <__vfprintf_r+0xeae>,r8	! 80
    24be:	38 fc       	add	r15,r8
    24c0:	5a 82       	mov.l	@(8,r8),r10
    24c2:	4a 15       	cmp/pl	r10
    24c4:	89 02       	bt	24cc <__vfprintf_r+0xdc4>
    24c6:	a3 19       	bra	2afc <__vfprintf_r+0x13f4>
    24c8:	e2 07       	mov	#7,r2
    24ca:	00 09       	nop	
    24cc:	e0 58       	mov	#88,r0
    24ce:	04 fe       	mov.l	@(r0,r15),r4
    24d0:	55 ff       	mov.l	@(60,r15),r5
    24d2:	50 ff       	mov.l	@(60,r15),r0
    24d4:	35 4c       	add	r4,r5
    24d6:	68 53       	mov	r5,r8
    24d8:	38 08       	sub	r0,r8
    24da:	e0 5c       	mov	#92,r0
    24dc:	01 fe       	mov.l	@(r0,r15),r1
    24de:	1f 5b       	mov.l	r5,@(44,r15)
    24e0:	38 17       	cmp/gt	r1,r8
    24e2:	8b 00       	bf	24e6 <__vfprintf_r+0xdde>
    24e4:	68 13       	mov	r1,r8
    24e6:	48 15       	cmp/pl	r8
    24e8:	8b 11       	bf	250e <__vfprintf_r+0xe06>
    24ea:	96 65       	mov.w	25b8 <__vfprintf_r+0xeb0>,r6	! a4
    24ec:	e2 07       	mov	#7,r2
    24ee:	50 ff       	mov.l	@(60,r15),r0
    24f0:	36 fc       	add	r15,r6
    24f2:	51 62       	mov.l	@(8,r6),r1
    24f4:	2c 02       	mov.l	r0,@r12
    24f6:	31 8c       	add	r8,r1
    24f8:	1c 81       	mov.l	r8,@(4,r12)
    24fa:	16 12       	mov.l	r1,@(8,r6)
    24fc:	51 61       	mov.l	@(4,r6),r1
    24fe:	71 01       	add	#1,r1
    2500:	16 11       	mov.l	r1,@(4,r6)
    2502:	31 27       	cmp/gt	r2,r1
    2504:	8b 02       	bf	250c <__vfprintf_r+0xe04>
    2506:	a4 05       	bra	2d14 <__vfprintf_r+0x160c>
    2508:	54 f7       	mov.l	@(28,r15),r4
    250a:	00 09       	nop	
    250c:	7c 08       	add	#8,r12
    250e:	e0 5c       	mov	#92,r0
    2510:	48 11       	cmp/pz	r8
    2512:	0d fe       	mov.l	@(r0,r15),r13
    2514:	31 1a       	subc	r1,r1
    2516:	28 19       	and	r1,r8
    2518:	3d 88       	sub	r8,r13
    251a:	4d 15       	cmp/pl	r13
    251c:	89 02       	bt	2524 <__vfprintf_r+0xe1c>
    251e:	a1 1b       	bra	2758 <__vfprintf_r+0x1050>
    2520:	00 09       	nop	
    2522:	00 09       	nop	
    2524:	e1 10       	mov	#16,r1
    2526:	3d 17       	cmp/gt	r1,r13
    2528:	d8 24       	mov.l	25bc <__vfprintf_r+0xeb4>,r8	! 9e88 <_zeroes.4041>
    252a:	89 01       	bt	2530 <__vfprintf_r+0xe28>
    252c:	a2 78       	bra	2a20 <__vfprintf_r+0x1318>
    252e:	00 09       	nop	
    2530:	9b 42       	mov.w	25b8 <__vfprintf_r+0xeb0>,r11	! a4
    2532:	62 c3       	mov	r12,r2
    2534:	ee 10       	mov	#16,r14
    2536:	3b fc       	add	r15,r11
    2538:	ea 07       	mov	#7,r10
    253a:	d9 21       	mov.l	25c0 <__vfprintf_r+0xeb8>,r9	! 66d0 <___sprint_r>
    253c:	a0 06       	bra	254c <__vfprintf_r+0xe44>
    253e:	5c f8       	mov.l	@(32,r15),r12
    2540:	72 08       	add	#8,r2
    2542:	7d f0       	add	#-16,r13
    2544:	3d e7       	cmp/gt	r14,r13
    2546:	89 01       	bt	254c <__vfprintf_r+0xe44>
    2548:	a2 6a       	bra	2a20 <__vfprintf_r+0x1318>
    254a:	6c 23       	mov	r2,r12
    254c:	51 b2       	mov.l	@(8,r11),r1
    254e:	22 82       	mov.l	r8,@r2
    2550:	71 10       	add	#16,r1
    2552:	12 e1       	mov.l	r14,@(4,r2)
    2554:	1b 12       	mov.l	r1,@(8,r11)
    2556:	51 b1       	mov.l	@(4,r11),r1
    2558:	71 01       	add	#1,r1
    255a:	1b 11       	mov.l	r1,@(4,r11)
    255c:	31 a7       	cmp/gt	r10,r1
    255e:	8b ef       	bf	2540 <__vfprintf_r+0xe38>
    2560:	54 f7       	mov.l	@(28,r15),r4
    2562:	65 c3       	mov	r12,r5
    2564:	49 0b       	jsr	@r9
    2566:	66 b3       	mov	r11,r6
    2568:	20 08       	tst	r0,r0
    256a:	8b 60       	bf	262e <__vfprintf_r+0xf26>
    256c:	92 25       	mov.w	25ba <__vfprintf_r+0xeb2>,r2	! 140
    256e:	af e8       	bra	2542 <__vfprintf_r+0xe3a>
    2570:	32 fc       	add	r15,r2
    2572:	00 09       	nop	
    2574:	1f 2f       	mov.l	r2,@(60,r15)
    2576:	e0 50       	mov	#80,r0
    2578:	00 fe       	mov.l	@(r0,r15),r0
    257a:	e1 0f       	mov	#15,r1
    257c:	21 d9       	and	r13,r1
    257e:	01 1c       	mov.b	@(r0,r1),r1
    2580:	63 b3       	mov	r11,r3
    2582:	43 28       	shll16	r3
    2584:	22 14       	mov.b	r1,@-r2
    2586:	43 18       	shll8	r3
    2588:	61 d3       	mov	r13,r1
    258a:	43 08       	shll2	r3
    258c:	41 09       	shlr2	r1
    258e:	43 08       	shll2	r3
    2590:	41 09       	shlr2	r1
    2592:	21 3b       	or	r3,r1
    2594:	63 b3       	mov	r11,r3
    2596:	43 09       	shlr2	r3
    2598:	43 09       	shlr2	r3
    259a:	23 38       	tst	r3,r3
    259c:	6b 33       	mov	r3,r11
    259e:	6d 13       	mov	r1,r13
    25a0:	8b e9       	bf	2576 <__vfprintf_r+0xe6e>
    25a2:	21 18       	tst	r1,r1
    25a4:	8b e7       	bf	2576 <__vfprintf_r+0xe6e>
    25a6:	e0 4c       	mov	#76,r0
    25a8:	00 fe       	mov.l	@(r0,r15),r0
    25aa:	1f 2f       	mov.l	r2,@(60,r15)
    25ac:	30 28       	sub	r2,r0
    25ae:	ac 0f       	bra	1dd0 <__vfprintf_r+0x6c8>
    25b0:	1f 0b       	mov.l	r0,@(44,r15)
    25b2:	05 40       	.word 0x0540
    25b4:	fb 6c       	.word 0xfb6c
    25b6:	00 80       	.word 0x0080
    25b8:	00 a4       	mov.b	r10,@(r0,r0)
    25ba:	01 40       	.word 0x0140
    25bc:	00 00       	.word 0x0000
    25be:	9e 88       	mov.w	26d2 <__vfprintf_r+0xfca>,r14	! 1f2d
    25c0:	00 00       	.word 0x0000
    25c2:	66 d0       	mov.b	@r13,r6
    25c4:	8b 02       	bf	25cc <__vfprintf_r+0xec4>
    25c6:	e1 09       	mov	#9,r1
    25c8:	3d 16       	cmp/hi	r1,r13
    25ca:	8b 1f       	bf	260c <__vfprintf_r+0xf04>
    25cc:	e0 4c       	mov	#76,r0
    25ce:	07 fe       	mov.l	@(r0,r15),r7
    25d0:	da 54       	mov.l	2724 <__vfprintf_r+0x101c>,r10	! 8a78 <___umoddi3>
    25d2:	d8 55       	mov.l	2728 <__vfprintf_r+0x1020>,r8	! 875c <___udivdi3>
    25d4:	1f 7f       	mov.l	r7,@(60,r15)
    25d6:	64 b3       	mov	r11,r4
    25d8:	65 d3       	mov	r13,r5
    25da:	e6 00       	mov	#0,r6
    25dc:	4a 0b       	jsr	@r10
    25de:	e7 0a       	mov	#10,r7
    25e0:	50 ff       	mov.l	@(60,r15),r0
    25e2:	71 30       	add	#48,r1
    25e4:	64 b3       	mov	r11,r4
    25e6:	20 14       	mov.b	r1,@-r0
    25e8:	65 d3       	mov	r13,r5
    25ea:	1f 0f       	mov.l	r0,@(60,r15)
    25ec:	e6 00       	mov	#0,r6
    25ee:	48 0b       	jsr	@r8
    25f0:	e7 0a       	mov	#10,r7
    25f2:	6b 03       	mov	r0,r11
    25f4:	2b b8       	tst	r11,r11
    25f6:	6d 13       	mov	r1,r13
    25f8:	8b ed       	bf	25d6 <__vfprintf_r+0xece>
    25fa:	21 18       	tst	r1,r1
    25fc:	8b eb       	bf	25d6 <__vfprintf_r+0xece>
    25fe:	e0 4c       	mov	#76,r0
    2600:	00 fe       	mov.l	@(r0,r15),r0
    2602:	51 ff       	mov.l	@(60,r15),r1
    2604:	30 18       	sub	r1,r0
    2606:	ab e3       	bra	1dd0 <__vfprintf_r+0x6c8>
    2608:	1f 0b       	mov.l	r0,@(44,r15)
    260a:	00 09       	nop	
    260c:	93 84       	mov.w	2718 <__vfprintf_r+0x1010>,r3	! 540
    260e:	7d 30       	add	#48,r13
    2610:	90 83       	mov.w	271a <__vfprintf_r+0x1012>,r0	! fb97
    2612:	33 fc       	add	r15,r3
    2614:	03 d4       	mov.b	r13,@(r0,r3)
    2616:	e0 7c       	mov	#124,r0
    2618:	04 fe       	mov.l	@(r0,r15),r4
    261a:	e0 64       	mov	#100,r0
    261c:	05 fe       	mov.l	@(r0,r15),r5
    261e:	1f 4b       	mov.l	r4,@(44,r15)
    2620:	ab d6       	bra	1dd0 <__vfprintf_r+0x6c8>
    2622:	1f 5f       	mov.l	r5,@(60,r15)
    2624:	d0 41       	mov.l	272c <__vfprintf_r+0x1024>,r0	! 66d0 <___sprint_r>
    2626:	40 0b       	jsr	@r0
    2628:	55 f8       	mov.l	@(32,r15),r5
    262a:	20 08       	tst	r0,r0
    262c:	89 02       	bt	2634 <__vfprintf_r+0xf2c>
    262e:	ab 44       	bra	1cba <__vfprintf_r+0x5b2>
    2630:	e0 44       	mov	#68,r0
    2632:	00 09       	nop	
    2634:	9c 72       	mov.w	271c <__vfprintf_r+0x1014>,r12	! 140
    2636:	a9 a2       	bra	197e <__vfprintf_r+0x276>
    2638:	3c fc       	add	r15,r12
    263a:	00 09       	nop	
    263c:	0d fe       	mov.l	@(r0,r15),r13
    263e:	7d ff       	add	#-1,r13
    2640:	4d 15       	cmp/pl	r13
    2642:	89 01       	bt	2648 <__vfprintf_r+0xf40>
    2644:	ae e5       	bra	2412 <__vfprintf_r+0xd0a>
    2646:	00 09       	nop	
    2648:	e1 10       	mov	#16,r1
    264a:	3d 17       	cmp/gt	r1,r13
    264c:	d8 38       	mov.l	2730 <__vfprintf_r+0x1028>,r8	! 9e88 <_zeroes.4041>
    264e:	89 01       	bt	2654 <__vfprintf_r+0xf4c>
    2650:	a0 fa       	bra	2848 <__vfprintf_r+0x1140>
    2652:	00 09       	nop	
    2654:	9b 63       	mov.w	271e <__vfprintf_r+0x1016>,r11	! a4
    2656:	62 c3       	mov	r12,r2
    2658:	ee 10       	mov	#16,r14
    265a:	3b fc       	add	r15,r11
    265c:	ea 07       	mov	#7,r10
    265e:	d9 33       	mov.l	272c <__vfprintf_r+0x1024>,r9	! 66d0 <___sprint_r>
    2660:	a0 06       	bra	2670 <__vfprintf_r+0xf68>
    2662:	5c f8       	mov.l	@(32,r15),r12
    2664:	72 08       	add	#8,r2
    2666:	7d f0       	add	#-16,r13
    2668:	3d e7       	cmp/gt	r14,r13
    266a:	89 01       	bt	2670 <__vfprintf_r+0xf68>
    266c:	a0 ec       	bra	2848 <__vfprintf_r+0x1140>
    266e:	6c 23       	mov	r2,r12
    2670:	51 b2       	mov.l	@(8,r11),r1
    2672:	22 82       	mov.l	r8,@r2
    2674:	71 10       	add	#16,r1
    2676:	12 e1       	mov.l	r14,@(4,r2)
    2678:	1b 12       	mov.l	r1,@(8,r11)
    267a:	51 b1       	mov.l	@(4,r11),r1
    267c:	71 01       	add	#1,r1
    267e:	1b 11       	mov.l	r1,@(4,r11)
    2680:	31 a7       	cmp/gt	r10,r1
    2682:	8b ef       	bf	2664 <__vfprintf_r+0xf5c>
    2684:	54 f7       	mov.l	@(28,r15),r4
    2686:	65 c3       	mov	r12,r5
    2688:	49 0b       	jsr	@r9
    268a:	66 b3       	mov	r11,r6
    268c:	20 08       	tst	r0,r0
    268e:	8b 5e       	bf	274e <__vfprintf_r+0x1046>
    2690:	92 44       	mov.w	271c <__vfprintf_r+0x1014>,r2	! 140
    2692:	af e8       	bra	2666 <__vfprintf_r+0xf5e>
    2694:	32 fc       	add	r15,r2
    2696:	00 09       	nop	
    2698:	8b 04       	bf	26a4 <__vfprintf_r+0xf9c>
    269a:	2d d8       	tst	r13,r13
    269c:	8b 02       	bf	26a4 <__vfprintf_r+0xf9c>
    269e:	e3 00       	mov	#0,r3
    26a0:	ac 12       	bra	1ec8 <__vfprintf_r+0x7c0>
    26a2:	e2 02       	mov	#2,r2
    26a4:	91 3c       	mov.w	2720 <__vfprintf_r+0x1018>,r1	! 84
    26a6:	e2 30       	mov	#48,r2
    26a8:	50 f5       	mov.l	@(20,r15),r0
    26aa:	31 fc       	add	r15,r1
    26ac:	21 20       	mov.b	r2,@r1
    26ae:	cb 02       	or	#2,r0
    26b0:	71 01       	add	#1,r1
    26b2:	21 90       	mov.b	r9,@r1
    26b4:	e3 01       	mov	#1,r3
    26b6:	1f 05       	mov.l	r0,@(20,r15)
    26b8:	ac 06       	bra	1ec8 <__vfprintf_r+0x7c0>
    26ba:	e2 02       	mov	#2,r2
    26bc:	8b 02       	bf	26c4 <__vfprintf_r+0xfbc>
    26be:	a1 e7       	bra	2a90 <__vfprintf_r+0x1388>
    26c0:	50 f5       	mov.l	@(20,r15),r0
    26c2:	00 09       	nop	
    26c4:	51 fd       	mov.l	@(52,r15),r1
    26c6:	6d 12       	mov.l	@r1,r13
    26c8:	52 fd       	mov.l	@(52,r15),r2
    26ca:	2d d8       	tst	r13,r13
    26cc:	e1 ff       	mov	#-1,r1
    26ce:	72 04       	add	#4,r2
    26d0:	61 1a       	negc	r1,r1
    26d2:	1f 2d       	mov.l	r2,@(52,r15)
    26d4:	eb 00       	mov	#0,r11
    26d6:	63 1c       	extu.b	r1,r3
    26d8:	ab f6       	bra	1ec8 <__vfprintf_r+0x7c0>
    26da:	e2 01       	mov	#1,r2
    26dc:	e3 10       	mov	#16,r3
    26de:	21 39       	and	r3,r1
    26e0:	21 18       	tst	r1,r1
    26e2:	8b 01       	bf	26e8 <__vfprintf_r+0xfe0>
    26e4:	a1 ba       	bra	2a5c <__vfprintf_r+0x1354>
    26e6:	50 f5       	mov.l	@(20,r15),r0
    26e8:	54 fd       	mov.l	@(52,r15),r4
    26ea:	6d 46       	mov.l	@r4+,r13
    26ec:	1f 4d       	mov.l	r4,@(52,r15)
    26ee:	30 d7       	cmp/gt	r13,r0
    26f0:	31 1a       	subc	r1,r1
    26f2:	ab 23       	bra	1d3c <__vfprintf_r+0x634>
    26f4:	6b 13       	mov	r1,r11
    26f6:	00 09       	nop	
    26f8:	8b 02       	bf	2700 <__vfprintf_r+0xff8>
    26fa:	a1 ef       	bra	2adc <__vfprintf_r+0x13d4>
    26fc:	50 f5       	mov.l	@(20,r15),r0
    26fe:	00 09       	nop	
    2700:	51 fd       	mov.l	@(52,r15),r1
    2702:	6d 12       	mov.l	@r1,r13
    2704:	52 fd       	mov.l	@(52,r15),r2
    2706:	2d d8       	tst	r13,r13
    2708:	e1 ff       	mov	#-1,r1
    270a:	72 04       	add	#4,r2
    270c:	61 1a       	negc	r1,r1
    270e:	1f 2d       	mov.l	r2,@(52,r15)
    2710:	eb 00       	mov	#0,r11
    2712:	63 1c       	extu.b	r1,r3
    2714:	ab d8       	bra	1ec8 <__vfprintf_r+0x7c0>
    2716:	e2 00       	mov	#0,r2
    2718:	05 40       	.word 0x0540
    271a:	fb 97       	.word 0xfb97
    271c:	01 40       	.word 0x0140
    271e:	00 a4       	mov.b	r10,@(r0,r0)
    2720:	00 84       	mov.b	r8,@(r0,r0)
    2722:	00 09       	nop	
    2724:	00 00       	.word 0x0000
    2726:	8a 78       	.word 0x8a78
    2728:	00 00       	.word 0x0000
    272a:	87 5c       	.word 0x875c
    272c:	00 00       	.word 0x0000
    272e:	66 d0       	mov.b	@r13,r6
    2730:	00 00       	.word 0x0000
    2732:	9e 88       	mov.w	2846 <__vfprintf_r+0x113e>,r14	! 7101
    2734:	6c 23       	mov	r2,r12
    2736:	96 8e       	mov.w	2856 <__vfprintf_r+0x114e>,r6	! a4
    2738:	1c d1       	mov.l	r13,@(4,r12)
    273a:	36 fc       	add	r15,r6
    273c:	51 62       	mov.l	@(8,r6),r1
    273e:	2c 82       	mov.l	r8,@r12
    2740:	a9 ae       	bra	1aa0 <__vfprintf_r+0x398>
    2742:	31 dc       	add	r13,r1
    2744:	d0 46       	mov.l	2860 <__vfprintf_r+0x1158>,r0	! 66d0 <___sprint_r>
    2746:	40 0b       	jsr	@r0
    2748:	55 f8       	mov.l	@(32,r15),r5
    274a:	20 08       	tst	r0,r0
    274c:	89 02       	bt	2754 <__vfprintf_r+0x104c>
    274e:	aa b4       	bra	1cba <__vfprintf_r+0x5b2>
    2750:	e0 44       	mov	#68,r0
    2752:	00 09       	nop	
    2754:	9c 80       	mov.w	2858 <__vfprintf_r+0x1150>,r12	! 140
    2756:	3c fc       	add	r15,r12
    2758:	e0 5c       	mov	#92,r0
    275a:	93 7e       	mov.w	285a <__vfprintf_r+0x1152>,r3	! 540
    275c:	02 fe       	mov.l	@(r0,r15),r2
    275e:	33 fc       	add	r15,r3
    2760:	90 7c       	mov.w	285c <__vfprintf_r+0x1154>,r0	! fb48
    2762:	59 ff       	mov.l	@(60,r15),r9
    2764:	39 2c       	add	r2,r9
    2766:	02 3e       	mov.l	@(r0,r3),r2
    2768:	e0 58       	mov	#88,r0
    276a:	04 fe       	mov.l	@(r0,r15),r4
    276c:	32 43       	cmp/ge	r4,r2
    276e:	8b 02       	bf	2776 <__vfprintf_r+0x106e>
    2770:	50 f5       	mov.l	@(20,r15),r0
    2772:	c8 01       	tst	#1,r0
    2774:	89 13       	bt	279e <__vfprintf_r+0x1096>
    2776:	e0 54       	mov	#84,r0
    2778:	96 6d       	mov.w	2856 <__vfprintf_r+0x114e>,r6	! a4
    277a:	01 fe       	mov.l	@(r0,r15),r1
    277c:	36 fc       	add	r15,r6
    277e:	e0 60       	mov	#96,r0
    2780:	2c 12       	mov.l	r1,@r12
    2782:	03 fe       	mov.l	@(r0,r15),r3
    2784:	51 62       	mov.l	@(8,r6),r1
    2786:	1c 31       	mov.l	r3,@(4,r12)
    2788:	31 3c       	add	r3,r1
    278a:	16 12       	mov.l	r1,@(8,r6)
    278c:	e3 07       	mov	#7,r3
    278e:	51 61       	mov.l	@(4,r6),r1
    2790:	71 01       	add	#1,r1
    2792:	16 11       	mov.l	r1,@(4,r6)
    2794:	31 37       	cmp/gt	r3,r1
    2796:	8b 01       	bf	279c <__vfprintf_r+0x1094>
    2798:	a2 da       	bra	2d50 <__vfprintf_r+0x1648>
    279a:	54 f7       	mov.l	@(28,r15),r4
    279c:	7c 08       	add	#8,r12
    279e:	e0 58       	mov	#88,r0
    27a0:	51 fb       	mov.l	@(44,r15),r1
    27a2:	0d fe       	mov.l	@(r0,r15),r13
    27a4:	31 98       	sub	r9,r1
    27a6:	3d 28       	sub	r2,r13
    27a8:	3d 17       	cmp/gt	r1,r13
    27aa:	68 d3       	mov	r13,r8
    27ac:	8b 00       	bf	27b0 <__vfprintf_r+0x10a8>
    27ae:	68 13       	mov	r1,r8
    27b0:	48 15       	cmp/pl	r8
    27b2:	8b 10       	bf	27d6 <__vfprintf_r+0x10ce>
    27b4:	96 4f       	mov.w	2856 <__vfprintf_r+0x114e>,r6	! a4
    27b6:	e2 07       	mov	#7,r2
    27b8:	2c 92       	mov.l	r9,@r12
    27ba:	36 fc       	add	r15,r6
    27bc:	51 62       	mov.l	@(8,r6),r1
    27be:	1c 81       	mov.l	r8,@(4,r12)
    27c0:	31 8c       	add	r8,r1
    27c2:	16 12       	mov.l	r1,@(8,r6)
    27c4:	51 61       	mov.l	@(4,r6),r1
    27c6:	71 01       	add	#1,r1
    27c8:	16 11       	mov.l	r1,@(4,r6)
    27ca:	31 27       	cmp/gt	r2,r1
    27cc:	8b 02       	bf	27d4 <__vfprintf_r+0x10cc>
    27ce:	a2 d7       	bra	2d80 <__vfprintf_r+0x1678>
    27d0:	54 f7       	mov.l	@(28,r15),r4
    27d2:	00 09       	nop	
    27d4:	7c 08       	add	#8,r12
    27d6:	48 11       	cmp/pz	r8
    27d8:	31 1a       	subc	r1,r1
    27da:	28 19       	and	r1,r8
    27dc:	3d 88       	sub	r8,r13
    27de:	4d 15       	cmp/pl	r13
    27e0:	89 02       	bt	27e8 <__vfprintf_r+0x10e0>
    27e2:	a9 69       	bra	1ab8 <__vfprintf_r+0x3b0>
    27e4:	50 f5       	mov.l	@(20,r15),r0
    27e6:	00 09       	nop	
    27e8:	e1 10       	mov	#16,r1
    27ea:	3d 17       	cmp/gt	r1,r13
    27ec:	d8 1d       	mov.l	2864 <__vfprintf_r+0x115c>,r8	! 9e88 <_zeroes.4041>
    27ee:	8b a2       	bf	2736 <__vfprintf_r+0x102e>
    27f0:	9b 31       	mov.w	2856 <__vfprintf_r+0x114e>,r11	! a4
    27f2:	62 c3       	mov	r12,r2
    27f4:	ee 10       	mov	#16,r14
    27f6:	3b fc       	add	r15,r11
    27f8:	e9 07       	mov	#7,r9
    27fa:	da 19       	mov.l	2860 <__vfprintf_r+0x1158>,r10	! 66d0 <___sprint_r>
    27fc:	a0 04       	bra	2808 <__vfprintf_r+0x1100>
    27fe:	5c f8       	mov.l	@(32,r15),r12
    2800:	72 08       	add	#8,r2
    2802:	7d f0       	add	#-16,r13
    2804:	3d e7       	cmp/gt	r14,r13
    2806:	8b 95       	bf	2734 <__vfprintf_r+0x102c>
    2808:	51 b2       	mov.l	@(8,r11),r1
    280a:	22 82       	mov.l	r8,@r2
    280c:	71 10       	add	#16,r1
    280e:	12 e1       	mov.l	r14,@(4,r2)
    2810:	1b 12       	mov.l	r1,@(8,r11)
    2812:	51 b1       	mov.l	@(4,r11),r1
    2814:	71 01       	add	#1,r1
    2816:	1b 11       	mov.l	r1,@(4,r11)
    2818:	31 97       	cmp/gt	r9,r1
    281a:	8b f1       	bf	2800 <__vfprintf_r+0x10f8>
    281c:	54 f7       	mov.l	@(28,r15),r4
    281e:	65 c3       	mov	r12,r5
    2820:	4a 0b       	jsr	@r10
    2822:	66 b3       	mov	r11,r6
    2824:	20 08       	tst	r0,r0
    2826:	8b 3c       	bf	28a2 <__vfprintf_r+0x119a>
    2828:	92 16       	mov.w	2858 <__vfprintf_r+0x1150>,r2	! 140
    282a:	af ea       	bra	2802 <__vfprintf_r+0x10fa>
    282c:	32 fc       	add	r15,r2
    282e:	00 09       	nop	
    2830:	c8 01       	tst	#1,r0
    2832:	89 01       	bt	2838 <__vfprintf_r+0x1130>
    2834:	ad a4       	bra	2380 <__vfprintf_r+0xc78>
    2836:	00 09       	nop	
    2838:	96 0d       	mov.w	2856 <__vfprintf_r+0x114e>,r6	! a4
    283a:	50 ff       	mov.l	@(60,r15),r0
    283c:	36 fc       	add	r15,r6
    283e:	1c 11       	mov.l	r1,@(4,r12)
    2840:	51 62       	mov.l	@(8,r6),r1
    2842:	2c 02       	mov.l	r0,@r12
    2844:	ad db       	bra	23fe <__vfprintf_r+0xcf6>
    2846:	71 01       	add	#1,r1
    2848:	96 05       	mov.w	2856 <__vfprintf_r+0x114e>,r6	! a4
    284a:	2c 82       	mov.l	r8,@r12
    284c:	36 fc       	add	r15,r6
    284e:	51 62       	mov.l	@(8,r6),r1
    2850:	1c d1       	mov.l	r13,@(4,r12)
    2852:	ad d4       	bra	23fe <__vfprintf_r+0xcf6>
    2854:	31 dc       	add	r13,r1
    2856:	00 a4       	mov.b	r10,@(r0,r0)
    2858:	01 40       	.word 0x0140
    285a:	05 40       	.word 0x0540
    285c:	fb 48       	.word 0xfb48
    285e:	00 09       	nop	
    2860:	00 00       	.word 0x0000
    2862:	66 d0       	mov.b	@r13,r6
    2864:	00 00       	.word 0x0000
    2866:	9e 88       	mov.w	297a <__vfprintf_r+0x1272>,r14	! 1fe
    2868:	d0 1f       	mov.l	28e8 <__vfprintf_r+0x11e0>,r0	! 66d0 <___sprint_r>
    286a:	40 0b       	jsr	@r0
    286c:	55 f8       	mov.l	@(32,r15),r5
    286e:	20 08       	tst	r0,r0
    2870:	8b 17       	bf	28a2 <__vfprintf_r+0x119a>
    2872:	9c 35       	mov.w	28e0 <__vfprintf_r+0x11d8>,r12	! 140
    2874:	ad 97       	bra	23a6 <__vfprintf_r+0xc9e>
    2876:	3c fc       	add	r15,r12
    2878:	d0 1b       	mov.l	28e8 <__vfprintf_r+0x11e0>,r0	! 66d0 <___sprint_r>
    287a:	40 0b       	jsr	@r0
    287c:	55 f8       	mov.l	@(32,r15),r5
    287e:	20 08       	tst	r0,r0
    2880:	8b 0f       	bf	28a2 <__vfprintf_r+0x119a>
    2882:	9c 2d       	mov.w	28e0 <__vfprintf_r+0x11d8>,r12	! 140
    2884:	ad a3       	bra	23ce <__vfprintf_r+0xcc6>
    2886:	3c fc       	add	r15,r12
    2888:	d0 17       	mov.l	28e8 <__vfprintf_r+0x11e0>,r0	! 66d0 <___sprint_r>
    288a:	40 0b       	jsr	@r0
    288c:	55 f8       	mov.l	@(32,r15),r5
    288e:	20 08       	tst	r0,r0
    2890:	8b 07       	bf	28a2 <__vfprintf_r+0x119a>
    2892:	9c 25       	mov.w	28e0 <__vfprintf_r+0x11d8>,r12	! 140
    2894:	ad bd       	bra	2412 <__vfprintf_r+0xd0a>
    2896:	3c fc       	add	r15,r12
    2898:	d0 13       	mov.l	28e8 <__vfprintf_r+0x11e0>,r0	! 66d0 <___sprint_r>
    289a:	40 0b       	jsr	@r0
    289c:	55 f8       	mov.l	@(32,r15),r5
    289e:	20 08       	tst	r0,r0
    28a0:	89 02       	bt	28a8 <__vfprintf_r+0x11a0>
    28a2:	aa 0a       	bra	1cba <__vfprintf_r+0x5b2>
    28a4:	e0 44       	mov	#68,r0
    28a6:	00 09       	nop	
    28a8:	9c 1a       	mov.w	28e0 <__vfprintf_r+0x11d8>,r12	! 140
    28aa:	a8 9b       	bra	19e4 <__vfprintf_r+0x2dc>
    28ac:	3c fc       	add	r15,r12
    28ae:	00 09       	nop	
    28b0:	88 30       	cmp/eq	#48,r0
    28b2:	8b 01       	bf	28b8 <__vfprintf_r+0x11b0>
    28b4:	ae a4       	bra	2600 <__vfprintf_r+0xef8>
    28b6:	e0 4c       	mov	#76,r0
    28b8:	71 ff       	add	#-1,r1
    28ba:	e2 30       	mov	#48,r2
    28bc:	21 20       	mov.b	r2,@r1
    28be:	e1 40       	mov	#64,r1
    28c0:	50 ff       	mov.l	@(60,r15),r0
    28c2:	31 fc       	add	r15,r1
    28c4:	52 13       	mov.l	@(12,r1),r2
    28c6:	70 ff       	add	#-1,r0
    28c8:	1f 0f       	mov.l	r0,@(60,r15)
    28ca:	32 08       	sub	r0,r2
    28cc:	aa 80       	bra	1dd0 <__vfprintf_r+0x6c8>
    28ce:	1f 2b       	mov.l	r2,@(44,r15)
    28d0:	92 07       	mov.w	28e2 <__vfprintf_r+0x11da>,r2	! 540
    28d2:	90 07       	mov.w	28e4 <__vfprintf_r+0x11dc>,r0	! fb43
    28d4:	6d da       	negc	r13,r13
    28d6:	e1 2d       	mov	#45,r1
    28d8:	32 fc       	add	r15,r2
    28da:	6b ba       	negc	r11,r11
    28dc:	aa 32       	bra	1d44 <__vfprintf_r+0x63c>
    28de:	02 14       	mov.b	r1,@(r0,r2)
    28e0:	01 40       	.word 0x0140
    28e2:	05 40       	.word 0x0540
    28e4:	fb 43       	.word 0xfb43
    28e6:	00 09       	nop	
    28e8:	00 00       	.word 0x0000
    28ea:	66 d0       	mov.b	@r13,r6
    28ec:	4a 0b       	jsr	@r10
    28ee:	00 09       	nop	
    28f0:	20 08       	tst	r0,r0
    28f2:	8b 01       	bf	28f8 <__vfprintf_r+0x11f0>
    28f4:	a1 ae       	bra	2c54 <__vfprintf_r+0x154c>
    28f6:	e1 47       	mov	#71,r1
    28f8:	60 e3       	mov	r14,r0
    28fa:	ea df       	mov	#-33,r10
    28fc:	88 ff       	cmp/eq	#-1,r0
    28fe:	2a 99       	and	r9,r10
    2900:	8b 02       	bf	2908 <__vfprintf_r+0x1200>
    2902:	a0 07       	bra	2914 <__vfprintf_r+0x120c>
    2904:	ee 06       	mov	#6,r14
    2906:	00 09       	nop	
    2908:	60 a3       	mov	r10,r0
    290a:	88 47       	cmp/eq	#71,r0
    290c:	8b 02       	bf	2914 <__vfprintf_r+0x120c>
    290e:	2e e8       	tst	r14,r14
    2910:	8b 00       	bf	2914 <__vfprintf_r+0x120c>
    2912:	ee 01       	mov	#1,r14
    2914:	91 96       	mov.w	2a44 <__vfprintf_r+0x133c>,r1	! 100
    2916:	e4 00       	mov	#0,r4
    2918:	52 f5       	mov.l	@(20,r15),r2
    291a:	e0 48       	mov	#72,r0
    291c:	4b 11       	cmp/pz	r11
    291e:	22 1b       	or	r1,r2
    2920:	1f 2a       	mov.l	r2,@(40,r15)
    2922:	0f 46       	mov.l	r4,@(r0,r15)
    2924:	89 02       	bt	292c <__vfprintf_r+0x1224>
    2926:	a3 15       	bra	2f54 <__vfprintf_r+0x184c>
    2928:	e5 2d       	mov	#45,r5
    292a:	00 09       	nop	
    292c:	60 a3       	mov	r10,r0
    292e:	88 46       	cmp/eq	#70,r0
    2930:	03 29       	movt	r3
    2932:	8b 01       	bf	2938 <__vfprintf_r+0x1230>
    2934:	a2 4a       	bra	2dcc <__vfprintf_r+0x16c4>
    2936:	e7 03       	mov	#3,r7
    2938:	88 45       	cmp/eq	#69,r0
    293a:	89 01       	bt	2940 <__vfprintf_r+0x1238>
    293c:	a2 46       	bra	2dcc <__vfprintf_r+0x16c4>
    293e:	e7 02       	mov	#2,r7
    2940:	93 81       	mov.w	2a46 <__vfprintf_r+0x133e>,r3	! 88
    2942:	6d e3       	mov	r14,r13
    2944:	d0 43       	mov.l	2a54 <__vfprintf_r+0x134c>,r0	! 34cc <__dtoa_r>
    2946:	33 fc       	add	r15,r3
    2948:	1f 31       	mov.l	r3,@(4,r15)
    294a:	7d 01       	add	#1,r13
    294c:	93 7c       	mov.w	2a48 <__vfprintf_r+0x1340>,r3	! 8c
    294e:	65 b3       	mov	r11,r5
    2950:	2f d2       	mov.l	r13,@r15
    2952:	33 fc       	add	r15,r3
    2954:	1f 32       	mov.l	r3,@(8,r15)
    2956:	66 83       	mov	r8,r6
    2958:	93 77       	mov.w	2a4a <__vfprintf_r+0x1342>,r3	! 90
    295a:	e7 02       	mov	#2,r7
    295c:	54 f7       	mov.l	@(28,r15),r4
    295e:	33 fc       	add	r15,r3
    2960:	40 0b       	jsr	@r0
    2962:	1f 33       	mov.l	r3,@(12,r15)
    2964:	1f 0f       	mov.l	r0,@(60,r15)
    2966:	3d 0c       	add	r0,r13
    2968:	d0 3b       	mov.l	2a58 <__vfprintf_r+0x1350>,r0	! 9508 <___eqdf2>
    296a:	64 b3       	mov	r11,r4
    296c:	65 83       	mov	r8,r5
    296e:	e6 00       	mov	#0,r6
    2970:	40 0b       	jsr	@r0
    2972:	e7 00       	mov	#0,r7
    2974:	20 08       	tst	r0,r0
    2976:	89 0d       	bt	2994 <__vfprintf_r+0x128c>
    2978:	90 67       	mov.w	2a4a <__vfprintf_r+0x1342>,r0	! 90
    297a:	01 fe       	mov.l	@(r0,r15),r1
    297c:	3d 16       	cmp/hi	r1,r13
    297e:	89 01       	bt	2984 <__vfprintf_r+0x127c>
    2980:	a3 a8       	bra	30d4 <__vfprintf_r+0x19cc>
    2982:	6d 13       	mov	r1,r13
    2984:	e7 30       	mov	#48,r7
    2986:	00 09       	nop	
    2988:	90 5f       	mov.w	2a4a <__vfprintf_r+0x1342>,r0	! 90
    298a:	21 70       	mov.b	r7,@r1
    298c:	71 01       	add	#1,r1
    298e:	0f 16       	mov.l	r1,@(r0,r15)
    2990:	3d 10       	cmp/eq	r1,r13
    2992:	8b f9       	bf	2988 <__vfprintf_r+0x1280>
    2994:	53 ff       	mov.l	@(60,r15),r3
    2996:	e0 58       	mov	#88,r0
    2998:	3d 38       	sub	r3,r13
    299a:	0f d6       	mov.l	r13,@(r0,r15)
    299c:	60 a3       	mov	r10,r0
    299e:	88 47       	cmp/eq	#71,r0
    29a0:	8b 02       	bf	29a8 <__vfprintf_r+0x12a0>
    29a2:	a2 7a       	bra	2e9a <__vfprintf_r+0x1792>
    29a4:	00 09       	nop	
    29a6:	00 09       	nop	
    29a8:	e1 65       	mov	#101,r1
    29aa:	39 17       	cmp/gt	r1,r9
    29ac:	89 02       	bt	29b4 <__vfprintf_r+0x12ac>
    29ae:	a2 80       	bra	2eb2 <__vfprintf_r+0x17aa>
    29b0:	00 09       	nop	
    29b2:	00 09       	nop	
    29b4:	60 93       	mov	r9,r0
    29b6:	88 66       	cmp/eq	#102,r0
    29b8:	90 48       	mov.w	2a4c <__vfprintf_r+0x1344>,r0	! fb48
    29ba:	8b 01       	bf	29c0 <__vfprintf_r+0x12b8>
    29bc:	a2 dc       	bra	2f78 <__vfprintf_r+0x1870>
    29be:	00 09       	nop	
    29c0:	92 45       	mov.w	2a4e <__vfprintf_r+0x1346>,r2	! 540
    29c2:	32 fc       	add	r15,r2
    29c4:	01 2e       	mov.l	@(r0,r2),r1
    29c6:	e0 58       	mov	#88,r0
    29c8:	04 fe       	mov.l	@(r0,r15),r4
    29ca:	31 43       	cmp/ge	r4,r1
    29cc:	89 02       	bt	29d4 <__vfprintf_r+0x12cc>
    29ce:	a2 c5       	bra	2f5c <__vfprintf_r+0x1854>
    29d0:	41 15       	cmp/pl	r1
    29d2:	00 09       	nop	
    29d4:	50 f5       	mov.l	@(20,r15),r0
    29d6:	c8 01       	tst	#1,r0
    29d8:	89 02       	bt	29e0 <__vfprintf_r+0x12d8>
    29da:	a3 2f       	bra	303c <__vfprintf_r+0x1934>
    29dc:	60 13       	mov	r1,r0
    29de:	00 09       	nop	
    29e0:	41 11       	cmp/pz	r1
    29e2:	32 2a       	subc	r2,r2
    29e4:	22 19       	and	r1,r2
    29e6:	1f 29       	mov.l	r2,@(36,r15)
    29e8:	e9 67       	mov	#103,r9
    29ea:	1f 1b       	mov.l	r1,@(44,r15)
    29ec:	e0 5c       	mov	#92,r0
    29ee:	0f 16       	mov.l	r1,@(r0,r15)
    29f0:	e0 48       	mov	#72,r0
    29f2:	03 fe       	mov.l	@(r0,r15),r3
    29f4:	23 38       	tst	r3,r3
    29f6:	8b 01       	bf	29fc <__vfprintf_r+0x12f4>
    29f8:	a2 20       	bra	2e3c <__vfprintf_r+0x1734>
    29fa:	e5 00       	mov	#0,r5
    29fc:	94 27       	mov.w	2a4e <__vfprintf_r+0x1346>,r4	! 540
    29fe:	e1 2d       	mov	#45,r1
    2a00:	90 26       	mov.w	2a50 <__vfprintf_r+0x1348>,r0	! fb43
    2a02:	34 fc       	add	r15,r4
    2a04:	55 fa       	mov.l	@(40,r15),r5
    2a06:	e7 40       	mov	#64,r7
    2a08:	04 14       	mov.b	r1,@(r0,r4)
    2a0a:	37 fc       	add	r15,r7
    2a0c:	e0 00       	mov	#0,r0
    2a0e:	1f 55       	mov.l	r5,@(20,r15)
    2a10:	a9 ee       	bra	1df0 <__vfprintf_r+0x6e8>
    2a12:	17 02       	mov.l	r0,@(8,r7)
    2a14:	d4 01       	mov.l	2a1c <__vfprintf_r+0x1314>,r4	! 187a
    2a16:	44 2b       	jmp	@r4
    2a18:	73 01       	add	#1,r3
    2a1a:	00 09       	nop	
    2a1c:	00 00       	.word 0x0000
    2a1e:	18 7a       	mov.l	r7,@(40,r8)
    2a20:	96 17       	mov.w	2a52 <__vfprintf_r+0x134a>,r6	! a4
    2a22:	e2 07       	mov	#7,r2
    2a24:	2c 82       	mov.l	r8,@r12
    2a26:	36 fc       	add	r15,r6
    2a28:	51 62       	mov.l	@(8,r6),r1
    2a2a:	1c d1       	mov.l	r13,@(4,r12)
    2a2c:	31 dc       	add	r13,r1
    2a2e:	16 12       	mov.l	r1,@(8,r6)
    2a30:	51 61       	mov.l	@(4,r6),r1
    2a32:	71 01       	add	#1,r1
    2a34:	16 11       	mov.l	r1,@(4,r6)
    2a36:	31 27       	cmp/gt	r2,r1
    2a38:	8b 02       	bf	2a40 <__vfprintf_r+0x1338>
    2a3a:	ae 83       	bra	2744 <__vfprintf_r+0x103c>
    2a3c:	54 f7       	mov.l	@(28,r15),r4
    2a3e:	00 09       	nop	
    2a40:	ae 8a       	bra	2758 <__vfprintf_r+0x1050>
    2a42:	7c 08       	add	#8,r12
    2a44:	01 00       	.word 0x0100
    2a46:	00 88       	.word 0x0088
    2a48:	00 8c       	mov.b	@(r0,r8),r0
    2a4a:	00 90       	.word 0x0090
    2a4c:	fb 48       	.word 0xfb48
    2a4e:	05 40       	.word 0x0540
    2a50:	fb 43       	.word 0xfb43
    2a52:	00 a4       	mov.b	r10,@(r0,r0)
    2a54:	00 00       	.word 0x0000
    2a56:	34 cc       	add	r12,r4
    2a58:	00 00       	.word 0x0000
    2a5a:	95 08       	mov.w	2a6e <__vfprintf_r+0x1366>,r5	! 622f
    2a5c:	c9 40       	and	#64,r0
    2a5e:	20 08       	tst	r0,r0
    2a60:	8b 02       	bf	2a68 <__vfprintf_r+0x1360>
    2a62:	a0 f1       	bra	2c48 <__vfprintf_r+0x1540>
    2a64:	57 fd       	mov.l	@(52,r15),r7
    2a66:	00 09       	nop	
    2a68:	55 fd       	mov.l	@(52,r15),r5
    2a6a:	62 56       	mov.l	@r5+,r2
    2a6c:	1f 5d       	mov.l	r5,@(52,r15)
    2a6e:	62 2f       	exts.w	r2,r2
    2a70:	31 27       	cmp/gt	r2,r1
    2a72:	31 1a       	subc	r1,r1
    2a74:	6d 23       	mov	r2,r13
    2a76:	a9 61       	bra	1d3c <__vfprintf_r+0x634>
    2a78:	6b 13       	mov	r1,r11
    2a7a:	00 09       	nop	
    2a7c:	e7 40       	mov	#64,r7
    2a7e:	37 fc       	add	r15,r7
    2a80:	6b 52       	mov.l	@r5,r11
    2a82:	58 51       	mov.l	@(4,r5),r8
    2a84:	75 08       	add	#8,r5
    2a86:	17 ba       	mov.l	r11,@(40,r7)
    2a88:	17 8b       	mov.l	r8,@(44,r7)
    2a8a:	a9 c6       	bra	1e1a <__vfprintf_r+0x712>
    2a8c:	1f 5d       	mov.l	r5,@(52,r15)
    2a8e:	00 09       	nop	
    2a90:	c8 40       	tst	#64,r0
    2a92:	8b 01       	bf	2a98 <__vfprintf_r+0x1390>
    2a94:	a0 c2       	bra	2c1c <__vfprintf_r+0x1514>
    2a96:	53 fd       	mov.l	@(52,r15),r3
    2a98:	51 fd       	mov.l	@(52,r15),r1
    2a9a:	6d 12       	mov.l	@r1,r13
    2a9c:	ae 14       	bra	26c8 <__vfprintf_r+0xfc0>
    2a9e:	6d dd       	extu.w	r13,r13
    2aa0:	c8 10       	tst	#16,r0
    2aa2:	89 01       	bt	2aa8 <__vfprintf_r+0x13a0>
    2aa4:	a0 b2       	bra	2c0c <__vfprintf_r+0x1504>
    2aa6:	52 fd       	mov.l	@(52,r15),r2
    2aa8:	50 f5       	mov.l	@(20,r15),r0
    2aaa:	c8 40       	tst	#64,r0
    2aac:	8b 02       	bf	2ab4 <__vfprintf_r+0x13ac>
    2aae:	a1 d3       	bra	2e58 <__vfprintf_r+0x1750>
    2ab0:	54 fd       	mov.l	@(52,r15),r4
    2ab2:	00 09       	nop	
    2ab4:	52 fd       	mov.l	@(52,r15),r2
    2ab6:	e0 32       	mov	#50,r0
    2ab8:	03 fd       	mov.w	@(r0,r15),r3
    2aba:	61 26       	mov.l	@r2+,r1
    2abc:	1f 2d       	mov.l	r2,@(52,r15)
    2abe:	d4 01       	mov.l	2ac4 <__vfprintf_r+0x13bc>,r4	! 17ce
    2ac0:	44 2b       	jmp	@r4
    2ac2:	21 31       	mov.w	r3,@r1
    2ac4:	00 00       	.word 0x0000
    2ac6:	17 ce       	mov.l	r12,@(56,r7)
    2ac8:	c8 40       	tst	#64,r0
    2aca:	8b 01       	bf	2ad0 <__vfprintf_r+0x13c8>
    2acc:	a0 9a       	bra	2c04 <__vfprintf_r+0x14fc>
    2ace:	52 fd       	mov.l	@(52,r15),r2
    2ad0:	51 fd       	mov.l	@(52,r15),r1
    2ad2:	eb 00       	mov	#0,r11
    2ad4:	6d 16       	mov.l	@r1+,r13
    2ad6:	1f 1d       	mov.l	r1,@(52,r15)
    2ad8:	a9 e9       	bra	1eae <__vfprintf_r+0x7a6>
    2ada:	6d dd       	extu.w	r13,r13
    2adc:	c8 40       	tst	#64,r0
    2ade:	8b 01       	bf	2ae4 <__vfprintf_r+0x13dc>
    2ae0:	a0 84       	bra	2bec <__vfprintf_r+0x14e4>
    2ae2:	53 fd       	mov.l	@(52,r15),r3
    2ae4:	51 fd       	mov.l	@(52,r15),r1
    2ae6:	6d 12       	mov.l	@r1,r13
    2ae8:	ae 0c       	bra	2704 <__vfprintf_r+0xffc>
    2aea:	6d dd       	extu.w	r13,r13
    2aec:	d0 52       	mov.l	2c38 <__vfprintf_r+0x1530>,r0	! 66d0 <___sprint_r>
    2aee:	40 0b       	jsr	@r0
    2af0:	55 f8       	mov.l	@(32,r15),r5
    2af2:	20 08       	tst	r0,r0
    2af4:	8b 64       	bf	2bc0 <__vfprintf_r+0x14b8>
    2af6:	9c 9c       	mov.w	2c32 <__vfprintf_r+0x152a>,r12	! 140
    2af8:	ab 31       	bra	215e <__vfprintf_r+0xa56>
    2afa:	3c fc       	add	r15,r12
    2afc:	d1 4f       	mov.l	2c3c <__vfprintf_r+0x1534>,r1	! 9e74
    2afe:	96 99       	mov.w	2c34 <__vfprintf_r+0x152c>,r6	! a4
    2b00:	2c 12       	mov.l	r1,@r12
    2b02:	36 fc       	add	r15,r6
    2b04:	e1 01       	mov	#1,r1
    2b06:	1c 11       	mov.l	r1,@(4,r12)
    2b08:	51 62       	mov.l	@(8,r6),r1
    2b0a:	71 01       	add	#1,r1
    2b0c:	16 12       	mov.l	r1,@(8,r6)
    2b0e:	51 61       	mov.l	@(4,r6),r1
    2b10:	71 01       	add	#1,r1
    2b12:	16 11       	mov.l	r1,@(4,r6)
    2b14:	31 27       	cmp/gt	r2,r1
    2b16:	8b 01       	bf	2b1c <__vfprintf_r+0x1414>
    2b18:	a0 b0       	bra	2c7c <__vfprintf_r+0x1574>
    2b1a:	54 f7       	mov.l	@(28,r15),r4
    2b1c:	7c 08       	add	#8,r12
    2b1e:	2a a8       	tst	r10,r10
    2b20:	8b 0c       	bf	2b3c <__vfprintf_r+0x1434>
    2b22:	e0 58       	mov	#88,r0
    2b24:	05 fe       	mov.l	@(r0,r15),r5
    2b26:	25 58       	tst	r5,r5
    2b28:	8b 08       	bf	2b3c <__vfprintf_r+0x1434>
    2b2a:	50 f5       	mov.l	@(20,r15),r0
    2b2c:	c8 01       	tst	#1,r0
    2b2e:	8b 05       	bf	2b3c <__vfprintf_r+0x1434>
    2b30:	d0 01       	mov.l	2b38 <__vfprintf_r+0x1430>,r0	! 1ab8
    2b32:	40 2b       	jmp	@r0
    2b34:	50 f5       	mov.l	@(20,r15),r0
    2b36:	00 09       	nop	
    2b38:	00 00       	.word 0x0000
    2b3a:	1a b8       	mov.l	r11,@(32,r10)
    2b3c:	e0 54       	mov	#84,r0
    2b3e:	96 79       	mov.w	2c34 <__vfprintf_r+0x152c>,r6	! a4
    2b40:	01 fe       	mov.l	@(r0,r15),r1
    2b42:	36 fc       	add	r15,r6
    2b44:	e0 60       	mov	#96,r0
    2b46:	2c 12       	mov.l	r1,@r12
    2b48:	02 fe       	mov.l	@(r0,r15),r2
    2b4a:	51 62       	mov.l	@(8,r6),r1
    2b4c:	1c 21       	mov.l	r2,@(4,r12)
    2b4e:	31 2c       	add	r2,r1
    2b50:	16 12       	mov.l	r1,@(8,r6)
    2b52:	e2 07       	mov	#7,r2
    2b54:	51 61       	mov.l	@(4,r6),r1
    2b56:	71 01       	add	#1,r1
    2b58:	16 11       	mov.l	r1,@(4,r6)
    2b5a:	31 27       	cmp/gt	r2,r1
    2b5c:	8b 02       	bf	2b64 <__vfprintf_r+0x145c>
    2b5e:	a1 e7       	bra	2f30 <__vfprintf_r+0x1828>
    2b60:	54 f7       	mov.l	@(28,r15),r4
    2b62:	00 09       	nop	
    2b64:	62 c3       	mov	r12,r2
    2b66:	72 08       	add	#8,r2
    2b68:	6a ab       	neg	r10,r10
    2b6a:	4a 15       	cmp/pl	r10
    2b6c:	89 02       	bt	2b74 <__vfprintf_r+0x146c>
    2b6e:	a0 a8       	bra	2cc2 <__vfprintf_r+0x15ba>
    2b70:	50 ff       	mov.l	@(60,r15),r0
    2b72:	00 09       	nop	
    2b74:	e1 10       	mov	#16,r1
    2b76:	3a 17       	cmp/gt	r1,r10
    2b78:	d8 31       	mov.l	2c40 <__vfprintf_r+0x1538>,r8	! 9e88 <_zeroes.4041>
    2b7a:	89 01       	bt	2b80 <__vfprintf_r+0x1478>
    2b7c:	a0 d9       	bra	2d32 <__vfprintf_r+0x162a>
    2b7e:	00 09       	nop	
    2b80:	99 58       	mov.w	2c34 <__vfprintf_r+0x152c>,r9	! a4
    2b82:	eb 10       	mov	#16,r11
    2b84:	ed 07       	mov	#7,r13
    2b86:	39 fc       	add	r15,r9
    2b88:	61 93       	mov	r9,r1
    2b8a:	de 2b       	mov.l	2c38 <__vfprintf_r+0x1530>,r14	! 66d0 <___sprint_r>
    2b8c:	69 83       	mov	r8,r9
    2b8e:	68 a3       	mov	r10,r8
    2b90:	a0 06       	bra	2ba0 <__vfprintf_r+0x1498>
    2b92:	6a 13       	mov	r1,r10
    2b94:	72 08       	add	#8,r2
    2b96:	78 f0       	add	#-16,r8
    2b98:	38 b7       	cmp/gt	r11,r8
    2b9a:	89 01       	bt	2ba0 <__vfprintf_r+0x1498>
    2b9c:	a0 c8       	bra	2d30 <__vfprintf_r+0x1628>
    2b9e:	6a 83       	mov	r8,r10
    2ba0:	51 a2       	mov.l	@(8,r10),r1
    2ba2:	22 92       	mov.l	r9,@r2
    2ba4:	71 10       	add	#16,r1
    2ba6:	12 b1       	mov.l	r11,@(4,r2)
    2ba8:	1a 12       	mov.l	r1,@(8,r10)
    2baa:	51 a1       	mov.l	@(4,r10),r1
    2bac:	71 01       	add	#1,r1
    2bae:	1a 11       	mov.l	r1,@(4,r10)
    2bb0:	31 d7       	cmp/gt	r13,r1
    2bb2:	8b ef       	bf	2b94 <__vfprintf_r+0x148c>
    2bb4:	54 f7       	mov.l	@(28,r15),r4
    2bb6:	66 a3       	mov	r10,r6
    2bb8:	4e 0b       	jsr	@r14
    2bba:	55 f8       	mov.l	@(32,r15),r5
    2bbc:	20 08       	tst	r0,r0
    2bbe:	89 01       	bt	2bc4 <__vfprintf_r+0x14bc>
    2bc0:	a8 7b       	bra	1cba <__vfprintf_r+0x5b2>
    2bc2:	e0 44       	mov	#68,r0
    2bc4:	92 35       	mov.w	2c32 <__vfprintf_r+0x152a>,r2	! 140
    2bc6:	af e6       	bra	2b96 <__vfprintf_r+0x148e>
    2bc8:	32 fc       	add	r15,r2
    2bca:	00 09       	nop	
    2bcc:	40 11       	cmp/pz	r0
    2bce:	31 1a       	subc	r1,r1
    2bd0:	20 19       	and	r1,r0
    2bd2:	1f 09       	mov.l	r0,@(36,r15)
    2bd4:	61 80       	mov.b	@r8,r1
    2bd6:	1f ad       	mov.l	r10,@(52,r15)
    2bd8:	e2 40       	mov	#64,r2
    2bda:	e3 00       	mov	#0,r3
    2bdc:	32 fc       	add	r15,r2
    2bde:	12 32       	mov.l	r3,@(8,r2)
    2be0:	a9 04       	bra	1dec <__vfprintf_r+0x6e4>
    2be2:	12 37       	mov.l	r3,@(28,r2)
    2be4:	d0 17       	mov.l	2c44 <__vfprintf_r+0x153c>,r0	! 9e34
    2be6:	a9 3b       	bra	1e60 <__vfprintf_r+0x758>
    2be8:	1f 0f       	mov.l	r0,@(60,r15)
    2bea:	00 09       	nop	
    2bec:	e1 ff       	mov	#-1,r1
    2bee:	54 fd       	mov.l	@(52,r15),r4
    2bf0:	eb 00       	mov	#0,r11
    2bf2:	6d 32       	mov.l	@r3,r13
    2bf4:	74 04       	add	#4,r4
    2bf6:	1f 4d       	mov.l	r4,@(52,r15)
    2bf8:	2d d8       	tst	r13,r13
    2bfa:	61 1a       	negc	r1,r1
    2bfc:	63 1c       	extu.b	r1,r3
    2bfe:	a9 63       	bra	1ec8 <__vfprintf_r+0x7c0>
    2c00:	e2 00       	mov	#0,r2
    2c02:	00 09       	nop	
    2c04:	eb 00       	mov	#0,r11
    2c06:	6d 26       	mov.l	@r2+,r13
    2c08:	a9 51       	bra	1eae <__vfprintf_r+0x7a6>
    2c0a:	1f 2d       	mov.l	r2,@(52,r15)
    2c0c:	50 fc       	mov.l	@(48,r15),r0
    2c0e:	61 26       	mov.l	@r2+,r1
    2c10:	1f 2d       	mov.l	r2,@(52,r15)
    2c12:	d4 01       	mov.l	2c18 <__vfprintf_r+0x1510>,r4	! 17ce
    2c14:	44 2b       	jmp	@r4
    2c16:	21 02       	mov.l	r0,@r1
    2c18:	00 00       	.word 0x0000
    2c1a:	17 ce       	mov.l	r12,@(56,r7)
    2c1c:	e1 ff       	mov	#-1,r1
    2c1e:	54 fd       	mov.l	@(52,r15),r4
    2c20:	eb 00       	mov	#0,r11
    2c22:	6d 32       	mov.l	@r3,r13
    2c24:	74 04       	add	#4,r4
    2c26:	1f 4d       	mov.l	r4,@(52,r15)
    2c28:	2d d8       	tst	r13,r13
    2c2a:	61 1a       	negc	r1,r1
    2c2c:	63 1c       	extu.b	r1,r3
    2c2e:	a9 4b       	bra	1ec8 <__vfprintf_r+0x7c0>
    2c30:	e2 01       	mov	#1,r2
    2c32:	01 40       	.word 0x0140
    2c34:	00 a4       	mov.b	r10,@(r0,r0)
    2c36:	00 09       	nop	
    2c38:	00 00       	.word 0x0000
    2c3a:	66 d0       	mov.b	@r13,r6
    2c3c:	00 00       	.word 0x0000
    2c3e:	9e 74       	mov.w	2d2a <__vfprintf_r+0x1622>,r14	! abf0
    2c40:	00 00       	.word 0x0000
    2c42:	9e 88       	mov.w	2d56 <__vfprintf_r+0x164e>,r14	! 2008
    2c44:	00 00       	.word 0x0000
    2c46:	9e 34       	mov.w	2cb2 <__vfprintf_r+0x15aa>,r14	! 54f7
    2c48:	6d 76       	mov.l	@r7+,r13
    2c4a:	1f 7d       	mov.l	r7,@(52,r15)
    2c4c:	30 d7       	cmp/gt	r13,r0
    2c4e:	31 1a       	subc	r1,r1
    2c50:	a8 74       	bra	1d3c <__vfprintf_r+0x634>
    2c52:	6b 13       	mov	r1,r11
    2c54:	39 17       	cmp/gt	r1,r9
    2c56:	8b 01       	bf	2c5c <__vfprintf_r+0x1554>
    2c58:	a0 ec       	bra	2e34 <__vfprintf_r+0x172c>
    2c5a:	00 09       	nop	
    2c5c:	d0 45       	mov.l	2d74 <__vfprintf_r+0x166c>,r0	! 9e3c
    2c5e:	1f 0f       	mov.l	r0,@(60,r15)
    2c60:	91 82       	mov.w	2d68 <__vfprintf_r+0x1660>,r1	! ff7f
    2c62:	e3 03       	mov	#3,r3
    2c64:	50 f5       	mov.l	@(20,r15),r0
    2c66:	92 80       	mov.w	2d6a <__vfprintf_r+0x1662>,r2	! 540
    2c68:	20 19       	and	r1,r0
    2c6a:	1f 05       	mov.l	r0,@(20,r15)
    2c6c:	32 fc       	add	r15,r2
    2c6e:	90 7d       	mov.w	2d6c <__vfprintf_r+0x1664>,r0	! fb43
    2c70:	1f 39       	mov.l	r3,@(36,r15)
    2c72:	01 2c       	mov.b	@(r0,r2),r1
    2c74:	e0 03       	mov	#3,r0
    2c76:	af af       	bra	2bd8 <__vfprintf_r+0x14d0>
    2c78:	1f 0b       	mov.l	r0,@(44,r15)
    2c7a:	00 09       	nop	
    2c7c:	d0 3e       	mov.l	2d78 <__vfprintf_r+0x1670>,r0	! 66d0 <___sprint_r>
    2c7e:	40 0b       	jsr	@r0
    2c80:	55 f8       	mov.l	@(32,r15),r5
    2c82:	20 08       	tst	r0,r0
    2c84:	8b 4b       	bf	2d1e <__vfprintf_r+0x1616>
    2c86:	9c 72       	mov.w	2d6e <__vfprintf_r+0x1666>,r12	! 140
    2c88:	5a 82       	mov.l	@(8,r8),r10
    2c8a:	af 48       	bra	2b1e <__vfprintf_r+0x1416>
    2c8c:	3c fc       	add	r15,r12
    2c8e:	00 09       	nop	
    2c90:	73 01       	add	#1,r3
    2c92:	69 30       	mov.b	@r3,r9
    2c94:	cb 20       	or	#32,r0
    2c96:	d4 01       	mov.l	2c9c <__vfprintf_r+0x1594>,r4	! 1878
    2c98:	44 2b       	jmp	@r4
    2c9a:	1f 05       	mov.l	r0,@(20,r15)
    2c9c:	00 00       	.word 0x0000
    2c9e:	18 78       	mov.l	r7,@(32,r8)
    2ca0:	d0 35       	mov.l	2d78 <__vfprintf_r+0x1670>,r0	! 66d0 <___sprint_r>
    2ca2:	40 0b       	jsr	@r0
    2ca4:	55 f8       	mov.l	@(32,r15),r5
    2ca6:	20 08       	tst	r0,r0
    2ca8:	8b 39       	bf	2d1e <__vfprintf_r+0x1616>
    2caa:	9c 60       	mov.w	2d6e <__vfprintf_r+0x1666>,r12	! 140
    2cac:	aa 77       	bra	219e <__vfprintf_r+0xa96>
    2cae:	3c fc       	add	r15,r12
    2cb0:	d0 31       	mov.l	2d78 <__vfprintf_r+0x1670>,r0	! 66d0 <___sprint_r>
    2cb2:	54 f7       	mov.l	@(28,r15),r4
    2cb4:	40 0b       	jsr	@r0
    2cb6:	55 f8       	mov.l	@(32,r15),r5
    2cb8:	20 08       	tst	r0,r0
    2cba:	8b 30       	bf	2d1e <__vfprintf_r+0x1616>
    2cbc:	92 57       	mov.w	2d6e <__vfprintf_r+0x1666>,r2	! 140
    2cbe:	32 fc       	add	r15,r2
    2cc0:	50 ff       	mov.l	@(60,r15),r0
    2cc2:	96 55       	mov.w	2d70 <__vfprintf_r+0x1668>,r6	! a4
    2cc4:	22 02       	mov.l	r0,@r2
    2cc6:	e0 58       	mov	#88,r0
    2cc8:	01 fe       	mov.l	@(r0,r15),r1
    2cca:	36 fc       	add	r15,r6
    2ccc:	03 fe       	mov.l	@(r0,r15),r3
    2cce:	12 11       	mov.l	r1,@(4,r2)
    2cd0:	51 62       	mov.l	@(8,r6),r1
    2cd2:	31 3c       	add	r3,r1
    2cd4:	16 12       	mov.l	r1,@(8,r6)
    2cd6:	e3 07       	mov	#7,r3
    2cd8:	51 61       	mov.l	@(4,r6),r1
    2cda:	71 01       	add	#1,r1
    2cdc:	16 11       	mov.l	r1,@(4,r6)
    2cde:	31 37       	cmp/gt	r3,r1
    2ce0:	8b 02       	bf	2ce8 <__vfprintf_r+0x15e0>
    2ce2:	ab ab       	bra	243c <__vfprintf_r+0xd34>
    2ce4:	00 09       	nop	
    2ce6:	00 09       	nop	
    2ce8:	6c 23       	mov	r2,r12
    2cea:	d0 01       	mov.l	2cf0 <__vfprintf_r+0x15e8>,r0	! 1ab6
    2cec:	40 2b       	jmp	@r0
    2cee:	7c 08       	add	#8,r12
    2cf0:	00 00       	.word 0x0000
    2cf2:	1a b6       	mov.l	r11,@(24,r10)
    2cf4:	d5 21       	mov.l	2d7c <__vfprintf_r+0x1674>,r5	! 66b0 <_strlen>
    2cf6:	45 0b       	jsr	@r5
    2cf8:	00 09       	nop	
    2cfa:	40 11       	cmp/pz	r0
    2cfc:	31 1a       	subc	r1,r1
    2cfe:	1f 0b       	mov.l	r0,@(44,r15)
    2d00:	e7 40       	mov	#64,r7
    2d02:	20 19       	and	r1,r0
    2d04:	37 fc       	add	r15,r7
    2d06:	1f 09       	mov.l	r0,@(36,r15)
    2d08:	e0 00       	mov	#0,r0
    2d0a:	61 80       	mov.b	@r8,r1
    2d0c:	1f ad       	mov.l	r10,@(52,r15)
    2d0e:	17 02       	mov.l	r0,@(8,r7)
    2d10:	a8 6c       	bra	1dec <__vfprintf_r+0x6e4>
    2d12:	17 07       	mov.l	r0,@(28,r7)
    2d14:	d0 18       	mov.l	2d78 <__vfprintf_r+0x1670>,r0	! 66d0 <___sprint_r>
    2d16:	40 0b       	jsr	@r0
    2d18:	55 f8       	mov.l	@(32,r15),r5
    2d1a:	20 08       	tst	r0,r0
    2d1c:	89 04       	bt	2d28 <__vfprintf_r+0x1620>
    2d1e:	d0 01       	mov.l	2d24 <__vfprintf_r+0x161c>,r0	! 1cba
    2d20:	40 2b       	jmp	@r0
    2d22:	e0 44       	mov	#68,r0
    2d24:	00 00       	.word 0x0000
    2d26:	1c ba       	mov.l	r11,@(40,r12)
    2d28:	9c 21       	mov.w	2d6e <__vfprintf_r+0x1666>,r12	! 140
    2d2a:	ab f0       	bra	250e <__vfprintf_r+0xe06>
    2d2c:	3c fc       	add	r15,r12
    2d2e:	00 09       	nop	
    2d30:	68 93       	mov	r9,r8
    2d32:	96 1d       	mov.w	2d70 <__vfprintf_r+0x1668>,r6	! a4
    2d34:	e3 07       	mov	#7,r3
    2d36:	22 82       	mov.l	r8,@r2
    2d38:	36 fc       	add	r15,r6
    2d3a:	51 62       	mov.l	@(8,r6),r1
    2d3c:	12 a1       	mov.l	r10,@(4,r2)
    2d3e:	31 ac       	add	r10,r1
    2d40:	16 12       	mov.l	r1,@(8,r6)
    2d42:	51 61       	mov.l	@(4,r6),r1
    2d44:	71 01       	add	#1,r1
    2d46:	16 11       	mov.l	r1,@(4,r6)
    2d48:	31 37       	cmp/gt	r3,r1
    2d4a:	89 b1       	bt	2cb0 <__vfprintf_r+0x15a8>
    2d4c:	af b8       	bra	2cc0 <__vfprintf_r+0x15b8>
    2d4e:	72 08       	add	#8,r2
    2d50:	d0 09       	mov.l	2d78 <__vfprintf_r+0x1670>,r0	! 66d0 <___sprint_r>
    2d52:	40 0b       	jsr	@r0
    2d54:	55 f8       	mov.l	@(32,r15),r5
    2d56:	20 08       	tst	r0,r0
    2d58:	8b 17       	bf	2d8a <__vfprintf_r+0x1682>
    2d5a:	95 06       	mov.w	2d6a <__vfprintf_r+0x1662>,r5	! 540
    2d5c:	90 09       	mov.w	2d72 <__vfprintf_r+0x166a>,r0	! fb48
    2d5e:	35 fc       	add	r15,r5
    2d60:	9c 05       	mov.w	2d6e <__vfprintf_r+0x1666>,r12	! 140
    2d62:	02 5e       	mov.l	@(r0,r5),r2
    2d64:	ad 1b       	bra	279e <__vfprintf_r+0x1096>
    2d66:	3c fc       	add	r15,r12
    2d68:	ff 7f       	.word 0xff7f
    2d6a:	05 40       	.word 0x0540
    2d6c:	fb 43       	.word 0xfb43
    2d6e:	01 40       	.word 0x0140
    2d70:	00 a4       	mov.b	r10,@(r0,r0)
    2d72:	fb 48       	.word 0xfb48
    2d74:	00 00       	.word 0x0000
    2d76:	9e 3c       	mov.w	2df2 <__vfprintf_r+0x16ea>,r14	! 53f4
    2d78:	00 00       	.word 0x0000
    2d7a:	66 d0       	mov.b	@r13,r6
    2d7c:	00 00       	.word 0x0000
    2d7e:	66 b0       	mov.b	@r11,r6
    2d80:	d0 3d       	mov.l	2e78 <__vfprintf_r+0x1770>,r0	! 66d0 <___sprint_r>
    2d82:	40 0b       	jsr	@r0
    2d84:	55 f8       	mov.l	@(32,r15),r5
    2d86:	20 08       	tst	r0,r0
    2d88:	89 04       	bt	2d94 <__vfprintf_r+0x168c>
    2d8a:	d0 01       	mov.l	2d90 <__vfprintf_r+0x1688>,r0	! 1cba
    2d8c:	40 2b       	jmp	@r0
    2d8e:	e0 44       	mov	#68,r0
    2d90:	00 00       	.word 0x0000
    2d92:	1c ba       	mov.l	r11,@(40,r12)
    2d94:	92 68       	mov.w	2e68 <__vfprintf_r+0x1760>,r2	! 540
    2d96:	90 68       	mov.w	2e6a <__vfprintf_r+0x1762>,r0	! fb48
    2d98:	32 fc       	add	r15,r2
    2d9a:	9c 67       	mov.w	2e6c <__vfprintf_r+0x1764>,r12	! 140
    2d9c:	01 2e       	mov.l	@(r0,r2),r1
    2d9e:	e0 58       	mov	#88,r0
    2da0:	0d fe       	mov.l	@(r0,r15),r13
    2da2:	3c fc       	add	r15,r12
    2da4:	ad 17       	bra	27d6 <__vfprintf_r+0x10ce>
    2da6:	3d 18       	sub	r1,r13
    2da8:	1f eb       	mov.l	r14,@(44,r15)
    2daa:	3e 16       	cmp/hi	r1,r14
    2dac:	8b 01       	bf	2db2 <__vfprintf_r+0x16aa>
    2dae:	e0 06       	mov	#6,r0
    2db0:	1f 0b       	mov.l	r0,@(44,r15)
    2db2:	50 fb       	mov.l	@(44,r15),r0
    2db4:	1f ad       	mov.l	r10,@(52,r15)
    2db6:	40 11       	cmp/pz	r0
    2db8:	31 1a       	subc	r1,r1
    2dba:	20 19       	and	r1,r0
    2dbc:	1f 09       	mov.l	r0,@(36,r15)
    2dbe:	d0 2f       	mov.l	2e7c <__vfprintf_r+0x1774>,r0	! 9e6c
    2dc0:	d3 01       	mov.l	2dc8 <__vfprintf_r+0x16c0>,r3	! 18b0
    2dc2:	43 2b       	jmp	@r3
    2dc4:	1f 0f       	mov.l	r0,@(60,r15)
    2dc6:	00 09       	nop	
    2dc8:	00 00       	.word 0x0000
    2dca:	18 b0       	mov.l	r11,@(0,r8)
    2dcc:	92 4f       	mov.w	2e6e <__vfprintf_r+0x1766>,r2	! 88
    2dce:	65 b3       	mov	r11,r5
    2dd0:	d0 2b       	mov.l	2e80 <__vfprintf_r+0x1778>,r0	! 34cc <__dtoa_r>
    2dd2:	32 fc       	add	r15,r2
    2dd4:	1f 21       	mov.l	r2,@(4,r15)
    2dd6:	66 83       	mov	r8,r6
    2dd8:	92 4a       	mov.w	2e70 <__vfprintf_r+0x1768>,r2	! 8c
    2dda:	1f 34       	mov.l	r3,@(16,r15)
    2ddc:	32 fc       	add	r15,r2
    2dde:	1f 22       	mov.l	r2,@(8,r15)
    2de0:	92 47       	mov.w	2e72 <__vfprintf_r+0x176a>,r2	! 90
    2de2:	2f e2       	mov.l	r14,@r15
    2de4:	32 fc       	add	r15,r2
    2de6:	1f 23       	mov.l	r2,@(12,r15)
    2de8:	40 0b       	jsr	@r0
    2dea:	54 f7       	mov.l	@(28,r15),r4
    2dec:	1f 0f       	mov.l	r0,@(60,r15)
    2dee:	60 a3       	mov	r10,r0
    2df0:	88 47       	cmp/eq	#71,r0
    2df2:	53 f4       	mov.l	@(16,r15),r3
    2df4:	8b 02       	bf	2dfc <__vfprintf_r+0x16f4>
    2df6:	50 f5       	mov.l	@(20,r15),r0
    2df8:	c8 01       	tst	#1,r0
    2dfa:	89 45       	bt	2e88 <__vfprintf_r+0x1780>
    2dfc:	5d ff       	mov.l	@(60,r15),r13
    2dfe:	23 38       	tst	r3,r3
    2e00:	3d ec       	add	r14,r13
    2e02:	89 0a       	bt	2e1a <__vfprintf_r+0x1712>
    2e04:	53 ff       	mov.l	@(60,r15),r3
    2e06:	60 30       	mov.b	@r3,r0
    2e08:	88 30       	cmp/eq	#48,r0
    2e0a:	8b 01       	bf	2e10 <__vfprintf_r+0x1708>
    2e0c:	a0 fe       	bra	300c <__vfprintf_r+0x1904>
    2e0e:	64 b3       	mov	r11,r4
    2e10:	94 2a       	mov.w	2e68 <__vfprintf_r+0x1760>,r4	! 540
    2e12:	90 2a       	mov.w	2e6a <__vfprintf_r+0x1762>,r0	! fb48
    2e14:	34 fc       	add	r15,r4
    2e16:	03 4e       	mov.l	@(r0,r4),r3
    2e18:	3d 3c       	add	r3,r13
    2e1a:	ad a5       	bra	2968 <__vfprintf_r+0x1260>
    2e1c:	00 09       	nop	
    2e1e:	00 09       	nop	
    2e20:	93 22       	mov.w	2e68 <__vfprintf_r+0x1760>,r3	! 540
    2e22:	90 27       	mov.w	2e74 <__vfprintf_r+0x176c>,r0	! fb43
    2e24:	33 fc       	add	r15,r3
    2e26:	03 14       	mov.b	r1,@(r0,r3)
    2e28:	d2 01       	mov.l	2e30 <__vfprintf_r+0x1728>,r2	! 1e50
    2e2a:	42 2b       	jmp	@r2
    2e2c:	e1 2d       	mov	#45,r1
    2e2e:	00 09       	nop	
    2e30:	00 00       	.word 0x0000
    2e32:	1e 50       	mov.l	r5,@(0,r14)
    2e34:	d0 13       	mov.l	2e84 <__vfprintf_r+0x177c>,r0	! 9e40
    2e36:	af 13       	bra	2c60 <__vfprintf_r+0x1558>
    2e38:	1f 0f       	mov.l	r0,@(60,r15)
    2e3a:	00 09       	nop	
    2e3c:	92 14       	mov.w	2e68 <__vfprintf_r+0x1760>,r2	! 540
    2e3e:	90 19       	mov.w	2e74 <__vfprintf_r+0x176c>,r0	! fb43
    2e40:	32 fc       	add	r15,r2
    2e42:	53 fa       	mov.l	@(40,r15),r3
    2e44:	01 2c       	mov.b	@(r0,r2),r1
    2e46:	e0 48       	mov	#72,r0
    2e48:	1f 35       	mov.l	r3,@(20,r15)
    2e4a:	0f 56       	mov.l	r5,@(r0,r15)
    2e4c:	2f d6       	mov.l	r13,@-r15
    2e4e:	dd 01       	mov.l	2e54 <__vfprintf_r+0x174c>,r13	! 1dec
    2e50:	4d 2b       	jmp	@r13
    2e52:	6d f6       	mov.l	@r15+,r13
    2e54:	00 00       	.word 0x0000
    2e56:	1d ec       	mov.l	r14,@(48,r13)
    2e58:	50 fc       	mov.l	@(48,r15),r0
    2e5a:	61 46       	mov.l	@r4+,r1
    2e5c:	1f 4d       	mov.l	r4,@(52,r15)
    2e5e:	d4 01       	mov.l	2e64 <__vfprintf_r+0x175c>,r4	! 17ce
    2e60:	44 2b       	jmp	@r4
    2e62:	21 02       	mov.l	r0,@r1
    2e64:	00 00       	.word 0x0000
    2e66:	17 ce       	mov.l	r12,@(56,r7)
    2e68:	05 40       	.word 0x0540
    2e6a:	fb 48       	.word 0xfb48
    2e6c:	01 40       	.word 0x0140
    2e6e:	00 88       	.word 0x0088
    2e70:	00 8c       	mov.b	@(r0,r8),r0
    2e72:	00 90       	.word 0x0090
    2e74:	fb 43       	.word 0xfb43
    2e76:	00 09       	nop	
    2e78:	00 00       	.word 0x0000
    2e7a:	66 d0       	mov.b	@r13,r6
    2e7c:	00 00       	.word 0x0000
    2e7e:	9e 6c       	mov.w	2f5a <__vfprintf_r+0x1852>,r14	! 2b2a
    2e80:	00 00       	.word 0x0000
    2e82:	34 cc       	add	r12,r4
    2e84:	00 00       	.word 0x0000
    2e86:	9e 40       	mov.w	2f0a <__vfprintf_r+0x1802>,r14	! 8901
    2e88:	91 83       	mov.w	2f92 <__vfprintf_r+0x188a>,r1	! 540
    2e8a:	90 83       	mov.w	2f94 <__vfprintf_r+0x188c>,r0	! fb50
    2e8c:	31 fc       	add	r15,r1
    2e8e:	52 ff       	mov.l	@(60,r15),r2
    2e90:	00 1e       	mov.l	@(r0,r1),r0
    2e92:	e1 40       	mov	#64,r1
    2e94:	31 fc       	add	r15,r1
    2e96:	30 28       	sub	r2,r0
    2e98:	11 06       	mov.l	r0,@(24,r1)
    2e9a:	92 7a       	mov.w	2f92 <__vfprintf_r+0x188a>,r2	! 540
    2e9c:	90 7b       	mov.w	2f96 <__vfprintf_r+0x188e>,r0	! fb48
    2e9e:	32 fc       	add	r15,r2
    2ea0:	01 2e       	mov.l	@(r0,r2),r1
    2ea2:	e2 fd       	mov	#-3,r2
    2ea4:	31 23       	cmp/ge	r2,r1
    2ea6:	8b 03       	bf	2eb0 <__vfprintf_r+0x17a8>
    2ea8:	3e 13       	cmp/ge	r1,r14
    2eaa:	8b 01       	bf	2eb0 <__vfprintf_r+0x17a8>
    2eac:	ad 8c       	bra	29c8 <__vfprintf_r+0x12c0>
    2eae:	e0 58       	mov	#88,r0
    2eb0:	79 fe       	add	#-2,r9
    2eb2:	91 71       	mov.w	2f98 <__vfprintf_r+0x1890>,r1	! 80
    2eb4:	31 fc       	add	r15,r1
    2eb6:	57 12       	mov.l	@(8,r1),r7
    2eb8:	62 13       	mov	r1,r2
    2eba:	72 14       	add	#20,r2
    2ebc:	77 ff       	add	#-1,r7
    2ebe:	11 72       	mov.l	r7,@(8,r1)
    2ec0:	47 11       	cmp/pz	r7
    2ec2:	22 90       	mov.b	r9,@r2
    2ec4:	89 02       	bt	2ecc <__vfprintf_r+0x17c4>
    2ec6:	a0 e1       	bra	308c <__vfprintf_r+0x1984>
    2ec8:	71 15       	add	#21,r1
    2eca:	00 09       	nop	
    2ecc:	71 15       	add	#21,r1
    2ece:	e2 2b       	mov	#43,r2
    2ed0:	21 20       	mov.b	r2,@r1
    2ed2:	e1 09       	mov	#9,r1
    2ed4:	37 17       	cmp/gt	r1,r7
    2ed6:	89 67       	bt	2fa8 <__vfprintf_r+0x18a0>
    2ed8:	91 5e       	mov.w	2f98 <__vfprintf_r+0x1890>,r1	! 80
    2eda:	77 30       	add	#48,r7
    2edc:	e3 30       	mov	#48,r3
    2ede:	31 fc       	add	r15,r1
    2ee0:	62 13       	mov	r1,r2
    2ee2:	71 17       	add	#23,r1
    2ee4:	21 70       	mov.b	r7,@r1
    2ee6:	72 16       	add	#22,r2
    2ee8:	97 53       	mov.w	2f92 <__vfprintf_r+0x188a>,r7	! 540
    2eea:	91 56       	mov.w	2f9a <__vfprintf_r+0x1892>,r1	! fb58
    2eec:	37 fc       	add	r15,r7
    2eee:	22 30       	mov.b	r3,@r2
    2ef0:	31 7c       	add	r7,r1
    2ef2:	92 53       	mov.w	2f9c <__vfprintf_r+0x1894>,r2	! 94
    2ef4:	e3 40       	mov	#64,r3
    2ef6:	33 fc       	add	r15,r3
    2ef8:	32 fc       	add	r15,r2
    2efa:	50 36       	mov.l	@(24,r3),r0
    2efc:	31 28       	sub	r2,r1
    2efe:	52 36       	mov.l	@(24,r3),r2
    2f00:	30 1c       	add	r1,r0
    2f02:	13 1c       	mov.l	r1,@(48,r3)
    2f04:	e1 01       	mov	#1,r1
    2f06:	1f 0b       	mov.l	r0,@(44,r15)
    2f08:	32 17       	cmp/gt	r1,r2
    2f0a:	89 01       	bt	2f10 <__vfprintf_r+0x1808>
    2f0c:	a0 98       	bra	3040 <__vfprintf_r+0x1938>
    2f0e:	50 f5       	mov.l	@(20,r15),r0
    2f10:	50 fb       	mov.l	@(44,r15),r0
    2f12:	e2 00       	mov	#0,r2
    2f14:	70 01       	add	#1,r0
    2f16:	40 11       	cmp/pz	r0
    2f18:	31 1a       	subc	r1,r1
    2f1a:	1f 0b       	mov.l	r0,@(44,r15)
    2f1c:	20 19       	and	r1,r0
    2f1e:	1f 09       	mov.l	r0,@(36,r15)
    2f20:	e0 5c       	mov	#92,r0
    2f22:	ad 65       	bra	29f0 <__vfprintf_r+0x12e8>
    2f24:	0f 26       	mov.l	r2,@(r0,r15)
    2f26:	00 09       	nop	
    2f28:	61 80       	mov.b	@r8,r1
    2f2a:	ae 54       	bra	2bd6 <__vfprintf_r+0x14ce>
    2f2c:	1f eb       	mov.l	r14,@(44,r15)
    2f2e:	00 09       	nop	
    2f30:	d0 1b       	mov.l	2fa0 <__vfprintf_r+0x1898>,r0	! 66d0 <___sprint_r>
    2f32:	40 0b       	jsr	@r0
    2f34:	55 f8       	mov.l	@(32,r15),r5
    2f36:	20 08       	tst	r0,r0
    2f38:	89 04       	bt	2f44 <__vfprintf_r+0x183c>
    2f3a:	d0 01       	mov.l	2f40 <__vfprintf_r+0x1838>,r0	! 1cba
    2f3c:	40 2b       	jmp	@r0
    2f3e:	e0 44       	mov	#68,r0
    2f40:	00 00       	.word 0x0000
    2f42:	1c ba       	mov.l	r11,@(40,r12)
    2f44:	94 25       	mov.w	2f92 <__vfprintf_r+0x188a>,r4	! 540
    2f46:	90 26       	mov.w	2f96 <__vfprintf_r+0x188e>,r0	! fb48
    2f48:	34 fc       	add	r15,r4
    2f4a:	92 28       	mov.w	2f9e <__vfprintf_r+0x1896>,r2	! 140
    2f4c:	0a 4e       	mov.l	@(r0,r4),r10
    2f4e:	ae 0b       	bra	2b68 <__vfprintf_r+0x1460>
    2f50:	32 fc       	add	r15,r2
    2f52:	00 09       	nop	
    2f54:	d2 13       	mov.l	2fa4 <__vfprintf_r+0x189c>,r2	! 80000000
    2f56:	0f 56       	mov.l	r5,@(r0,r15)
    2f58:	ac e8       	bra	292c <__vfprintf_r+0x1224>
    2f5a:	2b 2a       	xor	r2,r11
    2f5c:	e2 01       	mov	#1,r2
    2f5e:	89 01       	bt	2f64 <__vfprintf_r+0x185c>
    2f60:	a0 b0       	bra	30c4 <__vfprintf_r+0x19bc>
    2f62:	62 1b       	neg	r1,r2
    2f64:	e0 58       	mov	#88,r0
    2f66:	00 fe       	mov.l	@(r0,r15),r0
    2f68:	30 2c       	add	r2,r0
    2f6a:	40 11       	cmp/pz	r0
    2f6c:	32 2a       	subc	r2,r2
    2f6e:	1f 0b       	mov.l	r0,@(44,r15)
    2f70:	20 29       	and	r2,r0
    2f72:	1f 09       	mov.l	r0,@(36,r15)
    2f74:	ad 3a       	bra	29ec <__vfprintf_r+0x12e4>
    2f76:	e9 67       	mov	#103,r9
    2f78:	93 0b       	mov.w	2f92 <__vfprintf_r+0x188a>,r3	! 540
    2f7a:	33 fc       	add	r15,r3
    2f7c:	01 3e       	mov.l	@(r0,r3),r1
    2f7e:	41 15       	cmp/pl	r1
    2f80:	8b 6a       	bf	3058 <__vfprintf_r+0x1950>
    2f82:	2e e8       	tst	r14,r14
    2f84:	8b 50       	bf	3028 <__vfprintf_r+0x1920>
    2f86:	50 f5       	mov.l	@(20,r15),r0
    2f88:	c8 01       	tst	#1,r0
    2f8a:	8b 4d       	bf	3028 <__vfprintf_r+0x1920>
    2f8c:	1f 19       	mov.l	r1,@(36,r15)
    2f8e:	ad 2d       	bra	29ec <__vfprintf_r+0x12e4>
    2f90:	1f 1b       	mov.l	r1,@(44,r15)
    2f92:	05 40       	.word 0x0540
    2f94:	fb 50       	.word 0xfb50
    2f96:	fb 48       	.word 0xfb48
    2f98:	00 80       	.word 0x0080
    2f9a:	fb 58       	.word 0xfb58
    2f9c:	00 94       	mov.b	r9,@(r0,r0)
    2f9e:	01 40       	.word 0x0140
    2fa0:	00 00       	.word 0x0000
    2fa2:	66 d0       	mov.b	@r13,r6
    2fa4:	80 00       	mov.b	r0,@(0,r0)
    2fa6:	00 00       	.word 0x0000
    2fa8:	93 96       	mov.w	30d8 <__vfprintf_r+0x19d0>,r3	! 540
    2faa:	ea 09       	mov	#9,r10
    2fac:	96 95       	mov.w	30da <__vfprintf_r+0x19d2>,r6	! fb63
    2fae:	33 fc       	add	r15,r3
    2fb0:	d8 4c       	mov.l	30e4 <__vfprintf_r+0x19dc>,r8	! 864e <___sdivsi3>
    2fb2:	36 3c       	add	r3,r6
    2fb4:	64 73       	mov	r7,r4
    2fb6:	48 0b       	jsr	@r8
    2fb8:	e5 0a       	mov	#10,r5
    2fba:	61 03       	mov	r0,r1
    2fbc:	41 08       	shll2	r1
    2fbe:	31 0c       	add	r0,r1
    2fc0:	31 1c       	add	r1,r1
    2fc2:	37 18       	sub	r1,r7
    2fc4:	77 30       	add	#48,r7
    2fc6:	26 74       	mov.b	r7,@-r6
    2fc8:	30 a7       	cmp/gt	r10,r0
    2fca:	67 03       	mov	r0,r7
    2fcc:	89 f2       	bt	2fb4 <__vfprintf_r+0x18ac>
    2fce:	63 03       	mov	r0,r3
    2fd0:	94 82       	mov.w	30d8 <__vfprintf_r+0x19d0>,r4	! 540
    2fd2:	73 30       	add	#48,r3
    2fd4:	97 81       	mov.w	30da <__vfprintf_r+0x19d2>,r7	! fb63
    2fd6:	61 63       	mov	r6,r1
    2fd8:	63 3e       	exts.b	r3,r3
    2fda:	21 34       	mov.b	r3,@-r1
    2fdc:	34 fc       	add	r15,r4
    2fde:	37 4c       	add	r4,r7
    2fe0:	37 16       	cmp/hi	r1,r7
    2fe2:	89 01       	bt	2fe8 <__vfprintf_r+0x18e0>
    2fe4:	a0 70       	bra	30c8 <__vfprintf_r+0x19c0>
    2fe6:	00 09       	nop	
    2fe8:	91 78       	mov.w	30dc <__vfprintf_r+0x19d4>,r1	! fb56
    2fea:	62 63       	mov	r6,r2
    2fec:	a0 01       	bra	2ff2 <__vfprintf_r+0x18ea>
    2fee:	31 4c       	add	r4,r1
    2ff0:	63 24       	mov.b	@r2+,r3
    2ff2:	21 30       	mov.b	r3,@r1
    2ff4:	32 70       	cmp/eq	r7,r2
    2ff6:	71 01       	add	#1,r1
    2ff8:	8b fa       	bf	2ff0 <__vfprintf_r+0x18e8>
    2ffa:	95 6d       	mov.w	30d8 <__vfprintf_r+0x19d0>,r5	! 540
    2ffc:	92 6f       	mov.w	30de <__vfprintf_r+0x19d6>,r2	! fb64
    2ffe:	35 fc       	add	r15,r5
    3000:	91 6c       	mov.w	30dc <__vfprintf_r+0x19d4>,r1	! fb56
    3002:	32 5c       	add	r5,r2
    3004:	32 68       	sub	r6,r2
    3006:	31 5c       	add	r5,r1
    3008:	af 73       	bra	2ef2 <__vfprintf_r+0x17ea>
    300a:	31 2c       	add	r2,r1
    300c:	d0 36       	mov.l	30e8 <__vfprintf_r+0x19e0>,r0	! 955c <___nedf2>
    300e:	65 83       	mov	r8,r5
    3010:	e6 00       	mov	#0,r6
    3012:	40 0b       	jsr	@r0
    3014:	e7 00       	mov	#0,r7
    3016:	20 08       	tst	r0,r0
    3018:	8b 28       	bf	306c <__vfprintf_r+0x1964>
    301a:	95 5d       	mov.w	30d8 <__vfprintf_r+0x19d0>,r5	! 540
    301c:	90 60       	mov.w	30e0 <__vfprintf_r+0x19d8>,r0	! fb48
    301e:	35 fc       	add	r15,r5
    3020:	03 5e       	mov.l	@(r0,r5),r3
    3022:	ac a1       	bra	2968 <__vfprintf_r+0x1260>
    3024:	3d 3c       	add	r3,r13
    3026:	00 09       	nop	
    3028:	7e 01       	add	#1,r14
    302a:	60 e3       	mov	r14,r0
    302c:	30 1c       	add	r1,r0
    302e:	40 11       	cmp/pz	r0
    3030:	32 2a       	subc	r2,r2
    3032:	1f 0b       	mov.l	r0,@(44,r15)
    3034:	20 29       	and	r2,r0
    3036:	ac d9       	bra	29ec <__vfprintf_r+0x12e4>
    3038:	1f 09       	mov.l	r0,@(36,r15)
    303a:	00 09       	nop	
    303c:	af 95       	bra	2f6a <__vfprintf_r+0x1862>
    303e:	70 01       	add	#1,r0
    3040:	c8 01       	tst	#1,r0
    3042:	89 01       	bt	3048 <__vfprintf_r+0x1940>
    3044:	af 65       	bra	2f12 <__vfprintf_r+0x180a>
    3046:	50 fb       	mov.l	@(44,r15),r0
    3048:	50 fb       	mov.l	@(44,r15),r0
    304a:	40 11       	cmp/pz	r0
    304c:	31 1a       	subc	r1,r1
    304e:	20 19       	and	r1,r0
    3050:	e1 00       	mov	#0,r1
    3052:	1f 09       	mov.l	r0,@(36,r15)
    3054:	ac cc       	bra	29f0 <__vfprintf_r+0x12e8>
    3056:	13 17       	mov.l	r1,@(28,r3)
    3058:	2e e8       	tst	r14,r14
    305a:	8b 0f       	bf	307c <__vfprintf_r+0x1974>
    305c:	50 f5       	mov.l	@(20,r15),r0
    305e:	c8 01       	tst	#1,r0
    3060:	8b 0c       	bf	307c <__vfprintf_r+0x1974>
    3062:	e2 01       	mov	#1,r2
    3064:	e0 01       	mov	#1,r0
    3066:	1f 29       	mov.l	r2,@(36,r15)
    3068:	ac c0       	bra	29ec <__vfprintf_r+0x12e4>
    306a:	1f 0b       	mov.l	r0,@(44,r15)
    306c:	97 34       	mov.w	30d8 <__vfprintf_r+0x19d0>,r7	! 540
    306e:	63 eb       	neg	r14,r3
    3070:	90 36       	mov.w	30e0 <__vfprintf_r+0x19d8>,r0	! fb48
    3072:	73 01       	add	#1,r3
    3074:	37 fc       	add	r15,r7
    3076:	07 36       	mov.l	r3,@(r0,r7)
    3078:	ac 76       	bra	2968 <__vfprintf_r+0x1260>
    307a:	3d 3c       	add	r3,r13
    307c:	7e 02       	add	#2,r14
    307e:	4e 11       	cmp/pz	r14
    3080:	32 2a       	subc	r2,r2
    3082:	63 e3       	mov	r14,r3
    3084:	23 29       	and	r2,r3
    3086:	1f eb       	mov.l	r14,@(44,r15)
    3088:	ac b0       	bra	29ec <__vfprintf_r+0x12e4>
    308a:	1f 39       	mov.l	r3,@(36,r15)
    308c:	e2 2d       	mov	#45,r2
    308e:	67 7b       	neg	r7,r7
    3090:	af 1f       	bra	2ed2 <__vfprintf_r+0x17ca>
    3092:	21 20       	mov.b	r2,@r1
    3094:	54 fd       	mov.l	@(52,r15),r4
    3096:	6e 02       	mov.l	@r0,r14
    3098:	74 04       	add	#4,r4
    309a:	4e 11       	cmp/pz	r14
    309c:	8b 04       	bf	30a8 <__vfprintf_r+0x19a0>
    309e:	d9 01       	mov.l	30a4 <__vfprintf_r+0x199c>,r9	! 1f8c
    30a0:	49 2b       	jmp	@r9
    30a2:	69 30       	mov.b	@r3,r9
    30a4:	00 00       	.word 0x0000
    30a6:	1f 8c       	mov.l	r8,@(48,r15)
    30a8:	69 30       	mov.b	@r3,r9
    30aa:	1f 4d       	mov.l	r4,@(52,r15)
    30ac:	d4 01       	mov.l	30b4 <__vfprintf_r+0x19ac>,r4	! 1878
    30ae:	44 2b       	jmp	@r4
    30b0:	ee ff       	mov	#-1,r14
    30b2:	00 09       	nop	
    30b4:	00 00       	.word 0x0000
    30b6:	18 78       	mov.l	r7,@(32,r8)
    30b8:	d1 01       	mov.l	30c0 <__vfprintf_r+0x19b8>,r1	! 1c8c
    30ba:	41 2b       	jmp	@r1
    30bc:	1f 0c       	mov.l	r0,@(48,r15)
    30be:	00 09       	nop	
    30c0:	00 00       	.word 0x0000
    30c2:	1c 8c       	mov.l	r8,@(48,r12)
    30c4:	af 4e       	bra	2f64 <__vfprintf_r+0x185c>
    30c6:	72 02       	add	#2,r2
    30c8:	90 06       	mov.w	30d8 <__vfprintf_r+0x19d0>,r0	! 540
    30ca:	91 07       	mov.w	30dc <__vfprintf_r+0x19d4>,r1	! fb56
    30cc:	30 fc       	add	r15,r0
    30ce:	af 10       	bra	2ef2 <__vfprintf_r+0x17ea>
    30d0:	31 0c       	add	r0,r1
    30d2:	00 09       	nop	
    30d4:	ac 5f       	bra	2996 <__vfprintf_r+0x128e>
    30d6:	53 ff       	mov.l	@(60,r15),r3
    30d8:	05 40       	.word 0x0540
    30da:	fb 63       	.word 0xfb63
    30dc:	fb 56       	.word 0xfb56
    30de:	fb 64       	.word 0xfb64
    30e0:	fb 48       	.word 0xfb48
    30e2:	00 09       	nop	
    30e4:	00 00       	.word 0x0000
    30e6:	86 4e       	.word 0x864e
    30e8:	00 00       	.word 0x0000
    30ea:	95 5c       	mov.w	31a6 <___swsetup_r+0x9e>,r5	! d115

000030ec <_vfprintf>:
    30ec:	d3 04       	mov.l	3100 <_vfprintf+0x14>,r3	! a408 <__impure_ptr>
    30ee:	62 43       	mov	r4,r2
    30f0:	d0 04       	mov.l	3104 <_vfprintf+0x18>,r0	! 1708 <__vfprintf_r>
    30f2:	61 53       	mov	r5,r1
    30f4:	67 63       	mov	r6,r7
    30f6:	64 32       	mov.l	@r3,r4
    30f8:	65 23       	mov	r2,r5
    30fa:	40 2b       	jmp	@r0
    30fc:	66 13       	mov	r1,r6
    30fe:	00 09       	nop	
    3100:	00 00       	.word 0x0000
    3102:	a4 08       	bra	3916 <__dtoa_r+0x44a>
    3104:	00 00       	.word 0x0000
    3106:	17 08       	mov.l	r0,@(32,r7)

00003108 <___swsetup_r>:
    3108:	2f 86       	mov.l	r8,@-r15
    310a:	68 53       	mov	r5,r8
    310c:	2f 96       	mov.l	r9,@-r15
    310e:	2f a6       	mov.l	r10,@-r15
    3110:	6a 43       	mov	r4,r10
    3112:	d1 38       	mov.l	31f4 <___swsetup_r+0xec>,r1	! a408 <__impure_ptr>
    3114:	4f 22       	sts.l	pr,@-r15
    3116:	64 12       	mov.l	@r1,r4
    3118:	24 48       	tst	r4,r4
    311a:	89 02       	bt	3122 <___swsetup_r+0x1a>
    311c:	52 4e       	mov.l	@(56,r4),r2
    311e:	22 28       	tst	r2,r2
    3120:	89 34       	bt	318c <___swsetup_r+0x84>
    3122:	69 83       	mov	r8,r9
    3124:	79 0c       	add	#12,r9
    3126:	60 91       	mov.w	@r9,r0
    3128:	c8 08       	tst	#8,r0
    312a:	89 13       	bt	3154 <___swsetup_r+0x4c>
    312c:	51 84       	mov.l	@(16,r8),r1
    312e:	21 18       	tst	r1,r1
    3130:	89 48       	bt	31c4 <___swsetup_r+0xbc>
    3132:	c8 01       	tst	#1,r0
    3134:	89 1a       	bt	316c <___swsetup_r+0x64>
    3136:	e2 00       	mov	#0,r2
    3138:	18 22       	mov.l	r2,@(8,r8)
    313a:	21 18       	tst	r1,r1
    313c:	52 85       	mov.l	@(20,r8),r2
    313e:	62 2b       	neg	r2,r2
    3140:	18 26       	mov.l	r2,@(24,r8)
    3142:	e2 00       	mov	#0,r2
    3144:	89 1a       	bt	317c <___swsetup_r+0x74>
    3146:	60 23       	mov	r2,r0
    3148:	4f 26       	lds.l	@r15+,pr
    314a:	6a f6       	mov.l	@r15+,r10
    314c:	69 f6       	mov.l	@r15+,r9
    314e:	68 f6       	mov.l	@r15+,r8
    3150:	00 0b       	rts	
    3152:	00 09       	nop	
    3154:	c8 10       	tst	#16,r0
    3156:	89 45       	bt	31e4 <___swsetup_r+0xdc>
    3158:	c8 04       	tst	#4,r0
    315a:	8b 1d       	bf	3198 <___swsetup_r+0x90>
    315c:	cb 08       	or	#8,r0
    315e:	51 84       	mov.l	@(16,r8),r1
    3160:	29 01       	mov.w	r0,@r9
    3162:	21 18       	tst	r1,r1
    3164:	8b e5       	bf	3132 <___swsetup_r+0x2a>
    3166:	a0 2d       	bra	31c4 <___swsetup_r+0xbc>
    3168:	00 09       	nop	
    316a:	00 09       	nop	
    316c:	c8 02       	tst	#2,r0
    316e:	e2 00       	mov	#0,r2
    3170:	8b 00       	bf	3174 <___swsetup_r+0x6c>
    3172:	52 85       	mov.l	@(20,r8),r2
    3174:	18 22       	mov.l	r2,@(8,r8)
    3176:	21 18       	tst	r1,r1
    3178:	e2 00       	mov	#0,r2
    317a:	8b e4       	bf	3146 <___swsetup_r+0x3e>
    317c:	61 91       	mov.w	@r9,r1
    317e:	60 13       	mov	r1,r0
    3180:	c8 80       	tst	#-128,r0
    3182:	89 e0       	bt	3146 <___swsetup_r+0x3e>
    3184:	cb 40       	or	#64,r0
    3186:	29 01       	mov.w	r0,@r9
    3188:	af dd       	bra	3146 <___swsetup_r+0x3e>
    318a:	e2 ff       	mov	#-1,r2
    318c:	d1 1a       	mov.l	31f8 <___swsetup_r+0xf0>,r1	! 4a90 <___sinit>
    318e:	41 0b       	jsr	@r1
    3190:	69 83       	mov	r8,r9
    3192:	af c8       	bra	3126 <___swsetup_r+0x1e>
    3194:	79 0c       	add	#12,r9
    3196:	00 09       	nop	
    3198:	55 8c       	mov.l	@(48,r8),r5
    319a:	25 58       	tst	r5,r5
    319c:	89 09       	bt	31b2 <___swsetup_r+0xaa>
    319e:	61 83       	mov	r8,r1
    31a0:	71 40       	add	#64,r1
    31a2:	35 10       	cmp/eq	r1,r5
    31a4:	89 03       	bt	31ae <___swsetup_r+0xa6>
    31a6:	d1 15       	mov.l	31fc <___swsetup_r+0xf4>,r1	! 4cc8 <__free_r>
    31a8:	41 0b       	jsr	@r1
    31aa:	64 a3       	mov	r10,r4
    31ac:	60 91       	mov.w	@r9,r0
    31ae:	e1 00       	mov	#0,r1
    31b0:	18 1c       	mov.l	r1,@(48,r8)
    31b2:	e1 db       	mov	#-37,r1
    31b4:	20 19       	and	r1,r0
    31b6:	e1 00       	mov	#0,r1
    31b8:	18 11       	mov.l	r1,@(4,r8)
    31ba:	cb 08       	or	#8,r0
    31bc:	51 84       	mov.l	@(16,r8),r1
    31be:	29 01       	mov.w	r0,@r9
    31c0:	af cf       	bra	3162 <___swsetup_r+0x5a>
    31c2:	28 12       	mov.l	r1,@r8
    31c4:	93 14       	mov.w	31f0 <___swsetup_r+0xe8>,r3	! 280
    31c6:	92 14       	mov.w	31f2 <___swsetup_r+0xea>,r2	! 200
    31c8:	23 09       	and	r0,r3
    31ca:	33 20       	cmp/eq	r2,r3
    31cc:	89 b1       	bt	3132 <___swsetup_r+0x2a>
    31ce:	d1 0c       	mov.l	3200 <___swsetup_r+0xf8>,r1	! 506c <___smakebuf_r>
    31d0:	64 a3       	mov	r10,r4
    31d2:	41 0b       	jsr	@r1
    31d4:	65 83       	mov	r8,r5
    31d6:	60 91       	mov.w	@r9,r0
    31d8:	c8 01       	tst	#1,r0
    31da:	51 84       	mov.l	@(16,r8),r1
    31dc:	89 c6       	bt	316c <___swsetup_r+0x64>
    31de:	af ab       	bra	3138 <___swsetup_r+0x30>
    31e0:	e2 00       	mov	#0,r2
    31e2:	00 09       	nop	
    31e4:	e1 09       	mov	#9,r1
    31e6:	2a 12       	mov.l	r1,@r10
    31e8:	cb 40       	or	#64,r0
    31ea:	29 01       	mov.w	r0,@r9
    31ec:	af ab       	bra	3146 <___swsetup_r+0x3e>
    31ee:	e2 ff       	mov	#-1,r2
    31f0:	02 80       	.word 0x0280
    31f2:	02 00       	.word 0x0200
    31f4:	00 00       	.word 0x0000
    31f6:	a4 08       	bra	3a0a <__dtoa_r+0x53e>
    31f8:	00 00       	.word 0x0000
    31fa:	4a 90       	.word 0x4a90
    31fc:	00 00       	.word 0x0000
    31fe:	4c c8       	.word 0x4cc8
    3200:	00 00       	.word 0x0000
    3202:	50 6c       	mov.l	@(48,r6),r0

00003204 <___call_exitprocs>:
    3204:	2f 86       	mov.l	r8,@-r15
    3206:	2f 96       	mov.l	r9,@-r15
    3208:	2f a6       	mov.l	r10,@-r15
    320a:	2f b6       	mov.l	r11,@-r15
    320c:	2f c6       	mov.l	r12,@-r15
    320e:	2f d6       	mov.l	r13,@-r15
    3210:	6d 53       	mov	r5,r13
    3212:	d1 46       	mov.l	332c <___call_exitprocs+0x128>,r1	! 9e2c <__global_impure_ptr>
    3214:	2f e6       	mov.l	r14,@-r15
    3216:	61 12       	mov.l	@r1,r1
    3218:	4f 22       	sts.l	pr,@-r15
    321a:	7f ec       	add	#-20,r15
    321c:	1f 44       	mov.l	r4,@(16,r15)
    321e:	1f 13       	mov.l	r1,@(12,r15)
    3220:	51 f3       	mov.l	@(12,r15),r1
    3222:	90 7d       	mov.w	3320 <___call_exitprocs+0x11c>,r0	! 13c
    3224:	5c f3       	mov.l	@(12,r15),r12
    3226:	31 0c       	add	r0,r1
    3228:	59 13       	mov.l	@(12,r1),r9
    322a:	91 7a       	mov.w	3322 <___call_exitprocs+0x11e>,r1	! 148
    322c:	29 98       	tst	r9,r9
    322e:	3c 1c       	add	r1,r12
    3230:	89 27       	bt	3282 <___call_exitprocs+0x7e>
    3232:	9e 77       	mov.w	3324 <___call_exitprocs+0x120>,r14	! 80
    3234:	61 d3       	mov	r13,r1
    3236:	6b 93       	mov	r9,r11
    3238:	6d c3       	mov	r12,r13
    323a:	6c 13       	mov	r1,r12
    323c:	58 b1       	mov.l	@(4,r11),r8
    323e:	78 ff       	add	#-1,r8
    3240:	48 11       	cmp/pz	r8
    3242:	8b 1b       	bf	327c <___call_exitprocs+0x78>
    3244:	91 6f       	mov.w	3326 <___call_exitprocs+0x122>,r1	! 88
    3246:	6a 83       	mov	r8,r10
    3248:	92 6e       	mov.w	3328 <___call_exitprocs+0x124>,r2	! fc
    324a:	31 bc       	add	r11,r1
    324c:	69 13       	mov	r1,r9
    324e:	39 2c       	add	r2,r9
    3250:	4a 08       	shll2	r10
    3252:	3a 1c       	add	r1,r10
    3254:	1f 12       	mov.l	r1,@(8,r15)
    3256:	61 93       	mov	r9,r1
    3258:	69 c3       	mov	r12,r9
    325a:	6c d3       	mov	r13,r12
    325c:	6d b3       	mov	r11,r13
    325e:	6b 13       	mov	r1,r11
    3260:	29 98       	tst	r9,r9
    3262:	89 19       	bt	3298 <___call_exitprocs+0x94>
    3264:	60 e3       	mov	r14,r0
    3266:	02 ae       	mov.l	@(r0,r10),r2
    3268:	32 90       	cmp/eq	r9,r2
    326a:	89 15       	bt	3298 <___call_exitprocs+0x94>
    326c:	78 ff       	add	#-1,r8
    326e:	60 83       	mov	r8,r0
    3270:	88 ff       	cmp/eq	#-1,r0
    3272:	7a fc       	add	#-4,r10
    3274:	8b f4       	bf	3260 <___call_exitprocs+0x5c>
    3276:	6b d3       	mov	r13,r11
    3278:	6d c3       	mov	r12,r13
    327a:	6c 93       	mov	r9,r12
    327c:	d1 2c       	mov.l	3330 <___call_exitprocs+0x12c>,r1	! 0
    327e:	21 18       	tst	r1,r1
    3280:	8b 3c       	bf	32fc <___call_exitprocs+0xf8>
    3282:	7f 14       	add	#20,r15
    3284:	4f 26       	lds.l	@r15+,pr
    3286:	6e f6       	mov.l	@r15+,r14
    3288:	6d f6       	mov.l	@r15+,r13
    328a:	6c f6       	mov.l	@r15+,r12
    328c:	6b f6       	mov.l	@r15+,r11
    328e:	6a f6       	mov.l	@r15+,r10
    3290:	69 f6       	mov.l	@r15+,r9
    3292:	68 f6       	mov.l	@r15+,r8
    3294:	00 0b       	rts	
    3296:	00 09       	nop	
    3298:	51 f2       	mov.l	@(8,r15),r1
    329a:	62 a3       	mov	r10,r2
    329c:	57 d1       	mov.l	@(4,r13),r7
    329e:	32 18       	sub	r1,r2
    32a0:	32 dc       	add	r13,r2
    32a2:	77 ff       	add	#-1,r7
    32a4:	37 80       	cmp/eq	r8,r7
    32a6:	56 22       	mov.l	@(8,r2),r6
    32a8:	89 22       	bt	32f0 <___call_exitprocs+0xec>
    32aa:	e7 00       	mov	#0,r7
    32ac:	12 72       	mov.l	r7,@(8,r2)
    32ae:	26 68       	tst	r6,r6
    32b0:	89 dc       	bt	326c <___call_exitprocs+0x68>
    32b2:	52 d1       	mov.l	@(4,r13),r2
    32b4:	e4 01       	mov	#1,r4
    32b6:	d0 1f       	mov.l	3334 <___call_exitprocs+0x130>,r0	! 8514 <___ashlsi3>
    32b8:	65 83       	mov	r8,r5
    32ba:	1f 21       	mov.l	r2,@(4,r15)
    32bc:	40 0b       	jsr	@r0
    32be:	2f 62       	mov.l	r6,@r15
    32c0:	52 b1       	mov.l	@(4,r11),r2
    32c2:	66 f2       	mov.l	@r15,r6
    32c4:	20 28       	tst	r2,r0
    32c6:	89 0f       	bt	32e8 <___call_exitprocs+0xe4>
    32c8:	52 b2       	mov.l	@(8,r11),r2
    32ca:	20 28       	tst	r2,r0
    32cc:	8b 12       	bf	32f4 <___call_exitprocs+0xf0>
    32ce:	54 f4       	mov.l	@(16,r15),r4
    32d0:	46 0b       	jsr	@r6
    32d2:	65 a2       	mov.l	@r10,r5
    32d4:	52 d1       	mov.l	@(4,r13),r2
    32d6:	51 f1       	mov.l	@(4,r15),r1
    32d8:	32 10       	cmp/eq	r1,r2
    32da:	8b 02       	bf	32e2 <___call_exitprocs+0xde>
    32dc:	62 c2       	mov.l	@r12,r2
    32de:	32 d0       	cmp/eq	r13,r2
    32e0:	89 c4       	bt	326c <___call_exitprocs+0x68>
    32e2:	af 9d       	bra	3220 <___call_exitprocs+0x1c>
    32e4:	6d 93       	mov	r9,r13
    32e6:	00 09       	nop	
    32e8:	46 0b       	jsr	@r6
    32ea:	00 09       	nop	
    32ec:	af f3       	bra	32d6 <___call_exitprocs+0xd2>
    32ee:	52 d1       	mov.l	@(4,r13),r2
    32f0:	af dd       	bra	32ae <___call_exitprocs+0xaa>
    32f2:	1d 81       	mov.l	r8,@(4,r13)
    32f4:	46 0b       	jsr	@r6
    32f6:	64 a2       	mov.l	@r10,r4
    32f8:	af ed       	bra	32d6 <___call_exitprocs+0xd2>
    32fa:	52 d1       	mov.l	@(4,r13),r2
    32fc:	52 b1       	mov.l	@(4,r11),r2
    32fe:	22 28       	tst	r2,r2
    3300:	62 b2       	mov.l	@r11,r2
    3302:	8b 0a       	bf	331a <___call_exitprocs+0x116>
    3304:	22 28       	tst	r2,r2
    3306:	89 07       	bt	3318 <___call_exitprocs+0x114>
    3308:	64 b3       	mov	r11,r4
    330a:	41 0b       	jsr	@r1
    330c:	2d 22       	mov.l	r2,@r13
    330e:	6b d2       	mov.l	@r13,r11
    3310:	2b b8       	tst	r11,r11
    3312:	8b 93       	bf	323c <___call_exitprocs+0x38>
    3314:	af b5       	bra	3282 <___call_exitprocs+0x7e>
    3316:	00 09       	nop	
    3318:	e2 00       	mov	#0,r2
    331a:	6d b3       	mov	r11,r13
    331c:	af f8       	bra	3310 <___call_exitprocs+0x10c>
    331e:	6b 23       	mov	r2,r11
    3320:	01 3c       	mov.b	@(r0,r3),r1
    3322:	01 48       	.word 0x0148
    3324:	00 80       	.word 0x0080
    3326:	00 88       	.word 0x0088
    3328:	00 fc       	mov.b	@(r0,r15),r0
    332a:	00 09       	nop	
    332c:	00 00       	.word 0x0000
    332e:	9e 2c       	mov.w	338a <_quorem+0x52>,r14	! 6e93
    3330:	00 00       	.word 0x0000
    3332:	00 00       	.word 0x0000
    3334:	00 00       	.word 0x0000
    3336:	85 14       	mov.w	@(8,r1),r0

00003338 <_quorem>:
    3338:	2f 86       	mov.l	r8,@-r15
    333a:	e0 00       	mov	#0,r0
    333c:	2f 96       	mov.l	r9,@-r15
    333e:	2f a6       	mov.l	r10,@-r15
    3340:	2f b6       	mov.l	r11,@-r15
    3342:	2f c6       	mov.l	r12,@-r15
    3344:	2f d6       	mov.l	r13,@-r15
    3346:	2f e6       	mov.l	r14,@-r15
    3348:	4f 22       	sts.l	pr,@-r15
    334a:	51 54       	mov.l	@(16,r5),r1
    334c:	7f e8       	add	#-24,r15
    334e:	52 44       	mov.l	@(16,r4),r2
    3350:	1f 41       	mov.l	r4,@(4,r15)
    3352:	31 27       	cmp/gt	r2,r1
    3354:	1f 52       	mov.l	r5,@(8,r15)
    3356:	8b 01       	bf	335c <_quorem+0x24>
    3358:	a0 a4       	bra	34a4 <_quorem+0x16c>
    335a:	00 09       	nop	
    335c:	60 13       	mov	r1,r0
    335e:	70 04       	add	#4,r0
    3360:	40 08       	shll2	r0
    3362:	6d 53       	mov	r5,r13
    3364:	3d 0c       	add	r0,r13
    3366:	69 53       	mov	r5,r9
    3368:	6a 13       	mov	r1,r10
    336a:	65 d2       	mov.l	@r13,r5
    336c:	66 43       	mov	r4,r6
    336e:	d1 53       	mov.l	34bc <_quorem+0x184>,r1	! 870e <___udivsi3>
    3370:	76 14       	add	#20,r6
    3372:	04 4e       	mov.l	@(r0,r4),r4
    3374:	41 0b       	jsr	@r1
    3376:	75 01       	add	#1,r5
    3378:	1f 63       	mov.l	r6,@(12,r15)
    337a:	20 08       	tst	r0,r0
    337c:	2f 02       	mov.l	r0,@r15
    337e:	79 14       	add	#20,r9
    3380:	7a ff       	add	#-1,r10
    3382:	89 4c       	bt	341e <_quorem+0xe6>
    3384:	5c f3       	mov.l	@(12,r15),r12
    3386:	e1 00       	mov	#0,r1
    3388:	d7 4d       	mov.l	34c0 <_quorem+0x188>,r7	! ffff
    338a:	6e 93       	mov	r9,r14
    338c:	1f 94       	mov.l	r9,@(16,r15)
    338e:	eb 00       	mov	#0,r11
    3390:	1f a5       	mov.l	r10,@(20,r15)
    3392:	6a 13       	mov	r1,r10
    3394:	69 e6       	mov.l	@r14+,r9
    3396:	d0 4b       	mov.l	34c4 <_quorem+0x18c>,r0	! 862c <___mulsi3>
    3398:	64 93       	mov	r9,r4
    339a:	24 79       	and	r7,r4
    339c:	40 0b       	jsr	@r0
    339e:	65 f2       	mov.l	@r15,r5
    33a0:	64 93       	mov	r9,r4
    33a2:	d9 48       	mov.l	34c4 <_quorem+0x18c>,r9	! 862c <___mulsi3>
    33a4:	68 03       	mov	r0,r8
    33a6:	49 0b       	jsr	@r9
    33a8:	44 29       	shlr16	r4
    33aa:	62 c2       	mov.l	@r12,r2
    33ac:	38 ac       	add	r10,r8
    33ae:	66 83       	mov	r8,r6
    33b0:	61 23       	mov	r2,r1
    33b2:	21 79       	and	r7,r1
    33b4:	31 bc       	add	r11,r1
    33b6:	46 29       	shlr16	r6
    33b8:	28 79       	and	r7,r8
    33ba:	36 0c       	add	r0,r6
    33bc:	31 88       	sub	r8,r1
    33be:	6a 63       	mov	r6,r10
    33c0:	63 19       	swap.w	r1,r3
    33c2:	42 29       	shlr16	r2
    33c4:	26 79       	and	r7,r6
    33c6:	32 68       	sub	r6,r2
    33c8:	63 3f       	exts.w	r3,r3
    33ca:	32 3c       	add	r3,r2
    33cc:	6b 29       	swap.w	r2,r11
    33ce:	21 79       	and	r7,r1
    33d0:	42 28       	shll16	r2
    33d2:	22 1b       	or	r1,r2
    33d4:	2c 22       	mov.l	r2,@r12
    33d6:	3d e2       	cmp/hs	r14,r13
    33d8:	4a 29       	shlr16	r10
    33da:	6b bf       	exts.w	r11,r11
    33dc:	7c 04       	add	#4,r12
    33de:	89 d9       	bt	3394 <_quorem+0x5c>
    33e0:	5a f5       	mov.l	@(20,r15),r10
    33e2:	56 f1       	mov.l	@(4,r15),r6
    33e4:	62 a3       	mov	r10,r2
    33e6:	72 05       	add	#5,r2
    33e8:	42 08       	shll2	r2
    33ea:	32 6c       	add	r6,r2
    33ec:	61 22       	mov.l	@r2,r1
    33ee:	59 f4       	mov.l	@(16,r15),r9
    33f0:	21 18       	tst	r1,r1
    33f2:	8b 14       	bf	341e <_quorem+0xe6>
    33f4:	56 f3       	mov.l	@(12,r15),r6
    33f6:	61 23       	mov	r2,r1
    33f8:	71 fc       	add	#-4,r1
    33fa:	36 12       	cmp/hs	r1,r6
    33fc:	89 0d       	bt	341a <_quorem+0xe2>
    33fe:	72 c0       	add	#-64,r2
    3400:	52 2f       	mov.l	@(60,r2),r2
    3402:	22 28       	tst	r2,r2
    3404:	8b 09       	bf	341a <_quorem+0xe2>
    3406:	a0 04       	bra	3412 <_quorem+0xda>
    3408:	63 63       	mov	r6,r3
    340a:	00 09       	nop	
    340c:	62 12       	mov.l	@r1,r2
    340e:	22 28       	tst	r2,r2
    3410:	8b 03       	bf	341a <_quorem+0xe2>
    3412:	71 fc       	add	#-4,r1
    3414:	33 12       	cmp/hs	r1,r3
    3416:	7a ff       	add	#-1,r10
    3418:	8b f8       	bf	340c <_quorem+0xd4>
    341a:	56 f1       	mov.l	@(4,r15),r6
    341c:	16 a4       	mov.l	r10,@(16,r6)
    341e:	d0 2a       	mov.l	34c8 <_quorem+0x190>,r0	! 5efc <___mcmp>
    3420:	54 f1       	mov.l	@(4,r15),r4
    3422:	40 0b       	jsr	@r0
    3424:	55 f2       	mov.l	@(8,r15),r5
    3426:	40 11       	cmp/pz	r0
    3428:	8b 3b       	bf	34a2 <_quorem+0x16a>
    342a:	60 f2       	mov.l	@r15,r0
    342c:	e7 00       	mov	#0,r7
    342e:	56 f3       	mov.l	@(12,r15),r6
    3430:	70 01       	add	#1,r0
    3432:	d3 23       	mov.l	34c0 <_quorem+0x188>,r3	! ffff
    3434:	2f 02       	mov.l	r0,@r15
    3436:	00 09       	nop	
    3438:	62 62       	mov.l	@r6,r2
    343a:	65 96       	mov.l	@r9+,r5
    343c:	61 23       	mov	r2,r1
    343e:	21 39       	and	r3,r1
    3440:	31 7c       	add	r7,r1
    3442:	67 53       	mov	r5,r7
    3444:	27 39       	and	r3,r7
    3446:	31 78       	sub	r7,r1
    3448:	67 53       	mov	r5,r7
    344a:	47 29       	shlr16	r7
    344c:	27 39       	and	r3,r7
    344e:	42 29       	shlr16	r2
    3450:	32 78       	sub	r7,r2
    3452:	67 19       	swap.w	r1,r7
    3454:	67 7f       	exts.w	r7,r7
    3456:	32 7c       	add	r7,r2
    3458:	67 29       	swap.w	r2,r7
    345a:	21 39       	and	r3,r1
    345c:	42 28       	shll16	r2
    345e:	22 1b       	or	r1,r2
    3460:	26 22       	mov.l	r2,@r6
    3462:	3d 92       	cmp/hs	r9,r13
    3464:	67 7f       	exts.w	r7,r7
    3466:	76 04       	add	#4,r6
    3468:	89 e6       	bt	3438 <_quorem+0x100>
    346a:	62 a3       	mov	r10,r2
    346c:	56 f1       	mov.l	@(4,r15),r6
    346e:	72 05       	add	#5,r2
    3470:	42 08       	shll2	r2
    3472:	32 6c       	add	r6,r2
    3474:	61 22       	mov.l	@r2,r1
    3476:	21 18       	tst	r1,r1
    3478:	8b 13       	bf	34a2 <_quorem+0x16a>
    347a:	59 f3       	mov.l	@(12,r15),r9
    347c:	61 23       	mov	r2,r1
    347e:	71 fc       	add	#-4,r1
    3480:	39 12       	cmp/hs	r1,r9
    3482:	89 0c       	bt	349e <_quorem+0x166>
    3484:	72 c0       	add	#-64,r2
    3486:	52 2f       	mov.l	@(60,r2),r2
    3488:	22 28       	tst	r2,r2
    348a:	8b 08       	bf	349e <_quorem+0x166>
    348c:	a0 03       	bra	3496 <_quorem+0x15e>
    348e:	63 93       	mov	r9,r3
    3490:	62 12       	mov.l	@r1,r2
    3492:	22 28       	tst	r2,r2
    3494:	8b 03       	bf	349e <_quorem+0x166>
    3496:	71 fc       	add	#-4,r1
    3498:	33 12       	cmp/hs	r1,r3
    349a:	7a ff       	add	#-1,r10
    349c:	8b f8       	bf	3490 <_quorem+0x158>
    349e:	56 f1       	mov.l	@(4,r15),r6
    34a0:	16 a4       	mov.l	r10,@(16,r6)
    34a2:	60 f2       	mov.l	@r15,r0
    34a4:	7f 18       	add	#24,r15
    34a6:	4f 26       	lds.l	@r15+,pr
    34a8:	6e f6       	mov.l	@r15+,r14
    34aa:	6d f6       	mov.l	@r15+,r13
    34ac:	6c f6       	mov.l	@r15+,r12
    34ae:	6b f6       	mov.l	@r15+,r11
    34b0:	6a f6       	mov.l	@r15+,r10
    34b2:	69 f6       	mov.l	@r15+,r9
    34b4:	68 f6       	mov.l	@r15+,r8
    34b6:	00 0b       	rts	
    34b8:	00 09       	nop	
    34ba:	00 09       	nop	
    34bc:	00 00       	.word 0x0000
    34be:	87 0e       	.word 0x870e
    34c0:	00 00       	.word 0x0000
    34c2:	ff ff       	.word 0xffff
    34c4:	00 00       	.word 0x0000
    34c6:	86 2c       	.word 0x862c
    34c8:	00 00       	.word 0x0000
    34ca:	5e fc       	mov.l	@(48,r15),r14

000034cc <__dtoa_r>:
    34cc:	2f 86       	mov.l	r8,@-r15
    34ce:	2f 96       	mov.l	r9,@-r15
    34d0:	2f a6       	mov.l	r10,@-r15
    34d2:	6a 43       	mov	r4,r10
    34d4:	2f b6       	mov.l	r11,@-r15
    34d6:	7a 40       	add	#64,r10
    34d8:	2f c6       	mov.l	r12,@-r15
    34da:	2f d6       	mov.l	r13,@-r15
    34dc:	6d 53       	mov	r5,r13
    34de:	2f e6       	mov.l	r14,@-r15
    34e0:	6e 63       	mov	r6,r14
    34e2:	4f 22       	sts.l	pr,@-r15
    34e4:	5b a0       	mov.l	@(0,r10),r11
    34e6:	7f 90       	add	#-112,r15
    34e8:	90 64       	mov.w	35b4 <__dtoa_r+0xe8>,r0	! 98
    34ea:	2b b8       	tst	r11,r11
    34ec:	1f 42       	mov.l	r4,@(8,r15)
    34ee:	1f 73       	mov.l	r7,@(12,r15)
    34f0:	09 fe       	mov.l	@(r0,r15),r9
    34f2:	89 0b       	bt	350c <__dtoa_r+0x40>
    34f4:	55 a1       	mov.l	@(4,r10),r5
    34f6:	e4 01       	mov	#1,r4
    34f8:	d0 30       	mov.l	35bc <__dtoa_r+0xf0>,r0	! 8514 <___ashlsi3>
    34fa:	d8 31       	mov.l	35c0 <__dtoa_r+0xf4>,r8	! 5918 <__Bfree>
    34fc:	40 0b       	jsr	@r0
    34fe:	1b 51       	mov.l	r5,@(4,r11)
    3500:	1b 02       	mov.l	r0,@(8,r11)
    3502:	65 b3       	mov	r11,r5
    3504:	48 0b       	jsr	@r8
    3506:	54 f2       	mov.l	@(8,r15),r4
    3508:	e1 00       	mov	#0,r1
    350a:	1a 10       	mov.l	r1,@(0,r10)
    350c:	4d 11       	cmp/pz	r13
    350e:	6c d3       	mov	r13,r12
    3510:	8b 4a       	bf	35a8 <__dtoa_r+0xdc>
    3512:	e2 00       	mov	#0,r2
    3514:	29 22       	mov.l	r2,@r9
    3516:	d2 2b       	mov.l	35c4 <__dtoa_r+0xf8>,r2	! 7ff00000
    3518:	63 c3       	mov	r12,r3
    351a:	23 29       	and	r2,r3
    351c:	33 20       	cmp/eq	r2,r3
    351e:	89 21       	bt	3564 <__dtoa_r+0x98>
    3520:	d1 29       	mov.l	35c8 <__dtoa_r+0xfc>,r1	! 9508 <___eqdf2>
    3522:	64 d3       	mov	r13,r4
    3524:	65 e3       	mov	r14,r5
    3526:	e6 00       	mov	#0,r6
    3528:	41 0b       	jsr	@r1
    352a:	e7 00       	mov	#0,r7
    352c:	20 08       	tst	r0,r0
    352e:	8b 53       	bf	35d8 <__dtoa_r+0x10c>
    3530:	90 41       	mov.w	35b6 <__dtoa_r+0xea>,r0	! 94
    3532:	e1 01       	mov	#1,r1
    3534:	02 fe       	mov.l	@(r0,r15),r2
    3536:	70 08       	add	#8,r0
    3538:	03 fe       	mov.l	@(r0,r15),r3
    353a:	22 12       	mov.l	r1,@r2
    353c:	23 38       	tst	r3,r3
    353e:	8b 01       	bf	3544 <__dtoa_r+0x78>
    3540:	a1 46       	bra	37d0 <__dtoa_r+0x304>
    3542:	00 09       	nop	
    3544:	d1 21       	mov.l	35cc <__dtoa_r+0x100>,r1	! 9e75
    3546:	6d 13       	mov	r1,r13
    3548:	23 12       	mov.l	r1,@r3
    354a:	7d ff       	add	#-1,r13
    354c:	60 d3       	mov	r13,r0
    354e:	7f 70       	add	#112,r15
    3550:	4f 26       	lds.l	@r15+,pr
    3552:	6e f6       	mov.l	@r15+,r14
    3554:	6d f6       	mov.l	@r15+,r13
    3556:	6c f6       	mov.l	@r15+,r12
    3558:	6b f6       	mov.l	@r15+,r11
    355a:	6a f6       	mov.l	@r15+,r10
    355c:	69 f6       	mov.l	@r15+,r9
    355e:	68 f6       	mov.l	@r15+,r8
    3560:	00 0b       	rts	
    3562:	00 09       	nop	
    3564:	90 27       	mov.w	35b6 <__dtoa_r+0xea>,r0	! 94
    3566:	2e e8       	tst	r14,r14
    3568:	92 26       	mov.w	35b8 <__dtoa_r+0xec>,r2	! 270f
    356a:	01 fe       	mov.l	@(r0,r15),r1
    356c:	21 22       	mov.l	r2,@r1
    356e:	8b 01       	bf	3574 <__dtoa_r+0xa8>
    3570:	a0 fe       	bra	3770 <__dtoa_r+0x2a4>
    3572:	00 09       	nop	
    3574:	dd 16       	mov.l	35d0 <__dtoa_r+0x104>,r13	! 9ea4
    3576:	90 20       	mov.w	35ba <__dtoa_r+0xee>,r0	! 9c
    3578:	02 fe       	mov.l	@(r0,r15),r2
    357a:	22 28       	tst	r2,r2
    357c:	89 e6       	bt	354c <__dtoa_r+0x80>
    357e:	62 d3       	mov	r13,r2
    3580:	72 03       	add	#3,r2
    3582:	63 20       	mov.b	@r2,r3
    3584:	23 38       	tst	r3,r3
    3586:	89 00       	bt	358a <__dtoa_r+0xbe>
    3588:	72 05       	add	#5,r2
    358a:	90 16       	mov.w	35ba <__dtoa_r+0xee>,r0	! 9c
    358c:	03 fe       	mov.l	@(r0,r15),r3
    358e:	60 d3       	mov	r13,r0
    3590:	23 22       	mov.l	r2,@r3
    3592:	7f 70       	add	#112,r15
    3594:	4f 26       	lds.l	@r15+,pr
    3596:	6e f6       	mov.l	@r15+,r14
    3598:	6d f6       	mov.l	@r15+,r13
    359a:	6c f6       	mov.l	@r15+,r12
    359c:	6b f6       	mov.l	@r15+,r11
    359e:	6a f6       	mov.l	@r15+,r10
    35a0:	69 f6       	mov.l	@r15+,r9
    35a2:	68 f6       	mov.l	@r15+,r8
    35a4:	00 0b       	rts	
    35a6:	00 09       	nop	
    35a8:	e2 01       	mov	#1,r2
    35aa:	29 22       	mov.l	r2,@r9
    35ac:	d2 09       	mov.l	35d4 <__dtoa_r+0x108>,r2	! 7fffffff
    35ae:	2c 29       	and	r2,r12
    35b0:	af b1       	bra	3516 <__dtoa_r+0x4a>
    35b2:	6d c3       	mov	r12,r13
    35b4:	00 98       	.word 0x0098
    35b6:	00 94       	mov.b	r9,@(r0,r0)
    35b8:	27 0f       	muls.w	r0,r7
    35ba:	00 9c       	mov.b	@(r0,r9),r0
    35bc:	00 00       	.word 0x0000
    35be:	85 14       	mov.w	@(8,r1),r0
    35c0:	00 00       	.word 0x0000
    35c2:	59 18       	mov.l	@(32,r1),r9
    35c4:	7f f0       	add	#-16,r15
    35c6:	00 00       	.word 0x0000
    35c8:	00 00       	.word 0x0000
    35ca:	95 08       	mov.w	35de <__dtoa_r+0x112>,r5	! 67f3
    35cc:	00 00       	.word 0x0000
    35ce:	9e 75       	mov.w	36bc <__dtoa_r+0x1f0>,r14	! 1f2d
    35d0:	00 00       	.word 0x0000
    35d2:	9e a4       	mov.w	371e <__dtoa_r+0x252>,r14	! 9
    35d4:	7f ff       	add	#-1,r15
    35d6:	ff ff       	.word 0xffff
    35d8:	d0 51       	mov.l	3720 <__dtoa_r+0x254>,r0	! 6204 <___d2b>
    35da:	62 f3       	mov	r15,r2
    35dc:	72 68       	add	#104,r2
    35de:	67 f3       	mov	r15,r7
    35e0:	2f 22       	mov.l	r2,@r15
    35e2:	65 d3       	mov	r13,r5
    35e4:	54 f2       	mov.l	@(8,r15),r4
    35e6:	66 e3       	mov	r14,r6
    35e8:	40 0b       	jsr	@r0
    35ea:	77 6c       	add	#108,r7
    35ec:	62 c3       	mov	r12,r2
    35ee:	32 2c       	add	r2,r2
    35f0:	42 29       	shlr16	r2
    35f2:	42 09       	shlr2	r2
    35f4:	42 01       	shlr	r2
    35f6:	42 09       	shlr2	r2
    35f8:	1f 0c       	mov.l	r0,@(48,r15)
    35fa:	22 28       	tst	r2,r2
    35fc:	8b 02       	bf	3604 <__dtoa_r+0x138>
    35fe:	a0 c1       	bra	3784 <__dtoa_r+0x2b8>
    3600:	62 f3       	mov	r15,r2
    3602:	00 09       	nop	
    3604:	d7 47       	mov.l	3724 <__dtoa_r+0x258>,r7	! fffff
    3606:	e0 00       	mov	#0,r0
    3608:	9b 88       	mov.w	371c <__dtoa_r+0x250>,r11	! fc01
    360a:	27 d9       	and	r13,r7
    360c:	d3 46       	mov.l	3728 <__dtoa_r+0x25c>,r3	! 3ff00000
    360e:	3b 2c       	add	r2,r11
    3610:	62 f3       	mov	r15,r2
    3612:	64 73       	mov	r7,r4
    3614:	72 30       	add	#48,r2
    3616:	24 3b       	or	r3,r4
    3618:	53 2e       	mov.l	@(56,r2),r3
    361a:	e7 40       	mov	#64,r7
    361c:	37 fc       	add	r15,r7
    361e:	1f 2b       	mov.l	r2,@(44,r15)
    3620:	65 e3       	mov	r14,r5
    3622:	1f 34       	mov.l	r3,@(16,r15)
    3624:	17 07       	mov.l	r0,@(28,r7)
    3626:	d2 41       	mov.l	372c <__dtoa_r+0x260>,r2	! 90f4 <___subdf3>
    3628:	d6 41       	mov.l	3730 <__dtoa_r+0x264>,r6	! 3ff80000
    362a:	42 0b       	jsr	@r2
    362c:	e7 00       	mov	#0,r7
    362e:	d3 41       	mov.l	3734 <__dtoa_r+0x268>,r3	! 914c <___muldf3>
    3630:	64 03       	mov	r0,r4
    3632:	d6 41       	mov.l	3738 <__dtoa_r+0x26c>,r6	! 3fd287a7
    3634:	d7 41       	mov.l	373c <__dtoa_r+0x270>,r7	! 636f4361
    3636:	43 0b       	jsr	@r3
    3638:	65 13       	mov	r1,r5
    363a:	d2 41       	mov.l	3740 <__dtoa_r+0x274>,r2	! 90a4 <___adddf3>
    363c:	65 13       	mov	r1,r5
    363e:	d6 41       	mov.l	3744 <__dtoa_r+0x278>,r6	! 3fc68a28
    3640:	d7 41       	mov.l	3748 <__dtoa_r+0x27c>,r7	! 8b60c8b3
    3642:	42 0b       	jsr	@r2
    3644:	64 03       	mov	r0,r4
    3646:	d3 41       	mov.l	374c <__dtoa_r+0x280>,r3	! 96ac <___floatsidf>
    3648:	68 03       	mov	r0,r8
    364a:	69 13       	mov	r1,r9
    364c:	43 0b       	jsr	@r3
    364e:	64 b3       	mov	r11,r4
    3650:	d2 38       	mov.l	3734 <__dtoa_r+0x268>,r2	! 914c <___muldf3>
    3652:	64 03       	mov	r0,r4
    3654:	d6 3e       	mov.l	3750 <__dtoa_r+0x284>,r6	! 3fd34413
    3656:	d7 3f       	mov.l	3754 <__dtoa_r+0x288>,r7	! 509f79fb
    3658:	42 0b       	jsr	@r2
    365a:	65 13       	mov	r1,r5
    365c:	d3 38       	mov.l	3740 <__dtoa_r+0x274>,r3	! 90a4 <___adddf3>
    365e:	64 83       	mov	r8,r4
    3660:	65 93       	mov	r9,r5
    3662:	66 03       	mov	r0,r6
    3664:	43 0b       	jsr	@r3
    3666:	67 13       	mov	r1,r7
    3668:	d7 3b       	mov.l	3758 <__dtoa_r+0x28c>,r7	! 9748 <___fixdfsi>
    366a:	68 03       	mov	r0,r8
    366c:	69 13       	mov	r1,r9
    366e:	65 13       	mov	r1,r5
    3670:	47 0b       	jsr	@r7
    3672:	64 83       	mov	r8,r4
    3674:	d1 39       	mov.l	375c <__dtoa_r+0x290>,r1	! 9658 <___ltdf2>
    3676:	64 83       	mov	r8,r4
    3678:	1f 05       	mov.l	r0,@(20,r15)
    367a:	65 93       	mov	r9,r5
    367c:	e6 00       	mov	#0,r6
    367e:	41 0b       	jsr	@r1
    3680:	e7 00       	mov	#0,r7
    3682:	40 11       	cmp/pz	r0
    3684:	89 02       	bt	368c <__dtoa_r+0x1c0>
    3686:	a2 b7       	bra	3bf8 <__dtoa_r+0x72c>
    3688:	00 09       	nop	
    368a:	00 09       	nop	
    368c:	50 f5       	mov.l	@(20,r15),r0
    368e:	e1 16       	mov	#22,r1
    3690:	e2 01       	mov	#1,r2
    3692:	30 16       	cmp/hi	r1,r0
    3694:	1f 2d       	mov.l	r2,@(52,r15)
    3696:	89 14       	bt	36c2 <__dtoa_r+0x1f6>
    3698:	62 03       	mov	r0,r2
    369a:	d1 31       	mov.l	3760 <__dtoa_r+0x294>,r1	! 9f04 <___mprec_tens>
    369c:	42 08       	shll2	r2
    369e:	d0 31       	mov.l	3764 <__dtoa_r+0x298>,r0	! 95b0 <___gtdf2>
    36a0:	32 2c       	add	r2,r2
    36a2:	31 2c       	add	r2,r1
    36a4:	64 12       	mov.l	@r1,r4
    36a6:	66 d3       	mov	r13,r6
    36a8:	55 11       	mov.l	@(4,r1),r5
    36aa:	40 0b       	jsr	@r0
    36ac:	67 e3       	mov	r14,r7
    36ae:	40 15       	cmp/pl	r0
    36b0:	89 02       	bt	36b8 <__dtoa_r+0x1ec>
    36b2:	a2 b7       	bra	3c24 <__dtoa_r+0x758>
    36b4:	e3 00       	mov	#0,r3
    36b6:	00 09       	nop	
    36b8:	50 f5       	mov.l	@(20,r15),r0
    36ba:	e2 00       	mov	#0,r2
    36bc:	1f 2d       	mov.l	r2,@(52,r15)
    36be:	70 ff       	add	#-1,r0
    36c0:	1f 05       	mov.l	r0,@(20,r15)
    36c2:	5c f4       	mov.l	@(16,r15),r12
    36c4:	3c b8       	sub	r11,r12
    36c6:	7c ff       	add	#-1,r12
    36c8:	4c 11       	cmp/pz	r12
    36ca:	89 01       	bt	36d0 <__dtoa_r+0x204>
    36cc:	a2 90       	bra	3bf0 <__dtoa_r+0x724>
    36ce:	6c cb       	neg	r12,r12
    36d0:	e3 00       	mov	#0,r3
    36d2:	1f c7       	mov.l	r12,@(28,r15)
    36d4:	1f 3a       	mov.l	r3,@(40,r15)
    36d6:	50 f5       	mov.l	@(20,r15),r0
    36d8:	40 11       	cmp/pz	r0
    36da:	89 01       	bt	36e0 <__dtoa_r+0x214>
    36dc:	a2 80       	bra	3be0 <__dtoa_r+0x714>
    36de:	e7 00       	mov	#0,r7
    36e0:	52 f7       	mov.l	@(28,r15),r2
    36e2:	e3 40       	mov	#64,r3
    36e4:	33 fc       	add	r15,r3
    36e6:	32 0c       	add	r0,r2
    36e8:	1f 27       	mov.l	r2,@(28,r15)
    36ea:	e2 00       	mov	#0,r2
    36ec:	13 01       	mov.l	r0,@(4,r3)
    36ee:	1f 2e       	mov.l	r2,@(56,r15)
    36f0:	52 f3       	mov.l	@(12,r15),r2
    36f2:	e1 09       	mov	#9,r1
    36f4:	32 16       	cmp/hi	r1,r2
    36f6:	89 6f       	bt	37d8 <__dtoa_r+0x30c>
    36f8:	e1 05       	mov	#5,r1
    36fa:	32 17       	cmp/gt	r1,r2
    36fc:	e1 01       	mov	#1,r1
    36fe:	8b 02       	bf	3706 <__dtoa_r+0x23a>
    3700:	72 fc       	add	#-4,r2
    3702:	1f 23       	mov.l	r2,@(12,r15)
    3704:	e1 00       	mov	#0,r1
    3706:	52 f3       	mov.l	@(12,r15),r2
    3708:	e3 03       	mov	#3,r3
    370a:	72 fe       	add	#-2,r2
    370c:	32 36       	cmp/hi	r3,r2
    370e:	89 65       	bt	37dc <__dtoa_r+0x310>
    3710:	c7 15       	mova	3768 <__dtoa_r+0x29c>,r0
    3712:	32 2c       	add	r2,r2
    3714:	02 2d       	mov.w	@(r0,r2),r2
    3716:	32 0c       	add	r0,r2
    3718:	42 2b       	jmp	@r2
    371a:	00 09       	nop	
    371c:	fc 01       	.word 0xfc01
    371e:	00 09       	nop	
    3720:	00 00       	.word 0x0000
    3722:	62 04       	mov.b	@r0+,r2
    3724:	00 0f       	.word 0x000f
    3726:	ff ff       	.word 0xffff
    3728:	3f f0       	cmp/eq	r15,r15
    372a:	00 00       	.word 0x0000
    372c:	00 00       	.word 0x0000
    372e:	90 f4       	mov.w	391a <__dtoa_r+0x44e>,r0	! e600
    3730:	3f f8       	sub	r15,r15
    3732:	00 00       	.word 0x0000
    3734:	00 00       	.word 0x0000
    3736:	91 4c       	mov.w	37d2 <__dtoa_r+0x306>,r1	! aebc
    3738:	3f d2       	cmp/hs	r13,r15
    373a:	87 a7       	.word 0x87a7
    373c:	63 6f       	exts.w	r6,r3
    373e:	43 61       	.word 0x4361
    3740:	00 00       	.word 0x0000
    3742:	90 a4       	mov.w	388e <__dtoa_r+0x3c2>,r0	! 8974
    3744:	3f c6       	cmp/hi	r12,r15
    3746:	8a 28       	.word 0x8a28
    3748:	8b 60       	bf	380c <__dtoa_r+0x340>
    374a:	c8 b3       	tst	#-77,r0
    374c:	00 00       	.word 0x0000
    374e:	96 ac       	mov.w	38aa <__dtoa_r+0x3de>,r6	! a720
    3750:	3f d3       	cmp/ge	r13,r15
    3752:	44 13       	stc.l	gbr,@-r4
    3754:	50 9f       	mov.l	@(60,r9),r0
    3756:	79 fb       	add	#-5,r9
    3758:	00 00       	.word 0x0000
    375a:	97 48       	mov.w	37ee <__dtoa_r+0x322>,r7	! e201
    375c:	00 00       	.word 0x0000
    375e:	96 58       	mov.w	3812 <__dtoa_r+0x346>,r6	! 3027
    3760:	00 00       	.word 0x0000
    3762:	9f 04       	mov.w	376e <__dtoa_r+0x2a2>,r15	! 82c
    3764:	00 00       	.word 0x0000
    3766:	95 b0       	mov.w	38ca <__dtoa_r+0x3fe>,r5	! 9e98
    3768:	05 30       	.word 0x0530
    376a:	08 00       	.word 0x0800
    376c:	07 f8       	.word 0x07f8
    376e:	08 2c       	mov.b	@(r0,r2),r8
    3770:	d2 54       	mov.l	38c4 <__dtoa_r+0x3f8>,r2	! fffff
    3772:	2c 28       	tst	r2,r12
    3774:	89 02       	bt	377c <__dtoa_r+0x2b0>
    3776:	ae fd       	bra	3574 <__dtoa_r+0xa8>
    3778:	00 09       	nop	
    377a:	00 09       	nop	
    377c:	dd 52       	mov.l	38c8 <__dtoa_r+0x3fc>,r13	! 9e98
    377e:	ae fa       	bra	3576 <__dtoa_r+0xaa>
    3780:	00 09       	nop	
    3782:	00 09       	nop	
    3784:	72 30       	add	#48,r2
    3786:	53 2e       	mov.l	@(56,r2),r3
    3788:	5b 2f       	mov.l	@(60,r2),r11
    378a:	1f 2b       	mov.l	r2,@(44,r15)
    378c:	3b 3c       	add	r3,r11
    378e:	92 94       	mov.w	38ba <__dtoa_r+0x3ee>,r2	! fbef
    3790:	1f 34       	mov.l	r3,@(16,r15)
    3792:	3b 23       	cmp/ge	r2,r11
    3794:	89 02       	bt	379c <__dtoa_r+0x2d0>
    3796:	a2 3f       	bra	3c18 <__dtoa_r+0x74c>
    3798:	64 e3       	mov	r14,r4
    379a:	00 09       	nop	
    379c:	95 8e       	mov.w	38bc <__dtoa_r+0x3f0>,r5	! fc0e
    379e:	64 c3       	mov	r12,r4
    37a0:	d0 4a       	mov.l	38cc <__dtoa_r+0x400>,r0	! 8514 <___ashlsi3>
    37a2:	40 0b       	jsr	@r0
    37a4:	35 b8       	sub	r11,r5
    37a6:	68 03       	mov	r0,r8
    37a8:	95 89       	mov.w	38be <__dtoa_r+0x3f2>,r5	! 412
    37aa:	64 e3       	mov	r14,r4
    37ac:	d0 48       	mov.l	38d0 <__dtoa_r+0x404>,r0	! 85a0 <___lshrsi3>
    37ae:	40 0b       	jsr	@r0
    37b0:	35 bc       	add	r11,r5
    37b2:	64 03       	mov	r0,r4
    37b4:	24 8b       	or	r8,r4
    37b6:	d0 47       	mov.l	38d4 <__dtoa_r+0x408>,r0	! 97c0 <___floatunsidf>
    37b8:	40 0b       	jsr	@r0
    37ba:	7b ff       	add	#-1,r11
    37bc:	d2 46       	mov.l	38d8 <__dtoa_r+0x40c>,r2	! fe100000
    37be:	e7 40       	mov	#64,r7
    37c0:	64 03       	mov	r0,r4
    37c2:	37 fc       	add	r15,r7
    37c4:	e0 01       	mov	#1,r0
    37c6:	65 13       	mov	r1,r5
    37c8:	34 2c       	add	r2,r4
    37ca:	af 2c       	bra	3626 <__dtoa_r+0x15a>
    37cc:	17 07       	mov.l	r0,@(28,r7)
    37ce:	00 09       	nop	
    37d0:	dd 42       	mov.l	38dc <__dtoa_r+0x410>,r13	! 9e74
    37d2:	ae bc       	bra	354e <__dtoa_r+0x82>
    37d4:	60 d3       	mov	r13,r0
    37d6:	00 09       	nop	
    37d8:	e2 00       	mov	#0,r2
    37da:	1f 23       	mov.l	r2,@(12,r15)
    37dc:	d7 40       	mov.l	38e0 <__dtoa_r+0x414>,r7	! 58a0 <__Balloc>
    37de:	e1 00       	mov	#0,r1
    37e0:	e0 4c       	mov	#76,r0
    37e2:	1a 11       	mov.l	r1,@(4,r10)
    37e4:	e5 00       	mov	#0,r5
    37e6:	0f 76       	mov.l	r7,@(r0,r15)
    37e8:	47 0b       	jsr	@r7
    37ea:	54 f2       	mov.l	@(8,r15),r4
    37ec:	1f 04       	mov.l	r0,@(16,r15)
    37ee:	e2 01       	mov	#1,r2
    37f0:	1a 00       	mov.l	r0,@(0,r10)
    37f2:	e0 40       	mov	#64,r0
    37f4:	30 fc       	add	r15,r0
    37f6:	e1 ff       	mov	#-1,r1
    37f8:	10 22       	mov.l	r2,@(8,r0)
    37fa:	e2 00       	mov	#0,r2
    37fc:	10 14       	mov.l	r1,@(16,r0)
    37fe:	e0 ff       	mov	#-1,r0
    3800:	1f 09       	mov.l	r0,@(36,r15)
    3802:	90 5d       	mov.w	38c0 <__dtoa_r+0x3f4>,r0	! 90
    3804:	0f 26       	mov.l	r2,@(r0,r15)
    3806:	52 fb       	mov.l	@(44,r15),r2
    3808:	51 2f       	mov.l	@(60,r2),r1
    380a:	41 11       	cmp/pz	r1
    380c:	8b 03       	bf	3816 <__dtoa_r+0x34a>
    380e:	50 f5       	mov.l	@(20,r15),r0
    3810:	e2 0e       	mov	#14,r2
    3812:	30 27       	cmp/gt	r2,r0
    3814:	8b 02       	bf	381c <__dtoa_r+0x350>
    3816:	a0 fb       	bra	3a10 <__dtoa_r+0x544>
    3818:	e0 48       	mov	#72,r0
    381a:	00 09       	nop	
    381c:	62 03       	mov	r0,r2
    381e:	d1 31       	mov.l	38e4 <__dtoa_r+0x418>,r1	! 9f04 <___mprec_tens>
    3820:	42 08       	shll2	r2
    3822:	32 2c       	add	r2,r2
    3824:	31 2c       	add	r2,r1
    3826:	62 12       	mov.l	@r1,r2
    3828:	53 11       	mov.l	@(4,r1),r3
    382a:	50 f9       	mov.l	@(36,r15),r0
    382c:	1f 27       	mov.l	r2,@(28,r15)
    382e:	40 15       	cmp/pl	r0
    3830:	1f 38       	mov.l	r3,@(32,r15)
    3832:	89 05       	bt	3840 <__dtoa_r+0x374>
    3834:	90 44       	mov.w	38c0 <__dtoa_r+0x3f4>,r0	! 90
    3836:	01 fe       	mov.l	@(r0,r15),r1
    3838:	41 11       	cmp/pz	r1
    383a:	89 01       	bt	3840 <__dtoa_r+0x374>
    383c:	a5 5c       	bra	42f8 <__dtoa_r+0xe2c>
    383e:	50 f9       	mov.l	@(36,r15),r0
    3840:	68 d3       	mov	r13,r8
    3842:	dd 29       	mov.l	38e8 <__dtoa_r+0x41c>,r13	! 93a0 <___divdf3>
    3844:	65 e3       	mov	r14,r5
    3846:	56 f7       	mov.l	@(28,r15),r6
    3848:	64 83       	mov	r8,r4
    384a:	4d 0b       	jsr	@r13
    384c:	57 f8       	mov.l	@(32,r15),r7
    384e:	d2 27       	mov.l	38ec <__dtoa_r+0x420>,r2	! 9748 <___fixdfsi>
    3850:	65 13       	mov	r1,r5
    3852:	42 0b       	jsr	@r2
    3854:	64 03       	mov	r0,r4
    3856:	d3 26       	mov.l	38f0 <__dtoa_r+0x424>,r3	! 96ac <___floatsidf>
    3858:	6a 03       	mov	r0,r10
    385a:	db 26       	mov.l	38f4 <__dtoa_r+0x428>,r11	! 914c <___muldf3>
    385c:	43 0b       	jsr	@r3
    385e:	64 03       	mov	r0,r4
    3860:	64 03       	mov	r0,r4
    3862:	65 13       	mov	r1,r5
    3864:	56 f7       	mov.l	@(28,r15),r6
    3866:	4b 0b       	jsr	@r11
    3868:	57 f8       	mov.l	@(32,r15),r7
    386a:	d2 23       	mov.l	38f8 <__dtoa_r+0x42c>,r2	! 90f4 <___subdf3>
    386c:	65 e3       	mov	r14,r5
    386e:	64 83       	mov	r8,r4
    3870:	66 03       	mov	r0,r6
    3872:	42 0b       	jsr	@r2
    3874:	67 13       	mov	r1,r7
    3876:	64 03       	mov	r0,r4
    3878:	50 f4       	mov.l	@(16,r15),r0
    387a:	62 a3       	mov	r10,r2
    387c:	72 30       	add	#48,r2
    387e:	6e 03       	mov	r0,r14
    3880:	20 20       	mov.b	r2,@r0
    3882:	65 13       	mov	r1,r5
    3884:	50 f9       	mov.l	@(36,r15),r0
    3886:	66 43       	mov	r4,r6
    3888:	67 13       	mov	r1,r7
    388a:	88 01       	cmp/eq	#1,r0
    388c:	7e 01       	add	#1,r14
    388e:	89 74       	bt	397a <__dtoa_r+0x4ae>
    3890:	d6 1a       	mov.l	38fc <__dtoa_r+0x430>,r6	! 40240000
    3892:	4b 0b       	jsr	@r11
    3894:	e7 00       	mov	#0,r7
    3896:	d3 1a       	mov.l	3900 <__dtoa_r+0x434>,r3	! 9508 <___eqdf2>
    3898:	68 03       	mov	r0,r8
    389a:	69 13       	mov	r1,r9
    389c:	64 83       	mov	r8,r4
    389e:	65 13       	mov	r1,r5
    38a0:	e6 00       	mov	#0,r6
    38a2:	43 0b       	jsr	@r3
    38a4:	e7 00       	mov	#0,r7
    38a6:	20 08       	tst	r0,r0
    38a8:	8b 02       	bf	38b0 <__dtoa_r+0x3e4>
    38aa:	a7 20       	bra	46ee <__dtoa_r+0x1222>
    38ac:	5d f4       	mov.l	@(16,r15),r13
    38ae:	00 09       	nop	
    38b0:	1f b3       	mov.l	r11,@(12,r15)
    38b2:	6c e3       	mov	r14,r12
    38b4:	5a f7       	mov.l	@(28,r15),r10
    38b6:	a0 37       	bra	3928 <__dtoa_r+0x45c>
    38b8:	5b f8       	mov.l	@(32,r15),r11
    38ba:	fb ef       	.word 0xfbef
    38bc:	fc 0e       	.word 0xfc0e
    38be:	04 12       	stc	gbr,r4
    38c0:	00 90       	.word 0x0090
    38c2:	00 09       	nop	
    38c4:	00 0f       	.word 0x000f
    38c6:	ff ff       	.word 0xffff
    38c8:	00 00       	.word 0x0000
    38ca:	9e 98       	mov.w	39fe <__dtoa_r+0x532>,r14	! 914c <___muldf3>
    38cc:	00 00       	.word 0x0000
    38ce:	85 14       	mov.w	@(8,r1),r0
    38d0:	00 00       	.word 0x0000
    38d2:	85 a0       	mov.w	@(0,r10),r0
    38d4:	00 00       	.word 0x0000
    38d6:	97 c0       	mov.w	3a5a <__dtoa_r+0x58e>,r7	! 54f2
    38d8:	fe 10       	.word 0xfe10
    38da:	00 00       	.word 0x0000
    38dc:	00 00       	.word 0x0000
    38de:	9e 74       	mov.w	39ca <__dtoa_r+0x4fe>,r14	! a64d
    38e0:	00 00       	.word 0x0000
    38e2:	58 a0       	mov.l	@(0,r10),r8
    38e4:	00 00       	.word 0x0000
    38e6:	9f 04       	mov.w	38f2 <__dtoa_r+0x426>,r15	! 96ac <___floatsidf>
    38e8:	00 00       	.word 0x0000
    38ea:	93 a0       	mov.w	3a2e <__dtoa_r+0x562>,r3	! 3297
    38ec:	00 00       	.word 0x0000
    38ee:	97 48       	mov.w	3982 <__dtoa_r+0x4b6>,r7	! d321
    38f0:	00 00       	.word 0x0000
    38f2:	96 ac       	mov.w	3a4e <__dtoa_r+0x582>,r6	! 9
    38f4:	00 00       	.word 0x0000
    38f6:	91 4c       	mov.w	3992 <__dtoa_r+0x4c6>,r1	! 4011
    38f8:	00 00       	.word 0x0000
    38fa:	90 f4       	mov.w	3ae6 <__dtoa_r+0x61a>,r0	! e204
    38fc:	40 24       	rotcl	r0
    38fe:	00 00       	.word 0x0000
    3900:	00 00       	.word 0x0000
    3902:	95 08       	mov.w	3916 <__dtoa_r+0x44a>,r5	! 6483
    3904:	52 f3       	mov.l	@(12,r15),r2
    3906:	64 83       	mov	r8,r4
    3908:	65 93       	mov	r9,r5
    390a:	d6 38       	mov.l	39ec <__dtoa_r+0x520>,r6	! 40240000
    390c:	42 0b       	jsr	@r2
    390e:	e7 00       	mov	#0,r7
    3910:	d3 37       	mov.l	39f0 <__dtoa_r+0x524>,r3	! 9508 <___eqdf2>
    3912:	68 03       	mov	r0,r8
    3914:	69 13       	mov	r1,r9
    3916:	64 83       	mov	r8,r4
    3918:	65 13       	mov	r1,r5
    391a:	e6 00       	mov	#0,r6
    391c:	43 0b       	jsr	@r3
    391e:	e7 00       	mov	#0,r7
    3920:	20 08       	tst	r0,r0
    3922:	8b 01       	bf	3928 <__dtoa_r+0x45c>
    3924:	a6 96       	bra	4654 <__dtoa_r+0x1188>
    3926:	5d f4       	mov.l	@(16,r15),r13
    3928:	66 a3       	mov	r10,r6
    392a:	64 83       	mov	r8,r4
    392c:	65 93       	mov	r9,r5
    392e:	4d 0b       	jsr	@r13
    3930:	67 b3       	mov	r11,r7
    3932:	d7 30       	mov.l	39f4 <__dtoa_r+0x528>,r7	! 9748 <___fixdfsi>
    3934:	65 13       	mov	r1,r5
    3936:	47 0b       	jsr	@r7
    3938:	64 03       	mov	r0,r4
    393a:	d2 2f       	mov.l	39f8 <__dtoa_r+0x52c>,r2	! 96ac <___floatsidf>
    393c:	6e 03       	mov	r0,r14
    393e:	42 0b       	jsr	@r2
    3940:	64 03       	mov	r0,r4
    3942:	d3 2e       	mov.l	39fc <__dtoa_r+0x530>,r3	! 914c <___muldf3>
    3944:	64 03       	mov	r0,r4
    3946:	65 13       	mov	r1,r5
    3948:	66 a3       	mov	r10,r6
    394a:	43 0b       	jsr	@r3
    394c:	67 b3       	mov	r11,r7
    394e:	d2 2c       	mov.l	3a00 <__dtoa_r+0x534>,r2	! 90f4 <___subdf3>
    3950:	64 83       	mov	r8,r4
    3952:	65 93       	mov	r9,r5
    3954:	66 03       	mov	r0,r6
    3956:	42 0b       	jsr	@r2
    3958:	67 13       	mov	r1,r7
    395a:	63 e3       	mov	r14,r3
    395c:	68 03       	mov	r0,r8
    395e:	73 30       	add	#48,r3
    3960:	50 f4       	mov.l	@(16,r15),r0
    3962:	69 13       	mov	r1,r9
    3964:	2c 30       	mov.b	r3,@r12
    3966:	7c 01       	add	#1,r12
    3968:	63 c3       	mov	r12,r3
    396a:	33 08       	sub	r0,r3
    396c:	50 f9       	mov.l	@(36,r15),r0
    396e:	66 83       	mov	r8,r6
    3970:	67 13       	mov	r1,r7
    3972:	30 30       	cmp/eq	r3,r0
    3974:	8b c6       	bf	3904 <__dtoa_r+0x438>
    3976:	6a e3       	mov	r14,r10
    3978:	6e c3       	mov	r12,r14
    397a:	d2 22       	mov.l	3a04 <__dtoa_r+0x538>,r2	! 90a4 <___adddf3>
    397c:	64 63       	mov	r6,r4
    397e:	42 0b       	jsr	@r2
    3980:	65 73       	mov	r7,r5
    3982:	d3 21       	mov.l	3a08 <__dtoa_r+0x53c>,r3	! 9658 <___ltdf2>
    3984:	68 03       	mov	r0,r8
    3986:	69 13       	mov	r1,r9
    3988:	54 f7       	mov.l	@(28,r15),r4
    398a:	66 83       	mov	r8,r6
    398c:	55 f8       	mov.l	@(32,r15),r5
    398e:	43 0b       	jsr	@r3
    3990:	67 13       	mov	r1,r7
    3992:	40 11       	cmp/pz	r0
    3994:	8b 02       	bf	399c <__dtoa_r+0x4d0>
    3996:	a6 95       	bra	46c4 <__dtoa_r+0x11f8>
    3998:	66 83       	mov	r8,r6
    399a:	00 09       	nop	
    399c:	50 f5       	mov.l	@(20,r15),r0
    399e:	61 e3       	mov	r14,r1
    39a0:	e7 40       	mov	#64,r7
    39a2:	71 ff       	add	#-1,r1
    39a4:	37 fc       	add	r15,r7
    39a6:	5d f4       	mov.l	@(16,r15),r13
    39a8:	6c 10       	mov.b	@r1,r12
    39aa:	1f e4       	mov.l	r14,@(16,r15)
    39ac:	17 08       	mov.l	r0,@(32,r7)
    39ae:	52 f4       	mov.l	@(16,r15),r2
    39b0:	60 c3       	mov	r12,r0
    39b2:	51 f4       	mov.l	@(16,r15),r1
    39b4:	72 ff       	add	#-1,r2
    39b6:	a0 05       	bra	39c4 <__dtoa_r+0x4f8>
    39b8:	63 23       	mov	r2,r3
    39ba:	00 09       	nop	
    39bc:	73 ff       	add	#-1,r3
    39be:	60 30       	mov.b	@r3,r0
    39c0:	61 23       	mov	r2,r1
    39c2:	72 ff       	add	#-1,r2
    39c4:	88 39       	cmp/eq	#57,r0
    39c6:	67 23       	mov	r2,r7
    39c8:	89 02       	bt	39d0 <__dtoa_r+0x504>
    39ca:	a6 4d       	bra	4668 <__dtoa_r+0x119c>
    39cc:	6c 03       	mov	r0,r12
    39ce:	00 09       	nop	
    39d0:	3d 20       	cmp/eq	r2,r13
    39d2:	8b f3       	bf	39bc <__dtoa_r+0x4f0>
    39d4:	e0 60       	mov	#96,r0
    39d6:	00 fe       	mov.l	@(r0,r15),r0
    39d8:	e2 30       	mov	#48,r2
    39da:	2d 20       	mov.b	r2,@r13
    39dc:	70 01       	add	#1,r0
    39de:	67 d3       	mov	r13,r7
    39e0:	e2 31       	mov	#49,r2
    39e2:	1f 14       	mov.l	r1,@(16,r15)
    39e4:	1f 05       	mov.l	r0,@(20,r15)
    39e6:	d8 09       	mov.l	3a0c <__dtoa_r+0x540>,r8	! 5918 <__Bfree>
    39e8:	a0 d9       	bra	3b9e <__dtoa_r+0x6d2>
    39ea:	27 20       	mov.b	r2,@r7
    39ec:	40 24       	rotcl	r0
    39ee:	00 00       	.word 0x0000
    39f0:	00 00       	.word 0x0000
    39f2:	95 08       	mov.w	3a06 <__dtoa_r+0x53a>,r5	! 90a4 <___adddf3>
    39f4:	00 00       	.word 0x0000
    39f6:	97 48       	mov.w	3a8a <__dtoa_r+0x5be>,r7	! 2668
    39f8:	00 00       	.word 0x0000
    39fa:	96 ac       	mov.w	3b56 <__dtoa_r+0x68a>,r6	! 6503
    39fc:	00 00       	.word 0x0000
    39fe:	91 4c       	mov.w	3a9a <__dtoa_r+0x5ce>,r1	! 6b03
    3a00:	00 00       	.word 0x0000
    3a02:	90 f4       	mov.w	3bee <__dtoa_r+0x722>,r0	! f76
    3a04:	00 00       	.word 0x0000
    3a06:	90 a4       	mov.w	3b52 <__dtoa_r+0x686>,r0	! 400b
    3a08:	00 00       	.word 0x0000
    3a0a:	96 58       	mov.w	3abe <__dtoa_r+0x5f2>,r6	! 9
    3a0c:	00 00       	.word 0x0000
    3a0e:	59 18       	mov.l	@(32,r1),r9
    3a10:	02 fe       	mov.l	@(r0,r15),r2
    3a12:	22 28       	tst	r2,r2
    3a14:	89 02       	bt	3a1c <__dtoa_r+0x550>
    3a16:	a1 07       	bra	3c28 <__dtoa_r+0x75c>
    3a18:	53 f3       	mov.l	@(12,r15),r3
    3a1a:	00 09       	nop	
    3a1c:	5b fe       	mov.l	@(56,r15),r11
    3a1e:	ec 00       	mov	#0,r12
    3a20:	59 fa       	mov.l	@(40,r15),r9
    3a22:	da 93       	mov.l	3c70 <__dtoa_r+0x7a4>,r10	! 5b74 <___i2b>
    3a24:	52 f7       	mov.l	@(28,r15),r2
    3a26:	42 15       	cmp/pl	r2
    3a28:	8b 0c       	bf	3a44 <__dtoa_r+0x578>
    3a2a:	49 15       	cmp/pl	r9
    3a2c:	8b 0a       	bf	3a44 <__dtoa_r+0x578>
    3a2e:	32 97       	cmp/gt	r9,r2
    3a30:	61 23       	mov	r2,r1
    3a32:	8b 00       	bf	3a36 <__dtoa_r+0x56a>
    3a34:	61 93       	mov	r9,r1
    3a36:	53 fa       	mov.l	@(40,r15),r3
    3a38:	39 18       	sub	r1,r9
    3a3a:	52 f7       	mov.l	@(28,r15),r2
    3a3c:	33 18       	sub	r1,r3
    3a3e:	1f 3a       	mov.l	r3,@(40,r15)
    3a40:	32 18       	sub	r1,r2
    3a42:	1f 27       	mov.l	r2,@(28,r15)
    3a44:	53 fe       	mov.l	@(56,r15),r3
    3a46:	43 15       	cmp/pl	r3
    3a48:	89 02       	bt	3a50 <__dtoa_r+0x584>
    3a4a:	a3 64       	bra	4116 <__dtoa_r+0xc4a>
    3a4c:	00 09       	nop	
    3a4e:	00 09       	nop	
    3a50:	e0 48       	mov	#72,r0
    3a52:	07 fe       	mov.l	@(r0,r15),r7
    3a54:	27 78       	tst	r7,r7
    3a56:	8b 01       	bf	3a5c <__dtoa_r+0x590>
    3a58:	a3 58       	bra	410c <__dtoa_r+0xc40>
    3a5a:	54 f2       	mov.l	@(8,r15),r4
    3a5c:	4b 15       	cmp/pl	r11
    3a5e:	d8 85       	mov.l	3c74 <__dtoa_r+0x7a8>,r8	! 5918 <__Bfree>
    3a60:	8b 11       	bf	3a86 <__dtoa_r+0x5ba>
    3a62:	d0 85       	mov.l	3c78 <__dtoa_r+0x7ac>,r0	! 5d2c <___pow5mult>
    3a64:	65 c3       	mov	r12,r5
    3a66:	54 f2       	mov.l	@(8,r15),r4
    3a68:	40 0b       	jsr	@r0
    3a6a:	66 b3       	mov	r11,r6
    3a6c:	65 03       	mov	r0,r5
    3a6e:	6c 03       	mov	r0,r12
    3a70:	d0 82       	mov.l	3c7c <__dtoa_r+0x7b0>,r0	! 5b94 <___multiply>
    3a72:	d8 80       	mov.l	3c74 <__dtoa_r+0x7a8>,r8	! 5918 <__Bfree>
    3a74:	56 fc       	mov.l	@(48,r15),r6
    3a76:	40 0b       	jsr	@r0
    3a78:	54 f2       	mov.l	@(8,r15),r4
    3a7a:	1f 01       	mov.l	r0,@(4,r15)
    3a7c:	54 f2       	mov.l	@(8,r15),r4
    3a7e:	48 0b       	jsr	@r8
    3a80:	55 fc       	mov.l	@(48,r15),r5
    3a82:	50 f1       	mov.l	@(4,r15),r0
    3a84:	1f 0c       	mov.l	r0,@(48,r15)
    3a86:	56 fe       	mov.l	@(56,r15),r6
    3a88:	36 b8       	sub	r11,r6
    3a8a:	26 68       	tst	r6,r6
    3a8c:	89 02       	bt	3a94 <__dtoa_r+0x5c8>
    3a8e:	a5 b3       	bra	45f8 <__dtoa_r+0x112c>
    3a90:	54 f2       	mov.l	@(8,r15),r4
    3a92:	00 09       	nop	
    3a94:	54 f2       	mov.l	@(8,r15),r4
    3a96:	4a 0b       	jsr	@r10
    3a98:	e5 01       	mov	#1,r5
    3a9a:	6b 03       	mov	r0,r11
    3a9c:	e0 44       	mov	#68,r0
    3a9e:	00 fe       	mov.l	@(r0,r15),r0
    3aa0:	40 15       	cmp/pl	r0
    3aa2:	8b 05       	bf	3ab0 <__dtoa_r+0x5e4>
    3aa4:	66 03       	mov	r0,r6
    3aa6:	d0 74       	mov.l	3c78 <__dtoa_r+0x7ac>,r0	! 5d2c <___pow5mult>
    3aa8:	65 b3       	mov	r11,r5
    3aaa:	40 0b       	jsr	@r0
    3aac:	54 f2       	mov.l	@(8,r15),r4
    3aae:	6b 03       	mov	r0,r11
    3ab0:	52 f3       	mov.l	@(12,r15),r2
    3ab2:	e1 01       	mov	#1,r1
    3ab4:	ea 00       	mov	#0,r10
    3ab6:	32 17       	cmp/gt	r1,r2
    3ab8:	89 02       	bt	3ac0 <__dtoa_r+0x5f4>
    3aba:	a4 37       	bra	432c <__dtoa_r+0xe60>
    3abc:	2e e8       	tst	r14,r14
    3abe:	00 09       	nop	
    3ac0:	e0 44       	mov	#68,r0
    3ac2:	03 fe       	mov.l	@(r0,r15),r3
    3ac4:	e1 01       	mov	#1,r1
    3ac6:	23 38       	tst	r3,r3
    3ac8:	89 02       	bt	3ad0 <__dtoa_r+0x604>
    3aca:	a3 df       	bra	428c <__dtoa_r+0xdc0>
    3acc:	50 b4       	mov.l	@(16,r11),r0
    3ace:	00 09       	nop	
    3ad0:	50 f7       	mov.l	@(28,r15),r0
    3ad2:	30 1c       	add	r1,r0
    3ad4:	c9 1f       	and	#31,r0
    3ad6:	20 08       	tst	r0,r0
    3ad8:	8b 02       	bf	3ae0 <__dtoa_r+0x614>
    3ada:	a2 ef       	bra	40bc <__dtoa_r+0xbf0>
    3adc:	e0 1c       	mov	#28,r0
    3ade:	00 09       	nop	
    3ae0:	63 0b       	neg	r0,r3
    3ae2:	61 33       	mov	r3,r1
    3ae4:	71 20       	add	#32,r1
    3ae6:	e2 04       	mov	#4,r2
    3ae8:	31 27       	cmp/gt	r2,r1
    3aea:	89 01       	bt	3af0 <__dtoa_r+0x624>
    3aec:	a6 62       	bra	47b4 <__dtoa_r+0x12e8>
    3aee:	60 13       	mov	r1,r0
    3af0:	60 33       	mov	r3,r0
    3af2:	70 1c       	add	#28,r0
    3af4:	52 fa       	mov.l	@(40,r15),r2
    3af6:	39 0c       	add	r0,r9
    3af8:	53 f7       	mov.l	@(28,r15),r3
    3afa:	32 0c       	add	r0,r2
    3afc:	1f 2a       	mov.l	r2,@(40,r15)
    3afe:	33 0c       	add	r0,r3
    3b00:	1f 37       	mov.l	r3,@(28,r15)
    3b02:	52 fa       	mov.l	@(40,r15),r2
    3b04:	42 15       	cmp/pl	r2
    3b06:	8b 05       	bf	3b14 <__dtoa_r+0x648>
    3b08:	d0 5d       	mov.l	3c80 <__dtoa_r+0x7b4>,r0	! 5e00 <___lshift>
    3b0a:	66 23       	mov	r2,r6
    3b0c:	54 f2       	mov.l	@(8,r15),r4
    3b0e:	40 0b       	jsr	@r0
    3b10:	55 fc       	mov.l	@(48,r15),r5
    3b12:	1f 0c       	mov.l	r0,@(48,r15)
    3b14:	53 f7       	mov.l	@(28,r15),r3
    3b16:	43 15       	cmp/pl	r3
    3b18:	8b 05       	bf	3b26 <__dtoa_r+0x65a>
    3b1a:	d0 59       	mov.l	3c80 <__dtoa_r+0x7b4>,r0	! 5e00 <___lshift>
    3b1c:	65 b3       	mov	r11,r5
    3b1e:	54 f2       	mov.l	@(8,r15),r4
    3b20:	40 0b       	jsr	@r0
    3b22:	66 33       	mov	r3,r6
    3b24:	6b 03       	mov	r0,r11
    3b26:	52 fd       	mov.l	@(52,r15),r2
    3b28:	22 28       	tst	r2,r2
    3b2a:	89 01       	bt	3b30 <__dtoa_r+0x664>
    3b2c:	a3 b8       	bra	42a0 <__dtoa_r+0xdd4>
    3b2e:	65 b3       	mov	r11,r5
    3b30:	52 f3       	mov.l	@(12,r15),r2
    3b32:	e1 02       	mov	#2,r1
    3b34:	32 17       	cmp/gt	r1,r2
    3b36:	8b 02       	bf	3b3e <__dtoa_r+0x672>
    3b38:	50 f9       	mov.l	@(36,r15),r0
    3b3a:	40 15       	cmp/pl	r0
    3b3c:	8b 02       	bf	3b44 <__dtoa_r+0x678>
    3b3e:	a2 6b       	bra	4018 <__dtoa_r+0xb4c>
    3b40:	e0 48       	mov	#72,r0
    3b42:	00 09       	nop	
    3b44:	50 f9       	mov.l	@(36,r15),r0
    3b46:	20 08       	tst	r0,r0
    3b48:	8b 0c       	bf	3b64 <__dtoa_r+0x698>
    3b4a:	d0 4e       	mov.l	3c84 <__dtoa_r+0x7b8>,r0	! 5930 <___multadd>
    3b4c:	65 b3       	mov	r11,r5
    3b4e:	54 f2       	mov.l	@(8,r15),r4
    3b50:	e6 05       	mov	#5,r6
    3b52:	40 0b       	jsr	@r0
    3b54:	e7 00       	mov	#0,r7
    3b56:	65 03       	mov	r0,r5
    3b58:	6b 03       	mov	r0,r11
    3b5a:	d0 4b       	mov.l	3c88 <__dtoa_r+0x7bc>,r0	! 5efc <___mcmp>
    3b5c:	40 0b       	jsr	@r0
    3b5e:	54 fc       	mov.l	@(48,r15),r4
    3b60:	40 15       	cmp/pl	r0
    3b62:	89 01       	bt	3b68 <__dtoa_r+0x69c>
    3b64:	a2 51       	bra	400a <__dtoa_r+0xb3e>
    3b66:	00 09       	nop	
    3b68:	50 f4       	mov.l	@(16,r15),r0
    3b6a:	e1 31       	mov	#49,r1
    3b6c:	5d f4       	mov.l	@(16,r15),r13
    3b6e:	e9 00       	mov	#0,r9
    3b70:	20 10       	mov.b	r1,@r0
    3b72:	50 f5       	mov.l	@(20,r15),r0
    3b74:	70 01       	add	#1,r0
    3b76:	1f 05       	mov.l	r0,@(20,r15)
    3b78:	60 d3       	mov	r13,r0
    3b7a:	70 01       	add	#1,r0
    3b7c:	1f 04       	mov.l	r0,@(16,r15)
    3b7e:	54 f2       	mov.l	@(8,r15),r4
    3b80:	48 0b       	jsr	@r8
    3b82:	65 b3       	mov	r11,r5
    3b84:	2c c8       	tst	r12,r12
    3b86:	89 0a       	bt	3b9e <__dtoa_r+0x6d2>
    3b88:	39 c0       	cmp/eq	r12,r9
    3b8a:	e2 ff       	mov	#-1,r2
    3b8c:	60 2a       	negc	r2,r0
    3b8e:	c8 ff       	tst	#-1,r0
    3b90:	89 02       	bt	3b98 <__dtoa_r+0x6cc>
    3b92:	a2 cd       	bra	4130 <__dtoa_r+0xc64>
    3b94:	29 98       	tst	r9,r9
    3b96:	00 09       	nop	
    3b98:	54 f2       	mov.l	@(8,r15),r4
    3b9a:	48 0b       	jsr	@r8
    3b9c:	65 c3       	mov	r12,r5
    3b9e:	54 f2       	mov.l	@(8,r15),r4
    3ba0:	48 0b       	jsr	@r8
    3ba2:	55 fc       	mov.l	@(48,r15),r5
    3ba4:	50 f4       	mov.l	@(16,r15),r0
    3ba6:	e2 00       	mov	#0,r2
    3ba8:	e1 7c       	mov	#124,r1
    3baa:	20 20       	mov.b	r2,@r0
    3bac:	31 fc       	add	r15,r1
    3bae:	52 f5       	mov.l	@(20,r15),r2
    3bb0:	51 16       	mov.l	@(24,r1),r1
    3bb2:	72 01       	add	#1,r2
    3bb4:	21 22       	mov.l	r2,@r1
    3bb6:	e2 7c       	mov	#124,r2
    3bb8:	32 fc       	add	r15,r2
    3bba:	52 28       	mov.l	@(32,r2),r2
    3bbc:	22 28       	tst	r2,r2
    3bbe:	8b 01       	bf	3bc4 <__dtoa_r+0x6f8>
    3bc0:	ac c5       	bra	354e <__dtoa_r+0x82>
    3bc2:	60 d3       	mov	r13,r0
    3bc4:	22 02       	mov.l	r0,@r2
    3bc6:	60 d3       	mov	r13,r0
    3bc8:	7f 70       	add	#112,r15
    3bca:	4f 26       	lds.l	@r15+,pr
    3bcc:	6e f6       	mov.l	@r15+,r14
    3bce:	6d f6       	mov.l	@r15+,r13
    3bd0:	6c f6       	mov.l	@r15+,r12
    3bd2:	6b f6       	mov.l	@r15+,r11
    3bd4:	6a f6       	mov.l	@r15+,r10
    3bd6:	69 f6       	mov.l	@r15+,r9
    3bd8:	68 f6       	mov.l	@r15+,r8
    3bda:	00 0b       	rts	
    3bdc:	00 09       	nop	
    3bde:	00 09       	nop	
    3be0:	53 fa       	mov.l	@(40,r15),r3
    3be2:	62 0b       	neg	r0,r2
    3be4:	1f 2e       	mov.l	r2,@(56,r15)
    3be6:	33 08       	sub	r0,r3
    3be8:	e0 44       	mov	#68,r0
    3bea:	1f 3a       	mov.l	r3,@(40,r15)
    3bec:	ad 80       	bra	36f0 <__dtoa_r+0x224>
    3bee:	0f 76       	mov.l	r7,@(r0,r15)
    3bf0:	e2 00       	mov	#0,r2
    3bf2:	1f ca       	mov.l	r12,@(40,r15)
    3bf4:	ad 6f       	bra	36d6 <__dtoa_r+0x20a>
    3bf6:	1f 27       	mov.l	r2,@(28,r15)
    3bf8:	d2 24       	mov.l	3c8c <__dtoa_r+0x7c0>,r2	! 96ac <___floatsidf>
    3bfa:	42 0b       	jsr	@r2
    3bfc:	54 f5       	mov.l	@(20,r15),r4
    3bfe:	64 03       	mov	r0,r4
    3c00:	d0 23       	mov.l	3c90 <__dtoa_r+0x7c4>,r0	! 955c <___nedf2>
    3c02:	65 13       	mov	r1,r5
    3c04:	66 83       	mov	r8,r6
    3c06:	40 0b       	jsr	@r0
    3c08:	67 93       	mov	r9,r7
    3c0a:	20 08       	tst	r0,r0
    3c0c:	89 02       	bt	3c14 <__dtoa_r+0x748>
    3c0e:	50 f5       	mov.l	@(20,r15),r0
    3c10:	70 ff       	add	#-1,r0
    3c12:	1f 05       	mov.l	r0,@(20,r15)
    3c14:	ad 3b       	bra	368e <__dtoa_r+0x1c2>
    3c16:	50 f5       	mov.l	@(20,r15),r0
    3c18:	95 29       	mov.w	3c6e <__dtoa_r+0x7a2>,r5	! fbee
    3c1a:	d0 1e       	mov.l	3c94 <__dtoa_r+0x7c8>,r0	! 8514 <___ashlsi3>
    3c1c:	40 0b       	jsr	@r0
    3c1e:	35 b8       	sub	r11,r5
    3c20:	ad c9       	bra	37b6 <__dtoa_r+0x2ea>
    3c22:	64 03       	mov	r0,r4
    3c24:	ad 4d       	bra	36c2 <__dtoa_r+0x1f6>
    3c26:	1f 3d       	mov.l	r3,@(52,r15)
    3c28:	e2 01       	mov	#1,r2
    3c2a:	33 27       	cmp/gt	r2,r3
    3c2c:	89 02       	bt	3c34 <__dtoa_r+0x768>
    3c2e:	a5 09       	bra	4644 <__dtoa_r+0x1178>
    3c30:	e0 5c       	mov	#92,r0
    3c32:	00 09       	nop	
    3c34:	51 f9       	mov.l	@(36,r15),r1
    3c36:	52 fe       	mov.l	@(56,r15),r2
    3c38:	71 ff       	add	#-1,r1
    3c3a:	32 13       	cmp/ge	r1,r2
    3c3c:	89 02       	bt	3c44 <__dtoa_r+0x778>
    3c3e:	a4 7f       	bra	4540 <__dtoa_r+0x1074>
    3c40:	53 fe       	mov.l	@(56,r15),r3
    3c42:	00 09       	nop	
    3c44:	6b 23       	mov	r2,r11
    3c46:	3b 18       	sub	r1,r11
    3c48:	50 f9       	mov.l	@(36,r15),r0
    3c4a:	59 fa       	mov.l	@(40,r15),r9
    3c4c:	40 11       	cmp/pz	r0
    3c4e:	89 01       	bt	3c54 <__dtoa_r+0x788>
    3c50:	a5 04       	bra	465c <__dtoa_r+0x1190>
    3c52:	39 08       	sub	r0,r9
    3c54:	52 f9       	mov.l	@(36,r15),r2
    3c56:	53 fa       	mov.l	@(40,r15),r3
    3c58:	e5 01       	mov	#1,r5
    3c5a:	da 05       	mov.l	3c70 <__dtoa_r+0x7a4>,r10	! 5b74 <___i2b>
    3c5c:	33 2c       	add	r2,r3
    3c5e:	1f 3a       	mov.l	r3,@(40,r15)
    3c60:	53 f7       	mov.l	@(28,r15),r3
    3c62:	54 f2       	mov.l	@(8,r15),r4
    3c64:	33 2c       	add	r2,r3
    3c66:	4a 0b       	jsr	@r10
    3c68:	1f 37       	mov.l	r3,@(28,r15)
    3c6a:	ae db       	bra	3a24 <__dtoa_r+0x558>
    3c6c:	6c 03       	mov	r0,r12
    3c6e:	fb ee       	.word 0xfbee
    3c70:	00 00       	.word 0x0000
    3c72:	5b 74       	mov.l	@(16,r7),r11
    3c74:	00 00       	.word 0x0000
    3c76:	59 18       	mov.l	@(32,r1),r9
    3c78:	00 00       	.word 0x0000
    3c7a:	5d 2c       	mov.l	@(48,r2),r13
    3c7c:	00 00       	.word 0x0000
    3c7e:	5b 94       	mov.l	@(16,r9),r11
    3c80:	00 00       	.word 0x0000
    3c82:	5e 00       	mov.l	@(0,r0),r14
    3c84:	00 00       	.word 0x0000
    3c86:	59 30       	mov.l	@(0,r3),r9
    3c88:	00 00       	.word 0x0000
    3c8a:	5e fc       	mov.l	@(48,r15),r14
    3c8c:	00 00       	.word 0x0000
    3c8e:	96 ac       	mov.w	3dea <__dtoa_r+0x91e>,r6	! 9
    3c90:	00 00       	.word 0x0000
    3c92:	95 5c       	mov.w	3d4e <__dtoa_r+0x882>,r5	! 8913
    3c94:	00 00       	.word 0x0000
    3c96:	85 14       	mov.w	@(8,r1),r0
    3c98:	e3 00       	mov	#0,r3
    3c9a:	e0 48       	mov	#72,r0
    3c9c:	0f 36       	mov.l	r3,@(r0,r15)
    3c9e:	90 bb       	mov.w	3e18 <__dtoa_r+0x94c>,r0	! 90
    3ca0:	07 fe       	mov.l	@(r0,r15),r7
    3ca2:	47 15       	cmp/pl	r7
    3ca4:	89 02       	bt	3cac <__dtoa_r+0x7e0>
    3ca6:	a4 3b       	bra	4520 <__dtoa_r+0x1054>
    3ca8:	e0 50       	mov	#80,r0
    3caa:	00 09       	nop	
    3cac:	e2 0e       	mov	#14,r2
    3cae:	32 72       	cmp/hs	r7,r2
    3cb0:	00 29       	movt	r0
    3cb2:	68 03       	mov	r0,r8
    3cb4:	e0 50       	mov	#80,r0
    3cb6:	0f 76       	mov.l	r7,@(r0,r15)
    3cb8:	28 19       	and	r1,r8
    3cba:	1f 79       	mov.l	r7,@(36,r15)
    3cbc:	e1 00       	mov	#0,r1
    3cbe:	1a 11       	mov.l	r1,@(4,r10)
    3cc0:	e1 17       	mov	#23,r1
    3cc2:	37 16       	cmp/hi	r1,r7
    3cc4:	e5 00       	mov	#0,r5
    3cc6:	8b 09       	bf	3cdc <__dtoa_r+0x810>
    3cc8:	e2 01       	mov	#1,r2
    3cca:	e1 04       	mov	#4,r1
    3ccc:	31 1c       	add	r1,r1
    3cce:	63 13       	mov	r1,r3
    3cd0:	73 14       	add	#20,r3
    3cd2:	33 76       	cmp/hi	r7,r3
    3cd4:	65 23       	mov	r2,r5
    3cd6:	72 01       	add	#1,r2
    3cd8:	8b f8       	bf	3ccc <__dtoa_r+0x800>
    3cda:	1a 51       	mov.l	r5,@(4,r10)
    3cdc:	d7 4f       	mov.l	3e1c <__dtoa_r+0x950>,r7	! 58a0 <__Balloc>
    3cde:	e0 4c       	mov	#76,r0
    3ce0:	54 f2       	mov.l	@(8,r15),r4
    3ce2:	47 0b       	jsr	@r7
    3ce4:	0f 76       	mov.l	r7,@(r0,r15)
    3ce6:	1f 04       	mov.l	r0,@(16,r15)
    3ce8:	28 88       	tst	r8,r8
    3cea:	1a 00       	mov.l	r0,@(0,r10)
    3cec:	8b 02       	bf	3cf4 <__dtoa_r+0x828>
    3cee:	ad 8b       	bra	3808 <__dtoa_r+0x33c>
    3cf0:	52 fb       	mov.l	@(44,r15),r2
    3cf2:	00 09       	nop	
    3cf4:	e0 40       	mov	#64,r0
    3cf6:	30 fc       	add	r15,r0
    3cf8:	10 d5       	mov.l	r13,@(20,r0)
    3cfa:	10 e6       	mov.l	r14,@(24,r0)
    3cfc:	50 f5       	mov.l	@(20,r15),r0
    3cfe:	40 15       	cmp/pl	r0
    3d00:	89 02       	bt	3d08 <__dtoa_r+0x83c>
    3d02:	a2 23       	bra	414c <__dtoa_r+0xc80>
    3d04:	68 0b       	neg	r0,r8
    3d06:	00 09       	nop	
    3d08:	5e f5       	mov.l	@(20,r15),r14
    3d0a:	c9 0f       	and	#15,r0
    3d0c:	d1 44       	mov.l	3e20 <__dtoa_r+0x954>,r1	! 9f04 <___mprec_tens>
    3d0e:	4e 21       	shar	r14
    3d10:	4e 21       	shar	r14
    3d12:	4e 21       	shar	r14
    3d14:	40 08       	shll2	r0
    3d16:	30 0c       	add	r0,r0
    3d18:	4e 21       	shar	r14
    3d1a:	31 0c       	add	r0,r1
    3d1c:	60 e3       	mov	r14,r0
    3d1e:	c8 10       	tst	#16,r0
    3d20:	68 12       	mov.l	@r1,r8
    3d22:	59 11       	mov.l	@(4,r1),r9
    3d24:	8b 02       	bf	3d2c <__dtoa_r+0x860>
    3d26:	a1 f9       	bra	411c <__dtoa_r+0xc50>
    3d28:	e0 40       	mov	#64,r0
    3d2a:	00 09       	nop	
    3d2c:	e1 0f       	mov	#15,r1
    3d2e:	2e 19       	and	r1,r14
    3d30:	dd 3c       	mov.l	3e24 <__dtoa_r+0x958>,r13	! 93a0 <___divdf3>
    3d32:	e2 40       	mov	#64,r2
    3d34:	d1 3c       	mov.l	3e28 <__dtoa_r+0x95c>,r1	! 9edc <___mprec_bigtens>
    3d36:	32 fc       	add	r15,r2
    3d38:	54 25       	mov.l	@(20,r2),r4
    3d3a:	ec 03       	mov	#3,r12
    3d3c:	55 26       	mov.l	@(24,r2),r5
    3d3e:	56 18       	mov.l	@(32,r1),r6
    3d40:	4d 0b       	jsr	@r13
    3d42:	57 19       	mov.l	@(36,r1),r7
    3d44:	e3 3c       	mov	#60,r3
    3d46:	33 fc       	add	r15,r3
    3d48:	23 02       	mov.l	r0,@r3
    3d4a:	13 11       	mov.l	r1,@(4,r3)
    3d4c:	2e e8       	tst	r14,r14
    3d4e:	89 13       	bt	3d78 <__dtoa_r+0x8ac>
    3d50:	da 35       	mov.l	3e28 <__dtoa_r+0x95c>,r10	! 9edc <___mprec_bigtens>
    3d52:	64 83       	mov	r8,r4
    3d54:	65 93       	mov	r9,r5
    3d56:	00 09       	nop	
    3d58:	60 e3       	mov	r14,r0
    3d5a:	c8 01       	tst	#1,r0
    3d5c:	89 06       	bt	3d6c <__dtoa_r+0x8a0>
    3d5e:	d2 33       	mov.l	3e2c <__dtoa_r+0x960>,r2	! 914c <___muldf3>
    3d60:	7c 01       	add	#1,r12
    3d62:	66 a2       	mov.l	@r10,r6
    3d64:	42 0b       	jsr	@r2
    3d66:	57 a1       	mov.l	@(4,r10),r7
    3d68:	64 03       	mov	r0,r4
    3d6a:	65 13       	mov	r1,r5
    3d6c:	4e 21       	shar	r14
    3d6e:	2e e8       	tst	r14,r14
    3d70:	7a 08       	add	#8,r10
    3d72:	8b f1       	bf	3d58 <__dtoa_r+0x88c>
    3d74:	68 43       	mov	r4,r8
    3d76:	69 53       	mov	r5,r9
    3d78:	e3 3c       	mov	#60,r3
    3d7a:	33 fc       	add	r15,r3
    3d7c:	64 32       	mov.l	@r3,r4
    3d7e:	66 83       	mov	r8,r6
    3d80:	55 31       	mov.l	@(4,r3),r5
    3d82:	4d 0b       	jsr	@r13
    3d84:	67 93       	mov	r9,r7
    3d86:	6a 03       	mov	r0,r10
    3d88:	6b 13       	mov	r1,r11
    3d8a:	52 fd       	mov.l	@(52,r15),r2
    3d8c:	22 28       	tst	r2,r2
    3d8e:	89 09       	bt	3da4 <__dtoa_r+0x8d8>
    3d90:	d3 27       	mov.l	3e30 <__dtoa_r+0x964>,r3	! 9658 <___ltdf2>
    3d92:	64 a3       	mov	r10,r4
    3d94:	65 b3       	mov	r11,r5
    3d96:	d6 27       	mov.l	3e34 <__dtoa_r+0x968>,r6	! 3ff00000
    3d98:	43 0b       	jsr	@r3
    3d9a:	e7 00       	mov	#0,r7
    3d9c:	40 11       	cmp/pz	r0
    3d9e:	89 01       	bt	3da4 <__dtoa_r+0x8d8>
    3da0:	a3 da       	bra	4558 <__dtoa_r+0x108c>
    3da2:	50 f9       	mov.l	@(36,r15),r0
    3da4:	d2 24       	mov.l	3e38 <__dtoa_r+0x96c>,r2	! 96ac <___floatsidf>
    3da6:	42 0b       	jsr	@r2
    3da8:	64 c3       	mov	r12,r4
    3daa:	d3 20       	mov.l	3e2c <__dtoa_r+0x960>,r3	! 914c <___muldf3>
    3dac:	64 03       	mov	r0,r4
    3dae:	65 13       	mov	r1,r5
    3db0:	66 a3       	mov	r10,r6
    3db2:	43 0b       	jsr	@r3
    3db4:	67 b3       	mov	r11,r7
    3db6:	d2 21       	mov.l	3e3c <__dtoa_r+0x970>,r2	! 90a4 <___adddf3>
    3db8:	64 03       	mov	r0,r4
    3dba:	65 13       	mov	r1,r5
    3dbc:	d6 20       	mov.l	3e40 <__dtoa_r+0x974>,r6	! 401c0000
    3dbe:	42 0b       	jsr	@r2
    3dc0:	e7 00       	mov	#0,r7
    3dc2:	6c 03       	mov	r0,r12
    3dc4:	50 f9       	mov.l	@(36,r15),r0
    3dc6:	6d 13       	mov	r1,r13
    3dc8:	d1 1e       	mov.l	3e44 <__dtoa_r+0x978>,r1	! fcc00000
    3dca:	20 08       	tst	r0,r0
    3dcc:	3c 1c       	add	r1,r12
    3dce:	8b 01       	bf	3dd4 <__dtoa_r+0x908>
    3dd0:	a0 fa       	bra	3fc8 <__dtoa_r+0xafc>
    3dd2:	00 09       	nop	
    3dd4:	50 f5       	mov.l	@(20,r15),r0
    3dd6:	e7 40       	mov	#64,r7
    3dd8:	37 fc       	add	r15,r7
    3dda:	53 f9       	mov.l	@(36,r15),r3
    3ddc:	17 08       	mov.l	r0,@(32,r7)
    3dde:	e0 48       	mov	#72,r0
    3de0:	01 fe       	mov.l	@(r0,r15),r1
    3de2:	21 18       	tst	r1,r1
    3de4:	8b 02       	bf	3dec <__dtoa_r+0x920>
    3de6:	a1 e7       	bra	41b8 <__dtoa_r+0xcec>
    3de8:	60 33       	mov	r3,r0
    3dea:	00 09       	nop	
    3dec:	62 33       	mov	r3,r2
    3dee:	d1 0c       	mov.l	3e20 <__dtoa_r+0x954>,r1	! 9f04 <___mprec_tens>
    3df0:	72 ff       	add	#-1,r2
    3df2:	42 08       	shll2	r2
    3df4:	d0 0b       	mov.l	3e24 <__dtoa_r+0x958>,r0	! 93a0 <___divdf3>
    3df6:	32 2c       	add	r2,r2
    3df8:	31 2c       	add	r2,r1
    3dfa:	1f 31       	mov.l	r3,@(4,r15)
    3dfc:	e5 00       	mov	#0,r5
    3dfe:	d4 12       	mov.l	3e48 <__dtoa_r+0x97c>,r4	! 3fe00000
    3e00:	66 12       	mov.l	@r1,r6
    3e02:	40 0b       	jsr	@r0
    3e04:	57 11       	mov.l	@(4,r1),r7
    3e06:	d2 11       	mov.l	3e4c <__dtoa_r+0x980>,r2	! 90f4 <___subdf3>
    3e08:	66 c3       	mov	r12,r6
    3e0a:	67 d3       	mov	r13,r7
    3e0c:	64 03       	mov	r0,r4
    3e0e:	42 0b       	jsr	@r2
    3e10:	65 13       	mov	r1,r5
    3e12:	d7 0f       	mov.l	3e50 <__dtoa_r+0x984>,r7	! 9748 <___fixdfsi>
    3e14:	a0 1e       	bra	3e54 <__dtoa_r+0x988>
    3e16:	65 b3       	mov	r11,r5
    3e18:	00 90       	.word 0x0090
    3e1a:	00 09       	nop	
    3e1c:	00 00       	.word 0x0000
    3e1e:	58 a0       	mov.l	@(0,r10),r8
    3e20:	00 00       	.word 0x0000
    3e22:	9f 04       	mov.w	3e2e <__dtoa_r+0x962>,r15	! 914c <___muldf3>
    3e24:	00 00       	.word 0x0000
    3e26:	93 a0       	mov.w	3f6a <__dtoa_r+0xa9e>,r3	! e048
    3e28:	00 00       	.word 0x0000
    3e2a:	9e dc       	mov.w	3fe6 <__dtoa_r+0xb1a>,r14	! 8b01
    3e2c:	00 00       	.word 0x0000
    3e2e:	91 4c       	mov.w	3eca <__dtoa_r+0x9fe>,r1	! 9
    3e30:	00 00       	.word 0x0000
    3e32:	96 58       	mov.w	3ee6 <__dtoa_r+0xa1a>,r6	! a3bb
    3e34:	3f f0       	cmp/eq	r15,r15
    3e36:	00 00       	.word 0x0000
    3e38:	00 00       	.word 0x0000
    3e3a:	96 ac       	mov.w	3f96 <__dtoa_r+0xaca>,r6	! e001
    3e3c:	00 00       	.word 0x0000
    3e3e:	90 a4       	mov.w	3f8a <__dtoa_r+0xabe>,r0	! 229
    3e40:	40 1c       	.word 0x401c
    3e42:	00 00       	.word 0x0000
    3e44:	fc c0       	.word 0xfcc0
    3e46:	00 00       	.word 0x0000
    3e48:	3f e0       	cmp/eq	r14,r15
    3e4a:	00 00       	.word 0x0000
    3e4c:	00 00       	.word 0x0000
    3e4e:	90 f4       	mov.w	403a <__dtoa_r+0xb6e>,r0	! 58fc
    3e50:	00 00       	.word 0x0000
    3e52:	97 48       	mov.w	3ee6 <__dtoa_r+0xa1a>,r7	! a3bb
    3e54:	6e 13       	mov	r1,r14
    3e56:	64 a3       	mov	r10,r4
    3e58:	47 0b       	jsr	@r7
    3e5a:	6d 03       	mov	r0,r13
    3e5c:	d2 99       	mov.l	40c4 <__dtoa_r+0xbf8>,r2	! 96ac <___floatsidf>
    3e5e:	6c 03       	mov	r0,r12
    3e60:	42 0b       	jsr	@r2
    3e62:	64 03       	mov	r0,r4
    3e64:	d2 98       	mov.l	40c8 <__dtoa_r+0xbfc>,r2	! 90f4 <___subdf3>
    3e66:	64 a3       	mov	r10,r4
    3e68:	65 b3       	mov	r11,r5
    3e6a:	66 03       	mov	r0,r6
    3e6c:	42 0b       	jsr	@r2
    3e6e:	67 13       	mov	r1,r7
    3e70:	68 03       	mov	r0,r8
    3e72:	da 96       	mov.l	40cc <__dtoa_r+0xc00>,r10	! 95b0 <___gtdf2>
    3e74:	7c 30       	add	#48,r12
    3e76:	50 f4       	mov.l	@(16,r15),r0
    3e78:	6c ce       	exts.b	r12,r12
    3e7a:	69 13       	mov	r1,r9
    3e7c:	6b 03       	mov	r0,r11
    3e7e:	20 c0       	mov.b	r12,@r0
    3e80:	64 d3       	mov	r13,r4
    3e82:	65 e3       	mov	r14,r5
    3e84:	66 83       	mov	r8,r6
    3e86:	4a 0b       	jsr	@r10
    3e88:	67 13       	mov	r1,r7
    3e8a:	40 15       	cmp/pl	r0
    3e8c:	7b 01       	add	#1,r11
    3e8e:	8b 01       	bf	3e94 <__dtoa_r+0x9c8>
    3e90:	a4 8a       	bra	47a8 <__dtoa_r+0x12dc>
    3e92:	e0 60       	mov	#96,r0
    3e94:	d2 8c       	mov.l	40c8 <__dtoa_r+0xbfc>,r2	! 90f4 <___subdf3>
    3e96:	e5 00       	mov	#0,r5
    3e98:	d4 8d       	mov.l	40d0 <__dtoa_r+0xc04>,r4	! 3ff00000
    3e9a:	66 83       	mov	r8,r6
    3e9c:	42 0b       	jsr	@r2
    3e9e:	67 93       	mov	r9,r7
    3ea0:	64 d3       	mov	r13,r4
    3ea2:	65 e3       	mov	r14,r5
    3ea4:	66 03       	mov	r0,r6
    3ea6:	4a 0b       	jsr	@r10
    3ea8:	67 13       	mov	r1,r7
    3eaa:	40 15       	cmp/pl	r0
    3eac:	53 f1       	mov.l	@(4,r15),r3
    3eae:	8b 01       	bf	3eb4 <__dtoa_r+0x9e8>
    3eb0:	a4 78       	bra	47a4 <__dtoa_r+0x12d8>
    3eb2:	5d f4       	mov.l	@(16,r15),r13
    3eb4:	e1 01       	mov	#1,r1
    3eb6:	33 17       	cmp/gt	r1,r3
    3eb8:	8b 1b       	bf	3ef2 <__dtoa_r+0xa26>
    3eba:	57 f4       	mov.l	@(16,r15),r7
    3ebc:	6a b3       	mov	r11,r10
    3ebe:	6c d3       	mov	r13,r12
    3ec0:	37 3c       	add	r3,r7
    3ec2:	1f 7f       	mov.l	r7,@(60,r15)
    3ec4:	db 80       	mov.l	40c8 <__dtoa_r+0xbfc>,r11	! 90f4 <___subdf3>
    3ec6:	a0 17       	bra	3ef8 <__dtoa_r+0xa2c>
    3ec8:	6d e3       	mov	r14,r13
    3eca:	00 09       	nop	
    3ecc:	d4 80       	mov.l	40d0 <__dtoa_r+0xc04>,r4	! 3ff00000
    3ece:	e5 00       	mov	#0,r5
    3ed0:	66 83       	mov	r8,r6
    3ed2:	4b 0b       	jsr	@r11
    3ed4:	67 93       	mov	r9,r7
    3ed6:	65 13       	mov	r1,r5
    3ed8:	d1 7e       	mov.l	40d4 <__dtoa_r+0xc08>,r1	! 9658 <___ltdf2>
    3eda:	64 03       	mov	r0,r4
    3edc:	66 c3       	mov	r12,r6
    3ede:	41 0b       	jsr	@r1
    3ee0:	67 d3       	mov	r13,r7
    3ee2:	40 11       	cmp/pz	r0
    3ee4:	89 02       	bt	3eec <__dtoa_r+0xa20>
    3ee6:	a3 bb       	bra	4660 <__dtoa_r+0x1194>
    3ee8:	5d f4       	mov.l	@(16,r15),r13
    3eea:	00 09       	nop	
    3eec:	52 ff       	mov.l	@(60,r15),r2
    3eee:	3a 20       	cmp/eq	r2,r10
    3ef0:	8b 02       	bf	3ef8 <__dtoa_r+0xa2c>
    3ef2:	a1 27       	bra	4144 <__dtoa_r+0xc78>
    3ef4:	e7 40       	mov	#64,r7
    3ef6:	00 09       	nop	
    3ef8:	d3 77       	mov.l	40d8 <__dtoa_r+0xc0c>,r3	! 914c <___muldf3>
    3efa:	64 c3       	mov	r12,r4
    3efc:	65 d3       	mov	r13,r5
    3efe:	d6 77       	mov.l	40dc <__dtoa_r+0xc10>,r6	! 40240000
    3f00:	43 0b       	jsr	@r3
    3f02:	e7 00       	mov	#0,r7
    3f04:	d2 74       	mov.l	40d8 <__dtoa_r+0xc0c>,r2	! 914c <___muldf3>
    3f06:	64 83       	mov	r8,r4
    3f08:	d6 74       	mov.l	40dc <__dtoa_r+0xc10>,r6	! 40240000
    3f0a:	65 93       	mov	r9,r5
    3f0c:	e7 00       	mov	#0,r7
    3f0e:	6c 03       	mov	r0,r12
    3f10:	42 0b       	jsr	@r2
    3f12:	6d 13       	mov	r1,r13
    3f14:	d3 72       	mov.l	40e0 <__dtoa_r+0xc14>,r3	! 9748 <___fixdfsi>
    3f16:	68 03       	mov	r0,r8
    3f18:	69 13       	mov	r1,r9
    3f1a:	64 83       	mov	r8,r4
    3f1c:	43 0b       	jsr	@r3
    3f1e:	65 13       	mov	r1,r5
    3f20:	d7 68       	mov.l	40c4 <__dtoa_r+0xbf8>,r7	! 96ac <___floatsidf>
    3f22:	6e 03       	mov	r0,r14
    3f24:	47 0b       	jsr	@r7
    3f26:	64 03       	mov	r0,r4
    3f28:	d2 67       	mov.l	40c8 <__dtoa_r+0xbfc>,r2	! 90f4 <___subdf3>
    3f2a:	64 83       	mov	r8,r4
    3f2c:	65 93       	mov	r9,r5
    3f2e:	66 03       	mov	r0,r6
    3f30:	42 0b       	jsr	@r2
    3f32:	67 13       	mov	r1,r7
    3f34:	d3 67       	mov.l	40d4 <__dtoa_r+0xc08>,r3	! 9658 <___ltdf2>
    3f36:	7e 30       	add	#48,r14
    3f38:	68 03       	mov	r0,r8
    3f3a:	6e ee       	exts.b	r14,r14
    3f3c:	2a e0       	mov.b	r14,@r10
    3f3e:	69 13       	mov	r1,r9
    3f40:	64 83       	mov	r8,r4
    3f42:	65 13       	mov	r1,r5
    3f44:	66 c3       	mov	r12,r6
    3f46:	43 0b       	jsr	@r3
    3f48:	67 d3       	mov	r13,r7
    3f4a:	40 11       	cmp/pz	r0
    3f4c:	7a 01       	add	#1,r10
    3f4e:	89 bd       	bt	3ecc <__dtoa_r+0xa00>
    3f50:	e0 60       	mov	#96,r0
    3f52:	02 fe       	mov.l	@(r0,r15),r2
    3f54:	5d f4       	mov.l	@(16,r15),r13
    3f56:	1f 25       	mov.l	r2,@(20,r15)
    3f58:	d8 62       	mov.l	40e4 <__dtoa_r+0xc18>,r8	! 5918 <__Bfree>
    3f5a:	ae 20       	bra	3b9e <__dtoa_r+0x6d2>
    3f5c:	1f a4       	mov.l	r10,@(16,r15)
    3f5e:	00 09       	nop	
    3f60:	e3 01       	mov	#1,r3
    3f62:	e0 48       	mov	#72,r0
    3f64:	ae 9b       	bra	3c9e <__dtoa_r+0x7d2>
    3f66:	0f 36       	mov.l	r3,@(r0,r15)
    3f68:	e7 00       	mov	#0,r7
    3f6a:	e0 48       	mov	#72,r0
    3f6c:	0f 76       	mov.l	r7,@(r0,r15)
    3f6e:	90 a7       	mov.w	40c0 <__dtoa_r+0xbf4>,r0	! 90
    3f70:	02 fe       	mov.l	@(r0,r15),r2
    3f72:	50 f5       	mov.l	@(20,r15),r0
    3f74:	32 0c       	add	r0,r2
    3f76:	67 23       	mov	r2,r7
    3f78:	e0 50       	mov	#80,r0
    3f7a:	77 01       	add	#1,r7
    3f7c:	0f 26       	mov.l	r2,@(r0,r15)
    3f7e:	47 15       	cmp/pl	r7
    3f80:	e2 0e       	mov	#14,r2
    3f82:	89 01       	bt	3f88 <__dtoa_r+0xabc>
    3f84:	a2 c4       	bra	4510 <__dtoa_r+0x1044>
    3f86:	32 72       	cmp/hs	r7,r2
    3f88:	32 72       	cmp/hs	r7,r2
    3f8a:	02 29       	movt	r2
    3f8c:	68 23       	mov	r2,r8
    3f8e:	28 19       	and	r1,r8
    3f90:	ae 94       	bra	3cbc <__dtoa_r+0x7f0>
    3f92:	1f 79       	mov.l	r7,@(36,r15)
    3f94:	e7 40       	mov	#64,r7
    3f96:	e0 01       	mov	#1,r0
    3f98:	37 fc       	add	r15,r7
    3f9a:	af e8       	bra	3f6e <__dtoa_r+0xaa2>
    3f9c:	17 02       	mov.l	r0,@(8,r7)
    3f9e:	00 09       	nop	
    3fa0:	d7 48       	mov.l	40c4 <__dtoa_r+0xbf8>,r7	! 96ac <___floatsidf>
    3fa2:	47 0b       	jsr	@r7
    3fa4:	64 c3       	mov	r12,r4
    3fa6:	d2 4c       	mov.l	40d8 <__dtoa_r+0xc0c>,r2	! 914c <___muldf3>
    3fa8:	64 03       	mov	r0,r4
    3faa:	65 13       	mov	r1,r5
    3fac:	66 a3       	mov	r10,r6
    3fae:	42 0b       	jsr	@r2
    3fb0:	67 b3       	mov	r11,r7
    3fb2:	d3 4d       	mov.l	40e8 <__dtoa_r+0xc1c>,r3	! 90a4 <___adddf3>
    3fb4:	64 03       	mov	r0,r4
    3fb6:	65 13       	mov	r1,r5
    3fb8:	d6 4c       	mov.l	40ec <__dtoa_r+0xc20>,r6	! 401c0000
    3fba:	43 0b       	jsr	@r3
    3fbc:	e7 00       	mov	#0,r7
    3fbe:	6d 13       	mov	r1,r13
    3fc0:	d1 4b       	mov.l	40f0 <__dtoa_r+0xc24>,r1	! fcc00000
    3fc2:	6c 03       	mov	r0,r12
    3fc4:	3c 1c       	add	r1,r12
    3fc6:	00 09       	nop	
    3fc8:	d2 3f       	mov.l	40c8 <__dtoa_r+0xbfc>,r2	! 90f4 <___subdf3>
    3fca:	64 a3       	mov	r10,r4
    3fcc:	65 b3       	mov	r11,r5
    3fce:	d6 49       	mov.l	40f4 <__dtoa_r+0xc28>,r6	! 40140000
    3fd0:	42 0b       	jsr	@r2
    3fd2:	e7 00       	mov	#0,r7
    3fd4:	6a 03       	mov	r0,r10
    3fd6:	d0 3d       	mov.l	40cc <__dtoa_r+0xc00>,r0	! 95b0 <___gtdf2>
    3fd8:	6b 13       	mov	r1,r11
    3fda:	64 a3       	mov	r10,r4
    3fdc:	65 13       	mov	r1,r5
    3fde:	66 c3       	mov	r12,r6
    3fe0:	40 0b       	jsr	@r0
    3fe2:	67 d3       	mov	r13,r7
    3fe4:	40 15       	cmp/pl	r0
    3fe6:	8b 01       	bf	3fec <__dtoa_r+0xb20>
    3fe8:	a0 e2       	bra	41b0 <__dtoa_r+0xce4>
    3fea:	eb 00       	mov	#0,r11
    3fec:	d1 42       	mov.l	40f8 <__dtoa_r+0xc2c>,r1	! 80000000
    3fee:	66 c3       	mov	r12,r6
    3ff0:	d3 38       	mov.l	40d4 <__dtoa_r+0xc08>,r3	! 9658 <___ltdf2>
    3ff2:	64 a3       	mov	r10,r4
    3ff4:	65 b3       	mov	r11,r5
    3ff6:	26 1a       	xor	r1,r6
    3ff8:	43 0b       	jsr	@r3
    3ffa:	67 d3       	mov	r13,r7
    3ffc:	40 11       	cmp/pz	r0
    3ffe:	8b 01       	bf	4004 <__dtoa_r+0xb38>
    4000:	a0 a0       	bra	4144 <__dtoa_r+0xc78>
    4002:	e7 40       	mov	#64,r7
    4004:	d8 37       	mov.l	40e4 <__dtoa_r+0xc18>,r8	! 5918 <__Bfree>
    4006:	eb 00       	mov	#0,r11
    4008:	ec 00       	mov	#0,r12
    400a:	90 59       	mov.w	40c0 <__dtoa_r+0xbf4>,r0	! 90
    400c:	e9 00       	mov	#0,r9
    400e:	5d f4       	mov.l	@(16,r15),r13
    4010:	01 fe       	mov.l	@(r0,r15),r1
    4012:	61 17       	not	r1,r1
    4014:	ad b3       	bra	3b7e <__dtoa_r+0x6b2>
    4016:	1f 15       	mov.l	r1,@(20,r15)
    4018:	01 fe       	mov.l	@(r0,r15),r1
    401a:	21 18       	tst	r1,r1
    401c:	89 02       	bt	4024 <__dtoa_r+0xb58>
    401e:	a1 bd       	bra	439c <__dtoa_r+0xed0>
    4020:	00 09       	nop	
    4022:	00 09       	nop	
    4024:	d2 35       	mov.l	40fc <__dtoa_r+0xc30>,r2	! 5efc <___mcmp>
    4026:	1f 2a       	mov.l	r2,@(40,r15)
    4028:	5a f4       	mov.l	@(16,r15),r10
    402a:	d1 35       	mov.l	4100 <__dtoa_r+0xc34>,r1	! 3338 <_quorem>
    402c:	1f c3       	mov.l	r12,@(12,r15)
    402e:	6d 13       	mov	r1,r13
    4030:	1f 86       	mov.l	r8,@(24,r15)
    4032:	6c a3       	mov	r10,r12
    4034:	d9 33       	mov.l	4104 <__dtoa_r+0xc38>,r9	! 5930 <___multadd>
    4036:	5e f9       	mov.l	@(36,r15),r14
    4038:	a0 06       	bra	4048 <__dtoa_r+0xb7c>
    403a:	58 fc       	mov.l	@(48,r15),r8
    403c:	65 83       	mov	r8,r5
    403e:	54 f2       	mov.l	@(8,r15),r4
    4040:	e6 0a       	mov	#10,r6
    4042:	49 0b       	jsr	@r9
    4044:	e7 00       	mov	#0,r7
    4046:	68 03       	mov	r0,r8
    4048:	64 83       	mov	r8,r4
    404a:	4d 0b       	jsr	@r13
    404c:	65 b3       	mov	r11,r5
    404e:	70 30       	add	#48,r0
    4050:	2c 00       	mov.b	r0,@r12
    4052:	7c 01       	add	#1,r12
    4054:	63 c3       	mov	r12,r3
    4056:	33 a8       	sub	r10,r3
    4058:	3e 37       	cmp/gt	r3,r14
    405a:	89 ef       	bt	403c <__dtoa_r+0xb70>
    405c:	5e f9       	mov.l	@(36,r15),r14
    405e:	6d 03       	mov	r0,r13
    4060:	1f 8c       	mov.l	r8,@(48,r15)
    4062:	4e 15       	cmp/pl	r14
    4064:	5c f3       	mov.l	@(12,r15),r12
    4066:	58 f6       	mov.l	@(24,r15),r8
    4068:	89 02       	bt	4070 <__dtoa_r+0xba4>
    406a:	a3 6f       	bra	474c <__dtoa_r+0x1280>
    406c:	ee 01       	mov	#1,r14
    406e:	00 09       	nop	
    4070:	50 f4       	mov.l	@(16,r15),r0
    4072:	e9 00       	mov	#0,r9
    4074:	3e 0c       	add	r0,r14
    4076:	d0 24       	mov.l	4108 <__dtoa_r+0xc3c>,r0	! 5e00 <___lshift>
    4078:	e6 01       	mov	#1,r6
    407a:	54 f2       	mov.l	@(8,r15),r4
    407c:	40 0b       	jsr	@r0
    407e:	55 fc       	mov.l	@(48,r15),r5
    4080:	51 fa       	mov.l	@(40,r15),r1
    4082:	64 03       	mov	r0,r4
    4084:	1f 0c       	mov.l	r0,@(48,r15)
    4086:	41 0b       	jsr	@r1
    4088:	65 b3       	mov	r11,r5
    408a:	40 15       	cmp/pl	r0
    408c:	89 02       	bt	4094 <__dtoa_r+0xbc8>
    408e:	a2 f5       	bra	467c <__dtoa_r+0x11b0>
    4090:	20 08       	tst	r0,r0
    4092:	00 09       	nop	
    4094:	6a e3       	mov	r14,r10
    4096:	7a ff       	add	#-1,r10
    4098:	52 f4       	mov.l	@(16,r15),r2
    409a:	61 a3       	mov	r10,r1
    409c:	60 a0       	mov.b	@r10,r0
    409e:	00 09       	nop	
    40a0:	88 39       	cmp/eq	#57,r0
    40a2:	89 01       	bt	40a8 <__dtoa_r+0xbdc>
    40a4:	a3 26       	bra	46f4 <__dtoa_r+0x1228>
    40a6:	70 01       	add	#1,r0
    40a8:	32 a0       	cmp/eq	r10,r2
    40aa:	8b 01       	bf	40b0 <__dtoa_r+0xbe4>
    40ac:	a2 40       	bra	4530 <__dtoa_r+0x1064>
    40ae:	50 f5       	mov.l	@(20,r15),r0
    40b0:	71 ff       	add	#-1,r1
    40b2:	6e a3       	mov	r10,r14
    40b4:	60 10       	mov.b	@r1,r0
    40b6:	af f3       	bra	40a0 <__dtoa_r+0xbd4>
    40b8:	7a ff       	add	#-1,r10
    40ba:	00 09       	nop	
    40bc:	ad 1b       	bra	3af6 <__dtoa_r+0x62a>
    40be:	52 fa       	mov.l	@(40,r15),r2
    40c0:	00 90       	.word 0x0090
    40c2:	00 09       	nop	
    40c4:	00 00       	.word 0x0000
    40c6:	96 ac       	mov.w	4222 <__dtoa_r+0xd56>,r6	! 6513
    40c8:	00 00       	.word 0x0000
    40ca:	90 f4       	mov.w	42b6 <__dtoa_r+0xdea>,r0	! 70ff
    40cc:	00 00       	.word 0x0000
    40ce:	95 b0       	mov.w	4232 <__dtoa_r+0xd66>,r5	! 6b03
    40d0:	3f f0       	cmp/eq	r15,r15
    40d2:	00 00       	.word 0x0000
    40d4:	00 00       	.word 0x0000
    40d6:	96 58       	mov.w	418a <__dtoa_r+0xcbe>,r6	! 6513
    40d8:	00 00       	.word 0x0000
    40da:	91 4c       	mov.w	4176 <__dtoa_r+0xcaa>,r1	! 5711
    40dc:	40 24       	rotcl	r0
    40de:	00 00       	.word 0x0000
    40e0:	00 00       	.word 0x0000
    40e2:	97 48       	mov.w	4176 <__dtoa_r+0xcaa>,r7	! 5711
    40e4:	00 00       	.word 0x0000
    40e6:	59 18       	mov.l	@(32,r1),r9
    40e8:	00 00       	.word 0x0000
    40ea:	90 a4       	mov.w	4236 <__dtoa_r+0xd6a>,r0	! 6403
    40ec:	40 1c       	.word 0x401c
    40ee:	00 00       	.word 0x0000
    40f0:	fc c0       	.word 0xfcc0
    40f2:	00 00       	.word 0x0000
    40f4:	40 14       	.word 0x4014
    40f6:	00 00       	.word 0x0000
    40f8:	80 00       	mov.b	r0,@(0,r0)
    40fa:	00 00       	.word 0x0000
    40fc:	00 00       	.word 0x0000
    40fe:	5e fc       	mov.l	@(48,r15),r14
    4100:	00 00       	.word 0x0000
    4102:	33 38       	sub	r3,r3
    4104:	00 00       	.word 0x0000
    4106:	59 30       	mov.l	@(0,r3),r9
    4108:	00 00       	.word 0x0000
    410a:	5e 00       	mov.l	@(0,r0),r14
    410c:	d0 8f       	mov.l	434c <__dtoa_r+0xe80>,r0	! 5d2c <___pow5mult>
    410e:	55 fc       	mov.l	@(48,r15),r5
    4110:	40 0b       	jsr	@r0
    4112:	56 fe       	mov.l	@(56,r15),r6
    4114:	1f 0c       	mov.l	r0,@(48,r15)
    4116:	d8 8e       	mov.l	4350 <__dtoa_r+0xe84>,r8	! 5918 <__Bfree>
    4118:	ac bd       	bra	3a96 <__dtoa_r+0x5ca>
    411a:	54 f2       	mov.l	@(8,r15),r4
    411c:	30 fc       	add	r15,r0
    411e:	51 06       	mov.l	@(24,r0),r1
    4120:	e2 3c       	mov	#60,r2
    4122:	50 05       	mov.l	@(20,r0),r0
    4124:	32 fc       	add	r15,r2
    4126:	12 11       	mov.l	r1,@(4,r2)
    4128:	ec 02       	mov	#2,r12
    412a:	dd 8a       	mov.l	4354 <__dtoa_r+0xe88>,r13	! 93a0 <___divdf3>
    412c:	ae 0e       	bra	3d4c <__dtoa_r+0x880>
    412e:	22 02       	mov.l	r0,@r2
    4130:	60 2a       	negc	r2,r0
    4132:	c8 ff       	tst	#-1,r0
    4134:	89 03       	bt	413e <__dtoa_r+0xc72>
    4136:	d2 86       	mov.l	4350 <__dtoa_r+0xe84>,r2	! 5918 <__Bfree>
    4138:	65 93       	mov	r9,r5
    413a:	42 0b       	jsr	@r2
    413c:	54 f2       	mov.l	@(8,r15),r4
    413e:	ad 2c       	bra	3b9a <__dtoa_r+0x6ce>
    4140:	54 f2       	mov.l	@(8,r15),r4
    4142:	00 09       	nop	
    4144:	37 fc       	add	r15,r7
    4146:	5d 75       	mov.l	@(20,r7),r13
    4148:	ab 5d       	bra	3806 <__dtoa_r+0x33a>
    414a:	5e 76       	mov.l	@(24,r7),r14
    414c:	28 88       	tst	r8,r8
    414e:	8b 01       	bf	4154 <__dtoa_r+0xc88>
    4150:	a2 2e       	bra	45b0 <__dtoa_r+0x10e4>
    4152:	e3 40       	mov	#64,r3
    4154:	60 83       	mov	r8,r0
    4156:	d1 80       	mov.l	4358 <__dtoa_r+0xe8c>,r1	! 9f04 <___mprec_tens>
    4158:	c9 0f       	and	#15,r0
    415a:	48 21       	shar	r8
    415c:	40 08       	shll2	r0
    415e:	d3 7f       	mov.l	435c <__dtoa_r+0xe90>,r3	! 914c <___muldf3>
    4160:	30 0c       	add	r0,r0
    4162:	48 21       	shar	r8
    4164:	e2 40       	mov	#64,r2
    4166:	31 0c       	add	r0,r1
    4168:	32 fc       	add	r15,r2
    416a:	48 21       	shar	r8
    416c:	54 25       	mov.l	@(20,r2),r4
    416e:	48 21       	shar	r8
    4170:	55 26       	mov.l	@(24,r2),r5
    4172:	66 12       	mov.l	@r1,r6
    4174:	43 0b       	jsr	@r3
    4176:	57 11       	mov.l	@(4,r1),r7
    4178:	28 88       	tst	r8,r8
    417a:	6a 03       	mov	r0,r10
    417c:	6b 13       	mov	r1,r11
    417e:	8b 01       	bf	4184 <__dtoa_r+0xcb8>
    4180:	a2 f8       	bra	4774 <__dtoa_r+0x12a8>
    4182:	ec 02       	mov	#2,r12
    4184:	d9 76       	mov.l	4360 <__dtoa_r+0xe94>,r9	! 9edc <___mprec_bigtens>
    4186:	ec 02       	mov	#2,r12
    4188:	64 a3       	mov	r10,r4
    418a:	65 13       	mov	r1,r5
    418c:	60 83       	mov	r8,r0
    418e:	c8 01       	tst	#1,r0
    4190:	89 06       	bt	41a0 <__dtoa_r+0xcd4>
    4192:	d2 72       	mov.l	435c <__dtoa_r+0xe90>,r2	! 914c <___muldf3>
    4194:	7c 01       	add	#1,r12
    4196:	66 92       	mov.l	@r9,r6
    4198:	42 0b       	jsr	@r2
    419a:	57 91       	mov.l	@(4,r9),r7
    419c:	64 03       	mov	r0,r4
    419e:	65 13       	mov	r1,r5
    41a0:	48 21       	shar	r8
    41a2:	28 88       	tst	r8,r8
    41a4:	79 08       	add	#8,r9
    41a6:	8b f1       	bf	418c <__dtoa_r+0xcc0>
    41a8:	6a 43       	mov	r4,r10
    41aa:	ad ee       	bra	3d8a <__dtoa_r+0x8be>
    41ac:	6b 53       	mov	r5,r11
    41ae:	00 09       	nop	
    41b0:	d8 67       	mov.l	4350 <__dtoa_r+0xe84>,r8	! 5918 <__Bfree>
    41b2:	ac d9       	bra	3b68 <__dtoa_r+0x69c>
    41b4:	ec 00       	mov	#0,r12
    41b6:	00 09       	nop	
    41b8:	70 ff       	add	#-1,r0
    41ba:	62 03       	mov	r0,r2
    41bc:	d1 66       	mov.l	4358 <__dtoa_r+0xe8c>,r1	! 9f04 <___mprec_tens>
    41be:	42 08       	shll2	r2
    41c0:	32 2c       	add	r2,r2
    41c2:	31 2c       	add	r2,r1
    41c4:	e7 40       	mov	#64,r7
    41c6:	d2 65       	mov.l	435c <__dtoa_r+0xe90>,r2	! 914c <___muldf3>
    41c8:	37 fc       	add	r15,r7
    41ca:	17 09       	mov.l	r0,@(36,r7)
    41cc:	66 c3       	mov	r12,r6
    41ce:	1f 31       	mov.l	r3,@(4,r15)
    41d0:	67 d3       	mov	r13,r7
    41d2:	64 12       	mov.l	@r1,r4
    41d4:	42 0b       	jsr	@r2
    41d6:	55 11       	mov.l	@(4,r1),r5
    41d8:	d7 62       	mov.l	4364 <__dtoa_r+0xe98>,r7	! 9748 <___fixdfsi>
    41da:	64 a3       	mov	r10,r4
    41dc:	65 b3       	mov	r11,r5
    41de:	6d 13       	mov	r1,r13
    41e0:	47 0b       	jsr	@r7
    41e2:	6c 03       	mov	r0,r12
    41e4:	d2 60       	mov.l	4368 <__dtoa_r+0xe9c>,r2	! 96ac <___floatsidf>
    41e6:	6e 03       	mov	r0,r14
    41e8:	42 0b       	jsr	@r2
    41ea:	64 03       	mov	r0,r4
    41ec:	d2 5f       	mov.l	436c <__dtoa_r+0xea0>,r2	! 90f4 <___subdf3>
    41ee:	64 a3       	mov	r10,r4
    41f0:	65 b3       	mov	r11,r5
    41f2:	66 03       	mov	r0,r6
    41f4:	42 0b       	jsr	@r2
    41f6:	67 13       	mov	r1,r7
    41f8:	68 03       	mov	r0,r8
    41fa:	50 f4       	mov.l	@(16,r15),r0
    41fc:	6a e3       	mov	r14,r10
    41fe:	7a 30       	add	#48,r10
    4200:	20 a0       	mov.b	r10,@r0
    4202:	70 01       	add	#1,r0
    4204:	53 f1       	mov.l	@(4,r15),r3
    4206:	69 13       	mov	r1,r9
    4208:	5e f4       	mov.l	@(16,r15),r14
    420a:	1f 0f       	mov.l	r0,@(60,r15)
    420c:	60 33       	mov	r3,r0
    420e:	88 01       	cmp/eq	#1,r0
    4210:	3e 3c       	add	r3,r14
    4212:	5a ff       	mov.l	@(60,r15),r10
    4214:	60 83       	mov	r8,r0
    4216:	89 21       	bt	425c <__dtoa_r+0xd90>
    4218:	d2 50       	mov.l	435c <__dtoa_r+0xe90>,r2	! 914c <___muldf3>
    421a:	e7 00       	mov	#0,r7
    421c:	d6 54       	mov.l	4370 <__dtoa_r+0xea4>,r6	! 40240000
    421e:	64 03       	mov	r0,r4
    4220:	42 0b       	jsr	@r2
    4222:	65 13       	mov	r1,r5
    4224:	d3 4f       	mov.l	4364 <__dtoa_r+0xe98>,r3	! 9748 <___fixdfsi>
    4226:	68 03       	mov	r0,r8
    4228:	69 13       	mov	r1,r9
    422a:	65 13       	mov	r1,r5
    422c:	43 0b       	jsr	@r3
    422e:	64 83       	mov	r8,r4
    4230:	d7 4d       	mov.l	4368 <__dtoa_r+0xe9c>,r7	! 96ac <___floatsidf>
    4232:	6b 03       	mov	r0,r11
    4234:	47 0b       	jsr	@r7
    4236:	64 03       	mov	r0,r4
    4238:	d2 4c       	mov.l	436c <__dtoa_r+0xea0>,r2	! 90f4 <___subdf3>
    423a:	7b 30       	add	#48,r11
    423c:	64 83       	mov	r8,r4
    423e:	65 93       	mov	r9,r5
    4240:	66 03       	mov	r0,r6
    4242:	42 0b       	jsr	@r2
    4244:	67 13       	mov	r1,r7
    4246:	2a b0       	mov.b	r11,@r10
    4248:	7a 01       	add	#1,r10
    424a:	3a e0       	cmp/eq	r14,r10
    424c:	8b e4       	bf	4218 <__dtoa_r+0xd4c>
    424e:	68 03       	mov	r0,r8
    4250:	e0 64       	mov	#100,r0
    4252:	52 ff       	mov.l	@(60,r15),r2
    4254:	69 13       	mov	r1,r9
    4256:	03 fe       	mov.l	@(r0,r15),r3
    4258:	32 3c       	add	r3,r2
    425a:	1f 2f       	mov.l	r2,@(60,r15)
    425c:	d2 45       	mov.l	4374 <__dtoa_r+0xea8>,r2	! 90a4 <___adddf3>
    425e:	64 c3       	mov	r12,r4
    4260:	65 d3       	mov	r13,r5
    4262:	d6 45       	mov.l	4378 <__dtoa_r+0xeac>,r6	! 3fe00000
    4264:	42 0b       	jsr	@r2
    4266:	e7 00       	mov	#0,r7
    4268:	d3 44       	mov.l	437c <__dtoa_r+0xeb0>,r3	! 9658 <___ltdf2>
    426a:	64 03       	mov	r0,r4
    426c:	65 13       	mov	r1,r5
    426e:	66 83       	mov	r8,r6
    4270:	43 0b       	jsr	@r3
    4272:	67 93       	mov	r9,r7
    4274:	40 11       	cmp/pz	r0
    4276:	8b 01       	bf	427c <__dtoa_r+0xdb0>
    4278:	a1 a0       	bra	45bc <__dtoa_r+0x10f0>
    427a:	e5 00       	mov	#0,r5
    427c:	51 ff       	mov.l	@(60,r15),r1
    427e:	52 ff       	mov.l	@(60,r15),r2
    4280:	71 ff       	add	#-1,r1
    4282:	5d f4       	mov.l	@(16,r15),r13
    4284:	6c 10       	mov.b	@r1,r12
    4286:	ab 92       	bra	39ae <__dtoa_r+0x4e2>
    4288:	1f 24       	mov.l	r2,@(16,r15)
    428a:	00 09       	nop	
    428c:	70 04       	add	#4,r0
    428e:	40 08       	shll2	r0
    4290:	04 be       	mov.l	@(r0,r11),r4
    4292:	d0 3b       	mov.l	4380 <__dtoa_r+0xeb4>,r0	! 5ab8 <___hi0bits>
    4294:	40 0b       	jsr	@r0
    4296:	00 09       	nop	
    4298:	61 0b       	neg	r0,r1
    429a:	ac 19       	bra	3ad0 <__dtoa_r+0x604>
    429c:	71 20       	add	#32,r1
    429e:	00 09       	nop	
    42a0:	d3 38       	mov.l	4384 <__dtoa_r+0xeb8>,r3	! 5efc <___mcmp>
    42a2:	54 fc       	mov.l	@(48,r15),r4
    42a4:	43 0b       	jsr	@r3
    42a6:	1f 3a       	mov.l	r3,@(40,r15)
    42a8:	40 11       	cmp/pz	r0
    42aa:	8b 01       	bf	42b0 <__dtoa_r+0xde4>
    42ac:	ac 41       	bra	3b32 <__dtoa_r+0x666>
    42ae:	52 f3       	mov.l	@(12,r15),r2
    42b0:	50 f5       	mov.l	@(20,r15),r0
    42b2:	e6 0a       	mov	#10,r6
    42b4:	d1 34       	mov.l	4388 <__dtoa_r+0xebc>,r1	! 5930 <___multadd>
    42b6:	70 ff       	add	#-1,r0
    42b8:	1f 05       	mov.l	r0,@(20,r15)
    42ba:	e7 00       	mov	#0,r7
    42bc:	1f 11       	mov.l	r1,@(4,r15)
    42be:	54 f2       	mov.l	@(8,r15),r4
    42c0:	41 0b       	jsr	@r1
    42c2:	55 fc       	mov.l	@(48,r15),r5
    42c4:	1f 0c       	mov.l	r0,@(48,r15)
    42c6:	e0 48       	mov	#72,r0
    42c8:	02 fe       	mov.l	@(r0,r15),r2
    42ca:	51 f1       	mov.l	@(4,r15),r1
    42cc:	22 28       	tst	r2,r2
    42ce:	89 01       	bt	42d4 <__dtoa_r+0xe08>
    42d0:	a2 52       	bra	4778 <__dtoa_r+0x12ac>
    42d2:	65 c3       	mov	r12,r5
    42d4:	e0 48       	mov	#72,r0
    42d6:	07 fe       	mov.l	@(r0,r15),r7
    42d8:	e0 50       	mov	#80,r0
    42da:	03 fe       	mov.l	@(r0,r15),r3
    42dc:	e0 50       	mov	#80,r0
    42de:	37 33       	cmp/ge	r3,r7
    42e0:	8b 06       	bf	42f0 <__dtoa_r+0xe24>
    42e2:	52 f3       	mov.l	@(12,r15),r2
    42e4:	e1 02       	mov	#2,r1
    42e6:	32 17       	cmp/gt	r1,r2
    42e8:	8b 02       	bf	42f0 <__dtoa_r+0xe24>
    42ea:	a2 6b       	bra	47c4 <__dtoa_r+0x12f8>
    42ec:	02 fe       	mov.l	@(r0,r15),r2
    42ee:	00 09       	nop	
    42f0:	03 fe       	mov.l	@(r0,r15),r3
    42f2:	ae 99       	bra	4028 <__dtoa_r+0xb5c>
    42f4:	1f 39       	mov.l	r3,@(36,r15)
    42f6:	00 09       	nop	
    42f8:	20 08       	tst	r0,r0
    42fa:	89 01       	bt	4300 <__dtoa_r+0xe34>
    42fc:	ae 82       	bra	4004 <__dtoa_r+0xb38>
    42fe:	00 09       	nop	
    4300:	d2 16       	mov.l	435c <__dtoa_r+0xe90>,r2	! 914c <___muldf3>
    4302:	e7 00       	mov	#0,r7
    4304:	54 f7       	mov.l	@(28,r15),r4
    4306:	eb 00       	mov	#0,r11
    4308:	55 f8       	mov.l	@(32,r15),r5
    430a:	d6 20       	mov.l	438c <__dtoa_r+0xec0>,r6	! 40140000
    430c:	42 0b       	jsr	@r2
    430e:	ec 00       	mov	#0,r12
    4310:	64 03       	mov	r0,r4
    4312:	d0 1f       	mov.l	4390 <__dtoa_r+0xec4>,r0	! 9604 <___gedf2>
    4314:	65 13       	mov	r1,r5
    4316:	66 d3       	mov	r13,r6
    4318:	40 0b       	jsr	@r0
    431a:	67 e3       	mov	r14,r7
    431c:	40 11       	cmp/pz	r0
    431e:	d8 0c       	mov.l	4350 <__dtoa_r+0xe84>,r8	! 5918 <__Bfree>
    4320:	8b 02       	bf	4328 <__dtoa_r+0xe5c>
    4322:	ae 72       	bra	400a <__dtoa_r+0xb3e>
    4324:	00 09       	nop	
    4326:	00 09       	nop	
    4328:	ac 1f       	bra	3b6a <__dtoa_r+0x69e>
    432a:	50 f4       	mov.l	@(16,r15),r0
    432c:	8b 0c       	bf	4348 <__dtoa_r+0xe7c>
    432e:	d2 19       	mov.l	4394 <__dtoa_r+0xec8>,r2	! fffff
    4330:	2d 28       	tst	r2,r13
    4332:	8b 09       	bf	4348 <__dtoa_r+0xe7c>
    4334:	d2 18       	mov.l	4398 <__dtoa_r+0xecc>,r2	! 7ff00000
    4336:	2d 28       	tst	r2,r13
    4338:	89 06       	bt	4348 <__dtoa_r+0xe7c>
    433a:	53 fa       	mov.l	@(40,r15),r3
    433c:	ea 01       	mov	#1,r10
    433e:	52 f7       	mov.l	@(28,r15),r2
    4340:	73 01       	add	#1,r3
    4342:	1f 3a       	mov.l	r3,@(40,r15)
    4344:	72 01       	add	#1,r2
    4346:	1f 27       	mov.l	r2,@(28,r15)
    4348:	ab bb       	bra	3ac2 <__dtoa_r+0x5f6>
    434a:	e0 44       	mov	#68,r0
    434c:	00 00       	.word 0x0000
    434e:	5d 2c       	mov.l	@(48,r2),r13
    4350:	00 00       	.word 0x0000
    4352:	59 18       	mov.l	@(32,r1),r9
    4354:	00 00       	.word 0x0000
    4356:	93 a0       	mov.w	449a <__dtoa_r+0xfce>,r3	! 8b14
    4358:	00 00       	.word 0x0000
    435a:	9f 04       	mov.w	4366 <__dtoa_r+0xe9a>,r15	! 9748 <___fixdfsi>
    435c:	00 00       	.word 0x0000
    435e:	91 4c       	mov.w	43fa <__dtoa_r+0xf2e>,r1	! 64d3
    4360:	00 00       	.word 0x0000
    4362:	9e dc       	mov.w	451e <__dtoa_r+0x1052>,r14	! 9
    4364:	00 00       	.word 0x0000
    4366:	97 48       	mov.w	43fa <__dtoa_r+0xf2e>,r7	! 64d3
    4368:	00 00       	.word 0x0000
    436a:	96 ac       	mov.w	44c6 <__dtoa_r+0xffa>,r6	! 2ad0
    436c:	00 00       	.word 0x0000
    436e:	90 f4       	mov.w	455a <__dtoa_r+0x108e>,r0	! 8b01
    4370:	40 24       	rotcl	r0
    4372:	00 00       	.word 0x0000
    4374:	00 00       	.word 0x0000
    4376:	90 a4       	mov.w	44c2 <__dtoa_r+0xff6>,r0	! 7d31
    4378:	3f e0       	cmp/eq	r14,r15
    437a:	00 00       	.word 0x0000
    437c:	00 00       	.word 0x0000
    437e:	96 58       	mov.w	4432 <__dtoa_r+0xf66>,r6	! 53fe
    4380:	00 00       	.word 0x0000
    4382:	5a b8       	mov.l	@(32,r11),r10
    4384:	00 00       	.word 0x0000
    4386:	5e fc       	mov.l	@(48,r15),r14
    4388:	00 00       	.word 0x0000
    438a:	59 30       	mov.l	@(0,r3),r9
    438c:	40 14       	.word 0x4014
    438e:	00 00       	.word 0x0000
    4390:	00 00       	.word 0x0000
    4392:	96 04       	mov.w	439e <__dtoa_r+0xed2>,r6	! 1f3a
    4394:	00 0f       	.word 0x000f
    4396:	ff ff       	.word 0xffff
    4398:	7f f0       	add	#-16,r15
    439a:	00 00       	.word 0x0000
    439c:	d3 99       	mov.l	4604 <__dtoa_r+0x1138>,r3	! 5efc <___mcmp>
    439e:	1f 3a       	mov.l	r3,@(40,r15)
    43a0:	49 15       	cmp/pl	r9
    43a2:	8b 05       	bf	43b0 <__dtoa_r+0xee4>
    43a4:	d0 98       	mov.l	4608 <__dtoa_r+0x113c>,r0	! 5e00 <___lshift>
    43a6:	65 c3       	mov	r12,r5
    43a8:	54 f2       	mov.l	@(8,r15),r4
    43aa:	40 0b       	jsr	@r0
    43ac:	66 93       	mov	r9,r6
    43ae:	6c 03       	mov	r0,r12
    43b0:	2a a8       	tst	r10,r10
    43b2:	62 c3       	mov	r12,r2
    43b4:	89 02       	bt	43bc <__dtoa_r+0xef0>
    43b6:	a1 6f       	bra	4698 <__dtoa_r+0x11cc>
    43b8:	e0 4c       	mov	#76,r0
    43ba:	00 09       	nop	
    43bc:	5a f4       	mov.l	@(16,r15),r10
    43be:	69 c3       	mov	r12,r9
    43c0:	50 f9       	mov.l	@(36,r15),r0
    43c2:	63 a3       	mov	r10,r3
    43c4:	73 ff       	add	#-1,r3
    43c6:	d1 91       	mov.l	460c <__dtoa_r+0x1140>,r1	! 3338 <_quorem>
    43c8:	33 0c       	add	r0,r3
    43ca:	60 e3       	mov	r14,r0
    43cc:	c9 01       	and	#1,r0
    43ce:	1f 89       	mov.l	r8,@(36,r15)
    43d0:	5d f2       	mov.l	@(8,r15),r13
    43d2:	58 fc       	mov.l	@(48,r15),r8
    43d4:	1f 3d       	mov.l	r3,@(52,r15)
    43d6:	1f 1b       	mov.l	r1,@(44,r15)
    43d8:	1f 0e       	mov.l	r0,@(56,r15)
    43da:	1f b6       	mov.l	r11,@(24,r15)
    43dc:	6b 23       	mov	r2,r11
    43de:	00 09       	nop	
    43e0:	51 fb       	mov.l	@(44,r15),r1
    43e2:	64 83       	mov	r8,r4
    43e4:	41 0b       	jsr	@r1
    43e6:	55 f6       	mov.l	@(24,r15),r5
