	.file	"sparc-elf.c"
! GNU C (GCC) version 4.7.2 (sparc-elf)
!	compiled by GNU C version 4.2.1 20070719  [FreeBSD], GMP version 5.1.1, MPFR version 3.1.2, MPC version 1.0.1
! GGC heuristics: --param ggc-min-expand=100 --param ggc-min-heapsize=131072
! options passed:  -D ___FreeBSD___ -D ARCH="sparc-elf" sparc-elf.c
! -mcpu=v7 -auxbase-strip sparc-elf.s -g -O -Wall -fno-builtin
! -fverbose-asm -fomit-frame-pointer
! options enabled:  -fauto-inc-dec -fbranch-count-reg
! -fcombine-stack-adjustments -fcommon -fcompare-elim -fcprop-registers
! -fdebug-types-section -fdefer-pop -fdelayed-branch
! -fdelete-null-pointer-checks -fdwarf2-cfi-asm -fearly-inlining
! -feliminate-unused-debug-types -fforward-propagate -ffunction-cse
! -fgcse-lm -fgnu-runtime -fguess-branch-probability -fident
! -fif-conversion -fif-conversion2 -finline -finline-atomics
! -finline-functions-called-once -fipa-profile -fipa-pure-const
! -fipa-reference -fira-share-spill-slots -fivopts -fkeep-static-consts
! -fleading-underscore -fmath-errno -fmerge-constants -fmerge-debug-strings
! -fmove-loop-invariants -fomit-frame-pointer -fpcc-struct-return
! -fpeephole -fprefetch-loop-arrays -fsched-critical-path-heuristic
! -fsched-dep-count-heuristic -fsched-group-heuristic -fsched-interblock
! -fsched-last-insn-heuristic -fsched-rank-heuristic -fsched-spec
! -fsched-spec-insn-heuristic -fsched-stalled-insns-dep -fshow-column
! -fshrink-wrap -fsigned-zeros -fsplit-ivs-in-unroller -fsplit-wide-types
! -fstrict-volatile-bitfields -ftoplevel-reorder -ftrapping-math
! -ftree-bit-ccp -ftree-ccp -ftree-ch -ftree-copy-prop -ftree-copyrename
! -ftree-cselim -ftree-dce -ftree-dominator-opts -ftree-dse -ftree-forwprop
! -ftree-fre -ftree-loop-if-convert -ftree-loop-im -ftree-loop-ivcanon
! -ftree-loop-optimize -ftree-parallelize-loops= -ftree-phiprop -ftree-pta
! -ftree-reassoc -ftree-scev-cprop -ftree-sink -ftree-slp-vectorize
! -ftree-sra -ftree-ter -ftree-vect-loop-version -funit-at-a-time
! -fvar-tracking -fvar-tracking-assignments -fverbose-asm
! -fzero-initialized-in-bss -m32 -mapp-regs -mfpu -mptr32 -msoft-quad-float

	.section	".text"
.LLtext0:
	.cfi_sections	.debug_frame
	.align 4
	.global _exit
	.type	_exit, #function
	.proc	020
_exit:
.LLFB0:
	.file 1 "sparc-elf.c"
	.loc 1 39 0
	.cfi_startproc
.LLVL0:
	save	%sp, -96, %sp	!
.LLCFI0:
	.cfi_window_save
	.cfi_register 15, 31
	.cfi_def_cfa_register 30
.LLVL1:
	.loc 1 40 0
	call	__exit, 0	!,
	 mov	%i0, %o0	! status,
.LLVL2:
	nop
	.cfi_endproc
.LLFE0:
	.size	_exit, .-_exit
	.align 4
	.global read
	.type	read, #function
	.proc	04
read:
.LLFB1:
	.loc 1 44 0
	.cfi_startproc
.LLVL3:
	save	%sp, -96, %sp	!
.LLCFI1:
	.cfi_window_save
	.cfi_register 15, 31
	.cfi_def_cfa_register 30
.LLVL4:
	.loc 1 45 0
	mov	%i0, %o0	! fd,
	mov	%i1, %o1	! buffer,
	call	__read, 0	!,
	 mov	%i2, %o2	! size,
.LLVL5:
	.loc 1 46 0
	jmp	%i7+8
	 restore %g0, %o0, %o0	!,
	.cfi_endproc
.LLFE1:
	.size	read, .-read
	.align 4
	.global write
	.type	write, #function
	.proc	04
write:
.LLFB2:
	.loc 1 48 0
	.cfi_startproc
.LLVL6:
	save	%sp, -96, %sp	!
.LLCFI2:
	.cfi_window_save
	.cfi_register 15, 31
	.cfi_def_cfa_register 30
.LLVL7:
	.loc 1 49 0
	mov	%i0, %o0	! fd,
	mov	%i1, %o1	! buffer,
	call	__write, 0	!,
	 mov	%i2, %o2	! size,
.LLVL8:
	.loc 1 50 0
	jmp	%i7+8
	 restore %g0, %o0, %o0	!,
	.cfi_endproc
.LLFE2:
	.size	write, .-write
	.align 4
	.global open
	.type	open, #function
	.proc	04
open:
.LLFB3:
	.loc 1 52 0
	.cfi_startproc
.LLVL9:
	save	%sp, -96, %sp	!
.LLCFI3:
	.cfi_window_save
	.cfi_register 15, 31
	.cfi_def_cfa_register 30
.LLVL10:
	.loc 1 53 0
	mov	%i0, %o0	! path,
	mov	%i1, %o1	! flags,
	call	__open, 0	!,
	 mov	%i2, %o2	! mode,
.LLVL11:
	.loc 1 54 0
	jmp	%i7+8
	 restore %g0, %o0, %o0	!,
	.cfi_endproc
.LLFE3:
	.size	open, .-open
	.align 4
	.global close
	.type	close, #function
	.proc	04
close:
.LLFB4:
	.loc 1 56 0
	.cfi_startproc
.LLVL12:
	save	%sp, -96, %sp	!
.LLCFI4:
	.cfi_window_save
	.cfi_register 15, 31
	.cfi_def_cfa_register 30
.LLVL13:
	.loc 1 57 0
	call	__close, 0	!,
	 mov	%i0, %o0	! fd,
.LLVL14:
	.loc 1 58 0
	jmp	%i7+8
	 restore %g0, %o0, %o0	!,
	.cfi_endproc
.LLFE4:
	.size	close, .-close
	.align 4
	.global fstat
	.type	fstat, #function
	.proc	04
fstat:
.LLFB5:
	.loc 1 63 0
	.cfi_startproc
.LLVL15:
	save	%sp, -96, %sp	!
.LLCFI5:
	.cfi_window_save
	.cfi_register 15, 31
	.cfi_def_cfa_register 30
.LLVL16:
	.loc 1 64 0
	mov	%i1, %o0	! sb,
	mov	0, %o1	!,
	call	memset, 0	!,
	 mov	64, %o2	!,
.LLVL17:
	.loc 1 66 0
	jmp	%i7+8
	 restore %g0, 0, %o0	!,
	.cfi_endproc
.LLFE5:
	.size	fstat, .-fstat
	.align 4
	.global lseek
	.type	lseek, #function
	.proc	04
lseek:
.LLFB6:
	.loc 1 69 0
	.cfi_startproc
.LLVL18:
	.loc 1 71 0
	jmp	%o7+8
	 mov	%o1, %o0	! offset, tmp24
	.cfi_endproc
.LLFE6:
	.size	lseek, .-lseek
	.align 4
	.global sbrk
	.type	sbrk, #function
	.proc	0120
sbrk:
.LLFB7:
	.loc 1 77 0
	.cfi_startproc
.LLVL19:
	.loc 1 79 0
	sethi	%hi(sbrk_top), %g2	!, tmp115
	ld	[%g2+%lo(sbrk_top)], %g1	! sbrk_top, old_top
.LLVL20:
	.loc 1 80 0
	add	%g1, %o0, %o0	! old_top, incr, tmp118
	st	%o0, [%g2+%lo(sbrk_top)]	! tmp118, sbrk_top
	.loc 1 82 0
	jmp	%o7+8
	 mov	%g1, %o0	! old_top, tmp24
	.cfi_endproc
.LLFE7:
	.size	sbrk, .-sbrk
	.align 4
	.global isatty
	.type	isatty, #function
	.proc	04
isatty:
.LLFB8:
	.loc 1 85 0
	.cfi_startproc
.LLVL21:
	.loc 1 87 0
	jmp	%o7+8
	 mov	1, %o0	!, tmp24
	.cfi_endproc
.LLFE8:
	.size	isatty, .-isatty
	.section	.rodata.str1.8,"aMS",@progbits,1
	.align 8
.LLC0:
	.asciz	"Hello World! %08lx This architecture is %s\n"
	.align 8
.LLC1:
	.asciz	"sparc-elf"
	.section	".text"
	.align 4
	.global main
	.type	main, #function
	.proc	04
main:
.LLFB11:
	.loc 1 173 0
	.cfi_startproc
	save	%sp, -96, %sp	!
.LLCFI6:
	.cfi_window_save
	.cfi_register 15, 31
	.cfi_def_cfa_register 30
	.loc 1 174 0
	sethi	%hi(.LLC0), %o0	!, tmp114
	or	%o0, %lo(.LLC0), %o0	! tmp114,,
	sethi	%hi(data_value), %g1	!, tmp112
	ld	[%g1+%lo(data_value)], %o1	! data_value,
	sethi	%hi(.LLC1), %o2	!, tmp115
	call	printf, 0	!,
	 or	%o2, %lo(.LLC1), %o2	! tmp115,,
.LLVL22:
	.loc 1 175 0
	call	exit, 0	!,
	 mov	0, %o0	!,
.LLVL23:
	nop
	.cfi_endproc
.LLFE11:
	.size	main, .-main
	.align 4
	.global _startmain
	.type	_startmain, #function
	.proc	04
_startmain:
.LLFB10:
	.loc 1 166 0
	.cfi_startproc
	save	%sp, -96, %sp	!
.LLCFI7:
	.cfi_window_save
	.cfi_register 15, 31
	.cfi_def_cfa_register 30
.LLBB4:
.LLBB5:
	.loc 1 159 0
	sethi	%hi(_bss_start), %g1	!, tmp118
	or	%g1, %lo(_bss_start), %g1	! tmp118,, tmp117
	mov	%g1, %o0	! tmp117,
	mov	0, %o1	!,
	sethi	%hi(_ebss), %o2	!, tmp116
	or	%o2, %lo(_ebss), %o2	! tmp116,, tmp115
	call	memset, 0	!,
	 sub	%o2, %g1, %o2	! tmp115, tmp117,
.LLVL24:
.LLBE5:
.LLBE4:
	.loc 1 168 0
	call	main, 0
	 nop	!,
.LLVL25:
	nop
	.cfi_endproc
.LLFE10:
	.size	_startmain, .-_startmain
	.global sbrk_top
	.section	".data"
	.align 4
	.type	sbrk_top, #object
	.size	sbrk_top, 4
sbrk_top:
	.long	_heap
	.common	bss_value,4,4
	.global data_value
	.align 4
	.type	data_value, #object
	.size	data_value, 4
data_value:
	.long	-1414661426
	.section	".text"
.LLetext0:
	.file 2 "/usr/local/cross2-gcc4/lib/gcc/sparc-elf/4.7.2/include/stddef.h"
	.file 3 "/usr/local/cross2-gcc4/lib/gcc/sparc-elf/4.7.2/../../../../sparc-elf/include/sys/_types.h"
	.file 4 "/usr/local/cross2-gcc4/lib/gcc/sparc-elf/4.7.2/../../../../sparc-elf/include/sys/types.h"
	.file 5 "/usr/local/cross2-gcc4/lib/gcc/sparc-elf/4.7.2/../../../../sparc-elf/include/sys/stat.h"
	.file 6 "syscall.h"
	.file 7 "/usr/local/cross2-gcc4/lib/gcc/sparc-elf/4.7.2/../../../../sparc-elf/include/string.h"
	.file 8 "/usr/local/cross2-gcc4/lib/gcc/sparc-elf/4.7.2/../../../../sparc-elf/include/stdio.h"
	.file 9 "/usr/local/cross2-gcc4/lib/gcc/sparc-elf/4.7.2/../../../../sparc-elf/include/stdlib.h"