
v850-elf.x:     file format elf32-v850


Disassembly of section .text:

00001400 <_start>:
    1400:	40 1e 01 00 	movhi	1, r0, sp
    1404:	23 1e 10 f1 	movea	-3824, sp, sp
    1408:	40 26 01 00 	movhi	1, r0, gp
    140c:	24 26 00 a4 	movea	-23552, gp, gp
    1410:	80 ff a8 01 	jarl	15b8 <__startmain>, lp
    1414:	0a 38       	mov	r10, r7

00001416 <___r_exit>:
    1416:	01 32       	mov	1, r6
    1418:	ff 07 00 01 	trap	31
    141c:	7f 00       	jmp	[lp]

0000141e <___r_read>:
    141e:	03 32       	mov	3, r6
    1420:	ff 07 00 01 	trap	31
    1424:	7f 00       	jmp	[lp]

00001426 <___r_write>:
    1426:	04 32       	mov	4, r6
    1428:	ff 07 00 01 	trap	31
    142c:	7f 00       	jmp	[lp]

0000142e <___r_open>:
    142e:	05 32       	mov	5, r6
    1430:	ff 07 00 01 	trap	31
    1434:	7f 00       	jmp	[lp]

00001436 <___r_close>:
    1436:	06 32       	mov	6, r6
    1438:	ff 07 00 01 	trap	31
    143c:	7f 00       	jmp	[lp]

0000143e <__save_r28_r31>:
    143e:	03 1e f4 ff 	addi	-12, sp, sp
    1442:	63 ef 01 00 	st.w	r29, 0[sp]
    1446:	63 e7 05 00 	st.w	r28, 4[sp]
    144a:	63 ff 09 00 	st.w	lp, 8[sp]
    144e:	6a 00       	jmp	[r10]

00001450 <__save_r29_r31>:
    1450:	03 1e f8 ff 	addi	-8, sp, sp
    1454:	63 ef 01 00 	st.w	r29, 0[sp]
    1458:	63 ff 05 00 	st.w	lp, 4[sp]
    145c:	6a 00       	jmp	[r10]

0000145e <__save_r31>:
    145e:	03 1e fc ff 	addi	-4, sp, sp
    1462:	63 ff 01 00 	st.w	lp, 0[sp]
    1466:	6a 00       	jmp	[r10]

00001468 <__return_r28_r31>:
    1468:	23 ef 01 00 	ld.w	0[sp], r29
    146c:	23 e7 05 00 	ld.w	4[sp], r28
    1470:	23 ff 09 00 	ld.w	8[sp], lp
    1474:	03 1e 0c 00 	addi	12, sp, sp
    1478:	7f 00       	jmp	[lp]

0000147a <__return_r29_r31>:
    147a:	23 ef 01 00 	ld.w	0[sp], r29
    147e:	23 ff 05 00 	ld.w	4[sp], lp
    1482:	03 1e 08 00 	addi	8, sp, sp
    1486:	7f 00       	jmp	[lp]

00001488 <__return_r31>:
    1488:	23 ff 01 00 	ld.w	0[sp], lp
    148c:	03 1e 04 00 	addi	4, sp, sp
    1490:	7f 00       	jmp	[lp]
	...

00001494 <___exit>:
    1494:	5c 1a       	add	-4, sp
    1496:	63 ff 01 00 	st.w	lp, 0[sp]
    149a:	06 38       	mov	r6, r7
    149c:	00 32       	mov	0, r6
    149e:	bf ff 78 ff 	jarl	1416 <___r_exit>, lp
	...

000014a4 <___read>:
    14a4:	5c 1a       	add	-4, sp
    14a6:	63 ff 01 00 	st.w	lp, 0[sp]
    14aa:	06 58       	mov	r6, r11
    14ac:	07 50       	mov	r7, r10
    14ae:	08 48       	mov	r8, r9
    14b0:	00 32       	mov	0, r6
    14b2:	0b 38       	mov	r11, r7
    14b4:	0a 40       	mov	r10, r8
    14b6:	bf ff 68 ff 	jarl	141e <___r_read>, lp
    14ba:	bf 07 ce ff 	jr	1488 <__return_r31>
	...

000014c0 <___write>:
    14c0:	5c 1a       	add	-4, sp
    14c2:	63 ff 01 00 	st.w	lp, 0[sp]
    14c6:	06 58       	mov	r6, r11
    14c8:	07 50       	mov	r7, r10
    14ca:	08 48       	mov	r8, r9
    14cc:	00 32       	mov	0, r6
    14ce:	0b 38       	mov	r11, r7
    14d0:	0a 40       	mov	r10, r8
    14d2:	bf ff 54 ff 	jarl	1426 <___r_write>, lp
    14d6:	bf 07 b2 ff 	jr	1488 <__return_r31>
	...

000014dc <___open>:
    14dc:	5c 1a       	add	-4, sp
    14de:	63 ff 01 00 	st.w	lp, 0[sp]
    14e2:	06 58       	mov	r6, r11
    14e4:	07 50       	mov	r7, r10
    14e6:	08 48       	mov	r8, r9
    14e8:	00 32       	mov	0, r6
    14ea:	0b 38       	mov	r11, r7
    14ec:	0a 40       	mov	r10, r8
    14ee:	bf ff 40 ff 	jarl	142e <___r_open>, lp
    14f2:	bf 07 96 ff 	jr	1488 <__return_r31>
	...

000014f8 <___close>:
    14f8:	5c 1a       	add	-4, sp
    14fa:	63 ff 01 00 	st.w	lp, 0[sp]
    14fe:	06 38       	mov	r6, r7
    1500:	00 32       	mov	0, r6
    1502:	bf ff 34 ff 	jarl	1436 <___r_close>, lp
    1506:	bf 07 82 ff 	jr	1488 <__return_r31>
	...

0000150c <__exit>:
    150c:	5c 1a       	add	-4, sp
    150e:	63 ff 01 00 	st.w	lp, 0[sp]
    1512:	bf ff 82 ff 	jarl	1494 <___exit>, lp
	...

00001518 <_read>:
    1518:	5c 1a       	add	-4, sp
    151a:	63 ff 01 00 	st.w	lp, 0[sp]
    151e:	bf ff 86 ff 	jarl	14a4 <___read>, lp
    1522:	bf 07 66 ff 	jr	1488 <__return_r31>
	...

00001528 <_write>:
    1528:	5c 1a       	add	-4, sp
    152a:	63 ff 01 00 	st.w	lp, 0[sp]
    152e:	bf ff 92 ff 	jarl	14c0 <___write>, lp
    1532:	bf 07 56 ff 	jr	1488 <__return_r31>
	...

00001538 <_open>:
    1538:	5c 1a       	add	-4, sp
    153a:	63 ff 01 00 	st.w	lp, 0[sp]
    153e:	bf ff 9e ff 	jarl	14dc <___open>, lp
    1542:	bf 07 46 ff 	jr	1488 <__return_r31>
	...

00001548 <_close>:
    1548:	5c 1a       	add	-4, sp
    154a:	63 ff 01 00 	st.w	lp, 0[sp]
    154e:	bf ff aa ff 	jarl	14f8 <___close>, lp
    1552:	bf 07 36 ff 	jr	1488 <__return_r31>
	...

00001558 <_fstat>:
    1558:	5c 1a       	add	-4, sp
    155a:	63 ff 01 00 	st.w	lp, 0[sp]
    155e:	07 30       	mov	r7, r6
    1560:	00 3a       	mov	0, r7
    1562:	20 46 3c 00 	movea	60, r0, r8
    1566:	80 ff a2 00 	jarl	1608 <_memset>, lp
    156a:	00 52       	mov	0, r10
    156c:	bf 07 1c ff 	jr	1488 <__return_r31>

00001570 <_lseek>:
    1570:	07 50       	mov	r7, r10
    1572:	7f 00       	jmp	[lp]

00001574 <_sbrk>:
    1574:	40 5e 01 00 	movhi	1, r0, r11
    1578:	2b 57 01 a4 	ld.w	-23552[r11], r10
    157c:	ca 31       	add	r10, r6
    157e:	6b 37 01 a4 	st.w	r6, -23552[r11]
    1582:	7f 00       	jmp	[lp]

00001584 <_isatty>:
    1584:	01 52       	mov	1, r10
    1586:	7f 00       	jmp	[lp]

00001588 <_main>:
    1588:	54 1a       	add	-12, sp
    158a:	63 ff 09 00 	st.w	lp, 8[sp]
    158e:	40 56 01 00 	movhi	1, r0, r10
    1592:	2a 57 05 a4 	ld.w	-23548[r10], r10
    1596:	63 57 01 00 	st.w	r10, 0[sp]
    159a:	40 56 01 00 	movhi	1, r0, r10
    159e:	2a 56 68 9f 	movea	-24728, r10, r10
    15a2:	63 57 05 00 	st.w	r10, 4[sp]
    15a6:	40 36 01 00 	movhi	1, r0, r6
    15aa:	26 36 3c 9f 	movea	-24772, r6, r6
    15ae:	80 ff 8e 00 	jarl	163c <_printf>, lp
    15b2:	00 32       	mov	0, r6
    15b4:	80 ff 28 00 	jarl	15dc <_exit>, lp

000015b8 <__startmain>:
    15b8:	5c 1a       	add	-4, sp
    15ba:	63 ff 01 00 	st.w	lp, 0[sp]
    15be:	40 56 01 00 	movhi	1, r0, r10
    15c2:	2a 56 c0 ac 	movea	-21312, r10, r10
    15c6:	0a 30       	mov	r10, r6
    15c8:	00 3a       	mov	0, r7
    15ca:	40 46 01 00 	movhi	1, r0, r8
    15ce:	28 46 0c ed 	movea	-4852, r8, r8
    15d2:	aa 41       	sub	r10, r8
    15d4:	80 ff 34 00 	jarl	1608 <_memset>, lp
    15d8:	bf ff b0 ff 	jarl	1588 <_main>, lp

000015dc <_exit>:
    15dc:	58 1a       	add	-8, sp
    15de:	00 3a       	mov	0, r7
    15e0:	63 ef 01 00 	st.w	r29, 0[sp]
    15e4:	63 ff 05 00 	st.w	lp, 4[sp]
    15e8:	06 e8       	mov	r6, r29
    15ea:	80 ff ce 1b 	jarl	31b8 <___call_exitprocs>, lp
    15ee:	24 37 85 fe 	ld.w	-380[gp], r6
    15f2:	26 57 3d 00 	ld.w	60[r6], r10
    15f6:	60 52       	cmp	0, r10
    15f8:	d2 05       	be	1602 <_exit+0x26>
    15fa:	80 ff 04 00 	jarl	15fe <_exit+0x22>, lp
    15fe:	44 fa       	add	4, lp
    1600:	6a 00       	jmp	[r10]
    1602:	1d 30       	mov	r29, r6
    1604:	bf ff 08 ff 	jarl	150c <__exit>, lp

00001608 <_memset>:
    1608:	06 50       	mov	r6, r10
    160a:	60 42       	cmp	0, r8
    160c:	a2 0d       	be	1620 <_memset+0x18>
    160e:	d8 3a       	shl	24, r7
    1610:	b8 3a       	sar	24, r7
    1612:	c6 41       	add	r6, r8
    1614:	06 58       	mov	r6, r11
    1616:	4b 3f 00 00 	st.b	r7, 0[r11]
    161a:	41 5a       	add	1, r11
    161c:	e8 59       	cmp	r8, r11
    161e:	ca fd       	bne	1616 <_memset+0xe>
    1620:	7f 00       	jmp	[lp]
	...

00001624 <__printf_r>:
    1624:	5c 1a       	add	-4, sp
    1626:	63 ff 01 00 	st.w	lp, 0[sp]
    162a:	07 40       	mov	r7, r8
    162c:	04 4a       	mov	4, r9
    162e:	26 3f 09 00 	ld.w	8[r6], r7
    1632:	c3 49       	add	sp, r9
    1634:	80 ff 24 00 	jarl	1658 <__vfprintf_r>, lp
    1638:	bf 07 50 fe 	jr	1488 <__return_r31>

0000163c <_printf>:
    163c:	06 40       	mov	r6, r8
    163e:	24 37 bd 08 	ld.w	2236[gp], r6
    1642:	5c 1a       	add	-4, sp
    1644:	63 ff 01 00 	st.w	lp, 0[sp]
    1648:	04 4a       	mov	4, r9
    164a:	26 3f 09 00 	ld.w	8[r6], r7
    164e:	c3 49       	add	sp, r9
    1650:	80 ff 08 00 	jarl	1658 <__vfprintf_r>, lp
    1654:	bf 07 34 fe 	jr	1488 <__return_r31>

00001658 <__vfprintf_r>:
    1658:	03 1e b4 fa 	addi	-1356, sp, sp
    165c:	63 ff 49 05 	st.w	lp, 1352[sp]
    1660:	63 a7 41 05 	st.w	r20, 1344[sp]
    1664:	63 e7 21 05 	st.w	r28, 1312[sp]
    1668:	63 ef 1d 05 	st.w	r29, 1308[sp]
    166c:	06 a0       	mov	r6, r20
    166e:	07 e8       	mov	r7, r29
    1670:	08 e0       	mov	r8, r28
    1672:	63 4f 2d 00 	st.w	r9, 44[sp]
    1676:	63 17 45 05 	st.w	r2, 1348[sp]
    167a:	63 af 3d 05 	st.w	r21, 1340[sp]
    167e:	63 b7 39 05 	st.w	r22, 1336[sp]
    1682:	63 bf 35 05 	st.w	r23, 1332[sp]
    1686:	63 c7 31 05 	st.w	r24, 1328[sp]
    168a:	63 cf 2d 05 	st.w	r25, 1324[sp]
    168e:	63 d7 29 05 	st.w	r26, 1320[sp]
    1692:	63 df 25 05 	st.w	r27, 1316[sp]
    1696:	80 ff 8e 3c 	jarl	5324 <__localeconv_r>, lp
    169a:	2a 57 01 00 	ld.w	0[r10], r10
    169e:	0a 30       	mov	r10, r6
    16a0:	63 57 3d 00 	st.w	r10, 60[sp]
    16a4:	80 ff bc 53 	jarl	6a60 <_strlen>, lp
    16a8:	63 57 4d 00 	st.w	r10, 76[sp]
    16ac:	63 07 51 00 	st.w	r0, 80[sp]
    16b0:	63 07 55 00 	st.w	r0, 84[sp]
    16b4:	60 a2       	cmp	0, r20
    16b6:	f2 05       	be	16c4 <__vfprintf_r+0x6c>
    16b8:	34 57 39 00 	ld.w	56[r20], r10
    16bc:	60 52       	cmp	0, r10
    16be:	ba 05       	bne	16c4 <__vfprintf_r+0x6c>
    16c0:	80 07 06 05 	jr	1bc6 <__vfprintf_r+0x56e>
    16c4:	3d 57 0c 00 	ld.h	12[r29], r10
    16c8:	40 5e 00 20 	movhi	8192, r0, r11
    16cc:	d0 52       	shl	16, r10
    16ce:	4a 59       	and	r10, r11
    16d0:	b0 52       	sar	16, r10
    16d2:	60 5a       	cmp	0, r11
    16d4:	ca 0d       	bne	16ec <__vfprintf_r+0x94>
    16d6:	3d 5f 65 00 	ld.w	100[r29], r11
    16da:	20 66 ff df 	movea	-8193, r0, r12
    16de:	8a 56 00 20 	ori	8192, r10, r10
    16e2:	4c 59       	and	r12, r11
    16e4:	7d 57 0c 00 	st.h	r10, 12[r29]
    16e8:	7d 5f 65 00 	st.w	r11, 100[r29]
    16ec:	ca 5e 08 00 	andi	8, r10, r11
    16f0:	ba 05       	bne	16f6 <__vfprintf_r+0x9e>
    16f2:	80 07 ae 03 	jr	1aa0 <__vfprintf_r+0x448>
    16f6:	3d 5f 11 00 	ld.w	16[r29], r11
    16fa:	60 5a       	cmp	0, r11
    16fc:	ba 05       	bne	1702 <__vfprintf_r+0xaa>
    16fe:	80 07 a2 03 	jr	1aa0 <__vfprintf_r+0x448>
    1702:	ca 5e 1a 00 	andi	26, r10, r11
    1706:	6a 5a       	cmp	10, r11
    1708:	ba 05       	bne	170e <__vfprintf_r+0xb6>
    170a:	80 07 b6 03 	jr	1ac0 <__vfprintf_r+0x468>
    170e:	03 56 1c 01 	addi	284, sp, r10
    1712:	40 5e 01 00 	movhi	1, r0, r11
    1716:	40 76 01 00 	movhi	1, r0, r14
    171a:	63 07 89 00 	st.w	r0, 136[sp]
    171e:	63 07 85 00 	st.w	r0, 132[sp]
    1722:	63 07 41 00 	st.w	r0, 64[sp]
    1726:	63 07 5d 00 	st.w	r0, 92[sp]
    172a:	63 07 59 00 	st.w	r0, 88[sp]
    172e:	63 07 29 00 	st.w	r0, 40[sp]
    1732:	0a 60       	mov	r10, r12
    1734:	2b d6 ae 9f 	movea	-24658, r11, r26
    1738:	2e c6 be 9f 	movea	-24642, r14, r24
    173c:	1c c8       	mov	r28, r25
    173e:	63 57 81 00 	st.w	r10, 128[sp]
    1742:	19 57 00 00 	ld.b	0[r25], r10
    1746:	d8 52       	shl	24, r10
    1748:	b8 52       	sar	24, r10
    174a:	ba 05       	bne	1750 <__vfprintf_r+0xf8>
    174c:	80 07 b8 09 	jr	2104 <__vfprintf_r+0xaac>
    1750:	20 5e 25 00 	movea	37, r0, r11
    1754:	19 e0       	mov	r25, r28
    1756:	eb 51       	cmp	r11, r10
    1758:	ca 05       	bne	1760 <__vfprintf_r+0x108>
    175a:	c5 25       	br	17a2 <__vfprintf_r+0x14a>
    175c:	eb 51       	cmp	r11, r10
    175e:	f2 05       	be	176c <__vfprintf_r+0x114>
    1760:	41 e2       	add	1, r28
    1762:	1c 57 00 00 	ld.b	0[r28], r10
    1766:	d8 52       	shl	24, r10
    1768:	b8 52       	sar	24, r10
    176a:	9a fd       	bne	175c <__vfprintf_r+0x104>
    176c:	1c d8       	mov	r28, r27
    176e:	b9 d9       	sub	r25, r27
    1770:	92 1d       	be	17a2 <__vfprintf_r+0x14a>
    1772:	23 57 89 00 	ld.w	136[sp], r10
    1776:	23 5f 85 00 	ld.w	132[sp], r11
    177a:	db 51       	add	r27, r10
    177c:	6c cf 01 00 	st.w	r25, 0[r12]
    1780:	6c df 05 00 	st.w	r27, 4[r12]
    1784:	41 5a       	add	1, r11
    1786:	63 57 89 00 	st.w	r10, 136[sp]
    178a:	63 5f 85 00 	st.w	r11, 132[sp]
    178e:	67 5a       	cmp	7, r11
    1790:	b7 05       	ble	1796 <__vfprintf_r+0x13e>
    1792:	80 07 1a 04 	jr	1bac <__vfprintf_r+0x554>
    1796:	48 62       	add	8, r12
    1798:	23 77 29 00 	ld.w	40[sp], r14
    179c:	db 71       	add	r27, r14
    179e:	63 77 29 00 	st.w	r14, 40[sp]
    17a2:	1c 57 00 00 	ld.b	0[r28], r10
    17a6:	d8 52       	shl	24, r10
    17a8:	ba 05       	bne	17ae <__vfprintf_r+0x156>
    17aa:	80 07 a8 03 	jr	1b52 <__vfprintf_r+0x4fa>
    17ae:	1c ce 01 00 	addi	1, r28, r25
    17b2:	1f 12       	mov	-1, r2
    17b4:	63 07 31 00 	st.w	r0, 48[sp]
    17b8:	00 da       	mov	0, r27
    17ba:	20 6e 58 00 	movea	88, r0, r13
    17be:	20 96 2a 00 	movea	42, r0, r18
    17c2:	20 8e 2b 00 	movea	43, r0, r17
    17c6:	20 9e 20 00 	movea	32, r0, r19
    17ca:	43 07 61 00 	st.b	r0, 97[sp]
    17ce:	19 bf 00 00 	ld.b	0[r25], r23
    17d2:	41 ca       	add	1, r25
    17d4:	d8 ba       	shl	24, r23
    17d6:	b8 ba       	sar	24, r23
    17d8:	17 56 e0 ff 	addi	-32, r23, r10
    17dc:	ed 51       	cmp	r13, r10
    17de:	d3 15       	bnh	1808 <__vfprintf_r+0x1b0>
    17e0:	60 ba       	cmp	0, r23
    17e2:	ba 05       	bne	17e8 <__vfprintf_r+0x190>
    17e4:	80 07 6e 03 	jr	1b52 <__vfprintf_r+0x4fa>
    17e8:	01 72       	mov	1, r14
    17ea:	0e b0       	mov	r14, r22
    17ec:	03 e6 8c 00 	addi	140, sp, r28
    17f0:	63 77 21 00 	st.w	r14, 32[sp]
    17f4:	43 bf 8c 00 	st.b	r23, 140[sp]
    17f8:	43 07 61 00 	st.b	r0, 97[sp]
    17fc:	63 07 39 00 	st.w	r0, 56[sp]
    1800:	63 07 45 00 	st.w	r0, 68[sp]
    1804:	80 07 ce 01 	jr	19d2 <__vfprintf_r+0x37a>
    1808:	40 5e 00 00 	movhi	0, r0, r11
    180c:	2b 5e 20 18 	movea	6176, r11, r11
    1810:	c1 52       	shl	1, r10
    1812:	cb 51       	add	r11, r10
    1814:	2a 57 00 00 	ld.h	0[r10], r10
    1818:	d0 52       	shl	16, r10
    181a:	b0 52       	sar	16, r10
    181c:	cb 51       	add	r11, r10
    181e:	6a 00       	jmp	[r10]
    1820:	64 06 c0 ff 	.long	0xffc00664
    1824:	c0 ff 0e 06 	tst1	7, 1550[r0]
    1828:	c0 ff c0 ff 	tst1	7, -64[r0]
    182c:	c0 ff c0 ff 	tst1	7, -64[r0]
    1830:	c0 ff c0 ff 	tst1	7, -64[r0]
    1834:	16 06 fe 05 	addi	1534, r22, r0
    1838:	c0 ff 78 02 	tst1	7, 632[r0]
    183c:	78 06 c0 ff 	.long	0xffc00678
    1840:	06 06 38 06 	addi	1592, r6, r0
    1844:	38 06 38 06 	.long	0x06380638
    1848:	38 06 38 06 	.long	0x06380638
    184c:	38 06 38 06 	.long	0x06380638
    1850:	38 06 38 06 	.long	0x06380638
    1854:	c0 ff c0 ff 	tst1	7, -64[r0]
    1858:	c0 ff c0 ff 	tst1	7, -64[r0]
    185c:	c0 ff c0 ff 	tst1	7, -64[r0]
    1860:	c0 ff c0 ff 	tst1	7, -64[r0]
    1864:	c0 ff c0 ff 	tst1	7, -64[r0]
    1868:	ba 00       	.short	0x00ba
    186a:	04 05       	sld.w	8[ep], r0
    186c:	c0 ff 04 05 	tst1	7, 1284[r0]
    1870:	c0 ff c0 ff 	tst1	7, -64[r0]
    1874:	c0 ff c0 ff 	tst1	7, -64[r0]
    1878:	9a 05       	bne	187a <__vfprintf_r+0x222>
    187a:	c0 ff c0 ff 	tst1	7, -64[r0]
    187e:	f0 00       	.short	0x00f0
    1880:	c0 ff c0 ff 	tst1	7, -64[r0]
    1884:	c0 ff c0 ff 	tst1	7, -64[r0]
    1888:	c0 ff 1e 01 	tst1	7, 286[r0]
    188c:	c0 ff c0 ff 	tst1	7, -64[r0]
    1890:	a2 05       	be	1894 <__vfprintf_r+0x23c>
    1892:	c0 ff c0 ff 	tst1	7, -64[r0]
    1896:	c0 ff c0 ff 	tst1	7, -64[r0]
    189a:	c0 ff c0 ff 	tst1	7, -64[r0]
    189e:	c0 ff c0 ff 	tst1	7, -64[r0]
    18a2:	c0 ff c0 ff 	tst1	7, -64[r0]
    18a6:	d8 05       	bnv	18b0 <__vfprintf_r+0x258>
    18a8:	be 00       	.short	0x00be
    18aa:	04 05       	sld.w	8[ep], r0
    18ac:	04 05       	sld.w	8[ep], r0
    18ae:	04 05       	sld.w	8[ep], r0
    18b0:	fc 04       	sst.h	r0, 248[ep]
    18b2:	be 00       	.short	0x00be
    18b4:	c0 ff c0 ff 	tst1	7, -64[r0]
    18b8:	b2 00       	.short	0x00b2
    18ba:	c0 ff d8 04 	tst1	7, 1240[r0]
    18be:	f4 00       	.short	0x00f4
    18c0:	54 04       	sld.h	168[ep], r0
    18c2:	b2 00       	.short	0x00b2
    18c4:	c0 ff ea 03 	tst1	7, 1002[r0]
    18c8:	c0 ff 22 01 	tst1	7, 290[r0]
    18cc:	c0 ff c0 ff 	tst1	7, -64[r0]
    18d0:	8c 04       	sst.h	r0, 24[ep]
    18d2:	9b de 10 00 	ori	16, r27, r27
    18d6:	bf 07 f8 fe 	jr	17ce <__vfprintf_r+0x176>
    18da:	9b de 10 00 	ori	16, r27, r27
    18de:	db 56 10 00 	andi	16, r27, r10
    18e2:	b2 05       	be	18e8 <__vfprintf_r+0x290>
    18e4:	80 07 14 03 	jr	1bf8 <__vfprintf_r+0x5a0>
    18e8:	db 56 40 00 	andi	64, r27, r10
    18ec:	ba 05       	bne	18f2 <__vfprintf_r+0x29a>
    18ee:	80 07 4e 11 	jr	2a3c <__vfprintf_r+0x13e4>
    18f2:	23 5f 2d 00 	ld.w	44[sp], r11
    18f6:	2b b7 01 00 	ld.w	0[r11], r22
    18fa:	44 5a       	add	4, r11
    18fc:	d0 b2       	shl	16, r22
    18fe:	b0 b2       	sar	16, r22
    1900:	63 5f 2d 00 	st.w	r11, 44[sp]
    1904:	60 b2       	cmp	0, r22
    1906:	be 05       	bge	190c <__vfprintf_r+0x2b4>
    1908:	80 07 24 0f 	jr	282c <__vfprintf_r+0x11d4>
    190c:	01 52       	mov	1, r10
    190e:	85 35       	br	196e <__vfprintf_r+0x316>
    1910:	9b de 10 00 	ori	16, r27, r27
    1914:	db 56 10 00 	andi	16, r27, r10
    1918:	b2 05       	be	191e <__vfprintf_r+0x2c6>
    191a:	80 07 ca 02 	jr	1be4 <__vfprintf_r+0x58c>
    191e:	db 56 40 00 	andi	64, r27, r10
    1922:	ba 05       	bne	1928 <__vfprintf_r+0x2d0>
    1924:	80 07 cc 10 	jr	29f0 <__vfprintf_r+0x1398>
    1928:	23 5f 2d 00 	ld.w	44[sp], r11
    192c:	00 52       	mov	0, r10
    192e:	2b b7 01 00 	ld.w	0[r11], r22
    1932:	44 5a       	add	4, r11
    1934:	d6 b6 ff ff 	andi	65535, r22, r22
    1938:	63 5f 2d 00 	st.w	r11, 44[sp]
    193c:	f5 15       	br	196a <__vfprintf_r+0x312>
    193e:	9b de 10 00 	ori	16, r27, r27
    1942:	db 56 10 00 	andi	16, r27, r10
    1946:	b2 05       	be	194c <__vfprintf_r+0x2f4>
    1948:	80 07 88 02 	jr	1bd0 <__vfprintf_r+0x578>
    194c:	db 56 40 00 	andi	64, r27, r10
    1950:	ba 05       	bne	1956 <__vfprintf_r+0x2fe>
    1952:	80 07 b2 10 	jr	2a04 <__vfprintf_r+0x13ac>
    1956:	23 77 2d 00 	ld.w	44[sp], r14
    195a:	01 52       	mov	1, r10
    195c:	2e b7 01 00 	ld.w	0[r14], r22
    1960:	44 72       	add	4, r14
    1962:	d6 b6 ff ff 	andi	65535, r22, r22
    1966:	63 77 2d 00 	st.w	r14, 44[sp]
    196a:	43 07 61 00 	st.b	r0, 97[sp]
    196e:	60 12       	cmp	0, r2
    1970:	c6 05       	blt	1978 <__vfprintf_r+0x320>
    1972:	20 6e 7f ff 	movea	-129, r0, r13
    1976:	4d d9       	and	r13, r27
    1978:	60 b2       	cmp	0, r22
    197a:	b2 05       	be	1980 <__vfprintf_r+0x328>
    197c:	80 07 8e 07 	jr	210a <__vfprintf_r+0xab2>
    1980:	60 12       	cmp	0, r2
    1982:	b2 05       	be	1988 <__vfprintf_r+0x330>
    1984:	80 07 86 07 	jr	210a <__vfprintf_r+0xab2>
    1988:	60 52       	cmp	0, r10
    198a:	b2 05       	be	1990 <__vfprintf_r+0x338>
    198c:	80 07 fe 0a 	jr	248a <__vfprintf_r+0xe32>
    1990:	db 56 01 00 	andi	1, r27, r10
    1994:	ba 05       	bne	199a <__vfprintf_r+0x342>
    1996:	80 07 f4 0a 	jr	248a <__vfprintf_r+0xe32>
    199a:	20 56 30 00 	movea	48, r0, r10
    199e:	01 b2       	mov	1, r22
    19a0:	03 e6 b3 00 	addi	179, sp, r28
    19a4:	43 57 b3 00 	st.b	r10, 179[sp]
    19a8:	63 b7 21 00 	st.w	r22, 32[sp]
    19ac:	e2 b1       	cmp	r2, r22
    19ae:	be 05       	bge	19b4 <__vfprintf_r+0x35c>
    19b0:	63 17 21 00 	st.w	r2, 32[sp]
    19b4:	03 57 61 00 	ld.b	97[sp], r10
    19b8:	63 07 45 00 	st.w	r0, 68[sp]
    19bc:	d8 52       	shl	24, r10
    19be:	b8 52       	sar	24, r10
    19c0:	63 17 39 00 	st.w	r2, 56[sp]
    19c4:	60 52       	cmp	0, r10
    19c6:	e2 05       	be	19d2 <__vfprintf_r+0x37a>
    19c8:	23 5f 21 00 	ld.w	32[sp], r11
    19cc:	41 5a       	add	1, r11
    19ce:	63 5f 21 00 	st.w	r11, 32[sp]
    19d2:	db 6e 02 00 	andi	2, r27, r13
    19d6:	63 6f 25 00 	st.w	r13, 36[sp]
    19da:	e2 05       	be	19e6 <__vfprintf_r+0x38e>
    19dc:	23 77 21 00 	ld.w	32[sp], r14
    19e0:	42 72       	add	2, r14
    19e2:	63 77 21 00 	st.w	r14, 32[sp]
    19e6:	db 5e 84 00 	andi	132, r27, r11
    19ea:	63 5f 35 00 	st.w	r11, 52[sp]
    19ee:	b2 05       	be	19f4 <__vfprintf_r+0x39c>
    19f0:	80 07 10 05 	jr	1f00 <__vfprintf_r+0x8a8>
    19f4:	23 af 31 00 	ld.w	48[sp], r21
    19f8:	23 6f 21 00 	ld.w	32[sp], r13
    19fc:	ad a9       	sub	r13, r21
    19fe:	60 aa       	cmp	0, r21
    1a00:	bf 05       	bgt	1a06 <__vfprintf_r+0x3ae>
    1a02:	80 07 fe 04 	jr	1f00 <__vfprintf_r+0x8a8>
    1a06:	20 8e 10 00 	movea	16, r0, r17
    1a0a:	63 d7 49 00 	st.w	r26, 72[sp]
    1a0e:	23 6f 89 00 	ld.w	136[sp], r13
    1a12:	23 5f 85 00 	ld.w	132[sp], r11
    1a16:	11 10       	mov	r17, r2
    1a18:	f1 a9       	cmp	r17, r21
    1a1a:	ef 05       	bgt	1a26 <__vfprintf_r+0x3ce>
    1a1c:	e5 25       	br	1a68 <__vfprintf_r+0x410>
    1a1e:	50 aa       	add	-16, r21
    1a20:	48 62       	add	8, r12
    1a22:	e2 a9       	cmp	r2, r21
    1a24:	a7 25       	ble	1a68 <__vfprintf_r+0x410>
    1a26:	6c d7 01 00 	st.w	r26, 0[r12]
    1a2a:	6c 17 05 00 	st.w	r2, 4[r12]
    1a2e:	0d 6e 10 00 	addi	16, r13, r13
    1a32:	41 5a       	add	1, r11
    1a34:	63 6f 89 00 	st.w	r13, 136[sp]
    1a38:	63 5f 85 00 	st.w	r11, 132[sp]
    1a3c:	67 5a       	cmp	7, r11
    1a3e:	87 f5       	ble	1a1e <__vfprintf_r+0x3c6>
    1a40:	20 46 80 00 	movea	128, r0, r8
    1a44:	14 30       	mov	r20, r6
    1a46:	1d 38       	mov	r29, r7
    1a48:	c3 41       	add	sp, r8
    1a4a:	80 ff 46 50 	jarl	6a90 <___sprint_r>, lp
    1a4e:	60 52       	cmp	0, r10
    1a50:	b2 05       	be	1a56 <__vfprintf_r+0x3fe>
    1a52:	80 07 14 01 	jr	1b66 <__vfprintf_r+0x50e>
    1a56:	50 aa       	add	-16, r21
    1a58:	23 6f 89 00 	ld.w	136[sp], r13
    1a5c:	23 5f 85 00 	ld.w	132[sp], r11
    1a60:	03 66 1c 01 	addi	284, sp, r12
    1a64:	e2 a9       	cmp	r2, r21
    1a66:	8f e5       	bgt	1a26 <__vfprintf_r+0x3ce>
    1a68:	23 77 49 00 	ld.w	72[sp], r14
    1a6c:	6c af 05 00 	st.w	r21, 4[r12]
    1a70:	6c 77 01 00 	st.w	r14, 0[r12]
    1a74:	d5 69       	add	r21, r13
    1a76:	41 5a       	add	1, r11
    1a78:	63 6f 89 00 	st.w	r13, 136[sp]
    1a7c:	63 5f 85 00 	st.w	r11, 132[sp]
    1a80:	67 5a       	cmp	7, r11
    1a82:	b7 05       	ble	1a88 <__vfprintf_r+0x430>
    1a84:	80 07 ea 0a 	jr	256e <__vfprintf_r+0xf16>
    1a88:	48 62       	add	8, r12
    1a8a:	80 07 7a 04 	jr	1f04 <__vfprintf_r+0x8ac>
    1a8e:	80 59       	subr	r0, r11
    1a90:	63 5f 31 00 	st.w	r11, 48[sp]
    1a94:	63 57 2d 00 	st.w	r10, 44[sp]
    1a98:	9b de 04 00 	ori	4, r27, r27
    1a9c:	bf 07 32 fd 	jr	17ce <__vfprintf_r+0x176>
    1aa0:	14 30       	mov	r20, r6
    1aa2:	1d 38       	mov	r29, r7
    1aa4:	80 ff f4 15 	jarl	3098 <___swsetup_r>, lp
    1aa8:	60 52       	cmp	0, r10
    1aaa:	9a 65       	bne	1b6c <__vfprintf_r+0x514>
    1aac:	3d 57 0c 00 	ld.h	12[r29], r10
    1ab0:	d0 52       	shl	16, r10
    1ab2:	b0 52       	sar	16, r10
    1ab4:	ca 5e 1a 00 	andi	26, r10, r11
    1ab8:	6a 5a       	cmp	10, r11
    1aba:	b2 05       	be	1ac0 <__vfprintf_r+0x468>
    1abc:	bf 07 52 fc 	jr	170e <__vfprintf_r+0xb6>
    1ac0:	3d 5f 0e 00 	ld.h	14[r29], r11
    1ac4:	d0 5a       	shl	16, r11
    1ac6:	b0 5a       	sar	16, r11
    1ac8:	60 5a       	cmp	0, r11
    1aca:	be 05       	bge	1ad0 <__vfprintf_r+0x478>
    1acc:	bf 07 42 fc 	jr	170e <__vfprintf_r+0xb6>
    1ad0:	3d 87 65 00 	ld.w	100[r29], r16
    1ad4:	3d 7f 1d 00 	ld.w	28[r29], r15
    1ad8:	3d 77 25 00 	ld.w	36[r29], r14
    1adc:	1d 62       	mov	-3, r12
    1ade:	20 3e b4 00 	movea	180, r0, r7
    1ae2:	23 4f 2d 00 	ld.w	44[sp], r9
    1ae6:	4c 51       	and	r12, r10
    1ae8:	03 6e 1c 01 	addi	284, sp, r13
    1aec:	20 66 00 04 	movea	1024, r0, r12
    1af0:	14 30       	mov	r20, r6
    1af2:	c3 39       	add	sp, r7
    1af4:	1c 40       	mov	r28, r8
    1af6:	63 57 c0 00 	st.h	r10, 192[sp]
    1afa:	63 87 19 01 	st.w	r16, 280[sp]
    1afe:	63 5f c2 00 	st.h	r11, 194[sp]
    1b02:	63 7f d1 00 	st.w	r15, 208[sp]
    1b06:	63 77 d9 00 	st.w	r14, 216[sp]
    1b0a:	63 6f b5 00 	st.w	r13, 180[sp]
    1b0e:	63 6f c5 00 	st.w	r13, 196[sp]
    1b12:	63 67 bd 00 	st.w	r12, 188[sp]
    1b16:	63 67 c9 00 	st.w	r12, 200[sp]
    1b1a:	63 07 cd 00 	st.w	r0, 204[sp]
    1b1e:	bf ff 3a fb 	jarl	1658 <__vfprintf_r>, lp
    1b22:	63 57 29 00 	st.w	r10, 40[sp]
    1b26:	60 52       	cmp	0, r10
    1b28:	b6 0d       	blt	1b3e <__vfprintf_r+0x4e6>
    1b2a:	20 3e b4 00 	movea	180, r0, r7
    1b2e:	14 30       	mov	r20, r6
    1b30:	c3 39       	add	sp, r7
    1b32:	80 ff 16 30 	jarl	4b48 <__fflush_r>, lp
    1b36:	60 52       	cmp	0, r10
    1b38:	b2 05       	be	1b3e <__vfprintf_r+0x4e6>
    1b3a:	80 07 12 15 	jr	304c <__vfprintf_r+0x19f4>
    1b3e:	c3 f7 c0 00 	tst1	6, 192[sp]
    1b42:	82 1d       	be	1b72 <__vfprintf_r+0x51a>
    1b44:	3d 57 0c 00 	ld.h	12[r29], r10
    1b48:	8a 56 40 00 	ori	64, r10, r10
    1b4c:	7d 57 0c 00 	st.h	r10, 12[r29]
    1b50:	95 15       	br	1b72 <__vfprintf_r+0x51a>
    1b52:	23 57 89 00 	ld.w	136[sp], r10
    1b56:	60 52       	cmp	0, r10
    1b58:	f2 05       	be	1b66 <__vfprintf_r+0x50e>
    1b5a:	14 30       	mov	r20, r6
    1b5c:	1d 38       	mov	r29, r7
    1b5e:	03 46 80 00 	addi	128, sp, r8
    1b62:	80 ff 2e 4f 	jarl	6a90 <___sprint_r>, lp
    1b66:	dd f7 0c 00 	tst1	6, 12[r29]
    1b6a:	c2 05       	be	1b72 <__vfprintf_r+0x51a>
    1b6c:	1f 6a       	mov	-1, r13
    1b6e:	63 6f 29 00 	st.w	r13, 40[sp]
    1b72:	23 ff 49 05 	ld.w	1352[sp], lp
    1b76:	23 57 29 00 	ld.w	40[sp], r10
    1b7a:	23 17 45 05 	ld.w	1348[sp], r2
    1b7e:	23 a7 41 05 	ld.w	1344[sp], r20
    1b82:	23 af 3d 05 	ld.w	1340[sp], r21
    1b86:	23 b7 39 05 	ld.w	1336[sp], r22
    1b8a:	23 bf 35 05 	ld.w	1332[sp], r23
    1b8e:	23 c7 31 05 	ld.w	1328[sp], r24
    1b92:	23 cf 2d 05 	ld.w	1324[sp], r25
    1b96:	23 d7 29 05 	ld.w	1320[sp], r26
    1b9a:	23 df 25 05 	ld.w	1316[sp], r27
    1b9e:	23 e7 21 05 	ld.w	1312[sp], r28
    1ba2:	23 ef 1d 05 	ld.w	1308[sp], r29
    1ba6:	03 1e 4c 05 	addi	1356, sp, sp
    1baa:	7f 00       	jmp	[lp]
    1bac:	20 46 80 00 	movea	128, r0, r8
    1bb0:	14 30       	mov	r20, r6
    1bb2:	1d 38       	mov	r29, r7
    1bb4:	c3 41       	add	sp, r8
    1bb6:	80 ff da 4e 	jarl	6a90 <___sprint_r>, lp
    1bba:	60 52       	cmp	0, r10
    1bbc:	da d5       	bne	1b66 <__vfprintf_r+0x50e>
    1bbe:	03 66 1c 01 	addi	284, sp, r12
    1bc2:	bf 07 d6 fb 	jr	1798 <__vfprintf_r+0x140>
    1bc6:	14 30       	mov	r20, r6
    1bc8:	80 ff e8 30 	jarl	4cb0 <___sinit>, lp
    1bcc:	bf 07 f8 fa 	jr	16c4 <__vfprintf_r+0x6c>
    1bd0:	23 6f 2d 00 	ld.w	44[sp], r13
    1bd4:	01 52       	mov	1, r10
    1bd6:	2d b7 01 00 	ld.w	0[r13], r22
    1bda:	44 6a       	add	4, r13
    1bdc:	63 6f 2d 00 	st.w	r13, 44[sp]
    1be0:	bf 07 8a fd 	jr	196a <__vfprintf_r+0x312>
    1be4:	23 77 2d 00 	ld.w	44[sp], r14
    1be8:	00 52       	mov	0, r10
    1bea:	2e b7 01 00 	ld.w	0[r14], r22
    1bee:	44 72       	add	4, r14
    1bf0:	63 77 2d 00 	st.w	r14, 44[sp]
    1bf4:	bf 07 76 fd 	jr	196a <__vfprintf_r+0x312>
    1bf8:	23 77 2d 00 	ld.w	44[sp], r14
    1bfc:	2e b7 01 00 	ld.w	0[r14], r22
    1c00:	44 72       	add	4, r14
    1c02:	63 77 2d 00 	st.w	r14, 44[sp]
    1c06:	bf 07 fe fc 	jr	1904 <__vfprintf_r+0x2ac>
    1c0a:	23 5f 2d 00 	ld.w	44[sp], r11
    1c0e:	43 07 61 00 	st.b	r0, 97[sp]
    1c12:	2b e7 01 00 	ld.w	0[r11], r28
    1c16:	0b a8       	mov	r11, r21
    1c18:	44 aa       	add	4, r21
    1c1a:	60 e2       	cmp	0, r28
    1c1c:	ba 05       	bne	1c22 <__vfprintf_r+0x5ca>
    1c1e:	80 07 c2 10 	jr	2ce0 <__vfprintf_r+0x1688>
    1c22:	1c 30       	mov	r28, r6
    1c24:	60 12       	cmp	0, r2
    1c26:	be 05       	bge	1c2c <__vfprintf_r+0x5d4>
    1c28:	80 07 f4 0f 	jr	2c1c <__vfprintf_r+0x15c4>
    1c2c:	00 3a       	mov	0, r7
    1c2e:	02 40       	mov	r2, r8
    1c30:	63 67 15 00 	st.w	r12, 20[sp]
    1c34:	80 ff 98 3f 	jarl	5bcc <_memchr>, lp
    1c38:	23 67 15 00 	ld.w	20[sp], r12
    1c3c:	60 52       	cmp	0, r10
    1c3e:	ba 05       	bne	1c44 <__vfprintf_r+0x5ec>
    1c40:	80 07 a2 02 	jr	1ee2 <__vfprintf_r+0x88a>
    1c44:	0a b0       	mov	r10, r22
    1c46:	bc b1       	sub	r28, r22
    1c48:	e2 b1       	cmp	r2, r22
    1c4a:	b7 05       	ble	1c50 <__vfprintf_r+0x5f8>
    1c4c:	80 07 96 02 	jr	1ee2 <__vfprintf_r+0x88a>
    1c50:	63 b7 21 00 	st.w	r22, 32[sp]
    1c54:	60 b2       	cmp	0, r22
    1c56:	be 05       	bge	1c5c <__vfprintf_r+0x604>
    1c58:	80 07 de 0f 	jr	2c36 <__vfprintf_r+0x15de>
    1c5c:	03 57 61 00 	ld.b	97[sp], r10
    1c60:	63 af 2d 00 	st.w	r21, 44[sp]
    1c64:	d8 52       	shl	24, r10
    1c66:	b8 52       	sar	24, r10
    1c68:	63 07 39 00 	st.w	r0, 56[sp]
    1c6c:	63 07 45 00 	st.w	r0, 68[sp]
    1c70:	bf 07 54 fd 	jr	19c4 <__vfprintf_r+0x36c>
    1c74:	23 77 2d 00 	ld.w	44[sp], r14
    1c78:	20 56 30 00 	movea	48, r0, r10
    1c7c:	2e b7 01 00 	ld.w	0[r14], r22
    1c80:	43 57 62 00 	st.b	r10, 98[sp]
    1c84:	20 56 78 00 	movea	120, r0, r10
    1c88:	43 57 63 00 	st.b	r10, 99[sp]
    1c8c:	40 56 01 00 	movhi	1, r0, r10
    1c90:	2a 56 94 9f 	movea	-24684, r10, r10
    1c94:	44 72       	add	4, r14
    1c96:	63 57 5d 00 	st.w	r10, 92[sp]
    1c9a:	9b de 02 00 	ori	2, r27, r27
    1c9e:	63 77 2d 00 	st.w	r14, 44[sp]
    1ca2:	02 52       	mov	2, r10
    1ca4:	20 be 78 00 	movea	120, r0, r23
    1ca8:	bf 07 c2 fc 	jr	196a <__vfprintf_r+0x312>
    1cac:	40 56 01 00 	movhi	1, r0, r10
    1cb0:	2a 56 94 9f 	movea	-24684, r10, r10
    1cb4:	63 57 5d 00 	st.w	r10, 92[sp]
    1cb8:	db 56 10 00 	andi	16, r27, r10
    1cbc:	ba 05       	bne	1cc2 <__vfprintf_r+0x66a>
    1cbe:	80 07 1a 01 	jr	1dd8 <__vfprintf_r+0x780>
    1cc2:	23 6f 2d 00 	ld.w	44[sp], r13
    1cc6:	2d b7 01 00 	ld.w	0[r13], r22
    1cca:	44 6a       	add	4, r13
    1ccc:	63 6f 2d 00 	st.w	r13, 44[sp]
    1cd0:	db 56 01 00 	andi	1, r27, r10
    1cd4:	ba 05       	bne	1cda <__vfprintf_r+0x682>
    1cd6:	80 07 d8 07 	jr	24ae <__vfprintf_r+0xe56>
    1cda:	60 b2       	cmp	0, r22
    1cdc:	ba 05       	bne	1ce2 <__vfprintf_r+0x68a>
    1cde:	80 07 d0 07 	jr	24ae <__vfprintf_r+0xe56>
    1ce2:	20 56 30 00 	movea	48, r0, r10
    1ce6:	43 57 62 00 	st.b	r10, 98[sp]
    1cea:	43 bf 63 00 	st.b	r23, 99[sp]
    1cee:	9b de 02 00 	ori	2, r27, r27
    1cf2:	02 52       	mov	2, r10
    1cf4:	bf 07 76 fc 	jr	196a <__vfprintf_r+0x312>
    1cf8:	db 56 10 00 	andi	16, r27, r10
    1cfc:	ba 05       	bne	1d02 <__vfprintf_r+0x6aa>
    1cfe:	80 07 1a 0d 	jr	2a18 <__vfprintf_r+0x13c0>
    1d02:	23 77 2d 00 	ld.w	44[sp], r14
    1d06:	23 5f 29 00 	ld.w	40[sp], r11
    1d0a:	2e 57 01 00 	ld.w	0[r14], r10
    1d0e:	44 72       	add	4, r14
    1d10:	63 77 2d 00 	st.w	r14, 44[sp]
    1d14:	6a 5f 01 00 	st.w	r11, 0[r10]
    1d18:	bf 07 2a fa 	jr	1742 <__vfprintf_r+0xea>
    1d1c:	9b de 40 00 	ori	64, r27, r27
    1d20:	bf 07 ae fa 	jr	17ce <__vfprintf_r+0x176>
    1d24:	db 56 08 00 	andi	8, r27, r10
    1d28:	ba 05       	bne	1d2e <__vfprintf_r+0x6d6>
    1d2a:	80 07 a8 0c 	jr	29d2 <__vfprintf_r+0x137a>
    1d2e:	23 77 2d 00 	ld.w	44[sp], r14
    1d32:	2e af 01 00 	ld.w	0[r14], r21
    1d36:	2e b7 05 00 	ld.w	4[r14], r22
    1d3a:	48 72       	add	8, r14
    1d3c:	63 af 51 00 	st.w	r21, 80[sp]
    1d40:	63 b7 55 00 	st.w	r22, 84[sp]
    1d44:	63 77 2d 00 	st.w	r14, 44[sp]
    1d48:	40 e6 00 00 	movhi	0, r0, r28
    1d4c:	15 30       	mov	r21, r6
    1d4e:	16 38       	mov	r22, r7
    1d50:	3c e6 58 68 	movea	26712, r28, r28
    1d54:	63 67 15 00 	st.w	r12, 20[sp]
    1d58:	80 ff 04 00 	jarl	1d5c <__vfprintf_r+0x704>, lp
    1d5c:	44 fa       	add	4, lp
    1d5e:	7c 00       	jmp	[r28]
    1d60:	23 67 15 00 	ld.w	20[sp], r12
    1d64:	15 30       	mov	r21, r6
    1d66:	16 38       	mov	r22, r7
    1d68:	61 52       	cmp	1, r10
    1d6a:	b2 05       	be	1d70 <__vfprintf_r+0x718>
    1d6c:	80 07 d0 0a 	jr	283c <__vfprintf_r+0x11e4>
    1d70:	00 42       	mov	0, r8
    1d72:	00 4a       	mov	0, r9
    1d74:	80 ff 68 7a 	jarl	97dc <___ltdf2>, lp
    1d78:	23 67 15 00 	ld.w	20[sp], r12
    1d7c:	60 52       	cmp	0, r10
    1d7e:	be 05       	bge	1d84 <__vfprintf_r+0x72c>
    1d80:	80 07 ca 0f 	jr	2d4a <__vfprintf_r+0x16f2>
    1d84:	03 57 61 00 	ld.b	97[sp], r10
    1d88:	d8 52       	shl	24, r10
    1d8a:	b8 52       	sar	24, r10
    1d8c:	20 5e 47 00 	movea	71, r0, r11
    1d90:	eb b9       	cmp	r11, r23
    1d92:	bf 05       	bgt	1d98 <__vfprintf_r+0x740>
    1d94:	80 07 34 0e 	jr	2bc8 <__vfprintf_r+0x1570>
    1d98:	40 e6 01 00 	movhi	1, r0, r28
    1d9c:	3c e6 77 9f 	movea	-24713, r28, r28
    1da0:	03 6a       	mov	3, r13
    1da2:	20 76 7f ff 	movea	-129, r0, r14
    1da6:	63 6f 21 00 	st.w	r13, 32[sp]
    1daa:	4e d9       	and	r14, r27
    1dac:	0d b0       	mov	r13, r22
    1dae:	63 07 39 00 	st.w	r0, 56[sp]
    1db2:	63 07 45 00 	st.w	r0, 68[sp]
    1db6:	bf 07 0e fc 	jr	19c4 <__vfprintf_r+0x36c>
    1dba:	9b de 08 00 	ori	8, r27, r27
    1dbe:	bf 07 10 fa 	jr	17ce <__vfprintf_r+0x176>
    1dc2:	40 56 01 00 	movhi	1, r0, r10
    1dc6:	2a 56 83 9f 	movea	-24701, r10, r10
    1dca:	63 57 5d 00 	st.w	r10, 92[sp]
    1dce:	db 56 10 00 	andi	16, r27, r10
    1dd2:	b2 05       	be	1dd8 <__vfprintf_r+0x780>
    1dd4:	bf 07 ee fe 	jr	1cc2 <__vfprintf_r+0x66a>
    1dd8:	db 56 40 00 	andi	64, r27, r10
    1ddc:	ba 05       	bne	1de2 <__vfprintf_r+0x78a>
    1dde:	80 07 70 0c 	jr	2a4e <__vfprintf_r+0x13f6>
    1de2:	23 77 2d 00 	ld.w	44[sp], r14
    1de6:	2e b7 01 00 	ld.w	0[r14], r22
    1dea:	44 72       	add	4, r14
    1dec:	63 77 2d 00 	st.w	r14, 44[sp]
    1df0:	d6 b6 ff ff 	andi	65535, r22, r22
    1df4:	bf 07 dc fe 	jr	1cd0 <__vfprintf_r+0x678>
    1df8:	23 5f 2d 00 	ld.w	44[sp], r11
    1dfc:	01 6a       	mov	1, r13
    1dfe:	2b 57 01 00 	ld.w	0[r11], r10
    1e02:	44 5a       	add	4, r11
    1e04:	63 6f 21 00 	st.w	r13, 32[sp]
    1e08:	43 57 8c 00 	st.b	r10, 140[sp]
    1e0c:	43 07 61 00 	st.b	r0, 97[sp]
    1e10:	63 5f 2d 00 	st.w	r11, 44[sp]
    1e14:	0d b0       	mov	r13, r22
    1e16:	03 e6 8c 00 	addi	140, sp, r28
    1e1a:	bf 07 e2 f9 	jr	17fc <__vfprintf_r+0x1a4>
    1e1e:	43 8f 61 00 	st.b	r17, 97[sp]
    1e22:	bf 07 ac f9 	jr	17ce <__vfprintf_r+0x176>
    1e26:	9b de 80 00 	ori	128, r27, r27
    1e2a:	bf 07 a4 f9 	jr	17ce <__vfprintf_r+0x176>
    1e2e:	9b de 01 00 	ori	1, r27, r27
    1e32:	bf 07 9c f9 	jr	17ce <__vfprintf_r+0x176>
    1e36:	23 5f 2d 00 	ld.w	44[sp], r11
    1e3a:	23 57 2d 00 	ld.w	44[sp], r10
    1e3e:	2b 5f 01 00 	ld.w	0[r11], r11
    1e42:	44 52       	add	4, r10
    1e44:	63 5f 31 00 	st.w	r11, 48[sp]
    1e48:	60 5a       	cmp	0, r11
    1e4a:	be 05       	bge	1e50 <__vfprintf_r+0x7f8>
    1e4c:	bf 07 42 fc 	jr	1a8e <__vfprintf_r+0x436>
    1e50:	63 57 2d 00 	st.w	r10, 44[sp]
    1e54:	bf 07 7a f9 	jr	17ce <__vfprintf_r+0x176>
    1e58:	00 52       	mov	0, r10
    1e5a:	19 5f 00 00 	ld.b	0[r25], r11
    1e5e:	17 76 d0 ff 	addi	-48, r23, r14
    1e62:	0b b8       	mov	r11, r23
    1e64:	d8 ba       	shl	24, r23
    1e66:	0a 58       	mov	r10, r11
    1e68:	ca 59       	add	r10, r11
    1e6a:	b8 ba       	sar	24, r23
    1e6c:	c3 52       	shl	3, r10
    1e6e:	cb 51       	add	r11, r10
    1e70:	17 5e d0 ff 	addi	-48, r23, r11
    1e74:	ce 51       	add	r14, r10
    1e76:	41 ca       	add	1, r25
    1e78:	69 5a       	cmp	9, r11
    1e7a:	83 f5       	bnh	1e5a <__vfprintf_r+0x802>
    1e7c:	63 57 31 00 	st.w	r10, 48[sp]
    1e80:	bf 07 58 f9 	jr	17d8 <__vfprintf_r+0x180>
    1e84:	03 57 61 00 	ld.b	97[sp], r10
    1e88:	d8 52       	shl	24, r10
    1e8a:	b2 05       	be	1e90 <__vfprintf_r+0x838>
    1e8c:	bf 07 42 f9 	jr	17ce <__vfprintf_r+0x176>
    1e90:	43 9f 61 00 	st.b	r19, 97[sp]
    1e94:	bf 07 3a f9 	jr	17ce <__vfprintf_r+0x176>
    1e98:	19 bf 00 00 	ld.b	0[r25], r23
    1e9c:	41 ca       	add	1, r25
    1e9e:	d8 ba       	shl	24, r23
    1ea0:	b8 ba       	sar	24, r23
    1ea2:	f2 b9       	cmp	r18, r23
    1ea4:	ba 05       	bne	1eaa <__vfprintf_r+0x852>
    1ea6:	80 07 76 11 	jr	301c <__vfprintf_r+0x19c4>
    1eaa:	17 56 d0 ff 	addi	-48, r23, r10
    1eae:	00 12       	mov	0, r2
    1eb0:	69 52       	cmp	9, r10
    1eb2:	b3 05       	bnh	1eb8 <__vfprintf_r+0x860>
    1eb4:	bf 07 24 f9 	jr	17d8 <__vfprintf_r+0x180>
    1eb8:	19 bf 00 00 	ld.b	0[r25], r23
    1ebc:	02 58       	mov	r2, r11
    1ebe:	c2 59       	add	r2, r11
    1ec0:	d8 ba       	shl	24, r23
    1ec2:	c3 12       	shl	3, r2
    1ec4:	cb 11       	add	r11, r2
    1ec6:	b8 ba       	sar	24, r23
    1ec8:	ca 11       	add	r10, r2
    1eca:	17 56 d0 ff 	addi	-48, r23, r10
    1ece:	41 ca       	add	1, r25
    1ed0:	69 52       	cmp	9, r10
    1ed2:	b3 f5       	bnh	1eb8 <__vfprintf_r+0x860>
    1ed4:	60 12       	cmp	0, r2
    1ed6:	b6 05       	blt	1edc <__vfprintf_r+0x884>
    1ed8:	bf 07 00 f9 	jr	17d8 <__vfprintf_r+0x180>
    1edc:	1f 12       	mov	-1, r2
    1ede:	bf 07 fa f8 	jr	17d8 <__vfprintf_r+0x180>
    1ee2:	03 57 61 00 	ld.b	97[sp], r10
    1ee6:	63 17 21 00 	st.w	r2, 32[sp]
    1eea:	d8 52       	shl	24, r10
    1eec:	b8 52       	sar	24, r10
    1eee:	02 b0       	mov	r2, r22
    1ef0:	63 af 2d 00 	st.w	r21, 44[sp]
    1ef4:	63 07 39 00 	st.w	r0, 56[sp]
    1ef8:	63 07 45 00 	st.w	r0, 68[sp]
    1efc:	bf 07 c8 fa 	jr	19c4 <__vfprintf_r+0x36c>
    1f00:	23 6f 89 00 	ld.w	136[sp], r13
    1f04:	03 57 61 00 	ld.b	97[sp], r10
    1f08:	d8 52       	shl	24, r10
    1f0a:	d2 15       	be	1f34 <__vfprintf_r+0x8dc>
    1f0c:	23 5f 85 00 	ld.w	132[sp], r11
    1f10:	03 56 61 00 	addi	97, sp, r10
    1f14:	6c 57 01 00 	st.w	r10, 0[r12]
    1f18:	01 52       	mov	1, r10
    1f1a:	6c 57 05 00 	st.w	r10, 4[r12]
    1f1e:	ca 69       	add	r10, r13
    1f20:	ca 59       	add	r10, r11
    1f22:	63 6f 89 00 	st.w	r13, 136[sp]
    1f26:	63 5f 85 00 	st.w	r11, 132[sp]
    1f2a:	67 5a       	cmp	7, r11
    1f2c:	b7 05       	ble	1f32 <__vfprintf_r+0x8da>
    1f2e:	80 07 18 05 	jr	2446 <__vfprintf_r+0xdee>
    1f32:	48 62       	add	8, r12
    1f34:	23 5f 25 00 	ld.w	36[sp], r11
    1f38:	60 5a       	cmp	0, r11
    1f3a:	d2 15       	be	1f64 <__vfprintf_r+0x90c>
    1f3c:	23 5f 85 00 	ld.w	132[sp], r11
    1f40:	03 56 62 00 	addi	98, sp, r10
    1f44:	6c 57 01 00 	st.w	r10, 0[r12]
    1f48:	02 52       	mov	2, r10
    1f4a:	6c 57 05 00 	st.w	r10, 4[r12]
    1f4e:	ca 69       	add	r10, r13
    1f50:	41 5a       	add	1, r11
    1f52:	63 6f 89 00 	st.w	r13, 136[sp]
    1f56:	63 5f 85 00 	st.w	r11, 132[sp]
    1f5a:	67 5a       	cmp	7, r11
    1f5c:	b7 05       	ble	1f62 <__vfprintf_r+0x90a>
    1f5e:	80 07 0a 05 	jr	2468 <__vfprintf_r+0xe10>
    1f62:	48 62       	add	8, r12
    1f64:	23 77 35 00 	ld.w	52[sp], r14
    1f68:	20 56 80 00 	movea	128, r0, r10
    1f6c:	ea 71       	cmp	r10, r14
    1f6e:	ba 05       	bne	1f74 <__vfprintf_r+0x91c>
    1f70:	80 07 f4 02 	jr	2264 <__vfprintf_r+0xc0c>
    1f74:	23 af 39 00 	ld.w	56[sp], r21
    1f78:	b6 a9       	sub	r22, r21
    1f7a:	60 aa       	cmp	0, r21
    1f7c:	87 45       	ble	1ffc <__vfprintf_r+0x9a4>
    1f7e:	20 16 10 00 	movea	16, r0, r2
    1f82:	63 c7 25 00 	st.w	r24, 36[sp]
    1f86:	23 5f 85 00 	ld.w	132[sp], r11
    1f8a:	e2 a9       	cmp	r2, r21
    1f8c:	ef 05       	bgt	1f98 <__vfprintf_r+0x940>
    1f8e:	e5 25       	br	1fda <__vfprintf_r+0x982>
    1f90:	50 aa       	add	-16, r21
    1f92:	48 62       	add	8, r12
    1f94:	e2 a9       	cmp	r2, r21
    1f96:	a7 25       	ble	1fda <__vfprintf_r+0x982>
    1f98:	6c c7 01 00 	st.w	r24, 0[r12]
    1f9c:	6c 17 05 00 	st.w	r2, 4[r12]
    1fa0:	0d 6e 10 00 	addi	16, r13, r13
    1fa4:	41 5a       	add	1, r11
    1fa6:	63 6f 89 00 	st.w	r13, 136[sp]
    1faa:	63 5f 85 00 	st.w	r11, 132[sp]
    1fae:	67 5a       	cmp	7, r11
    1fb0:	87 f5       	ble	1f90 <__vfprintf_r+0x938>
    1fb2:	20 46 80 00 	movea	128, r0, r8
    1fb6:	14 30       	mov	r20, r6
    1fb8:	1d 38       	mov	r29, r7
    1fba:	c3 41       	add	sp, r8
    1fbc:	80 ff d4 4a 	jarl	6a90 <___sprint_r>, lp
    1fc0:	60 52       	cmp	0, r10
    1fc2:	b2 05       	be	1fc8 <__vfprintf_r+0x970>
    1fc4:	bf 07 a2 fb 	jr	1b66 <__vfprintf_r+0x50e>
    1fc8:	50 aa       	add	-16, r21
    1fca:	23 6f 89 00 	ld.w	136[sp], r13
    1fce:	23 5f 85 00 	ld.w	132[sp], r11
    1fd2:	03 66 1c 01 	addi	284, sp, r12
    1fd6:	e2 a9       	cmp	r2, r21
    1fd8:	8f e5       	bgt	1f98 <__vfprintf_r+0x940>
    1fda:	23 77 25 00 	ld.w	36[sp], r14
    1fde:	6c af 05 00 	st.w	r21, 4[r12]
    1fe2:	6c 77 01 00 	st.w	r14, 0[r12]
    1fe6:	d5 69       	add	r21, r13
    1fe8:	41 5a       	add	1, r11
    1fea:	63 6f 89 00 	st.w	r13, 136[sp]
    1fee:	63 5f 85 00 	st.w	r11, 132[sp]
    1ff2:	67 5a       	cmp	7, r11
    1ff4:	b7 05       	ble	1ffa <__vfprintf_r+0x9a2>
    1ff6:	80 07 2e 04 	jr	2424 <__vfprintf_r+0xdcc>
    1ffa:	48 62       	add	8, r12
    1ffc:	db 56 00 01 	andi	256, r27, r10
    2000:	b2 05       	be	2006 <__vfprintf_r+0x9ae>
    2002:	80 07 56 01 	jr	2158 <__vfprintf_r+0xb00>
    2006:	d6 69       	add	r22, r13
    2008:	23 5f 85 00 	ld.w	132[sp], r11
    200c:	6c e7 01 00 	st.w	r28, 0[r12]
    2010:	6c b7 05 00 	st.w	r22, 4[r12]
    2014:	41 5a       	add	1, r11
    2016:	63 6f 89 00 	st.w	r13, 136[sp]
    201a:	63 5f 85 00 	st.w	r11, 132[sp]
    201e:	67 5a       	cmp	7, r11
    2020:	b7 05       	ble	2026 <__vfprintf_r+0x9ce>
    2022:	80 07 c6 03 	jr	23e8 <__vfprintf_r+0xd90>
    2026:	48 62       	add	8, r12
    2028:	db de 04 00 	andi	4, r27, r27
    202c:	92 55       	be	20ce <__vfprintf_r+0xa76>
    202e:	23 e7 31 00 	ld.w	48[sp], r28
    2032:	23 5f 21 00 	ld.w	32[sp], r11
    2036:	ab e1       	sub	r11, r28
    2038:	60 e2       	cmp	0, r28
    203a:	a7 4d       	ble	20ce <__vfprintf_r+0xa76>
    203c:	20 de 10 00 	movea	16, r0, r27
    2040:	63 d7 49 00 	st.w	r26, 72[sp]
    2044:	23 5f 85 00 	ld.w	132[sp], r11
    2048:	fb e1       	cmp	r27, r28
    204a:	ef 05       	bgt	2056 <__vfprintf_r+0x9fe>
    204c:	e5 25       	br	2098 <__vfprintf_r+0xa40>
    204e:	50 e2       	add	-16, r28
    2050:	48 62       	add	8, r12
    2052:	fb e1       	cmp	r27, r28
    2054:	a7 25       	ble	2098 <__vfprintf_r+0xa40>
    2056:	6c d7 01 00 	st.w	r26, 0[r12]
    205a:	6c df 05 00 	st.w	r27, 4[r12]
    205e:	0d 6e 10 00 	addi	16, r13, r13
    2062:	41 5a       	add	1, r11
    2064:	63 6f 89 00 	st.w	r13, 136[sp]
    2068:	63 5f 85 00 	st.w	r11, 132[sp]
    206c:	67 5a       	cmp	7, r11
    206e:	87 f5       	ble	204e <__vfprintf_r+0x9f6>
    2070:	20 46 80 00 	movea	128, r0, r8
    2074:	14 30       	mov	r20, r6
    2076:	1d 38       	mov	r29, r7
    2078:	c3 41       	add	sp, r8
    207a:	80 ff 16 4a 	jarl	6a90 <___sprint_r>, lp
    207e:	60 52       	cmp	0, r10
    2080:	b2 05       	be	2086 <__vfprintf_r+0xa2e>
    2082:	bf 07 e4 fa 	jr	1b66 <__vfprintf_r+0x50e>
    2086:	50 e2       	add	-16, r28
    2088:	23 6f 89 00 	ld.w	136[sp], r13
    208c:	23 5f 85 00 	ld.w	132[sp], r11
    2090:	03 66 1c 01 	addi	284, sp, r12
    2094:	fb e1       	cmp	r27, r28
    2096:	8f e5       	bgt	2056 <__vfprintf_r+0x9fe>
    2098:	23 77 49 00 	ld.w	72[sp], r14
    209c:	6c e7 05 00 	st.w	r28, 4[r12]
    20a0:	6c 77 01 00 	st.w	r14, 0[r12]
    20a4:	dc 69       	add	r28, r13
    20a6:	41 5a       	add	1, r11
    20a8:	63 6f 89 00 	st.w	r13, 136[sp]
    20ac:	63 5f 85 00 	st.w	r11, 132[sp]
    20b0:	67 5a       	cmp	7, r11
    20b2:	e7 0d       	ble	20ce <__vfprintf_r+0xa76>
    20b4:	20 46 80 00 	movea	128, r0, r8
    20b8:	14 30       	mov	r20, r6
    20ba:	1d 38       	mov	r29, r7
    20bc:	c3 41       	add	sp, r8
    20be:	80 ff d2 49 	jarl	6a90 <___sprint_r>, lp
    20c2:	60 52       	cmp	0, r10
    20c4:	b2 05       	be	20ca <__vfprintf_r+0xa72>
    20c6:	bf 07 a0 fa 	jr	1b66 <__vfprintf_r+0x50e>
    20ca:	23 6f 89 00 	ld.w	136[sp], r13
    20ce:	23 57 21 00 	ld.w	32[sp], r10
    20d2:	23 5f 31 00 	ld.w	48[sp], r11
    20d6:	eb 51       	cmp	r11, r10
    20d8:	ae 05       	bge	20dc <__vfprintf_r+0xa84>
    20da:	0b 50       	mov	r11, r10
    20dc:	23 67 29 00 	ld.w	40[sp], r12
    20e0:	ca 61       	add	r10, r12
    20e2:	63 67 29 00 	st.w	r12, 40[sp]
    20e6:	60 6a       	cmp	0, r13
    20e8:	b2 05       	be	20ee <__vfprintf_r+0xa96>
    20ea:	80 07 20 03 	jr	240a <__vfprintf_r+0xdb2>
    20ee:	63 07 85 00 	st.w	r0, 132[sp]
    20f2:	19 57 00 00 	ld.b	0[r25], r10
    20f6:	03 66 1c 01 	addi	284, sp, r12
    20fa:	d8 52       	shl	24, r10
    20fc:	b8 52       	sar	24, r10
    20fe:	b2 05       	be	2104 <__vfprintf_r+0xaac>
    2100:	bf 07 50 f6 	jr	1750 <__vfprintf_r+0xf8>
    2104:	19 e0       	mov	r25, r28
    2106:	bf 07 9c f6 	jr	17a2 <__vfprintf_r+0x14a>
    210a:	61 52       	cmp	1, r10
    210c:	ba 05       	bne	2112 <__vfprintf_r+0xaba>
    210e:	80 07 86 03 	jr	2494 <__vfprintf_r+0xe3c>
    2112:	03 e6 b4 00 	addi	180, sp, r28
    2116:	62 52       	cmp	2, r10
    2118:	ba 05       	bne	211e <__vfprintf_r+0xac6>
    211a:	80 07 de 01 	jr	22f8 <__vfprintf_r+0xca0>
    211e:	d6 56 07 00 	andi	7, r22, r10
    2122:	5f e2       	add	-1, r28
    2124:	0a 56 30 00 	addi	48, r10, r10
    2128:	5c 57 00 00 	st.b	r10, 0[r28]
    212c:	83 b2       	shr	3, r22
    212e:	8a fd       	bne	211e <__vfprintf_r+0xac6>
    2130:	db 5e 01 00 	andi	1, r27, r11
    2134:	1c 68       	mov	r28, r13
    2136:	ba 05       	bne	213c <__vfprintf_r+0xae4>
    2138:	80 07 d8 01 	jr	2310 <__vfprintf_r+0xcb8>
    213c:	20 5e 30 00 	movea	48, r0, r11
    2140:	eb 51       	cmp	r11, r10
    2142:	ba 05       	bne	2148 <__vfprintf_r+0xaf0>
    2144:	80 07 cc 01 	jr	2310 <__vfprintf_r+0xcb8>
    2148:	5f e2       	add	-1, r28
    214a:	03 b6 b4 00 	addi	180, sp, r22
    214e:	4d 5f ff ff 	st.b	r11, -1[r13]
    2152:	bc b1       	sub	r28, r22
    2154:	bf 07 54 f8 	jr	19a8 <__vfprintf_r+0x350>
    2158:	20 56 65 00 	movea	101, r0, r10
    215c:	ea b9       	cmp	r10, r23
    215e:	bf 05       	bgt	2164 <__vfprintf_r+0xb0c>
    2160:	80 07 ba 01 	jr	231a <__vfprintf_r+0xcc2>
    2164:	23 37 51 00 	ld.w	80[sp], r6
    2168:	23 3f 55 00 	ld.w	84[sp], r7
    216c:	00 42       	mov	0, r8
    216e:	00 4a       	mov	0, r9
    2170:	63 67 15 00 	st.w	r12, 20[sp]
    2174:	63 6f 19 00 	st.w	r13, 24[sp]
    2178:	80 ff 94 74 	jarl	960c <___eqdf2>, lp
    217c:	23 67 15 00 	ld.w	20[sp], r12
    2180:	23 6f 19 00 	ld.w	24[sp], r13
    2184:	60 52       	cmp	0, r10
    2186:	b2 05       	be	218c <__vfprintf_r+0xb34>
    2188:	80 07 2c 03 	jr	24b4 <__vfprintf_r+0xe5c>
    218c:	40 56 01 00 	movhi	1, r0, r10
    2190:	23 5f 85 00 	ld.w	132[sp], r11
    2194:	2a 56 ac 9f 	movea	-24660, r10, r10
    2198:	6c 57 01 00 	st.w	r10, 0[r12]
    219c:	01 52       	mov	1, r10
    219e:	6c 57 05 00 	st.w	r10, 4[r12]
    21a2:	ca 69       	add	r10, r13
    21a4:	ca 59       	add	r10, r11
    21a6:	63 6f 89 00 	st.w	r13, 136[sp]
    21aa:	63 5f 85 00 	st.w	r11, 132[sp]
    21ae:	67 5a       	cmp	7, r11
    21b0:	b7 05       	ble	21b6 <__vfprintf_r+0xb5e>
    21b2:	80 07 d4 08 	jr	2a86 <__vfprintf_r+0x142e>
    21b6:	48 62       	add	8, r12
    21b8:	23 57 65 00 	ld.w	100[sp], r10
    21bc:	23 5f 41 00 	ld.w	64[sp], r11
    21c0:	eb 51       	cmp	r11, r10
    21c2:	e6 05       	blt	21ce <__vfprintf_r+0xb76>
    21c4:	db 56 01 00 	andi	1, r27, r10
    21c8:	ba 05       	bne	21ce <__vfprintf_r+0xb76>
    21ca:	bf 07 5e fe 	jr	2028 <__vfprintf_r+0x9d0>
    21ce:	23 77 3d 00 	ld.w	60[sp], r14
    21d2:	23 5f 85 00 	ld.w	132[sp], r11
    21d6:	6c 77 01 00 	st.w	r14, 0[r12]
    21da:	23 77 4d 00 	ld.w	76[sp], r14
    21de:	41 5a       	add	1, r11
    21e0:	6c 77 05 00 	st.w	r14, 4[r12]
    21e4:	ce 69       	add	r14, r13
    21e6:	63 6f 89 00 	st.w	r13, 136[sp]
    21ea:	63 5f 85 00 	st.w	r11, 132[sp]
    21ee:	67 5a       	cmp	7, r11
    21f0:	b7 05       	ble	21f6 <__vfprintf_r+0xb9e>
    21f2:	80 07 08 0a 	jr	2bfa <__vfprintf_r+0x15a2>
    21f6:	48 62       	add	8, r12
    21f8:	23 e7 41 00 	ld.w	64[sp], r28
    21fc:	5f e2       	add	-1, r28
    21fe:	60 e2       	cmp	0, r28
    2200:	bf 05       	bgt	2206 <__vfprintf_r+0xbae>
    2202:	bf 07 26 fe 	jr	2028 <__vfprintf_r+0x9d0>
    2206:	20 be 10 00 	movea	16, r0, r23
    220a:	63 c7 25 00 	st.w	r24, 36[sp]
    220e:	23 5f 85 00 	ld.w	132[sp], r11
    2212:	f7 e1       	cmp	r23, r28
    2214:	9f 0d       	bgt	2226 <__vfprintf_r+0xbce>
    2216:	80 07 e2 03 	jr	25f8 <__vfprintf_r+0xfa0>
    221a:	48 62       	add	8, r12
    221c:	50 e2       	add	-16, r28
    221e:	f7 e1       	cmp	r23, r28
    2220:	bf 05       	bgt	2226 <__vfprintf_r+0xbce>
    2222:	80 07 d6 03 	jr	25f8 <__vfprintf_r+0xfa0>
    2226:	6c c7 01 00 	st.w	r24, 0[r12]
    222a:	6c bf 05 00 	st.w	r23, 4[r12]
    222e:	0d 6e 10 00 	addi	16, r13, r13
    2232:	41 5a       	add	1, r11
    2234:	63 6f 89 00 	st.w	r13, 136[sp]
    2238:	63 5f 85 00 	st.w	r11, 132[sp]
    223c:	67 5a       	cmp	7, r11
    223e:	e7 ed       	ble	221a <__vfprintf_r+0xbc2>
    2240:	20 46 80 00 	movea	128, r0, r8
    2244:	14 30       	mov	r20, r6
    2246:	1d 38       	mov	r29, r7
    2248:	c3 41       	add	sp, r8
    224a:	80 ff 46 48 	jarl	6a90 <___sprint_r>, lp
    224e:	60 52       	cmp	0, r10
    2250:	b2 05       	be	2256 <__vfprintf_r+0xbfe>
    2252:	bf 07 14 f9 	jr	1b66 <__vfprintf_r+0x50e>
    2256:	23 6f 89 00 	ld.w	136[sp], r13
    225a:	23 5f 85 00 	ld.w	132[sp], r11
    225e:	03 66 1c 01 	addi	284, sp, r12
    2262:	d5 dd       	br	221c <__vfprintf_r+0xbc4>
    2264:	23 af 31 00 	ld.w	48[sp], r21
    2268:	23 5f 21 00 	ld.w	32[sp], r11
    226c:	ab a9       	sub	r11, r21
    226e:	60 aa       	cmp	0, r21
    2270:	bf 05       	bgt	2276 <__vfprintf_r+0xc1e>
    2272:	bf 07 02 fd 	jr	1f74 <__vfprintf_r+0x91c>
    2276:	20 16 10 00 	movea	16, r0, r2
    227a:	63 c7 25 00 	st.w	r24, 36[sp]
    227e:	23 5f 85 00 	ld.w	132[sp], r11
    2282:	e2 a9       	cmp	r2, r21
    2284:	ef 05       	bgt	2290 <__vfprintf_r+0xc38>
    2286:	e5 25       	br	22d2 <__vfprintf_r+0xc7a>
    2288:	50 aa       	add	-16, r21
    228a:	48 62       	add	8, r12
    228c:	e2 a9       	cmp	r2, r21
    228e:	a7 25       	ble	22d2 <__vfprintf_r+0xc7a>
    2290:	6c c7 01 00 	st.w	r24, 0[r12]
    2294:	6c 17 05 00 	st.w	r2, 4[r12]
    2298:	0d 6e 10 00 	addi	16, r13, r13
    229c:	41 5a       	add	1, r11
    229e:	63 6f 89 00 	st.w	r13, 136[sp]
    22a2:	63 5f 85 00 	st.w	r11, 132[sp]
    22a6:	67 5a       	cmp	7, r11
    22a8:	87 f5       	ble	2288 <__vfprintf_r+0xc30>
    22aa:	20 46 80 00 	movea	128, r0, r8
    22ae:	14 30       	mov	r20, r6
    22b0:	1d 38       	mov	r29, r7
    22b2:	c3 41       	add	sp, r8
    22b4:	80 ff dc 47 	jarl	6a90 <___sprint_r>, lp
    22b8:	60 52       	cmp	0, r10
    22ba:	b2 05       	be	22c0 <__vfprintf_r+0xc68>
    22bc:	bf 07 aa f8 	jr	1b66 <__vfprintf_r+0x50e>
    22c0:	50 aa       	add	-16, r21
    22c2:	23 6f 89 00 	ld.w	136[sp], r13
    22c6:	23 5f 85 00 	ld.w	132[sp], r11
    22ca:	03 66 1c 01 	addi	284, sp, r12
    22ce:	e2 a9       	cmp	r2, r21
    22d0:	8f e5       	bgt	2290 <__vfprintf_r+0xc38>
    22d2:	23 77 25 00 	ld.w	36[sp], r14
    22d6:	6c af 05 00 	st.w	r21, 4[r12]
    22da:	6c 77 01 00 	st.w	r14, 0[r12]
    22de:	d5 69       	add	r21, r13
    22e0:	41 5a       	add	1, r11
    22e2:	63 6f 89 00 	st.w	r13, 136[sp]
    22e6:	63 5f 85 00 	st.w	r11, 132[sp]
    22ea:	67 5a       	cmp	7, r11
    22ec:	b7 05       	ble	22f2 <__vfprintf_r+0xc9a>
    22ee:	80 07 1c 05 	jr	280a <__vfprintf_r+0x11b2>
    22f2:	48 62       	add	8, r12
    22f4:	bf 07 80 fc 	jr	1f74 <__vfprintf_r+0x91c>
    22f8:	23 5f 5d 00 	ld.w	92[sp], r11
    22fc:	d6 56 0f 00 	andi	15, r22, r10
    2300:	cb 51       	add	r11, r10
    2302:	0a 57 00 00 	ld.b	0[r10], r10
    2306:	5f e2       	add	-1, r28
    2308:	5c 57 00 00 	st.b	r10, 0[r28]
    230c:	84 b2       	shr	4, r22
    230e:	fa f5       	bne	22fc <__vfprintf_r+0xca4>
    2310:	03 b6 b4 00 	addi	180, sp, r22
    2314:	bc b1       	sub	r28, r22
    2316:	bf 07 92 f6 	jr	19a8 <__vfprintf_r+0x350>
    231a:	23 5f 41 00 	ld.w	64[sp], r11
    231e:	61 5a       	cmp	1, r11
    2320:	bf 05       	bgt	2326 <__vfprintf_r+0xcce>
    2322:	80 07 34 04 	jr	2756 <__vfprintf_r+0x10fe>
    2326:	23 5f 85 00 	ld.w	132[sp], r11
    232a:	01 52       	mov	1, r10
    232c:	6c e7 01 00 	st.w	r28, 0[r12]
    2330:	6c 57 05 00 	st.w	r10, 4[r12]
    2334:	ca 69       	add	r10, r13
    2336:	ca 59       	add	r10, r11
    2338:	63 6f 89 00 	st.w	r13, 136[sp]
    233c:	63 5f 85 00 	st.w	r11, 132[sp]
    2340:	67 5a       	cmp	7, r11
    2342:	b7 05       	ble	2348 <__vfprintf_r+0xcf0>
    2344:	80 07 68 04 	jr	27ac <__vfprintf_r+0x1154>
    2348:	48 62       	add	8, r12
    234a:	23 77 3d 00 	ld.w	60[sp], r14
    234e:	41 5a       	add	1, r11
    2350:	6c 77 01 00 	st.w	r14, 0[r12]
    2354:	23 77 4d 00 	ld.w	76[sp], r14
    2358:	6c 77 05 00 	st.w	r14, 4[r12]
    235c:	ce 69       	add	r14, r13
    235e:	63 6f 89 00 	st.w	r13, 136[sp]
    2362:	63 5f 85 00 	st.w	r11, 132[sp]
    2366:	67 5a       	cmp	7, r11
    2368:	b7 05       	ble	236e <__vfprintf_r+0xd16>
    236a:	80 07 7a 04 	jr	27e4 <__vfprintf_r+0x118c>
    236e:	0c be 08 00 	addi	8, r12, r23
    2372:	23 37 51 00 	ld.w	80[sp], r6
    2376:	23 3f 55 00 	ld.w	84[sp], r7
    237a:	00 42       	mov	0, r8
    237c:	00 4a       	mov	0, r9
    237e:	63 5f 1d 00 	st.w	r11, 28[sp]
    2382:	63 6f 19 00 	st.w	r13, 24[sp]
    2386:	80 ff fa 72 	jarl	9680 <___nedf2>, lp
    238a:	23 5f 1d 00 	ld.w	28[sp], r11
    238e:	23 6f 19 00 	ld.w	24[sp], r13
    2392:	60 52       	cmp	0, r10
    2394:	ba 05       	bne	239a <__vfprintf_r+0xd42>
    2396:	80 07 fa 01 	jr	2590 <__vfprintf_r+0xf38>
    239a:	23 57 41 00 	ld.w	64[sp], r10
    239e:	41 e2       	add	1, r28
    23a0:	5f 52       	add	-1, r10
    23a2:	ca 69       	add	r10, r13
    23a4:	77 e7 01 00 	st.w	r28, 0[r23]
    23a8:	77 57 05 00 	st.w	r10, 4[r23]
    23ac:	41 5a       	add	1, r11
    23ae:	63 6f 89 00 	st.w	r13, 136[sp]
    23b2:	63 5f 85 00 	st.w	r11, 132[sp]
    23b6:	67 5a       	cmp	7, r11
    23b8:	b7 05       	ble	23be <__vfprintf_r+0xd66>
    23ba:	80 07 cc 03 	jr	2786 <__vfprintf_r+0x112e>
    23be:	48 ba       	add	8, r23
    23c0:	23 77 59 00 	ld.w	88[sp], r14
    23c4:	03 56 72 00 	addi	114, sp, r10
    23c8:	77 57 01 00 	st.w	r10, 0[r23]
    23cc:	77 77 05 00 	st.w	r14, 4[r23]
    23d0:	ce 69       	add	r14, r13
    23d2:	41 5a       	add	1, r11
    23d4:	63 6f 89 00 	st.w	r13, 136[sp]
    23d8:	63 5f 85 00 	st.w	r11, 132[sp]
    23dc:	67 5a       	cmp	7, r11
    23de:	df 05       	bgt	23e8 <__vfprintf_r+0xd90>
    23e0:	17 66 08 00 	addi	8, r23, r12
    23e4:	bf 07 44 fc 	jr	2028 <__vfprintf_r+0x9d0>
    23e8:	20 46 80 00 	movea	128, r0, r8
    23ec:	14 30       	mov	r20, r6
    23ee:	1d 38       	mov	r29, r7
    23f0:	c3 41       	add	sp, r8
    23f2:	80 ff 9e 46 	jarl	6a90 <___sprint_r>, lp
    23f6:	60 52       	cmp	0, r10
    23f8:	b2 05       	be	23fe <__vfprintf_r+0xda6>
    23fa:	bf 07 6c f7 	jr	1b66 <__vfprintf_r+0x50e>
    23fe:	03 66 1c 01 	addi	284, sp, r12
    2402:	23 6f 89 00 	ld.w	136[sp], r13
    2406:	bf 07 22 fc 	jr	2028 <__vfprintf_r+0x9d0>
    240a:	20 46 80 00 	movea	128, r0, r8
    240e:	14 30       	mov	r20, r6
    2410:	1d 38       	mov	r29, r7
    2412:	c3 41       	add	sp, r8
    2414:	80 ff 7c 46 	jarl	6a90 <___sprint_r>, lp
    2418:	60 52       	cmp	0, r10
    241a:	ba 05       	bne	2420 <__vfprintf_r+0xdc8>
    241c:	bf 07 d2 fc 	jr	20ee <__vfprintf_r+0xa96>
    2420:	bf 07 46 f7 	jr	1b66 <__vfprintf_r+0x50e>
    2424:	20 46 80 00 	movea	128, r0, r8
    2428:	14 30       	mov	r20, r6
    242a:	1d 38       	mov	r29, r7
    242c:	c3 41       	add	sp, r8
    242e:	80 ff 62 46 	jarl	6a90 <___sprint_r>, lp
    2432:	60 52       	cmp	0, r10
    2434:	b2 05       	be	243a <__vfprintf_r+0xde2>
    2436:	bf 07 30 f7 	jr	1b66 <__vfprintf_r+0x50e>
    243a:	23 6f 89 00 	ld.w	136[sp], r13
    243e:	03 66 1c 01 	addi	284, sp, r12
    2442:	bf 07 ba fb 	jr	1ffc <__vfprintf_r+0x9a4>
    2446:	20 46 80 00 	movea	128, r0, r8
    244a:	14 30       	mov	r20, r6
    244c:	1d 38       	mov	r29, r7
    244e:	c3 41       	add	sp, r8
    2450:	80 ff 40 46 	jarl	6a90 <___sprint_r>, lp
    2454:	60 52       	cmp	0, r10
    2456:	b2 05       	be	245c <__vfprintf_r+0xe04>
    2458:	bf 07 0e f7 	jr	1b66 <__vfprintf_r+0x50e>
    245c:	23 6f 89 00 	ld.w	136[sp], r13
    2460:	03 66 1c 01 	addi	284, sp, r12
    2464:	bf 07 d0 fa 	jr	1f34 <__vfprintf_r+0x8dc>
    2468:	20 46 80 00 	movea	128, r0, r8
    246c:	14 30       	mov	r20, r6
    246e:	1d 38       	mov	r29, r7
    2470:	c3 41       	add	sp, r8
    2472:	80 ff 1e 46 	jarl	6a90 <___sprint_r>, lp
    2476:	60 52       	cmp	0, r10
    2478:	b2 05       	be	247e <__vfprintf_r+0xe26>
    247a:	bf 07 ec f6 	jr	1b66 <__vfprintf_r+0x50e>
    247e:	23 6f 89 00 	ld.w	136[sp], r13
    2482:	03 66 1c 01 	addi	284, sp, r12
    2486:	bf 07 de fa 	jr	1f64 <__vfprintf_r+0x90c>
    248a:	00 b2       	mov	0, r22
    248c:	03 e6 b4 00 	addi	180, sp, r28
    2490:	bf 07 18 f5 	jr	19a8 <__vfprintf_r+0x350>
    2494:	69 b2       	cmp	9, r22
    2496:	b3 05       	bnh	249c <__vfprintf_r+0xe44>
    2498:	80 07 72 01 	jr	260a <__vfprintf_r+0xfb2>
    249c:	16 b6 30 00 	addi	48, r22, r22
    24a0:	43 b7 b3 00 	st.b	r22, 179[sp]
    24a4:	03 e6 b3 00 	addi	179, sp, r28
    24a8:	01 b2       	mov	1, r22
    24aa:	bf 07 fe f4 	jr	19a8 <__vfprintf_r+0x350>
    24ae:	02 52       	mov	2, r10
    24b0:	bf 07 ba f4 	jr	196a <__vfprintf_r+0x312>
    24b4:	23 bf 65 00 	ld.w	100[sp], r23
    24b8:	60 ba       	cmp	0, r23
    24ba:	bf 05       	bgt	24c0 <__vfprintf_r+0xe68>
    24bc:	80 07 ec 05 	jr	2aa8 <__vfprintf_r+0x1450>
    24c0:	23 bf 41 00 	ld.w	64[sp], r23
    24c4:	23 5f 45 00 	ld.w	68[sp], r11
    24c8:	dc b9       	add	r28, r23
    24ca:	17 a8       	mov	r23, r21
    24cc:	bc a9       	sub	r28, r21
    24ce:	eb a9       	cmp	r11, r21
    24d0:	a7 05       	ble	24d4 <__vfprintf_r+0xe7c>
    24d2:	0b a8       	mov	r11, r21
    24d4:	60 aa       	cmp	0, r21
    24d6:	a7 15       	ble	24fa <__vfprintf_r+0xea2>
    24d8:	23 5f 85 00 	ld.w	132[sp], r11
    24dc:	d5 69       	add	r21, r13
    24de:	6c e7 01 00 	st.w	r28, 0[r12]
    24e2:	6c af 05 00 	st.w	r21, 4[r12]
    24e6:	41 5a       	add	1, r11
    24e8:	63 6f 89 00 	st.w	r13, 136[sp]
    24ec:	63 5f 85 00 	st.w	r11, 132[sp]
    24f0:	67 5a       	cmp	7, r11
    24f2:	b7 05       	ble	24f8 <__vfprintf_r+0xea0>
    24f4:	80 07 7e 07 	jr	2c72 <__vfprintf_r+0x161a>
    24f8:	48 62       	add	8, r12
    24fa:	60 aa       	cmp	0, r21
    24fc:	be 05       	bge	2502 <__vfprintf_r+0xeaa>
    24fe:	80 07 96 07 	jr	2c94 <__vfprintf_r+0x163c>
    2502:	23 77 45 00 	ld.w	68[sp], r14
    2506:	8e a9       	subr	r14, r21
    2508:	60 aa       	cmp	0, r21
    250a:	bf 05       	bgt	2510 <__vfprintf_r+0xeb8>
    250c:	80 07 64 01 	jr	2670 <__vfprintf_r+0x1018>
    2510:	20 16 10 00 	movea	16, r0, r2
    2514:	63 c7 25 00 	st.w	r24, 36[sp]
    2518:	23 5f 85 00 	ld.w	132[sp], r11
    251c:	e2 a9       	cmp	r2, r21
    251e:	9f 0d       	bgt	2530 <__vfprintf_r+0xed8>
    2520:	80 07 40 05 	jr	2a60 <__vfprintf_r+0x1408>
    2524:	48 62       	add	8, r12
    2526:	50 aa       	add	-16, r21
    2528:	e2 a9       	cmp	r2, r21
    252a:	bf 05       	bgt	2530 <__vfprintf_r+0xed8>
    252c:	80 07 34 05 	jr	2a60 <__vfprintf_r+0x1408>
    2530:	6c c7 01 00 	st.w	r24, 0[r12]
    2534:	6c 17 05 00 	st.w	r2, 4[r12]
    2538:	0d 6e 10 00 	addi	16, r13, r13
    253c:	41 5a       	add	1, r11
    253e:	63 6f 89 00 	st.w	r13, 136[sp]
    2542:	63 5f 85 00 	st.w	r11, 132[sp]
    2546:	67 5a       	cmp	7, r11
    2548:	e7 ed       	ble	2524 <__vfprintf_r+0xecc>
    254a:	20 46 80 00 	movea	128, r0, r8
    254e:	14 30       	mov	r20, r6
    2550:	1d 38       	mov	r29, r7
    2552:	c3 41       	add	sp, r8
    2554:	80 ff 3c 45 	jarl	6a90 <___sprint_r>, lp
    2558:	60 52       	cmp	0, r10
    255a:	b2 05       	be	2560 <__vfprintf_r+0xf08>
    255c:	bf 07 0a f6 	jr	1b66 <__vfprintf_r+0x50e>
    2560:	23 6f 89 00 	ld.w	136[sp], r13
    2564:	23 5f 85 00 	ld.w	132[sp], r11
    2568:	03 66 1c 01 	addi	284, sp, r12
    256c:	d5 dd       	br	2526 <__vfprintf_r+0xece>
    256e:	20 46 80 00 	movea	128, r0, r8
    2572:	14 30       	mov	r20, r6
    2574:	1d 38       	mov	r29, r7
    2576:	c3 41       	add	sp, r8
    2578:	80 ff 18 45 	jarl	6a90 <___sprint_r>, lp
    257c:	60 52       	cmp	0, r10
    257e:	b2 05       	be	2584 <__vfprintf_r+0xf2c>
    2580:	bf 07 e6 f5 	jr	1b66 <__vfprintf_r+0x50e>
    2584:	23 6f 89 00 	ld.w	136[sp], r13
    2588:	03 66 1c 01 	addi	284, sp, r12
    258c:	bf 07 78 f9 	jr	1f04 <__vfprintf_r+0x8ac>
    2590:	23 e7 41 00 	ld.w	64[sp], r28
    2594:	5f e2       	add	-1, r28
    2596:	60 e2       	cmp	0, r28
    2598:	bf 05       	bgt	259e <__vfprintf_r+0xf46>
    259a:	bf 07 26 fe 	jr	23c0 <__vfprintf_r+0xd68>
    259e:	20 ae 10 00 	movea	16, r0, r21
    25a2:	63 c7 25 00 	st.w	r24, 36[sp]
    25a6:	f5 e1       	cmp	r21, r28
    25a8:	9f 0d       	bgt	25ba <__vfprintf_r+0xf62>
    25aa:	80 07 28 02 	jr	27d2 <__vfprintf_r+0x117a>
    25ae:	48 ba       	add	8, r23
    25b0:	50 e2       	add	-16, r28
    25b2:	f5 e1       	cmp	r21, r28
    25b4:	bf 05       	bgt	25ba <__vfprintf_r+0xf62>
    25b6:	80 07 1c 02 	jr	27d2 <__vfprintf_r+0x117a>
    25ba:	77 c7 01 00 	st.w	r24, 0[r23]
    25be:	77 af 05 00 	st.w	r21, 4[r23]
    25c2:	0d 6e 10 00 	addi	16, r13, r13
    25c6:	41 5a       	add	1, r11
    25c8:	63 6f 89 00 	st.w	r13, 136[sp]
    25cc:	63 5f 85 00 	st.w	r11, 132[sp]
    25d0:	67 5a       	cmp	7, r11
    25d2:	e7 ed       	ble	25ae <__vfprintf_r+0xf56>
    25d4:	20 46 80 00 	movea	128, r0, r8
    25d8:	14 30       	mov	r20, r6
    25da:	1d 38       	mov	r29, r7
    25dc:	c3 41       	add	sp, r8
    25de:	80 ff b2 44 	jarl	6a90 <___sprint_r>, lp
    25e2:	60 52       	cmp	0, r10
    25e4:	b2 05       	be	25ea <__vfprintf_r+0xf92>
    25e6:	bf 07 80 f5 	jr	1b66 <__vfprintf_r+0x50e>
    25ea:	23 6f 89 00 	ld.w	136[sp], r13
    25ee:	23 5f 85 00 	ld.w	132[sp], r11
    25f2:	03 be 1c 01 	addi	284, sp, r23
    25f6:	d5 dd       	br	25b0 <__vfprintf_r+0xf58>
    25f8:	23 77 25 00 	ld.w	36[sp], r14
    25fc:	dc 69       	add	r28, r13
    25fe:	6c 77 01 00 	st.w	r14, 0[r12]
    2602:	6c e7 05 00 	st.w	r28, 4[r12]
    2606:	bf 07 0e fa 	jr	2014 <__vfprintf_r+0x9bc>
    260a:	40 56 01 00 	movhi	1, r0, r10
    260e:	63 ef 21 00 	st.w	r29, 32[sp]
    2612:	03 e6 b4 00 	addi	180, sp, r28
    2616:	16 e8       	mov	r22, r29
    2618:	2a ae 88 8b 	movea	-29816, r10, r21
    261c:	0c b0       	mov	r12, r22
    261e:	1d 30       	mov	r29, r6
    2620:	0a 3a       	mov	10, r7
    2622:	80 ff c6 65 	jarl	8be8 <___umodsi3>, lp
    2626:	0a 56 30 00 	addi	48, r10, r10
    262a:	1d 30       	mov	r29, r6
    262c:	5f e2       	add	-1, r28
    262e:	0a 3a       	mov	10, r7
    2630:	5c 57 00 00 	st.b	r10, 0[r28]
    2634:	80 ff 04 00 	jarl	2638 <__vfprintf_r+0xfe0>, lp
    2638:	44 fa       	add	4, lp
    263a:	75 00       	jmp	[r21]
    263c:	0a e8       	mov	r10, r29
    263e:	60 52       	cmp	0, r10
    2640:	fa ed       	bne	261e <__vfprintf_r+0xfc6>
    2642:	16 60       	mov	r22, r12
    2644:	03 b6 b4 00 	addi	180, sp, r22
    2648:	23 ef 21 00 	ld.w	32[sp], r29
    264c:	bc b1       	sub	r28, r22
    264e:	bf 07 5a f3 	jr	19a8 <__vfprintf_r+0x350>
    2652:	20 46 80 00 	movea	128, r0, r8
    2656:	14 30       	mov	r20, r6
    2658:	1d 38       	mov	r29, r7
    265a:	c3 41       	add	sp, r8
    265c:	80 ff 34 44 	jarl	6a90 <___sprint_r>, lp
    2660:	60 52       	cmp	0, r10
    2662:	b2 05       	be	2668 <__vfprintf_r+0x1010>
    2664:	bf 07 02 f5 	jr	1b66 <__vfprintf_r+0x50e>
    2668:	23 6f 89 00 	ld.w	136[sp], r13
    266c:	03 66 1c 01 	addi	284, sp, r12
    2670:	23 5f 45 00 	ld.w	68[sp], r11
    2674:	23 57 65 00 	ld.w	100[sp], r10
    2678:	23 77 41 00 	ld.w	64[sp], r14
    267c:	cb e1       	add	r11, r28
    267e:	ee 51       	cmp	r14, r10
    2680:	d6 55       	blt	272a <__vfprintf_r+0x10d2>
    2682:	db 5e 01 00 	andi	1, r27, r11
    2686:	aa 55       	bne	272a <__vfprintf_r+0x10d2>
    2688:	23 5f 41 00 	ld.w	64[sp], r11
    268c:	bc b9       	sub	r28, r23
    268e:	8b 51       	subr	r11, r10
    2690:	0a b0       	mov	r10, r22
    2692:	f7 51       	cmp	r23, r10
    2694:	a7 05       	ble	2698 <__vfprintf_r+0x1040>
    2696:	17 b0       	mov	r23, r22
    2698:	60 b2       	cmp	0, r22
    269a:	a7 15       	ble	26be <__vfprintf_r+0x1066>
    269c:	23 5f 85 00 	ld.w	132[sp], r11
    26a0:	d6 69       	add	r22, r13
    26a2:	6c e7 01 00 	st.w	r28, 0[r12]
    26a6:	6c b7 05 00 	st.w	r22, 4[r12]
    26aa:	41 5a       	add	1, r11
    26ac:	63 6f 89 00 	st.w	r13, 136[sp]
    26b0:	63 5f 85 00 	st.w	r11, 132[sp]
    26b4:	67 5a       	cmp	7, r11
    26b6:	b7 05       	ble	26bc <__vfprintf_r+0x1064>
    26b8:	80 07 4c 06 	jr	2d04 <__vfprintf_r+0x16ac>
    26bc:	48 62       	add	8, r12
    26be:	60 b2       	cmp	0, r22
    26c0:	be 05       	bge	26c6 <__vfprintf_r+0x106e>
    26c2:	80 07 6e 06 	jr	2d30 <__vfprintf_r+0x16d8>
    26c6:	0a e0       	mov	r10, r28
    26c8:	b6 e1       	sub	r22, r28
    26ca:	60 e2       	cmp	0, r28
    26cc:	bf 05       	bgt	26d2 <__vfprintf_r+0x107a>
    26ce:	bf 07 5a f9 	jr	2028 <__vfprintf_r+0x9d0>
    26d2:	20 be 10 00 	movea	16, r0, r23
    26d6:	63 c7 25 00 	st.w	r24, 36[sp]
    26da:	23 5f 85 00 	ld.w	132[sp], r11
    26de:	f7 e1       	cmp	r23, r28
    26e0:	ef 05       	bgt	26ec <__vfprintf_r+0x1094>
    26e2:	b5 8d       	br	25f8 <__vfprintf_r+0xfa0>
    26e4:	48 62       	add	8, r12
    26e6:	50 e2       	add	-16, r28
    26e8:	f7 e1       	cmp	r23, r28
    26ea:	f7 85       	ble	25f8 <__vfprintf_r+0xfa0>
    26ec:	6c c7 01 00 	st.w	r24, 0[r12]
    26f0:	6c bf 05 00 	st.w	r23, 4[r12]
    26f4:	0d 6e 10 00 	addi	16, r13, r13
    26f8:	41 5a       	add	1, r11
    26fa:	63 6f 89 00 	st.w	r13, 136[sp]
    26fe:	63 5f 85 00 	st.w	r11, 132[sp]
    2702:	67 5a       	cmp	7, r11
    2704:	87 f5       	ble	26e4 <__vfprintf_r+0x108c>
    2706:	20 46 80 00 	movea	128, r0, r8
    270a:	14 30       	mov	r20, r6
    270c:	1d 38       	mov	r29, r7
    270e:	c3 41       	add	sp, r8
    2710:	80 ff 80 43 	jarl	6a90 <___sprint_r>, lp
    2714:	60 52       	cmp	0, r10
    2716:	b2 05       	be	271c <__vfprintf_r+0x10c4>
    2718:	bf 07 4e f4 	jr	1b66 <__vfprintf_r+0x50e>
    271c:	23 6f 89 00 	ld.w	136[sp], r13
    2720:	23 5f 85 00 	ld.w	132[sp], r11
    2724:	03 66 1c 01 	addi	284, sp, r12
    2728:	f5 dd       	br	26e6 <__vfprintf_r+0x108e>
    272a:	23 77 3d 00 	ld.w	60[sp], r14
    272e:	23 5f 85 00 	ld.w	132[sp], r11
    2732:	6c 77 01 00 	st.w	r14, 0[r12]
    2736:	23 77 4d 00 	ld.w	76[sp], r14
    273a:	41 5a       	add	1, r11
    273c:	6c 77 05 00 	st.w	r14, 4[r12]
    2740:	ce 69       	add	r14, r13
    2742:	63 6f 89 00 	st.w	r13, 136[sp]
    2746:	63 5f 85 00 	st.w	r11, 132[sp]
    274a:	67 5a       	cmp	7, r11
    274c:	b7 05       	ble	2752 <__vfprintf_r+0x10fa>
    274e:	80 07 6c 05 	jr	2cba <__vfprintf_r+0x1662>
    2752:	48 62       	add	8, r12
    2754:	a5 9d       	br	2688 <__vfprintf_r+0x1030>
    2756:	db 56 01 00 	andi	1, r27, r10
    275a:	b2 05       	be	2760 <__vfprintf_r+0x1108>
    275c:	bf 07 ca fb 	jr	2326 <__vfprintf_r+0xcce>
    2760:	23 5f 85 00 	ld.w	132[sp], r11
    2764:	01 52       	mov	1, r10
    2766:	6c e7 01 00 	st.w	r28, 0[r12]
    276a:	6c 57 05 00 	st.w	r10, 4[r12]
    276e:	ca 69       	add	r10, r13
    2770:	ca 59       	add	r10, r11
    2772:	63 6f 89 00 	st.w	r13, 136[sp]
    2776:	63 5f 85 00 	st.w	r11, 132[sp]
    277a:	67 5a       	cmp	7, r11
    277c:	df 05       	bgt	2786 <__vfprintf_r+0x112e>
    277e:	0c be 08 00 	addi	8, r12, r23
    2782:	bf 07 3e fc 	jr	23c0 <__vfprintf_r+0xd68>
    2786:	20 46 80 00 	movea	128, r0, r8
    278a:	14 30       	mov	r20, r6
    278c:	1d 38       	mov	r29, r7
    278e:	c3 41       	add	sp, r8
    2790:	80 ff 00 43 	jarl	6a90 <___sprint_r>, lp
    2794:	60 52       	cmp	0, r10
    2796:	b2 05       	be	279c <__vfprintf_r+0x1144>
    2798:	bf 07 ce f3 	jr	1b66 <__vfprintf_r+0x50e>
    279c:	03 be 1c 01 	addi	284, sp, r23
    27a0:	23 6f 89 00 	ld.w	136[sp], r13
    27a4:	23 5f 85 00 	ld.w	132[sp], r11
    27a8:	bf 07 18 fc 	jr	23c0 <__vfprintf_r+0xd68>
    27ac:	20 46 80 00 	movea	128, r0, r8
    27b0:	14 30       	mov	r20, r6
    27b2:	1d 38       	mov	r29, r7
    27b4:	c3 41       	add	sp, r8
    27b6:	80 ff da 42 	jarl	6a90 <___sprint_r>, lp
    27ba:	60 52       	cmp	0, r10
    27bc:	b2 05       	be	27c2 <__vfprintf_r+0x116a>
    27be:	bf 07 a8 f3 	jr	1b66 <__vfprintf_r+0x50e>
    27c2:	23 6f 89 00 	ld.w	136[sp], r13
    27c6:	23 5f 85 00 	ld.w	132[sp], r11
    27ca:	03 66 1c 01 	addi	284, sp, r12
    27ce:	bf 07 7c fb 	jr	234a <__vfprintf_r+0xcf2>
    27d2:	23 67 25 00 	ld.w	36[sp], r12
    27d6:	77 e7 05 00 	st.w	r28, 4[r23]
    27da:	77 67 01 00 	st.w	r12, 0[r23]
    27de:	dc 69       	add	r28, r13
    27e0:	bf 07 cc fb 	jr	23ac <__vfprintf_r+0xd54>
    27e4:	20 46 80 00 	movea	128, r0, r8
    27e8:	14 30       	mov	r20, r6
    27ea:	1d 38       	mov	r29, r7
    27ec:	c3 41       	add	sp, r8
    27ee:	80 ff a2 42 	jarl	6a90 <___sprint_r>, lp
    27f2:	60 52       	cmp	0, r10
    27f4:	b2 05       	be	27fa <__vfprintf_r+0x11a2>
    27f6:	bf 07 70 f3 	jr	1b66 <__vfprintf_r+0x50e>
    27fa:	23 6f 89 00 	ld.w	136[sp], r13
    27fe:	23 5f 85 00 	ld.w	132[sp], r11
    2802:	03 be 1c 01 	addi	284, sp, r23
    2806:	bf 07 6c fb 	jr	2372 <__vfprintf_r+0xd1a>
    280a:	20 46 80 00 	movea	128, r0, r8
    280e:	14 30       	mov	r20, r6
    2810:	1d 38       	mov	r29, r7
    2812:	c3 41       	add	sp, r8
    2814:	80 ff 7c 42 	jarl	6a90 <___sprint_r>, lp
    2818:	60 52       	cmp	0, r10
    281a:	b2 05       	be	2820 <__vfprintf_r+0x11c8>
    281c:	bf 07 4a f3 	jr	1b66 <__vfprintf_r+0x50e>
    2820:	23 6f 89 00 	ld.w	136[sp], r13
    2824:	03 66 1c 01 	addi	284, sp, r12
    2828:	bf 07 4c f7 	jr	1f74 <__vfprintf_r+0x91c>
    282c:	20 56 2d 00 	movea	45, r0, r10
    2830:	43 57 61 00 	st.b	r10, 97[sp]
    2834:	80 b1       	subr	r0, r22
    2836:	01 52       	mov	1, r10
    2838:	bf 07 36 f1 	jr	196e <__vfprintf_r+0x316>
    283c:	63 67 15 00 	st.w	r12, 20[sp]
    2840:	80 ff 04 00 	jarl	2844 <__vfprintf_r+0x11ec>, lp
    2844:	44 fa       	add	4, lp
    2846:	7c 00       	jmp	[r28]
    2848:	23 67 15 00 	ld.w	20[sp], r12
    284c:	60 52       	cmp	0, r10
    284e:	ba 05       	bne	2854 <__vfprintf_r+0x11fc>
    2850:	80 07 28 03 	jr	2b78 <__vfprintf_r+0x1520>
    2854:	7f 12       	cmp	-1, r2
    2856:	ba 05       	bne	285c <__vfprintf_r+0x1204>
    2858:	80 07 82 06 	jr	2eda <__vfprintf_r+0x1882>
    285c:	20 56 67 00 	movea	103, r0, r10
    2860:	ea b9       	cmp	r10, r23
    2862:	ba 05       	bne	2868 <__vfprintf_r+0x1210>
    2864:	80 07 00 06 	jr	2e64 <__vfprintf_r+0x180c>
    2868:	20 56 47 00 	movea	71, r0, r10
    286c:	ea b9       	cmp	r10, r23
    286e:	ba 05       	bne	2874 <__vfprintf_r+0x121c>
    2870:	80 07 f4 05 	jr	2e64 <__vfprintf_r+0x180c>
    2874:	9b 76 00 01 	ori	256, r27, r14
    2878:	63 77 25 00 	st.w	r14, 36[sp]
    287c:	60 b2       	cmp	0, r22
    287e:	be 05       	bge	2884 <__vfprintf_r+0x122c>
    2880:	80 07 40 06 	jr	2ec0 <__vfprintf_r+0x1868>
    2884:	63 07 35 00 	st.w	r0, 52[sp]
    2888:	20 56 66 00 	movea	102, r0, r10
    288c:	ea b9       	cmp	r10, r23
    288e:	ba 05       	bne	2894 <__vfprintf_r+0x123c>
    2890:	80 07 7c 05 	jr	2e0c <__vfprintf_r+0x17b4>
    2894:	20 56 46 00 	movea	70, r0, r10
    2898:	ea b9       	cmp	r10, r23
    289a:	ba 05       	bne	28a0 <__vfprintf_r+0x1248>
    289c:	80 07 70 05 	jr	2e0c <__vfprintf_r+0x17b4>
    28a0:	20 56 65 00 	movea	101, r0, r10
    28a4:	ea b9       	cmp	r10, r23
    28a6:	ba 05       	bne	28ac <__vfprintf_r+0x1254>
    28a8:	80 07 2a 06 	jr	2ed2 <__vfprintf_r+0x187a>
    28ac:	20 56 45 00 	movea	69, r0, r10
    28b0:	ea b9       	cmp	r10, r23
    28b2:	ba 05       	bne	28b8 <__vfprintf_r+0x1260>
    28b4:	80 07 1e 06 	jr	2ed2 <__vfprintf_r+0x187a>
    28b8:	02 68       	mov	r2, r13
    28ba:	03 76 64 00 	addi	100, sp, r14
    28be:	03 5e 68 00 	addi	104, sp, r11
    28c2:	03 56 6c 00 	addi	108, sp, r10
    28c6:	02 8a       	mov	2, r17
    28c8:	14 30       	mov	r20, r6
    28ca:	15 40       	mov	r21, r8
    28cc:	16 48       	mov	r22, r9
    28ce:	63 6f 05 00 	st.w	r13, 4[sp]
    28d2:	63 67 15 00 	st.w	r12, 20[sp]
    28d6:	63 6f 19 00 	st.w	r13, 24[sp]
    28da:	63 8f 01 00 	st.w	r17, 0[sp]
    28de:	63 77 09 00 	st.w	r14, 8[sp]
    28e2:	63 5f 0d 00 	st.w	r11, 12[sp]
    28e6:	63 57 11 00 	st.w	r10, 16[sp]
    28ea:	80 ff 2a 0c 	jarl	3514 <__dtoa_r>, lp
    28ee:	0a e0       	mov	r10, r28
    28f0:	20 56 67 00 	movea	103, r0, r10
    28f4:	23 67 15 00 	ld.w	20[sp], r12
    28f8:	23 6f 19 00 	ld.w	24[sp], r13
    28fc:	ea b9       	cmp	r10, r23
    28fe:	d2 05       	be	2908 <__vfprintf_r+0x12b0>
    2900:	20 56 47 00 	movea	71, r0, r10
    2904:	ea b9       	cmp	r10, r23
    2906:	ea 05       	bne	2912 <__vfprintf_r+0x12ba>
    2908:	db 56 01 00 	andi	1, r27, r10
    290c:	ba 05       	bne	2912 <__vfprintf_r+0x12ba>
    290e:	80 07 d2 05 	jr	2ee0 <__vfprintf_r+0x1888>
    2912:	1c 58       	mov	r28, r11
    2914:	20 56 46 00 	movea	70, r0, r10
    2918:	cd 59       	add	r13, r11
    291a:	ea b9       	cmp	r10, r23
    291c:	ba 05       	bne	2922 <__vfprintf_r+0x12ca>
    291e:	80 07 2a 05 	jr	2e48 <__vfprintf_r+0x17f0>
    2922:	15 30       	mov	r21, r6
    2924:	16 38       	mov	r22, r7
    2926:	00 42       	mov	0, r8
    2928:	00 4a       	mov	0, r9
    292a:	63 5f 1d 00 	st.w	r11, 28[sp]
    292e:	63 67 15 00 	st.w	r12, 20[sp]
    2932:	80 ff da 6c 	jarl	960c <___eqdf2>, lp
    2936:	23 5f 1d 00 	ld.w	28[sp], r11
    293a:	23 67 15 00 	ld.w	20[sp], r12
    293e:	60 52       	cmp	0, r10
    2940:	82 15       	be	2960 <__vfprintf_r+0x1308>
    2942:	23 57 6d 00 	ld.w	108[sp], r10
    2946:	ea 59       	cmp	r10, r11
    2948:	bb 05       	bh	294e <__vfprintf_r+0x12f6>
    294a:	80 07 14 07 	jr	305e <__vfprintf_r+0x1a06>
    294e:	20 6e 30 00 	movea	48, r0, r13
    2952:	4a 6f 00 00 	st.b	r13, 0[r10]
    2956:	41 52       	add	1, r10
    2958:	63 57 6d 00 	st.w	r10, 108[sp]
    295c:	eb 51       	cmp	r11, r10
    295e:	aa fd       	bne	2952 <__vfprintf_r+0x12fa>
    2960:	bc 59       	sub	r28, r11
    2962:	63 5f 41 00 	st.w	r11, 64[sp]
    2966:	20 56 67 00 	movea	103, r0, r10
    296a:	ea b9       	cmp	r10, r23
    296c:	ba 05       	bne	2972 <__vfprintf_r+0x131a>
    296e:	80 07 f8 03 	jr	2d66 <__vfprintf_r+0x170e>
    2972:	20 56 47 00 	movea	71, r0, r10
    2976:	ea b9       	cmp	r10, r23
    2978:	ba 05       	bne	297e <__vfprintf_r+0x1326>
    297a:	80 07 ec 03 	jr	2d66 <__vfprintf_r+0x170e>
    297e:	20 56 66 00 	movea	102, r0, r10
    2982:	ea b9       	cmp	r10, r23
    2984:	b2 05       	be	298a <__vfprintf_r+0x1332>
    2986:	80 07 ee 06 	jr	3074 <__vfprintf_r+0x1a1c>
    298a:	23 57 65 00 	ld.w	100[sp], r10
    298e:	60 52       	cmp	0, r10
    2990:	bf 05       	bgt	2996 <__vfprintf_r+0x133e>
    2992:	80 07 74 06 	jr	3006 <__vfprintf_r+0x19ae>
    2996:	60 12       	cmp	0, r2
    2998:	b2 05       	be	299e <__vfprintf_r+0x1346>
    299a:	80 07 3c 06 	jr	2fd6 <__vfprintf_r+0x197e>
    299e:	db de 01 00 	andi	1, r27, r27
    29a2:	b2 05       	be	29a8 <__vfprintf_r+0x1350>
    29a4:	80 07 32 06 	jr	2fd6 <__vfprintf_r+0x197e>
    29a8:	0a b0       	mov	r10, r22
    29aa:	63 57 21 00 	st.w	r10, 32[sp]
    29ae:	63 57 45 00 	st.w	r10, 68[sp]
    29b2:	23 6f 35 00 	ld.w	52[sp], r13
    29b6:	60 6a       	cmp	0, r13
    29b8:	ba 05       	bne	29be <__vfprintf_r+0x1366>
    29ba:	80 07 7c 03 	jr	2d36 <__vfprintf_r+0x16de>
    29be:	20 56 2d 00 	movea	45, r0, r10
    29c2:	43 57 61 00 	st.b	r10, 97[sp]
    29c6:	23 df 25 00 	ld.w	36[sp], r27
    29ca:	63 07 39 00 	st.w	r0, 56[sp]
    29ce:	bf 07 fa ef 	jr	19c8 <__vfprintf_r+0x370>
    29d2:	23 5f 2d 00 	ld.w	44[sp], r11
    29d6:	2b af 01 00 	ld.w	0[r11], r21
    29da:	2b b7 05 00 	ld.w	4[r11], r22
    29de:	48 5a       	add	8, r11
    29e0:	63 af 51 00 	st.w	r21, 80[sp]
    29e4:	63 b7 55 00 	st.w	r22, 84[sp]
    29e8:	63 5f 2d 00 	st.w	r11, 44[sp]
    29ec:	bf 07 5c f3 	jr	1d48 <__vfprintf_r+0x6f0>
    29f0:	23 6f 2d 00 	ld.w	44[sp], r13
    29f4:	00 52       	mov	0, r10
    29f6:	2d b7 01 00 	ld.w	0[r13], r22
    29fa:	44 6a       	add	4, r13
    29fc:	63 6f 2d 00 	st.w	r13, 44[sp]
    2a00:	bf 07 6a ef 	jr	196a <__vfprintf_r+0x312>
    2a04:	23 5f 2d 00 	ld.w	44[sp], r11
    2a08:	01 52       	mov	1, r10
    2a0a:	2b b7 01 00 	ld.w	0[r11], r22
    2a0e:	44 5a       	add	4, r11
    2a10:	63 5f 2d 00 	st.w	r11, 44[sp]
    2a14:	bf 07 56 ef 	jr	196a <__vfprintf_r+0x312>
    2a18:	db de 40 00 	andi	64, r27, r27
    2a1c:	ba 05       	bne	2a22 <__vfprintf_r+0x13ca>
    2a1e:	80 07 90 01 	jr	2bae <__vfprintf_r+0x1556>
    2a22:	23 6f 2d 00 	ld.w	44[sp], r13
    2a26:	23 77 29 00 	ld.w	40[sp], r14
    2a2a:	2d 57 01 00 	ld.w	0[r13], r10
    2a2e:	44 6a       	add	4, r13
    2a30:	63 6f 2d 00 	st.w	r13, 44[sp]
    2a34:	6a 77 00 00 	st.h	r14, 0[r10]
    2a38:	bf 07 0a ed 	jr	1742 <__vfprintf_r+0xea>
    2a3c:	23 6f 2d 00 	ld.w	44[sp], r13
    2a40:	2d b7 01 00 	ld.w	0[r13], r22
    2a44:	44 6a       	add	4, r13
    2a46:	63 6f 2d 00 	st.w	r13, 44[sp]
    2a4a:	bf 07 ba ee 	jr	1904 <__vfprintf_r+0x2ac>
    2a4e:	23 5f 2d 00 	ld.w	44[sp], r11
    2a52:	2b b7 01 00 	ld.w	0[r11], r22
    2a56:	44 5a       	add	4, r11
    2a58:	63 5f 2d 00 	st.w	r11, 44[sp]
    2a5c:	bf 07 74 f2 	jr	1cd0 <__vfprintf_r+0x678>
    2a60:	23 77 25 00 	ld.w	36[sp], r14
    2a64:	6c af 05 00 	st.w	r21, 4[r12]
    2a68:	6c 77 01 00 	st.w	r14, 0[r12]
    2a6c:	d5 69       	add	r21, r13
    2a6e:	41 5a       	add	1, r11
    2a70:	63 6f 89 00 	st.w	r13, 136[sp]
    2a74:	63 5f 85 00 	st.w	r11, 132[sp]
    2a78:	67 5a       	cmp	7, r11
    2a7a:	b7 05       	ble	2a80 <__vfprintf_r+0x1428>
    2a7c:	bf 07 d6 fb 	jr	2652 <__vfprintf_r+0xffa>
    2a80:	48 62       	add	8, r12
    2a82:	bf 07 ee fb 	jr	2670 <__vfprintf_r+0x1018>
    2a86:	20 46 80 00 	movea	128, r0, r8
    2a8a:	14 30       	mov	r20, r6
    2a8c:	1d 38       	mov	r29, r7
    2a8e:	c3 41       	add	sp, r8
    2a90:	80 ff 00 40 	jarl	6a90 <___sprint_r>, lp
    2a94:	60 52       	cmp	0, r10
    2a96:	b2 05       	be	2a9c <__vfprintf_r+0x1444>
    2a98:	bf 07 ce f0 	jr	1b66 <__vfprintf_r+0x50e>
    2a9c:	23 6f 89 00 	ld.w	136[sp], r13
    2aa0:	03 66 1c 01 	addi	284, sp, r12
    2aa4:	bf 07 14 f7 	jr	21b8 <__vfprintf_r+0xb60>
    2aa8:	40 56 01 00 	movhi	1, r0, r10
    2aac:	23 5f 85 00 	ld.w	132[sp], r11
    2ab0:	2a 56 ac 9f 	movea	-24660, r10, r10
    2ab4:	6c 57 01 00 	st.w	r10, 0[r12]
    2ab8:	01 52       	mov	1, r10
    2aba:	6c 57 05 00 	st.w	r10, 4[r12]
    2abe:	ca 69       	add	r10, r13
    2ac0:	ca 59       	add	r10, r11
    2ac2:	63 6f 89 00 	st.w	r13, 136[sp]
    2ac6:	63 5f 85 00 	st.w	r11, 132[sp]
    2aca:	67 5a       	cmp	7, r11
    2acc:	b7 05       	ble	2ad2 <__vfprintf_r+0x147a>
    2ace:	80 07 06 01 	jr	2bd4 <__vfprintf_r+0x157c>
    2ad2:	48 62       	add	8, r12
    2ad4:	60 ba       	cmp	0, r23
    2ad6:	aa 0d       	bne	2aea <__vfprintf_r+0x1492>
    2ad8:	23 5f 41 00 	ld.w	64[sp], r11
    2adc:	60 5a       	cmp	0, r11
    2ade:	ea 05       	bne	2aea <__vfprintf_r+0x1492>
    2ae0:	db 56 01 00 	andi	1, r27, r10
    2ae4:	ba 05       	bne	2aea <__vfprintf_r+0x1492>
    2ae6:	bf 07 42 f5 	jr	2028 <__vfprintf_r+0x9d0>
    2aea:	23 77 3d 00 	ld.w	60[sp], r14
    2aee:	23 5f 85 00 	ld.w	132[sp], r11
    2af2:	6c 77 01 00 	st.w	r14, 0[r12]
    2af6:	23 77 4d 00 	ld.w	76[sp], r14
    2afa:	41 5a       	add	1, r11
    2afc:	6c 77 05 00 	st.w	r14, 4[r12]
    2b00:	ce 69       	add	r14, r13
    2b02:	63 6f 89 00 	st.w	r13, 136[sp]
    2b06:	63 5f 85 00 	st.w	r11, 132[sp]
    2b0a:	67 5a       	cmp	7, r11
    2b0c:	b7 05       	ble	2b12 <__vfprintf_r+0x14ba>
    2b0e:	80 07 64 03 	jr	2e72 <__vfprintf_r+0x181a>
    2b12:	48 62       	add	8, r12
    2b14:	80 b9       	subr	r0, r23
    2b16:	60 ba       	cmp	0, r23
    2b18:	bf 05       	bgt	2b1e <__vfprintf_r+0x14c6>
    2b1a:	80 07 46 01 	jr	2c60 <__vfprintf_r+0x1608>
    2b1e:	20 ae 10 00 	movea	16, r0, r21
    2b22:	63 c7 25 00 	st.w	r24, 36[sp]
    2b26:	f5 b9       	cmp	r21, r23
    2b28:	9f 0d       	bgt	2b3a <__vfprintf_r+0x14e2>
    2b2a:	80 07 70 01 	jr	2c9a <__vfprintf_r+0x1642>
    2b2e:	48 62       	add	8, r12
    2b30:	50 ba       	add	-16, r23
    2b32:	f5 b9       	cmp	r21, r23
    2b34:	bf 05       	bgt	2b3a <__vfprintf_r+0x14e2>
    2b36:	80 07 64 01 	jr	2c9a <__vfprintf_r+0x1642>
    2b3a:	6c c7 01 00 	st.w	r24, 0[r12]
    2b3e:	6c af 05 00 	st.w	r21, 4[r12]
    2b42:	0d 6e 10 00 	addi	16, r13, r13
    2b46:	41 5a       	add	1, r11
    2b48:	63 6f 89 00 	st.w	r13, 136[sp]
    2b4c:	63 5f 85 00 	st.w	r11, 132[sp]
    2b50:	67 5a       	cmp	7, r11
    2b52:	e7 ed       	ble	2b2e <__vfprintf_r+0x14d6>
    2b54:	20 46 80 00 	movea	128, r0, r8
    2b58:	14 30       	mov	r20, r6
    2b5a:	1d 38       	mov	r29, r7
    2b5c:	c3 41       	add	sp, r8
    2b5e:	80 ff 32 3f 	jarl	6a90 <___sprint_r>, lp
    2b62:	60 52       	cmp	0, r10
    2b64:	b2 05       	be	2b6a <__vfprintf_r+0x1512>
    2b66:	bf 07 00 f0 	jr	1b66 <__vfprintf_r+0x50e>
    2b6a:	23 6f 89 00 	ld.w	136[sp], r13
    2b6e:	23 5f 85 00 	ld.w	132[sp], r11
    2b72:	03 66 1c 01 	addi	284, sp, r12
    2b76:	d5 dd       	br	2b30 <__vfprintf_r+0x14d8>
    2b78:	20 56 47 00 	movea	71, r0, r10
    2b7c:	ea b9       	cmp	r10, r23
    2b7e:	b7 05       	ble	2b84 <__vfprintf_r+0x152c>
    2b80:	80 07 da 01 	jr	2d5a <__vfprintf_r+0x1702>
    2b84:	40 e6 01 00 	movhi	1, r0, r28
    2b88:	3c e6 7b 9f 	movea	-24709, r28, r28
    2b8c:	03 57 61 00 	ld.b	97[sp], r10
    2b90:	03 5a       	mov	3, r11
    2b92:	d8 52       	shl	24, r10
    2b94:	20 6e 7f ff 	movea	-129, r0, r13
    2b98:	63 5f 21 00 	st.w	r11, 32[sp]
    2b9c:	4d d9       	and	r13, r27
    2b9e:	b8 52       	sar	24, r10
    2ba0:	0b b0       	mov	r11, r22
    2ba2:	63 07 39 00 	st.w	r0, 56[sp]
    2ba6:	63 07 45 00 	st.w	r0, 68[sp]
    2baa:	bf 07 1a ee 	jr	19c4 <__vfprintf_r+0x36c>
    2bae:	23 5f 2d 00 	ld.w	44[sp], r11
    2bb2:	23 6f 29 00 	ld.w	40[sp], r13
    2bb6:	2b 57 01 00 	ld.w	0[r11], r10
    2bba:	44 5a       	add	4, r11
    2bbc:	63 5f 2d 00 	st.w	r11, 44[sp]
    2bc0:	6a 6f 01 00 	st.w	r13, 0[r10]
    2bc4:	bf 07 7e eb 	jr	1742 <__vfprintf_r+0xea>
    2bc8:	40 e6 01 00 	movhi	1, r0, r28
    2bcc:	3c e6 73 9f 	movea	-24717, r28, r28
    2bd0:	bf 07 d0 f1 	jr	1da0 <__vfprintf_r+0x748>
    2bd4:	20 46 80 00 	movea	128, r0, r8
    2bd8:	14 30       	mov	r20, r6
    2bda:	1d 38       	mov	r29, r7
    2bdc:	c3 41       	add	sp, r8
    2bde:	80 ff b2 3e 	jarl	6a90 <___sprint_r>, lp
    2be2:	60 52       	cmp	0, r10
    2be4:	b2 05       	be	2bea <__vfprintf_r+0x1592>
    2be6:	bf 07 80 ef 	jr	1b66 <__vfprintf_r+0x50e>
    2bea:	23 bf 65 00 	ld.w	100[sp], r23
    2bee:	23 6f 89 00 	ld.w	136[sp], r13
    2bf2:	03 66 1c 01 	addi	284, sp, r12
    2bf6:	bf 07 de fe 	jr	2ad4 <__vfprintf_r+0x147c>
    2bfa:	20 46 80 00 	movea	128, r0, r8
    2bfe:	14 30       	mov	r20, r6
    2c00:	1d 38       	mov	r29, r7
    2c02:	c3 41       	add	sp, r8
    2c04:	80 ff 8c 3e 	jarl	6a90 <___sprint_r>, lp
    2c08:	60 52       	cmp	0, r10
    2c0a:	b2 05       	be	2c10 <__vfprintf_r+0x15b8>
    2c0c:	bf 07 5a ef 	jr	1b66 <__vfprintf_r+0x50e>
    2c10:	23 6f 89 00 	ld.w	136[sp], r13
    2c14:	03 66 1c 01 	addi	284, sp, r12
    2c18:	bf 07 e0 f5 	jr	21f8 <__vfprintf_r+0xba0>
    2c1c:	63 67 15 00 	st.w	r12, 20[sp]
    2c20:	80 ff 40 3e 	jarl	6a60 <_strlen>, lp
    2c24:	63 57 21 00 	st.w	r10, 32[sp]
    2c28:	0a b0       	mov	r10, r22
    2c2a:	23 67 15 00 	ld.w	20[sp], r12
    2c2e:	60 52       	cmp	0, r10
    2c30:	b6 05       	blt	2c36 <__vfprintf_r+0x15de>
    2c32:	bf 07 2a f0 	jr	1c5c <__vfprintf_r+0x604>
    2c36:	63 07 21 00 	st.w	r0, 32[sp]
    2c3a:	bf 07 22 f0 	jr	1c5c <__vfprintf_r+0x604>
    2c3e:	20 46 80 00 	movea	128, r0, r8
    2c42:	14 30       	mov	r20, r6
    2c44:	1d 38       	mov	r29, r7
    2c46:	c3 41       	add	sp, r8
    2c48:	80 ff 48 3e 	jarl	6a90 <___sprint_r>, lp
    2c4c:	60 52       	cmp	0, r10
    2c4e:	b2 05       	be	2c54 <__vfprintf_r+0x15fc>
    2c50:	bf 07 16 ef 	jr	1b66 <__vfprintf_r+0x50e>
    2c54:	23 6f 89 00 	ld.w	136[sp], r13
    2c58:	23 5f 85 00 	ld.w	132[sp], r11
    2c5c:	03 66 1c 01 	addi	284, sp, r12
    2c60:	23 77 41 00 	ld.w	64[sp], r14
    2c64:	6c e7 01 00 	st.w	r28, 0[r12]
    2c68:	6c 77 05 00 	st.w	r14, 4[r12]
    2c6c:	ce 69       	add	r14, r13
    2c6e:	bf 07 a6 f3 	jr	2014 <__vfprintf_r+0x9bc>
    2c72:	20 46 80 00 	movea	128, r0, r8
    2c76:	14 30       	mov	r20, r6
    2c78:	1d 38       	mov	r29, r7
    2c7a:	c3 41       	add	sp, r8
    2c7c:	80 ff 14 3e 	jarl	6a90 <___sprint_r>, lp
    2c80:	60 52       	cmp	0, r10
    2c82:	b2 05       	be	2c88 <__vfprintf_r+0x1630>
    2c84:	bf 07 e2 ee 	jr	1b66 <__vfprintf_r+0x50e>
    2c88:	23 6f 89 00 	ld.w	136[sp], r13
    2c8c:	03 66 1c 01 	addi	284, sp, r12
    2c90:	bf 07 6a f8 	jr	24fa <__vfprintf_r+0xea2>
    2c94:	00 aa       	mov	0, r21
    2c96:	bf 07 6c f8 	jr	2502 <__vfprintf_r+0xeaa>
    2c9a:	23 77 25 00 	ld.w	36[sp], r14
    2c9e:	6c bf 05 00 	st.w	r23, 4[r12]
    2ca2:	6c 77 01 00 	st.w	r14, 0[r12]
    2ca6:	d7 69       	add	r23, r13
    2ca8:	41 5a       	add	1, r11
    2caa:	63 6f 89 00 	st.w	r13, 136[sp]
    2cae:	63 5f 85 00 	st.w	r11, 132[sp]
    2cb2:	67 5a       	cmp	7, r11
    2cb4:	df c5       	bgt	2c3e <__vfprintf_r+0x15e6>
    2cb6:	48 62       	add	8, r12
    2cb8:	c5 d5       	br	2c60 <__vfprintf_r+0x1608>
    2cba:	20 46 80 00 	movea	128, r0, r8
    2cbe:	14 30       	mov	r20, r6
    2cc0:	1d 38       	mov	r29, r7
    2cc2:	c3 41       	add	sp, r8
    2cc4:	80 ff cc 3d 	jarl	6a90 <___sprint_r>, lp
    2cc8:	60 52       	cmp	0, r10
    2cca:	b2 05       	be	2cd0 <__vfprintf_r+0x1678>
    2ccc:	bf 07 9a ee 	jr	1b66 <__vfprintf_r+0x50e>
    2cd0:	23 57 65 00 	ld.w	100[sp], r10
    2cd4:	23 6f 89 00 	ld.w	136[sp], r13
    2cd8:	03 66 1c 01 	addi	284, sp, r12
    2cdc:	bf 07 ac f9 	jr	2688 <__vfprintf_r+0x1030>
    2ce0:	02 b0       	mov	r2, r22
    2ce2:	66 12       	cmp	6, r2
    2ce4:	a3 05       	bnh	2ce8 <__vfprintf_r+0x1690>
    2ce6:	06 b2       	mov	6, r22
    2ce8:	63 b7 21 00 	st.w	r22, 32[sp]
    2cec:	60 b2       	cmp	0, r22
    2cee:	be 05       	bge	2cf4 <__vfprintf_r+0x169c>
    2cf0:	80 07 c6 02 	jr	2fb6 <__vfprintf_r+0x195e>
    2cf4:	40 e6 01 00 	movhi	1, r0, r28
    2cf8:	63 af 2d 00 	st.w	r21, 44[sp]
    2cfc:	3c e6 a5 9f 	movea	-24667, r28, r28
    2d00:	bf 07 fc ea 	jr	17fc <__vfprintf_r+0x1a4>
    2d04:	20 46 80 00 	movea	128, r0, r8
    2d08:	14 30       	mov	r20, r6
    2d0a:	1d 38       	mov	r29, r7
    2d0c:	c3 41       	add	sp, r8
    2d0e:	80 ff 82 3d 	jarl	6a90 <___sprint_r>, lp
    2d12:	60 52       	cmp	0, r10
    2d14:	b2 05       	be	2d1a <__vfprintf_r+0x16c2>
    2d16:	bf 07 50 ee 	jr	1b66 <__vfprintf_r+0x50e>
    2d1a:	23 67 41 00 	ld.w	64[sp], r12
    2d1e:	23 57 65 00 	ld.w	100[sp], r10
    2d22:	23 6f 89 00 	ld.w	136[sp], r13
    2d26:	8c 51       	subr	r12, r10
    2d28:	03 66 1c 01 	addi	284, sp, r12
    2d2c:	bf 07 92 f9 	jr	26be <__vfprintf_r+0x1066>
    2d30:	00 b2       	mov	0, r22
    2d32:	bf 07 94 f9 	jr	26c6 <__vfprintf_r+0x106e>
    2d36:	03 57 61 00 	ld.b	97[sp], r10
    2d3a:	23 df 25 00 	ld.w	36[sp], r27
    2d3e:	d8 52       	shl	24, r10
    2d40:	b8 52       	sar	24, r10
    2d42:	63 07 39 00 	st.w	r0, 56[sp]
    2d46:	bf 07 7e ec 	jr	19c4 <__vfprintf_r+0x36c>
    2d4a:	20 5e 2d 00 	movea	45, r0, r11
    2d4e:	20 56 2d 00 	movea	45, r0, r10
    2d52:	43 5f 61 00 	st.b	r11, 97[sp]
    2d56:	bf 07 36 f0 	jr	1d8c <__vfprintf_r+0x734>
    2d5a:	40 e6 01 00 	movhi	1, r0, r28
    2d5e:	3c e6 7f 9f 	movea	-24705, r28, r28
    2d62:	bf 07 2a fe 	jr	2b8c <__vfprintf_r+0x1534>
    2d66:	23 57 65 00 	ld.w	100[sp], r10
    2d6a:	0a 58       	mov	r10, r11
    2d6c:	7d 52       	cmp	-3, r10
    2d6e:	b6 05       	blt	2d74 <__vfprintf_r+0x171c>
    2d70:	ea 11       	cmp	r10, r2
    2d72:	de 35       	bge	2ddc <__vfprintf_r+0x1784>
    2d74:	5e ba       	add	-2, r23
    2d76:	0b b6 ff ff 	addi	-1, r11, r22
    2d7a:	63 b7 65 00 	st.w	r22, 100[sp]
    2d7e:	43 bf 72 00 	st.b	r23, 114[sp]
    2d82:	60 b2       	cmp	0, r22
    2d84:	be 05       	bge	2d8a <__vfprintf_r+0x1732>
    2d86:	80 07 6a 02 	jr	2ff0 <__vfprintf_r+0x1998>
    2d8a:	20 56 2b 00 	movea	43, r0, r10
    2d8e:	43 57 73 00 	st.b	r10, 115[sp]
    2d92:	69 b2       	cmp	9, r22
    2d94:	b7 05       	ble	2d9a <__vfprintf_r+0x1742>
    2d96:	80 07 52 01 	jr	2ee8 <__vfprintf_r+0x1890>
    2d9a:	20 56 30 00 	movea	48, r0, r10
    2d9e:	16 5e 30 00 	addi	48, r22, r11
    2da2:	43 57 74 00 	st.b	r10, 116[sp]
    2da6:	03 56 76 00 	addi	118, sp, r10
    2daa:	43 5f 75 00 	st.b	r11, 117[sp]
    2dae:	03 5e 72 00 	addi	114, sp, r11
    2db2:	ab 51       	sub	r11, r10
    2db4:	23 b7 41 00 	ld.w	64[sp], r22
    2db8:	23 6f 41 00 	ld.w	64[sp], r13
    2dbc:	63 57 59 00 	st.w	r10, 88[sp]
    2dc0:	ca b1       	add	r10, r22
    2dc2:	61 6a       	cmp	1, r13
    2dc4:	87 25       	ble	2e04 <__vfprintf_r+0x17ac>
    2dc6:	41 b2       	add	1, r22
    2dc8:	63 b7 21 00 	st.w	r22, 32[sp]
    2dcc:	60 b2       	cmp	0, r22
    2dce:	be 05       	bge	2dd4 <__vfprintf_r+0x177c>
    2dd0:	80 07 86 02 	jr	3056 <__vfprintf_r+0x19fe>
    2dd4:	63 07 45 00 	st.w	r0, 68[sp]
    2dd8:	bf 07 da fb 	jr	29b2 <__vfprintf_r+0x135a>
    2ddc:	23 77 41 00 	ld.w	64[sp], r14
    2de0:	ee 51       	cmp	r14, r10
    2de2:	d6 5d       	blt	2e9c <__vfprintf_r+0x1844>
    2de4:	db de 01 00 	andi	1, r27, r27
    2de8:	b2 05       	be	2dee <__vfprintf_r+0x1796>
    2dea:	80 07 d4 01 	jr	2fbe <__vfprintf_r+0x1966>
    2dee:	63 57 21 00 	st.w	r10, 32[sp]
    2df2:	60 52       	cmp	0, r10
    2df4:	be 05       	bge	2dfa <__vfprintf_r+0x17a2>
    2df6:	80 07 6e 02 	jr	3064 <__vfprintf_r+0x1a0c>
    2dfa:	0b b0       	mov	r11, r22
    2dfc:	20 be 67 00 	movea	103, r0, r23
    2e00:	bf 07 ae fb 	jr	29ae <__vfprintf_r+0x1356>
    2e04:	db de 01 00 	andi	1, r27, r27
    2e08:	fa dd       	bne	2dc6 <__vfprintf_r+0x176e>
    2e0a:	f5 dd       	br	2dc8 <__vfprintf_r+0x1770>
    2e0c:	03 6e 64 00 	addi	100, sp, r13
    2e10:	03 5e 68 00 	addi	104, sp, r11
    2e14:	03 56 6c 00 	addi	108, sp, r10
    2e18:	03 72       	mov	3, r14
    2e1a:	14 30       	mov	r20, r6
    2e1c:	15 40       	mov	r21, r8
    2e1e:	16 48       	mov	r22, r9
    2e20:	63 6f 09 00 	st.w	r13, 8[sp]
    2e24:	63 5f 0d 00 	st.w	r11, 12[sp]
    2e28:	63 67 15 00 	st.w	r12, 20[sp]
    2e2c:	63 77 01 00 	st.w	r14, 0[sp]
    2e30:	63 17 05 00 	st.w	r2, 4[sp]
    2e34:	63 57 11 00 	st.w	r10, 16[sp]
    2e38:	80 ff dc 06 	jarl	3514 <__dtoa_r>, lp
    2e3c:	0a 58       	mov	r10, r11
    2e3e:	23 67 15 00 	ld.w	20[sp], r12
    2e42:	0a e0       	mov	r10, r28
    2e44:	c2 59       	add	r2, r11
    2e46:	02 68       	mov	r2, r13
    2e48:	1c 77 00 00 	ld.b	0[r28], r14
    2e4c:	40 56 00 30 	movhi	12288, r0, r10
    2e50:	d8 72       	shl	24, r14
    2e52:	ea 71       	cmp	r10, r14
    2e54:	ba 05       	bne	2e5a <__vfprintf_r+0x1802>
    2e56:	80 07 26 01 	jr	2f7c <__vfprintf_r+0x1924>
    2e5a:	23 57 65 00 	ld.w	100[sp], r10
    2e5e:	ca 59       	add	r10, r11
    2e60:	bf 07 c2 fa 	jr	2922 <__vfprintf_r+0x12ca>
    2e64:	60 12       	cmp	0, r2
    2e66:	b2 05       	be	2e6c <__vfprintf_r+0x1814>
    2e68:	bf 07 0c fa 	jr	2874 <__vfprintf_r+0x121c>
    2e6c:	01 12       	mov	1, r2
    2e6e:	bf 07 06 fa 	jr	2874 <__vfprintf_r+0x121c>
    2e72:	20 46 80 00 	movea	128, r0, r8
    2e76:	14 30       	mov	r20, r6
    2e78:	1d 38       	mov	r29, r7
    2e7a:	c3 41       	add	sp, r8
    2e7c:	80 ff 14 3c 	jarl	6a90 <___sprint_r>, lp
    2e80:	60 52       	cmp	0, r10
    2e82:	b2 05       	be	2e88 <__vfprintf_r+0x1830>
    2e84:	bf 07 e2 ec 	jr	1b66 <__vfprintf_r+0x50e>
    2e88:	23 bf 65 00 	ld.w	100[sp], r23
    2e8c:	23 6f 89 00 	ld.w	136[sp], r13
    2e90:	23 5f 85 00 	ld.w	132[sp], r11
    2e94:	03 66 1c 01 	addi	284, sp, r12
    2e98:	bf 07 7c fc 	jr	2b14 <__vfprintf_r+0x14bc>
    2e9c:	60 52       	cmp	0, r10
    2e9e:	bf 05       	bgt	2ea4 <__vfprintf_r+0x184c>
    2ea0:	80 07 5e 01 	jr	2ffe <__vfprintf_r+0x19a6>
    2ea4:	01 ba       	mov	1, r23
    2ea6:	23 b7 41 00 	ld.w	64[sp], r22
    2eaa:	d7 b1       	add	r23, r22
    2eac:	63 b7 21 00 	st.w	r22, 32[sp]
    2eb0:	60 b2       	cmp	0, r22
    2eb2:	be 05       	bge	2eb8 <__vfprintf_r+0x1860>
    2eb4:	80 07 1a 01 	jr	2fce <__vfprintf_r+0x1976>
    2eb8:	20 be 67 00 	movea	103, r0, r23
    2ebc:	bf 07 f2 fa 	jr	29ae <__vfprintf_r+0x1356>
    2ec0:	40 56 00 80 	movhi	-32768, r0, r10
    2ec4:	20 5e 2d 00 	movea	45, r0, r11
    2ec8:	ca b1       	add	r10, r22
    2eca:	63 5f 35 00 	st.w	r11, 52[sp]
    2ece:	bf 07 ba f9 	jr	2888 <__vfprintf_r+0x1230>
    2ed2:	02 6e 01 00 	addi	1, r2, r13
    2ed6:	bf 07 e4 f9 	jr	28ba <__vfprintf_r+0x1262>
    2eda:	06 12       	mov	6, r2
    2edc:	bf 07 98 f9 	jr	2874 <__vfprintf_r+0x121c>
    2ee0:	23 5f 6d 00 	ld.w	108[sp], r11
    2ee4:	bf 07 7c fa 	jr	2960 <__vfprintf_r+0x1308>
    2ee8:	40 5e 01 00 	movhi	1, r0, r11
    2eec:	40 56 01 00 	movhi	1, r0, r10
    2ef0:	03 16 80 00 	addi	128, sp, r2
    2ef4:	2b 5e be 8b 	movea	-29762, r11, r11
    2ef8:	2a ae 56 8b 	movea	-29866, r10, r21
    2efc:	16 30       	mov	r22, r6
    2efe:	0a 3a       	mov	10, r7
    2f00:	63 5f 1d 00 	st.w	r11, 28[sp]
    2f04:	63 67 15 00 	st.w	r12, 20[sp]
    2f08:	80 ff 04 00 	jarl	2f0c <__vfprintf_r+0x18b4>, lp
    2f0c:	44 fa       	add	4, lp
    2f0e:	6b 00       	jmp	[r11]
    2f10:	0a 56 30 00 	addi	48, r10, r10
    2f14:	16 30       	mov	r22, r6
    2f16:	5f 12       	add	-1, r2
    2f18:	0a 3a       	mov	10, r7
    2f1a:	42 57 00 00 	st.b	r10, 0[r2]
    2f1e:	80 ff 04 00 	jarl	2f22 <__vfprintf_r+0x18ca>, lp
    2f22:	44 fa       	add	4, lp
    2f24:	75 00       	jmp	[r21]
    2f26:	0a b0       	mov	r10, r22
    2f28:	23 5f 1d 00 	ld.w	28[sp], r11
    2f2c:	23 67 15 00 	ld.w	20[sp], r12
    2f30:	69 52       	cmp	9, r10
    2f32:	df e5       	bgt	2efc <__vfprintf_r+0x18a4>
    2f34:	0a 56 30 00 	addi	48, r10, r10
    2f38:	d8 52       	shl	24, r10
    2f3a:	b8 52       	sar	24, r10
    2f3c:	42 57 ff ff 	st.b	r10, -1[r2]
    2f40:	03 76 80 00 	addi	128, sp, r14
    2f44:	02 5e ff ff 	addi	-1, r2, r11
    2f48:	eb 71       	cmp	r11, r14
    2f4a:	bb 05       	bh	2f50 <__vfprintf_r+0x18f8>
    2f4c:	80 07 20 01 	jr	306c <__vfprintf_r+0x1a14>
    2f50:	02 58       	mov	r2, r11
    2f52:	03 6e 74 00 	addi	116, sp, r13
    2f56:	e5 05       	br	2f62 <__vfprintf_r+0x190a>
    2f58:	0b 57 00 00 	ld.b	0[r11], r10
    2f5c:	41 5a       	add	1, r11
    2f5e:	d8 52       	shl	24, r10
    2f60:	b8 52       	sar	24, r10
    2f62:	4d 57 00 00 	st.b	r10, 0[r13]
    2f66:	41 6a       	add	1, r13
    2f68:	ee 59       	cmp	r14, r11
    2f6a:	fa f5       	bne	2f58 <__vfprintf_r+0x1900>
    2f6c:	03 5e 81 00 	addi	129, sp, r11
    2f70:	03 56 74 00 	addi	116, sp, r10
    2f74:	a2 59       	sub	r2, r11
    2f76:	cb 51       	add	r11, r10
    2f78:	bf 07 36 fe 	jr	2dae <__vfprintf_r+0x1756>
    2f7c:	15 30       	mov	r21, r6
    2f7e:	16 38       	mov	r22, r7
    2f80:	00 42       	mov	0, r8
    2f82:	00 4a       	mov	0, r9
    2f84:	63 5f 1d 00 	st.w	r11, 28[sp]
    2f88:	63 67 15 00 	st.w	r12, 20[sp]
    2f8c:	63 6f 19 00 	st.w	r13, 24[sp]
    2f90:	80 ff f0 66 	jarl	9680 <___nedf2>, lp
    2f94:	23 5f 1d 00 	ld.w	28[sp], r11
    2f98:	23 67 15 00 	ld.w	20[sp], r12
    2f9c:	23 6f 19 00 	ld.w	24[sp], r13
    2fa0:	60 52       	cmp	0, r10
    2fa2:	ba 05       	bne	2fa8 <__vfprintf_r+0x1950>
    2fa4:	bf 07 b6 fe 	jr	2e5a <__vfprintf_r+0x1802>
    2fa8:	01 52       	mov	1, r10
    2faa:	ad 51       	sub	r13, r10
    2fac:	63 57 65 00 	st.w	r10, 100[sp]
    2fb0:	ca 59       	add	r10, r11
    2fb2:	bf 07 70 f9 	jr	2922 <__vfprintf_r+0x12ca>
    2fb6:	63 07 21 00 	st.w	r0, 32[sp]
    2fba:	bf 07 3a fd 	jr	2cf4 <__vfprintf_r+0x169c>
    2fbe:	0a b6 01 00 	addi	1, r10, r22
    2fc2:	63 b7 21 00 	st.w	r22, 32[sp]
    2fc6:	60 b2       	cmp	0, r22
    2fc8:	b6 05       	blt	2fce <__vfprintf_r+0x1976>
    2fca:	bf 07 ee fe 	jr	2eb8 <__vfprintf_r+0x1860>
    2fce:	63 07 21 00 	st.w	r0, 32[sp]
    2fd2:	bf 07 e6 fe 	jr	2eb8 <__vfprintf_r+0x1860>
    2fd6:	02 b6 01 00 	addi	1, r2, r22
    2fda:	ca b1       	add	r10, r22
    2fdc:	63 b7 21 00 	st.w	r22, 32[sp]
    2fe0:	60 b2       	cmp	0, r22
    2fe2:	b6 05       	blt	2fe8 <__vfprintf_r+0x1990>
    2fe4:	bf 07 ca f9 	jr	29ae <__vfprintf_r+0x1356>
    2fe8:	63 07 21 00 	st.w	r0, 32[sp]
    2fec:	bf 07 c2 f9 	jr	29ae <__vfprintf_r+0x1356>
    2ff0:	20 56 2d 00 	movea	45, r0, r10
    2ff4:	80 b1       	subr	r0, r22
    2ff6:	43 57 73 00 	st.b	r10, 115[sp]
    2ffa:	bf 07 98 fd 	jr	2d92 <__vfprintf_r+0x173a>
    2ffe:	02 ba       	mov	2, r23
    3000:	aa b9       	sub	r10, r23
    3002:	bf 07 a4 fe 	jr	2ea6 <__vfprintf_r+0x184e>
    3006:	60 12       	cmp	0, r2
    3008:	9a 1d       	bne	303a <__vfprintf_r+0x19e2>
    300a:	db de 01 00 	andi	1, r27, r27
    300e:	ea 15       	bne	303a <__vfprintf_r+0x19e2>
    3010:	01 5a       	mov	1, r11
    3012:	63 5f 21 00 	st.w	r11, 32[sp]
    3016:	0b b0       	mov	r11, r22
    3018:	bf 07 96 f9 	jr	29ae <__vfprintf_r+0x1356>
    301c:	23 77 2d 00 	ld.w	44[sp], r14
    3020:	2e 17 01 00 	ld.w	0[r14], r2
    3024:	0e 50       	mov	r14, r10
    3026:	44 52       	add	4, r10
    3028:	60 12       	cmp	0, r2
    302a:	b6 05       	blt	3030 <__vfprintf_r+0x19d8>
    302c:	bf 07 24 ee 	jr	1e50 <__vfprintf_r+0x7f8>
    3030:	63 57 2d 00 	st.w	r10, 44[sp]
    3034:	1f 12       	mov	-1, r2
    3036:	bf 07 98 e7 	jr	17ce <__vfprintf_r+0x176>
    303a:	02 b6 02 00 	addi	2, r2, r22
    303e:	63 b7 21 00 	st.w	r22, 32[sp]
    3042:	60 b2       	cmp	0, r22
    3044:	b6 05       	blt	304a <__vfprintf_r+0x19f2>
    3046:	bf 07 68 f9 	jr	29ae <__vfprintf_r+0x1356>
    304a:	f5 cd       	br	2fe8 <__vfprintf_r+0x1990>
    304c:	1f 6a       	mov	-1, r13
    304e:	63 6f 29 00 	st.w	r13, 40[sp]
    3052:	bf 07 ec ea 	jr	1b3e <__vfprintf_r+0x4e6>
    3056:	63 07 21 00 	st.w	r0, 32[sp]
    305a:	bf 07 7a fd 	jr	2dd4 <__vfprintf_r+0x177c>
    305e:	0a 58       	mov	r10, r11
    3060:	bf 07 00 f9 	jr	2960 <__vfprintf_r+0x1308>
    3064:	63 07 21 00 	st.w	r0, 32[sp]
    3068:	bf 07 92 fd 	jr	2dfa <__vfprintf_r+0x17a2>
    306c:	03 56 74 00 	addi	116, sp, r10
    3070:	bf 07 3e fd 	jr	2dae <__vfprintf_r+0x1756>
    3074:	23 5f 65 00 	ld.w	100[sp], r11
    3078:	bf 07 fe fc 	jr	2d76 <__vfprintf_r+0x171e>

0000307c <_vfprintf>:
    307c:	06 58       	mov	r6, r11
    307e:	07 50       	mov	r7, r10
    3080:	24 37 bd 08 	ld.w	2236[gp], r6
    3084:	5c 1a       	add	-4, sp
    3086:	08 48       	mov	r8, r9
    3088:	0b 38       	mov	r11, r7
    308a:	0a 40       	mov	r10, r8
    308c:	63 ff 01 00 	st.w	lp, 0[sp]
    3090:	bf ff c8 e5 	jarl	1658 <__vfprintf_r>, lp
    3094:	bf 07 f4 e3 	jr	1488 <__return_r31>

00003098 <___swsetup_r>:
    3098:	54 1a       	add	-12, sp
    309a:	24 57 bd 08 	ld.w	2236[gp], r10
    309e:	63 e7 05 00 	st.w	r28, 4[sp]
    30a2:	63 ef 01 00 	st.w	r29, 0[sp]
    30a6:	63 ff 09 00 	st.w	lp, 8[sp]
    30aa:	06 e0       	mov	r6, r28
    30ac:	07 e8       	mov	r7, r29
    30ae:	60 52       	cmp	0, r10
    30b0:	d2 05       	be	30ba <___swsetup_r+0x22>
    30b2:	2a 5f 39 00 	ld.w	56[r10], r11
    30b6:	60 5a       	cmp	0, r11
    30b8:	d2 55       	be	3162 <___swsetup_r+0xca>
    30ba:	3d 57 0c 00 	ld.h	12[r29], r10
    30be:	40 5e 08 00 	movhi	8, r0, r11
    30c2:	d0 52       	shl	16, r10
    30c4:	4a 59       	and	r10, r11
    30c6:	b0 52       	sar	16, r10
    30c8:	60 5a       	cmp	0, r11
    30ca:	c2 15       	be	30f2 <___swsetup_r+0x5a>
    30cc:	3d 5f 11 00 	ld.w	16[r29], r11
    30d0:	60 5a       	cmp	0, r11
    30d2:	e2 1d       	be	310e <___swsetup_r+0x76>
    30d4:	ca 66 01 00 	andi	1, r10, r12
    30d8:	ca 2d       	bne	3130 <___swsetup_r+0x98>
    30da:	ca 56 02 00 	andi	2, r10, r10
    30de:	ea 45       	bne	316a <___swsetup_r+0xd2>
    30e0:	3d 57 15 00 	ld.w	20[r29], r10
    30e4:	7d 57 09 00 	st.w	r10, 8[r29]
    30e8:	60 5a       	cmp	0, r11
    30ea:	c2 2d       	be	3142 <___swsetup_r+0xaa>
    30ec:	00 52       	mov	0, r10
    30ee:	bf 07 7a e3 	jr	1468 <__return_r28_r31>
    30f2:	ca 5e 10 00 	andi	16, r10, r11
    30f6:	f2 55       	be	31a4 <___swsetup_r+0x10c>
    30f8:	ca 5e 04 00 	andi	4, r10, r11
    30fc:	9a 3d       	bne	316e <___swsetup_r+0xd6>
    30fe:	3d 5f 11 00 	ld.w	16[r29], r11
    3102:	8a 56 08 00 	ori	8, r10, r10
    3106:	7d 57 0c 00 	st.h	r10, 12[r29]
    310a:	60 5a       	cmp	0, r11
    310c:	ca e5       	bne	30d4 <___swsetup_r+0x3c>
    310e:	ca 6e 80 02 	andi	640, r10, r13
    3112:	20 66 00 02 	movea	512, r0, r12
    3116:	ec 69       	cmp	r12, r13
    3118:	e2 dd       	be	30d4 <___swsetup_r+0x3c>
    311a:	1c 30       	mov	r28, r6
    311c:	1d 38       	mov	r29, r7
    311e:	80 ff 36 22 	jarl	5354 <___smakebuf_r>, lp
    3122:	3d 57 0c 00 	ld.h	12[r29], r10
    3126:	3d 5f 11 00 	ld.w	16[r29], r11
    312a:	d0 52       	shl	16, r10
    312c:	b0 52       	sar	16, r10
    312e:	b5 d5       	br	30d4 <___swsetup_r+0x3c>
    3130:	3d 57 15 00 	ld.w	20[r29], r10
    3134:	7d 07 09 00 	st.w	r0, 8[r29]
    3138:	80 51       	subr	r0, r10
    313a:	7d 57 19 00 	st.w	r10, 24[r29]
    313e:	60 5a       	cmp	0, r11
    3140:	ea d5       	bne	30ec <___swsetup_r+0x54>
    3142:	3d 5f 0c 00 	ld.h	12[r29], r11
    3146:	40 66 80 00 	movhi	128, r0, r12
    314a:	d0 5a       	shl	16, r11
    314c:	4b 61       	and	r11, r12
    314e:	00 52       	mov	0, r10
    3150:	b0 5a       	sar	16, r11
    3152:	60 62       	cmp	0, r12
    3154:	d2 cd       	be	30ee <___swsetup_r+0x56>
    3156:	8b 5e 40 00 	ori	64, r11, r11
    315a:	7d 5f 0c 00 	st.h	r11, 12[r29]
    315e:	1f 52       	mov	-1, r10
    3160:	f5 c5       	br	30ee <___swsetup_r+0x56>
    3162:	0a 30       	mov	r10, r6
    3164:	80 ff 4c 1b 	jarl	4cb0 <___sinit>, lp
    3168:	95 ad       	br	30ba <___swsetup_r+0x22>
    316a:	00 52       	mov	0, r10
    316c:	c5 bd       	br	30e4 <___swsetup_r+0x4c>
    316e:	3d 3f 31 00 	ld.w	48[r29], r7
    3172:	60 3a       	cmp	0, r7
    3174:	e2 0d       	be	3190 <___swsetup_r+0xf8>
    3176:	1d 5e 40 00 	addi	64, r29, r11
    317a:	eb 39       	cmp	r11, r7
    317c:	82 0d       	be	318c <___swsetup_r+0xf4>
    317e:	1c 30       	mov	r28, r6
    3180:	80 ff a0 1d 	jarl	4f20 <__free_r>, lp
    3184:	3d 57 0c 00 	ld.h	12[r29], r10
    3188:	d0 52       	shl	16, r10
    318a:	b0 52       	sar	16, r10
    318c:	7d 07 31 00 	st.w	r0, 48[r29]
    3190:	3d 5f 11 00 	ld.w	16[r29], r11
    3194:	20 66 db ff 	movea	-37, r0, r12
    3198:	4c 51       	and	r12, r10
    319a:	7d 07 05 00 	st.w	r0, 4[r29]
    319e:	7d 5f 01 00 	st.w	r11, 0[r29]
    31a2:	85 b5       	br	3102 <___swsetup_r+0x6a>
    31a4:	09 5a       	mov	9, r11
    31a6:	8a 56 40 00 	ori	64, r10, r10
    31aa:	7c 5f 01 00 	st.w	r11, 0[r28]
    31ae:	7d 57 0c 00 	st.h	r10, 12[r29]
    31b2:	1f 52       	mov	-1, r10
    31b4:	d5 9d       	br	30ee <___swsetup_r+0x56>
	...

000031b8 <___call_exitprocs>:
    31b8:	03 1e d0 ff 	addi	-48, sp, sp
    31bc:	63 af 21 00 	st.w	r21, 32[sp]
    31c0:	63 bf 19 00 	st.w	r23, 24[sp]
    31c4:	40 ae 00 00 	movhi	0, r0, r21
    31c8:	24 bf 85 fe 	ld.w	-380[gp], r23
    31cc:	63 b7 1d 00 	st.w	r22, 28[sp]
    31d0:	63 c7 15 00 	st.w	r24, 20[sp]
    31d4:	63 d7 0d 00 	st.w	r26, 12[sp]
    31d8:	06 b0       	mov	r6, r22
    31da:	07 d0       	mov	r7, r26
    31dc:	01 c2       	mov	1, r24
    31de:	35 ae 00 00 	movea	0, r21, r21
    31e2:	63 ff 2d 00 	st.w	lp, 44[sp]
    31e6:	63 17 29 00 	st.w	r2, 40[sp]
    31ea:	63 a7 25 00 	st.w	r20, 36[sp]
    31ee:	63 cf 11 00 	st.w	r25, 16[sp]
    31f2:	63 df 09 00 	st.w	r27, 8[sp]
    31f6:	63 e7 05 00 	st.w	r28, 4[sp]
    31fa:	63 ef 01 00 	st.w	r29, 0[sp]
    31fe:	37 cf 49 01 	ld.w	328[r23], r25
    3202:	17 16 48 01 	addi	328, r23, r2
    3206:	60 ca       	cmp	0, r25
    3208:	a2 4d       	be	329c <___call_exitprocs+0xe4>
    320a:	39 df 05 00 	ld.w	4[r25], r27
    320e:	1b ee ff ff 	addi	-1, r27, r29
    3212:	60 ea       	cmp	0, r29
    3214:	a6 45       	blt	3298 <___call_exitprocs+0xe0>
    3216:	1b 56 1f 00 	addi	31, r27, r10
    321a:	41 da       	add	1, r27
    321c:	19 e6 88 00 	addi	136, r25, r28
    3220:	c2 52       	shl	2, r10
    3222:	c2 da       	shl	2, r27
    3224:	ca e1       	add	r10, r28
    3226:	d9 d9       	add	r25, r27
    3228:	a5 0d       	br	323c <___call_exitprocs+0x84>
    322a:	3c 57 01 00 	ld.w	0[r28], r10
    322e:	fa 51       	cmp	r26, r10
    3230:	82 0d       	be	3240 <___call_exitprocs+0x88>
    3232:	5f ea       	add	-1, r29
    3234:	5c e2       	add	-4, r28
    3236:	5c da       	add	-4, r27
    3238:	7f ea       	cmp	-1, r29
    323a:	f2 2d       	be	3298 <___call_exitprocs+0xe0>
    323c:	60 d2       	cmp	0, r26
    323e:	ea f5       	bne	322a <___call_exitprocs+0x72>
    3240:	39 57 05 00 	ld.w	4[r25], r10
    3244:	3b 5f 01 00 	ld.w	0[r27], r11
    3248:	5f 52       	add	-1, r10
    324a:	fd 51       	cmp	r29, r10
    324c:	82 4d       	be	32dc <___call_exitprocs+0x124>
    324e:	7b 07 01 00 	st.w	r0, 0[r27]
    3252:	60 5a       	cmp	0, r11
    3254:	f2 ed       	be	3232 <___call_exitprocs+0x7a>
    3256:	39 57 89 01 	ld.w	392[r25], r10
    325a:	18 60       	mov	r24, r12
    325c:	fd 67 c0 00 	shl	r29, r12
    3260:	4c 51       	and	r12, r10
    3262:	39 a7 05 00 	ld.w	4[r25], r20
    3266:	e2 35       	be	32d2 <___call_exitprocs+0x11a>
    3268:	39 57 8d 01 	ld.w	396[r25], r10
    326c:	4c 51       	and	r12, r10
    326e:	aa 3d       	bne	32e2 <___call_exitprocs+0x12a>
    3270:	3c 3f 81 ff 	ld.w	-128[r28], r7
    3274:	16 30       	mov	r22, r6
    3276:	80 ff 04 00 	jarl	327a <___call_exitprocs+0xc2>, lp
    327a:	44 fa       	add	4, lp
    327c:	6b 00       	jmp	[r11]
    327e:	39 57 05 00 	ld.w	4[r25], r10
    3282:	f4 51       	cmp	r20, r10
    3284:	da bd       	bne	31fe <___call_exitprocs+0x46>
    3286:	22 57 01 00 	ld.w	0[r2], r10
    328a:	f9 51       	cmp	r25, r10
    328c:	9a bd       	bne	31fe <___call_exitprocs+0x46>
    328e:	5f ea       	add	-1, r29
    3290:	5c e2       	add	-4, r28
    3292:	5c da       	add	-4, r27
    3294:	7f ea       	cmp	-1, r29
    3296:	ba d5       	bne	323c <___call_exitprocs+0x84>
    3298:	60 aa       	cmp	0, r21
    329a:	ba 2d       	bne	32f0 <___call_exitprocs+0x138>
    329c:	23 ff 2d 00 	ld.w	44[sp], lp
    32a0:	23 17 29 00 	ld.w	40[sp], r2
    32a4:	23 a7 25 00 	ld.w	36[sp], r20
    32a8:	23 af 21 00 	ld.w	32[sp], r21
    32ac:	23 b7 1d 00 	ld.w	28[sp], r22
    32b0:	23 bf 19 00 	ld.w	24[sp], r23
    32b4:	23 c7 15 00 	ld.w	20[sp], r24
    32b8:	23 cf 11 00 	ld.w	16[sp], r25
    32bc:	23 d7 0d 00 	ld.w	12[sp], r26
    32c0:	23 df 09 00 	ld.w	8[sp], r27
    32c4:	23 e7 05 00 	ld.w	4[sp], r28
    32c8:	23 ef 01 00 	ld.w	0[sp], r29
    32cc:	03 1e 30 00 	addi	48, sp, sp
    32d0:	7f 00       	jmp	[lp]
    32d2:	80 ff 04 00 	jarl	32d6 <___call_exitprocs+0x11e>, lp
    32d6:	44 fa       	add	4, lp
    32d8:	6b 00       	jmp	[r11]
    32da:	a5 d5       	br	327e <___call_exitprocs+0xc6>
    32dc:	79 ef 05 00 	st.w	r29, 4[r25]
    32e0:	95 bd       	br	3252 <___call_exitprocs+0x9a>
    32e2:	3c 37 81 ff 	ld.w	-128[r28], r6
    32e6:	80 ff 04 00 	jarl	32ea <___call_exitprocs+0x132>, lp
    32ea:	44 fa       	add	4, lp
    32ec:	6b 00       	jmp	[r11]
    32ee:	85 cd       	br	327e <___call_exitprocs+0xc6>
    32f0:	39 57 05 00 	ld.w	4[r25], r10
    32f4:	60 52       	cmp	0, r10
    32f6:	8a 15       	bne	3316 <___call_exitprocs+0x15e>
    32f8:	39 57 01 00 	ld.w	0[r25], r10
    32fc:	60 52       	cmp	0, r10
    32fe:	a2 15       	be	3322 <___call_exitprocs+0x16a>
    3300:	19 30       	mov	r25, r6
    3302:	62 57 01 00 	st.w	r10, 0[r2]
    3306:	80 ff 04 00 	jarl	330a <___call_exitprocs+0x152>, lp
    330a:	44 fa       	add	4, lp
    330c:	75 00       	jmp	[r21]
    330e:	22 cf 01 00 	ld.w	0[r2], r25
    3312:	bf 07 f4 fe 	jr	3206 <___call_exitprocs+0x4e>
    3316:	39 57 01 00 	ld.w	0[r25], r10
    331a:	19 10       	mov	r25, r2
    331c:	0a c8       	mov	r10, r25
    331e:	bf 07 e8 fe 	jr	3206 <___call_exitprocs+0x4e>
    3322:	00 52       	mov	0, r10
    3324:	b5 fd       	br	331a <___call_exitprocs+0x162>
	...

00003328 <_quorem>:
    3328:	03 1e c8 ff 	addi	-56, sp, sp
    332c:	63 17 31 00 	st.w	r2, 48[sp]
    3330:	63 bf 21 00 	st.w	r23, 32[sp]
    3334:	63 ff 35 00 	st.w	lp, 52[sp]
    3338:	63 a7 2d 00 	st.w	r20, 44[sp]
    333c:	63 af 29 00 	st.w	r21, 40[sp]
    3340:	63 b7 25 00 	st.w	r22, 36[sp]
    3344:	63 c7 1d 00 	st.w	r24, 28[sp]
    3348:	63 cf 19 00 	st.w	r25, 24[sp]
    334c:	63 d7 15 00 	st.w	r26, 20[sp]
    3350:	63 df 11 00 	st.w	r27, 16[sp]
    3354:	63 e7 0d 00 	st.w	r28, 12[sp]
    3358:	63 ef 09 00 	st.w	r29, 8[sp]
    335c:	27 df 11 00 	ld.w	16[r7], r27
    3360:	26 57 11 00 	ld.w	16[r6], r10
    3364:	06 10       	mov	r6, r2
    3366:	07 b8       	mov	r7, r23
    3368:	ea d9       	cmp	r10, r27
    336a:	b7 05       	ble	3370 <_quorem+0x48>
    336c:	80 07 a4 01 	jr	3510 <_quorem+0x1e8>
    3370:	1b 56 04 00 	addi	4, r27, r10
    3374:	c2 52       	shl	2, r10
    3376:	07 c0       	mov	r7, r24
    3378:	ca c1       	add	r10, r24
    337a:	38 3f 01 00 	ld.w	0[r24], r7
    337e:	c6 51       	add	r6, r10
    3380:	2a 37 01 00 	ld.w	0[r10], r6
    3384:	41 3a       	add	1, r7
    3386:	80 ff 02 58 	jarl	8b88 <___udivsi3>, lp
    338a:	5f da       	add	-1, r27
    338c:	0a e0       	mov	r10, r28
    338e:	17 ee 14 00 	addi	20, r23, r29
    3392:	02 a6 14 00 	addi	20, r2, r20
    3396:	60 52       	cmp	0, r10
    3398:	f2 5d       	be	3456 <_quorem+0x12e>
    339a:	40 b6 01 00 	movhi	1, r0, r22
    339e:	1d c8       	mov	r29, r25
    33a0:	14 d0       	mov	r20, r26
    33a2:	00 5a       	mov	0, r11
    33a4:	00 6a       	mov	0, r13
    33a6:	36 b6 18 8b 	movea	-29928, r22, r22
    33aa:	39 af 01 00 	ld.w	0[r25], r21
    33ae:	1c 38       	mov	r28, r7
    33b0:	d5 36 ff ff 	andi	65535, r21, r6
    33b4:	63 6f 01 00 	st.w	r13, 0[sp]
    33b8:	63 5f 05 00 	st.w	r11, 4[sp]
    33bc:	80 ff 04 00 	jarl	33c0 <_quorem+0x98>, lp
    33c0:	44 fa       	add	4, lp
    33c2:	76 00       	jmp	[r22]
    33c4:	23 5f 05 00 	ld.w	4[sp], r11
    33c8:	15 30       	mov	r21, r6
    33ca:	90 32       	shr	16, r6
    33cc:	0b a8       	mov	r11, r21
    33ce:	1c 38       	mov	r28, r7
    33d0:	ca a9       	add	r10, r21
    33d2:	80 ff 04 00 	jarl	33d6 <_quorem+0xae>, lp
    33d6:	44 fa       	add	4, lp
    33d8:	76 00       	jmp	[r22]
    33da:	3a 67 01 00 	ld.w	0[r26], r12
    33de:	23 6f 01 00 	ld.w	0[sp], r13
    33e2:	15 70       	mov	r21, r14
    33e4:	cc 5e ff ff 	andi	65535, r12, r11
    33e8:	90 72       	shr	16, r14
    33ea:	ce 51       	add	r14, r10
    33ec:	cd 59       	add	r13, r11
    33ee:	d5 ae ff ff 	andi	65535, r21, r21
    33f2:	b5 59       	sub	r21, r11
    33f4:	ca 6e ff ff 	andi	65535, r10, r13
    33f8:	90 62       	shr	16, r12
    33fa:	ad 61       	sub	r13, r12
    33fc:	0b 68       	mov	r11, r13
    33fe:	b0 6a       	sar	16, r13
    3400:	cd 61       	add	r13, r12
    3402:	0c 68       	mov	r12, r13
    3404:	cb 5e ff ff 	andi	65535, r11, r11
    3408:	d0 6a       	shl	16, r13
    340a:	0b 69       	or	r11, r13
    340c:	7a 6f 01 00 	st.w	r13, 0[r26]
    3410:	0a 58       	mov	r10, r11
    3412:	0c 68       	mov	r12, r13
    3414:	44 ca       	add	4, r25
    3416:	90 5a       	shr	16, r11
    3418:	b0 6a       	sar	16, r13
    341a:	44 d2       	add	4, r26
    341c:	f9 c1       	cmp	r25, r24
    341e:	e9 c5       	bnl	33aa <_quorem+0x82>
    3420:	1b 5e 05 00 	addi	5, r27, r11
    3424:	c2 5a       	shl	2, r11
    3426:	c2 59       	add	r2, r11
    3428:	2b 57 01 00 	ld.w	0[r11], r10
    342c:	60 52       	cmp	0, r10
    342e:	ca 15       	bne	3456 <_quorem+0x12e>
    3430:	0b 56 fc ff 	addi	-4, r11, r10
    3434:	ea a1       	cmp	r10, r20
    3436:	e9 0d       	bnl	3452 <_quorem+0x12a>
    3438:	2b 5f fd ff 	ld.w	-4[r11], r11
    343c:	60 5a       	cmp	0, r11
    343e:	e2 05       	be	344a <_quorem+0x122>
    3440:	95 0d       	br	3452 <_quorem+0x12a>
    3442:	2a 5f 01 00 	ld.w	0[r10], r11
    3446:	60 5a       	cmp	0, r11
    3448:	da 05       	bne	3452 <_quorem+0x12a>
    344a:	5c 52       	add	-4, r10
    344c:	5f da       	add	-1, r27
    344e:	ea a1       	cmp	r10, r20
    3450:	91 fd       	bl	3442 <_quorem+0x11a>
    3452:	62 df 11 00 	st.w	r27, 16[r2]
    3456:	02 30       	mov	r2, r6
    3458:	17 38       	mov	r23, r7
    345a:	80 ff f2 2e 	jarl	634c <___mcmp>, lp
    345e:	60 52       	cmp	0, r10
    3460:	c6 3d       	blt	34d8 <_quorem+0x1b0>
    3462:	41 e2       	add	1, r28
    3464:	14 68       	mov	r20, r13
    3466:	00 52       	mov	0, r10
    3468:	2d 5f 01 00 	ld.w	0[r13], r11
    346c:	3d 77 01 00 	ld.w	0[r29], r14
    3470:	cb 66 ff ff 	andi	65535, r11, r12
    3474:	ca 61       	add	r10, r12
    3476:	ce 56 ff ff 	andi	65535, r14, r10
    347a:	aa 61       	sub	r10, r12
    347c:	90 72       	shr	16, r14
    347e:	0c 50       	mov	r12, r10
    3480:	90 5a       	shr	16, r11
    3482:	ae 59       	sub	r14, r11
    3484:	b0 52       	sar	16, r10
    3486:	ca 59       	add	r10, r11
    3488:	0b 70       	mov	r11, r14
    348a:	d0 72       	shl	16, r14
    348c:	cc 66 ff ff 	andi	65535, r12, r12
    3490:	0c 71       	or	r12, r14
    3492:	6d 77 01 00 	st.w	r14, 0[r13]
    3496:	0b 50       	mov	r11, r10
    3498:	44 ea       	add	4, r29
    349a:	b0 52       	sar	16, r10
    349c:	44 6a       	add	4, r13
    349e:	fd c1       	cmp	r29, r24
    34a0:	c9 e5       	bnl	3468 <_quorem+0x140>
    34a2:	1b 56 05 00 	addi	5, r27, r10
    34a6:	c2 52       	shl	2, r10
    34a8:	c2 51       	add	r2, r10
    34aa:	2a 5f 01 00 	ld.w	0[r10], r11
    34ae:	60 5a       	cmp	0, r11
    34b0:	ca 15       	bne	34d8 <_quorem+0x1b0>
    34b2:	0a 5e fc ff 	addi	-4, r10, r11
    34b6:	eb a1       	cmp	r11, r20
    34b8:	e9 0d       	bnl	34d4 <_quorem+0x1ac>
    34ba:	2a 57 fd ff 	ld.w	-4[r10], r10
    34be:	60 52       	cmp	0, r10
    34c0:	e2 05       	be	34cc <_quorem+0x1a4>
    34c2:	95 0d       	br	34d4 <_quorem+0x1ac>
    34c4:	2b 57 01 00 	ld.w	0[r11], r10
    34c8:	60 52       	cmp	0, r10
    34ca:	da 05       	bne	34d4 <_quorem+0x1ac>
    34cc:	5c 5a       	add	-4, r11
    34ce:	5f da       	add	-1, r27
    34d0:	eb a1       	cmp	r11, r20
    34d2:	91 fd       	bl	34c4 <_quorem+0x19c>
    34d4:	62 df 11 00 	st.w	r27, 16[r2]
    34d8:	1c 50       	mov	r28, r10
    34da:	23 ff 35 00 	ld.w	52[sp], lp
    34de:	23 17 31 00 	ld.w	48[sp], r2
    34e2:	23 a7 2d 00 	ld.w	44[sp], r20
    34e6:	23 af 29 00 	ld.w	40[sp], r21
    34ea:	23 b7 25 00 	ld.w	36[sp], r22
    34ee:	23 bf 21 00 	ld.w	32[sp], r23
    34f2:	23 c7 1d 00 	ld.w	28[sp], r24
    34f6:	23 cf 19 00 	ld.w	24[sp], r25
    34fa:	23 d7 15 00 	ld.w	20[sp], r26
    34fe:	23 df 11 00 	ld.w	16[sp], r27
    3502:	23 e7 0d 00 	ld.w	12[sp], r28
    3506:	23 ef 09 00 	ld.w	8[sp], r29
    350a:	03 1e 38 00 	addi	56, sp, sp
    350e:	7f 00       	jmp	[lp]
    3510:	00 52       	mov	0, r10
    3512:	c5 e5       	br	34da <_quorem+0x1b2>

00003514 <__dtoa_r>:
    3514:	03 1e 70 ff 	addi	-144, sp, sp
    3518:	63 17 89 00 	st.w	r2, 136[sp]
    351c:	63 bf 79 00 	st.w	r23, 120[sp]
    3520:	63 df 69 00 	st.w	r27, 104[sp]
    3524:	63 e7 65 00 	st.w	r28, 100[sp]
    3528:	63 ef 61 00 	st.w	r29, 96[sp]
    352c:	63 ff 8d 00 	st.w	lp, 140[sp]
    3530:	63 a7 85 00 	st.w	r20, 132[sp]
    3534:	63 af 81 00 	st.w	r21, 128[sp]
    3538:	63 b7 7d 00 	st.w	r22, 124[sp]
    353c:	63 c7 75 00 	st.w	r24, 116[sp]
    3540:	63 cf 71 00 	st.w	r25, 112[sp]
    3544:	63 d7 6d 00 	st.w	r26, 108[sp]
    3548:	26 57 41 00 	ld.w	64[r6], r10
    354c:	06 10       	mov	r6, r2
    354e:	09 e8       	mov	r9, r29
    3550:	08 b8       	mov	r8, r23
    3552:	23 df 9d 00 	ld.w	156[sp], r27
    3556:	09 e0       	mov	r9, r28
    3558:	60 52       	cmp	0, r10
    355a:	f2 0d       	be	3578 <__dtoa_r+0x64>
    355c:	26 67 45 00 	ld.w	68[r6], r12
    3560:	01 5a       	mov	1, r11
    3562:	ec 5f c0 00 	shl	r12, r11
    3566:	0a 38       	mov	r10, r7
    3568:	6a 67 05 00 	st.w	r12, 4[r10]
    356c:	6a 5f 09 00 	st.w	r11, 8[r10]
    3570:	80 ff 30 27 	jarl	5ca0 <__Bfree>, lp
    3574:	62 07 41 00 	st.w	r0, 64[r2]
    3578:	60 ea       	cmp	0, r29
    357a:	a6 65       	blt	363e <__dtoa_r+0x12a>
    357c:	7b 07 01 00 	st.w	r0, 0[r27]
    3580:	40 5e f0 7f 	movhi	32752, r0, r11
    3584:	5d 59       	and	r29, r11
    3586:	40 56 f0 7f 	movhi	32752, r0, r10
    358a:	ea 59       	cmp	r10, r11
    358c:	a2 3d       	be	3600 <__dtoa_r+0xec>
    358e:	17 30       	mov	r23, r6
    3590:	1c 38       	mov	r28, r7
    3592:	00 42       	mov	0, r8
    3594:	00 4a       	mov	0, r9
    3596:	80 ff 76 60 	jarl	960c <___eqdf2>, lp
    359a:	60 52       	cmp	0, r10
    359c:	ba 5d       	bne	3652 <__dtoa_r+0x13e>
    359e:	23 67 99 00 	ld.w	152[sp], r12
    35a2:	01 52       	mov	1, r10
    35a4:	6c 57 01 00 	st.w	r10, 0[r12]
    35a8:	23 67 a1 00 	ld.w	160[sp], r12
    35ac:	60 62       	cmp	0, r12
    35ae:	ba 05       	bne	35b4 <__dtoa_r+0xa0>
    35b0:	80 07 aa 02 	jr	385a <__dtoa_r+0x346>
    35b4:	40 56 01 00 	movhi	1, r0, r10
    35b8:	2a 56 dc 9f 	movea	-24612, r10, r10
    35bc:	6c 57 01 00 	st.w	r10, 0[r12]
    35c0:	40 56 01 00 	movhi	1, r0, r10
    35c4:	2a a6 db 9f 	movea	-24613, r10, r20
    35c8:	23 ff 8d 00 	ld.w	140[sp], lp
    35cc:	14 50       	mov	r20, r10
    35ce:	23 17 89 00 	ld.w	136[sp], r2
    35d2:	23 a7 85 00 	ld.w	132[sp], r20
    35d6:	23 af 81 00 	ld.w	128[sp], r21
    35da:	23 b7 7d 00 	ld.w	124[sp], r22
    35de:	23 bf 79 00 	ld.w	120[sp], r23
    35e2:	23 c7 75 00 	ld.w	116[sp], r24
    35e6:	23 cf 71 00 	ld.w	112[sp], r25
    35ea:	23 d7 6d 00 	ld.w	108[sp], r26
    35ee:	23 df 69 00 	ld.w	104[sp], r27
    35f2:	23 e7 65 00 	ld.w	100[sp], r28
    35f6:	23 ef 61 00 	ld.w	96[sp], r29
    35fa:	03 1e 90 00 	addi	144, sp, sp
    35fe:	7f 00       	jmp	[lp]
    3600:	23 67 99 00 	ld.w	152[sp], r12
    3604:	20 56 0f 27 	movea	9999, r0, r10
    3608:	6c 57 01 00 	st.w	r10, 0[r12]
    360c:	60 ba       	cmp	0, r23
    360e:	ba 05       	bne	3614 <__dtoa_r+0x100>
    3610:	80 07 04 02 	jr	3814 <__dtoa_r+0x300>
    3614:	40 56 01 00 	movhi	1, r0, r10
    3618:	2a a6 d7 9f 	movea	-24617, r10, r20
    361c:	23 67 a1 00 	ld.w	160[sp], r12
    3620:	60 62       	cmp	0, r12
    3622:	b2 d5       	be	35c8 <__dtoa_r+0xb4>
    3624:	14 57 03 00 	ld.b	3[r20], r10
    3628:	d8 52       	shl	24, r10
    362a:	b2 05       	be	3630 <__dtoa_r+0x11c>
    362c:	80 07 04 02 	jr	3830 <__dtoa_r+0x31c>
    3630:	14 56 03 00 	addi	3, r20, r10
    3634:	23 67 a1 00 	ld.w	160[sp], r12
    3638:	6c 57 01 00 	st.w	r10, 0[r12]
    363c:	e5 c5       	br	35c8 <__dtoa_r+0xb4>
    363e:	40 56 00 80 	movhi	-32768, r0, r10
    3642:	2a 56 ff ff 	movea	-1, r10, r10
    3646:	4a e9       	and	r10, r29
    3648:	01 52       	mov	1, r10
    364a:	7b 57 01 00 	st.w	r10, 0[r27]
    364e:	1d e0       	mov	r29, r28
    3650:	85 9d       	br	3580 <__dtoa_r+0x6c>
    3652:	1d c8       	mov	r29, r25
    3654:	03 5e 5c 00 	addi	92, sp, r11
    3658:	03 56 58 00 	addi	88, sp, r10
    365c:	02 30       	mov	r2, r6
    365e:	17 40       	mov	r23, r8
    3660:	1c 48       	mov	r28, r9
    3662:	94 ca       	shr	20, r25
    3664:	63 5f 01 00 	st.w	r11, 0[sp]
    3668:	63 57 05 00 	st.w	r10, 4[sp]
    366c:	d9 ce ff 07 	andi	2047, r25, r25
    3670:	80 ff 4c 2f 	jarl	65bc <___d2b>, lp
    3674:	0a a8       	mov	r10, r21
    3676:	60 ca       	cmp	0, r25
    3678:	b2 05       	be	367e <__dtoa_r+0x16a>
    367a:	80 07 be 01 	jr	3838 <__dtoa_r+0x324>
    367e:	23 c7 59 00 	ld.w	88[sp], r24
    3682:	23 cf 5d 00 	ld.w	92[sp], r25
    3686:	20 56 ef fb 	movea	-1041, r0, r10
    368a:	d8 c9       	add	r24, r25
    368c:	ea c9       	cmp	r10, r25
    368e:	be 05       	bge	3694 <__dtoa_r+0x180>
    3690:	80 07 7a 07 	jr	3e0a <__dtoa_r+0x8f6>
    3694:	20 56 0e fc 	movea	-1010, r0, r10
    3698:	b9 51       	sub	r25, r10
    369a:	1d 30       	mov	r29, r6
    369c:	ea 37 c0 00 	shl	r10, r6
    36a0:	19 5e 12 04 	addi	1042, r25, r11
    36a4:	17 50       	mov	r23, r10
    36a6:	eb 57 80 00 	shr	r11, r10
    36aa:	0a 31       	or	r10, r6
    36ac:	80 ff f8 62 	jarl	99a4 <___floatunsidf>, lp
    36b0:	40 3e 10 fe 	movhi	-496, r0, r7
    36b4:	01 62       	mov	1, r12
    36b6:	0a 30       	mov	r10, r6
    36b8:	cb 39       	add	r11, r7
    36ba:	5f ca       	add	-1, r25
    36bc:	63 67 45 00 	st.w	r12, 68[sp]
    36c0:	00 42       	mov	0, r8
    36c2:	40 4e f8 3f 	movhi	16376, r0, r9
    36c6:	80 ff d6 5a 	jarl	919c <___subdf3>, lp
    36ca:	40 ee 01 00 	movhi	1, r0, r29
    36ce:	40 46 6f 63 	movhi	25455, r0, r8
    36d2:	40 4e d3 3f 	movhi	16339, r0, r9
    36d6:	3d ee 10 92 	movea	-28144, r29, r29
    36da:	0a 30       	mov	r10, r6
    36dc:	0b 38       	mov	r11, r7
    36de:	28 46 61 43 	movea	17249, r8, r8
    36e2:	29 4e a7 87 	movea	-30809, r9, r9
    36e6:	80 ff 04 00 	jarl	36ea <__dtoa_r+0x1d6>, lp
    36ea:	44 fa       	add	4, lp
    36ec:	7d 00       	jmp	[r29]
    36ee:	40 46 61 8b 	movhi	-29855, r0, r8
    36f2:	40 4e c7 3f 	movhi	16327, r0, r9
    36f6:	0b 38       	mov	r11, r7
    36f8:	28 46 b3 c8 	movea	-14157, r8, r8
    36fc:	29 4e 28 8a 	movea	-30168, r9, r9
    3700:	0a 30       	mov	r10, r6
    3702:	80 ff 32 5a 	jarl	9134 <___adddf3>, lp
    3706:	19 30       	mov	r25, r6
    3708:	0a d0       	mov	r10, r26
    370a:	0b d8       	mov	r11, r27
    370c:	80 ff 44 61 	jarl	9850 <___floatsidf>, lp
    3710:	40 46 9f 50 	movhi	20639, r0, r8
    3714:	40 4e d3 3f 	movhi	16339, r0, r9
    3718:	0a 30       	mov	r10, r6
    371a:	0b 38       	mov	r11, r7
    371c:	28 46 fb 79 	movea	31227, r8, r8
    3720:	29 4e 13 44 	movea	17427, r9, r9
    3724:	80 ff 04 00 	jarl	3728 <__dtoa_r+0x214>, lp
    3728:	44 fa       	add	4, lp
    372a:	7d 00       	jmp	[r29]
    372c:	1a 30       	mov	r26, r6
    372e:	1b 38       	mov	r27, r7
    3730:	0a 40       	mov	r10, r8
    3732:	0b 48       	mov	r11, r9
    3734:	80 ff 00 5a 	jarl	9134 <___adddf3>, lp
    3738:	0a 30       	mov	r10, r6
    373a:	0b 38       	mov	r11, r7
    373c:	0a d0       	mov	r10, r26
    373e:	0b d8       	mov	r11, r27
    3740:	80 ff bc 61 	jarl	98fc <___fixdfsi>, lp
    3744:	1a 30       	mov	r26, r6
    3746:	1b 38       	mov	r27, r7
    3748:	00 42       	mov	0, r8
    374a:	00 4a       	mov	0, r9
    374c:	63 57 19 00 	st.w	r10, 24[sp]
    3750:	80 ff 8c 60 	jarl	97dc <___ltdf2>, lp
    3754:	60 52       	cmp	0, r10
    3756:	be 05       	bge	375c <__dtoa_r+0x248>
    3758:	80 07 dc 03 	jr	3b34 <__dtoa_r+0x620>
    375c:	23 67 19 00 	ld.w	24[sp], r12
    3760:	20 56 16 00 	movea	22, r0, r10
    3764:	ea 61       	cmp	r10, r12
    3766:	b3 05       	bnh	376c <__dtoa_r+0x258>
    3768:	80 07 98 03 	jr	3b00 <__dtoa_r+0x5ec>
    376c:	0c 50       	mov	r12, r10
    376e:	40 5e 01 00 	movhi	1, r0, r11
    3772:	c3 52       	shl	3, r10
    3774:	2b 5e 38 a0 	movea	-24520, r11, r11
    3778:	cb 51       	add	r11, r10
    377a:	2a 37 01 00 	ld.w	0[r10], r6
    377e:	2a 3f 05 00 	ld.w	4[r10], r7
    3782:	17 40       	mov	r23, r8
    3784:	1c 48       	mov	r28, r9
    3786:	80 ff 6e 5f 	jarl	96f4 <___gtdf2>, lp
    378a:	60 52       	cmp	0, r10
    378c:	bf 05       	bgt	3792 <__dtoa_r+0x27e>
    378e:	80 07 8c 06 	jr	3e1a <__dtoa_r+0x906>
    3792:	23 67 19 00 	ld.w	24[sp], r12
    3796:	63 07 3d 00 	st.w	r0, 60[sp]
    379a:	5f 62       	add	-1, r12
    379c:	63 67 19 00 	st.w	r12, 24[sp]
    37a0:	98 c9       	subr	r24, r25
    37a2:	5f ca       	add	-1, r25
    37a4:	60 ca       	cmp	0, r25
    37a6:	be 05       	bge	37ac <__dtoa_r+0x298>
    37a8:	80 07 7e 03 	jr	3b26 <__dtoa_r+0x612>
    37ac:	63 07 21 00 	st.w	r0, 32[sp]
    37b0:	63 cf 1d 00 	st.w	r25, 28[sp]
    37b4:	23 67 19 00 	ld.w	24[sp], r12
    37b8:	60 62       	cmp	0, r12
    37ba:	be 05       	bge	37c0 <__dtoa_r+0x2ac>
    37bc:	80 07 4e 03 	jr	3b0a <__dtoa_r+0x5f6>
    37c0:	23 57 1d 00 	ld.w	28[sp], r10
    37c4:	63 07 2d 00 	st.w	r0, 44[sp]
    37c8:	cc 51       	add	r12, r10
    37ca:	63 57 1d 00 	st.w	r10, 28[sp]
    37ce:	63 67 31 00 	st.w	r12, 48[sp]
    37d2:	23 67 91 00 	ld.w	144[sp], r12
    37d6:	69 62       	cmp	9, r12
    37d8:	fb 45       	bh	3866 <__dtoa_r+0x352>
    37da:	65 62       	cmp	5, r12
    37dc:	bf 05       	bgt	37e2 <__dtoa_r+0x2ce>
    37de:	80 07 88 11 	jr	4966 <__dtoa_r+0x1452>
    37e2:	5c 62       	add	-4, r12
    37e4:	00 d2       	mov	0, r26
    37e6:	63 67 91 00 	st.w	r12, 144[sp]
    37ea:	23 57 91 00 	ld.w	144[sp], r10
    37ee:	5e 52       	add	-2, r10
    37f0:	63 52       	cmp	3, r10
    37f2:	cb 3d       	bh	386a <__dtoa_r+0x356>
    37f4:	40 5e 00 00 	movhi	0, r0, r11
    37f8:	2b 5e 0c 38 	movea	14348, r11, r11
    37fc:	c1 52       	shl	1, r10
    37fe:	cb 51       	add	r11, r10
    3800:	2a 57 00 00 	ld.h	0[r10], r10
    3804:	d0 52       	shl	16, r10
    3806:	b0 52       	sar	16, r10
    3808:	cb 51       	add	r11, r10
    380a:	6a 00       	jmp	[r10]
    380c:	1c 0b       	sld.b	28[ep], r1
    380e:	12 08       	mov	r18, r1
    3810:	36 0b       	sld.b	54[ep], r1
    3812:	3e 0b       	sld.b	62[ep], r1
    3814:	40 56 10 00 	movhi	16, r0, r10
    3818:	2a 56 ff ff 	movea	-1, r10, r10
    381c:	4a e9       	and	r10, r29
    381e:	b2 05       	be	3824 <__dtoa_r+0x310>
    3820:	bf 07 f4 fd 	jr	3614 <__dtoa_r+0x100>
    3824:	40 56 01 00 	movhi	1, r0, r10
    3828:	2a a6 ce 9f 	movea	-24626, r10, r20
    382c:	bf 07 f0 fd 	jr	361c <__dtoa_r+0x108>
    3830:	14 56 08 00 	addi	8, r20, r10
    3834:	bf 07 00 fe 	jr	3634 <__dtoa_r+0x120>
    3838:	40 3e 10 00 	movhi	16, r0, r7
    383c:	27 3e ff ff 	movea	-1, r7, r7
    3840:	5c 39       	and	r28, r7
    3842:	40 56 f0 3f 	movhi	16368, r0, r10
    3846:	17 30       	mov	r23, r6
    3848:	0a 39       	or	r10, r7
    384a:	19 ce 01 fc 	addi	-1023, r25, r25
    384e:	23 c7 59 00 	ld.w	88[sp], r24
    3852:	63 07 45 00 	st.w	r0, 68[sp]
    3856:	bf 07 6a fe 	jr	36c0 <__dtoa_r+0x1ac>
    385a:	40 56 01 00 	movhi	1, r0, r10
    385e:	2a a6 db 9f 	movea	-24613, r10, r20
    3862:	bf 07 66 fd 	jr	35c8 <__dtoa_r+0xb4>
    3866:	63 07 91 00 	st.w	r0, 144[sp]
    386a:	40 56 00 00 	movhi	0, r0, r10
    386e:	2a 56 28 5c 	movea	23592, r10, r10
    3872:	62 07 45 00 	st.w	r0, 68[r2]
    3876:	02 30       	mov	r2, r6
    3878:	00 3a       	mov	0, r7
    387a:	63 57 39 00 	st.w	r10, 56[sp]
    387e:	80 ff 04 00 	jarl	3882 <__dtoa_r+0x36e>, lp
    3882:	44 fa       	add	4, lp
    3884:	6a 00       	jmp	[r10]
    3886:	1f 62       	mov	-1, r12
    3888:	63 67 25 00 	st.w	r12, 36[sp]
    388c:	63 67 41 00 	st.w	r12, 64[sp]
    3890:	0a a0       	mov	r10, r20
    3892:	01 62       	mov	1, r12
    3894:	63 07 95 00 	st.w	r0, 148[sp]
    3898:	62 57 41 00 	st.w	r10, 64[r2]
    389c:	63 67 35 00 	st.w	r12, 52[sp]
    38a0:	23 57 5d 00 	ld.w	92[sp], r10
    38a4:	60 52       	cmp	0, r10
    38a6:	be 05       	bge	38ac <__dtoa_r+0x398>
    38a8:	80 07 ee 01 	jr	3a96 <__dtoa_r+0x582>
    38ac:	23 67 19 00 	ld.w	24[sp], r12
    38b0:	6e 62       	cmp	14, r12
    38b2:	b7 05       	ble	38b8 <__dtoa_r+0x3a4>
    38b4:	80 07 e2 01 	jr	3a96 <__dtoa_r+0x582>
    38b8:	0c 50       	mov	r12, r10
    38ba:	40 5e 01 00 	movhi	1, r0, r11
    38be:	c3 52       	shl	3, r10
    38c0:	2b 5e 38 a0 	movea	-24520, r11, r11
    38c4:	23 67 95 00 	ld.w	148[sp], r12
    38c8:	cb 51       	add	r11, r10
    38ca:	2a df 01 00 	ld.w	0[r10], r27
    38ce:	2a d7 05 00 	ld.w	4[r10], r26
    38d2:	60 62       	cmp	0, r12
    38d4:	be 05       	bge	38da <__dtoa_r+0x3c6>
    38d6:	80 07 c4 06 	jr	3f9a <__dtoa_r+0xa86>
    38da:	40 ce 01 00 	movhi	1, r0, r25
    38de:	1b 40       	mov	r27, r8
    38e0:	1a 48       	mov	r26, r9
    38e2:	39 ce 84 94 	movea	-27516, r25, r25
    38e6:	17 30       	mov	r23, r6
    38e8:	1c 38       	mov	r28, r7
    38ea:	63 cf 29 00 	st.w	r25, 40[sp]
    38ee:	80 ff 04 00 	jarl	38f2 <__dtoa_r+0x3de>, lp
    38f2:	44 fa       	add	4, lp
    38f4:	79 00       	jmp	[r25]
    38f6:	0b 38       	mov	r11, r7
    38f8:	0a 30       	mov	r10, r6
    38fa:	80 ff 02 60 	jarl	98fc <___fixdfsi>, lp
    38fe:	0a 30       	mov	r10, r6
    3900:	0a b0       	mov	r10, r22
    3902:	80 ff 4e 5f 	jarl	9850 <___floatsidf>, lp
    3906:	0a 30       	mov	r10, r6
    3908:	0b 38       	mov	r11, r7
    390a:	1b 40       	mov	r27, r8
    390c:	1a 48       	mov	r26, r9
    390e:	80 ff 04 00 	jarl	3912 <__dtoa_r+0x3fe>, lp
    3912:	44 fa       	add	4, lp
    3914:	7d 00       	jmp	[r29]
    3916:	17 30       	mov	r23, r6
    3918:	1c 38       	mov	r28, r7
    391a:	0a 40       	mov	r10, r8
    391c:	0b 48       	mov	r11, r9
    391e:	80 ff 7e 58 	jarl	919c <___subdf3>, lp
    3922:	16 66 30 00 	addi	48, r22, r12
    3926:	54 67 00 00 	st.b	r12, 0[r20]
    392a:	23 67 25 00 	ld.w	36[sp], r12
    392e:	0a 30       	mov	r10, r6
    3930:	0b 38       	mov	r11, r7
    3932:	14 ce 01 00 	addi	1, r20, r25
    3936:	61 62       	cmp	1, r12
    3938:	e2 65       	be	3a04 <__dtoa_r+0x4f0>
    393a:	00 42       	mov	0, r8
    393c:	40 4e 24 40 	movhi	16420, r0, r9
    3940:	0a 30       	mov	r10, r6
    3942:	0b 38       	mov	r11, r7
    3944:	80 ff 04 00 	jarl	3948 <__dtoa_r+0x434>, lp
    3948:	44 fa       	add	4, lp
    394a:	7d 00       	jmp	[r29]
    394c:	0a 30       	mov	r10, r6
    394e:	0b 38       	mov	r11, r7
    3950:	00 42       	mov	0, r8
    3952:	00 4a       	mov	0, r9
    3954:	0a c0       	mov	r10, r24
    3956:	0b b8       	mov	r11, r23
    3958:	80 ff b4 5c 	jarl	960c <___eqdf2>, lp
    395c:	60 52       	cmp	0, r10
    395e:	ba 05       	bne	3964 <__dtoa_r+0x450>
    3960:	80 07 bc 09 	jr	431c <__dtoa_r+0xe08>
    3964:	23 b7 25 00 	ld.w	36[sp], r22
    3968:	63 af 11 00 	st.w	r21, 16[sp]
    396c:	14 e6 02 00 	addi	2, r20, r28
    3970:	17 a8       	mov	r23, r21
    3972:	d4 b1       	add	r20, r22
    3974:	63 a7 15 00 	st.w	r20, 20[sp]
    3978:	23 bf 29 00 	ld.w	40[sp], r23
    397c:	85 1d       	br	39ac <__dtoa_r+0x498>
    397e:	0a 30       	mov	r10, r6
    3980:	0b 38       	mov	r11, r7
    3982:	00 42       	mov	0, r8
    3984:	40 4e 24 40 	movhi	16420, r0, r9
    3988:	80 ff 04 00 	jarl	398c <__dtoa_r+0x478>, lp
    398c:	44 fa       	add	4, lp
    398e:	7d 00       	jmp	[r29]
    3990:	0a 30       	mov	r10, r6
    3992:	0b 38       	mov	r11, r7
    3994:	00 42       	mov	0, r8
    3996:	00 4a       	mov	0, r9
    3998:	0a c0       	mov	r10, r24
    399a:	0b a8       	mov	r11, r21
    399c:	19 e6 01 00 	addi	1, r25, r28
    39a0:	80 ff 6c 5c 	jarl	960c <___eqdf2>, lp
    39a4:	60 52       	cmp	0, r10
    39a6:	ba 05       	bne	39ac <__dtoa_r+0x498>
    39a8:	80 07 0e 0b 	jr	44b6 <__dtoa_r+0xfa2>
    39ac:	1b 40       	mov	r27, r8
    39ae:	1a 48       	mov	r26, r9
    39b0:	18 30       	mov	r24, r6
    39b2:	15 38       	mov	r21, r7
    39b4:	80 ff 04 00 	jarl	39b8 <__dtoa_r+0x4a4>, lp
    39b8:	44 fa       	add	4, lp
    39ba:	77 00       	jmp	[r23]
    39bc:	0b 38       	mov	r11, r7
    39be:	0a 30       	mov	r10, r6
    39c0:	80 ff 3c 5f 	jarl	98fc <___fixdfsi>, lp
    39c4:	0a 30       	mov	r10, r6
    39c6:	0a a0       	mov	r10, r20
    39c8:	80 ff 88 5e 	jarl	9850 <___floatsidf>, lp
    39cc:	0a 30       	mov	r10, r6
    39ce:	0b 38       	mov	r11, r7
    39d0:	1b 40       	mov	r27, r8
    39d2:	1a 48       	mov	r26, r9
    39d4:	80 ff 04 00 	jarl	39d8 <__dtoa_r+0x4c4>, lp
    39d8:	44 fa       	add	4, lp
    39da:	7d 00       	jmp	[r29]
    39dc:	18 30       	mov	r24, r6
    39de:	15 38       	mov	r21, r7
    39e0:	0a 40       	mov	r10, r8
    39e2:	0b 48       	mov	r11, r9
    39e4:	80 ff b8 57 	jarl	919c <___subdf3>, lp
    39e8:	14 66 30 00 	addi	48, r20, r12
    39ec:	5c 67 ff ff 	st.b	r12, -1[r28]
    39f0:	1c c8       	mov	r28, r25
    39f2:	0a 30       	mov	r10, r6
    39f4:	0b 38       	mov	r11, r7
    39f6:	f6 e1       	cmp	r22, r28
    39f8:	ba c5       	bne	397e <__dtoa_r+0x46a>
    39fa:	14 b0       	mov	r20, r22
    39fc:	23 af 11 00 	ld.w	16[sp], r21
    3a00:	23 a7 15 00 	ld.w	20[sp], r20
    3a04:	06 40       	mov	r6, r8
    3a06:	07 48       	mov	r7, r9
    3a08:	80 ff 2c 57 	jarl	9134 <___adddf3>, lp
    3a0c:	1b 30       	mov	r27, r6
    3a0e:	1a 38       	mov	r26, r7
    3a10:	0a 40       	mov	r10, r8
    3a12:	0b 48       	mov	r11, r9
    3a14:	0a e8       	mov	r10, r29
    3a16:	0b e0       	mov	r11, r28
    3a18:	80 ff c4 5d 	jarl	97dc <___ltdf2>, lp
    3a1c:	60 52       	cmp	0, r10
    3a1e:	86 15       	blt	3a3e <__dtoa_r+0x52a>
    3a20:	1b 30       	mov	r27, r6
    3a22:	1a 38       	mov	r26, r7
    3a24:	1d 40       	mov	r29, r8
    3a26:	1c 48       	mov	r28, r9
    3a28:	80 ff e4 5b 	jarl	960c <___eqdf2>, lp
    3a2c:	60 52       	cmp	0, r10
    3a2e:	b2 05       	be	3a34 <__dtoa_r+0x520>
    3a30:	80 07 ec 08 	jr	431c <__dtoa_r+0xe08>
    3a34:	d6 b6 01 00 	andi	1, r22, r22
    3a38:	ba 05       	bne	3a3e <__dtoa_r+0x52a>
    3a3a:	80 07 e2 08 	jr	431c <__dtoa_r+0xe08>
    3a3e:	19 6f ff ff 	ld.b	-1[r25], r13
    3a42:	0d b0       	mov	r13, r22
    3a44:	d8 b2       	shl	24, r22
    3a46:	b8 b2       	sar	24, r22
    3a48:	19 5e fe ff 	addi	-2, r25, r11
    3a4c:	20 76 39 00 	movea	57, r0, r14
    3a50:	f5 05       	br	3a5e <__dtoa_r+0x54a>
    3a52:	0b b7 00 00 	ld.b	0[r11], r22
    3a56:	0a c8       	mov	r10, r25
    3a58:	d8 b2       	shl	24, r22
    3a5a:	b8 b2       	sar	24, r22
    3a5c:	5f 5a       	add	-1, r11
    3a5e:	19 56 ff ff 	addi	-1, r25, r10
    3a62:	ee b1       	cmp	r14, r22
    3a64:	b2 05       	be	3a6a <__dtoa_r+0x556>
    3a66:	80 07 92 0d 	jr	47f8 <__dtoa_r+0x12e4>
    3a6a:	ea a1       	cmp	r10, r20
    3a6c:	ba f5       	bne	3a52 <__dtoa_r+0x53e>
    3a6e:	23 67 19 00 	ld.w	24[sp], r12
    3a72:	20 56 30 00 	movea	48, r0, r10
    3a76:	41 62       	add	1, r12
    3a78:	54 57 00 00 	st.b	r10, 0[r20]
    3a7c:	20 6e 31 00 	movea	49, r0, r13
    3a80:	14 50       	mov	r20, r10
    3a82:	63 67 19 00 	st.w	r12, 24[sp]
    3a86:	40 c6 00 00 	movhi	0, r0, r24
    3a8a:	4a 6f 00 00 	st.b	r13, 0[r10]
    3a8e:	38 c6 a0 5c 	movea	23712, r24, r24
    3a92:	80 07 86 04 	jr	3f18 <__dtoa_r+0xa04>
    3a96:	23 67 35 00 	ld.w	52[sp], r12
    3a9a:	60 62       	cmp	0, r12
    3a9c:	92 65       	be	3b5e <__dtoa_r+0x64a>
    3a9e:	23 67 91 00 	ld.w	144[sp], r12
    3aa2:	61 62       	cmp	1, r12
    3aa4:	bf 05       	bgt	3aaa <__dtoa_r+0x596>
    3aa6:	80 07 5c 05 	jr	4002 <__dtoa_r+0xaee>
    3aaa:	23 d7 25 00 	ld.w	36[sp], r26
    3aae:	23 67 2d 00 	ld.w	44[sp], r12
    3ab2:	5f d2       	add	-1, r26
    3ab4:	fa 61       	cmp	r26, r12
    3ab6:	be 05       	bge	3abc <__dtoa_r+0x5a8>
    3ab8:	80 07 8e 0a 	jr	4546 <__dtoa_r+0x1032>
    3abc:	8c d1       	subr	r12, r26
    3abe:	23 67 25 00 	ld.w	36[sp], r12
    3ac2:	23 ef 21 00 	ld.w	32[sp], r29
    3ac6:	60 62       	cmp	0, r12
    3ac8:	be 05       	bge	3ace <__dtoa_r+0x5ba>
    3aca:	80 07 20 0d 	jr	47ea <__dtoa_r+0x12d6>
    3ace:	23 57 25 00 	ld.w	36[sp], r10
    3ad2:	23 67 21 00 	ld.w	32[sp], r12
    3ad6:	40 de 00 00 	movhi	0, r0, r27
    3ada:	ca 61       	add	r10, r12
    3adc:	63 67 21 00 	st.w	r12, 32[sp]
    3ae0:	23 67 1d 00 	ld.w	28[sp], r12
    3ae4:	02 30       	mov	r2, r6
    3ae6:	ca 61       	add	r10, r12
    3ae8:	01 3a       	mov	1, r7
    3aea:	3b de 44 5f 	movea	24388, r27, r27
    3aee:	63 67 1d 00 	st.w	r12, 28[sp]
    3af2:	80 ff 04 00 	jarl	3af6 <__dtoa_r+0x5e2>, lp
    3af6:	44 fa       	add	4, lp
    3af8:	7b 00       	jmp	[r27]
    3afa:	63 57 29 00 	st.w	r10, 40[sp]
    3afe:	a5 3d       	br	3b72 <__dtoa_r+0x65e>
    3b00:	01 62       	mov	1, r12
    3b02:	63 67 3d 00 	st.w	r12, 60[sp]
    3b06:	bf 07 9a fc 	jr	37a0 <__dtoa_r+0x28c>
    3b0a:	23 67 21 00 	ld.w	32[sp], r12
    3b0e:	23 57 19 00 	ld.w	24[sp], r10
    3b12:	63 07 31 00 	st.w	r0, 48[sp]
    3b16:	aa 61       	sub	r10, r12
    3b18:	80 51       	subr	r0, r10
    3b1a:	63 67 21 00 	st.w	r12, 32[sp]
    3b1e:	63 57 2d 00 	st.w	r10, 44[sp]
    3b22:	bf 07 b0 fc 	jr	37d2 <__dtoa_r+0x2be>
    3b26:	80 c9       	subr	r0, r25
    3b28:	63 cf 21 00 	st.w	r25, 32[sp]
    3b2c:	63 07 1d 00 	st.w	r0, 28[sp]
    3b30:	bf 07 84 fc 	jr	37b4 <__dtoa_r+0x2a0>
    3b34:	23 37 19 00 	ld.w	24[sp], r6
    3b38:	80 ff 18 5d 	jarl	9850 <___floatsidf>, lp
    3b3c:	0a 30       	mov	r10, r6
    3b3e:	0b 38       	mov	r11, r7
    3b40:	1a 40       	mov	r26, r8
    3b42:	1b 48       	mov	r27, r9
    3b44:	80 ff 3c 5b 	jarl	9680 <___nedf2>, lp
    3b48:	60 52       	cmp	0, r10
    3b4a:	ba 05       	bne	3b50 <__dtoa_r+0x63c>
    3b4c:	bf 07 10 fc 	jr	375c <__dtoa_r+0x248>
    3b50:	23 67 19 00 	ld.w	24[sp], r12
    3b54:	5f 62       	add	-1, r12
    3b56:	63 67 19 00 	st.w	r12, 24[sp]
    3b5a:	bf 07 02 fc 	jr	375c <__dtoa_r+0x248>
    3b5e:	40 de 00 00 	movhi	0, r0, r27
    3b62:	23 d7 2d 00 	ld.w	44[sp], r26
    3b66:	23 ef 21 00 	ld.w	32[sp], r29
    3b6a:	63 07 29 00 	st.w	r0, 40[sp]
    3b6e:	3b de 44 5f 	movea	24388, r27, r27
    3b72:	60 ea       	cmp	0, r29
    3b74:	d2 15       	be	3b9e <__dtoa_r+0x68a>
    3b76:	23 67 1d 00 	ld.w	28[sp], r12
    3b7a:	60 62       	cmp	0, r12
    3b7c:	97 15       	ble	3b9e <__dtoa_r+0x68a>
    3b7e:	0c 50       	mov	r12, r10
    3b80:	fd 61       	cmp	r29, r12
    3b82:	b7 05       	ble	3b88 <__dtoa_r+0x674>
    3b84:	80 07 04 04 	jr	3f88 <__dtoa_r+0xa74>
    3b88:	23 67 21 00 	ld.w	32[sp], r12
    3b8c:	aa e9       	sub	r10, r29
    3b8e:	aa 61       	sub	r10, r12
    3b90:	63 67 21 00 	st.w	r12, 32[sp]
    3b94:	23 67 1d 00 	ld.w	28[sp], r12
    3b98:	aa 61       	sub	r10, r12
    3b9a:	63 67 1d 00 	st.w	r12, 28[sp]
    3b9e:	23 67 2d 00 	ld.w	44[sp], r12
    3ba2:	60 62       	cmp	0, r12
    3ba4:	b7 35       	ble	3c0a <__dtoa_r+0x6f6>
    3ba6:	23 67 35 00 	ld.w	52[sp], r12
    3baa:	60 62       	cmp	0, r12
    3bac:	82 2d       	be	3bfc <__dtoa_r+0x6e8>
    3bae:	60 d2       	cmp	0, r26
    3bb0:	bf 05       	bgt	3bb6 <__dtoa_r+0x6a2>
    3bb2:	80 07 dc 03 	jr	3f8e <__dtoa_r+0xa7a>
    3bb6:	23 3f 29 00 	ld.w	40[sp], r7
    3bba:	02 30       	mov	r2, r6
    3bbc:	1a 40       	mov	r26, r8
    3bbe:	80 ff d2 25 	jarl	6190 <___pow5mult>, lp
    3bc2:	15 40       	mov	r21, r8
    3bc4:	02 30       	mov	r2, r6
    3bc6:	0a 38       	mov	r10, r7
    3bc8:	63 57 29 00 	st.w	r10, 40[sp]
    3bcc:	40 c6 00 00 	movhi	0, r0, r24
    3bd0:	80 ff 94 23 	jarl	5f64 <___multiply>, lp
    3bd4:	0a b0       	mov	r10, r22
    3bd6:	15 38       	mov	r21, r7
    3bd8:	02 30       	mov	r2, r6
    3bda:	38 c6 a0 5c 	movea	23712, r24, r24
    3bde:	80 ff 04 00 	jarl	3be2 <__dtoa_r+0x6ce>, lp
    3be2:	44 fa       	add	4, lp
    3be4:	78 00       	jmp	[r24]
    3be6:	16 a8       	mov	r22, r21
    3be8:	23 47 2d 00 	ld.w	44[sp], r8
    3bec:	ba 41       	sub	r26, r8
    3bee:	a2 15       	be	3c12 <__dtoa_r+0x6fe>
    3bf0:	15 38       	mov	r21, r7
    3bf2:	02 30       	mov	r2, r6
    3bf4:	80 ff 9c 25 	jarl	6190 <___pow5mult>, lp
    3bf8:	0a a8       	mov	r10, r21
    3bfa:	c5 0d       	br	3c12 <__dtoa_r+0x6fe>
    3bfc:	23 47 2d 00 	ld.w	44[sp], r8
    3c00:	15 38       	mov	r21, r7
    3c02:	02 30       	mov	r2, r6
    3c04:	80 ff 8c 25 	jarl	6190 <___pow5mult>, lp
    3c08:	0a a8       	mov	r10, r21
    3c0a:	40 c6 00 00 	movhi	0, r0, r24
    3c0e:	38 c6 a0 5c 	movea	23712, r24, r24
    3c12:	02 30       	mov	r2, r6
    3c14:	01 3a       	mov	1, r7
    3c16:	80 ff 04 00 	jarl	3c1a <__dtoa_r+0x706>, lp
    3c1a:	44 fa       	add	4, lp
    3c1c:	7b 00       	jmp	[r27]
    3c1e:	23 67 31 00 	ld.w	48[sp], r12
    3c22:	0a d0       	mov	r10, r26
    3c24:	60 62       	cmp	0, r12
    3c26:	f7 05       	ble	3c34 <__dtoa_r+0x720>
    3c28:	02 30       	mov	r2, r6
    3c2a:	0a 38       	mov	r10, r7
    3c2c:	0c 40       	mov	r12, r8
    3c2e:	80 ff 62 25 	jarl	6190 <___pow5mult>, lp
    3c32:	0a d0       	mov	r10, r26
    3c34:	23 67 91 00 	ld.w	144[sp], r12
    3c38:	61 62       	cmp	1, r12
    3c3a:	bf 05       	bgt	3c40 <__dtoa_r+0x72c>
    3c3c:	80 07 0e 03 	jr	3f4a <__dtoa_r+0xa36>
    3c40:	00 e2       	mov	0, r28
    3c42:	23 67 31 00 	ld.w	48[sp], r12
    3c46:	60 62       	cmp	0, r12
    3c48:	b2 05       	be	3c4e <__dtoa_r+0x73a>
    3c4a:	80 07 b4 07 	jr	43fe <__dtoa_r+0xeea>
    3c4e:	01 5a       	mov	1, r11
    3c50:	23 57 1d 00 	ld.w	28[sp], r10
    3c54:	cb 51       	add	r11, r10
    3c56:	ca 56 1f 00 	andi	31, r10, r10
    3c5a:	ba 05       	bne	3c60 <__dtoa_r+0x74c>
    3c5c:	80 07 a6 01 	jr	3e02 <__dtoa_r+0x8ee>
    3c60:	20 5e 20 00 	movea	32, r0, r11
    3c64:	aa 59       	sub	r10, r11
    3c66:	64 5a       	cmp	4, r11
    3c68:	bf 05       	bgt	3c6e <__dtoa_r+0x75a>
    3c6a:	80 07 ea 0c 	jr	4954 <__dtoa_r+0x1440>
    3c6e:	20 5e 1c 00 	movea	28, r0, r11
    3c72:	aa 59       	sub	r10, r11
    3c74:	23 67 21 00 	ld.w	32[sp], r12
    3c78:	cb e9       	add	r11, r29
    3c7a:	cb 61       	add	r11, r12
    3c7c:	63 67 21 00 	st.w	r12, 32[sp]
    3c80:	23 67 1d 00 	ld.w	28[sp], r12
    3c84:	cb 61       	add	r11, r12
    3c86:	63 67 1d 00 	st.w	r12, 28[sp]
    3c8a:	23 67 21 00 	ld.w	32[sp], r12
    3c8e:	60 62       	cmp	0, r12
    3c90:	f7 05       	ble	3c9e <__dtoa_r+0x78a>
    3c92:	15 38       	mov	r21, r7
    3c94:	02 30       	mov	r2, r6
    3c96:	0c 40       	mov	r12, r8
    3c98:	80 ff bc 25 	jarl	6254 <___lshift>, lp
    3c9c:	0a a8       	mov	r10, r21
    3c9e:	23 67 1d 00 	ld.w	28[sp], r12
    3ca2:	60 62       	cmp	0, r12
    3ca4:	f7 05       	ble	3cb2 <__dtoa_r+0x79e>
    3ca6:	1a 38       	mov	r26, r7
    3ca8:	02 30       	mov	r2, r6
    3caa:	0c 40       	mov	r12, r8
    3cac:	80 ff a8 25 	jarl	6254 <___lshift>, lp
    3cb0:	0a d0       	mov	r10, r26
    3cb2:	23 67 3d 00 	ld.w	60[sp], r12
    3cb6:	60 62       	cmp	0, r12
    3cb8:	b2 05       	be	3cbe <__dtoa_r+0x7aa>
    3cba:	80 07 60 07 	jr	441a <__dtoa_r+0xf06>
    3cbe:	23 67 25 00 	ld.w	36[sp], r12
    3cc2:	60 62       	cmp	0, r12
    3cc4:	bf 05       	bgt	3cca <__dtoa_r+0x7b6>
    3cc6:	80 07 a0 07 	jr	4466 <__dtoa_r+0xf52>
    3cca:	23 67 35 00 	ld.w	52[sp], r12
    3cce:	60 62       	cmp	0, r12
    3cd0:	ba 05       	bne	3cd6 <__dtoa_r+0x7c2>
    3cd2:	80 07 50 01 	jr	3e22 <__dtoa_r+0x90e>
    3cd6:	60 ea       	cmp	0, r29
    3cd8:	97 0d       	ble	3cea <__dtoa_r+0x7d6>
    3cda:	23 3f 29 00 	ld.w	40[sp], r7
    3cde:	02 30       	mov	r2, r6
    3ce0:	1d 40       	mov	r29, r8
    3ce2:	80 ff 72 25 	jarl	6254 <___lshift>, lp
    3ce6:	63 57 29 00 	st.w	r10, 40[sp]
    3cea:	60 e2       	cmp	0, r28
    3cec:	b2 05       	be	3cf2 <__dtoa_r+0x7de>
    3cee:	80 07 7a 09 	jr	4668 <__dtoa_r+0x1154>
    3cf2:	23 df 29 00 	ld.w	40[sp], r27
    3cf6:	23 67 25 00 	ld.w	36[sp], r12
    3cfa:	40 56 00 00 	movhi	0, r0, r10
    3cfe:	2a 56 4c 63 	movea	25420, r10, r10
    3d02:	d7 be 01 00 	andi	1, r23, r23
    3d06:	40 b6 00 00 	movhi	0, r0, r22
    3d0a:	d4 61       	add	r20, r12
    3d0c:	36 b6 28 33 	movea	13096, r22, r22
    3d10:	63 bf 25 00 	st.w	r23, 36[sp]
    3d14:	14 ee 01 00 	addi	1, r20, r29
    3d18:	0a b8       	mov	r10, r23
    3d1a:	23 e7 29 00 	ld.w	40[sp], r28
    3d1e:	63 67 21 00 	st.w	r12, 32[sp]
    3d22:	63 57 2d 00 	st.w	r10, 44[sp]
    3d26:	63 a7 29 00 	st.w	r20, 40[sp]
    3d2a:	63 b7 1d 00 	st.w	r22, 28[sp]
    3d2e:	23 5f 1d 00 	ld.w	28[sp], r11
    3d32:	15 30       	mov	r21, r6
    3d34:	1a 38       	mov	r26, r7
    3d36:	80 ff 04 00 	jarl	3d3a <__dtoa_r+0x826>, lp
    3d3a:	44 fa       	add	4, lp
    3d3c:	6b 00       	jmp	[r11]
    3d3e:	15 30       	mov	r21, r6
    3d40:	1c 38       	mov	r28, r7
    3d42:	0a a0       	mov	r10, r20
    3d44:	80 ff 04 00 	jarl	3d48 <__dtoa_r+0x834>, lp
    3d48:	44 fa       	add	4, lp
    3d4a:	77 00       	jmp	[r23]
    3d4c:	02 30       	mov	r2, r6
    3d4e:	1a 38       	mov	r26, r7
    3d50:	1b 40       	mov	r27, r8
    3d52:	0a c8       	mov	r10, r25
    3d54:	80 ff 34 26 	jarl	6388 <___mdiff>, lp
    3d58:	0a 58       	mov	r10, r11
    3d5a:	1d 66 ff ff 	addi	-1, r29, r12
    3d5e:	2a 57 0d 00 	ld.w	12[r10], r10
    3d62:	63 67 15 00 	st.w	r12, 20[sp]
    3d66:	14 b6 30 00 	addi	48, r20, r22
    3d6a:	60 52       	cmp	0, r10
    3d6c:	ba 05       	bne	3d72 <__dtoa_r+0x85e>
    3d6e:	80 07 e6 05 	jr	4354 <__dtoa_r+0xe40>
    3d72:	02 30       	mov	r2, r6
    3d74:	0b 38       	mov	r11, r7
    3d76:	80 ff 04 00 	jarl	3d7a <__dtoa_r+0x866>, lp
    3d7a:	44 fa       	add	4, lp
    3d7c:	78 00       	jmp	[r24]
    3d7e:	01 52       	mov	1, r10
    3d80:	60 ca       	cmp	0, r25
    3d82:	be 05       	bge	3d88 <__dtoa_r+0x874>
    3d84:	80 07 f2 07 	jr	4576 <__dtoa_r+0x1062>
    3d88:	ba 0d       	bne	3d9e <__dtoa_r+0x88a>
    3d8a:	23 67 91 00 	ld.w	144[sp], r12
    3d8e:	60 62       	cmp	0, r12
    3d90:	fa 05       	bne	3d9e <__dtoa_r+0x88a>
    3d92:	23 5f 25 00 	ld.w	36[sp], r11
    3d96:	60 5a       	cmp	0, r11
    3d98:	ba 05       	bne	3d9e <__dtoa_r+0x88a>
    3d9a:	80 07 dc 07 	jr	4576 <__dtoa_r+0x1062>
    3d9e:	60 52       	cmp	0, r10
    3da0:	b7 05       	ble	3da6 <__dtoa_r+0x892>
    3da2:	80 07 10 09 	jr	46b2 <__dtoa_r+0x119e>
    3da6:	23 5f 21 00 	ld.w	32[sp], r11
    3daa:	5d b7 ff ff 	st.b	r22, -1[r29]
    3dae:	1d c8       	mov	r29, r25
    3db0:	eb e9       	cmp	r11, r29
    3db2:	ba 05       	bne	3db8 <__dtoa_r+0x8a4>
    3db4:	80 07 26 09 	jr	46da <__dtoa_r+0x11c6>
    3db8:	40 66 00 00 	movhi	0, r0, r12
    3dbc:	15 38       	mov	r21, r7
    3dbe:	02 30       	mov	r2, r6
    3dc0:	0a 42       	mov	10, r8
    3dc2:	00 4a       	mov	0, r9
    3dc4:	2c ce c0 5c 	movea	23744, r12, r25
    3dc8:	80 ff 04 00 	jarl	3dcc <__dtoa_r+0x8b8>, lp
    3dcc:	44 fa       	add	4, lp
    3dce:	79 00       	jmp	[r25]
    3dd0:	0a a8       	mov	r10, r21
    3dd2:	fb e1       	cmp	r27, r28
    3dd4:	ba 05       	bne	3dda <__dtoa_r+0x8c6>
    3dd6:	80 07 f6 05 	jr	43cc <__dtoa_r+0xeb8>
    3dda:	1c 38       	mov	r28, r7
    3ddc:	0a 42       	mov	10, r8
    3dde:	00 4a       	mov	0, r9
    3de0:	02 30       	mov	r2, r6
    3de2:	80 ff 04 00 	jarl	3de6 <__dtoa_r+0x8d2>, lp
    3de6:	44 fa       	add	4, lp
    3de8:	79 00       	jmp	[r25]
    3dea:	1b 38       	mov	r27, r7
    3dec:	02 30       	mov	r2, r6
    3dee:	0a 42       	mov	10, r8
    3df0:	00 4a       	mov	0, r9
    3df2:	0a e0       	mov	r10, r28
    3df4:	80 ff 04 00 	jarl	3df8 <__dtoa_r+0x8e4>, lp
    3df8:	44 fa       	add	4, lp
    3dfa:	79 00       	jmp	[r25]
    3dfc:	0a d8       	mov	r10, r27
    3dfe:	41 ea       	add	1, r29
    3e00:	f5 95       	br	3d2e <__dtoa_r+0x81a>
    3e02:	20 5e 1c 00 	movea	28, r0, r11
    3e06:	bf 07 6e fe 	jr	3c74 <__dtoa_r+0x760>
    3e0a:	20 56 ee fb 	movea	-1042, r0, r10
    3e0e:	b9 51       	sub	r25, r10
    3e10:	17 30       	mov	r23, r6
    3e12:	ea 37 c0 00 	shl	r10, r6
    3e16:	bf 07 96 f8 	jr	36ac <__dtoa_r+0x198>
    3e1a:	63 07 3d 00 	st.w	r0, 60[sp]
    3e1e:	bf 07 82 f9 	jr	37a0 <__dtoa_r+0x28c>
    3e22:	40 b6 00 00 	movhi	0, r0, r22
    3e26:	14 e8       	mov	r20, r29
    3e28:	36 b6 28 33 	movea	13096, r22, r22
    3e2c:	23 e7 25 00 	ld.w	36[sp], r28
    3e30:	85 0d       	br	3e40 <__dtoa_r+0x92c>
    3e32:	15 38       	mov	r21, r7
    3e34:	02 30       	mov	r2, r6
    3e36:	0a 42       	mov	10, r8
    3e38:	00 4a       	mov	0, r9
    3e3a:	80 ff 86 1e 	jarl	5cc0 <___multadd>, lp
    3e3e:	0a a8       	mov	r10, r21
    3e40:	15 30       	mov	r21, r6
    3e42:	1a 38       	mov	r26, r7
    3e44:	80 ff 04 00 	jarl	3e48 <__dtoa_r+0x934>, lp
    3e48:	44 fa       	add	4, lp
    3e4a:	76 00       	jmp	[r22]
    3e4c:	0a 56 30 00 	addi	48, r10, r10
    3e50:	5d 57 00 00 	st.b	r10, 0[r29]
    3e54:	41 ea       	add	1, r29
    3e56:	1d 58       	mov	r29, r11
    3e58:	b4 59       	sub	r20, r11
    3e5a:	eb e1       	cmp	r11, r28
    3e5c:	bf ed       	bgt	3e32 <__dtoa_r+0x91e>
    3e5e:	0a b8       	mov	r10, r23
    3e60:	23 57 25 00 	ld.w	36[sp], r10
    3e64:	60 52       	cmp	0, r10
    3e66:	bf 05       	bgt	3e6c <__dtoa_r+0x958>
    3e68:	80 07 8a 09 	jr	47f2 <__dtoa_r+0x12de>
    3e6c:	14 c8       	mov	r20, r25
    3e6e:	ca c9       	add	r10, r25
    3e70:	40 56 00 00 	movhi	0, r0, r10
    3e74:	2a 56 4c 63 	movea	25420, r10, r10
    3e78:	00 e2       	mov	0, r28
    3e7a:	63 57 2d 00 	st.w	r10, 44[sp]
    3e7e:	15 38       	mov	r21, r7
    3e80:	02 30       	mov	r2, r6
    3e82:	01 42       	mov	1, r8
    3e84:	80 ff d0 23 	jarl	6254 <___lshift>, lp
    3e88:	23 5f 2d 00 	ld.w	44[sp], r11
    3e8c:	0a 30       	mov	r10, r6
    3e8e:	1a 38       	mov	r26, r7
    3e90:	0a a8       	mov	r10, r21
    3e92:	80 ff 04 00 	jarl	3e96 <__dtoa_r+0x982>, lp
    3e96:	44 fa       	add	4, lp
    3e98:	6b 00       	jmp	[r11]
    3e9a:	60 52       	cmp	0, r10
    3e9c:	bf 05       	bgt	3ea2 <__dtoa_r+0x98e>
    3e9e:	80 07 2e 07 	jr	45cc <__dtoa_r+0x10b8>
    3ea2:	19 57 ff ff 	ld.b	-1[r25], r10
    3ea6:	d8 52       	shl	24, r10
    3ea8:	b8 52       	sar	24, r10
    3eaa:	19 6e fe ff 	addi	-2, r25, r13
    3eae:	20 76 39 00 	movea	57, r0, r14
    3eb2:	f5 05       	br	3ec0 <__dtoa_r+0x9ac>
    3eb4:	0d 57 00 00 	ld.b	0[r13], r10
    3eb8:	0b c8       	mov	r11, r25
    3eba:	d8 52       	shl	24, r10
    3ebc:	b8 52       	sar	24, r10
    3ebe:	5f 6a       	add	-1, r13
    3ec0:	19 5e ff ff 	addi	-1, r25, r11
    3ec4:	ee 51       	cmp	r14, r10
    3ec6:	b2 05       	be	3ecc <__dtoa_r+0x9b8>
    3ec8:	80 07 e0 07 	jr	46a8 <__dtoa_r+0x1194>
    3ecc:	eb a1       	cmp	r11, r20
    3ece:	ba f5       	bne	3eb4 <__dtoa_r+0x9a0>
    3ed0:	23 67 19 00 	ld.w	24[sp], r12
    3ed4:	20 56 31 00 	movea	49, r0, r10
    3ed8:	41 62       	add	1, r12
    3eda:	63 67 19 00 	st.w	r12, 24[sp]
    3ede:	54 57 00 00 	st.b	r10, 0[r20]
    3ee2:	02 30       	mov	r2, r6
    3ee4:	1a 38       	mov	r26, r7
    3ee6:	80 ff 04 00 	jarl	3eea <__dtoa_r+0x9d6>, lp
    3eea:	44 fa       	add	4, lp
    3eec:	78 00       	jmp	[r24]
    3eee:	23 5f 29 00 	ld.w	40[sp], r11
    3ef2:	60 5a       	cmp	0, r11
    3ef4:	a2 15       	be	3f18 <__dtoa_r+0xa04>
    3ef6:	60 e2       	cmp	0, r28
    3ef8:	92 0d       	be	3f0a <__dtoa_r+0x9f6>
    3efa:	eb e1       	cmp	r11, r28
    3efc:	f2 05       	be	3f0a <__dtoa_r+0x9f6>
    3efe:	02 30       	mov	r2, r6
    3f00:	1c 38       	mov	r28, r7
    3f02:	80 ff 04 00 	jarl	3f06 <__dtoa_r+0x9f2>, lp
    3f06:	44 fa       	add	4, lp
    3f08:	78 00       	jmp	[r24]
    3f0a:	23 3f 29 00 	ld.w	40[sp], r7
    3f0e:	02 30       	mov	r2, r6
    3f10:	80 ff 04 00 	jarl	3f14 <__dtoa_r+0xa00>, lp
    3f14:	44 fa       	add	4, lp
    3f16:	78 00       	jmp	[r24]
    3f18:	02 30       	mov	r2, r6
    3f1a:	15 38       	mov	r21, r7
    3f1c:	80 ff 04 00 	jarl	3f20 <__dtoa_r+0xa0c>, lp
    3f20:	44 fa       	add	4, lp
    3f22:	78 00       	jmp	[r24]
    3f24:	23 57 19 00 	ld.w	24[sp], r10
    3f28:	23 67 99 00 	ld.w	152[sp], r12
    3f2c:	59 07 00 00 	st.b	r0, 0[r25]
    3f30:	41 52       	add	1, r10
    3f32:	6c 57 01 00 	st.w	r10, 0[r12]
    3f36:	23 67 a1 00 	ld.w	160[sp], r12
    3f3a:	60 62       	cmp	0, r12
    3f3c:	ba 05       	bne	3f42 <__dtoa_r+0xa2e>
    3f3e:	bf 07 8a f6 	jr	35c8 <__dtoa_r+0xb4>
    3f42:	6c cf 01 00 	st.w	r25, 0[r12]
    3f46:	bf 07 82 f6 	jr	35c8 <__dtoa_r+0xb4>
    3f4a:	60 ba       	cmp	0, r23
    3f4c:	b2 05       	be	3f52 <__dtoa_r+0xa3e>
    3f4e:	bf 07 f2 fc 	jr	3c40 <__dtoa_r+0x72c>
    3f52:	40 56 10 00 	movhi	16, r0, r10
    3f56:	2a 56 ff ff 	movea	-1, r10, r10
    3f5a:	5c 51       	and	r28, r10
    3f5c:	b2 05       	be	3f62 <__dtoa_r+0xa4e>
    3f5e:	bf 07 e2 fc 	jr	3c40 <__dtoa_r+0x72c>
    3f62:	40 56 f0 7f 	movhi	32752, r0, r10
    3f66:	4a e1       	and	r10, r28
    3f68:	ba 05       	bne	3f6e <__dtoa_r+0xa5a>
    3f6a:	bf 07 d6 fc 	jr	3c40 <__dtoa_r+0x72c>
    3f6e:	23 67 21 00 	ld.w	32[sp], r12
    3f72:	01 e2       	mov	1, r28
    3f74:	41 62       	add	1, r12
    3f76:	63 67 21 00 	st.w	r12, 32[sp]
    3f7a:	23 67 1d 00 	ld.w	28[sp], r12
    3f7e:	41 62       	add	1, r12
    3f80:	63 67 1d 00 	st.w	r12, 28[sp]
    3f84:	bf 07 be fc 	jr	3c42 <__dtoa_r+0x72e>
    3f88:	1d 50       	mov	r29, r10
    3f8a:	bf 07 fe fb 	jr	3b88 <__dtoa_r+0x674>
    3f8e:	40 c6 00 00 	movhi	0, r0, r24
    3f92:	38 c6 a0 5c 	movea	23712, r24, r24
    3f96:	bf 07 52 fc 	jr	3be8 <__dtoa_r+0x6d4>
    3f9a:	23 67 25 00 	ld.w	36[sp], r12
    3f9e:	60 62       	cmp	0, r12
    3fa0:	b7 05       	ble	3fa6 <__dtoa_r+0xa92>
    3fa2:	bf 07 38 f9 	jr	38da <__dtoa_r+0x3c6>
    3fa6:	b2 05       	be	3fac <__dtoa_r+0xa98>
    3fa8:	80 07 8c 05 	jr	4534 <__dtoa_r+0x1020>
    3fac:	1a 38       	mov	r26, r7
    3fae:	1b 30       	mov	r27, r6
    3fb0:	00 42       	mov	0, r8
    3fb2:	40 4e 14 40 	movhi	16404, r0, r9
    3fb6:	80 ff 04 00 	jarl	3fba <__dtoa_r+0xaa6>, lp
    3fba:	44 fa       	add	4, lp
    3fbc:	7d 00       	jmp	[r29]
    3fbe:	0a 30       	mov	r10, r6
    3fc0:	0b 38       	mov	r11, r7
    3fc2:	17 40       	mov	r23, r8
    3fc4:	1c 48       	mov	r28, r9
    3fc6:	80 ff a2 57 	jarl	9768 <___gedf2>, lp
    3fca:	40 c6 00 00 	movhi	0, r0, r24
    3fce:	63 07 29 00 	st.w	r0, 40[sp]
    3fd2:	00 d2       	mov	0, r26
    3fd4:	38 c6 a0 5c 	movea	23712, r24, r24
    3fd8:	60 52       	cmp	0, r10
    3fda:	be 05       	bge	3fe0 <__dtoa_r+0xacc>
    3fdc:	80 07 c0 04 	jr	449c <__dtoa_r+0xf88>
    3fe0:	23 67 95 00 	ld.w	148[sp], r12
    3fe4:	14 c8       	mov	r20, r25
    3fe6:	2c 60       	not	r12, r12
    3fe8:	63 67 19 00 	st.w	r12, 24[sp]
    3fec:	02 30       	mov	r2, r6
    3fee:	1a 38       	mov	r26, r7
    3ff0:	80 ff 04 00 	jarl	3ff4 <__dtoa_r+0xae0>, lp
    3ff4:	44 fa       	add	4, lp
    3ff6:	78 00       	jmp	[r24]
    3ff8:	23 5f 29 00 	ld.w	40[sp], r11
    3ffc:	60 5a       	cmp	0, r11
    3ffe:	ea 85       	bne	3f0a <__dtoa_r+0x9f6>
    4000:	c5 8d       	br	3f18 <__dtoa_r+0xa04>
    4002:	23 67 45 00 	ld.w	68[sp], r12
    4006:	60 62       	cmp	0, r12
    4008:	ba 05       	bne	400e <__dtoa_r+0xafa>
    400a:	80 07 fa 07 	jr	4804 <__dtoa_r+0x12f0>
    400e:	0a 56 33 04 	addi	1075, r10, r10
    4012:	23 d7 2d 00 	ld.w	44[sp], r26
    4016:	23 ef 21 00 	ld.w	32[sp], r29
    401a:	bf 07 b8 fa 	jr	3ad2 <__dtoa_r+0x5be>
    401e:	63 07 35 00 	st.w	r0, 52[sp]
    4022:	23 5f 95 00 	ld.w	148[sp], r11
    4026:	23 67 19 00 	ld.w	24[sp], r12
    402a:	cc 59       	add	r12, r11
    402c:	0b d8       	mov	r11, r27
    402e:	41 da       	add	1, r27
    4030:	63 5f 41 00 	st.w	r11, 64[sp]
    4034:	63 df 25 00 	st.w	r27, 36[sp]
    4038:	60 da       	cmp	0, r27
    403a:	bf 05       	bgt	4040 <__dtoa_r+0xb2c>
    403c:	80 07 b8 03 	jr	43f4 <__dtoa_r+0xee0>
    4040:	62 07 45 00 	st.w	r0, 68[r2]
    4044:	20 56 17 00 	movea	23, r0, r10
    4048:	ea d9       	cmp	r10, r27
    404a:	bb 05       	bh	4050 <__dtoa_r+0xb3c>
    404c:	80 07 20 09 	jr	496c <__dtoa_r+0x1458>
    4050:	01 5a       	mov	1, r11
    4052:	04 52       	mov	4, r10
    4054:	ca 51       	add	r10, r10
    4056:	0a 66 14 00 	addi	20, r10, r12
    405a:	0b 38       	mov	r11, r7
    405c:	41 5a       	add	1, r11
    405e:	fb 61       	cmp	r27, r12
    4060:	a3 fd       	bnh	4054 <__dtoa_r+0xb40>
    4062:	62 3f 45 00 	st.w	r7, 68[r2]
    4066:	40 56 00 00 	movhi	0, r0, r10
    406a:	2a 56 28 5c 	movea	23592, r10, r10
    406e:	02 30       	mov	r2, r6
    4070:	63 57 39 00 	st.w	r10, 56[sp]
    4074:	80 ff 04 00 	jarl	4078 <__dtoa_r+0xb64>, lp
    4078:	44 fa       	add	4, lp
    407a:	6a 00       	jmp	[r10]
    407c:	62 57 41 00 	st.w	r10, 64[r2]
    4080:	0a a0       	mov	r10, r20
    4082:	6e da       	cmp	14, r27
    4084:	b3 05       	bnh	408a <__dtoa_r+0xb76>
    4086:	bf 07 1a f8 	jr	38a0 <__dtoa_r+0x38c>
    408a:	60 d2       	cmp	0, r26
    408c:	ba 05       	bne	4092 <__dtoa_r+0xb7e>
    408e:	bf 07 12 f8 	jr	38a0 <__dtoa_r+0x38c>
    4092:	23 67 19 00 	ld.w	24[sp], r12
    4096:	60 62       	cmp	0, r12
    4098:	bf 05       	bgt	409e <__dtoa_r+0xb8a>
    409a:	80 07 5c 05 	jr	45f6 <__dtoa_r+0x10e2>
    409e:	cc 56 0f 00 	andi	15, r12, r10
    40a2:	0c b0       	mov	r12, r22
    40a4:	40 5e 01 00 	movhi	1, r0, r11
    40a8:	2b 5e 38 a0 	movea	-24520, r11, r11
    40ac:	c3 52       	shl	3, r10
    40ae:	a4 b2       	sar	4, r22
    40b0:	cb 51       	add	r11, r10
    40b2:	d6 5e 10 00 	andi	16, r22, r11
    40b6:	2a 7f 01 00 	ld.w	0[r10], r15
    40ba:	2a 77 05 00 	ld.w	4[r10], r14
    40be:	ba 05       	bne	40c4 <__dtoa_r+0xbb0>
    40c0:	80 07 a0 04 	jr	4560 <__dtoa_r+0x104c>
    40c4:	40 56 01 00 	movhi	1, r0, r10
    40c8:	2a 56 10 a0 	movea	-24560, r10, r10
    40cc:	40 ce 01 00 	movhi	1, r0, r25
    40d0:	2a 47 21 00 	ld.w	32[r10], r8
    40d4:	2a 4f 25 00 	ld.w	36[r10], r9
    40d8:	39 ce 84 94 	movea	-27516, r25, r25
    40dc:	17 30       	mov	r23, r6
    40de:	1c 38       	mov	r28, r7
    40e0:	63 77 09 00 	st.w	r14, 8[sp]
    40e4:	63 7f 0d 00 	st.w	r15, 12[sp]
    40e8:	63 cf 29 00 	st.w	r25, 40[sp]
    40ec:	80 ff 04 00 	jarl	40f0 <__dtoa_r+0xbdc>, lp
    40f0:	44 fa       	add	4, lp
    40f2:	79 00       	jmp	[r25]
    40f4:	23 77 09 00 	ld.w	8[sp], r14
    40f8:	23 7f 0d 00 	ld.w	12[sp], r15
    40fc:	0a d0       	mov	r10, r26
    40fe:	0b c0       	mov	r11, r24
    4100:	d6 b6 0f 00 	andi	15, r22, r22
    4104:	03 da       	mov	3, r27
    4106:	60 b2       	cmp	0, r22
    4108:	b2 1d       	be	413e <__dtoa_r+0xc2a>
    410a:	40 66 01 00 	movhi	1, r0, r12
    410e:	2c ce 10 a0 	movea	-24560, r12, r25
    4112:	0f 50       	mov	r15, r10
    4114:	0e 58       	mov	r14, r11
    4116:	d6 66 01 00 	andi	1, r22, r12
    411a:	c2 0d       	be	4132 <__dtoa_r+0xc1e>
    411c:	39 47 01 00 	ld.w	0[r25], r8
    4120:	39 4f 05 00 	ld.w	4[r25], r9
    4124:	0a 30       	mov	r10, r6
    4126:	0b 38       	mov	r11, r7
    4128:	80 ff 04 00 	jarl	412c <__dtoa_r+0xc18>, lp
    412c:	44 fa       	add	4, lp
    412e:	7d 00       	jmp	[r29]
    4130:	41 da       	add	1, r27
    4132:	a1 b2       	sar	1, r22
    4134:	48 ca       	add	8, r25
    4136:	60 b2       	cmp	0, r22
    4138:	fa ed       	bne	4116 <__dtoa_r+0xc02>
    413a:	0a 78       	mov	r10, r15
    413c:	0b 70       	mov	r11, r14
    413e:	23 67 29 00 	ld.w	40[sp], r12
    4142:	1a 30       	mov	r26, r6
    4144:	18 38       	mov	r24, r7
    4146:	0f 40       	mov	r15, r8
    4148:	0e 48       	mov	r14, r9
    414a:	80 ff 04 00 	jarl	414e <__dtoa_r+0xc3a>, lp
    414e:	44 fa       	add	4, lp
    4150:	6c 00       	jmp	[r12]
    4152:	0a d0       	mov	r10, r26
    4154:	0b b0       	mov	r11, r22
    4156:	23 67 3d 00 	ld.w	60[sp], r12
    415a:	60 62       	cmp	0, r12
    415c:	c2 0d       	be	4174 <__dtoa_r+0xc60>
    415e:	1a 30       	mov	r26, r6
    4160:	16 38       	mov	r22, r7
    4162:	00 42       	mov	0, r8
    4164:	40 4e f0 3f 	movhi	16368, r0, r9
    4168:	80 ff 74 56 	jarl	97dc <___ltdf2>, lp
    416c:	60 52       	cmp	0, r10
    416e:	be 05       	bge	4174 <__dtoa_r+0xc60>
    4170:	80 07 b4 06 	jr	4824 <__dtoa_r+0x1310>
    4174:	1b 30       	mov	r27, r6
    4176:	80 ff da 56 	jarl	9850 <___floatsidf>, lp
    417a:	0a 30       	mov	r10, r6
    417c:	0b 38       	mov	r11, r7
    417e:	1a 40       	mov	r26, r8
    4180:	16 48       	mov	r22, r9
    4182:	80 ff 04 00 	jarl	4186 <__dtoa_r+0xc72>, lp
    4186:	44 fa       	add	4, lp
    4188:	7d 00       	jmp	[r29]
    418a:	0a 30       	mov	r10, r6
    418c:	0b 38       	mov	r11, r7
    418e:	00 42       	mov	0, r8
    4190:	40 4e 1c 40 	movhi	16412, r0, r9
    4194:	80 ff a0 4f 	jarl	9134 <___adddf3>, lp
    4198:	23 67 25 00 	ld.w	36[sp], r12
    419c:	40 ce c0 fc 	movhi	-832, r0, r25
    41a0:	0a d8       	mov	r10, r27
    41a2:	cb c9       	add	r11, r25
    41a4:	60 62       	cmp	0, r12
    41a6:	ba 05       	bne	41ac <__dtoa_r+0xc98>
    41a8:	80 07 4e 03 	jr	44f6 <__dtoa_r+0xfe2>
    41ac:	23 67 19 00 	ld.w	24[sp], r12
    41b0:	63 67 4d 00 	st.w	r12, 76[sp]
    41b4:	23 67 25 00 	ld.w	36[sp], r12
    41b8:	63 67 29 00 	st.w	r12, 40[sp]
    41bc:	23 57 29 00 	ld.w	40[sp], r10
    41c0:	40 5e 01 00 	movhi	1, r0, r11
    41c4:	23 67 35 00 	ld.w	52[sp], r12
    41c8:	c3 52       	shl	3, r10
    41ca:	2b 5e 30 a0 	movea	-24528, r11, r11
    41ce:	cb 51       	add	r11, r10
    41d0:	60 62       	cmp	0, r12
    41d2:	ba 05       	bne	41d8 <__dtoa_r+0xcc4>
    41d4:	80 07 14 05 	jr	46e8 <__dtoa_r+0x11d4>
    41d8:	2a 47 01 00 	ld.w	0[r10], r8
    41dc:	2a 4f 05 00 	ld.w	4[r10], r9
    41e0:	00 32       	mov	0, r6
    41e2:	40 3e e0 3f 	movhi	16352, r0, r7
    41e6:	80 ff 9e 52 	jarl	9484 <___divdf3>, lp
    41ea:	1b 40       	mov	r27, r8
    41ec:	19 48       	mov	r25, r9
    41ee:	0a 30       	mov	r10, r6
    41f0:	0b 38       	mov	r11, r7
    41f2:	80 ff aa 4f 	jarl	919c <___subdf3>, lp
    41f6:	16 38       	mov	r22, r7
    41f8:	1a 30       	mov	r26, r6
    41fa:	0b c0       	mov	r11, r24
    41fc:	63 57 49 00 	st.w	r10, 72[sp]
    4200:	80 ff fc 56 	jarl	98fc <___fixdfsi>, lp
    4204:	0a 30       	mov	r10, r6
    4206:	0a d8       	mov	r10, r27
    4208:	80 ff 48 56 	jarl	9850 <___floatsidf>, lp
    420c:	1a 30       	mov	r26, r6
    420e:	16 38       	mov	r22, r7
    4210:	0a 40       	mov	r10, r8
    4212:	0b 48       	mov	r11, r9
    4214:	80 ff 88 4f 	jarl	919c <___subdf3>, lp
    4218:	1b b6 30 00 	addi	48, r27, r22
    421c:	d8 b2       	shl	24, r22
    421e:	23 37 49 00 	ld.w	72[sp], r6
    4222:	b8 b2       	sar	24, r22
    4224:	18 38       	mov	r24, r7
    4226:	0a 40       	mov	r10, r8
    4228:	0b 48       	mov	r11, r9
    422a:	0a d8       	mov	r10, r27
    422c:	0b d0       	mov	r11, r26
    422e:	54 b7 00 00 	st.b	r22, 0[r20]
    4232:	14 ce 01 00 	addi	1, r20, r25
    4236:	80 ff be 54 	jarl	96f4 <___gtdf2>, lp
    423a:	60 52       	cmp	0, r10
    423c:	cf 6d       	bgt	4314 <__dtoa_r+0xe00>
    423e:	00 32       	mov	0, r6
    4240:	40 3e f0 3f 	movhi	16368, r0, r7
    4244:	1b 40       	mov	r27, r8
    4246:	1a 48       	mov	r26, r9
    4248:	80 ff 54 4f 	jarl	919c <___subdf3>, lp
    424c:	23 37 49 00 	ld.w	72[sp], r6
    4250:	18 38       	mov	r24, r7
    4252:	0a 40       	mov	r10, r8
    4254:	0b 48       	mov	r11, r9
    4256:	80 ff 9e 54 	jarl	96f4 <___gtdf2>, lp
    425a:	60 52       	cmp	0, r10
    425c:	b7 05       	ble	4262 <__dtoa_r+0xd4e>
    425e:	80 07 a0 06 	jr	48fe <__dtoa_r+0x13ea>
    4262:	23 67 29 00 	ld.w	40[sp], r12
    4266:	61 62       	cmp	1, r12
    4268:	bf 05       	bgt	426e <__dtoa_r+0xd5a>
    426a:	bf 07 36 f6 	jr	38a0 <__dtoa_r+0x38c>
    426e:	0c b0       	mov	r12, r22
    4270:	63 e7 29 00 	st.w	r28, 40[sp]
    4274:	d4 b1       	add	r20, r22
    4276:	23 e7 49 00 	ld.w	72[sp], r28
    427a:	63 bf 49 00 	st.w	r23, 72[sp]
    427e:	e5 15       	br	42aa <__dtoa_r+0xd96>
    4280:	00 32       	mov	0, r6
    4282:	40 3e f0 3f 	movhi	16368, r0, r7
    4286:	1b 40       	mov	r27, r8
    4288:	1a 48       	mov	r26, r9
    428a:	80 ff 12 4f 	jarl	919c <___subdf3>, lp
    428e:	0a 30       	mov	r10, r6
    4290:	0b 38       	mov	r11, r7
    4292:	1c 40       	mov	r28, r8
    4294:	18 48       	mov	r24, r9
    4296:	80 ff 46 55 	jarl	97dc <___ltdf2>, lp
    429a:	60 52       	cmp	0, r10
    429c:	be 05       	bge	42a2 <__dtoa_r+0xd8e>
    429e:	80 07 5e 06 	jr	48fc <__dtoa_r+0x13e8>
    42a2:	f6 c9       	cmp	r22, r25
    42a4:	ba 05       	bne	42aa <__dtoa_r+0xd96>
    42a6:	80 07 64 06 	jr	490a <__dtoa_r+0x13f6>
    42aa:	1c 30       	mov	r28, r6
    42ac:	18 38       	mov	r24, r7
    42ae:	00 42       	mov	0, r8
    42b0:	40 4e 24 40 	movhi	16420, r0, r9
    42b4:	80 ff 04 00 	jarl	42b8 <__dtoa_r+0xda4>, lp
    42b8:	44 fa       	add	4, lp
    42ba:	7d 00       	jmp	[r29]
    42bc:	00 42       	mov	0, r8
    42be:	40 4e 24 40 	movhi	16420, r0, r9
    42c2:	1b 30       	mov	r27, r6
    42c4:	1a 38       	mov	r26, r7
    42c6:	0a e0       	mov	r10, r28
    42c8:	0b c0       	mov	r11, r24
    42ca:	80 ff 04 00 	jarl	42ce <__dtoa_r+0xdba>, lp
    42ce:	44 fa       	add	4, lp
    42d0:	7d 00       	jmp	[r29]
    42d2:	0b 38       	mov	r11, r7
    42d4:	0a 30       	mov	r10, r6
    42d6:	0b d0       	mov	r11, r26
    42d8:	0a b8       	mov	r10, r23
    42da:	80 ff 22 56 	jarl	98fc <___fixdfsi>, lp
    42de:	0a 30       	mov	r10, r6
    42e0:	0a d8       	mov	r10, r27
    42e2:	80 ff 6e 55 	jarl	9850 <___floatsidf>, lp
    42e6:	17 30       	mov	r23, r6
    42e8:	1a 38       	mov	r26, r7
    42ea:	0a 40       	mov	r10, r8
    42ec:	0b 48       	mov	r11, r9
    42ee:	1b be 30 00 	addi	48, r27, r23
    42f2:	80 ff aa 4e 	jarl	919c <___subdf3>, lp
    42f6:	d8 ba       	shl	24, r23
    42f8:	b8 ba       	sar	24, r23
    42fa:	0a 30       	mov	r10, r6
    42fc:	0b 38       	mov	r11, r7
    42fe:	1c 40       	mov	r28, r8
    4300:	18 48       	mov	r24, r9
    4302:	59 bf 00 00 	st.b	r23, 0[r25]
    4306:	0a d8       	mov	r10, r27
    4308:	0b d0       	mov	r11, r26
    430a:	41 ca       	add	1, r25
    430c:	80 ff d0 54 	jarl	97dc <___ltdf2>, lp
    4310:	60 52       	cmp	0, r10
    4312:	fe b5       	bge	4280 <__dtoa_r+0xd6c>
    4314:	23 67 4d 00 	ld.w	76[sp], r12
    4318:	63 67 19 00 	st.w	r12, 24[sp]
    431c:	40 c6 00 00 	movhi	0, r0, r24
    4320:	38 c6 a0 5c 	movea	23712, r24, r24
    4324:	bf 07 f4 fb 	jr	3f18 <__dtoa_r+0xa04>
    4328:	63 07 35 00 	st.w	r0, 52[sp]
    432c:	23 57 95 00 	ld.w	148[sp], r10
    4330:	60 52       	cmp	0, r10
    4332:	a7 5d       	ble	43e6 <__dtoa_r+0xed2>
    4334:	63 57 41 00 	st.w	r10, 64[sp]
    4338:	0a d8       	mov	r10, r27
    433a:	63 57 25 00 	st.w	r10, 36[sp]
    433e:	bf 07 02 fd 	jr	4040 <__dtoa_r+0xb2c>
    4342:	01 62       	mov	1, r12
    4344:	63 67 35 00 	st.w	r12, 52[sp]
    4348:	a5 f5       	br	432c <__dtoa_r+0xe18>
    434a:	01 62       	mov	1, r12
    434c:	63 67 35 00 	st.w	r12, 52[sp]
    4350:	bf 07 d2 fc 	jr	4022 <__dtoa_r+0xb0e>
    4354:	0b 38       	mov	r11, r7
    4356:	15 30       	mov	r21, r6
    4358:	63 5f 0d 00 	st.w	r11, 12[sp]
    435c:	80 ff 04 00 	jarl	4360 <__dtoa_r+0xe4c>, lp
    4360:	44 fa       	add	4, lp
    4362:	77 00       	jmp	[r23]
    4364:	23 5f 0d 00 	ld.w	12[sp], r11
    4368:	02 30       	mov	r2, r6
    436a:	0b 38       	mov	r11, r7
    436c:	63 57 0d 00 	st.w	r10, 12[sp]
    4370:	80 ff 04 00 	jarl	4374 <__dtoa_r+0xe60>, lp
    4374:	44 fa       	add	4, lp
    4376:	78 00       	jmp	[r24]
    4378:	23 57 0d 00 	ld.w	12[sp], r10
    437c:	60 52       	cmp	0, r10
    437e:	b2 05       	be	4384 <__dtoa_r+0xe70>
    4380:	bf 07 00 fa 	jr	3d80 <__dtoa_r+0x86c>
    4384:	23 67 91 00 	ld.w	144[sp], r12
    4388:	60 62       	cmp	0, r12
    438a:	b2 05       	be	4390 <__dtoa_r+0xe7c>
    438c:	bf 07 f4 f9 	jr	3d80 <__dtoa_r+0x86c>
    4390:	23 5f 25 00 	ld.w	36[sp], r11
    4394:	60 5a       	cmp	0, r11
    4396:	b2 05       	be	439c <__dtoa_r+0xe88>
    4398:	bf 07 e8 f9 	jr	3d80 <__dtoa_r+0x86c>
    439c:	16 b8       	mov	r22, r23
    439e:	20 56 39 00 	movea	57, r0, r10
    43a2:	14 b0       	mov	r20, r22
    43a4:	23 a7 29 00 	ld.w	40[sp], r20
    43a8:	ea b9       	cmp	r10, r23
    43aa:	ba 05       	bne	43b0 <__dtoa_r+0xe9c>
    43ac:	80 07 ea 04 	jr	4896 <__dtoa_r+0x1382>
    43b0:	60 ca       	cmp	0, r25
    43b2:	b7 05       	ble	43b8 <__dtoa_r+0xea4>
    43b4:	16 be 31 00 	addi	49, r22, r23
    43b8:	23 67 15 00 	ld.w	20[sp], r12
    43bc:	63 df 29 00 	st.w	r27, 40[sp]
    43c0:	0c c8       	mov	r12, r25
    43c2:	4c bf 00 00 	st.b	r23, 0[r12]
    43c6:	41 ca       	add	1, r25
    43c8:	bf 07 1a fb 	jr	3ee2 <__dtoa_r+0x9ce>
    43cc:	1c 38       	mov	r28, r7
    43ce:	02 30       	mov	r2, r6
    43d0:	0a 42       	mov	10, r8
    43d2:	00 4a       	mov	0, r9
    43d4:	80 ff 04 00 	jarl	43d8 <__dtoa_r+0xec4>, lp
    43d8:	44 fa       	add	4, lp
    43da:	79 00       	jmp	[r25]
    43dc:	0a e0       	mov	r10, r28
    43de:	0a d8       	mov	r10, r27
    43e0:	41 ea       	add	1, r29
    43e2:	bf 07 4c f9 	jr	3d2e <__dtoa_r+0x81a>
    43e6:	01 da       	mov	1, r27
    43e8:	63 df 41 00 	st.w	r27, 64[sp]
    43ec:	63 df 25 00 	st.w	r27, 36[sp]
    43f0:	63 df 95 00 	st.w	r27, 148[sp]
    43f4:	62 07 45 00 	st.w	r0, 68[r2]
    43f8:	00 3a       	mov	0, r7
    43fa:	bf 07 6c fc 	jr	4066 <__dtoa_r+0xb52>
    43fe:	3a 57 11 00 	ld.w	16[r26], r10
    4402:	44 52       	add	4, r10
    4404:	c2 52       	shl	2, r10
    4406:	da 51       	add	r26, r10
    4408:	2a 37 01 00 	ld.w	0[r10], r6
    440c:	80 ff 78 1a 	jarl	5e84 <___hi0bits>, lp
    4410:	20 5e 20 00 	movea	32, r0, r11
    4414:	aa 59       	sub	r10, r11
    4416:	bf 07 3a f8 	jr	3c50 <__dtoa_r+0x73c>
    441a:	15 30       	mov	r21, r6
    441c:	1a 38       	mov	r26, r7
    441e:	80 ff 2e 1f 	jarl	634c <___mcmp>, lp
    4422:	60 52       	cmp	0, r10
    4424:	b6 05       	blt	442a <__dtoa_r+0xf16>
    4426:	bf 07 98 f8 	jr	3cbe <__dtoa_r+0x7aa>
    442a:	40 de 00 00 	movhi	0, r0, r27
    442e:	15 38       	mov	r21, r7
    4430:	02 30       	mov	r2, r6
    4432:	0a 42       	mov	10, r8
    4434:	00 4a       	mov	0, r9
    4436:	3b de c0 5c 	movea	23744, r27, r27
    443a:	80 ff 04 00 	jarl	443e <__dtoa_r+0xf2a>, lp
    443e:	44 fa       	add	4, lp
    4440:	7b 00       	jmp	[r27]
    4442:	23 67 19 00 	ld.w	24[sp], r12
    4446:	0a a8       	mov	r10, r21
    4448:	5f 62       	add	-1, r12
    444a:	63 67 19 00 	st.w	r12, 24[sp]
    444e:	23 67 35 00 	ld.w	52[sp], r12
    4452:	60 62       	cmp	0, r12
    4454:	b2 05       	be	445a <__dtoa_r+0xf46>
    4456:	80 07 d6 04 	jr	492c <__dtoa_r+0x1418>
    445a:	23 67 41 00 	ld.w	64[sp], r12
    445e:	63 67 25 00 	st.w	r12, 36[sp]
    4462:	bf 07 5c f8 	jr	3cbe <__dtoa_r+0x7aa>
    4466:	23 67 91 00 	ld.w	144[sp], r12
    446a:	62 62       	cmp	2, r12
    446c:	bf 05       	bgt	4472 <__dtoa_r+0xf5e>
    446e:	bf 07 5c f8 	jr	3cca <__dtoa_r+0x7b6>
    4472:	23 67 25 00 	ld.w	36[sp], r12
    4476:	60 62       	cmp	0, r12
    4478:	b2 05       	be	447e <__dtoa_r+0xf6a>
    447a:	bf 07 66 fb 	jr	3fe0 <__dtoa_r+0xacc>
    447e:	1a 38       	mov	r26, r7
    4480:	02 30       	mov	r2, r6
    4482:	05 42       	mov	5, r8
    4484:	00 4a       	mov	0, r9
    4486:	80 ff 3a 18 	jarl	5cc0 <___multadd>, lp
    448a:	15 30       	mov	r21, r6
    448c:	0a 38       	mov	r10, r7
    448e:	0a d0       	mov	r10, r26
    4490:	80 ff bc 1e 	jarl	634c <___mcmp>, lp
    4494:	60 52       	cmp	0, r10
    4496:	bf 05       	bgt	449c <__dtoa_r+0xf88>
    4498:	bf 07 48 fb 	jr	3fe0 <__dtoa_r+0xacc>
    449c:	23 67 19 00 	ld.w	24[sp], r12
    44a0:	20 56 31 00 	movea	49, r0, r10
    44a4:	41 62       	add	1, r12
    44a6:	54 57 00 00 	st.b	r10, 0[r20]
    44aa:	14 ce 01 00 	addi	1, r20, r25
    44ae:	63 67 19 00 	st.w	r12, 24[sp]
    44b2:	bf 07 3a fb 	jr	3fec <__dtoa_r+0xad8>
    44b6:	40 c6 00 00 	movhi	0, r0, r24
    44ba:	23 af 11 00 	ld.w	16[sp], r21
    44be:	23 a7 15 00 	ld.w	20[sp], r20
    44c2:	38 c6 a0 5c 	movea	23712, r24, r24
    44c6:	bf 07 52 fa 	jr	3f18 <__dtoa_r+0xa04>
    44ca:	1b 30       	mov	r27, r6
    44cc:	80 ff 84 53 	jarl	9850 <___floatsidf>, lp
    44d0:	0a 30       	mov	r10, r6
    44d2:	0b 38       	mov	r11, r7
    44d4:	1a 40       	mov	r26, r8
    44d6:	16 48       	mov	r22, r9
    44d8:	80 ff 04 00 	jarl	44dc <__dtoa_r+0xfc8>, lp
    44dc:	44 fa       	add	4, lp
    44de:	7d 00       	jmp	[r29]
    44e0:	0a 30       	mov	r10, r6
    44e2:	0b 38       	mov	r11, r7
    44e4:	00 42       	mov	0, r8
    44e6:	40 4e 1c 40 	movhi	16412, r0, r9
    44ea:	80 ff 4a 4c 	jarl	9134 <___adddf3>, lp
    44ee:	40 ce c0 fc 	movhi	-832, r0, r25
    44f2:	0a d8       	mov	r10, r27
    44f4:	cb c9       	add	r11, r25
    44f6:	1a 30       	mov	r26, r6
    44f8:	16 38       	mov	r22, r7
    44fa:	00 42       	mov	0, r8
    44fc:	40 4e 14 40 	movhi	16404, r0, r9
    4500:	80 ff 9c 4c 	jarl	919c <___subdf3>, lp
    4504:	0a 30       	mov	r10, r6
    4506:	0b 38       	mov	r11, r7
    4508:	1b 40       	mov	r27, r8
    450a:	19 48       	mov	r25, r9
    450c:	0a d0       	mov	r10, r26
    450e:	0b c0       	mov	r11, r24
    4510:	80 ff e4 51 	jarl	96f4 <___gtdf2>, lp
    4514:	60 52       	cmp	0, r10
    4516:	b7 05       	ble	451c <__dtoa_r+0x1008>
    4518:	80 07 c0 02 	jr	47d8 <__dtoa_r+0x12c4>
    451c:	40 4e 00 80 	movhi	-32768, r0, r9
    4520:	1a 30       	mov	r26, r6
    4522:	18 38       	mov	r24, r7
    4524:	1b 40       	mov	r27, r8
    4526:	d9 49       	add	r25, r9
    4528:	80 ff b4 52 	jarl	97dc <___ltdf2>, lp
    452c:	60 52       	cmp	0, r10
    452e:	b6 05       	blt	4534 <__dtoa_r+0x1020>
    4530:	bf 07 70 f3 	jr	38a0 <__dtoa_r+0x38c>
    4534:	40 c6 00 00 	movhi	0, r0, r24
    4538:	00 d2       	mov	0, r26
    453a:	63 07 29 00 	st.w	r0, 40[sp]
    453e:	38 c6 a0 5c 	movea	23712, r24, r24
    4542:	bf 07 9e fa 	jr	3fe0 <__dtoa_r+0xacc>
    4546:	23 57 2d 00 	ld.w	44[sp], r10
    454a:	23 67 31 00 	ld.w	48[sp], r12
    454e:	9a 51       	subr	r26, r10
    4550:	ca 61       	add	r10, r12
    4552:	63 d7 2d 00 	st.w	r26, 44[sp]
    4556:	63 67 31 00 	st.w	r12, 48[sp]
    455a:	00 d2       	mov	0, r26
    455c:	bf 07 62 f5 	jr	3abe <__dtoa_r+0x5aa>
    4560:	40 ce 01 00 	movhi	1, r0, r25
    4564:	39 ce 84 94 	movea	-27516, r25, r25
    4568:	17 d0       	mov	r23, r26
    456a:	1c c0       	mov	r28, r24
    456c:	02 da       	mov	2, r27
    456e:	63 cf 29 00 	st.w	r25, 40[sp]
    4572:	bf 07 94 fb 	jr	4106 <__dtoa_r+0xbf2>
    4576:	16 b8       	mov	r22, r23
    4578:	17 e8       	mov	r23, r29
    457a:	14 b0       	mov	r20, r22
    457c:	23 a7 29 00 	ld.w	40[sp], r20
    4580:	60 52       	cmp	0, r10
    4582:	b7 1d       	ble	45b8 <__dtoa_r+0x10a4>
    4584:	15 38       	mov	r21, r7
    4586:	02 30       	mov	r2, r6
    4588:	01 42       	mov	1, r8
    458a:	80 ff ca 1c 	jarl	6254 <___lshift>, lp
    458e:	23 67 2d 00 	ld.w	44[sp], r12
    4592:	0a 30       	mov	r10, r6
    4594:	1a 38       	mov	r26, r7
    4596:	0a a8       	mov	r10, r21
    4598:	80 ff 04 00 	jarl	459c <__dtoa_r+0x1088>, lp
    459c:	44 fa       	add	4, lp
    459e:	6c 00       	jmp	[r12]
    45a0:	60 52       	cmp	0, r10
    45a2:	bf 05       	bgt	45a8 <__dtoa_r+0x1094>
    45a4:	80 07 72 03 	jr	4916 <__dtoa_r+0x1402>
    45a8:	20 56 39 00 	movea	57, r0, r10
    45ac:	16 be 31 00 	addi	49, r22, r23
    45b0:	ea e9       	cmp	r10, r29
    45b2:	ba 05       	bne	45b8 <__dtoa_r+0x10a4>
    45b4:	80 07 e2 02 	jr	4896 <__dtoa_r+0x1382>
    45b8:	23 5f 15 00 	ld.w	20[sp], r11
    45bc:	63 df 29 00 	st.w	r27, 40[sp]
    45c0:	0b c8       	mov	r11, r25
    45c2:	4b bf 00 00 	st.b	r23, 0[r11]
    45c6:	41 ca       	add	1, r25
    45c8:	bf 07 1a f9 	jr	3ee2 <__dtoa_r+0x9ce>
    45cc:	60 52       	cmp	0, r10
    45ce:	ea 05       	bne	45da <__dtoa_r+0x10c6>
    45d0:	d7 5e 01 00 	andi	1, r23, r11
    45d4:	b2 05       	be	45da <__dtoa_r+0x10c6>
    45d6:	bf 07 cc f8 	jr	3ea2 <__dtoa_r+0x98e>
    45da:	20 6e 30 00 	movea	48, r0, r13
    45de:	a5 05       	br	45e2 <__dtoa_r+0x10ce>
    45e0:	0b c8       	mov	r11, r25
    45e2:	19 57 ff ff 	ld.b	-1[r25], r10
    45e6:	19 5e ff ff 	addi	-1, r25, r11
    45ea:	d8 52       	shl	24, r10
    45ec:	b8 52       	sar	24, r10
    45ee:	ed 51       	cmp	r13, r10
    45f0:	82 fd       	be	45e0 <__dtoa_r+0x10cc>
    45f2:	bf 07 f0 f8 	jr	3ee2 <__dtoa_r+0x9ce>
    45f6:	23 cf 19 00 	ld.w	24[sp], r25
    45fa:	80 c9       	subr	r0, r25
    45fc:	ba 05       	bne	4602 <__dtoa_r+0x10ee>
    45fe:	80 07 1c 02 	jr	481a <__dtoa_r+0x1306>
    4602:	d9 56 0f 00 	andi	15, r25, r10
    4606:	40 5e 01 00 	movhi	1, r0, r11
    460a:	2b 5e 38 a0 	movea	-24520, r11, r11
    460e:	c3 52       	shl	3, r10
    4610:	cb 51       	add	r11, r10
    4612:	2a 47 01 00 	ld.w	0[r10], r8
    4616:	2a 4f 05 00 	ld.w	4[r10], r9
    461a:	17 30       	mov	r23, r6
    461c:	1c 38       	mov	r28, r7
    461e:	80 ff 04 00 	jarl	4622 <__dtoa_r+0x110e>, lp
    4622:	44 fa       	add	4, lp
    4624:	7d 00       	jmp	[r29]
    4626:	a4 ca       	sar	4, r25
    4628:	0a d0       	mov	r10, r26
    462a:	0b b0       	mov	r11, r22
    462c:	ba 05       	bne	4632 <__dtoa_r+0x111e>
    462e:	80 07 20 03 	jr	494e <__dtoa_r+0x143a>
    4632:	40 c6 01 00 	movhi	1, r0, r24
    4636:	38 c6 10 a0 	movea	-24560, r24, r24
    463a:	02 da       	mov	2, r27
    463c:	d9 66 01 00 	andi	1, r25, r12
    4640:	c2 0d       	be	4658 <__dtoa_r+0x1144>
    4642:	38 47 01 00 	ld.w	0[r24], r8
    4646:	38 4f 05 00 	ld.w	4[r24], r9
    464a:	0a 30       	mov	r10, r6
    464c:	0b 38       	mov	r11, r7
    464e:	80 ff 04 00 	jarl	4652 <__dtoa_r+0x113e>, lp
    4652:	44 fa       	add	4, lp
    4654:	7d 00       	jmp	[r29]
    4656:	41 da       	add	1, r27
    4658:	a1 ca       	sar	1, r25
    465a:	48 c2       	add	8, r24
    465c:	60 ca       	cmp	0, r25
    465e:	fa ed       	bne	463c <__dtoa_r+0x1128>
    4660:	0a d0       	mov	r10, r26
    4662:	0b b0       	mov	r11, r22
    4664:	bf 07 f2 fa 	jr	4156 <__dtoa_r+0xc42>
    4668:	23 5f 29 00 	ld.w	40[sp], r11
    466c:	23 67 39 00 	ld.w	56[sp], r12
    4670:	2b 3f 05 00 	ld.w	4[r11], r7
    4674:	02 30       	mov	r2, r6
    4676:	80 ff 04 00 	jarl	467a <__dtoa_r+0x1166>, lp
    467a:	44 fa       	add	4, lp
    467c:	6c 00       	jmp	[r12]
    467e:	23 5f 29 00 	ld.w	40[sp], r11
    4682:	0a 36 0c 00 	addi	12, r10, r6
    4686:	2b 47 11 00 	ld.w	16[r11], r8
    468a:	0b 38       	mov	r11, r7
    468c:	42 42       	add	2, r8
    468e:	c2 42       	shl	2, r8
    4690:	4c 3a       	add	12, r7
    4692:	0a e8       	mov	r10, r29
    4694:	80 ff 70 15 	jarl	5c04 <_memcpy>, lp
    4698:	02 30       	mov	r2, r6
    469a:	1d 38       	mov	r29, r7
    469c:	01 42       	mov	1, r8
    469e:	80 ff b6 1b 	jarl	6254 <___lshift>, lp
    46a2:	0a d8       	mov	r10, r27
    46a4:	bf 07 52 f6 	jr	3cf6 <__dtoa_r+0x7e2>
    46a8:	41 52       	add	1, r10
    46aa:	4b 57 00 00 	st.b	r10, 0[r11]
    46ae:	bf 07 34 f8 	jr	3ee2 <__dtoa_r+0x9ce>
    46b2:	20 56 39 00 	movea	57, r0, r10
    46b6:	23 a7 29 00 	ld.w	40[sp], r20
    46ba:	ea b1       	cmp	r10, r22
    46bc:	ba 05       	bne	46c2 <__dtoa_r+0x11ae>
    46be:	80 07 d8 01 	jr	4896 <__dtoa_r+0x1382>
    46c2:	23 67 15 00 	ld.w	20[sp], r12
    46c6:	16 5e 01 00 	addi	1, r22, r11
    46ca:	0c c8       	mov	r12, r25
    46cc:	4c 5f 00 00 	st.b	r11, 0[r12]
    46d0:	41 ca       	add	1, r25
    46d2:	63 df 29 00 	st.w	r27, 40[sp]
    46d6:	bf 07 0c f8 	jr	3ee2 <__dtoa_r+0x9ce>
    46da:	23 a7 29 00 	ld.w	40[sp], r20
    46de:	16 b8       	mov	r22, r23
    46e0:	63 df 29 00 	st.w	r27, 40[sp]
    46e4:	bf 07 9a f7 	jr	3e7e <__dtoa_r+0x96a>
    46e8:	2a 37 01 00 	ld.w	0[r10], r6
    46ec:	2a 3f 05 00 	ld.w	4[r10], r7
    46f0:	1b 40       	mov	r27, r8
    46f2:	19 48       	mov	r25, r9
    46f4:	80 ff 04 00 	jarl	46f8 <__dtoa_r+0x11e4>, lp
    46f8:	44 fa       	add	4, lp
    46fa:	7d 00       	jmp	[r29]
    46fc:	16 38       	mov	r22, r7
    46fe:	1a 30       	mov	r26, r6
    4700:	63 5f 51 00 	st.w	r11, 80[sp]
    4704:	63 57 49 00 	st.w	r10, 72[sp]
    4708:	80 ff f4 51 	jarl	98fc <___fixdfsi>, lp
    470c:	0a 30       	mov	r10, r6
    470e:	0a d8       	mov	r10, r27
    4710:	80 ff 40 51 	jarl	9850 <___floatsidf>, lp
    4714:	1a 30       	mov	r26, r6
    4716:	16 38       	mov	r22, r7
    4718:	0a 40       	mov	r10, r8
    471a:	0b 48       	mov	r11, r9
    471c:	80 ff 80 4a 	jarl	919c <___subdf3>, lp
    4720:	1b de 30 00 	addi	48, r27, r27
    4724:	23 67 29 00 	ld.w	40[sp], r12
    4728:	54 df 00 00 	st.b	r27, 0[r20]
    472c:	0a c0       	mov	r10, r24
    472e:	0b 70       	mov	r11, r14
    4730:	14 ce 01 00 	addi	1, r20, r25
    4734:	61 62       	cmp	1, r12
    4736:	f2 2d       	be	4794 <__dtoa_r+0x1280>
    4738:	23 b7 29 00 	ld.w	40[sp], r22
    473c:	19 d0       	mov	r25, r26
    473e:	d4 b1       	add	r20, r22
    4740:	63 e7 55 00 	st.w	r28, 84[sp]
    4744:	00 42       	mov	0, r8
    4746:	40 4e 24 40 	movhi	16420, r0, r9
    474a:	0a 30       	mov	r10, r6
    474c:	0b 38       	mov	r11, r7
    474e:	80 ff 04 00 	jarl	4752 <__dtoa_r+0x123e>, lp
    4752:	44 fa       	add	4, lp
    4754:	7d 00       	jmp	[r29]
    4756:	0b 38       	mov	r11, r7
    4758:	0a 30       	mov	r10, r6
    475a:	0b c0       	mov	r11, r24
    475c:	0a e0       	mov	r10, r28
    475e:	80 ff 9e 51 	jarl	98fc <___fixdfsi>, lp
    4762:	0a 30       	mov	r10, r6
    4764:	0a d8       	mov	r10, r27
    4766:	80 ff ea 50 	jarl	9850 <___floatsidf>, lp
    476a:	1c 30       	mov	r28, r6
    476c:	18 38       	mov	r24, r7
    476e:	0a 40       	mov	r10, r8
    4770:	0b 48       	mov	r11, r9
    4772:	1b de 30 00 	addi	48, r27, r27
    4776:	80 ff 26 4a 	jarl	919c <___subdf3>, lp
    477a:	5a df 00 00 	st.b	r27, 0[r26]
    477e:	41 d2       	add	1, r26
    4780:	f6 d1       	cmp	r22, r26
    4782:	9a e5       	bne	4744 <__dtoa_r+0x1230>
    4784:	0a c0       	mov	r10, r24
    4786:	23 57 29 00 	ld.w	40[sp], r10
    478a:	23 e7 55 00 	ld.w	84[sp], r28
    478e:	5f 52       	add	-1, r10
    4790:	0b 70       	mov	r11, r14
    4792:	ca c9       	add	r10, r25
    4794:	23 37 49 00 	ld.w	72[sp], r6
    4798:	23 3f 51 00 	ld.w	80[sp], r7
    479c:	00 42       	mov	0, r8
    479e:	40 4e e0 3f 	movhi	16352, r0, r9
    47a2:	63 77 09 00 	st.w	r14, 8[sp]
    47a6:	80 ff 8e 49 	jarl	9134 <___adddf3>, lp
    47aa:	23 77 09 00 	ld.w	8[sp], r14
    47ae:	0a 30       	mov	r10, r6
    47b0:	0e 48       	mov	r14, r9
    47b2:	0b 38       	mov	r11, r7
    47b4:	18 40       	mov	r24, r8
    47b6:	80 ff 26 50 	jarl	97dc <___ltdf2>, lp
    47ba:	23 77 09 00 	ld.w	8[sp], r14
    47be:	60 52       	cmp	0, r10
    47c0:	9e 7d       	bge	48b2 <__dtoa_r+0x139e>
    47c2:	19 6f ff ff 	ld.b	-1[r25], r13
    47c6:	23 67 4d 00 	ld.w	76[sp], r12
    47ca:	0d b0       	mov	r13, r22
    47cc:	d8 b2       	shl	24, r22
    47ce:	63 67 19 00 	st.w	r12, 24[sp]
    47d2:	b8 b2       	sar	24, r22
    47d4:	bf 07 74 f2 	jr	3a48 <__dtoa_r+0x534>
    47d8:	40 c6 00 00 	movhi	0, r0, r24
    47dc:	00 d2       	mov	0, r26
    47de:	63 07 29 00 	st.w	r0, 40[sp]
    47e2:	38 c6 a0 5c 	movea	23712, r24, r24
    47e6:	bf 07 b6 fc 	jr	449c <__dtoa_r+0xf88>
    47ea:	ac e9       	sub	r12, r29
    47ec:	00 52       	mov	0, r10
    47ee:	bf 07 e4 f2 	jr	3ad2 <__dtoa_r+0x5be>
    47f2:	01 52       	mov	1, r10
    47f4:	bf 07 78 f6 	jr	3e6c <__dtoa_r+0x958>
    47f8:	16 6e 01 00 	addi	1, r22, r13
    47fc:	d8 6a       	shl	24, r13
    47fe:	b8 6a       	sar	24, r13
    4800:	bf 07 86 f2 	jr	3a86 <__dtoa_r+0x572>
    4804:	23 5f 59 00 	ld.w	88[sp], r11
    4808:	20 56 36 00 	movea	54, r0, r10
    480c:	ab 51       	sub	r11, r10
    480e:	23 d7 2d 00 	ld.w	44[sp], r26
    4812:	23 ef 21 00 	ld.w	32[sp], r29
    4816:	bf 07 bc f2 	jr	3ad2 <__dtoa_r+0x5be>
    481a:	17 d0       	mov	r23, r26
    481c:	1c b0       	mov	r28, r22
    481e:	02 da       	mov	2, r27
    4820:	bf 07 36 f9 	jr	4156 <__dtoa_r+0xc42>
    4824:	23 67 25 00 	ld.w	36[sp], r12
    4828:	60 62       	cmp	0, r12
    482a:	ba 05       	bne	4830 <__dtoa_r+0x131c>
    482c:	bf 07 9e fc 	jr	44ca <__dtoa_r+0xfb6>
    4830:	23 67 41 00 	ld.w	64[sp], r12
    4834:	60 62       	cmp	0, r12
    4836:	bf 05       	bgt	483c <__dtoa_r+0x1328>
    4838:	bf 07 68 f0 	jr	38a0 <__dtoa_r+0x38c>
    483c:	16 38       	mov	r22, r7
    483e:	1a 30       	mov	r26, r6
    4840:	00 42       	mov	0, r8
    4842:	40 4e 24 40 	movhi	16420, r0, r9
    4846:	80 ff 04 00 	jarl	484a <__dtoa_r+0x1336>, lp
    484a:	44 fa       	add	4, lp
    484c:	7d 00       	jmp	[r29]
    484e:	1b 36 01 00 	addi	1, r27, r6
    4852:	0a d0       	mov	r10, r26
    4854:	0b b0       	mov	r11, r22
    4856:	80 ff fa 4f 	jarl	9850 <___floatsidf>, lp
    485a:	1a 30       	mov	r26, r6
    485c:	16 38       	mov	r22, r7
    485e:	0a 40       	mov	r10, r8
    4860:	0b 48       	mov	r11, r9
    4862:	80 ff 04 00 	jarl	4866 <__dtoa_r+0x1352>, lp
    4866:	44 fa       	add	4, lp
    4868:	7d 00       	jmp	[r29]
    486a:	0a 30       	mov	r10, r6
    486c:	0b 38       	mov	r11, r7
    486e:	00 42       	mov	0, r8
    4870:	40 4e 1c 40 	movhi	16412, r0, r9
    4874:	80 ff c0 48 	jarl	9134 <___adddf3>, lp
    4878:	23 67 19 00 	ld.w	24[sp], r12
    487c:	40 ce c0 fc 	movhi	-832, r0, r25
    4880:	5f 62       	add	-1, r12
    4882:	63 67 4d 00 	st.w	r12, 76[sp]
    4886:	23 67 41 00 	ld.w	64[sp], r12
    488a:	0a d8       	mov	r10, r27
    488c:	cb c9       	add	r11, r25
    488e:	63 67 29 00 	st.w	r12, 40[sp]
    4892:	bf 07 2a f9 	jr	41bc <__dtoa_r+0xca8>
    4896:	23 67 15 00 	ld.w	20[sp], r12
    489a:	20 56 39 00 	movea	57, r0, r10
    489e:	0c c8       	mov	r12, r25
    48a0:	4c 57 00 00 	st.b	r10, 0[r12]
    48a4:	41 ca       	add	1, r25
    48a6:	63 df 29 00 	st.w	r27, 40[sp]
    48aa:	20 56 39 00 	movea	57, r0, r10
    48ae:	bf 07 fc f5 	jr	3eaa <__dtoa_r+0x996>
    48b2:	23 47 49 00 	ld.w	72[sp], r8
    48b6:	23 4f 51 00 	ld.w	80[sp], r9
    48ba:	00 32       	mov	0, r6
    48bc:	40 3e e0 3f 	movhi	16352, r0, r7
    48c0:	63 77 09 00 	st.w	r14, 8[sp]
    48c4:	80 ff d8 48 	jarl	919c <___subdf3>, lp
    48c8:	23 77 09 00 	ld.w	8[sp], r14
    48cc:	0a 30       	mov	r10, r6
    48ce:	0b 38       	mov	r11, r7
    48d0:	18 40       	mov	r24, r8
    48d2:	0e 48       	mov	r14, r9
    48d4:	80 ff 20 4e 	jarl	96f4 <___gtdf2>, lp
    48d8:	60 52       	cmp	0, r10
    48da:	bf 05       	bgt	48e0 <__dtoa_r+0x13cc>
    48dc:	bf 07 c4 ef 	jr	38a0 <__dtoa_r+0x38c>
    48e0:	20 6e 30 00 	movea	48, r0, r13
    48e4:	a5 05       	br	48e8 <__dtoa_r+0x13d4>
    48e6:	0b c8       	mov	r11, r25
    48e8:	19 57 ff ff 	ld.b	-1[r25], r10
    48ec:	19 5e ff ff 	addi	-1, r25, r11
    48f0:	d8 52       	shl	24, r10
    48f2:	b8 52       	sar	24, r10
    48f4:	ed 51       	cmp	r13, r10
    48f6:	82 fd       	be	48e6 <__dtoa_r+0x13d2>
    48f8:	bf 07 1c fa 	jr	4314 <__dtoa_r+0xe00>
    48fc:	17 b0       	mov	r23, r22
    48fe:	23 67 4d 00 	ld.w	76[sp], r12
    4902:	63 67 19 00 	st.w	r12, 24[sp]
    4906:	bf 07 42 f1 	jr	3a48 <__dtoa_r+0x534>
    490a:	23 e7 29 00 	ld.w	40[sp], r28
    490e:	23 bf 49 00 	ld.w	72[sp], r23
    4912:	bf 07 8e ef 	jr	38a0 <__dtoa_r+0x38c>
    4916:	60 52       	cmp	0, r10
    4918:	b2 05       	be	491e <__dtoa_r+0x140a>
    491a:	bf 07 9e fc 	jr	45b8 <__dtoa_r+0x10a4>
    491e:	d7 56 01 00 	andi	1, r23, r10
    4922:	ba 05       	bne	4928 <__dtoa_r+0x1414>
    4924:	bf 07 94 fc 	jr	45b8 <__dtoa_r+0x10a4>
    4928:	bf 07 80 fc 	jr	45a8 <__dtoa_r+0x1094>
    492c:	23 3f 29 00 	ld.w	40[sp], r7
    4930:	02 30       	mov	r2, r6
    4932:	0a 42       	mov	10, r8
    4934:	00 4a       	mov	0, r9
    4936:	80 ff 04 00 	jarl	493a <__dtoa_r+0x1426>, lp
    493a:	44 fa       	add	4, lp
    493c:	7b 00       	jmp	[r27]
    493e:	23 67 41 00 	ld.w	64[sp], r12
    4942:	63 57 29 00 	st.w	r10, 40[sp]
    4946:	63 67 25 00 	st.w	r12, 36[sp]
    494a:	bf 07 74 f3 	jr	3cbe <__dtoa_r+0x7aa>
    494e:	02 da       	mov	2, r27
    4950:	bf 07 06 f8 	jr	4156 <__dtoa_r+0xc42>
    4954:	64 5a       	cmp	4, r11
    4956:	ba 05       	bne	495c <__dtoa_r+0x1448>
    4958:	bf 07 32 f3 	jr	3c8a <__dtoa_r+0x776>
    495c:	20 5e 3c 00 	movea	60, r0, r11
    4960:	aa 59       	sub	r10, r11
    4962:	bf 07 12 f3 	jr	3c74 <__dtoa_r+0x760>
    4966:	01 d2       	mov	1, r26
    4968:	bf 07 82 ee 	jr	37ea <__dtoa_r+0x2d6>
    496c:	00 3a       	mov	0, r7
    496e:	bf 07 f8 f6 	jr	4066 <__dtoa_r+0xb52>
	...

00004974 <___sflush_r>:
    4974:	03 1e ec ff 	addi	-20, sp, sp
    4978:	63 d7 0d 00 	st.w	r26, 12[sp]
    497c:	63 e7 05 00 	st.w	r28, 4[sp]
    4980:	63 ff 11 00 	st.w	lp, 16[sp]
    4984:	63 df 09 00 	st.w	r27, 8[sp]
    4988:	63 ef 01 00 	st.w	r29, 0[sp]
    498c:	27 57 0c 00 	ld.h	12[r7], r10
    4990:	40 5e 08 00 	movhi	8, r0, r11
    4994:	d0 52       	shl	16, r10
    4996:	4a 59       	and	r10, r11
    4998:	07 e0       	mov	r7, r28
    499a:	06 d0       	mov	r6, r26
    499c:	b0 52       	sar	16, r10
    499e:	60 5a       	cmp	0, r11
    49a0:	ba 55       	bne	4a46 <___sflush_r+0xd2>
    49a2:	8a 5e 00 08 	ori	2048, r10, r11
    49a6:	27 67 05 00 	ld.w	4[r7], r12
    49aa:	67 5f 0c 00 	st.h	r11, 12[r7]
    49ae:	60 62       	cmp	0, r12
    49b0:	b7 7d       	ble	4aa6 <___sflush_r+0x132>
    49b2:	3c 67 29 00 	ld.w	40[r28], r12
    49b6:	60 62       	cmp	0, r12
    49b8:	c2 45       	be	4a40 <___sflush_r+0xcc>
    49ba:	3a ef 01 00 	ld.w	0[r26], r29
    49be:	ca 56 00 10 	andi	4096, r10, r10
    49c2:	7a 07 01 00 	st.w	r0, 0[r26]
    49c6:	f2 75       	be	4ab4 <___sflush_r+0x140>
    49c8:	3c 47 51 00 	ld.w	80[r28], r8
    49cc:	cb 5e 04 00 	andi	4, r11, r11
    49d0:	b2 0d       	be	49e6 <___sflush_r+0x72>
    49d2:	3c 5f 05 00 	ld.w	4[r28], r11
    49d6:	3c 57 31 00 	ld.w	48[r28], r10
    49da:	ab 41       	sub	r11, r8
    49dc:	60 52       	cmp	0, r10
    49de:	c2 05       	be	49e6 <___sflush_r+0x72>
    49e0:	3c 57 3d 00 	ld.w	60[r28], r10
    49e4:	aa 41       	sub	r10, r8
    49e6:	3c 3f 1d 00 	ld.w	28[r28], r7
    49ea:	1a 30       	mov	r26, r6
    49ec:	00 4a       	mov	0, r9
    49ee:	80 ff 04 00 	jarl	49f2 <___sflush_r+0x7e>, lp
    49f2:	44 fa       	add	4, lp
    49f4:	6c 00       	jmp	[r12]
    49f6:	7f 52       	cmp	-1, r10
    49f8:	a2 75       	be	4adc <___sflush_r+0x168>
    49fa:	3c 5f 0c 00 	ld.h	12[r28], r11
    49fe:	3c 67 11 00 	ld.w	16[r28], r12
    4a02:	d0 5a       	shl	16, r11
    4a04:	b0 5a       	sar	16, r11
    4a06:	20 6e ff f7 	movea	-2049, r0, r13
    4a0a:	4b 69       	and	r11, r13
    4a0c:	7c 6f 0c 00 	st.h	r13, 12[r28]
    4a10:	7c 07 05 00 	st.w	r0, 4[r28]
    4a14:	7c 67 01 00 	st.w	r12, 0[r28]
    4a18:	cb 5e 00 10 	andi	4096, r11, r11
    4a1c:	b2 05       	be	4a22 <___sflush_r+0xae>
    4a1e:	80 07 12 01 	jr	4b30 <___sflush_r+0x1bc>
    4a22:	3c 3f 31 00 	ld.w	48[r28], r7
    4a26:	7a ef 01 00 	st.w	r29, 0[r26]
    4a2a:	60 3a       	cmp	0, r7
    4a2c:	a2 0d       	be	4a40 <___sflush_r+0xcc>
    4a2e:	1c 56 40 00 	addi	64, r28, r10
    4a32:	ea 39       	cmp	r10, r7
    4a34:	c2 05       	be	4a3c <___sflush_r+0xc8>
    4a36:	1a 30       	mov	r26, r6
    4a38:	80 ff e8 04 	jarl	4f20 <__free_r>, lp
    4a3c:	7c 07 31 00 	st.w	r0, 48[r28]
    4a40:	00 52       	mov	0, r10
    4a42:	80 07 8e 43 	jr	8dd0 <__return_r26_r31>
    4a46:	27 df 11 00 	ld.w	16[r7], r27
    4a4a:	60 da       	cmp	0, r27
    4a4c:	a2 fd       	be	4a40 <___sflush_r+0xcc>
    4a4e:	27 ef 01 00 	ld.w	0[r7], r29
    4a52:	ca 56 03 00 	andi	3, r10, r10
    4a56:	67 df 01 00 	st.w	r27, 0[r7]
    4a5a:	bb e9       	sub	r27, r29
    4a5c:	60 52       	cmp	0, r10
    4a5e:	aa 25       	bne	4aa2 <___sflush_r+0x12e>
    4a60:	27 57 15 00 	ld.w	20[r7], r10
    4a64:	7c 57 09 00 	st.w	r10, 8[r28]
    4a68:	60 ea       	cmp	0, r29
    4a6a:	df 05       	bgt	4a74 <___sflush_r+0x100>
    4a6c:	a5 ed       	br	4a40 <___sflush_r+0xcc>
    4a6e:	ca d9       	add	r10, r27
    4a70:	60 ea       	cmp	0, r29
    4a72:	f7 e5       	ble	4a40 <___sflush_r+0xcc>
    4a74:	3c 57 25 00 	ld.w	36[r28], r10
    4a78:	3c 3f 1d 00 	ld.w	28[r28], r7
    4a7c:	1d 48       	mov	r29, r9
    4a7e:	1b 40       	mov	r27, r8
    4a80:	1a 30       	mov	r26, r6
    4a82:	80 ff 04 00 	jarl	4a86 <___sflush_r+0x112>, lp
    4a86:	44 fa       	add	4, lp
    4a88:	6a 00       	jmp	[r10]
    4a8a:	aa e9       	sub	r10, r29
    4a8c:	60 52       	cmp	0, r10
    4a8e:	8f f5       	bgt	4a6e <___sflush_r+0xfa>
    4a90:	3c 5f 0c 00 	ld.h	12[r28], r11
    4a94:	1f 52       	mov	-1, r10
    4a96:	8b 5e 40 00 	ori	64, r11, r11
    4a9a:	7c 5f 0c 00 	st.h	r11, 12[r28]
    4a9e:	80 07 32 43 	jr	8dd0 <__return_r26_r31>
    4aa2:	00 52       	mov	0, r10
    4aa4:	85 e5       	br	4a64 <___sflush_r+0xf0>
    4aa6:	27 67 3d 00 	ld.w	60[r7], r12
    4aaa:	60 62       	cmp	0, r12
    4aac:	b7 05       	ble	4ab2 <___sflush_r+0x13e>
    4aae:	bf 07 04 ff 	jr	49b2 <___sflush_r+0x3e>
    4ab2:	f5 c5       	br	4a40 <___sflush_r+0xcc>
    4ab4:	3c 3f 1d 00 	ld.w	28[r28], r7
    4ab8:	00 42       	mov	0, r8
    4aba:	1a 30       	mov	r26, r6
    4abc:	01 4a       	mov	1, r9
    4abe:	80 ff 04 00 	jarl	4ac2 <___sflush_r+0x14e>, lp
    4ac2:	44 fa       	add	4, lp
    4ac4:	6c 00       	jmp	[r12]
    4ac6:	0a 40       	mov	r10, r8
    4ac8:	7f 52       	cmp	-1, r10
    4aca:	b2 25       	be	4b10 <___sflush_r+0x19c>
    4acc:	3c 5f 0c 00 	ld.h	12[r28], r11
    4ad0:	3c 67 29 00 	ld.w	40[r28], r12
    4ad4:	d0 5a       	shl	16, r11
    4ad6:	b0 5a       	sar	16, r11
    4ad8:	bf 07 f4 fe 	jr	49cc <___sflush_r+0x58>
    4adc:	3a 5f 01 00 	ld.w	0[r26], r11
    4ae0:	60 5a       	cmp	0, r11
    4ae2:	c2 8d       	be	49fa <___sflush_r+0x86>
    4ae4:	20 66 1d 00 	movea	29, r0, r12
    4ae8:	ec 59       	cmp	r12, r11
    4aea:	d2 05       	be	4af4 <___sflush_r+0x180>
    4aec:	20 66 16 00 	movea	22, r0, r12
    4af0:	ec 59       	cmp	r12, r11
    4af2:	ba 25       	bne	4b38 <___sflush_r+0x1c4>
    4af4:	3c 5f 0c 00 	ld.h	12[r28], r11
    4af8:	3c 57 11 00 	ld.w	16[r28], r10
    4afc:	20 66 ff f7 	movea	-2049, r0, r12
    4b00:	4c 59       	and	r12, r11
    4b02:	7c 5f 0c 00 	st.h	r11, 12[r28]
    4b06:	7c 07 05 00 	st.w	r0, 4[r28]
    4b0a:	7c 57 01 00 	st.w	r10, 0[r28]
    4b0e:	a5 8d       	br	4a22 <___sflush_r+0xae>
    4b10:	3a 57 01 00 	ld.w	0[r26], r10
    4b14:	60 52       	cmp	0, r10
    4b16:	b2 dd       	be	4acc <___sflush_r+0x158>
    4b18:	20 5e 1d 00 	movea	29, r0, r11
    4b1c:	eb 51       	cmp	r11, r10
    4b1e:	d2 05       	be	4b28 <___sflush_r+0x1b4>
    4b20:	20 5e 16 00 	movea	22, r0, r11
    4b24:	eb 51       	cmp	r11, r10
    4b26:	da b5       	bne	4a90 <___sflush_r+0x11c>
    4b28:	7a ef 01 00 	st.w	r29, 0[r26]
    4b2c:	00 52       	mov	0, r10
    4b2e:	a5 8d       	br	4a42 <___sflush_r+0xce>
    4b30:	7c 57 51 00 	st.w	r10, 80[r28]
    4b34:	bf 07 ee fe 	jr	4a22 <___sflush_r+0xae>
    4b38:	3c 5f 0c 00 	ld.h	12[r28], r11
    4b3c:	8b 5e 40 00 	ori	64, r11, r11
    4b40:	7c 5f 0c 00 	st.h	r11, 12[r28]
    4b44:	bf 07 fe fe 	jr	4a42 <___sflush_r+0xce>

00004b48 <__fflush_r>:
    4b48:	54 1a       	add	-12, sp
    4b4a:	63 ef 05 00 	st.w	r29, 4[sp]
    4b4e:	63 ff 09 00 	st.w	lp, 8[sp]
    4b52:	06 e8       	mov	r6, r29
    4b54:	60 32       	cmp	0, r6
    4b56:	d2 05       	be	4b60 <__fflush_r+0x18>
    4b58:	26 57 39 00 	ld.w	56[r6], r10
    4b5c:	60 52       	cmp	0, r10
    4b5e:	f2 0d       	be	4b7c <__fflush_r+0x34>
    4b60:	27 57 0c 00 	ld.h	12[r7], r10
    4b64:	d0 52       	shl	16, r10
    4b66:	da 05       	bne	4b70 <__fflush_r+0x28>
    4b68:	44 1a       	add	4, sp
    4b6a:	00 52       	mov	0, r10
    4b6c:	bf 07 0e c9 	jr	147a <__return_r29_r31>
    4b70:	1d 30       	mov	r29, r6
    4b72:	bf ff 02 fe 	jarl	4974 <___sflush_r>, lp
    4b76:	44 1a       	add	4, sp
    4b78:	bf 07 02 c9 	jr	147a <__return_r29_r31>
    4b7c:	63 3f 01 00 	st.w	r7, 0[sp]
    4b80:	80 ff 30 01 	jarl	4cb0 <___sinit>, lp
    4b84:	23 3f 01 00 	ld.w	0[sp], r7
    4b88:	c5 ed       	br	4b60 <__fflush_r+0x18>
	...

00004b8c <_fflush>:
    4b8c:	5c 1a       	add	-4, sp
    4b8e:	63 ff 01 00 	st.w	lp, 0[sp]
    4b92:	06 38       	mov	r6, r7
    4b94:	60 32       	cmp	0, r6
    4b96:	f2 05       	be	4ba4 <_fflush+0x18>
    4b98:	24 37 bd 08 	ld.w	2236[gp], r6
    4b9c:	bf ff ac ff 	jarl	4b48 <__fflush_r>, lp
    4ba0:	bf 07 e8 c8 	jr	1488 <__return_r31>
    4ba4:	24 37 85 fe 	ld.w	-380[gp], r6
    4ba8:	40 3e 00 00 	movhi	0, r0, r7
    4bac:	27 3e 48 4b 	movea	19272, r7, r7
    4bb0:	80 ff 48 06 	jarl	51f8 <__fwalk_reent>, lp
    4bb4:	bf 07 d4 c8 	jr	1488 <__return_r31>

00004bb8 <___fp_lock>:
    4bb8:	00 52       	mov	0, r10
    4bba:	7f 00       	jmp	[lp]

00004bbc <___fp_unlock>:
    4bbc:	00 52       	mov	0, r10
    4bbe:	7f 00       	jmp	[lp]

00004bc0 <__cleanup_r>:
    4bc0:	40 3e 00 00 	movhi	0, r0, r7
    4bc4:	5c 1a       	add	-4, sp
    4bc6:	27 3e fc 79 	movea	31228, r7, r7
    4bca:	63 ff 01 00 	st.w	lp, 0[sp]
    4bce:	80 ff aa 05 	jarl	5178 <__fwalk>, lp
    4bd2:	bf 07 b6 c8 	jr	1488 <__return_r31>
	...

00004bd8 <_std.isra___0>:
    4bd8:	58 1a       	add	-8, sp
    4bda:	63 ef 01 00 	st.w	r29, 0[sp]
    4bde:	63 ff 05 00 	st.w	lp, 4[sp]
    4be2:	06 e8       	mov	r6, r29
    4be4:	66 3f 0c 00 	st.h	r7, 12[r6]
    4be8:	66 47 0e 00 	st.h	r8, 14[r6]
    4bec:	66 07 01 00 	st.w	r0, 0[r6]
    4bf0:	66 07 05 00 	st.w	r0, 4[r6]
    4bf4:	66 07 09 00 	st.w	r0, 8[r6]
    4bf8:	66 07 65 00 	st.w	r0, 100[r6]
    4bfc:	66 07 11 00 	st.w	r0, 16[r6]
    4c00:	66 07 15 00 	st.w	r0, 20[r6]
    4c04:	66 07 19 00 	st.w	r0, 24[r6]
    4c08:	00 3a       	mov	0, r7
    4c0a:	06 36 5c 00 	addi	92, r6, r6
    4c0e:	08 42       	mov	8, r8
    4c10:	bf ff f8 c9 	jarl	1608 <_memset>, lp
    4c14:	40 56 00 00 	movhi	0, r0, r10
    4c18:	2a 56 18 69 	movea	26904, r10, r10
    4c1c:	7d 57 21 00 	st.w	r10, 32[r29]
    4c20:	40 56 00 00 	movhi	0, r0, r10
    4c24:	2a 56 58 69 	movea	26968, r10, r10
    4c28:	7d 57 25 00 	st.w	r10, 36[r29]
    4c2c:	40 56 00 00 	movhi	0, r0, r10
    4c30:	2a 56 c4 69 	movea	27076, r10, r10
    4c34:	7d 57 29 00 	st.w	r10, 40[r29]
    4c38:	40 56 00 00 	movhi	0, r0, r10
    4c3c:	2a 56 04 6a 	movea	27140, r10, r10
    4c40:	7d ef 1d 00 	st.w	r29, 28[r29]
    4c44:	7d 57 2d 00 	st.w	r10, 44[r29]
    4c48:	bf 07 32 c8 	jr	147a <__return_r29_r31>

00004c4c <___sfmoreglue>:
    4c4c:	50 1a       	add	-16, sp
    4c4e:	63 e7 05 00 	st.w	r28, 4[sp]
    4c52:	07 e0       	mov	r7, r28
    4c54:	63 ef 01 00 	st.w	r29, 0[sp]
    4c58:	20 3e 68 00 	movea	104, r0, r7
    4c5c:	06 e8       	mov	r6, r29
    4c5e:	1c 30       	mov	r28, r6
    4c60:	63 ff 0d 00 	st.w	lp, 12[sp]
    4c64:	63 df 09 00 	st.w	r27, 8[sp]
    4c68:	80 ff b0 3e 	jarl	8b18 <___mulsi3>, lp
    4c6c:	1d 30       	mov	r29, r6
    4c6e:	0a 3e 0c 00 	addi	12, r10, r7
    4c72:	0a d8       	mov	r10, r27
    4c74:	80 ff 40 08 	jarl	54b4 <__malloc_r>, lp
    4c78:	0a e8       	mov	r10, r29
    4c7a:	60 52       	cmp	0, r10
    4c7c:	d2 0d       	be	4c96 <___sfmoreglue+0x4a>
    4c7e:	4c 52       	add	12, r10
    4c80:	7d 07 01 00 	st.w	r0, 0[r29]
    4c84:	0a 30       	mov	r10, r6
    4c86:	00 3a       	mov	0, r7
    4c88:	1b 40       	mov	r27, r8
    4c8a:	7d e7 05 00 	st.w	r28, 4[r29]
    4c8e:	7d 57 09 00 	st.w	r10, 8[r29]
    4c92:	bf ff 76 c9 	jarl	1608 <_memset>, lp
    4c96:	1d 50       	mov	r29, r10
    4c98:	80 07 6c 41 	jr	8e04 <__return_r27_r31>

00004c9c <__cleanup>:
    4c9c:	24 37 85 fe 	ld.w	-380[gp], r6
    4ca0:	5c 1a       	add	-4, sp
    4ca2:	63 ff 01 00 	st.w	lp, 0[sp]
    4ca6:	bf ff 1a ff 	jarl	4bc0 <__cleanup_r>, lp
    4caa:	bf 07 de c7 	jr	1488 <__return_r31>
	...

00004cb0 <___sinit>:
    4cb0:	50 1a       	add	-16, sp
    4cb2:	63 ef 01 00 	st.w	r29, 0[sp]
    4cb6:	63 ff 0d 00 	st.w	lp, 12[sp]
    4cba:	63 df 09 00 	st.w	r27, 8[sp]
    4cbe:	63 e7 05 00 	st.w	r28, 4[sp]
    4cc2:	26 57 39 00 	ld.w	56[r6], r10
    4cc6:	06 e8       	mov	r6, r29
    4cc8:	60 52       	cmp	0, r10
    4cca:	8a 35       	bne	4d2a <___sinit+0x7a>
    4ccc:	40 5e 00 00 	movhi	0, r0, r11
    4cd0:	26 37 05 00 	ld.w	4[r6], r6
    4cd4:	2b 5e c0 4b 	movea	19392, r11, r11
    4cd8:	40 e6 00 00 	movhi	0, r0, r28
    4cdc:	1d 56 ec 02 	addi	748, r29, r10
    4ce0:	01 da       	mov	1, r27
    4ce2:	04 3a       	mov	4, r7
    4ce4:	00 42       	mov	0, r8
    4ce6:	3c e6 d8 4b 	movea	19416, r28, r28
    4cea:	7d 5f 3d 00 	st.w	r11, 60[r29]
    4cee:	7d 07 e1 02 	st.w	r0, 736[r29]
    4cf2:	03 5a       	mov	3, r11
    4cf4:	7d 5f e5 02 	st.w	r11, 740[r29]
    4cf8:	7d 57 e9 02 	st.w	r10, 744[r29]
    4cfc:	7d df 39 00 	st.w	r27, 56[r29]
    4d00:	80 ff 04 00 	jarl	4d04 <___sinit+0x54>, lp
    4d04:	44 fa       	add	4, lp
    4d06:	7c 00       	jmp	[r28]
    4d08:	3d 37 09 00 	ld.w	8[r29], r6
    4d0c:	09 3a       	mov	9, r7
    4d0e:	1b 40       	mov	r27, r8
    4d10:	80 ff 04 00 	jarl	4d14 <___sinit+0x64>, lp
    4d14:	44 fa       	add	4, lp
    4d16:	7c 00       	jmp	[r28]
    4d18:	3d 37 0d 00 	ld.w	12[r29], r6
    4d1c:	20 3e 12 00 	movea	18, r0, r7
    4d20:	02 42       	mov	2, r8
    4d22:	80 ff 04 00 	jarl	4d26 <___sinit+0x76>, lp
    4d26:	44 fa       	add	4, lp
    4d28:	7c 00       	jmp	[r28]
    4d2a:	80 07 da 40 	jr	8e04 <__return_r27_r31>
	...

00004d30 <___sfp>:
    4d30:	50 1a       	add	-16, sp
    4d32:	63 e7 05 00 	st.w	r28, 4[sp]
    4d36:	24 e7 85 fe 	ld.w	-380[gp], r28
    4d3a:	63 df 09 00 	st.w	r27, 8[sp]
    4d3e:	63 ff 0d 00 	st.w	lp, 12[sp]
    4d42:	63 ef 01 00 	st.w	r29, 0[sp]
    4d46:	3c 57 39 00 	ld.w	56[r28], r10
    4d4a:	06 d8       	mov	r6, r27
    4d4c:	60 52       	cmp	0, r10
    4d4e:	f2 3d       	be	4dcc <___sfp+0x9c>
    4d50:	1c e6 e0 02 	addi	736, r28, r28
    4d54:	3c 57 05 00 	ld.w	4[r28], r10
    4d58:	3c ef 09 00 	ld.w	8[r28], r29
    4d5c:	5f 52       	add	-1, r10
    4d5e:	60 52       	cmp	0, r10
    4d60:	fe 05       	bge	4d6e <___sfp+0x3e>
    4d62:	f5 2d       	br	4dc0 <___sfp+0x90>
    4d64:	5f 52       	add	-1, r10
    4d66:	1d ee 68 00 	addi	104, r29, r29
    4d6a:	7f 52       	cmp	-1, r10
    4d6c:	a2 2d       	be	4dc0 <___sfp+0x90>
    4d6e:	3d 5f 0c 00 	ld.h	12[r29], r11
    4d72:	d0 5a       	shl	16, r11
    4d74:	8a fd       	bne	4d64 <___sfp+0x34>
    4d76:	1f 52       	mov	-1, r10
    4d78:	7d 57 0e 00 	st.h	r10, 14[r29]
    4d7c:	7d 07 65 00 	st.w	r0, 100[r29]
    4d80:	01 52       	mov	1, r10
    4d82:	7d 07 01 00 	st.w	r0, 0[r29]
    4d86:	7d 07 09 00 	st.w	r0, 8[r29]
    4d8a:	7d 07 05 00 	st.w	r0, 4[r29]
    4d8e:	7d 07 11 00 	st.w	r0, 16[r29]
    4d92:	7d 07 15 00 	st.w	r0, 20[r29]
    4d96:	7d 07 19 00 	st.w	r0, 24[r29]
    4d9a:	1d 36 5c 00 	addi	92, r29, r6
    4d9e:	00 3a       	mov	0, r7
    4da0:	08 42       	mov	8, r8
    4da2:	7d 57 0c 00 	st.h	r10, 12[r29]
    4da6:	bf ff 62 c8 	jarl	1608 <_memset>, lp
    4daa:	7d 07 31 00 	st.w	r0, 48[r29]
    4dae:	7d 07 35 00 	st.w	r0, 52[r29]
    4db2:	7d 07 45 00 	st.w	r0, 68[r29]
    4db6:	7d 07 49 00 	st.w	r0, 72[r29]
    4dba:	1d 50       	mov	r29, r10
    4dbc:	80 07 48 40 	jr	8e04 <__return_r27_r31>
    4dc0:	3c 57 01 00 	ld.w	0[r28], r10
    4dc4:	60 52       	cmp	0, r10
    4dc6:	f2 05       	be	4dd4 <___sfp+0xa4>
    4dc8:	0a e0       	mov	r10, r28
    4dca:	d5 c5       	br	4d54 <___sfp+0x24>
    4dcc:	1c 30       	mov	r28, r6
    4dce:	bf ff e2 fe 	jarl	4cb0 <___sinit>, lp
    4dd2:	f5 bd       	br	4d50 <___sfp+0x20>
    4dd4:	1b 30       	mov	r27, r6
    4dd6:	04 3a       	mov	4, r7
    4dd8:	bf ff 74 fe 	jarl	4c4c <___sfmoreglue>, lp
    4ddc:	7c 57 01 00 	st.w	r10, 0[r28]
    4de0:	60 52       	cmp	0, r10
    4de2:	ba f5       	bne	4dc8 <___sfp+0x98>
    4de4:	0c 52       	mov	12, r10
    4de6:	7b 57 01 00 	st.w	r10, 0[r27]
    4dea:	00 ea       	mov	0, r29
    4dec:	f5 e5       	br	4dba <___sfp+0x8a>
	...

00004df0 <___sfp_lock_acquire>:
    4df0:	7f 00       	jmp	[lp]
	...

00004df4 <___sfp_lock_release>:
    4df4:	7f 00       	jmp	[lp]
	...

00004df8 <___sinit_lock_acquire>:
    4df8:	7f 00       	jmp	[lp]
	...

00004dfc <___sinit_lock_release>:
    4dfc:	7f 00       	jmp	[lp]
	...

00004e00 <___fp_lock_all>:
    4e00:	24 37 bd 08 	ld.w	2236[gp], r6
    4e04:	40 3e 00 00 	movhi	0, r0, r7
    4e08:	5c 1a       	add	-4, sp
    4e0a:	27 3e b8 4b 	movea	19384, r7, r7
    4e0e:	63 ff 01 00 	st.w	lp, 0[sp]
    4e12:	80 ff 66 03 	jarl	5178 <__fwalk>, lp
    4e16:	bf 07 72 c6 	jr	1488 <__return_r31>
	...

00004e1c <___fp_unlock_all>:
    4e1c:	24 37 bd 08 	ld.w	2236[gp], r6
    4e20:	40 3e 00 00 	movhi	0, r0, r7
    4e24:	5c 1a       	add	-4, sp
    4e26:	27 3e bc 4b 	movea	19388, r7, r7
    4e2a:	63 ff 01 00 	st.w	lp, 0[sp]
    4e2e:	80 ff 4a 03 	jarl	5178 <__fwalk>, lp
    4e32:	bf 07 56 c6 	jr	1488 <__return_r31>
	...

00004e38 <__malloc_trim_r>:
    4e38:	03 1e e8 ff 	addi	-24, sp, sp
    4e3c:	63 df 09 00 	st.w	r27, 8[sp]
    4e40:	40 de 01 00 	movhi	1, r0, r27
    4e44:	63 d7 0d 00 	st.w	r26, 12[sp]
    4e48:	63 e7 05 00 	st.w	r28, 4[sp]
    4e4c:	07 d0       	mov	r7, r26
    4e4e:	63 ef 01 00 	st.w	r29, 0[sp]
    4e52:	63 ff 15 00 	st.w	lp, 20[sp]
    4e56:	63 cf 11 00 	st.w	r25, 16[sp]
    4e5a:	06 e0       	mov	r6, r28
    4e5c:	3b de b0 a8 	movea	-22352, r27, r27
    4e60:	80 ff c0 0d 	jarl	5c20 <___malloc_lock>, lp
    4e64:	3b 57 09 00 	ld.w	8[r27], r10
    4e68:	20 5e 00 f0 	movea	-4096, r0, r11
    4e6c:	2a ef 05 00 	ld.w	4[r10], r29
    4e70:	1c 52       	mov	-4, r10
    4e72:	4a e9       	and	r10, r29
    4e74:	1d 56 ef 0f 	addi	4079, r29, r10
    4e78:	ba 51       	sub	r26, r10
    4e7a:	4b 51       	and	r11, r10
    4e7c:	0a d6 00 f0 	addi	-4096, r10, r26
    4e80:	20 56 ff 0f 	movea	4095, r0, r10
    4e84:	ea d1       	cmp	r10, r26
    4e86:	87 15       	ble	4ea6 <__malloc_trim_r+0x6e>
    4e88:	40 ce 00 00 	movhi	0, r0, r25
    4e8c:	1c 30       	mov	r28, r6
    4e8e:	00 3a       	mov	0, r7
    4e90:	39 ce c4 68 	movea	26820, r25, r25
    4e94:	80 ff 04 00 	jarl	4e98 <__malloc_trim_r+0x60>, lp
    4e98:	44 fa       	add	4, lp
    4e9a:	79 00       	jmp	[r25]
    4e9c:	3b 5f 09 00 	ld.w	8[r27], r11
    4ea0:	dd 59       	add	r29, r11
    4ea2:	eb 51       	cmp	r11, r10
    4ea4:	f2 05       	be	4eb2 <__malloc_trim_r+0x7a>
    4ea6:	1c 30       	mov	r28, r6
    4ea8:	80 ff 7c 0d 	jarl	5c24 <___malloc_unlock>, lp
    4eac:	00 52       	mov	0, r10
    4eae:	80 07 e6 3e 	jr	8d94 <__return_r25_r31>
    4eb2:	1a 38       	mov	r26, r7
    4eb4:	1c 30       	mov	r28, r6
    4eb6:	80 39       	subr	r0, r7
    4eb8:	80 ff 04 00 	jarl	4ebc <__malloc_trim_r+0x84>, lp
    4ebc:	44 fa       	add	4, lp
    4ebe:	79 00       	jmp	[r25]
    4ec0:	7f 52       	cmp	-1, r10
    4ec2:	d2 15       	be	4eec <__malloc_trim_r+0xb4>
    4ec4:	40 5e 01 00 	movhi	1, r0, r11
    4ec8:	2b 57 cd ac 	ld.w	-21300[r11], r10
    4ecc:	3b 67 09 00 	ld.w	8[r27], r12
    4ed0:	ba e9       	sub	r26, r29
    4ed2:	ba 51       	sub	r26, r10
    4ed4:	9d ee 01 00 	ori	1, r29, r29
    4ed8:	1c 30       	mov	r28, r6
    4eda:	6b 57 cd ac 	st.w	r10, -21300[r11]
    4ede:	6c ef 05 00 	st.w	r29, 4[r12]
    4ee2:	80 ff 42 0d 	jarl	5c24 <___malloc_unlock>, lp
    4ee6:	01 52       	mov	1, r10
    4ee8:	80 07 ac 3e 	jr	8d94 <__return_r25_r31>
    4eec:	1c 30       	mov	r28, r6
    4eee:	00 3a       	mov	0, r7
    4ef0:	80 ff 04 00 	jarl	4ef4 <__malloc_trim_r+0xbc>, lp
    4ef4:	44 fa       	add	4, lp
    4ef6:	79 00       	jmp	[r25]
    4ef8:	3b 5f 09 00 	ld.w	8[r27], r11
    4efc:	0a 60       	mov	r10, r12
    4efe:	ab 61       	sub	r11, r12
    4f00:	6f 62       	cmp	15, r12
    4f02:	a7 d5       	ble	4ea6 <__malloc_trim_r+0x6e>
    4f04:	40 6e 01 00 	movhi	1, r0, r13
    4f08:	2d 6f a9 a8 	ld.w	-22360[r13], r13
    4f0c:	8c 66 01 00 	ori	1, r12, r12
    4f10:	ad 51       	sub	r13, r10
    4f12:	40 6e 01 00 	movhi	1, r0, r13
    4f16:	6d 57 cd ac 	st.w	r10, -21300[r13]
    4f1a:	6b 67 05 00 	st.w	r12, 4[r11]
    4f1e:	c5 c5       	br	4ea6 <__malloc_trim_r+0x6e>

00004f20 <__free_r>:
    4f20:	54 1a       	add	-12, sp
    4f22:	63 e7 05 00 	st.w	r28, 4[sp]
    4f26:	63 ef 01 00 	st.w	r29, 0[sp]
    4f2a:	63 ff 09 00 	st.w	lp, 8[sp]
    4f2e:	07 e8       	mov	r7, r29
    4f30:	06 e0       	mov	r6, r28
    4f32:	60 3a       	cmp	0, r7
    4f34:	c2 6d       	be	500c <__free_r+0xec>
    4f36:	80 ff ea 0c 	jarl	5c20 <___malloc_lock>, lp
    4f3a:	3d 77 fd ff 	ld.w	-4[r29], r14
    4f3e:	1d 6e f8 ff 	addi	-8, r29, r13
    4f42:	1e 52       	mov	-2, r10
    4f44:	4e 51       	and	r14, r10
    4f46:	0d 58       	mov	r13, r11
    4f48:	40 7e 01 00 	movhi	1, r0, r15
    4f4c:	ca 59       	add	r10, r11
    4f4e:	2f 7e b0 a8 	movea	-22352, r15, r15
    4f52:	2b 67 05 00 	ld.w	4[r11], r12
    4f56:	2f 87 09 00 	ld.w	8[r15], r16
    4f5a:	1c 8a       	mov	-4, r17
    4f5c:	51 61       	and	r17, r12
    4f5e:	eb 81       	cmp	r11, r16
    4f60:	ba 05       	bne	4f66 <__free_r+0x46>
    4f62:	80 07 44 01 	jr	50a6 <__free_r+0x186>
    4f66:	6b 67 05 00 	st.w	r12, 4[r11]
    4f6a:	ce 76 01 00 	andi	1, r14, r14
    4f6e:	92 55       	be	5010 <__free_r+0xf0>
    4f70:	00 72       	mov	0, r14
    4f72:	0b 80       	mov	r11, r16
    4f74:	cc 81       	add	r12, r16
    4f76:	d0 c7 04 00 	tst1	0, 4[r16]
    4f7a:	ca 0d       	bne	4f92 <__free_r+0x72>
    4f7c:	cc 51       	add	r12, r10
    4f7e:	2b 67 09 00 	ld.w	8[r11], r12
    4f82:	60 72       	cmp	0, r14
    4f84:	a2 7d       	be	5078 <__free_r+0x158>
    4f86:	2b 5f 0d 00 	ld.w	12[r11], r11
    4f8a:	6c 5f 0d 00 	st.w	r11, 12[r12]
    4f8e:	6b 67 09 00 	st.w	r12, 8[r11]
    4f92:	0d 58       	mov	r13, r11
    4f94:	8a 66 01 00 	ori	1, r10, r12
    4f98:	ca 59       	add	r10, r11
    4f9a:	6d 67 05 00 	st.w	r12, 4[r13]
    4f9e:	6b 57 01 00 	st.w	r10, 0[r11]
    4fa2:	60 72       	cmp	0, r14
    4fa4:	9a 35       	bne	5006 <__free_r+0xe6>
    4fa6:	20 5e ff 01 	movea	511, r0, r11
    4faa:	eb 51       	cmp	r11, r10
    4fac:	e3 45       	bnh	5038 <__free_r+0x118>
    4fae:	0a 58       	mov	r10, r11
    4fb0:	89 5a       	shr	9, r11
    4fb2:	64 5a       	cmp	4, r11
    4fb4:	b3 05       	bnh	4fba <__free_r+0x9a>
    4fb6:	80 07 40 01 	jr	50f6 <__free_r+0x1d6>
    4fba:	0a 60       	mov	r10, r12
    4fbc:	86 62       	shr	6, r12
    4fbe:	0c 66 38 00 	addi	56, r12, r12
    4fc2:	0c 70       	mov	r12, r14
    4fc4:	cc 71       	add	r12, r14
    4fc6:	40 8e 01 00 	movhi	1, r0, r17
    4fca:	c2 72       	shl	2, r14
    4fcc:	31 8e b0 a8 	movea	-22352, r17, r17
    4fd0:	d1 71       	add	r17, r14
    4fd2:	2e 5f 09 00 	ld.w	8[r14], r11
    4fd6:	ee 59       	cmp	r14, r11
    4fd8:	ba 05       	bne	4fde <__free_r+0xbe>
    4fda:	80 07 30 01 	jr	510a <__free_r+0x1ea>
    4fde:	2b 67 05 00 	ld.w	4[r11], r12
    4fe2:	1c 7a       	mov	-4, r15
    4fe4:	4f 61       	and	r15, r12
    4fe6:	ec 51       	cmp	r12, r10
    4fe8:	d9 05       	bnl	4ff2 <__free_r+0xd2>
    4fea:	2b 5f 09 00 	ld.w	8[r11], r11
    4fee:	eb 71       	cmp	r11, r14
    4ff0:	fa f5       	bne	4fde <__free_r+0xbe>
    4ff2:	2b 57 0d 00 	ld.w	12[r11], r10
    4ff6:	6d 57 0d 00 	st.w	r10, 12[r13]
    4ffa:	6d 5f 09 00 	st.w	r11, 8[r13]
    4ffe:	6a 6f 09 00 	st.w	r13, 8[r10]
    5002:	6b 6f 0d 00 	st.w	r13, 12[r11]
    5006:	1c 30       	mov	r28, r6
    5008:	80 ff 1c 0c 	jarl	5c24 <___malloc_unlock>, lp
    500c:	bf 07 5c c4 	jr	1468 <__return_r28_r31>
    5010:	3d 77 f9 ff 	ld.w	-8[r29], r14
    5014:	ae 69       	sub	r14, r13
    5016:	ce 51       	add	r14, r10
    5018:	2d 87 09 00 	ld.w	8[r13], r16
    501c:	40 76 01 00 	movhi	1, r0, r14
    5020:	2e 76 b8 a8 	movea	-22344, r14, r14
    5024:	ee 81       	cmp	r14, r16
    5026:	d2 65       	be	50f0 <__free_r+0x1d0>
    5028:	2d 8f 0d 00 	ld.w	12[r13], r17
    502c:	00 72       	mov	0, r14
    502e:	70 8f 0d 00 	st.w	r17, 12[r16]
    5032:	71 87 09 00 	st.w	r16, 8[r17]
    5036:	e5 9d       	br	4f72 <__free_r+0x52>
    5038:	83 52       	shr	3, r10
    503a:	0a 58       	mov	r10, r11
    503c:	ca 59       	add	r10, r11
    503e:	40 66 01 00 	movhi	1, r0, r12
    5042:	c2 5a       	shl	2, r11
    5044:	2c 66 b0 a8 	movea	-22352, r12, r12
    5048:	cc 59       	add	r12, r11
    504a:	2b 77 09 00 	ld.w	8[r11], r14
    504e:	2f 87 05 00 	ld.w	4[r15], r16
    5052:	a2 52       	sar	2, r10
    5054:	01 62       	mov	1, r12
    5056:	ea 67 c0 00 	shl	r10, r12
    505a:	10 61       	or	r16, r12
    505c:	6d 5f 0d 00 	st.w	r11, 12[r13]
    5060:	6d 77 09 00 	st.w	r14, 8[r13]
    5064:	1c 30       	mov	r28, r6
    5066:	6f 67 05 00 	st.w	r12, 4[r15]
    506a:	6b 6f 09 00 	st.w	r13, 8[r11]
    506e:	6e 6f 0d 00 	st.w	r13, 12[r14]
    5072:	80 ff b2 0b 	jarl	5c24 <___malloc_unlock>, lp
    5076:	b5 cd       	br	500c <__free_r+0xec>
    5078:	40 86 01 00 	movhi	1, r0, r16
    507c:	30 86 b8 a8 	movea	-22344, r16, r16
    5080:	f0 61       	cmp	r16, r12
    5082:	aa 85       	bne	4f86 <__free_r+0x66>
    5084:	0d 58       	mov	r13, r11
    5086:	6f 6f 15 00 	st.w	r13, 20[r15]
    508a:	6f 6f 11 00 	st.w	r13, 16[r15]
    508e:	8a 76 01 00 	ori	1, r10, r14
    5092:	ca 59       	add	r10, r11
    5094:	6d 67 0d 00 	st.w	r12, 12[r13]
    5098:	6d 67 09 00 	st.w	r12, 8[r13]
    509c:	6d 77 05 00 	st.w	r14, 4[r13]
    50a0:	6b 57 01 00 	st.w	r10, 0[r11]
    50a4:	95 b5       	br	5006 <__free_r+0xe6>
    50a6:	ce 76 01 00 	andi	1, r14, r14
    50aa:	cc 51       	add	r12, r10
    50ac:	60 72       	cmp	0, r14
    50ae:	da 0d       	bne	50c8 <__free_r+0x1a8>
    50b0:	3d 77 f9 ff 	ld.w	-8[r29], r14
    50b4:	ae 69       	sub	r14, r13
    50b6:	2d 5f 0d 00 	ld.w	12[r13], r11
    50ba:	2d 67 09 00 	ld.w	8[r13], r12
    50be:	ce 51       	add	r14, r10
    50c0:	6c 5f 0d 00 	st.w	r11, 12[r12]
    50c4:	6b 67 09 00 	st.w	r12, 8[r11]
    50c8:	40 5e 01 00 	movhi	1, r0, r11
    50cc:	8a 66 01 00 	ori	1, r10, r12
    50d0:	2b 5f ad a8 	ld.w	-22356[r11], r11
    50d4:	6d 67 05 00 	st.w	r12, 4[r13]
    50d8:	6f 6f 09 00 	st.w	r13, 8[r15]
    50dc:	eb 51       	cmp	r11, r10
    50de:	c1 95       	bl	5006 <__free_r+0xe6>
    50e0:	40 56 01 00 	movhi	1, r0, r10
    50e4:	2a 3f fd ac 	ld.w	-21252[r10], r7
    50e8:	1c 30       	mov	r28, r6
    50ea:	bf ff 4e fd 	jarl	4e38 <__malloc_trim_r>, lp
    50ee:	c5 8d       	br	5006 <__free_r+0xe6>
    50f0:	01 72       	mov	1, r14
    50f2:	bf 07 80 fe 	jr	4f72 <__free_r+0x52>
    50f6:	20 66 14 00 	movea	20, r0, r12
    50fa:	ec 59       	cmp	r12, r11
    50fc:	bb 15       	bh	5122 <__free_r+0x202>
    50fe:	0b 66 5b 00 	addi	91, r11, r12
    5102:	0c 70       	mov	r12, r14
    5104:	cc 71       	add	r12, r14
    5106:	bf 07 c0 fe 	jr	4fc6 <__free_r+0xa6>
    510a:	2f 77 05 00 	ld.w	4[r15], r14
    510e:	a2 62       	sar	2, r12
    5110:	01 52       	mov	1, r10
    5112:	ec 57 c0 00 	shl	r12, r10
    5116:	0e 51       	or	r14, r10
    5118:	6f 57 05 00 	st.w	r10, 4[r15]
    511c:	0b 50       	mov	r11, r10
    511e:	bf 07 d8 fe 	jr	4ff6 <__free_r+0xd6>
    5122:	20 66 54 00 	movea	84, r0, r12
    5126:	ec 59       	cmp	r12, r11
    5128:	9b 0d       	bh	513a <__free_r+0x21a>
    512a:	0a 60       	mov	r10, r12
    512c:	8c 62       	shr	12, r12
    512e:	0c 66 6e 00 	addi	110, r12, r12
    5132:	0c 70       	mov	r12, r14
    5134:	cc 71       	add	r12, r14
    5136:	bf 07 90 fe 	jr	4fc6 <__free_r+0xa6>
    513a:	20 66 54 01 	movea	340, r0, r12
    513e:	ec 59       	cmp	r12, r11
    5140:	9b 0d       	bh	5152 <__free_r+0x232>
    5142:	0a 60       	mov	r10, r12
    5144:	8f 62       	shr	15, r12
    5146:	0c 66 77 00 	addi	119, r12, r12
    514a:	0c 70       	mov	r12, r14
    514c:	cc 71       	add	r12, r14
    514e:	bf 07 78 fe 	jr	4fc6 <__free_r+0xa6>
    5152:	20 66 54 05 	movea	1364, r0, r12
    5156:	ec 59       	cmp	r12, r11
    5158:	9b 0d       	bh	516a <__free_r+0x24a>
    515a:	0a 60       	mov	r10, r12
    515c:	92 62       	shr	18, r12
    515e:	0c 66 7c 00 	addi	124, r12, r12
    5162:	0c 70       	mov	r12, r14
    5164:	cc 71       	add	r12, r14
    5166:	bf 07 60 fe 	jr	4fc6 <__free_r+0xa6>
    516a:	20 76 fc 00 	movea	252, r0, r14
    516e:	20 66 7e 00 	movea	126, r0, r12
    5172:	bf 07 54 fe 	jr	4fc6 <__free_r+0xa6>
	...

00005178 <__fwalk>:
    5178:	03 1e e8 ff 	addi	-24, sp, sp
    517c:	63 cf 11 00 	st.w	r25, 16[sp]
    5180:	63 d7 0d 00 	st.w	r26, 12[sp]
    5184:	63 df 09 00 	st.w	r27, 8[sp]
    5188:	63 ff 15 00 	st.w	lp, 20[sp]
    518c:	63 e7 05 00 	st.w	r28, 4[sp]
    5190:	63 ef 01 00 	st.w	r29, 0[sp]
    5194:	06 de e0 02 	addi	736, r6, r27
    5198:	07 c8       	mov	r7, r25
    519a:	00 d2       	mov	0, r26
    519c:	a2 2d       	be	51f0 <__fwalk+0x78>
    519e:	3b e7 05 00 	ld.w	4[r27], r28
    51a2:	3b ef 09 00 	ld.w	8[r27], r29
    51a6:	5f e2       	add	-1, r28
    51a8:	60 e2       	cmp	0, r28
    51aa:	f6 1d       	blt	51e8 <__fwalk+0x70>
    51ac:	1d ee 68 00 	addi	104, r29, r29
    51b0:	3d 5f a4 ff 	ld.h	-92[r29], r11
    51b4:	5f e2       	add	-1, r28
    51b6:	d0 5a       	shl	16, r11
    51b8:	b0 5a       	sar	16, r11
    51ba:	cb 66 ff ff 	andi	65535, r11, r12
    51be:	1d 36 98 ff 	addi	-104, r29, r6
    51c2:	60 5a       	cmp	0, r11
    51c4:	e2 0d       	be	51e0 <__fwalk+0x68>
    51c6:	61 62       	cmp	1, r12
    51c8:	c3 0d       	bnh	51e0 <__fwalk+0x68>
    51ca:	3d 5f a6 ff 	ld.h	-90[r29], r11
    51ce:	d0 5a       	shl	16, r11
    51d0:	b0 5a       	sar	16, r11
    51d2:	7f 5a       	cmp	-1, r11
    51d4:	e2 05       	be	51e0 <__fwalk+0x68>
    51d6:	80 ff 04 00 	jarl	51da <__fwalk+0x62>, lp
    51da:	44 fa       	add	4, lp
    51dc:	79 00       	jmp	[r25]
    51de:	0a d1       	or	r10, r26
    51e0:	1d ee 68 00 	addi	104, r29, r29
    51e4:	7f e2       	cmp	-1, r28
    51e6:	da e5       	bne	51b0 <__fwalk+0x38>
    51e8:	3b df 01 00 	ld.w	0[r27], r27
    51ec:	60 da       	cmp	0, r27
    51ee:	8a dd       	bne	519e <__fwalk+0x26>
    51f0:	1a 50       	mov	r26, r10
    51f2:	80 07 a2 3b 	jr	8d94 <__return_r25_r31>
	...

000051f8 <__fwalk_reent>:
    51f8:	03 1e e4 ff 	addi	-28, sp, sp
    51fc:	63 c7 15 00 	st.w	r24, 20[sp]
    5200:	63 cf 11 00 	st.w	r25, 16[sp]
    5204:	63 d7 0d 00 	st.w	r26, 12[sp]
    5208:	63 df 09 00 	st.w	r27, 8[sp]
    520c:	63 ff 19 00 	st.w	lp, 24[sp]
    5210:	63 e7 05 00 	st.w	r28, 4[sp]
    5214:	63 ef 01 00 	st.w	r29, 0[sp]
    5218:	06 de e0 02 	addi	736, r6, r27
    521c:	06 c0       	mov	r6, r24
    521e:	07 c8       	mov	r7, r25
    5220:	00 d2       	mov	0, r26
    5222:	b2 2d       	be	5278 <__fwalk_reent+0x80>
    5224:	3b e7 05 00 	ld.w	4[r27], r28
    5228:	3b ef 09 00 	ld.w	8[r27], r29
    522c:	5f e2       	add	-1, r28
    522e:	60 e2       	cmp	0, r28
    5230:	86 25       	blt	5270 <__fwalk_reent+0x78>
    5232:	1d ee 68 00 	addi	104, r29, r29
    5236:	3d 5f a4 ff 	ld.h	-92[r29], r11
    523a:	5f e2       	add	-1, r28
    523c:	d0 5a       	shl	16, r11
    523e:	b0 5a       	sar	16, r11
    5240:	cb 66 ff ff 	andi	65535, r11, r12
    5244:	1d 3e 98 ff 	addi	-104, r29, r7
    5248:	60 5a       	cmp	0, r11
    524a:	f2 0d       	be	5268 <__fwalk_reent+0x70>
    524c:	61 62       	cmp	1, r12
    524e:	d3 0d       	bnh	5268 <__fwalk_reent+0x70>
    5250:	3d 5f a6 ff 	ld.h	-90[r29], r11
    5254:	18 30       	mov	r24, r6
    5256:	d0 5a       	shl	16, r11
    5258:	b0 5a       	sar	16, r11
    525a:	7f 5a       	cmp	-1, r11
    525c:	e2 05       	be	5268 <__fwalk_reent+0x70>
    525e:	80 ff 04 00 	jarl	5262 <__fwalk_reent+0x6a>, lp
    5262:	44 fa       	add	4, lp
    5264:	79 00       	jmp	[r25]
    5266:	0a d1       	or	r10, r26
    5268:	1d ee 68 00 	addi	104, r29, r29
    526c:	7f e2       	cmp	-1, r28
    526e:	ca e5       	bne	5236 <__fwalk_reent+0x3e>
    5270:	3b df 01 00 	ld.w	0[r27], r27
    5274:	60 da       	cmp	0, r27
    5276:	fa d5       	bne	5224 <__fwalk_reent+0x2c>
    5278:	1a 50       	mov	r26, r10
    527a:	80 07 d6 3a 	jr	8d50 <__return_r24_r31>
	...

00005280 <__setlocale_r>:
    5280:	50 1a       	add	-16, sp
    5282:	63 ef 01 00 	st.w	r29, 0[sp]
    5286:	63 ff 0d 00 	st.w	lp, 12[sp]
    528a:	63 df 09 00 	st.w	r27, 8[sp]
    528e:	63 e7 05 00 	st.w	r28, 4[sp]
    5292:	08 e8       	mov	r8, r29
    5294:	60 42       	cmp	0, r8
    5296:	c2 2d       	be	52ee <__setlocale_r+0x6e>
    5298:	40 3e 01 00 	movhi	1, r0, r7
    529c:	40 de 00 00 	movhi	0, r0, r27
    52a0:	08 30       	mov	r8, r6
    52a2:	27 3e df 9f 	movea	-24609, r7, r7
    52a6:	3b de 1c 6a 	movea	27164, r27, r27
    52aa:	40 e6 01 00 	movhi	1, r0, r28
    52ae:	80 ff 04 00 	jarl	52b2 <__setlocale_r+0x32>, lp
    52b2:	44 fa       	add	4, lp
    52b4:	7b 00       	jmp	[r27]
    52b6:	3c e6 dd 9f 	movea	-24611, r28, r28
    52ba:	60 52       	cmp	0, r10
    52bc:	ca 05       	bne	52c4 <__setlocale_r+0x44>
    52be:	1c 50       	mov	r28, r10
    52c0:	80 07 44 3b 	jr	8e04 <__return_r27_r31>
    52c4:	1d 30       	mov	r29, r6
    52c6:	1c 38       	mov	r28, r7
    52c8:	80 ff 04 00 	jarl	52cc <__setlocale_r+0x4c>, lp
    52cc:	44 fa       	add	4, lp
    52ce:	7b 00       	jmp	[r27]
    52d0:	60 52       	cmp	0, r10
    52d2:	e2 f5       	be	52be <__setlocale_r+0x3e>
    52d4:	40 3e 01 00 	movhi	1, r0, r7
    52d8:	1d 30       	mov	r29, r6
    52da:	27 3e e5 9f 	movea	-24603, r7, r7
    52de:	80 ff 04 00 	jarl	52e2 <__setlocale_r+0x62>, lp
    52e2:	44 fa       	add	4, lp
    52e4:	7b 00       	jmp	[r27]
    52e6:	60 52       	cmp	0, r10
    52e8:	b2 ed       	be	52be <__setlocale_r+0x3e>
    52ea:	00 e2       	mov	0, r28
    52ec:	95 ed       	br	52be <__setlocale_r+0x3e>
    52ee:	40 e6 01 00 	movhi	1, r0, r28
    52f2:	3c e6 dd 9f 	movea	-24611, r28, r28
    52f6:	1c 50       	mov	r28, r10
    52f8:	80 07 0c 3b 	jr	8e04 <__return_r27_r31>

000052fc <___locale_charset>:
    52fc:	40 56 01 00 	movhi	1, r0, r10
    5300:	2a 56 30 a8 	movea	-22480, r10, r10
    5304:	7f 00       	jmp	[lp]
	...

00005308 <___locale_mb_cur_max>:
    5308:	40 56 01 00 	movhi	1, r0, r10
    530c:	2a 57 2d a8 	ld.w	-22484[r10], r10
    5310:	7f 00       	jmp	[lp]
	...

00005314 <___locale_msgcharset>:
    5314:	40 56 01 00 	movhi	1, r0, r10
    5318:	2a 56 50 a8 	movea	-22448, r10, r10
    531c:	7f 00       	jmp	[lp]
	...

00005320 <___locale_cjk_lang>:
    5320:	00 52       	mov	0, r10
    5322:	7f 00       	jmp	[lp]

00005324 <__localeconv_r>:
    5324:	40 56 01 00 	movhi	1, r0, r10
    5328:	2a 56 70 a8 	movea	-22416, r10, r10
    532c:	7f 00       	jmp	[lp]
	...

00005330 <_setlocale>:
    5330:	06 50       	mov	r6, r10
    5332:	24 37 bd 08 	ld.w	2236[gp], r6
    5336:	5c 1a       	add	-4, sp
    5338:	07 40       	mov	r7, r8
    533a:	0a 38       	mov	r10, r7
    533c:	63 ff 01 00 	st.w	lp, 0[sp]
    5340:	bf ff 40 ff 	jarl	5280 <__setlocale_r>, lp
    5344:	bf 07 44 c1 	jr	1488 <__return_r31>

00005348 <_localeconv>:
    5348:	40 56 01 00 	movhi	1, r0, r10
    534c:	2a 56 70 a8 	movea	-22416, r10, r10
    5350:	7f 00       	jmp	[lp]
	...

00005354 <___smakebuf_r>:
    5354:	03 1e b0 ff 	addi	-80, sp, sp
    5358:	63 e7 41 00 	st.w	r28, 64[sp]
    535c:	63 ef 3d 00 	st.w	r29, 60[sp]
    5360:	63 ff 4d 00 	st.w	lp, 76[sp]
    5364:	63 d7 49 00 	st.w	r26, 72[sp]
    5368:	63 df 45 00 	st.w	r27, 68[sp]
    536c:	27 57 0c 00 	ld.h	12[r7], r10
    5370:	40 5e 02 00 	movhi	2, r0, r11
    5374:	d0 52       	shl	16, r10
    5376:	4a 59       	and	r10, r11
    5378:	07 e8       	mov	r7, r29
    537a:	06 e0       	mov	r6, r28
    537c:	b0 52       	sar	16, r10
    537e:	60 5a       	cmp	0, r11
    5380:	8a 55       	bne	5420 <___smakebuf_r+0xcc>
    5382:	27 3f 0e 00 	ld.h	14[r7], r7
    5386:	d0 3a       	shl	16, r7
    5388:	b0 3a       	sar	16, r7
    538a:	60 3a       	cmp	0, r7
    538c:	f6 3d       	blt	540a <___smakebuf_r+0xb6>
    538e:	03 40       	mov	sp, r8
    5390:	80 ff f4 27 	jarl	7b84 <__fstat_r>, lp
    5394:	60 52       	cmp	0, r10
    5396:	e6 35       	blt	5402 <___smakebuf_r+0xae>
    5398:	23 57 05 00 	ld.w	4[sp], r10
    539c:	20 5e 00 20 	movea	8192, r0, r11
    53a0:	ca 56 00 f0 	andi	61440, r10, r10
    53a4:	eb 51       	cmp	r11, r10
    53a6:	e2 d7 00 00 	setf	z, r26
    53aa:	40 5e 01 00 	movhi	1, r0, r11
    53ae:	2b 5e 00 80 	movea	-32768, r11, r11
    53b2:	eb 51       	cmp	r11, r10
    53b4:	e2 45       	be	5440 <___smakebuf_r+0xec>
    53b6:	3d 57 0c 00 	ld.h	12[r29], r10
    53ba:	20 de 00 04 	movea	1024, r0, r27
    53be:	8a 56 00 08 	ori	2048, r10, r10
    53c2:	7d 57 0c 00 	st.h	r10, 12[r29]
    53c6:	1c 30       	mov	r28, r6
    53c8:	1b 38       	mov	r27, r7
    53ca:	80 ff ea 00 	jarl	54b4 <__malloc_r>, lp
    53ce:	60 52       	cmp	0, r10
    53d0:	a2 5d       	be	5484 <___smakebuf_r+0x130>
    53d2:	3d 5f 0c 00 	ld.h	12[r29], r11
    53d6:	40 66 00 00 	movhi	0, r0, r12
    53da:	2c 66 c0 4b 	movea	19392, r12, r12
    53de:	7c 67 3d 00 	st.w	r12, 60[r28]
    53e2:	8b 5e 80 00 	ori	128, r11, r11
    53e6:	7d 5f 0c 00 	st.h	r11, 12[r29]
    53ea:	7d 57 01 00 	st.w	r10, 0[r29]
    53ee:	7d 57 11 00 	st.w	r10, 16[r29]
    53f2:	7d df 15 00 	st.w	r27, 20[r29]
    53f6:	60 d2       	cmp	0, r26
    53f8:	ea 35       	bne	5464 <___smakebuf_r+0x110>
    53fa:	03 1e 3c 00 	addi	60, sp, sp
    53fe:	80 07 d2 39 	jr	8dd0 <__return_r26_r31>
    5402:	3d 57 0c 00 	ld.h	12[r29], r10
    5406:	d0 52       	shl	16, r10
    5408:	b0 52       	sar	16, r10
    540a:	ca 5e 80 00 	andi	128, r10, r11
    540e:	ea 15       	bne	543a <___smakebuf_r+0xe6>
    5410:	20 de 00 04 	movea	1024, r0, r27
    5414:	8a 56 00 08 	ori	2048, r10, r10
    5418:	7d 57 0c 00 	st.h	r10, 12[r29]
    541c:	00 d2       	mov	0, r26
    541e:	c5 d5       	br	53c6 <___smakebuf_r+0x72>
    5420:	07 56 43 00 	addi	67, r7, r10
    5424:	67 57 01 00 	st.w	r10, 0[r7]
    5428:	67 57 11 00 	st.w	r10, 16[r7]
    542c:	03 1e 3c 00 	addi	60, sp, sp
    5430:	01 52       	mov	1, r10
    5432:	67 57 15 00 	st.w	r10, 20[r7]
    5436:	80 07 9a 39 	jr	8dd0 <__return_r26_r31>
    543a:	20 de 40 00 	movea	64, r0, r27
    543e:	b5 ed       	br	5414 <___smakebuf_r+0xc0>
    5440:	40 56 00 00 	movhi	0, r0, r10
    5444:	3d 5f 29 00 	ld.w	40[r29], r11
    5448:	2a 56 c4 69 	movea	27076, r10, r10
    544c:	ea 59       	cmp	r10, r11
    544e:	ca b5       	bne	53b6 <___smakebuf_r+0x62>
    5450:	3d 57 0c 00 	ld.h	12[r29], r10
    5454:	20 de 00 04 	movea	1024, r0, r27
    5458:	1b 51       	or	r27, r10
    545a:	7d 57 0c 00 	st.h	r10, 12[r29]
    545e:	7d df 4d 00 	st.w	r27, 76[r29]
    5462:	a5 b5       	br	53c6 <___smakebuf_r+0x72>
    5464:	3d 3f 0e 00 	ld.h	14[r29], r7
    5468:	1c 30       	mov	r28, r6
    546a:	d0 3a       	shl	16, r7
    546c:	b0 3a       	sar	16, r7
    546e:	80 ff fa 2a 	jarl	7f68 <__isatty_r>, lp
    5472:	60 52       	cmp	0, r10
    5474:	b2 c5       	be	53fa <___smakebuf_r+0xa6>
    5476:	3d 57 0c 00 	ld.h	12[r29], r10
    547a:	8a 56 01 00 	ori	1, r10, r10
    547e:	7d 57 0c 00 	st.h	r10, 12[r29]
    5482:	c5 bd       	br	53fa <___smakebuf_r+0xa6>
    5484:	3d 57 0c 00 	ld.h	12[r29], r10
    5488:	40 5e 00 02 	movhi	512, r0, r11
    548c:	d0 52       	shl	16, r10
    548e:	4a 59       	and	r10, r11
    5490:	b0 52       	sar	16, r10
    5492:	60 5a       	cmp	0, r11
    5494:	ba b5       	bne	53fa <___smakebuf_r+0xa6>
    5496:	8a 56 02 00 	ori	2, r10, r10
    549a:	1d 5e 43 00 	addi	67, r29, r11
    549e:	7d 57 0c 00 	st.h	r10, 12[r29]
    54a2:	01 52       	mov	1, r10
    54a4:	7d 5f 01 00 	st.w	r11, 0[r29]
    54a8:	7d 5f 11 00 	st.w	r11, 16[r29]
    54ac:	7d 57 15 00 	st.w	r10, 20[r29]
    54b0:	d5 a5       	br	53fa <___smakebuf_r+0xa6>
	...

000054b4 <__malloc_r>:
    54b4:	03 1e d0 ff 	addi	-48, sp, sp
    54b8:	63 df 09 00 	st.w	r27, 8[sp]
    54bc:	63 e7 05 00 	st.w	r28, 4[sp]
    54c0:	63 ff 2d 00 	st.w	lp, 44[sp]
    54c4:	63 17 29 00 	st.w	r2, 40[sp]
    54c8:	63 a7 25 00 	st.w	r20, 36[sp]
    54cc:	63 af 21 00 	st.w	r21, 32[sp]
    54d0:	63 b7 1d 00 	st.w	r22, 28[sp]
    54d4:	63 bf 19 00 	st.w	r23, 24[sp]
    54d8:	63 c7 15 00 	st.w	r24, 20[sp]
    54dc:	63 cf 11 00 	st.w	r25, 16[sp]
    54e0:	63 d7 0d 00 	st.w	r26, 12[sp]
    54e4:	63 ef 01 00 	st.w	r29, 0[sp]
    54e8:	07 e6 0b 00 	addi	11, r7, r28
    54ec:	20 56 16 00 	movea	22, r0, r10
    54f0:	06 d8       	mov	r6, r27
    54f2:	ea e1       	cmp	r10, r28
    54f4:	e3 4d       	bnh	5590 <__malloc_r+0xdc>
    54f6:	18 52       	mov	-8, r10
    54f8:	4a e1       	and	r10, r28
    54fa:	60 e2       	cmp	0, r28
    54fc:	e6 4d       	blt	5598 <__malloc_r+0xe4>
    54fe:	fc 39       	cmp	r28, r7
    5500:	cb 4d       	bh	5598 <__malloc_r+0xe4>
    5502:	1b 30       	mov	r27, r6
    5504:	80 ff 1c 07 	jarl	5c20 <___malloc_lock>, lp
    5508:	20 56 f7 01 	movea	503, r0, r10
    550c:	ea e1       	cmp	r10, r28
    550e:	ab 4d       	bh	55a2 <__malloc_r+0xee>
    5510:	40 56 01 00 	movhi	1, r0, r10
    5514:	2a 56 b0 a8 	movea	-22352, r10, r10
    5518:	dc 51       	add	r28, r10
    551a:	2a ef 0d 00 	ld.w	12[r10], r29
    551e:	1c 70       	mov	r28, r14
    5520:	83 72       	shr	3, r14
    5522:	ea e9       	cmp	r10, r29
    5524:	ba 05       	bne	552a <__malloc_r+0x76>
    5526:	80 07 e2 04 	jr	5a08 <__malloc_r+0x554>
    552a:	3d 57 05 00 	ld.w	4[r29], r10
    552e:	1c 62       	mov	-4, r12
    5530:	4c 51       	and	r12, r10
    5532:	dd 51       	add	r29, r10
    5534:	3d 5f 0d 00 	ld.w	12[r29], r11
    5538:	2a 6f 05 00 	ld.w	4[r10], r13
    553c:	3d 67 09 00 	ld.w	8[r29], r12
    5540:	8d 6e 01 00 	ori	1, r13, r13
    5544:	6c 5f 0d 00 	st.w	r11, 12[r12]
    5548:	6b 67 09 00 	st.w	r12, 8[r11]
    554c:	1b 30       	mov	r27, r6
    554e:	6a 6f 05 00 	st.w	r13, 4[r10]
    5552:	80 ff d2 06 	jarl	5c24 <___malloc_unlock>, lp
    5556:	1d 56 08 00 	addi	8, r29, r10
    555a:	23 ff 2d 00 	ld.w	44[sp], lp
    555e:	23 17 29 00 	ld.w	40[sp], r2
    5562:	23 a7 25 00 	ld.w	36[sp], r20
    5566:	23 af 21 00 	ld.w	32[sp], r21
    556a:	23 b7 1d 00 	ld.w	28[sp], r22
    556e:	23 bf 19 00 	ld.w	24[sp], r23
    5572:	23 c7 15 00 	ld.w	20[sp], r24
    5576:	23 cf 11 00 	ld.w	16[sp], r25
    557a:	23 d7 0d 00 	ld.w	12[sp], r26
    557e:	23 df 09 00 	ld.w	8[sp], r27
    5582:	23 e7 05 00 	ld.w	4[sp], r28
    5586:	23 ef 01 00 	ld.w	0[sp], r29
    558a:	03 1e 30 00 	addi	48, sp, sp
    558e:	7f 00       	jmp	[lp]
    5590:	20 e6 10 00 	movea	16, r0, r28
    5594:	fc 39       	cmp	r28, r7
    5596:	e3 b5       	bnh	5502 <__malloc_r+0x4e>
    5598:	0c 52       	mov	12, r10
    559a:	7b 57 01 00 	st.w	r10, 0[r27]
    559e:	00 52       	mov	0, r10
    55a0:	d5 dd       	br	555a <__malloc_r+0xa6>
    55a2:	1c 70       	mov	r28, r14
    55a4:	89 72       	shr	9, r14
    55a6:	a2 35       	be	560a <__malloc_r+0x156>
    55a8:	64 72       	cmp	4, r14
    55aa:	b3 05       	bnh	55b0 <__malloc_r+0xfc>
    55ac:	80 07 3e 03 	jr	58ea <__malloc_r+0x436>
    55b0:	1c 70       	mov	r28, r14
    55b2:	86 72       	shr	6, r14
    55b4:	0e 76 38 00 	addi	56, r14, r14
    55b8:	0e 60       	mov	r14, r12
    55ba:	ce 61       	add	r14, r12
    55bc:	40 86 01 00 	movhi	1, r0, r16
    55c0:	c2 62       	shl	2, r12
    55c2:	30 86 b0 a8 	movea	-22352, r16, r16
    55c6:	d0 61       	add	r16, r12
    55c8:	2c ef 0d 00 	ld.w	12[r12], r29
    55cc:	fd 61       	cmp	r29, r12
    55ce:	c2 25       	be	5616 <__malloc_r+0x162>
    55d0:	3d 57 05 00 	ld.w	4[r29], r10
    55d4:	1c 5a       	mov	-4, r11
    55d6:	4b 51       	and	r11, r10
    55d8:	0a 58       	mov	r10, r11
    55da:	bc 59       	sub	r28, r11
    55dc:	6f 5a       	cmp	15, r11
    55de:	e7 0d       	ble	55fa <__malloc_r+0x146>
    55e0:	a5 1d       	br	5614 <__malloc_r+0x160>
    55e2:	3d ef 0d 00 	ld.w	12[r29], r29
    55e6:	fd 61       	cmp	r29, r12
    55e8:	f2 15       	be	5616 <__malloc_r+0x162>
    55ea:	3d 57 05 00 	ld.w	4[r29], r10
    55ee:	1c 82       	mov	-4, r16
    55f0:	50 51       	and	r16, r10
    55f2:	0a 58       	mov	r10, r11
    55f4:	bc 59       	sub	r28, r11
    55f6:	6f 5a       	cmp	15, r11
    55f8:	ef 0d       	bgt	5614 <__malloc_r+0x160>
    55fa:	60 5a       	cmp	0, r11
    55fc:	b6 f5       	blt	55e2 <__malloc_r+0x12e>
    55fe:	dd 51       	add	r29, r10
    5600:	2a 6f 05 00 	ld.w	4[r10], r13
    5604:	3d 5f 0d 00 	ld.w	12[r29], r11
    5608:	a5 9d       	br	553c <__malloc_r+0x88>
    560a:	1c 70       	mov	r28, r14
    560c:	83 72       	shr	3, r14
    560e:	0e 60       	mov	r14, r12
    5610:	ce 61       	add	r14, r12
    5612:	d5 d5       	br	55bc <__malloc_r+0x108>
    5614:	5f 72       	add	-1, r14
    5616:	41 72       	add	1, r14
    5618:	40 d6 01 00 	movhi	1, r0, r26
    561c:	3a d6 b0 a8 	movea	-22352, r26, r26
    5620:	40 7e 01 00 	movhi	1, r0, r15
    5624:	3a ef 11 00 	ld.w	16[r26], r29
    5628:	2f 7e b8 a8 	movea	-22344, r15, r15
    562c:	ef e9       	cmp	r15, r29
    562e:	ba 05       	bne	5634 <__malloc_r+0x180>
    5630:	80 07 84 03 	jr	59b4 <__malloc_r+0x500>
    5634:	3d 6f 05 00 	ld.w	4[r29], r13
    5638:	1c 52       	mov	-4, r10
    563a:	4a 69       	and	r10, r13
    563c:	0d 50       	mov	r13, r10
    563e:	bc 51       	sub	r28, r10
    5640:	6f 52       	cmp	15, r10
    5642:	b7 05       	ble	5648 <__malloc_r+0x194>
    5644:	80 07 36 03 	jr	597a <__malloc_r+0x4c6>
    5648:	7a 7f 15 00 	st.w	r15, 20[r26]
    564c:	7a 7f 11 00 	st.w	r15, 16[r26]
    5650:	60 52       	cmp	0, r10
    5652:	ee 7d       	bge	574e <__malloc_r+0x29a>
    5654:	20 56 ff 01 	movea	511, r0, r10
    5658:	ea 69       	cmp	r10, r13
    565a:	b3 05       	bnh	5660 <__malloc_r+0x1ac>
    565c:	80 07 b6 02 	jr	5912 <__malloc_r+0x45e>
    5660:	83 6a       	shr	3, r13
    5662:	0d 58       	mov	r13, r11
    5664:	cd 59       	add	r13, r11
    5666:	40 66 01 00 	movhi	1, r0, r12
    566a:	2c 66 b0 a8 	movea	-22352, r12, r12
    566e:	c2 5a       	shl	2, r11
    5670:	cc 59       	add	r12, r11
    5672:	2b 67 09 00 	ld.w	8[r11], r12
    5676:	3a 87 05 00 	ld.w	4[r26], r16
    567a:	a2 6a       	sar	2, r13
    567c:	01 52       	mov	1, r10
    567e:	ed 57 c0 00 	shl	r13, r10
    5682:	10 51       	or	r16, r10
    5684:	7d 5f 0d 00 	st.w	r11, 12[r29]
    5688:	7d 67 09 00 	st.w	r12, 8[r29]
    568c:	7a 57 05 00 	st.w	r10, 4[r26]
    5690:	6b ef 09 00 	st.w	r29, 8[r11]
    5694:	6c ef 0d 00 	st.w	r29, 12[r12]
    5698:	0e 58       	mov	r14, r11
    569a:	a2 5a       	sar	2, r11
    569c:	01 62       	mov	1, r12
    569e:	eb 67 c0 00 	shl	r11, r12
    56a2:	ea 61       	cmp	r10, r12
    56a4:	bb 65       	bh	576a <__malloc_r+0x2b6>
    56a6:	0a 58       	mov	r10, r11
    56a8:	4c 59       	and	r12, r11
    56aa:	ba 0d       	bne	56c0 <__malloc_r+0x20c>
    56ac:	1c 5a       	mov	-4, r11
    56ae:	cc 61       	add	r12, r12
    56b0:	4b 71       	and	r11, r14
    56b2:	a5 05       	br	56b6 <__malloc_r+0x202>
    56b4:	cc 61       	add	r12, r12
    56b6:	0a 58       	mov	r10, r11
    56b8:	4c 59       	and	r12, r11
    56ba:	44 72       	add	4, r14
    56bc:	60 5a       	cmp	0, r11
    56be:	b2 fd       	be	56b4 <__malloc_r+0x200>
    56c0:	0e 80       	mov	r14, r16
    56c2:	ce 81       	add	r14, r16
    56c4:	40 56 01 00 	movhi	1, r0, r10
    56c8:	c2 82       	shl	2, r16
    56ca:	2a 56 b0 a8 	movea	-22352, r10, r10
    56ce:	ca 81       	add	r10, r16
    56d0:	10 68       	mov	r16, r13
    56d2:	0e 88       	mov	r14, r17
    56d4:	2d ef 0d 00 	ld.w	12[r13], r29
    56d8:	fd 69       	cmp	r29, r13
    56da:	da 0d       	bne	56f4 <__malloc_r+0x240>
    56dc:	80 07 e0 02 	jr	59bc <__malloc_r+0x508>
    56e0:	60 5a       	cmp	0, r11
    56e2:	b6 05       	blt	56e8 <__malloc_r+0x234>
    56e4:	80 07 3a 03 	jr	5a1e <__malloc_r+0x56a>
    56e8:	3d ef 0d 00 	ld.w	12[r29], r29
    56ec:	fd 69       	cmp	r29, r13
    56ee:	ba 05       	bne	56f4 <__malloc_r+0x240>
    56f0:	80 07 cc 02 	jr	59bc <__malloc_r+0x508>
    56f4:	3d 57 05 00 	ld.w	4[r29], r10
    56f8:	1c 5a       	mov	-4, r11
    56fa:	4b 51       	and	r11, r10
    56fc:	0a 58       	mov	r10, r11
    56fe:	bc 59       	sub	r28, r11
    5700:	6f 5a       	cmp	15, r11
    5702:	f7 ed       	ble	56e0 <__malloc_r+0x22c>
    5704:	3d 67 0d 00 	ld.w	12[r29], r12
    5708:	3d 6f 09 00 	ld.w	8[r29], r13
    570c:	1d 50       	mov	r29, r10
    570e:	dc 51       	add	r28, r10
    5710:	6d 67 0d 00 	st.w	r12, 12[r13]
    5714:	6c 6f 09 00 	st.w	r13, 8[r12]
    5718:	9c e6 01 00 	ori	1, r28, r28
    571c:	0a 60       	mov	r10, r12
    571e:	7a 57 15 00 	st.w	r10, 20[r26]
    5722:	7a 57 11 00 	st.w	r10, 16[r26]
    5726:	7d e7 05 00 	st.w	r28, 4[r29]
    572a:	8b 6e 01 00 	ori	1, r11, r13
    572e:	cb 61       	add	r11, r12
    5730:	1b 30       	mov	r27, r6
    5732:	6a 7f 0d 00 	st.w	r15, 12[r10]
    5736:	6a 7f 09 00 	st.w	r15, 8[r10]
    573a:	6a 6f 05 00 	st.w	r13, 4[r10]
    573e:	6c 5f 01 00 	st.w	r11, 0[r12]
    5742:	80 ff e2 04 	jarl	5c24 <___malloc_unlock>, lp
    5746:	1d 56 08 00 	addi	8, r29, r10
    574a:	bf 07 10 fe 	jr	555a <__malloc_r+0xa6>
    574e:	dd 69       	add	r29, r13
    5750:	2d 57 05 00 	ld.w	4[r13], r10
    5754:	1b 30       	mov	r27, r6
    5756:	8a 56 01 00 	ori	1, r10, r10
    575a:	6d 57 05 00 	st.w	r10, 4[r13]
    575e:	80 ff c6 04 	jarl	5c24 <___malloc_unlock>, lp
    5762:	1d 56 08 00 	addi	8, r29, r10
    5766:	bf 07 f4 fd 	jr	555a <__malloc_r+0xa6>
    576a:	3a ef 09 00 	ld.w	8[r26], r29
    576e:	1c 62       	mov	-4, r12
    5770:	3d cf 05 00 	ld.w	4[r29], r25
    5774:	4c c9       	and	r12, r25
    5776:	fc c9       	cmp	r28, r25
    5778:	f1 05       	bl	5786 <__malloc_r+0x2d2>
    577a:	19 50       	mov	r25, r10
    577c:	bc 51       	sub	r28, r10
    577e:	6f 52       	cmp	15, r10
    5780:	b7 05       	ble	5786 <__malloc_r+0x2d2>
    5782:	80 07 44 01 	jr	58c6 <__malloc_r+0x412>
    5786:	40 56 01 00 	movhi	1, r0, r10
    578a:	40 16 01 00 	movhi	1, r0, r2
    578e:	2a bf fd ac 	ld.w	-21252[r10], r23
    5792:	22 57 a9 a8 	ld.w	-22360[r2], r10
    5796:	1d a8       	mov	r29, r21
    5798:	d9 a9       	add	r25, r21
    579a:	dc b9       	add	r28, r23
    579c:	7f 52       	cmp	-1, r10
    579e:	ba 05       	bne	57a4 <__malloc_r+0x2f0>
    57a0:	80 07 4e 03 	jr	5aee <__malloc_r+0x63a>
    57a4:	17 be 0f 10 	addi	4111, r23, r23
    57a8:	20 86 00 f0 	movea	-4096, r0, r16
    57ac:	50 b9       	and	r16, r23
    57ae:	40 a6 00 00 	movhi	0, r0, r20
    57b2:	1b 30       	mov	r27, r6
    57b4:	17 38       	mov	r23, r7
    57b6:	34 a6 c4 68 	movea	26820, r20, r20
    57ba:	80 ff 04 00 	jarl	57be <__malloc_r+0x30a>, lp
    57be:	44 fa       	add	4, lp
    57c0:	74 00       	jmp	[r20]
    57c2:	0a c0       	mov	r10, r24
    57c4:	7f 52       	cmp	-1, r10
    57c6:	ba 05       	bne	57cc <__malloc_r+0x318>
    57c8:	80 07 52 03 	jr	5b1a <__malloc_r+0x666>
    57cc:	ea a9       	cmp	r10, r21
    57ce:	b3 05       	bnh	57d4 <__malloc_r+0x320>
    57d0:	80 07 96 02 	jr	5a66 <__malloc_r+0x5b2>
    57d4:	40 b6 01 00 	movhi	1, r0, r22
    57d8:	36 5f cd ac 	ld.w	-21300[r22], r11
    57dc:	d7 59       	add	r23, r11
    57de:	76 5f cd ac 	st.w	r11, -21300[r22]
    57e2:	f8 a9       	cmp	r24, r21
    57e4:	ba 05       	bne	57ea <__malloc_r+0x336>
    57e6:	80 07 44 03 	jr	5b2a <__malloc_r+0x676>
    57ea:	22 57 a9 a8 	ld.w	-22360[r2], r10
    57ee:	7f 52       	cmp	-1, r10
    57f0:	ba 05       	bne	57f6 <__malloc_r+0x342>
    57f2:	80 07 78 03 	jr	5b6a <__malloc_r+0x6b6>
    57f6:	98 a9       	subr	r24, r21
    57f8:	cb a9       	add	r11, r21
    57fa:	76 af cd ac 	st.w	r21, -21300[r22]
    57fe:	d8 5e 07 00 	andi	7, r24, r11
    5802:	ba 05       	bne	5808 <__malloc_r+0x354>
    5804:	80 07 a4 02 	jr	5aa8 <__malloc_r+0x5f4>
    5808:	ab c1       	sub	r11, r24
    580a:	20 56 08 10 	movea	4104, r0, r10
    580e:	48 c2       	add	8, r24
    5810:	ab 51       	sub	r11, r10
    5812:	d8 b9       	add	r24, r23
    5814:	d7 be ff 0f 	andi	4095, r23, r23
    5818:	8a b9       	subr	r10, r23
    581a:	1b 30       	mov	r27, r6
    581c:	17 38       	mov	r23, r7
    581e:	80 ff 04 00 	jarl	5822 <__malloc_r+0x36e>, lp
    5822:	44 fa       	add	4, lp
    5824:	74 00       	jmp	[r20]
    5826:	7f 52       	cmp	-1, r10
    5828:	ba 05       	bne	582e <__malloc_r+0x37a>
    582a:	80 07 4c 03 	jr	5b76 <__malloc_r+0x6c2>
    582e:	b8 51       	sub	r24, r10
    5830:	d7 51       	add	r23, r10
    5832:	8a 56 01 00 	ori	1, r10, r10
    5836:	36 5f cd ac 	ld.w	-21300[r22], r11
    583a:	7a c7 09 00 	st.w	r24, 8[r26]
    583e:	d7 59       	add	r23, r11
    5840:	76 5f cd ac 	st.w	r11, -21300[r22]
    5844:	78 57 05 00 	st.w	r10, 4[r24]
    5848:	fa e9       	cmp	r26, r29
    584a:	a2 1d       	be	587e <__malloc_r+0x3ca>
    584c:	6f ca       	cmp	15, r25
    584e:	bb 05       	bh	5854 <__malloc_r+0x3a0>
    5850:	80 07 60 02 	jr	5ab0 <__malloc_r+0x5fc>
    5854:	3d 57 05 00 	ld.w	4[r29], r10
    5858:	54 ca       	add	-12, r25
    585a:	18 82       	mov	-8, r16
    585c:	50 c9       	and	r16, r25
    585e:	ca 56 01 00 	andi	1, r10, r10
    5862:	19 51       	or	r25, r10
    5864:	7d 57 05 00 	st.w	r10, 4[r29]
    5868:	1d 50       	mov	r29, r10
    586a:	d9 51       	add	r25, r10
    586c:	05 62       	mov	5, r12
    586e:	6a 67 05 00 	st.w	r12, 4[r10]
    5872:	6a 67 09 00 	st.w	r12, 8[r10]
    5876:	6f ca       	cmp	15, r25
    5878:	b3 05       	bnh	587e <__malloc_r+0x3ca>
    587a:	80 07 da 02 	jr	5b54 <__malloc_r+0x6a0>
    587e:	40 56 01 00 	movhi	1, r0, r10
    5882:	2a 67 f9 ac 	ld.w	-21256[r10], r12
    5886:	ec 59       	cmp	r12, r11
    5888:	b3 05       	bnh	588e <__malloc_r+0x3da>
    588a:	6a 5f f9 ac 	st.w	r11, -21256[r10]
    588e:	40 56 01 00 	movhi	1, r0, r10
    5892:	2a 67 f5 ac 	ld.w	-21260[r10], r12
    5896:	3a ef 09 00 	ld.w	8[r26], r29
    589a:	ec 59       	cmp	r12, r11
    589c:	bb 05       	bh	58a2 <__malloc_r+0x3ee>
    589e:	80 07 58 02 	jr	5af6 <__malloc_r+0x642>
    58a2:	6a 5f f5 ac 	st.w	r11, -21260[r10]
    58a6:	3d 5f 05 00 	ld.w	4[r29], r11
    58aa:	1c 62       	mov	-4, r12
    58ac:	4c 59       	and	r12, r11
    58ae:	0b 50       	mov	r11, r10
    58b0:	bc 51       	sub	r28, r10
    58b2:	fc 59       	cmp	r28, r11
    58b4:	b1 05       	bl	58ba <__malloc_r+0x406>
    58b6:	6f 52       	cmp	15, r10
    58b8:	ff 05       	bgt	58c6 <__malloc_r+0x412>
    58ba:	1b 30       	mov	r27, r6
    58bc:	80 ff 68 03 	jarl	5c24 <___malloc_unlock>, lp
    58c0:	00 52       	mov	0, r10
    58c2:	bf 07 98 fc 	jr	555a <__malloc_r+0xa6>
    58c6:	9c 5e 01 00 	ori	1, r28, r11
    58ca:	8a 56 01 00 	ori	1, r10, r10
    58ce:	7d 5f 05 00 	st.w	r11, 4[r29]
    58d2:	dd e1       	add	r29, r28
    58d4:	1b 30       	mov	r27, r6
    58d6:	7c 57 05 00 	st.w	r10, 4[r28]
    58da:	7a e7 09 00 	st.w	r28, 8[r26]
    58de:	80 ff 46 03 	jarl	5c24 <___malloc_unlock>, lp
    58e2:	1d 56 08 00 	addi	8, r29, r10
    58e6:	bf 07 74 fc 	jr	555a <__malloc_r+0xa6>
    58ea:	20 56 14 00 	movea	20, r0, r10
    58ee:	ea 71       	cmp	r10, r14
    58f0:	bb 05       	bh	58f6 <__malloc_r+0x442>
    58f2:	80 07 58 01 	jr	5a4a <__malloc_r+0x596>
    58f6:	20 56 54 00 	movea	84, r0, r10
    58fa:	ea 71       	cmp	r10, r14
    58fc:	b3 05       	bnh	5902 <__malloc_r+0x44e>
    58fe:	80 07 92 01 	jr	5a90 <__malloc_r+0x5dc>
    5902:	1c 70       	mov	r28, r14
    5904:	8c 72       	shr	12, r14
    5906:	0e 76 6e 00 	addi	110, r14, r14
    590a:	0e 60       	mov	r14, r12
    590c:	ce 61       	add	r14, r12
    590e:	bf 07 ae fc 	jr	55bc <__malloc_r+0x108>
    5912:	0d 50       	mov	r13, r10
    5914:	89 52       	shr	9, r10
    5916:	64 52       	cmp	4, r10
    5918:	bb 05       	bh	591e <__malloc_r+0x46a>
    591a:	80 07 3c 01 	jr	5a56 <__malloc_r+0x5a2>
    591e:	20 5e 14 00 	movea	20, r0, r11
    5922:	eb 51       	cmp	r11, r10
    5924:	b3 05       	bnh	592a <__malloc_r+0x476>
    5926:	80 07 dc 01 	jr	5b02 <__malloc_r+0x64e>
    592a:	0a 66 5b 00 	addi	91, r10, r12
    592e:	0c 50       	mov	r12, r10
    5930:	cc 51       	add	r12, r10
    5932:	40 86 01 00 	movhi	1, r0, r16
    5936:	c2 52       	shl	2, r10
    5938:	30 86 b0 a8 	movea	-22352, r16, r16
    593c:	d0 51       	add	r16, r10
    593e:	2a 5f 09 00 	ld.w	8[r10], r11
    5942:	ea 59       	cmp	r10, r11
    5944:	ba 05       	bne	594a <__malloc_r+0x496>
    5946:	80 07 78 01 	jr	5abe <__malloc_r+0x60a>
    594a:	2b 67 05 00 	ld.w	4[r11], r12
    594e:	1c 82       	mov	-4, r16
    5950:	50 61       	and	r16, r12
    5952:	ec 69       	cmp	r12, r13
    5954:	d9 05       	bnl	595e <__malloc_r+0x4aa>
    5956:	2b 5f 09 00 	ld.w	8[r11], r11
    595a:	eb 51       	cmp	r11, r10
    595c:	fa f5       	bne	594a <__malloc_r+0x496>
    595e:	2b 67 0d 00 	ld.w	12[r11], r12
    5962:	3a 57 05 00 	ld.w	4[r26], r10
    5966:	7d 67 0d 00 	st.w	r12, 12[r29]
    596a:	7d 5f 09 00 	st.w	r11, 8[r29]
    596e:	6c ef 09 00 	st.w	r29, 8[r12]
    5972:	6b ef 0d 00 	st.w	r29, 12[r11]
    5976:	bf 07 22 fd 	jr	5698 <__malloc_r+0x1e4>
    597a:	1d 58       	mov	r29, r11
    597c:	dc 59       	add	r28, r11
    597e:	0b 60       	mov	r11, r12
    5980:	9c e6 01 00 	ori	1, r28, r28
    5984:	8a 6e 01 00 	ori	1, r10, r13
    5988:	ca 61       	add	r10, r12
    598a:	7d e7 05 00 	st.w	r28, 4[r29]
    598e:	7a 5f 15 00 	st.w	r11, 20[r26]
    5992:	7a 5f 11 00 	st.w	r11, 16[r26]
    5996:	1b 30       	mov	r27, r6
    5998:	6c 57 01 00 	st.w	r10, 0[r12]
    599c:	6b 7f 0d 00 	st.w	r15, 12[r11]
    59a0:	6b 7f 09 00 	st.w	r15, 8[r11]
    59a4:	6b 6f 05 00 	st.w	r13, 4[r11]
    59a8:	80 ff 7c 02 	jarl	5c24 <___malloc_unlock>, lp
    59ac:	1d 56 08 00 	addi	8, r29, r10
    59b0:	bf 07 aa fb 	jr	555a <__malloc_r+0xa6>
    59b4:	3a 57 05 00 	ld.w	4[r26], r10
    59b8:	bf 07 e0 fc 	jr	5698 <__malloc_r+0x1e4>
    59bc:	41 8a       	add	1, r17
    59be:	d1 56 03 00 	andi	3, r17, r10
    59c2:	48 6a       	add	8, r13
    59c4:	60 52       	cmp	0, r10
    59c6:	b2 05       	be	59cc <__malloc_r+0x518>
    59c8:	bf 07 0c fd 	jr	56d4 <__malloc_r+0x220>
    59cc:	ce 5e 03 00 	andi	3, r14, r11
    59d0:	10 56 f8 ff 	addi	-8, r16, r10
    59d4:	60 5a       	cmp	0, r11
    59d6:	ba 05       	bne	59dc <__malloc_r+0x528>
    59d8:	80 07 d6 01 	jr	5bae <__malloc_r+0x6fa>
    59dc:	30 87 01 00 	ld.w	0[r16], r16
    59e0:	5f 72       	add	-1, r14
    59e2:	ea 81       	cmp	r10, r16
    59e4:	c2 f5       	be	59cc <__malloc_r+0x518>
    59e6:	3a 57 05 00 	ld.w	4[r26], r10
    59ea:	cc 61       	add	r12, r12
    59ec:	ea 61       	cmp	r10, r12
    59ee:	b3 05       	bnh	59f4 <__malloc_r+0x540>
    59f0:	bf 07 7a fd 	jr	576a <__malloc_r+0x2b6>
    59f4:	60 62       	cmp	0, r12
    59f6:	ba 05       	bne	59fc <__malloc_r+0x548>
    59f8:	bf 07 72 fd 	jr	576a <__malloc_r+0x2b6>
    59fc:	0a 58       	mov	r10, r11
    59fe:	4c 59       	and	r12, r11
    5a00:	f2 3d       	be	5a7e <__malloc_r+0x5ca>
    5a02:	11 70       	mov	r17, r14
    5a04:	bf 07 bc fc 	jr	56c0 <__malloc_r+0x20c>
    5a08:	1d 56 08 00 	addi	8, r29, r10
    5a0c:	3d ef 15 00 	ld.w	20[r29], r29
    5a10:	fd 51       	cmp	r29, r10
    5a12:	b2 05       	be	5a18 <__malloc_r+0x564>
    5a14:	bf 07 16 fb 	jr	552a <__malloc_r+0x76>
    5a18:	42 72       	add	2, r14
    5a1a:	bf 07 fe fb 	jr	5618 <__malloc_r+0x164>
    5a1e:	dd 51       	add	r29, r10
    5a20:	2a 6f 05 00 	ld.w	4[r10], r13
    5a24:	3d 5f 0d 00 	ld.w	12[r29], r11
    5a28:	3d 67 09 00 	ld.w	8[r29], r12
    5a2c:	8d 6e 01 00 	ori	1, r13, r13
    5a30:	1b 30       	mov	r27, r6
    5a32:	6a 6f 05 00 	st.w	r13, 4[r10]
    5a36:	6c 5f 0d 00 	st.w	r11, 12[r12]
    5a3a:	6b 67 09 00 	st.w	r12, 8[r11]
    5a3e:	80 ff e6 01 	jarl	5c24 <___malloc_unlock>, lp
    5a42:	1d 56 08 00 	addi	8, r29, r10
    5a46:	bf 07 14 fb 	jr	555a <__malloc_r+0xa6>
    5a4a:	0e 76 5b 00 	addi	91, r14, r14
    5a4e:	0e 60       	mov	r14, r12
    5a50:	ce 61       	add	r14, r12
    5a52:	bf 07 6a fb 	jr	55bc <__malloc_r+0x108>
    5a56:	0d 60       	mov	r13, r12
    5a58:	86 62       	shr	6, r12
    5a5a:	0c 66 38 00 	addi	56, r12, r12
    5a5e:	0c 50       	mov	r12, r10
    5a60:	cc 51       	add	r12, r10
    5a62:	bf 07 d0 fe 	jr	5932 <__malloc_r+0x47e>
    5a66:	fa e9       	cmp	r26, r29
    5a68:	ba 05       	bne	5a6e <__malloc_r+0x5ba>
    5a6a:	bf 07 6a fd 	jr	57d4 <__malloc_r+0x320>
    5a6e:	3a ef 09 00 	ld.w	8[r26], r29
    5a72:	1c 62       	mov	-4, r12
    5a74:	3d 5f 05 00 	ld.w	4[r29], r11
    5a78:	4c 59       	and	r12, r11
    5a7a:	bf 07 34 fe 	jr	58ae <__malloc_r+0x3fa>
    5a7e:	cc 61       	add	r12, r12
    5a80:	0a 58       	mov	r10, r11
    5a82:	4c 59       	and	r12, r11
    5a84:	44 8a       	add	4, r17
    5a86:	60 5a       	cmp	0, r11
    5a88:	b2 fd       	be	5a7e <__malloc_r+0x5ca>
    5a8a:	11 70       	mov	r17, r14
    5a8c:	bf 07 34 fc 	jr	56c0 <__malloc_r+0x20c>
    5a90:	20 56 54 01 	movea	340, r0, r10
    5a94:	ea 71       	cmp	r10, r14
    5a96:	8b 25       	bh	5ad6 <__malloc_r+0x622>
    5a98:	1c 70       	mov	r28, r14
    5a9a:	8f 72       	shr	15, r14
    5a9c:	0e 76 77 00 	addi	119, r14, r14
    5aa0:	0e 60       	mov	r14, r12
    5aa2:	ce 61       	add	r14, r12
    5aa4:	bf 07 18 fb 	jr	55bc <__malloc_r+0x108>
    5aa8:	20 56 00 10 	movea	4096, r0, r10
    5aac:	bf 07 66 fd 	jr	5812 <__malloc_r+0x35e>
    5ab0:	01 52       	mov	1, r10
    5ab2:	78 57 05 00 	st.w	r10, 4[r24]
    5ab6:	18 e8       	mov	r24, r29
    5ab8:	00 5a       	mov	0, r11
    5aba:	bf 07 f4 fd 	jr	58ae <__malloc_r+0x3fa>
    5abe:	3a 6f 05 00 	ld.w	4[r26], r13
    5ac2:	a2 62       	sar	2, r12
    5ac4:	01 52       	mov	1, r10
    5ac6:	ec 57 c0 00 	shl	r12, r10
    5aca:	0d 51       	or	r13, r10
    5acc:	7a 57 05 00 	st.w	r10, 4[r26]
    5ad0:	0b 60       	mov	r11, r12
    5ad2:	bf 07 94 fe 	jr	5966 <__malloc_r+0x4b2>
    5ad6:	20 56 54 05 	movea	1364, r0, r10
    5ada:	ea 71       	cmp	r10, r14
    5adc:	eb 35       	bh	5b48 <__malloc_r+0x694>
    5ade:	1c 70       	mov	r28, r14
    5ae0:	92 72       	shr	18, r14
    5ae2:	0e 76 7c 00 	addi	124, r14, r14
    5ae6:	0e 60       	mov	r14, r12
    5ae8:	ce 61       	add	r14, r12
    5aea:	bf 07 d2 fa 	jr	55bc <__malloc_r+0x108>
    5aee:	17 be 10 00 	addi	16, r23, r23
    5af2:	bf 07 bc fc 	jr	57ae <__malloc_r+0x2fa>
    5af6:	3d 5f 05 00 	ld.w	4[r29], r11
    5afa:	1c 52       	mov	-4, r10
    5afc:	4a 59       	and	r10, r11
    5afe:	bf 07 b0 fd 	jr	58ae <__malloc_r+0x3fa>
    5b02:	20 5e 54 00 	movea	84, r0, r11
    5b06:	eb 51       	cmp	r11, r10
    5b08:	bb 3d       	bh	5b7e <__malloc_r+0x6ca>
    5b0a:	0d 60       	mov	r13, r12
    5b0c:	8c 62       	shr	12, r12
    5b0e:	0c 66 6e 00 	addi	110, r12, r12
    5b12:	0c 50       	mov	r12, r10
    5b14:	cc 51       	add	r12, r10
    5b16:	bf 07 1c fe 	jr	5932 <__malloc_r+0x47e>
    5b1a:	3a ef 09 00 	ld.w	8[r26], r29
    5b1e:	1c 52       	mov	-4, r10
    5b20:	3d 5f 05 00 	ld.w	4[r29], r11
    5b24:	4a 59       	and	r10, r11
    5b26:	bf 07 88 fd 	jr	58ae <__malloc_r+0x3fa>
    5b2a:	d5 56 ff 0f 	andi	4095, r21, r10
    5b2e:	b2 05       	be	5b34 <__malloc_r+0x680>
    5b30:	bf 07 ba fc 	jr	57ea <__malloc_r+0x336>
    5b34:	17 60       	mov	r23, r12
    5b36:	3a 57 09 00 	ld.w	8[r26], r10
    5b3a:	d9 61       	add	r25, r12
    5b3c:	8c 66 01 00 	ori	1, r12, r12
    5b40:	6a 67 05 00 	st.w	r12, 4[r10]
    5b44:	bf 07 3a fd 	jr	587e <__malloc_r+0x3ca>
    5b48:	20 66 fc 00 	movea	252, r0, r12
    5b4c:	20 76 7e 00 	movea	126, r0, r14
    5b50:	bf 07 6c fa 	jr	55bc <__malloc_r+0x108>
    5b54:	1b 30       	mov	r27, r6
    5b56:	1d 3e 08 00 	addi	8, r29, r7
    5b5a:	bf ff c6 f3 	jarl	4f20 <__free_r>, lp
    5b5e:	40 56 01 00 	movhi	1, r0, r10
    5b62:	2a 5f cd ac 	ld.w	-21300[r10], r11
    5b66:	bf 07 18 fd 	jr	587e <__malloc_r+0x3ca>
    5b6a:	40 56 01 00 	movhi	1, r0, r10
    5b6e:	6a c7 a9 a8 	st.w	r24, -22360[r10]
    5b72:	bf 07 8c fc 	jr	57fe <__malloc_r+0x34a>
    5b76:	01 52       	mov	1, r10
    5b78:	00 ba       	mov	0, r23
    5b7a:	bf 07 bc fc 	jr	5836 <__malloc_r+0x382>
    5b7e:	20 5e 54 01 	movea	340, r0, r11
    5b82:	eb 51       	cmp	r11, r10
    5b84:	9b 0d       	bh	5b96 <__malloc_r+0x6e2>
    5b86:	0d 60       	mov	r13, r12
    5b88:	8f 62       	shr	15, r12
    5b8a:	0c 66 77 00 	addi	119, r12, r12
    5b8e:	0c 50       	mov	r12, r10
    5b90:	cc 51       	add	r12, r10
    5b92:	bf 07 a0 fd 	jr	5932 <__malloc_r+0x47e>
    5b96:	20 5e 54 05 	movea	1364, r0, r11
    5b9a:	eb 51       	cmp	r11, r10
    5b9c:	9b 15       	bh	5bbe <__malloc_r+0x70a>
    5b9e:	0d 60       	mov	r13, r12
    5ba0:	92 62       	shr	18, r12
    5ba2:	0c 66 7c 00 	addi	124, r12, r12
    5ba6:	0c 50       	mov	r12, r10
    5ba8:	cc 51       	add	r12, r10
    5baa:	bf 07 88 fd 	jr	5932 <__malloc_r+0x47e>
    5bae:	3a 5f 05 00 	ld.w	4[r26], r11
    5bb2:	2c 50       	not	r12, r10
    5bb4:	4b 51       	and	r11, r10
    5bb6:	7a 57 05 00 	st.w	r10, 4[r26]
