
./chall:     file format elf64-x86-64


Disassembly of section .plt:

00000000004003f0 <.plt>:
  4003f0:	ff 35 e2 0b 20 00    	push   QWORD PTR [rip+0x200be2]        # 600fd8 <_GLOBAL_OFFSET_TABLE_+0x8>
  4003f6:	ff 25 e4 0b 20 00    	jmp    QWORD PTR [rip+0x200be4]        # 600fe0 <_GLOBAL_OFFSET_TABLE_+0x10>
  4003fc:	0f 1f 40 00          	nop    DWORD PTR [rax+0x0]

0000000000400400 <setbuf@plt>:
  400400:	ff 25 e2 0b 20 00    	jmp    QWORD PTR [rip+0x200be2]        # 600fe8 <setbuf@GLIBC_2.2.5>
  400406:	68 00 00 00 00       	push   0x0
  40040b:	e9 e0 ff ff ff       	jmp    4003f0 <.plt>

0000000000400410 <read@plt>:
  400410:	ff 25 da 0b 20 00    	jmp    QWORD PTR [rip+0x200bda]        # 600ff0 <read@GLIBC_2.2.5>
  400416:	68 01 00 00 00       	push   0x1
  40041b:	e9 d0 ff ff ff       	jmp    4003f0 <.plt>

0000000000400420 <exit@plt>:
  400420:	ff 25 d2 0b 20 00    	jmp    QWORD PTR [rip+0x200bd2]        # 600ff8 <exit@GLIBC_2.2.5>
  400426:	68 02 00 00 00       	push   0x2
  40042b:	e9 c0 ff ff ff       	jmp    4003f0 <.plt>

Disassembly of section .text:

0000000000400430 <_start>:
  400430:	e8 0a 00 00 00       	call   40043f <setup>
  400435:	e8 44 00 00 00       	call   40047e <main>
  40043a:	e8 e1 ff ff ff       	call   400420 <exit@plt>

000000000040043f <setup>:
  40043f:	55                   	push   rbp
  400440:	48 89 e5             	mov    rbp,rsp
  400443:	48 31 f6             	xor    rsi,rsi
  400446:	48 b8 30 10 60 00 00 	movabs rax,0x601030
  40044d:	00 00 00 
  400450:	48 8b 38             	mov    rdi,QWORD PTR [rax]
  400453:	e8 a8 ff ff ff       	call   400400 <setbuf@plt>
  400458:	48 b8 20 10 60 00 00 	movabs rax,0x601020
  40045f:	00 00 00 
  400462:	48 8b 38             	mov    rdi,QWORD PTR [rax]
  400465:	e8 96 ff ff ff       	call   400400 <setbuf@plt>
  40046a:	48 b8 40 10 60 00 00 	movabs rax,0x601040
  400471:	00 00 00 
  400474:	48 8b 38             	mov    rdi,QWORD PTR [rax]
  400477:	e8 84 ff ff ff       	call   400400 <setbuf@plt>
  40047c:	5d                   	pop    rbp
  40047d:	c3                   	ret    

000000000040047e <main>:
  40047e:	55                   	push   rbp
  40047f:	48 89 e5             	mov    rbp,rsp
  400482:	48 83 ec 20          	sub    rsp,0x20
  400486:	ba 00 02 00 00       	mov    edx,0x200
  40048b:	48 8d 75 e0          	lea    rsi,[rbp-0x20]
  40048f:	bf 00 00 00 00       	mov    edi,0x0
  400494:	e8 77 ff ff ff       	call   400410 <read@plt>
  400499:	c9                   	leave  
  40049a:	c3                   	ret    

000000000040049b <_gift>:
  40049b:	41 5f                	pop    r15
  40049d:	c3                   	ret    
  40049e:	5e                   	pop    rsi
  40049f:	c3                   	ret    
