
canary:     file format elf32-littlearm


Disassembly of section .init:

00010158 <_init>:
   10158:	e92d4008 	push	{r3, lr}
   1015c:	eb000095 	bl	103b8 <call_weak_fn>
   10160:	e8bd8008 	pop	{r3, pc}

Disassembly of section .text:

00010180 <backtrace_and_maps>:
   10180:	e92d40b0 	push	{r4, r5, r7, lr}
   10184:	e3064f8c 	movw	r4, #28556	; 0x6f8c
   10188:	e3404009 	movt	r4, #9
   1018c:	e24ddc05 	sub	sp, sp, #1280	; 0x500
   10190:	e3500001 	cmp	r0, #1
   10194:	d3a01000 	movle	r1, #0
   10198:	c2011001 	andgt	r1, r1, #1
   1019c:	e24dd008 	sub	sp, sp, #8
   101a0:	e5943000 	ldr	r3, [r4]
   101a4:	e3510000 	cmp	r1, #0
   101a8:	e58d3504 	str	r3, [sp, #1284]	; 0x504
   101ac:	0a000051 	beq	102f8 <backtrace_and_maps+0x178>
   101b0:	e3a01040 	mov	r1, #64	; 0x40
   101b4:	e28d0004 	add	r0, sp, #4
   101b8:	e1a05002 	mov	r5, r2
   101bc:	eb00693e 	bl	2a6bc <__backtrace>
   101c0:	e3500002 	cmp	r0, #2
   101c4:	e1a0c000 	mov	ip, r0
   101c8:	da00004a 	ble	102f8 <backtrace_and_maps+0x178>
   101cc:	e3011f28 	movw	r1, #7976	; 0x1f28
   101d0:	e1a00005 	mov	r0, r5
   101d4:	e3401007 	movt	r1, #7
   101d8:	e3a0201d 	mov	r2, #29
   101dc:	e3a07004 	mov	r7, #4
   101e0:	ef000000 	svc	0x00000000
   101e4:	e3700a01 	cmn	r0, #4096	; 0x1000
   101e8:	e24c1001 	sub	r1, ip, #1
   101ec:	82600000 	rsbhi	r0, r0, #0
   101f0:	e3a07004 	mov	r7, #4
   101f4:	859f311c 	ldrhi	r3, [pc, #284]	; 10318 <backtrace_and_maps+0x198>
   101f8:	8e1d2f70 	mrchi	15, 0, r2, cr13, cr0, {3}
   101fc:	879f3003 	ldrhi	r3, [pc, r3]
   10200:	87820003 	strhi	r0, [r2, r3]
   10204:	e28d0008 	add	r0, sp, #8
   10208:	e1a02005 	mov	r2, r5
   1020c:	eb00694e 	bl	2a74c <__backtrace_symbols_fd>
   10210:	e1a00005 	mov	r0, r5
   10214:	e3011f48 	movw	r1, #8008	; 0x1f48
   10218:	e3a0201d 	mov	r2, #29
   1021c:	e3401007 	movt	r1, #7
   10220:	ef000000 	svc	0x00000000
   10224:	e3700a01 	cmn	r0, #4096	; 0x1000
   10228:	e3a01000 	mov	r1, #0
   1022c:	82600000 	rsbhi	r0, r0, #0
   10230:	e3a07005 	mov	r7, #5
   10234:	859f30e0 	ldrhi	r3, [pc, #224]	; 1031c <backtrace_and_maps+0x19c>
   10238:	8e1d2f70 	mrchi	15, 0, r2, cr13, cr0, {3}
   1023c:	879f3003 	ldrhi	r3, [pc, r3]
   10240:	87820003 	strhi	r0, [r2, r3]
   10244:	e3010f68 	movw	r0, #8040	; 0x1f68
   10248:	e3400007 	movt	r0, #7
   1024c:	ef000000 	svc	0x00000000
   10250:	e3700a01 	cmn	r0, #4096	; 0x1000
   10254:	e1a0c000 	mov	ip, r0
   10258:	9a000005 	bls	10274 <backtrace_and_maps+0xf4>
   1025c:	e59f30bc 	ldr	r3, [pc, #188]	; 10320 <backtrace_and_maps+0x1a0>
   10260:	ee1d2f70 	mrc	15, 0, r2, cr13, cr0, {3}
   10264:	e3e0c000 	mvn	ip, #0
   10268:	e2601000 	rsb	r1, r0, #0
   1026c:	e79f3003 	ldr	r3, [pc, r3]
   10270:	e7821003 	str	r1, [r2, r3]
   10274:	ee1def70 	mrc	15, 0, lr, cr13, cr0, {3}
   10278:	e1a0000c 	mov	r0, ip
   1027c:	e28d1f41 	add	r1, sp, #260	; 0x104
   10280:	e3a02b01 	mov	r2, #1024	; 0x400
   10284:	e3a07003 	mov	r7, #3
   10288:	ef000000 	svc	0x00000000
   1028c:	e3700a01 	cmn	r0, #4096	; 0x1000
   10290:	e1a03000 	mov	r3, r0
   10294:	9a000008 	bls	102bc <backtrace_and_maps+0x13c>
   10298:	e59f2084 	ldr	r2, [pc, #132]	; 10324 <backtrace_and_maps+0x1a4>
   1029c:	ee1d1f70 	mrc	15, 0, r1, cr13, cr0, {3}
   102a0:	e2603000 	rsb	r3, r0, #0
   102a4:	e79f2002 	ldr	r2, [pc, r2]
   102a8:	e7813002 	str	r3, [r1, r2]
   102ac:	e1a0000c 	mov	r0, ip
   102b0:	e3a07006 	mov	r7, #6
   102b4:	ef000000 	svc	0x00000000
   102b8:	ea00000e 	b	102f8 <backtrace_and_maps+0x178>
   102bc:	e3500000 	cmp	r0, #0
   102c0:	dafffff9 	ble	102ac <backtrace_and_maps+0x12c>
   102c4:	e1a00005 	mov	r0, r5
   102c8:	e1a02003 	mov	r2, r3
   102cc:	e3a07004 	mov	r7, #4
   102d0:	ef000000 	svc	0x00000000
   102d4:	e3700a01 	cmn	r0, #4096	; 0x1000
   102d8:	82601000 	rsbhi	r1, r0, #0
   102dc:	859f2044 	ldrhi	r2, [pc, #68]	; 10328 <backtrace_and_maps+0x1a8>
   102e0:	83e00000 	mvnhi	r0, #0
   102e4:	879f2002 	ldrhi	r2, [pc, r2]
   102e8:	878e1002 	strhi	r1, [lr, r2]
   102ec:	e1530000 	cmp	r3, r0
   102f0:	0affffe0 	beq	10278 <backtrace_and_maps+0xf8>
   102f4:	eaffffec 	b	102ac <backtrace_and_maps+0x12c>
   102f8:	e59d2504 	ldr	r2, [sp, #1284]	; 0x504
   102fc:	e5943000 	ldr	r3, [r4]
   10300:	e1520003 	cmp	r2, r3
   10304:	0a000000 	beq	1030c <backtrace_and_maps+0x18c>
   10308:	eb0069b6 	bl	2a9e8 <__stack_chk_fail>
   1030c:	e28ddc05 	add	sp, sp, #1280	; 0x500
   10310:	e28dd008 	add	sp, sp, #8
   10314:	e8bd80b0 	pop	{r4, r5, r7, pc}
   10318:	00086e44 	.word	0x00086e44
   1031c:	00086e04 	.word	0x00086e04
   10320:	00086dd4 	.word	0x00086dd4
   10324:	00086d9c 	.word	0x00086d9c
   10328:	00086d5c 	.word	0x00086d5c

0001032c <detach_arena.part.1>:
   1032c:	e3023ea0 	movw	r3, #11936	; 0x2ea0
   10330:	e3021080 	movw	r1, #8320	; 0x2080
   10334:	e302012c 	movw	r0, #8492	; 0x212c
   10338:	e3403007 	movt	r3, #7
   1033c:	e92d4010 	push	{r4, lr}
   10340:	e3401007 	movt	r1, #7
   10344:	e3a02faa 	mov	r2, #680	; 0x2a8
   10348:	e3400007 	movt	r0, #7
   1034c:	eb003a52 	bl	1ec9c <__malloc_assert>

00010350 <oom>:
   10350:	e3a00002 	mov	r0, #2
   10354:	e302154c 	movw	r1, #9548	; 0x254c
   10358:	e92d4010 	push	{r4, lr}
   1035c:	e3401008 	movt	r1, #8
   10360:	eb011cca 	bl	57690 <_dl_dprintf>
   10364:	e3a0007f 	mov	r0, #127	; 0x7f
   10368:	eb005d1a 	bl	277d8 <_exit>

0001036c <fini>:
   1036c:	e3083724 	movw	r3, #34596	; 0x8724
   10370:	e3403009 	movt	r3, #9
   10374:	e5930014 	ldr	r0, [r3, #20]
   10378:	ea0134e2 	b	5d708 <check_free.isra.0>

0001037c <_start>:
   1037c:	e3a0b000 	mov	fp, #0
   10380:	e3a0e000 	mov	lr, #0
   10384:	e49d1004 	pop	{r1}		; (ldr r1, [sp], #4)
   10388:	e1a0200d 	mov	r2, sp
   1038c:	e52d2004 	push	{r2}		; (str r2, [sp, #-4]!)
   10390:	e52d0004 	push	{r0}		; (str r0, [sp, #-4]!)
   10394:	e59fc010 	ldr	ip, [pc, #16]	; 103ac <_start+0x30>
   10398:	e52dc004 	push	{ip}		; (str ip, [sp, #-4]!)
   1039c:	e59f000c 	ldr	r0, [pc, #12]	; 103b0 <_start+0x34>
   103a0:	e59f300c 	ldr	r3, [pc, #12]	; 103b4 <_start+0x38>
   103a4:	eb00007a 	bl	10594 <__libc_start_main>
   103a8:	eb00149a 	bl	15618 <abort>
   103ac:	00010d58 	.word	0x00010d58
   103b0:	000104b8 	.word	0x000104b8
   103b4:	00010cbc 	.word	0x00010cbc

000103b8 <call_weak_fn>:
   103b8:	e59f3014 	ldr	r3, [pc, #20]	; 103d4 <call_weak_fn+0x1c>
   103bc:	e59f2014 	ldr	r2, [pc, #20]	; 103d8 <call_weak_fn+0x20>
   103c0:	e08f3003 	add	r3, pc, r3
   103c4:	e7932002 	ldr	r2, [r3, r2]
   103c8:	e3520000 	cmp	r2, #0
   103cc:	012fff1e 	bxeq	lr
   103d0:	e320f000 	nop	{0}
   103d4:	00086c38 	.word	0x00086c38
   103d8:	00000078 	.word	0x00000078

000103dc <deregister_tm_clones>:
   103dc:	e3070ec8 	movw	r0, #32456	; 0x7ec8
   103e0:	e3400009 	movt	r0, #9
   103e4:	e3073ec8 	movw	r3, #32456	; 0x7ec8
   103e8:	e3403009 	movt	r3, #9
   103ec:	e1530000 	cmp	r3, r0
   103f0:	012fff1e 	bxeq	lr
   103f4:	e3003000 	movw	r3, #0
   103f8:	e3403000 	movt	r3, #0
   103fc:	e3530000 	cmp	r3, #0
   10400:	012fff1e 	bxeq	lr
   10404:	e12fff13 	bx	r3

00010408 <register_tm_clones>:
   10408:	e3070ec8 	movw	r0, #32456	; 0x7ec8
   1040c:	e3400009 	movt	r0, #9
   10410:	e3071ec8 	movw	r1, #32456	; 0x7ec8
   10414:	e3401009 	movt	r1, #9
   10418:	e0411000 	sub	r1, r1, r0
   1041c:	e1a01141 	asr	r1, r1, #2
   10420:	e0811fa1 	add	r1, r1, r1, lsr #31
   10424:	e1b010c1 	asrs	r1, r1, #1
   10428:	012fff1e 	bxeq	lr
   1042c:	e3003000 	movw	r3, #0
   10430:	e3403000 	movt	r3, #0
   10434:	e3530000 	cmp	r3, #0
   10438:	012fff1e 	bxeq	lr
   1043c:	e12fff13 	bx	r3

00010440 <__do_global_dtors_aux>:
   10440:	e92d4010 	push	{r4, lr}
   10444:	e3074ec8 	movw	r4, #32456	; 0x7ec8
   10448:	e3404009 	movt	r4, #9
   1044c:	e5d43000 	ldrb	r3, [r4]
   10450:	e3530000 	cmp	r3, #0
   10454:	18bd8010 	popne	{r4, pc}
   10458:	ebffffdf 	bl	103dc <deregister_tm_clones>
   1045c:	e3003000 	movw	r3, #0
   10460:	e3403000 	movt	r3, #0
   10464:	e3530000 	cmp	r3, #0
   10468:	0a000002 	beq	10478 <__do_global_dtors_aux+0x38>
   1046c:	e3060b60 	movw	r0, #27488	; 0x6b60
   10470:	e3400008 	movt	r0, #8
   10474:	e320f000 	nop	{0}
   10478:	e3a03001 	mov	r3, #1
   1047c:	e5c43000 	strb	r3, [r4]
   10480:	e8bd8010 	pop	{r4, pc}

00010484 <frame_dummy>:
   10484:	e3003000 	movw	r3, #0
   10488:	e3403000 	movt	r3, #0
   1048c:	e3530000 	cmp	r3, #0
   10490:	0a000007 	beq	104b4 <frame_dummy+0x30>
   10494:	e92d4010 	push	{r4, lr}
   10498:	e3071ecc 	movw	r1, #32460	; 0x7ecc
   1049c:	e3060b60 	movw	r0, #27488	; 0x6b60
   104a0:	e3401009 	movt	r1, #9
   104a4:	e3400008 	movt	r0, #8
   104a8:	e320f000 	nop	{0}
   104ac:	e8bd4010 	pop	{r4, lr}
   104b0:	eaffffd4 	b	10408 <register_tm_clones>
   104b4:	eaffffd3 	b	10408 <register_tm_clones>

000104b8 <main>:
   104b8:	e92d4030 	push	{r4, r5, lr}
   104bc:	e24dd034 	sub	sp, sp, #52	; 0x34
   104c0:	e3063f8c 	movw	r3, #28556	; 0x6f8c
   104c4:	e3403009 	movt	r3, #9
   104c8:	e5933000 	ldr	r3, [r3]
   104cc:	e58d302c 	str	r3, [sp, #44]	; 0x2c
   104d0:	e30734a8 	movw	r3, #29864	; 0x74a8
   104d4:	e3403009 	movt	r3, #9
   104d8:	e3a01000 	mov	r1, #0
   104dc:	e5930000 	ldr	r0, [r3]
   104e0:	eb0023ef 	bl	194a4 <setbuf>
   104e4:	e30734ac 	movw	r3, #29868	; 0x74ac
   104e8:	e3403009 	movt	r3, #9
   104ec:	e3a01000 	mov	r1, #0
   104f0:	e5930000 	ldr	r0, [r3]
   104f4:	eb0023ea 	bl	194a4 <setbuf>
   104f8:	e3010a7c 	movw	r0, #6780	; 0x1a7c
   104fc:	e3400007 	movt	r0, #7
   10500:	eb001cab 	bl	177b4 <_IO_puts>
   10504:	e3014a9c 	movw	r4, #6812	; 0x1a9c
   10508:	e3404007 	movt	r4, #7
   1050c:	e3a05060 	mov	r5, #96	; 0x60
   10510:	ea000001 	b	1051c <main+0x64>
   10514:	e28d0004 	add	r0, sp, #4
   10518:	eb001ca5 	bl	177b4 <_IO_puts>
   1051c:	e1a00004 	mov	r0, r4
   10520:	eb001ab7 	bl	17004 <_IO_printf>
   10524:	e1a02005 	mov	r2, r5
   10528:	e28d1004 	add	r1, sp, #4
   1052c:	e3a00000 	mov	r0, #0
   10530:	eb005fbe 	bl	28430 <__libc_read>
   10534:	e3500000 	cmp	r0, #0
   10538:	da00000b 	ble	1056c <main+0xb4>
   1053c:	e2400001 	sub	r0, r0, #1
   10540:	e28d3030 	add	r3, sp, #48	; 0x30
   10544:	e0833000 	add	r3, r3, r0
   10548:	e553302c 	ldrb	r3, [r3, #-44]	; 0xffffffd4
   1054c:	e353000a 	cmp	r3, #10
   10550:	1affffef 	bne	10514 <main+0x5c>
   10554:	e28d3030 	add	r3, sp, #48	; 0x30
   10558:	e0833000 	add	r3, r3, r0
   1055c:	e3a02000 	mov	r2, #0
   10560:	e543202c 	strb	r2, [r3, #-44]	; 0xffffffd4
   10564:	e1500002 	cmp	r0, r2
   10568:	1affffe9 	bne	10514 <main+0x5c>
   1056c:	e3a00000 	mov	r0, #0
   10570:	e3063f8c 	movw	r3, #28556	; 0x6f8c
   10574:	e3403009 	movt	r3, #9
   10578:	e59d202c 	ldr	r2, [sp, #44]	; 0x2c
   1057c:	e5933000 	ldr	r3, [r3]
   10580:	e1520003 	cmp	r2, r3
   10584:	1a000001 	bne	10590 <main+0xd8>
   10588:	e28dd034 	add	sp, sp, #52	; 0x34
   1058c:	e8bd8030 	pop	{r4, r5, pc}
   10590:	eb006914 	bl	2a9e8 <__stack_chk_fail>

00010594 <__libc_start_main>:
   10594:	e300c000 	movw	ip, #0
   10598:	e340c000 	movt	ip, #0
   1059c:	e35c0000 	cmp	ip, #0
   105a0:	e92d41f0 	push	{r4, r5, r6, r7, r8, lr}
   105a4:	e24dde13 	sub	sp, sp, #304	; 0x130
   105a8:	159cc000 	ldrne	ip, [ip]
   105ac:	e1a04003 	mov	r4, r3
   105b0:	e98d0006 	stmib	sp, {r1, r2}
   105b4:	e3073c84 	movw	r3, #31876	; 0x7c84
   105b8:	116fcf1c 	clzne	ip, ip
   105bc:	e3403009 	movt	r3, #9
   105c0:	e59d2004 	ldr	r2, [sp, #4]
   105c4:	e59d1150 	ldr	r1, [sp, #336]	; 0x150
   105c8:	11a0c2ac 	lsrne	ip, ip, #5
   105cc:	e58d000c 	str	r0, [sp, #12]
   105d0:	e2820001 	add	r0, r2, #1
   105d4:	e583c000 	str	ip, [r3]
   105d8:	e3082548 	movw	r2, #34120	; 0x8548
   105dc:	e3063fd8 	movw	r3, #28632	; 0x6fd8
   105e0:	e3402009 	movt	r2, #9
   105e4:	e3403009 	movt	r3, #9
   105e8:	e59dc008 	ldr	ip, [sp, #8]
   105ec:	e5831000 	str	r1, [r3]
   105f0:	e08c0100 	add	r0, ip, r0, lsl #2
   105f4:	e5820000 	str	r0, [r2]
   105f8:	e4903004 	ldr	r3, [r0], #4
   105fc:	e3530000 	cmp	r3, #0
   10600:	1afffffc 	bne	105f8 <__libc_start_main+0x64>
   10604:	eb00692d 	bl	2aac0 <_dl_aux_init>
   10608:	e3083aa4 	movw	r3, #35492	; 0x8aa4
   1060c:	e3403009 	movt	r3, #9
   10610:	e3002000 	movw	r2, #0
   10614:	e3402001 	movt	r2, #1
   10618:	e3a01001 	mov	r1, #1
   1061c:	e5933000 	ldr	r3, [r3]
   10620:	e3520000 	cmp	r2, #0
   10624:	e16f3f13 	clz	r3, r3
   10628:	01a01002 	moveq	r1, r2
   1062c:	e1a032a3 	lsr	r3, r3, #5
   10630:	e1130001 	tst	r3, r1
   10634:	0a000015 	beq	10690 <__libc_start_main+0xfc>
   10638:	e3003000 	movw	r3, #0
   1063c:	e3403001 	movt	r3, #1
   10640:	e1d322ba 	ldrh	r2, [r3, #42]	; 0x2a
   10644:	e3520020 	cmp	r2, #32
   10648:	0a000007 	beq	1066c <__libc_start_main+0xd8>
   1064c:	e3013b48 	movw	r3, #6984	; 0x1b48
   10650:	e3011aa0 	movw	r1, #6816	; 0x1aa0
   10654:	e3010ab0 	movw	r0, #6832	; 0x1ab0
   10658:	e3403007 	movt	r3, #7
   1065c:	e3401007 	movt	r1, #7
   10660:	e3a020ae 	mov	r2, #174	; 0xae
   10664:	e3400007 	movt	r0, #7
   10668:	eb000229 	bl	10f14 <__assert_fail>
   1066c:	e1d3c2bc 	ldrh	ip, [r3, #44]	; 0x2c
   10670:	e3081aa4 	movw	r1, #35492	; 0x8aa4
   10674:	e593001c 	ldr	r0, [r3, #28]
   10678:	e3401009 	movt	r1, #9
   1067c:	e3082ac4 	movw	r2, #35524	; 0x8ac4
   10680:	e3402009 	movt	r2, #9
   10684:	e0803003 	add	r3, r0, r3
   10688:	e5813000 	str	r3, [r1]
   1068c:	e582c000 	str	ip, [r2]
   10690:	eb006d11 	bl	2badc <__libc_init_secure>
   10694:	e3005158 	movw	r5, #344	; 0x158
   10698:	e3003158 	movw	r3, #344	; 0x158
   1069c:	e3405001 	movt	r5, #1
   106a0:	e3403001 	movt	r3, #1
   106a4:	e1550003 	cmp	r5, r3
   106a8:	2a000017 	bcs	1070c <__libc_start_main+0x178>
   106ac:	e5d52004 	ldrb	r2, [r5, #4]
   106b0:	e5957000 	ldr	r7, [r5]
   106b4:	e35200a0 	cmp	r2, #160	; 0xa0
   106b8:	1a000010 	bne	10700 <__libc_start_main+0x16c>
   106bc:	e1e06005 	mvn	r6, r5
   106c0:	e0866003 	add	r6, r6, r3
   106c4:	e3c66007 	bic	r6, r6, #7
   106c8:	e3088560 	movw	r8, #34144	; 0x8560
   106cc:	e0856006 	add	r6, r5, r6
   106d0:	e3408009 	movt	r8, #9
   106d4:	e5973000 	ldr	r3, [r7]
   106d8:	e5980000 	ldr	r0, [r8]
   106dc:	e12fff33 	blx	r3
   106e0:	e1550006 	cmp	r5, r6
   106e4:	e5870000 	str	r0, [r7]
   106e8:	0a000007 	beq	1070c <__libc_start_main+0x178>
   106ec:	e1a03005 	mov	r3, r5
   106f0:	e5b57008 	ldr	r7, [r5, #8]!
   106f4:	e5d3300c 	ldrb	r3, [r3, #12]
   106f8:	e35300a0 	cmp	r3, #160	; 0xa0
   106fc:	0afffff4 	beq	106d4 <__libc_start_main+0x140>
   10700:	e3010ae0 	movw	r0, #6880	; 0x1ae0
   10704:	e3400007 	movt	r0, #7
   10708:	eb002473 	bl	198dc <__libc_fatal>
   1070c:	eb0000c3 	bl	10a20 <__libc_setup_tls>
   10710:	e3061f94 	movw	r1, #28564	; 0x6f94
   10714:	e3401009 	movt	r1, #9
   10718:	e3072c84 	movw	r2, #31876	; 0x7c84
   1071c:	e3402009 	movt	r2, #9
   10720:	e3063f8c 	movw	r3, #28556	; 0x6f8c
   10724:	e5910000 	ldr	r0, [r1]
   10728:	e3403009 	movt	r3, #9
   1072c:	e5921000 	ldr	r1, [r2]
   10730:	e5902000 	ldr	r2, [r0]
   10734:	e3510000 	cmp	r1, #0
   10738:	e3c220ff 	bic	r2, r2, #255	; 0xff
   1073c:	e5832000 	str	r2, [r3]
   10740:	0a00005a 	beq	108b0 <__libc_start_main+0x31c>
   10744:	e3003000 	movw	r3, #0
   10748:	e3403000 	movt	r3, #0
   1074c:	e3530000 	cmp	r3, #0
   10750:	0a000000 	beq	10758 <__libc_start_main+0x1c4>
   10754:	e320f000 	nop	{0}
   10758:	e3062f94 	movw	r2, #28564	; 0x6f94
   1075c:	e3402009 	movt	r2, #9
   10760:	e59d314c 	ldr	r3, [sp, #332]	; 0x14c
   10764:	e5922000 	ldr	r2, [r2]
   10768:	e3530000 	cmp	r3, #0
   1076c:	e3063f8c 	movw	r3, #28556	; 0x6f8c
   10770:	e3403009 	movt	r3, #9
   10774:	e5922004 	ldr	r2, [r2, #4]
   10778:	e5832004 	str	r2, [r3, #4]
   1077c:	0a000003 	beq	10790 <__libc_start_main+0x1fc>
   10780:	e3a02000 	mov	r2, #0
   10784:	e59d014c 	ldr	r0, [sp, #332]	; 0x14c
   10788:	e1a01002 	mov	r1, r2
   1078c:	eb0016ba 	bl	1627c <__cxa_atexit>
   10790:	e3083548 	movw	r3, #34120	; 0x8548
   10794:	e3403009 	movt	r3, #9
   10798:	e99d0003 	ldmib	sp, {r0, r1}
   1079c:	e5932000 	ldr	r2, [r3]
   107a0:	eb006d27 	bl	2bc44 <__libc_init_first>
   107a4:	e59d3148 	ldr	r3, [sp, #328]	; 0x148
   107a8:	e3530000 	cmp	r3, #0
   107ac:	0a000003 	beq	107c0 <__libc_start_main+0x22c>
   107b0:	e3a02000 	mov	r2, #0
   107b4:	e59d0148 	ldr	r0, [sp, #328]	; 0x148
   107b8:	e1a01002 	mov	r1, r2
   107bc:	eb0016ae 	bl	1627c <__cxa_atexit>
   107c0:	e3063fdc 	movw	r3, #28636	; 0x6fdc
   107c4:	e3403009 	movt	r3, #9
   107c8:	e5933000 	ldr	r3, [r3]
   107cc:	e3530000 	cmp	r3, #0
   107d0:	0a000000 	beq	107d8 <__libc_start_main+0x244>
   107d4:	eb000086 	bl	109f4 <__libc_check_standard_fds>
   107d8:	e3540000 	cmp	r4, #0
   107dc:	0a000004 	beq	107f4 <__libc_start_main+0x260>
   107e0:	e3083548 	movw	r3, #34120	; 0x8548
   107e4:	e3403009 	movt	r3, #9
   107e8:	e99d0003 	ldmib	sp, {r0, r1}
   107ec:	e5932000 	ldr	r2, [r3]
   107f0:	e12fff34 	blx	r4
   107f4:	e3a01000 	mov	r1, #0
   107f8:	e1a00001 	mov	r0, r1
   107fc:	eb00688f 	bl	2aa40 <_dl_debug_initialize>
   10800:	e28d0018 	add	r0, sp, #24
   10804:	eb001381 	bl	15610 <_setjmp>
   10808:	e3500000 	cmp	r0, #0
   1080c:	1a00000d 	bne	10848 <__libc_start_main+0x2b4>
   10810:	ee1d3f70 	mrc	15, 0, r3, cr13, cr0, {3}
   10814:	e3082548 	movw	r2, #34120	; 0x8548
   10818:	e513e440 	ldr	lr, [r3, #-1088]	; 0xfffffbc0
   1081c:	e3402009 	movt	r2, #9
   10820:	e513c444 	ldr	ip, [r3, #-1092]	; 0xfffffbbc
   10824:	e28d4018 	add	r4, sp, #24
   10828:	e5922000 	ldr	r2, [r2]
   1082c:	e99d0003 	ldmib	sp, {r0, r1}
   10830:	e5034440 	str	r4, [r3, #-1088]	; 0xfffffbc0
   10834:	e59d300c 	ldr	r3, [sp, #12]
   10838:	e58de120 	str	lr, [sp, #288]	; 0x120
   1083c:	e58dc124 	str	ip, [sp, #292]	; 0x124
   10840:	e12fff33 	blx	r3
   10844:	eb0015fd 	bl	16040 <exit>
   10848:	e320f000 	nop	{0}
   1084c:	e3003000 	movw	r3, #0
   10850:	e3403000 	movt	r3, #0
   10854:	e5932000 	ldr	r2, [r3]
   10858:	e2421001 	sub	r1, r2, #1
   1085c:	e58d2014 	str	r2, [sp, #20]
   10860:	e1930f9f 	ldrex	r0, [r3]
   10864:	e1500002 	cmp	r0, r2
   10868:	1a000003 	bne	1087c <__libc_start_main+0x2e8>
   1086c:	e183cf91 	strex	ip, r1, [r3]
   10870:	e35c0000 	cmp	ip, #0
   10874:	1afffff9 	bne	10860 <__libc_start_main+0x2cc>
   10878:	f57ff05b 	dmb	ish
   1087c:	03a01001 	moveq	r1, #1
   10880:	13a01000 	movne	r1, #0
   10884:	158d0014 	strne	r0, [sp, #20]
   10888:	e3510000 	cmp	r1, #0
   1088c:	0afffff0 	beq	10854 <__libc_start_main+0x2c0>
   10890:	e3520001 	cmp	r2, #1
   10894:	0a000017 	beq	108f8 <__libc_start_main+0x364>
   10898:	e3a02000 	mov	r2, #0
   1089c:	e3a03001 	mov	r3, #1
   108a0:	e1a00002 	mov	r0, r2
   108a4:	e1a07003 	mov	r7, r3
   108a8:	ef000000 	svc	0x00000000
   108ac:	eafffffb 	b	108a0 <__libc_start_main+0x30c>
   108b0:	eb006c9f 	bl	2bb34 <_dl_discover_osversion>
   108b4:	e3500000 	cmp	r0, #0
   108b8:	ba000013 	blt	1090c <__libc_start_main+0x378>
   108bc:	e3083ad4 	movw	r3, #35540	; 0x8ad4
   108c0:	e3403009 	movt	r3, #9
   108c4:	e5933000 	ldr	r3, [r3]
   108c8:	e3530000 	cmp	r3, #0
   108cc:	1a00000b 	bne	10900 <__libc_start_main+0x36c>
   108d0:	e3083ad4 	movw	r3, #35540	; 0x8ad4
   108d4:	e3403009 	movt	r3, #9
   108d8:	e5830000 	str	r0, [r3]
   108dc:	e30031ff 	movw	r3, #511	; 0x1ff
   108e0:	e3403003 	movt	r3, #3
   108e4:	e1500003 	cmp	r0, r3
   108e8:	caffff95 	bgt	10744 <__libc_start_main+0x1b0>
   108ec:	e3010b08 	movw	r0, #6920	; 0x1b08
   108f0:	e3400007 	movt	r0, #7
   108f4:	eb0023f8 	bl	198dc <__libc_fatal>
   108f8:	e3a00000 	mov	r0, #0
   108fc:	eaffffd0 	b	10844 <__libc_start_main+0x2b0>
   10900:	e1530000 	cmp	r3, r0
   10904:	9afffff4 	bls	108dc <__libc_start_main+0x348>
   10908:	eafffff0 	b	108d0 <__libc_start_main+0x33c>
   1090c:	e3010b20 	movw	r0, #6944	; 0x1b20
   10910:	e3400007 	movt	r0, #7
   10914:	eb0023f0 	bl	198dc <__libc_fatal>

00010918 <check_one_fd>:
   10918:	e92d43b0 	push	{r4, r5, r7, r8, r9, lr}
   1091c:	e1a04001 	mov	r4, r1
   10920:	e24dd068 	sub	sp, sp, #104	; 0x68
   10924:	e3a01001 	mov	r1, #1
   10928:	e1a05000 	mov	r5, r0
   1092c:	eb005f3e 	bl	2862c <__libc_fcntl>
   10930:	e3700001 	cmn	r0, #1
   10934:	0a000001 	beq	10940 <check_one_fd+0x28>
   10938:	e28dd068 	add	sp, sp, #104	; 0x68
   1093c:	e8bd83b0 	pop	{r4, r5, r7, r8, r9, pc}
   10940:	e59f30a4 	ldr	r3, [pc, #164]	; 109ec <check_one_fd+0xd4>
   10944:	ee1dcf70 	mrc	15, 0, ip, cr13, cr0, {3}
   10948:	e79f3003 	ldr	r3, [pc, r3]
   1094c:	e79c3003 	ldr	r3, [ip, r3]
   10950:	e3530009 	cmp	r3, #9
   10954:	1afffff7 	bne	10938 <check_one_fd+0x20>
   10958:	e2043003 	and	r3, r4, #3
   1095c:	e1a01004 	mov	r1, r4
   10960:	e3530001 	cmp	r3, #1
   10964:	e3a02000 	mov	r2, #0
   10968:	e3a07005 	mov	r7, #5
   1096c:	13010b68 	movwne	r0, #7016	; 0x1b68
   10970:	03010b5c 	movweq	r0, #7004	; 0x1b5c
   10974:	13008103 	movwne	r8, #259	; 0x103
   10978:	13a09000 	movne	r9, #0
   1097c:	13400007 	movtne	r0, #7
   10980:	03008107 	movweq	r8, #263	; 0x107
   10984:	03a09000 	moveq	r9, #0
   10988:	03400007 	movteq	r0, #7
   1098c:	ef000000 	svc	0x00000000
   10990:	e3700a01 	cmn	r0, #4096	; 0x1000
   10994:	82602000 	rsbhi	r2, r0, #0
   10998:	859f3050 	ldrhi	r3, [pc, #80]	; 109f0 <check_one_fd+0xd8>
   1099c:	83e00000 	mvnhi	r0, #0
   109a0:	879f3003 	ldrhi	r3, [pc, r3]
   109a4:	878c2003 	strhi	r2, [ip, r3]
   109a8:	e1550000 	cmp	r5, r0
   109ac:	1a00000d 	bne	109e8 <check_one_fd+0xd0>
   109b0:	e1a01005 	mov	r1, r5
   109b4:	e1a0200d 	mov	r2, sp
   109b8:	e3a00003 	mov	r0, #3
   109bc:	eb005e5d 	bl	28338 <___fxstat64>
   109c0:	e3500000 	cmp	r0, #0
   109c4:	1a000007 	bne	109e8 <check_one_fd+0xd0>
   109c8:	e59d3010 	ldr	r3, [sp, #16]
   109cc:	e2033a0f 	and	r3, r3, #61440	; 0xf000
   109d0:	e3530a02 	cmp	r3, #8192	; 0x2000
   109d4:	1a000003 	bne	109e8 <check_one_fd+0xd0>
   109d8:	e1cd22d0 	ldrd	r2, [sp, #32]
   109dc:	e1530009 	cmp	r3, r9
   109e0:	01520008 	cmpeq	r2, r8
   109e4:	0affffd3 	beq	10938 <check_one_fd+0x20>
   109e8:	e7f000f0 	udf	#0
   109ec:	000866f8 	.word	0x000866f8
   109f0:	000866a0 	.word	0x000866a0

000109f4 <__libc_check_standard_fds>:
   109f4:	e92d4010 	push	{r4, lr}
   109f8:	e3081001 	movw	r1, #32769	; 0x8001
   109fc:	e3a00000 	mov	r0, #0
   10a00:	ebffffc4 	bl	10918 <check_one_fd>
   10a04:	e3a01902 	mov	r1, #32768	; 0x8000
   10a08:	e3a00001 	mov	r0, #1
   10a0c:	ebffffc1 	bl	10918 <check_one_fd>
   10a10:	e3a01902 	mov	r1, #32768	; 0x8000
   10a14:	e3a00002 	mov	r0, #2
   10a18:	e8bd4010 	pop	{r4, lr}
   10a1c:	eaffffbd 	b	10918 <check_one_fd>

00010a20 <__libc_setup_tls>:
   10a20:	e3083aa4 	movw	r3, #35492	; 0x8aa4
   10a24:	e3403009 	movt	r3, #9
   10a28:	e92d4ff0 	push	{r4, r5, r6, r7, r8, r9, sl, fp, lr}
   10a2c:	e24dd01c 	sub	sp, sp, #28
   10a30:	e5932000 	ldr	r2, [r3]
   10a34:	e3520000 	cmp	r2, #0
   10a38:	0a00008b 	beq	10c6c <__libc_setup_tls+0x24c>
   10a3c:	e3083ac4 	movw	r3, #35524	; 0x8ac4
   10a40:	e3403009 	movt	r3, #9
   10a44:	e5931000 	ldr	r1, [r3]
   10a48:	e0821281 	add	r1, r2, r1, lsl #5
   10a4c:	e1520001 	cmp	r2, r1
   10a50:	3a000003 	bcc	10a64 <__libc_setup_tls+0x44>
   10a54:	ea00006c 	b	10c0c <__libc_setup_tls+0x1ec>
   10a58:	e2822020 	add	r2, r2, #32
   10a5c:	e1510002 	cmp	r1, r2
   10a60:	9a000069 	bls	10c0c <__libc_setup_tls+0x1ec>
   10a64:	e5923000 	ldr	r3, [r2]
   10a68:	e3530007 	cmp	r3, #7
   10a6c:	1afffff9 	bne	10a58 <__libc_setup_tls+0x38>
   10a70:	e5923010 	ldr	r3, [r2, #16]
   10a74:	e592401c 	ldr	r4, [r2, #28]
   10a78:	e592b014 	ldr	fp, [r2, #20]
   10a7c:	e58d3000 	str	r3, [sp]
   10a80:	e3540010 	cmp	r4, #16
   10a84:	e5923008 	ldr	r3, [r2, #8]
   10a88:	e58d3004 	str	r3, [sp, #4]
   10a8c:	9a00006d 	bls	10c48 <__libc_setup_tls+0x228>
   10a90:	e2643000 	rsb	r3, r4, #0
   10a94:	e58d4008 	str	r4, [sp, #8]
   10a98:	e58d3010 	str	r3, [sp, #16]
   10a9c:	e2443001 	sub	r3, r4, #1
   10aa0:	e58d300c 	str	r3, [sp, #12]
   10aa4:	e1a01004 	mov	r1, r4
   10aa8:	e2840007 	add	r0, r4, #7
   10aac:	eb01782a 	bl	6eb5c <__aeabi_uidiv>
   10ab0:	e58d4014 	str	r4, [sp, #20]
   10ab4:	e0090094 	mul	r9, r4, r0
   10ab8:	e1a06009 	mov	r6, r9
   10abc:	e307a08c 	movw	sl, #28812	; 0x708c
   10ac0:	e340a009 	movt	sl, #9
   10ac4:	e59d3008 	ldr	r3, [sp, #8]
   10ac8:	e308583c 	movw	r5, #34876	; 0x883c
   10acc:	e59a0000 	ldr	r0, [sl]
   10ad0:	e3405009 	movt	r5, #9
   10ad4:	e2855008 	add	r5, r5, #8
   10ad8:	e3a07005 	mov	r7, #5
   10adc:	e2800d13 	add	r0, r0, #1216	; 0x4c0
   10ae0:	e340700f 	movt	r7, #15
   10ae4:	e0800009 	add	r0, r0, r9
   10ae8:	e080000b 	add	r0, r0, fp
   10aec:	e0800003 	add	r0, r0, r3
   10af0:	eb00612c 	bl	28fa8 <__sbrk>
   10af4:	e3071c20 	movw	r1, #31776	; 0x7c20
   10af8:	e3401009 	movt	r1, #9
   10afc:	e59d300c 	ldr	r3, [sp, #12]
   10b00:	e59d2000 	ldr	r2, [sp]
   10b04:	e3a0c03e 	mov	ip, #62	; 0x3e
   10b08:	e5918000 	ldr	r8, [r1]
   10b0c:	e505c008 	str	ip, [r5, #-8]
   10b10:	e3a0c000 	mov	ip, #0
   10b14:	e59d1004 	ldr	r1, [sp, #4]
   10b18:	e588623c 	str	r6, [r8, #572]	; 0x23c
   10b1c:	e585c00c 	str	ip, [r5, #12]
   10b20:	e2806d13 	add	r6, r0, #1216	; 0x4c0
   10b24:	e0866003 	add	r6, r6, r3
   10b28:	e59d3010 	ldr	r3, [sp, #16]
   10b2c:	e0066003 	and	r6, r6, r3
   10b30:	e0860009 	add	r0, r6, r9
   10b34:	e5850008 	str	r0, [r5, #8]
   10b38:	eb0058d4 	bl	26e90 <memcpy>
   10b3c:	e1a00006 	mov	r0, r6
   10b40:	e5865000 	str	r5, [r6]
   10b44:	ef000000 	svc	0x00000000
   10b48:	e3700a01 	cmn	r0, #4096	; 0x1000
   10b4c:	9a000002 	bls	10b5c <__libc_setup_tls+0x13c>
   10b50:	e3010b74 	movw	r0, #7028	; 0x1b74
   10b54:	e3400007 	movt	r0, #7
   10b58:	eb00235f 	bl	198dc <__libc_fatal>
   10b5c:	e59d3004 	ldr	r3, [sp, #4]
   10b60:	e3540000 	cmp	r4, #0
   10b64:	e3080a3c 	movw	r0, #35388	; 0x8a3c
   10b68:	e3400009 	movt	r0, #9
   10b6c:	e5884234 	str	r4, [r8, #564]	; 0x234
   10b70:	12444001 	subne	r4, r4, #1
   10b74:	e5883228 	str	r3, [r8, #552]	; 0x228
   10b78:	e3072ee4 	movw	r2, #32484	; 0x7ee4
   10b7c:	e59d3000 	ldr	r3, [sp]
   10b80:	e3402009 	movt	r2, #9
   10b84:	e5802000 	str	r2, [r0]
   10b88:	e084000b 	add	r0, r4, fp
   10b8c:	e59d4014 	ldr	r4, [sp, #20]
   10b90:	e3081838 	movw	r1, #34872	; 0x8838
   10b94:	e3401009 	movt	r1, #9
   10b98:	e588322c 	str	r3, [r8, #556]	; 0x22c
   10b9c:	e5828014 	str	r8, [r2, #20]
   10ba0:	e3a0c040 	mov	ip, #64	; 0x40
   10ba4:	e588b230 	str	fp, [r8, #560]	; 0x230
   10ba8:	e582c000 	str	ip, [r2]
   10bac:	e3a02001 	mov	r2, #1
   10bb0:	e5812000 	str	r2, [r1]
   10bb4:	e1a01004 	mov	r1, r4
   10bb8:	e5882240 	str	r2, [r8, #576]	; 0x240
   10bbc:	eb0177e6 	bl	6eb5c <__aeabi_uidiv>
   10bc0:	e59a3000 	ldr	r3, [sl]
   10bc4:	e59de008 	ldr	lr, [sp, #8]
   10bc8:	e3082830 	movw	r2, #34864	; 0x8830
   10bcc:	e283300f 	add	r3, r3, #15
   10bd0:	e3402009 	movt	r2, #9
   10bd4:	e308c834 	movw	ip, #34868	; 0x8834
   10bd8:	e3081a48 	movw	r1, #35400	; 0x8a48
   10bdc:	e340c009 	movt	ip, #9
   10be0:	e3401009 	movt	r1, #9
   10be4:	e58ce000 	str	lr, [ip]
   10be8:	e3a0c001 	mov	ip, #1
   10bec:	e581c000 	str	ip, [r1]
   10bf0:	e0209490 	mla	r0, r0, r4, r9
   10bf4:	e0833000 	add	r3, r3, r0
   10bf8:	e3c3300f 	bic	r3, r3, #15
   10bfc:	e58a3000 	str	r3, [sl]
   10c00:	e5820000 	str	r0, [r2]
   10c04:	e28dd01c 	add	sp, sp, #28
   10c08:	e8bd8ff0 	pop	{r4, r5, r6, r7, r8, r9, sl, fp, pc}
   10c0c:	e3a04000 	mov	r4, #0
   10c10:	e3a06008 	mov	r6, #8
   10c14:	e1a09006 	mov	r9, r6
   10c18:	e1a0b004 	mov	fp, r4
   10c1c:	e3a0300f 	mov	r3, #15
   10c20:	e58d4004 	str	r4, [sp, #4]
   10c24:	e58d4000 	str	r4, [sp]
   10c28:	e58d300c 	str	r3, [sp, #12]
   10c2c:	e3e0300f 	mvn	r3, #15
   10c30:	e58d3010 	str	r3, [sp, #16]
   10c34:	e3a03010 	mov	r3, #16
   10c38:	e58d3008 	str	r3, [sp, #8]
   10c3c:	e3a03001 	mov	r3, #1
   10c40:	e58d3014 	str	r3, [sp, #20]
   10c44:	eaffff9c 	b	10abc <__libc_setup_tls+0x9c>
   10c48:	e3540000 	cmp	r4, #0
   10c4c:	0a00000f 	beq	10c90 <__libc_setup_tls+0x270>
   10c50:	e3a0300f 	mov	r3, #15
   10c54:	e58d300c 	str	r3, [sp, #12]
   10c58:	e3e0300f 	mvn	r3, #15
   10c5c:	e58d3010 	str	r3, [sp, #16]
   10c60:	e3a03010 	mov	r3, #16
   10c64:	e58d3008 	str	r3, [sp, #8]
   10c68:	eaffff8d 	b	10aa4 <__libc_setup_tls+0x84>
   10c6c:	e3a06008 	mov	r6, #8
   10c70:	e3a0300f 	mov	r3, #15
   10c74:	e1a04002 	mov	r4, r2
   10c78:	e58d2004 	str	r2, [sp, #4]
   10c7c:	e58d2000 	str	r2, [sp]
   10c80:	e1a0b002 	mov	fp, r2
   10c84:	e1a09006 	mov	r9, r6
   10c88:	e58d300c 	str	r3, [sp, #12]
   10c8c:	eaffffe6 	b	10c2c <__libc_setup_tls+0x20c>
   10c90:	e3a06008 	mov	r6, #8
   10c94:	e3a0300f 	mov	r3, #15
   10c98:	e1a09006 	mov	r9, r6
   10c9c:	e58d300c 	str	r3, [sp, #12]
   10ca0:	eaffffe1 	b	10c2c <__libc_setup_tls+0x20c>

00010ca4 <__tls_get_addr>:
   10ca4:	ee1d3f70 	mrc	15, 0, r3, cr13, cr0, {3}
   10ca8:	e5902004 	ldr	r2, [r0, #4]
   10cac:	e5933000 	ldr	r3, [r3]
   10cb0:	e5930008 	ldr	r0, [r3, #8]
   10cb4:	e0800002 	add	r0, r0, r2
   10cb8:	e12fff1e 	bx	lr

00010cbc <__libc_csu_init>:
   10cbc:	e92d47f0 	push	{r4, r5, r6, r7, r8, r9, sl, lr}
   10cc0:	e3069f80 	movw	r9, #28544	; 0x6f80
   10cc4:	e3065f80 	movw	r5, #28544	; 0x6f80
   10cc8:	e3409009 	movt	r9, #9
   10ccc:	e3405009 	movt	r5, #9
   10cd0:	e1a06000 	mov	r6, r0
   10cd4:	e0499005 	sub	r9, r9, r5
   10cd8:	e1a07001 	mov	r7, r1
   10cdc:	e1a08002 	mov	r8, r2
   10ce0:	e1b09149 	asrs	r9, r9, #2
   10ce4:	13a04000 	movne	r4, #0
   10ce8:	0a000007 	beq	10d0c <__libc_csu_init+0x50>
   10cec:	e2844001 	add	r4, r4, #1
   10cf0:	e4953004 	ldr	r3, [r5], #4
   10cf4:	e1a02008 	mov	r2, r8
   10cf8:	e1a01007 	mov	r1, r7
   10cfc:	e1a00006 	mov	r0, r6
   10d00:	e12fff33 	blx	r3
   10d04:	e1590004 	cmp	r9, r4
   10d08:	1afffff7 	bne	10cec <__libc_csu_init+0x30>
   10d0c:	e3069f84 	movw	r9, #28548	; 0x6f84
   10d10:	e3065f80 	movw	r5, #28544	; 0x6f80
   10d14:	e3409009 	movt	r9, #9
   10d18:	e3405009 	movt	r5, #9
   10d1c:	e0499005 	sub	r9, r9, r5
   10d20:	ebfffd0c 	bl	10158 <__rel_iplt_end>
   10d24:	e1b09149 	asrs	r9, r9, #2
   10d28:	13a04000 	movne	r4, #0
   10d2c:	0a000008 	beq	10d54 <__libc_csu_init+0x98>
   10d30:	e2844001 	add	r4, r4, #1
   10d34:	e4953004 	ldr	r3, [r5], #4
   10d38:	e1a02008 	mov	r2, r8
   10d3c:	e1a01007 	mov	r1, r7
   10d40:	e1a00006 	mov	r0, r6
   10d44:	e12fff33 	blx	r3
   10d48:	e1590004 	cmp	r9, r4
   10d4c:	1afffff7 	bne	10d30 <__libc_csu_init+0x74>
   10d50:	e8bd87f0 	pop	{r4, r5, r6, r7, r8, r9, sl, pc}
   10d54:	e8bd87f0 	pop	{r4, r5, r6, r7, r8, r9, sl, pc}

00010d58 <__libc_csu_fini>:
   10d58:	e92d4070 	push	{r4, r5, r6, lr}
   10d5c:	e3064f8c 	movw	r4, #28556	; 0x6f8c
   10d60:	e3065f84 	movw	r5, #28548	; 0x6f84
   10d64:	e3404009 	movt	r4, #9
   10d68:	e3405009 	movt	r5, #9
   10d6c:	e0444005 	sub	r4, r4, r5
   10d70:	e1b04144 	asrs	r4, r4, #2
   10d74:	10855104 	addne	r5, r5, r4, lsl #2
   10d78:	0a000003 	beq	10d8c <__libc_csu_fini+0x34>
   10d7c:	e5353004 	ldr	r3, [r5, #-4]!
   10d80:	e12fff33 	blx	r3
   10d84:	e2544001 	subs	r4, r4, #1
   10d88:	1afffffb 	bne	10d7c <__libc_csu_fini+0x24>
   10d8c:	e8bd4070 	pop	{r4, r5, r6, lr}
   10d90:	ea018336 	b	71a70 <_fini>

00010d94 <__assert_fail_base>:
   10d94:	e92d4080 	push	{r7, lr}
   10d98:	e306ef8c 	movw	lr, #28556	; 0x6f8c
   10d9c:	e340e009 	movt	lr, #9
   10da0:	e300c000 	movw	ip, #0
   10da4:	e340c000 	movt	ip, #0
   10da8:	e24dd028 	sub	sp, sp, #40	; 0x28
   10dac:	e59ee000 	ldr	lr, [lr]
   10db0:	e35c0000 	cmp	ip, #0
   10db4:	e1a07000 	mov	r7, r0
   10db8:	e1a08001 	mov	r8, r1
   10dbc:	e1a05002 	mov	r5, r2
   10dc0:	e1a06003 	mov	r6, r3
   10dc4:	e58de024 	str	lr, [sp, #36]	; 0x24
   10dc8:	e59d4030 	ldr	r4, [sp, #48]	; 0x30
   10dcc:	0a000002 	beq	10ddc <__assert_fail_base+0x48>
   10dd0:	e3a01000 	mov	r1, #0
   10dd4:	e3a00001 	mov	r0, #1
   10dd8:	e320f000 	nop	{0}
   10ddc:	e3073958 	movw	r3, #31064	; 0x7958
   10de0:	e3403009 	movt	r3, #9
   10de4:	e3011fb8 	movw	r1, #8120	; 0x1fb8
   10de8:	e30208c4 	movw	r0, #10436	; 0x28c4
   10dec:	e5932000 	ldr	r2, [r3]
   10df0:	e3401008 	movt	r1, #8
   10df4:	e3400008 	movt	r0, #8
   10df8:	e28dc020 	add	ip, sp, #32
   10dfc:	e5d23000 	ldrb	r3, [r2]
   10e00:	e58d8010 	str	r8, [sp, #16]
   10e04:	e3530000 	cmp	r3, #0
   10e08:	e58d6004 	str	r6, [sp, #4]
   10e0c:	e58d5000 	str	r5, [sp]
   10e10:	11a03001 	movne	r3, r1
   10e14:	01a03000 	moveq	r3, r0
   10e18:	e3540000 	cmp	r4, #0
   10e1c:	e58dc014 	str	ip, [sp, #20]
   10e20:	01a04000 	moveq	r4, r0
   10e24:	e28d001c 	add	r0, sp, #28
   10e28:	01a01004 	moveq	r1, r4
   10e2c:	e58d4008 	str	r4, [sp, #8]
   10e30:	e58d100c 	str	r1, [sp, #12]
   10e34:	e1a01007 	mov	r1, r7
   10e38:	eb001888 	bl	17060 <___asprintf>
   10e3c:	e3500000 	cmp	r0, #0
   10e40:	ba00002d 	blt	10efc <__assert_fail_base+0x168>
   10e44:	e59d201c 	ldr	r2, [sp, #28]
   10e48:	e3051410 	movw	r1, #21520	; 0x5410
   10e4c:	e3a00000 	mov	r0, #0
   10e50:	e3401008 	movt	r1, #8
   10e54:	eb001896 	bl	170b4 <__fxprintf>
   10e58:	e30734a4 	movw	r3, #29860	; 0x74a4
   10e5c:	e3403009 	movt	r3, #9
   10e60:	e5930000 	ldr	r0, [r3]
   10e64:	eb001990 	bl	174ac <_IO_fflush>
   10e68:	e3073960 	movw	r3, #31072	; 0x7960
   10e6c:	e3403009 	movt	r3, #9
   10e70:	e59d1020 	ldr	r1, [sp, #32]
   10e74:	e3a0c000 	mov	ip, #0
   10e78:	e3e0e000 	mvn	lr, #0
   10e7c:	e5932000 	ldr	r2, [r3]
   10e80:	e1a0000c 	mov	r0, ip
   10e84:	e58dc004 	str	ip, [sp, #4]
   10e88:	e3a03022 	mov	r3, #34	; 0x22
   10e8c:	e0821001 	add	r1, r2, r1
   10e90:	e2622000 	rsb	r2, r2, #0
   10e94:	e0011002 	and	r1, r1, r2
   10e98:	e58de000 	str	lr, [sp]
   10e9c:	e3a02003 	mov	r2, #3
   10ea0:	e58d1020 	str	r1, [sp, #32]
   10ea4:	eb006091 	bl	290f0 <__mmap>
   10ea8:	e3700001 	cmn	r0, #1
   10eac:	e1a04000 	mov	r4, r0
   10eb0:	0a00000e 	beq	10ef0 <__assert_fail_base+0x15c>
   10eb4:	e59d3020 	ldr	r3, [sp, #32]
   10eb8:	e59d101c 	ldr	r1, [sp, #28]
   10ebc:	e4803004 	str	r3, [r0], #4
   10ec0:	eb0051da 	bl	25630 <strcpy>
   10ec4:	e30831a0 	movw	r3, #33184	; 0x81a0
   10ec8:	e3403009 	movt	r3, #9
   10ecc:	e1930f9f 	ldrex	r0, [r3]
   10ed0:	e1832f94 	strex	r2, r4, [r3]
   10ed4:	e3520000 	cmp	r2, #0
   10ed8:	1afffffb 	bne	10ecc <__assert_fail_base+0x138>
   10edc:	e3500000 	cmp	r0, #0
   10ee0:	f57ff05b 	dmb	ish
   10ee4:	0a000001 	beq	10ef0 <__assert_fail_base+0x15c>
   10ee8:	e5901000 	ldr	r1, [r0]
   10eec:	eb0060bf 	bl	291f0 <__munmap>
   10ef0:	e59d001c 	ldr	r0, [sp, #28]
   10ef4:	eb004a1c 	bl	2376c <__cfree>
   10ef8:	eb0011c6 	bl	15618 <abort>
   10efc:	e3011bb0 	movw	r1, #7088	; 0x1bb0
   10f00:	e3a02012 	mov	r2, #18
   10f04:	e3401007 	movt	r1, #7
   10f08:	e3a00002 	mov	r0, #2
   10f0c:	eb005d6b 	bl	284c0 <__libc_write>
   10f10:	eafffff8 	b	10ef8 <__assert_fail_base+0x164>

00010f14 <__assert_fail>:
   10f14:	e92d4080 	push	{r7, lr}
   10f18:	e24dd008 	sub	sp, sp, #8
   10f1c:	e1a04000 	mov	r4, r0
   10f20:	e1a05001 	mov	r5, r1
   10f24:	e1a06002 	mov	r6, r2
   10f28:	e3011b84 	movw	r1, #7044	; 0x1b84
   10f2c:	e3a02005 	mov	r2, #5
   10f30:	e3401007 	movt	r1, #7
   10f34:	e3000550 	movw	r0, #1360	; 0x550
   10f38:	e3400008 	movt	r0, #8
   10f3c:	e1a07003 	mov	r7, r3
   10f40:	eb000004 	bl	10f58 <__dcgettext>
   10f44:	e58d7000 	str	r7, [sp]
   10f48:	e1a03006 	mov	r3, r6
   10f4c:	e1a02005 	mov	r2, r5
   10f50:	e1a01004 	mov	r1, r4
   10f54:	ebffff8e 	bl	10d94 <__assert_fail_base>

00010f58 <__dcgettext>:
   10f58:	e52de004 	push	{lr}		; (str lr, [sp, #-4]!)
   10f5c:	e24dd00c 	sub	sp, sp, #12
   10f60:	e3a03000 	mov	r3, #0
   10f64:	e58d2004 	str	r2, [sp, #4]
   10f68:	e1a02003 	mov	r2, r3
   10f6c:	e58d3000 	str	r3, [sp]
   10f70:	eb00034d 	bl	11cac <__dcigettext>
   10f74:	e28dd00c 	add	sp, sp, #12
   10f78:	e49df004 	pop	{pc}		; (ldr pc, [sp], #4)

00010f7c <plural_eval>:
   10f7c:	e92d41f0 	push	{r4, r5, r6, r7, r8, lr}
   10f80:	e1a05000 	mov	r5, r0
   10f84:	e1a04001 	mov	r4, r1
   10f88:	e5953000 	ldr	r3, [r5]
   10f8c:	e3530003 	cmp	r3, #3
   10f90:	979ff103 	ldrls	pc, [pc, r3, lsl #2]
   10f94:	ea000016 	b	10ff4 <plural_eval+0x78>
   10f98:	00011014 	.word	0x00011014
   10f9c:	00010ffc 	.word	0x00010ffc
   10fa0:	00010fc8 	.word	0x00010fc8
   10fa4:	00010fa8 	.word	0x00010fa8
   10fa8:	e5950008 	ldr	r0, [r5, #8]
   10fac:	e1a01004 	mov	r1, r4
   10fb0:	ebfffff1 	bl	10f7c <plural_eval>
   10fb4:	e3500000 	cmp	r0, #0
   10fb8:	13a03003 	movne	r3, #3
   10fbc:	03a03004 	moveq	r3, #4
   10fc0:	e7955103 	ldr	r5, [r5, r3, lsl #2]
   10fc4:	eaffffef 	b	10f88 <plural_eval+0xc>
   10fc8:	e1a01004 	mov	r1, r4
   10fcc:	e5950008 	ldr	r0, [r5, #8]
   10fd0:	ebffffe9 	bl	10f7c <plural_eval>
   10fd4:	e5956004 	ldr	r6, [r5, #4]
   10fd8:	e356000f 	cmp	r6, #15
   10fdc:	e1a07000 	mov	r7, r0
   10fe0:	0a000014 	beq	11038 <plural_eval+0xbc>
   10fe4:	e356000e 	cmp	r6, #14
   10fe8:	1a00001c 	bne	11060 <plural_eval+0xe4>
   10fec:	e3500000 	cmp	r0, #0
   10ff0:	1a000014 	bne	11048 <plural_eval+0xcc>
   10ff4:	e3a00000 	mov	r0, #0
   10ff8:	e8bd81f0 	pop	{r4, r5, r6, r7, r8, pc}
   10ffc:	e1a01004 	mov	r1, r4
   11000:	e5950008 	ldr	r0, [r5, #8]
   11004:	ebffffdc 	bl	10f7c <plural_eval>
   11008:	e16f0f10 	clz	r0, r0
   1100c:	e1a002a0 	lsr	r0, r0, #5
   11010:	e8bd81f0 	pop	{r4, r5, r6, r7, r8, pc}
   11014:	e5953004 	ldr	r3, [r5, #4]
   11018:	e3530000 	cmp	r3, #0
   1101c:	0a000003 	beq	11030 <plural_eval+0xb4>
   11020:	e3530001 	cmp	r3, #1
   11024:	1afffff2 	bne	10ff4 <plural_eval+0x78>
   11028:	e5950008 	ldr	r0, [r5, #8]
   1102c:	e8bd81f0 	pop	{r4, r5, r6, r7, r8, pc}
   11030:	e1a00004 	mov	r0, r4
   11034:	e8bd81f0 	pop	{r4, r5, r6, r7, r8, pc}
   11038:	e3500000 	cmp	r0, #0
   1103c:	0a000001 	beq	11048 <plural_eval+0xcc>
   11040:	e3a00001 	mov	r0, #1
   11044:	e8bd81f0 	pop	{r4, r5, r6, r7, r8, pc}
   11048:	e1a01004 	mov	r1, r4
   1104c:	e595000c 	ldr	r0, [r5, #12]
   11050:	ebffffc9 	bl	10f7c <plural_eval>
   11054:	e2900000 	adds	r0, r0, #0
   11058:	13a00001 	movne	r0, #1
   1105c:	e8bd81f0 	pop	{r4, r5, r6, r7, r8, pc}
   11060:	e1a01004 	mov	r1, r4
   11064:	e595000c 	ldr	r0, [r5, #12]
   11068:	e2466003 	sub	r6, r6, #3
   1106c:	ebffffc2 	bl	10f7c <plural_eval>
   11070:	e356000a 	cmp	r6, #10
   11074:	979ff106 	ldrls	pc, [pc, r6, lsl #2]
   11078:	eaffffdd 	b	10ff4 <plural_eval+0x78>
   1107c:	00011138 	.word	0x00011138
   11080:	00011128 	.word	0x00011128
   11084:	00011114 	.word	0x00011114
   11088:	0001110c 	.word	0x0001110c
   1108c:	00011104 	.word	0x00011104
   11090:	000110f4 	.word	0x000110f4
   11094:	000110e4 	.word	0x000110e4
   11098:	000110d4 	.word	0x000110d4
   1109c:	000110c4 	.word	0x000110c4
   110a0:	000110b4 	.word	0x000110b4
   110a4:	000110a8 	.word	0x000110a8
   110a8:	e0570000 	subs	r0, r7, r0
   110ac:	13a00001 	movne	r0, #1
   110b0:	e8bd81f0 	pop	{r4, r5, r6, r7, r8, pc}
   110b4:	e0470000 	sub	r0, r7, r0
   110b8:	e16f0f10 	clz	r0, r0
   110bc:	e1a002a0 	lsr	r0, r0, #5
   110c0:	e8bd81f0 	pop	{r4, r5, r6, r7, r8, pc}
   110c4:	e1570000 	cmp	r7, r0
   110c8:	33a00000 	movcc	r0, #0
   110cc:	23a00001 	movcs	r0, #1
   110d0:	e8bd81f0 	pop	{r4, r5, r6, r7, r8, pc}
   110d4:	e1570000 	cmp	r7, r0
   110d8:	83a00000 	movhi	r0, #0
   110dc:	93a00001 	movls	r0, #1
   110e0:	e8bd81f0 	pop	{r4, r5, r6, r7, r8, pc}
   110e4:	e1570000 	cmp	r7, r0
   110e8:	93a00000 	movls	r0, #0
   110ec:	83a00001 	movhi	r0, #1
   110f0:	e8bd81f0 	pop	{r4, r5, r6, r7, r8, pc}
   110f4:	e1570000 	cmp	r7, r0
   110f8:	23a00000 	movcs	r0, #0
   110fc:	33a00001 	movcc	r0, #1
   11100:	e8bd81f0 	pop	{r4, r5, r6, r7, r8, pc}
   11104:	e0470000 	sub	r0, r7, r0
   11108:	e8bd81f0 	pop	{r4, r5, r6, r7, r8, pc}
   1110c:	e0870000 	add	r0, r7, r0
   11110:	e8bd81f0 	pop	{r4, r5, r6, r7, r8, pc}
   11114:	e1a01000 	mov	r1, r0
   11118:	e1a00007 	mov	r0, r7
   1111c:	eb017709 	bl	6ed48 <__aeabi_uidivmod>
   11120:	e1a00001 	mov	r0, r1
   11124:	e8bd81f0 	pop	{r4, r5, r6, r7, r8, pc}
   11128:	e1a01000 	mov	r1, r0
   1112c:	e1a00007 	mov	r0, r7
   11130:	eb017689 	bl	6eb5c <__aeabi_uidiv>
   11134:	e8bd81f0 	pop	{r4, r5, r6, r7, r8, pc}
   11138:	e0000790 	mul	r0, r0, r7
   1113c:	e8bd81f0 	pop	{r4, r5, r6, r7, r8, pc}

00011140 <transcmp>:
   11140:	e5903010 	ldr	r3, [r0, #16]
   11144:	e92d4070 	push	{r4, r5, r6, lr}
   11148:	e3530000 	cmp	r3, #0
   1114c:	e5913010 	ldr	r3, [r1, #16]
   11150:	e1a05000 	mov	r5, r0
   11154:	0595001c 	ldreq	r0, [r5, #28]
   11158:	1280001c 	addne	r0, r0, #28
   1115c:	e3530000 	cmp	r3, #0
   11160:	e1a04001 	mov	r4, r1
   11164:	1281101c 	addne	r1, r1, #28
   11168:	0594101c 	ldreq	r1, [r4, #28]
   1116c:	fa00506f 	blx	25330 <strcmp>
   11170:	e3500000 	cmp	r0, #0
   11174:	18bd8070 	popne	{r4, r5, r6, pc}
   11178:	e5941000 	ldr	r1, [r4]
   1117c:	e5950000 	ldr	r0, [r5]
   11180:	fa00506a 	blx	25330 <strcmp>
   11184:	e3500000 	cmp	r0, #0
   11188:	18bd8070 	popne	{r4, r5, r6, pc}
   1118c:	e5941008 	ldr	r1, [r4, #8]
   11190:	e5950008 	ldr	r0, [r5, #8]
   11194:	fa005065 	blx	25330 <strcmp>
   11198:	e3500000 	cmp	r0, #0
   1119c:	05943004 	ldreq	r3, [r4, #4]
   111a0:	05950004 	ldreq	r0, [r5, #4]
   111a4:	00400003 	subeq	r0, r0, r3
   111a8:	e8bd8070 	pop	{r4, r5, r6, pc}

000111ac <plural_lookup.isra.1>:
   111ac:	e92d41f0 	push	{r4, r5, r6, r7, r8, lr}
   111b0:	e1a07000 	mov	r7, r0
   111b4:	e5900060 	ldr	r0, [r0, #96]	; 0x60
   111b8:	e1a05003 	mov	r5, r3
   111bc:	e1a06002 	mov	r6, r2
   111c0:	ebffff6d 	bl	10f7c <plural_eval>
   111c4:	e5973064 	ldr	r3, [r7, #100]	; 0x64
   111c8:	e1500003 	cmp	r0, r3
   111cc:	2a00000a 	bcs	111fc <plural_lookup.isra.1+0x50>
   111d0:	e0865005 	add	r5, r6, r5
   111d4:	e1a04000 	mov	r4, r0
   111d8:	e1a02006 	mov	r2, r6
   111dc:	e2544001 	subs	r4, r4, #1
   111e0:	e1a00002 	mov	r0, r2
   111e4:	e3a01000 	mov	r1, #0
   111e8:	3a000005 	bcc	11204 <plural_lookup.isra.1+0x58>
   111ec:	eb0057f3 	bl	271c0 <__rawmemchr>
   111f0:	e2802001 	add	r2, r0, #1
   111f4:	e1520005 	cmp	r2, r5
   111f8:	3afffff7 	bcc	111dc <plural_lookup.isra.1+0x30>
   111fc:	e1a00006 	mov	r0, r6
   11200:	e8bd81f0 	pop	{r4, r5, r6, r7, r8, pc}
   11204:	e8bd81f0 	pop	{r4, r5, r6, r7, r8, pc}

00011208 <_nl_find_msg>:
   11208:	e92d4ff0 	push	{r4, r5, r6, r7, r8, r9, sl, fp, lr}
   1120c:	e306cf8c 	movw	ip, #28556	; 0x6f8c
   11210:	e28db020 	add	fp, sp, #32
   11214:	e340c009 	movt	ip, #9
   11218:	e24dd044 	sub	sp, sp, #68	; 0x44
   1121c:	e1a0e00c 	mov	lr, ip
   11220:	e50bc04c 	str	ip, [fp, #-76]	; 0xffffffb4
   11224:	e590c004 	ldr	ip, [r0, #4]
   11228:	e50b2038 	str	r2, [fp, #-56]	; 0xffffffc8
   1122c:	e50b3050 	str	r3, [fp, #-80]	; 0xffffffb0
   11230:	e35c0000 	cmp	ip, #0
   11234:	e59e3000 	ldr	r3, [lr]
   11238:	e59b2004 	ldr	r2, [fp, #4]
   1123c:	e50b0048 	str	r0, [fp, #-72]	; 0xffffffb8
   11240:	e50b1058 	str	r1, [fp, #-88]	; 0xffffffa8
   11244:	e50b2054 	str	r2, [fp, #-84]	; 0xffffffac
   11248:	e50b3028 	str	r3, [fp, #-40]	; 0xffffffd8
   1124c:	da0000c1 	ble	11558 <_nl_find_msg+0x350>
   11250:	e51b3048 	ldr	r3, [fp, #-72]	; 0xffffffb8
   11254:	e5936008 	ldr	r6, [r3, #8]
   11258:	e3560000 	cmp	r6, #0
   1125c:	0a00005c 	beq	113d4 <_nl_find_msg+0x1cc>
   11260:	e596a030 	ldr	sl, [r6, #48]	; 0x30
   11264:	e5967014 	ldr	r7, [r6, #20]
   11268:	e35a0000 	cmp	sl, #0
   1126c:	050b703c 	streq	r7, [fp, #-60]	; 0xffffffc4
   11270:	0a000044 	beq	11388 <_nl_find_msg+0x180>
   11274:	e51b4038 	ldr	r4, [fp, #-56]	; 0xffffffc8
   11278:	e1a00004 	mov	r0, r4
   1127c:	fa0051ef 	blx	25a40 <strlen>
   11280:	e1a09000 	mov	r9, r0
   11284:	e1a00004 	mov	r0, r4
   11288:	eb0010d3 	bl	155dc <__hash_string>
   1128c:	e596402c 	ldr	r4, [r6, #44]	; 0x2c
   11290:	e1a01004 	mov	r1, r4
   11294:	e1a08000 	mov	r8, r0
   11298:	eb0176aa 	bl	6ed48 <__aeabi_uidivmod>
   1129c:	e1a00008 	mov	r0, r8
   112a0:	e1a05001 	mov	r5, r1
   112a4:	e2441002 	sub	r1, r4, #2
   112a8:	eb0176a6 	bl	6ed48 <__aeabi_uidivmod>
   112ac:	e5963034 	ldr	r3, [r6, #52]	; 0x34
   112b0:	e5968030 	ldr	r8, [r6, #48]	; 0x30
   112b4:	e2812001 	add	r2, r1, #1
   112b8:	e50b203c 	str	r2, [fp, #-60]	; 0xffffffc4
   112bc:	e044a002 	sub	sl, r4, r2
   112c0:	e0422004 	sub	r2, r2, r4
   112c4:	e50b2040 	str	r2, [fp, #-64]	; 0xffffffc0
   112c8:	e1a0200a 	mov	r2, sl
   112cc:	e1a0a009 	mov	sl, r9
   112d0:	e1a09008 	mov	r9, r8
   112d4:	e1a08003 	mov	r8, r3
   112d8:	e1a03002 	mov	r3, r2
   112dc:	ea000016 	b	1133c <_nl_find_msg+0x134>
   112e0:	e596200c 	ldr	r2, [r6, #12]
   112e4:	e3520000 	cmp	r2, #0
   112e8:	e5962018 	ldr	r2, [r6, #24]
   112ec:	e0821184 	add	r1, r2, r4, lsl #3
   112f0:	e7922184 	ldr	r2, [r2, r4, lsl #3]
   112f4:	0a00003f 	beq	113f8 <_nl_find_msg+0x1f0>
   112f8:	e6bf2f32 	rev	r2, r2
   112fc:	e15a0002 	cmp	sl, r2
   11300:	8a000009 	bhi	1132c <_nl_find_msg+0x124>
   11304:	e5912004 	ldr	r2, [r1, #4]
   11308:	e5961000 	ldr	r1, [r6]
   1130c:	e6bf2f32 	rev	r2, r2
   11310:	e0811002 	add	r1, r1, r2
   11314:	e50b3044 	str	r3, [fp, #-68]	; 0xffffffbc
   11318:	e51b0038 	ldr	r0, [fp, #-56]	; 0xffffffc8
   1131c:	fa005003 	blx	25330 <strcmp>
   11320:	e51b3044 	ldr	r3, [fp, #-68]	; 0xffffffbc
   11324:	e3500000 	cmp	r0, #0
   11328:	0a000038 	beq	11410 <_nl_find_msg+0x208>
   1132c:	e1550003 	cmp	r5, r3
   11330:	251b2040 	ldrcs	r2, [fp, #-64]	; 0xffffffc0
   11334:	351b203c 	ldrcc	r2, [fp, #-60]	; 0xffffffc4
   11338:	e0855002 	add	r5, r5, r2
   1133c:	e7994105 	ldr	r4, [r9, r5, lsl #2]
   11340:	e3580000 	cmp	r8, #0
   11344:	16bf4f34 	revne	r4, r4
   11348:	e3540000 	cmp	r4, #0
   1134c:	0a000020 	beq	113d4 <_nl_find_msg+0x1cc>
   11350:	e2444001 	sub	r4, r4, #1
   11354:	e1570004 	cmp	r7, r4
   11358:	8affffe0 	bhi	112e0 <_nl_find_msg+0xd8>
   1135c:	e5962024 	ldr	r2, [r6, #36]	; 0x24
   11360:	e0441007 	sub	r1, r4, r7
   11364:	e0820181 	add	r0, r2, r1, lsl #3
   11368:	e7922181 	ldr	r2, [r2, r1, lsl #3]
   1136c:	e15a0002 	cmp	sl, r2
   11370:	2affffed 	bcs	1132c <_nl_find_msg+0x124>
   11374:	e50b3044 	str	r3, [fp, #-68]	; 0xffffffbc
   11378:	e5901004 	ldr	r1, [r0, #4]
   1137c:	eaffffe5 	b	11318 <_nl_find_msg+0x110>
   11380:	0a000021 	beq	1140c <_nl_find_msg+0x204>
   11384:	e284a001 	add	sl, r4, #1
   11388:	e15a0007 	cmp	sl, r7
   1138c:	2a000010 	bcs	113d4 <_nl_find_msg+0x1cc>
   11390:	e5968000 	ldr	r8, [r6]
   11394:	e596500c 	ldr	r5, [r6, #12]
   11398:	e5969018 	ldr	r9, [r6, #24]
   1139c:	e08a4007 	add	r4, sl, r7
   113a0:	e3550000 	cmp	r5, #0
   113a4:	e51b0038 	ldr	r0, [fp, #-56]	; 0xffffffc8
   113a8:	e1a040a4 	lsr	r4, r4, #1
   113ac:	e0893184 	add	r3, r9, r4, lsl #3
   113b0:	e5931004 	ldr	r1, [r3, #4]
   113b4:	16bf1f31 	revne	r1, r1
   113b8:	e0881001 	add	r1, r8, r1
   113bc:	fa004fdb 	blx	25330 <strcmp>
   113c0:	e3500000 	cmp	r0, #0
   113c4:	aaffffed 	bge	11380 <_nl_find_msg+0x178>
   113c8:	e15a0004 	cmp	sl, r4
   113cc:	e1a07004 	mov	r7, r4
   113d0:	3afffff1 	bcc	1139c <_nl_find_msg+0x194>
   113d4:	e3a09000 	mov	r9, #0
   113d8:	e51b304c 	ldr	r3, [fp, #-76]	; 0xffffffb4
   113dc:	e1a00009 	mov	r0, r9
   113e0:	e51b2028 	ldr	r2, [fp, #-40]	; 0xffffffd8
   113e4:	e5933000 	ldr	r3, [r3]
   113e8:	e1520003 	cmp	r2, r3
   113ec:	1a000221 	bne	11c78 <_nl_find_msg+0xa70>
   113f0:	e24bd020 	sub	sp, fp, #32
   113f4:	e8bd8ff0 	pop	{r4, r5, r6, r7, r8, r9, sl, fp, pc}
   113f8:	e15a0002 	cmp	sl, r2
   113fc:	8affffca 	bhi	1132c <_nl_find_msg+0x124>
   11400:	e5912004 	ldr	r2, [r1, #4]
   11404:	e5961000 	ldr	r1, [r6]
   11408:	eaffffc0 	b	11310 <_nl_find_msg+0x108>
   1140c:	e51b703c 	ldr	r7, [fp, #-60]	; 0xffffffc4
   11410:	e1540007 	cmp	r4, r7
   11414:	2a000012 	bcs	11464 <_nl_find_msg+0x25c>
   11418:	e596300c 	ldr	r3, [r6, #12]
   1141c:	e5969000 	ldr	r9, [r6]
   11420:	e3530000 	cmp	r3, #0
   11424:	e596301c 	ldr	r3, [r6, #28]
   11428:	e0832184 	add	r2, r3, r4, lsl #3
   1142c:	e793a184 	ldr	sl, [r3, r4, lsl #3]
   11430:	e5923004 	ldr	r3, [r2, #4]
   11434:	16bfaf3a 	revne	sl, sl
   11438:	16bf3f33 	revne	r3, r3
   1143c:	e28a2001 	add	r2, sl, #1
   11440:	e0899003 	add	r9, r9, r3
   11444:	e51b3050 	ldr	r3, [fp, #-80]	; 0xffffffb0
   11448:	e50b2038 	str	r2, [fp, #-56]	; 0xffffffc8
   1144c:	e3530000 	cmp	r3, #0
   11450:	1a00000c 	bne	11488 <_nl_find_msg+0x280>
   11454:	e51b3054 	ldr	r3, [fp, #-84]	; 0xffffffac
   11458:	e51b2038 	ldr	r2, [fp, #-56]	; 0xffffffc8
   1145c:	e5832000 	str	r2, [r3]
   11460:	eaffffdc 	b	113d8 <_nl_find_msg+0x1d0>
   11464:	e5962028 	ldr	r2, [r6, #40]	; 0x28
   11468:	e0443007 	sub	r3, r4, r7
   1146c:	e0821183 	add	r1, r2, r3, lsl #3
   11470:	e7923183 	ldr	r3, [r2, r3, lsl #3]
   11474:	e5919004 	ldr	r9, [r1, #4]
   11478:	e50b3038 	str	r3, [fp, #-56]	; 0xffffffc8
   1147c:	e51b3050 	ldr	r3, [fp, #-80]	; 0xffffffb0
   11480:	e3530000 	cmp	r3, #0
   11484:	0afffff2 	beq	11454 <_nl_find_msg+0x24c>
   11488:	e51b3058 	ldr	r3, [fp, #-88]	; 0xffffffa8
   1148c:	e3530000 	cmp	r3, #0
   11490:	0a00005a 	beq	11600 <_nl_find_msg+0x3f8>
   11494:	e5933008 	ldr	r3, [r3, #8]
   11498:	e3530000 	cmp	r3, #0
   1149c:	11a0a003 	movne	sl, r3
   114a0:	0a000056 	beq	11600 <_nl_find_msg+0x3f8>
   114a4:	e3003000 	movw	r3, #0
   114a8:	e3403000 	movt	r3, #0
   114ac:	e3530000 	cmp	r3, #0
   114b0:	0a000001 	beq	114bc <_nl_find_msg+0x2b4>
   114b4:	e2860040 	add	r0, r6, #64	; 0x40
   114b8:	e320f000 	nop	{0}
   114bc:	e596803c 	ldr	r8, [r6, #60]	; 0x3c
   114c0:	e3580000 	cmp	r8, #0
   114c4:	0a000025 	beq	11560 <_nl_find_msg+0x358>
   114c8:	e5963038 	ldr	r3, [r6, #56]	; 0x38
   114cc:	e3a0500c 	mov	r5, #12
   114d0:	e0253895 	mla	r5, r5, r8, r3
   114d4:	ea000001 	b	114e0 <_nl_find_msg+0x2d8>
   114d8:	e3580000 	cmp	r8, #0
   114dc:	0a00001f 	beq	11560 <_nl_find_msg+0x358>
   114e0:	e515000c 	ldr	r0, [r5, #-12]
   114e4:	e1a0100a 	mov	r1, sl
   114e8:	fa004f90 	blx	25330 <strcmp>
   114ec:	e245500c 	sub	r5, r5, #12
   114f0:	e2488001 	sub	r8, r8, #1
   114f4:	e3500000 	cmp	r0, #0
   114f8:	1afffff6 	bne	114d8 <_nl_find_msg+0x2d0>
   114fc:	e3008000 	movw	r8, #0
   11500:	e3408000 	movt	r8, #0
   11504:	e3580000 	cmp	r8, #0
   11508:	0a000001 	beq	11514 <_nl_find_msg+0x30c>
   1150c:	e2860040 	add	r0, r6, #64	; 0x40
   11510:	e320f000 	nop	{0}
   11514:	e3550000 	cmp	r5, #0
   11518:	0a000015 	beq	11574 <_nl_find_msg+0x36c>
   1151c:	e5953004 	ldr	r3, [r5, #4]
   11520:	e3730001 	cmn	r3, #1
   11524:	0affffca 	beq	11454 <_nl_find_msg+0x24c>
   11528:	e5953008 	ldr	r3, [r5, #8]
   1152c:	e3530000 	cmp	r3, #0
   11530:	0a00004f 	beq	11674 <_nl_find_msg+0x46c>
   11534:	e3730001 	cmn	r3, #1
   11538:	0a00003f 	beq	1163c <_nl_find_msg+0x434>
   1153c:	e7933104 	ldr	r3, [r3, r4, lsl #2]
   11540:	e3530000 	cmp	r3, #0
   11544:	0a000108 	beq	1196c <_nl_find_msg+0x764>
   11548:	e5932000 	ldr	r2, [r3]
   1154c:	e2839004 	add	r9, r3, #4
   11550:	e50b2038 	str	r2, [fp, #-56]	; 0xffffffc8
   11554:	eaffffbe 	b	11454 <_nl_find_msg+0x24c>
   11558:	eb000495 	bl	127b4 <_nl_load_domain>
   1155c:	eaffff3b 	b	11250 <_nl_find_msg+0x48>
   11560:	e3008000 	movw	r8, #0
   11564:	e3408000 	movt	r8, #0
   11568:	e3580000 	cmp	r8, #0
   1156c:	13a05000 	movne	r5, #0
   11570:	1affffe5 	bne	1150c <_nl_find_msg+0x304>
   11574:	e3003000 	movw	r3, #0
   11578:	e3403000 	movt	r3, #0
   1157c:	e3530000 	cmp	r3, #0
   11580:	0a000001 	beq	1158c <_nl_find_msg+0x384>
   11584:	e2860040 	add	r0, r6, #64	; 0x40
   11588:	e320f000 	nop	{0}
   1158c:	e596303c 	ldr	r3, [r6, #60]	; 0x3c
   11590:	e3530000 	cmp	r3, #0
   11594:	e50b303c 	str	r3, [fp, #-60]	; 0xffffffc4
   11598:	e5963038 	ldr	r3, [r6, #56]	; 0x38
   1159c:	050b3040 	streq	r3, [fp, #-64]	; 0xffffffc0
   115a0:	0a000052 	beq	116f0 <_nl_find_msg+0x4e8>
   115a4:	e51b103c 	ldr	r1, [fp, #-60]	; 0xffffffc4
   115a8:	e1a02003 	mov	r2, r3
   115ac:	e3a0500c 	mov	r5, #12
   115b0:	e50b4044 	str	r4, [fp, #-68]	; 0xffffffbc
   115b4:	e50b3040 	str	r3, [fp, #-64]	; 0xffffffc0
   115b8:	e0252195 	mla	r5, r5, r1, r2
   115bc:	e1a04001 	mov	r4, r1
   115c0:	ea000001 	b	115cc <_nl_find_msg+0x3c4>
   115c4:	e3540000 	cmp	r4, #0
   115c8:	0a000047 	beq	116ec <_nl_find_msg+0x4e4>
   115cc:	e515000c 	ldr	r0, [r5, #-12]
   115d0:	e1a0100a 	mov	r1, sl
   115d4:	fa004f55 	blx	25330 <strcmp>
   115d8:	e245500c 	sub	r5, r5, #12
   115dc:	e2444001 	sub	r4, r4, #1
   115e0:	e3500000 	cmp	r0, #0
   115e4:	1afffff6 	bne	115c4 <_nl_find_msg+0x3bc>
   115e8:	e51b4044 	ldr	r4, [fp, #-68]	; 0xffffffbc
   115ec:	e3580000 	cmp	r8, #0
   115f0:	0affffc9 	beq	1151c <_nl_find_msg+0x314>
   115f4:	e2860040 	add	r0, r6, #64	; 0x40
   115f8:	e320f000 	nop	{0}
   115fc:	eaffffc6 	b	1151c <_nl_find_msg+0x314>
   11600:	e30880ec 	movw	r8, #33004	; 0x80ec
   11604:	e3408009 	movt	r8, #9
   11608:	e5983008 	ldr	r3, [r8, #8]
   1160c:	e3530000 	cmp	r3, #0
   11610:	0a00000b 	beq	11644 <_nl_find_msg+0x43c>
   11614:	e598a00c 	ldr	sl, [r8, #12]
   11618:	e35a0000 	cmp	sl, #0
   1161c:	1affffa0 	bne	114a4 <_nl_find_msg+0x29c>
   11620:	e59f367c 	ldr	r3, [pc, #1660]	; 11ca4 <_nl_find_msg+0xa9c>
   11624:	ee1d2f70 	mrc	15, 0, r2, cr13, cr0, {3}
   11628:	e79f3003 	ldr	r3, [pc, r3]
   1162c:	e7923003 	ldr	r3, [r2, r3]
   11630:	e5933000 	ldr	r3, [r3]
   11634:	e593a05c 	ldr	sl, [r3, #92]	; 0x5c
   11638:	eaffff99 	b	114a4 <_nl_find_msg+0x29c>
   1163c:	e3e09000 	mvn	r9, #0
   11640:	eaffff64 	b	113d8 <_nl_find_msg+0x1d0>
   11644:	e3010bc4 	movw	r0, #7108	; 0x1bc4
   11648:	e3400007 	movt	r0, #7
   1164c:	eb0011ee 	bl	15e0c <getenv>
   11650:	e2505000 	subs	r5, r0, #0
   11654:	0a000002 	beq	11664 <_nl_find_msg+0x45c>
   11658:	e5d53000 	ldrb	r3, [r5]
   1165c:	e3530000 	cmp	r3, #0
   11660:	1a000126 	bne	11b00 <_nl_find_msg+0x8f8>
   11664:	e598a00c 	ldr	sl, [r8, #12]
   11668:	e3a03001 	mov	r3, #1
   1166c:	e5883008 	str	r3, [r8, #8]
   11670:	eaffffe8 	b	11618 <_nl_find_msg+0x410>
   11674:	e50b302c 	str	r3, [fp, #-44]	; 0xffffffd4
   11678:	e3a02001 	mov	r2, #1
   1167c:	e59f3624 	ldr	r3, [pc, #1572]	; 11ca8 <_nl_find_msg+0xaa0>
   11680:	e1a00003 	mov	r0, r3
   11684:	e1a01003 	mov	r1, r3
   11688:	e50b303c 	str	r3, [fp, #-60]	; 0xffffffc4
   1168c:	e1913f9f 	ldrex	r3, [r1]
   11690:	e3530000 	cmp	r3, #0
   11694:	1a000003 	bne	116a8 <_nl_find_msg+0x4a0>
   11698:	e181cf92 	strex	ip, r2, [r1]
   1169c:	e35c0000 	cmp	ip, #0
   116a0:	1afffff9 	bne	1168c <_nl_find_msg+0x484>
   116a4:	f57ff05b 	dmb	ish
   116a8:	0a000001 	beq	116b4 <_nl_find_msg+0x4ac>
   116ac:	e50b302c 	str	r3, [fp, #-44]	; 0xffffffd4
   116b0:	eb006353 	bl	2a404 <__lll_lock_wait_private>
   116b4:	e5953008 	ldr	r3, [r5, #8]
   116b8:	e3530000 	cmp	r3, #0
   116bc:	0a000127 	beq	11b60 <_nl_find_msg+0x958>
   116c0:	e3a03000 	mov	r3, #0
   116c4:	e51b103c 	ldr	r1, [fp, #-60]	; 0xffffffc4
   116c8:	f57ff05b 	dmb	ish
   116cc:	e1912f9f 	ldrex	r2, [r1]
   116d0:	e1810f93 	strex	r0, r3, [r1]
   116d4:	e3500000 	cmp	r0, #0
   116d8:	1afffffb 	bne	116cc <_nl_find_msg+0x4c4>
   116dc:	e3520001 	cmp	r2, #1
   116e0:	ca000128 	bgt	11b88 <_nl_find_msg+0x980>
   116e4:	e5953008 	ldr	r3, [r5, #8]
   116e8:	eaffff91 	b	11534 <_nl_find_msg+0x32c>
   116ec:	e51b4044 	ldr	r4, [fp, #-68]	; 0xffffffbc
   116f0:	e51b3040 	ldr	r3, [fp, #-64]	; 0xffffffc0
   116f4:	e3530000 	cmp	r3, #0
   116f8:	0a000112 	beq	11b48 <_nl_find_msg+0x940>
   116fc:	e1a00003 	mov	r0, r3
   11700:	e51b303c 	ldr	r3, [fp, #-60]	; 0xffffffc4
   11704:	e3a0100c 	mov	r1, #12
   11708:	e0211193 	mla	r1, r3, r1, r1
   1170c:	eb004841 	bl	23818 <__libc_realloc>
   11710:	e1a03000 	mov	r3, r0
   11714:	e3530000 	cmp	r3, #0
   11718:	0a000104 	beq	11b30 <_nl_find_msg+0x928>
   1171c:	e1a0000a 	mov	r0, sl
   11720:	e5863038 	str	r3, [r6, #56]	; 0x38
   11724:	e50b3040 	str	r3, [fp, #-64]	; 0xffffffc0
   11728:	eb0050ae 	bl	259e8 <__strdup>
   1172c:	e250a000 	subs	sl, r0, #0
   11730:	0a0000fe 	beq	11b30 <_nl_find_msg+0x928>
   11734:	e51b303c 	ldr	r3, [fp, #-60]	; 0xffffffc4
   11738:	e3a0c00c 	mov	ip, #12
   1173c:	e24be02c 	sub	lr, fp, #44	; 0x2c
   11740:	e51b1058 	ldr	r1, [fp, #-88]	; 0xffffffa8
   11744:	e51b0048 	ldr	r0, [fp, #-72]	; 0xffffffb8
   11748:	e30228c4 	movw	r2, #10436	; 0x28c4
   1174c:	e00c039c 	mul	ip, ip, r3
   11750:	e51b3040 	ldr	r3, [fp, #-64]	; 0xffffffc0
   11754:	e3402008 	movt	r2, #8
   11758:	e083500c 	add	r5, r3, ip
   1175c:	e783a00c 	str	sl, [r3, ip]
   11760:	e3e03000 	mvn	r3, #0
   11764:	e5853004 	str	r3, [r5, #4]
   11768:	e3a03000 	mov	r3, #0
   1176c:	e58de000 	str	lr, [sp]
   11770:	ebfffea4 	bl	11208 <_nl_find_msg>
   11774:	e3700001 	cmn	r0, #1
   11778:	0affffaf 	beq	1163c <_nl_find_msg+0x434>
   1177c:	e3500000 	cmp	r0, #0
   11780:	0a000073 	beq	11954 <_nl_find_msg+0x74c>
   11784:	e3011bd4 	movw	r1, #7124	; 0x1bd4
   11788:	e3401007 	movt	r1, #7
   1178c:	eb005268 	bl	26134 <strstr>
   11790:	e2503000 	subs	r3, r0, #0
   11794:	0a00006e 	beq	11954 <_nl_find_msg+0x74c>
   11798:	e2833008 	add	r3, r3, #8
   1179c:	e3011be0 	movw	r1, #7136	; 0x1be0
   117a0:	e3401007 	movt	r1, #7
   117a4:	e50b303c 	str	r3, [fp, #-60]	; 0xffffffc4
   117a8:	e1a00003 	mov	r0, r3
   117ac:	eb005033 	bl	25880 <strcspn>
   117b0:	e51b303c 	ldr	r3, [fp, #-60]	; 0xffffffc4
   117b4:	e1a01003 	mov	r1, r3
   117b8:	e280200f 	add	r2, r0, #15
   117bc:	e50b0040 	str	r0, [fp, #-64]	; 0xffffffc0
   117c0:	e3c23007 	bic	r3, r2, #7
   117c4:	e1a02000 	mov	r2, r0
   117c8:	e04dd003 	sub	sp, sp, r3
   117cc:	e28dc008 	add	ip, sp, #8
   117d0:	e50bc03c 	str	ip, [fp, #-60]	; 0xffffffc4
   117d4:	e1a0000c 	mov	r0, ip
   117d8:	eb0055ac 	bl	26e90 <memcpy>
   117dc:	e51b3040 	ldr	r3, [fp, #-64]	; 0xffffffc0
   117e0:	e3a0c000 	mov	ip, #0
   117e4:	e1a0100a 	mov	r1, sl
   117e8:	e1a0200a 	mov	r2, sl
   117ec:	e7c0c003 	strb	ip, [r0, r3]
   117f0:	ea000002 	b	11800 <_nl_find_msg+0x5f8>
   117f4:	e350002f 	cmp	r0, #47	; 0x2f
   117f8:	e1a02003 	mov	r2, r3
   117fc:	028cc001 	addeq	ip, ip, #1
   11800:	e1a03002 	mov	r3, r2
   11804:	e4d30001 	ldrb	r0, [r3], #1
   11808:	e3500000 	cmp	r0, #0
   1180c:	1afffff8 	bne	117f4 <_nl_find_msg+0x5ec>
   11810:	e042300a 	sub	r3, r2, sl
   11814:	e5da2000 	ldrb	r2, [sl]
   11818:	e2833019 	add	r3, r3, #25
   1181c:	e3c33007 	bic	r3, r3, #7
   11820:	e3520000 	cmp	r2, #0
   11824:	e04dd003 	sub	sp, sp, r3
   11828:	e28d3008 	add	r3, sp, #8
   1182c:	e50b3040 	str	r3, [fp, #-64]	; 0xffffffc0
   11830:	0a0000da 	beq	11ba0 <_nl_find_msg+0x998>
   11834:	e300056c 	movw	r0, #1388	; 0x56c
   11838:	e3400008 	movt	r0, #8
   1183c:	e590e03c 	ldr	lr, [r0, #60]	; 0x3c
   11840:	e79e0102 	ldr	r0, [lr, r2, lsl #2]
   11844:	e5f12001 	ldrb	r2, [r1, #1]!
   11848:	e3520000 	cmp	r2, #0
   1184c:	e4c30001 	strb	r0, [r3], #1
   11850:	1afffffa 	bne	11840 <_nl_find_msg+0x638>
   11854:	e35c0001 	cmp	ip, #1
   11858:	8a00000a 	bhi	11888 <_nl_find_msg+0x680>
   1185c:	e35c0000 	cmp	ip, #0
   11860:	e3a0102f 	mov	r1, #47	; 0x2f
   11864:	e5c31000 	strb	r1, [r3]
   11868:	12833001 	addne	r3, r3, #1
   1186c:	03022ff0 	movweq	r2, #12272	; 0x2ff0
   11870:	03402007 	movteq	r2, #7
   11874:	05c31001 	strbeq	r1, [r3, #1]
   11878:	08b20003 	ldmeq	r2!, {r0, r1}
   1187c:	05830002 	streq	r0, [r3, #2]
   11880:	05831006 	streq	r1, [r3, #6]
   11884:	0283300a 	addeq	r3, r3, #10
   11888:	e51b103c 	ldr	r1, [fp, #-60]	; 0xffffffc4
   1188c:	e3a02000 	mov	r2, #0
   11890:	e1a0e002 	mov	lr, r2
   11894:	e5c32000 	strb	r2, [r3]
   11898:	e1a00001 	mov	r0, r1
   1189c:	e1a02001 	mov	r2, r1
   118a0:	ea000002 	b	118b0 <_nl_find_msg+0x6a8>
   118a4:	e351002f 	cmp	r1, #47	; 0x2f
   118a8:	e1a02003 	mov	r2, r3
   118ac:	028ee001 	addeq	lr, lr, #1
   118b0:	e1a03002 	mov	r3, r2
   118b4:	e4d31001 	ldrb	r1, [r3], #1
   118b8:	e3510000 	cmp	r1, #0
   118bc:	1afffff8 	bne	118a4 <_nl_find_msg+0x69c>
   118c0:	e51b303c 	ldr	r3, [fp, #-60]	; 0xffffffc4
   118c4:	e0422003 	sub	r2, r2, r3
   118c8:	e5d33000 	ldrb	r3, [r3]
   118cc:	e2822011 	add	r2, r2, #17
   118d0:	e3c22007 	bic	r2, r2, #7
   118d4:	e3530000 	cmp	r3, #0
   118d8:	e04dd002 	sub	sp, sp, r2
   118dc:	e28d1008 	add	r1, sp, #8
   118e0:	0a0000e5 	beq	11c7c <_nl_find_msg+0xa74>
   118e4:	e300c56c 	movw	ip, #1388	; 0x56c
   118e8:	e340c008 	movt	ip, #8
   118ec:	e1a02001 	mov	r2, r1
   118f0:	e50b103c 	str	r1, [fp, #-60]	; 0xffffffc4
   118f4:	e59cc03c 	ldr	ip, [ip, #60]	; 0x3c
   118f8:	e1a0100c 	mov	r1, ip
   118fc:	e791c103 	ldr	ip, [r1, r3, lsl #2]
   11900:	e5f03001 	ldrb	r3, [r0, #1]!
   11904:	e3530000 	cmp	r3, #0
   11908:	e4c2c001 	strb	ip, [r2], #1
   1190c:	1afffffa 	bne	118fc <_nl_find_msg+0x6f4>
   11910:	e51b103c 	ldr	r1, [fp, #-60]	; 0xffffffc4
   11914:	e35e0001 	cmp	lr, #1
   11918:	8a000005 	bhi	11934 <_nl_find_msg+0x72c>
   1191c:	e35e0000 	cmp	lr, #0
   11920:	e3a0302f 	mov	r3, #47	; 0x2f
   11924:	e5c23000 	strb	r3, [r2]
   11928:	12822001 	addne	r2, r2, #1
   1192c:	05c23001 	strbeq	r3, [r2, #1]
   11930:	02822002 	addeq	r2, r2, #2
   11934:	e3a0c000 	mov	ip, #0
   11938:	e51b0040 	ldr	r0, [fp, #-64]	; 0xffffffc0
   1193c:	e5c2c000 	strb	ip, [r2]
   11940:	e3a03001 	mov	r3, #1
   11944:	e2852004 	add	r2, r5, #4
   11948:	eb0068f5 	bl	2bd24 <__gconv_open>
   1194c:	e3500000 	cmp	r0, #0
   11950:	1a000094 	bne	11ba8 <_nl_find_msg+0x9a0>
   11954:	e596303c 	ldr	r3, [r6, #60]	; 0x3c
   11958:	e3a02000 	mov	r2, #0
   1195c:	e5852008 	str	r2, [r5, #8]
   11960:	e2833001 	add	r3, r3, #1
   11964:	e586303c 	str	r3, [r6, #60]	; 0x3c
   11968:	eaffff1f 	b	115ec <_nl_find_msg+0x3e4>
   1196c:	e50b302c 	str	r3, [fp, #-44]	; 0xffffffd4
   11970:	e3a02001 	mov	r2, #1
   11974:	e59f332c 	ldr	r3, [pc, #812]	; 11ca8 <_nl_find_msg+0xaa0>
   11978:	e1a00003 	mov	r0, r3
   1197c:	e1a01003 	mov	r1, r3
   11980:	e50b303c 	str	r3, [fp, #-60]	; 0xffffffc4
   11984:	e1913f9f 	ldrex	r3, [r1]
   11988:	e3530000 	cmp	r3, #0
   1198c:	1a000003 	bne	119a0 <_nl_find_msg+0x798>
   11990:	e181cf92 	strex	ip, r2, [r1]
   11994:	e35c0000 	cmp	ip, #0
   11998:	1afffff9 	bne	11984 <_nl_find_msg+0x77c>
   1199c:	f57ff05b 	dmb	ish
   119a0:	0a000001 	beq	119ac <_nl_find_msg+0x7a4>
   119a4:	e50b302c 	str	r3, [fp, #-44]	; 0xffffffd4
   119a8:	eb006295 	bl	2a404 <__lll_lock_wait_private>
   119ac:	e24b2024 	sub	r2, fp, #36	; 0x24
   119b0:	e30880ec 	movw	r8, #33004	; 0x80ec
   119b4:	e3408009 	movt	r8, #9
   119b8:	e3a06000 	mov	r6, #0
   119bc:	e1a01002 	mov	r1, r2
   119c0:	e50b9034 	str	r9, [fp, #-52]	; 0xffffffcc
   119c4:	e5982014 	ldr	r2, [r8, #20]
   119c8:	e5983018 	ldr	r3, [r8, #24]
   119cc:	e2822004 	add	r2, r2, #4
   119d0:	e521200c 	str	r2, [r1, #-12]!
   119d4:	e50b1040 	str	r1, [fp, #-64]	; 0xffffffc0
   119d8:	ea000012 	b	11a28 <_nl_find_msg+0x820>
   119dc:	e3560000 	cmp	r6, #0
   119e0:	0a000025 	beq	11a7c <_nl_find_msg+0x874>
   119e4:	e2866001 	add	r6, r6, #1
   119e8:	e3a03eff 	mov	r3, #4080	; 0xff0
   119ec:	e598a004 	ldr	sl, [r8, #4]
   119f0:	e0070693 	mul	r7, r3, r6
   119f4:	e1a0000a 	mov	r0, sl
   119f8:	e1a01007 	mov	r1, r7
   119fc:	e5887018 	str	r7, [r8, #24]
   11a00:	eb004784 	bl	23818 <__libc_realloc>
   11a04:	e3500000 	cmp	r0, #0
   11a08:	0a000026 	beq	11aa8 <_nl_find_msg+0x8a0>
   11a0c:	e2473004 	sub	r3, r7, #4
   11a10:	e5880004 	str	r0, [r8, #4]
   11a14:	e2802004 	add	r2, r0, #4
   11a18:	e5883018 	str	r3, [r8, #24]
   11a1c:	e2800008 	add	r0, r0, #8
   11a20:	e5882014 	str	r2, [r8, #20]
   11a24:	e50b0030 	str	r0, [fp, #-48]	; 0xffffffd0
   11a28:	e3530003 	cmp	r3, #3
   11a2c:	9affffea 	bls	119dc <_nl_find_msg+0x7d4>
   11a30:	e51bc030 	ldr	ip, [fp, #-48]	; 0xffffffd0
   11a34:	e2431004 	sub	r1, r3, #4
   11a38:	e5950004 	ldr	r0, [r5, #4]
   11a3c:	e08c1001 	add	r1, ip, r1
   11a40:	e51b2034 	ldr	r2, [fp, #-52]	; 0xffffffcc
   11a44:	e58d1000 	str	r1, [sp]
   11a48:	e51b1038 	ldr	r1, [fp, #-56]	; 0xffffffc8
   11a4c:	e51b3040 	ldr	r3, [fp, #-64]	; 0xffffffc0
   11a50:	e0822001 	add	r2, r2, r1
   11a54:	e24b102c 	sub	r1, fp, #44	; 0x2c
   11a58:	e58d1004 	str	r1, [sp, #4]
   11a5c:	e24b1034 	sub	r1, fp, #52	; 0x34
   11a60:	eb006a01 	bl	2c26c <__gconv>
   11a64:	e3d03004 	bics	r3, r0, #4
   11a68:	0a000068 	beq	11c10 <_nl_find_msg+0xa08>
   11a6c:	e3500005 	cmp	r0, #5
   11a70:	1a000056 	bne	11bd0 <_nl_find_msg+0x9c8>
   11a74:	e50b9034 	str	r9, [fp, #-52]	; 0xffffffcc
   11a78:	eaffffd7 	b	119dc <_nl_find_msg+0x7d4>
   11a7c:	e3a00eff 	mov	r0, #4080	; 0xff0
   11a80:	e5880018 	str	r0, [r8, #24]
   11a84:	eb004620 	bl	2330c <__libc_malloc>
   11a88:	e3500000 	cmp	r0, #0
   11a8c:	0a000009 	beq	11ab8 <_nl_find_msg+0x8b0>
   11a90:	e5982004 	ldr	r2, [r8, #4]
   11a94:	e3003fec 	movw	r3, #4076	; 0xfec
   11a98:	e5880004 	str	r0, [r8, #4]
   11a9c:	e3a06001 	mov	r6, #1
   11aa0:	e5802000 	str	r2, [r0]
   11aa4:	eaffffda 	b	11a14 <_nl_find_msg+0x80c>
   11aa8:	e59a3000 	ldr	r3, [sl]
   11aac:	e1a0000a 	mov	r0, sl
   11ab0:	e5883004 	str	r3, [r8, #4]
   11ab4:	eb00472c 	bl	2376c <__cfree>
   11ab8:	e3a03000 	mov	r3, #0
   11abc:	e51b103c 	ldr	r1, [fp, #-60]	; 0xffffffc4
   11ac0:	e5883014 	str	r3, [r8, #20]
   11ac4:	e5883018 	str	r3, [r8, #24]
   11ac8:	f57ff05b 	dmb	ish
   11acc:	e1912f9f 	ldrex	r2, [r1]
   11ad0:	e1810f93 	strex	r0, r3, [r1]
   11ad4:	e3500000 	cmp	r0, #0
   11ad8:	1afffffb 	bne	11acc <_nl_find_msg+0x8c4>
   11adc:	e3520001 	cmp	r2, #1
   11ae0:	dafffed5 	ble	1163c <_nl_find_msg+0x434>
   11ae4:	e59f01bc 	ldr	r0, [pc, #444]	; 11ca8 <_nl_find_msg+0xaa0>
   11ae8:	e3a01081 	mov	r1, #129	; 0x81
   11aec:	e3a02001 	mov	r2, #1
   11af0:	e3a070f0 	mov	r7, #240	; 0xf0
   11af4:	ef000000 	svc	0x00000000
   11af8:	e3e09000 	mvn	r9, #0
   11afc:	eafffe35 	b	113d8 <_nl_find_msg+0x1d0>
   11b00:	fa004fce 	blx	25a40 <strlen>
   11b04:	e2802001 	add	r2, r0, #1
   11b08:	e50b203c 	str	r2, [fp, #-60]	; 0xffffffc4
   11b0c:	e1a00002 	mov	r0, r2
   11b10:	eb0045fd 	bl	2330c <__libc_malloc>
   11b14:	e250a000 	subs	sl, r0, #0
   11b18:	0a000002 	beq	11b28 <_nl_find_msg+0x920>
   11b1c:	e51b203c 	ldr	r2, [fp, #-60]	; 0xffffffc4
   11b20:	e1a01005 	mov	r1, r5
   11b24:	eb0054d9 	bl	26e90 <memcpy>
   11b28:	e588a00c 	str	sl, [r8, #12]
   11b2c:	eafffecd 	b	11668 <_nl_find_msg+0x460>
   11b30:	e3580000 	cmp	r8, #0
   11b34:	0afffec0 	beq	1163c <_nl_find_msg+0x434>
   11b38:	e2860040 	add	r0, r6, #64	; 0x40
   11b3c:	e3e09000 	mvn	r9, #0
   11b40:	e320f000 	nop	{0}
   11b44:	eafffe23 	b	113d8 <_nl_find_msg+0x1d0>
   11b48:	e51b303c 	ldr	r3, [fp, #-60]	; 0xffffffc4
   11b4c:	e3a0000c 	mov	r0, #12
   11b50:	e0200093 	mla	r0, r3, r0, r0
   11b54:	eb0045ec 	bl	2330c <__libc_malloc>
   11b58:	e1a03000 	mov	r3, r0
   11b5c:	eafffeec 	b	11714 <_nl_find_msg+0x50c>
   11b60:	e5960020 	ldr	r0, [r6, #32]
   11b64:	e3a01004 	mov	r1, #4
   11b68:	e0870000 	add	r0, r7, r0
   11b6c:	eb0047d6 	bl	23acc <__calloc>
   11b70:	e3500000 	cmp	r0, #0
   11b74:	e5850008 	str	r0, [r5, #8]
   11b78:	1affff8b 	bne	119ac <_nl_find_msg+0x7a4>
   11b7c:	e3e03000 	mvn	r3, #0
   11b80:	e5853008 	str	r3, [r5, #8]
   11b84:	eafffecd 	b	116c0 <_nl_find_msg+0x4b8>
   11b88:	e59f0118 	ldr	r0, [pc, #280]	; 11ca8 <_nl_find_msg+0xaa0>
   11b8c:	e3a01081 	mov	r1, #129	; 0x81
   11b90:	e3a02001 	mov	r2, #1
   11b94:	e3a070f0 	mov	r7, #240	; 0xf0
   11b98:	ef000000 	svc	0x00000000
   11b9c:	eafffed0 	b	116e4 <_nl_find_msg+0x4dc>
   11ba0:	e51b3040 	ldr	r3, [fp, #-64]	; 0xffffffc0
   11ba4:	eaffff2a 	b	11854 <_nl_find_msg+0x64c>
   11ba8:	e3700001 	cmn	r0, #1
   11bac:	0a000034 	beq	11c84 <_nl_find_msg+0xa7c>
   11bb0:	e3580000 	cmp	r8, #0
   11bb4:	0a000001 	beq	11bc0 <_nl_find_msg+0x9b8>
   11bb8:	e2860040 	add	r0, r6, #64	; 0x40
   11bbc:	e320f000 	nop	{0}
   11bc0:	e1a0000a 	mov	r0, sl
   11bc4:	e3a09000 	mov	r9, #0
   11bc8:	eb0046e7 	bl	2376c <__cfree>
   11bcc:	eafffe01 	b	113d8 <_nl_find_msg+0x1d0>
   11bd0:	e3a03000 	mov	r3, #0
   11bd4:	e51b103c 	ldr	r1, [fp, #-60]	; 0xffffffc4
   11bd8:	f57ff05b 	dmb	ish
   11bdc:	e1912f9f 	ldrex	r2, [r1]
   11be0:	e1810f93 	strex	r0, r3, [r1]
   11be4:	e3500000 	cmp	r0, #0
   11be8:	1afffffb 	bne	11bdc <_nl_find_msg+0x9d4>
   11bec:	e3520001 	cmp	r2, #1
   11bf0:	dafffdf7 	ble	113d4 <_nl_find_msg+0x1cc>
   11bf4:	e59f00ac 	ldr	r0, [pc, #172]	; 11ca8 <_nl_find_msg+0xaa0>
   11bf8:	e3a01081 	mov	r1, #129	; 0x81
   11bfc:	e3a02001 	mov	r2, #1
   11c00:	e3a070f0 	mov	r7, #240	; 0xf0
   11c04:	ef000000 	svc	0x00000000
   11c08:	e1a09003 	mov	r9, r3
   11c0c:	eafffdf1 	b	113d8 <_nl_find_msg+0x1d0>
   11c10:	e5980014 	ldr	r0, [r8, #20]
   11c14:	e1a0c104 	lsl	ip, r4, #2
   11c18:	e51b1030 	ldr	r1, [fp, #-48]	; 0xffffffd0
   11c1c:	e5982018 	ldr	r2, [r8, #24]
   11c20:	e0416000 	sub	r6, r1, r0
   11c24:	e595e008 	ldr	lr, [r5, #8]
   11c28:	e0422006 	sub	r2, r2, r6
   11c2c:	e2466004 	sub	r6, r6, #4
   11c30:	e5806000 	str	r6, [r0]
   11c34:	e2026003 	and	r6, r2, #3
   11c38:	e0811006 	add	r1, r1, r6
   11c3c:	e3c22003 	bic	r2, r2, #3
   11c40:	e5881014 	str	r1, [r8, #20]
   11c44:	e5882018 	str	r2, [r8, #24]
   11c48:	e78e0104 	str	r0, [lr, r4, lsl #2]
   11c4c:	e51b103c 	ldr	r1, [fp, #-60]	; 0xffffffc4
   11c50:	f57ff05b 	dmb	ish
   11c54:	e1912f9f 	ldrex	r2, [r1]
   11c58:	e1810f93 	strex	r0, r3, [r1]
   11c5c:	e3500000 	cmp	r0, #0
   11c60:	1afffffb 	bne	11c54 <_nl_find_msg+0xa4c>
   11c64:	e3520001 	cmp	r2, #1
   11c68:	ca000007 	bgt	11c8c <_nl_find_msg+0xa84>
   11c6c:	e5953008 	ldr	r3, [r5, #8]
   11c70:	e793300c 	ldr	r3, [r3, ip]
   11c74:	eafffe33 	b	11548 <_nl_find_msg+0x340>
   11c78:	eb00635a 	bl	2a9e8 <__stack_chk_fail>
   11c7c:	e1a02001 	mov	r2, r1
   11c80:	eaffff23 	b	11914 <_nl_find_msg+0x70c>
   11c84:	e5850004 	str	r0, [r5, #4]
   11c88:	eaffff31 	b	11954 <_nl_find_msg+0x74c>
   11c8c:	e59f0014 	ldr	r0, [pc, #20]	; 11ca8 <_nl_find_msg+0xaa0>
   11c90:	e3a01081 	mov	r1, #129	; 0x81
   11c94:	e3a02001 	mov	r2, #1
   11c98:	e3a070f0 	mov	r7, #240	; 0xf0
   11c9c:	ef000000 	svc	0x00000000
   11ca0:	eafffff1 	b	11c6c <_nl_find_msg+0xa64>
   11ca4:	00085a14 	.word	0x00085a14
   11ca8:	000980fc 	.word	0x000980fc

00011cac <__dcigettext>:
   11cac:	e92d4ff0 	push	{r4, r5, r6, r7, r8, r9, sl, fp, lr}
   11cb0:	e306cf8c 	movw	ip, #28556	; 0x6f8c
   11cb4:	e28db020 	add	fp, sp, #32
   11cb8:	e340c009 	movt	ip, #9
   11cbc:	e3510000 	cmp	r1, #0
   11cc0:	e24dd074 	sub	sp, sp, #116	; 0x74
   11cc4:	e50b1050 	str	r1, [fp, #-80]	; 0xffffffb0
   11cc8:	e59c1000 	ldr	r1, [ip]
   11ccc:	e50bc058 	str	ip, [fp, #-88]	; 0xffffffa8
   11cd0:	e50b206c 	str	r2, [fp, #-108]	; 0xffffff94
   11cd4:	e50b3068 	str	r3, [fp, #-104]	; 0xffffff98
   11cd8:	e50b1028 	str	r1, [fp, #-40]	; 0xffffffd8
   11cdc:	0a0000e2 	beq	1206c <__dcigettext+0x3c0>
   11ce0:	e59b2008 	ldr	r2, [fp, #8]
   11ce4:	e2425006 	sub	r5, r2, #6
   11ce8:	e16f5f15 	clz	r5, r5
   11cec:	e1a052a5 	lsr	r5, r5, #5
   11cf0:	e352000c 	cmp	r2, #12
   11cf4:	83855001 	orrhi	r5, r5, #1
   11cf8:	e3550000 	cmp	r5, #0
   11cfc:	1a0000dc 	bne	12074 <__dcigettext+0x3c8>
   11d00:	e59f37dc 	ldr	r3, [pc, #2012]	; 124e4 <__dcigettext+0x838>
   11d04:	ee1d8f70 	mrc	15, 0, r8, cr13, cr0, {3}
   11d08:	e3004000 	movw	r4, #0
   11d0c:	e3404000 	movt	r4, #0
   11d10:	e3540000 	cmp	r4, #0
   11d14:	e1a07000 	mov	r7, r0
   11d18:	e79f3003 	ldr	r3, [pc, r3]
   11d1c:	e7983003 	ldr	r3, [r8, r3]
   11d20:	e50b3074 	str	r3, [fp, #-116]	; 0xffffff8c
   11d24:	0a00011d 	beq	121a0 <__dcigettext+0x4f4>
   11d28:	e3080598 	movw	r0, #34200	; 0x8598
   11d2c:	e3400009 	movt	r0, #9
   11d30:	e320f000 	nop	{0}
   11d34:	e59f07ac 	ldr	r0, [pc, #1964]	; 124e8 <__dcigettext+0x83c>
   11d38:	e320f000 	nop	{0}
   11d3c:	e3570000 	cmp	r7, #0
   11d40:	0a000147 	beq	12264 <__dcigettext+0x5b8>
   11d44:	e51b3050 	ldr	r3, [fp, #-80]	; 0xffffffb0
   11d48:	e59b0008 	ldr	r0, [fp, #8]
   11d4c:	e50b5038 	str	r5, [fp, #-56]	; 0xffffffc8
   11d50:	e50b302c 	str	r3, [fp, #-44]	; 0xffffffd4
   11d54:	e50b7048 	str	r7, [fp, #-72]	; 0xffffffb8
   11d58:	e50b0044 	str	r0, [fp, #-68]	; 0xffffffbc
   11d5c:	eb0094ba 	bl	3704c <__current_locale_name>
   11d60:	e1a04000 	mov	r4, r0
   11d64:	fa004f35 	blx	25a40 <strlen>
   11d68:	e1a01004 	mov	r1, r4
   11d6c:	e280300f 	add	r3, r0, #15
   11d70:	e2802001 	add	r2, r0, #1
   11d74:	e3c33007 	bic	r3, r3, #7
   11d78:	e04dd003 	sub	sp, sp, r3
   11d7c:	e28d0008 	add	r0, sp, #8
   11d80:	eb005442 	bl	26e90 <memcpy>
   11d84:	e50b007c 	str	r0, [fp, #-124]	; 0xffffff84
   11d88:	e50b0040 	str	r0, [fp, #-64]	; 0xffffffc0
   11d8c:	e59f0758 	ldr	r0, [pc, #1880]	; 124ec <__dcigettext+0x840>
   11d90:	e320f000 	nop	{0}
   11d94:	e3003000 	movw	r3, #0
   11d98:	e3403000 	movt	r3, #0
   11d9c:	e3012140 	movw	r2, #4416	; 0x1140
   11da0:	e30810ec 	movw	r1, #33004	; 0x80ec
   11da4:	e3402001 	movt	r2, #1
   11da8:	e3401009 	movt	r1, #9
   11dac:	e24b0048 	sub	r0, fp, #72	; 0x48
   11db0:	e1a04003 	mov	r4, r3
   11db4:	e50b3064 	str	r3, [fp, #-100]	; 0xffffff9c
   11db8:	eb005e14 	bl	29610 <__tfind>
   11dbc:	e3540000 	cmp	r4, #0
   11dc0:	e50b0070 	str	r0, [fp, #-112]	; 0xffffff90
   11dc4:	0a000001 	beq	11dd0 <__dcigettext+0x124>
   11dc8:	e59f071c 	ldr	r0, [pc, #1820]	; 124ec <__dcigettext+0x840>
   11dcc:	e320f000 	nop	{0}
   11dd0:	e51b3070 	ldr	r3, [fp, #-112]	; 0xffffff90
   11dd4:	e3530000 	cmp	r3, #0
   11dd8:	0a000006 	beq	11df8 <__dcigettext+0x14c>
   11ddc:	e5932000 	ldr	r2, [r3]
   11de0:	e3083a50 	movw	r3, #35408	; 0x8a50
   11de4:	e3403009 	movt	r3, #9
   11de8:	e592100c 	ldr	r1, [r2, #12]
   11dec:	e5933000 	ldr	r3, [r3]
   11df0:	e1510003 	cmp	r1, r3
   11df4:	0a000107 	beq	12218 <__dcigettext+0x56c>
   11df8:	e3083a4c 	movw	r3, #35404	; 0x8a4c
   11dfc:	e3403009 	movt	r3, #9
   11e00:	e5935000 	ldr	r5, [r3]
   11e04:	e3550000 	cmp	r5, #0
   11e08:	1a000004 	bne	11e20 <__dcigettext+0x174>
   11e0c:	ea0000f8 	b	121f4 <__dcigettext+0x548>
   11e10:	ba0000fb 	blt	12204 <__dcigettext+0x558>
   11e14:	e5955000 	ldr	r5, [r5]
   11e18:	e3550000 	cmp	r5, #0
   11e1c:	0a0000f4 	beq	121f4 <__dcigettext+0x548>
   11e20:	e285100c 	add	r1, r5, #12
   11e24:	e1a00007 	mov	r0, r7
   11e28:	fa004d40 	blx	25330 <strcmp>
   11e2c:	e3500000 	cmp	r0, #0
   11e30:	1afffff6 	bne	11e10 <__dcigettext+0x164>
   11e34:	e5953004 	ldr	r3, [r5, #4]
   11e38:	e1a04000 	mov	r4, r0
   11e3c:	e50b3054 	str	r3, [fp, #-84]	; 0xffffffac
   11e40:	e5d33000 	ldrb	r3, [r3]
   11e44:	e353002f 	cmp	r3, #47	; 0x2f
   11e48:	0a000020 	beq	11ed0 <__dcigettext+0x224>
   11e4c:	e51b0054 	ldr	r0, [fp, #-84]	; 0xffffffac
   11e50:	e3019002 	movw	r9, #4098	; 0x1002
   11e54:	fa004ef9 	blx	25a40 <strlen>
   11e58:	e2806001 	add	r6, r0, #1
   11e5c:	ea000006 	b	11e7c <__dcigettext+0x1d0>
   11e60:	e59f3688 	ldr	r3, [pc, #1672]	; 124f0 <__dcigettext+0x844>
   11e64:	e79f3003 	ldr	r3, [pc, r3]
   11e68:	e7983003 	ldr	r3, [r8, r3]
   11e6c:	e3530022 	cmp	r3, #34	; 0x22
   11e70:	1a00006c 	bne	12028 <__dcigettext+0x37c>
   11e74:	e08990a9 	add	r9, r9, r9, lsr #1
   11e78:	e2899020 	add	r9, r9, #32
   11e7c:	e0893006 	add	r3, r9, r6
   11e80:	e59f266c 	ldr	r2, [pc, #1644]	; 124f4 <__dcigettext+0x848>
   11e84:	e283300e 	add	r3, r3, #14
   11e88:	e1a01009 	mov	r1, r9
   11e8c:	e3c33007 	bic	r3, r3, #7
   11e90:	e04dd003 	sub	sp, sp, r3
   11e94:	e79f2002 	ldr	r2, [pc, r2]
   11e98:	e28da008 	add	sl, sp, #8
   11e9c:	e1a0000a 	mov	r0, sl
   11ea0:	e7884002 	str	r4, [r8, r2]
   11ea4:	eb005a2f 	bl	28768 <__getcwd>
   11ea8:	e3500000 	cmp	r0, #0
   11eac:	0affffeb 	beq	11e60 <__dcigettext+0x1b4>
   11eb0:	e3a01000 	mov	r1, #0
   11eb4:	e1a0000a 	mov	r0, sl
   11eb8:	eb0054c0 	bl	271c0 <__rawmemchr>
   11ebc:	e51b1054 	ldr	r1, [fp, #-84]	; 0xffffffac
   11ec0:	e3a0302f 	mov	r3, #47	; 0x2f
   11ec4:	e50ba054 	str	sl, [fp, #-84]	; 0xffffffac
   11ec8:	e4c03001 	strb	r3, [r0], #1
   11ecc:	eb004dd7 	bl	25630 <strcpy>
   11ed0:	e59b0008 	ldr	r0, [fp, #8]
   11ed4:	e304240c 	movw	r2, #17420	; 0x440c
   11ed8:	e3402007 	movt	r2, #7
   11edc:	e3043380 	movw	r3, #17280	; 0x4380
   11ee0:	e3403007 	movt	r3, #7
   11ee4:	e7d26000 	ldrb	r6, [r2, r0]
   11ee8:	e0866003 	add	r6, r6, r3
   11eec:	eb009456 	bl	3704c <__current_locale_name>
   11ef0:	e5d03000 	ldrb	r3, [r0]
   11ef4:	e1a04000 	mov	r4, r0
   11ef8:	e3530043 	cmp	r3, #67	; 0x43
   11efc:	1a000069 	bne	120a8 <__dcigettext+0x3fc>
   11f00:	e5d03001 	ldrb	r3, [r0, #1]
   11f04:	e3530000 	cmp	r3, #0
   11f08:	1a000066 	bne	120a8 <__dcigettext+0x3fc>
   11f0c:	e1a00007 	mov	r0, r7
   11f10:	e301abf4 	movw	sl, #7156	; 0x1bf4
   11f14:	fa004ec9 	blx	25a40 <strlen>
   11f18:	e3069fdc 	movw	r9, #28636	; 0x6fdc
   11f1c:	e340a007 	movt	sl, #7
   11f20:	e3409009 	movt	r9, #9
   11f24:	e50b0078 	str	r0, [fp, #-120]	; 0xffffff88
   11f28:	e1a00006 	mov	r0, r6
   11f2c:	fa004ec3 	blx	25a40 <strlen>
   11f30:	e1a01006 	mov	r1, r6
   11f34:	e51b6078 	ldr	r6, [fp, #-120]	; 0xffffff88
   11f38:	e0863000 	add	r3, r6, r0
   11f3c:	e2833013 	add	r3, r3, #19
   11f40:	e3c33007 	bic	r3, r3, #7
   11f44:	e04dd003 	sub	sp, sp, r3
   11f48:	e28d3008 	add	r3, sp, #8
   11f4c:	e50b305c 	str	r3, [fp, #-92]	; 0xffffffa4
   11f50:	e1a00003 	mov	r0, r3
   11f54:	eb004db1 	bl	25620 <__stpcpy>
   11f58:	e3033c3c 	movw	r3, #15420	; 0x3c3c
   11f5c:	e3403007 	movt	r3, #7
   11f60:	e1a02006 	mov	r2, r6
   11f64:	e1a01007 	mov	r1, r7
   11f68:	e1d330b0 	ldrh	r3, [r3]
   11f6c:	e0c030b1 	strh	r3, [r0], #1
   11f70:	eb0053c6 	bl	26e90 <memcpy>
   11f74:	e3013bf0 	movw	r3, #7152	; 0x1bf0
   11f78:	e3403007 	movt	r3, #7
   11f7c:	e1a02000 	mov	r2, r0
   11f80:	e5930000 	ldr	r0, [r3]
   11f84:	e7820006 	str	r0, [r2, r6]
   11f88:	e1a00004 	mov	r0, r4
   11f8c:	fa004eab 	blx	25a40 <strlen>
   11f90:	e280000f 	add	r0, r0, #15
   11f94:	e3c00007 	bic	r0, r0, #7
   11f98:	e04dd000 	sub	sp, sp, r0
   11f9c:	e28d6008 	add	r6, sp, #8
   11fa0:	e5d43000 	ldrb	r3, [r4]
   11fa4:	e353003a 	cmp	r3, #58	; 0x3a
   11fa8:	0a00005f 	beq	1212c <__dcigettext+0x480>
   11fac:	e3530000 	cmp	r3, #0
   11fb0:	1a000045 	bne	120cc <__dcigettext+0x420>
   11fb4:	e5c63001 	strb	r3, [r6, #1]
   11fb8:	e3a03043 	mov	r3, #67	; 0x43
   11fbc:	e5c63000 	strb	r3, [r6]
   11fc0:	e5d63001 	ldrb	r3, [r6, #1]
   11fc4:	e3530000 	cmp	r3, #0
   11fc8:	0a000016 	beq	12028 <__dcigettext+0x37c>
   11fcc:	e1a0100a 	mov	r1, sl
   11fd0:	e1a00006 	mov	r0, r6
   11fd4:	fa004cd5 	blx	25330 <strcmp>
   11fd8:	e3500000 	cmp	r0, #0
   11fdc:	0a000011 	beq	12028 <__dcigettext+0x37c>
   11fe0:	e1a03005 	mov	r3, r5
   11fe4:	e51b205c 	ldr	r2, [fp, #-92]	; 0xffffffa4
   11fe8:	e1a01006 	mov	r1, r6
   11fec:	e51b0054 	ldr	r0, [fp, #-84]	; 0xffffffac
   11ff0:	eb000143 	bl	12504 <_nl_find_domain>
   11ff4:	e2503000 	subs	r3, r0, #0
   11ff8:	e50b3060 	str	r3, [fp, #-96]	; 0xffffffa0
   11ffc:	0affffe7 	beq	11fa0 <__dcigettext+0x2f4>
   12000:	e24b304c 	sub	r3, fp, #76	; 0x4c
   12004:	e51b2050 	ldr	r2, [fp, #-80]	; 0xffffffb0
   12008:	e58d3000 	str	r3, [sp]
   1200c:	e1a01005 	mov	r1, r5
   12010:	e3a03001 	mov	r3, #1
   12014:	ebfffc7b 	bl	11208 <_nl_find_msg>
   12018:	e2503000 	subs	r3, r0, #0
   1201c:	0a000044 	beq	12134 <__dcigettext+0x488>
   12020:	e3730001 	cmn	r3, #1
   12024:	1a0000ac 	bne	122dc <__dcigettext+0x630>
   12028:	e51b3064 	ldr	r3, [fp, #-100]	; 0xffffff9c
   1202c:	e3530000 	cmp	r3, #0
   12030:	0a000004 	beq	12048 <__dcigettext+0x39c>
   12034:	e59f04ac 	ldr	r0, [pc, #1196]	; 124e8 <__dcigettext+0x83c>
   12038:	e320f000 	nop	{0}
   1203c:	e3080598 	movw	r0, #34200	; 0x8598
   12040:	e3400009 	movt	r0, #9
   12044:	e320f000 	nop	{0}
   12048:	e59f34a8 	ldr	r3, [pc, #1192]	; 124f8 <__dcigettext+0x84c>
   1204c:	e59b2004 	ldr	r2, [fp, #4]
   12050:	e51b1068 	ldr	r1, [fp, #-104]	; 0xffffff98
   12054:	e79f3003 	ldr	r3, [pc, r3]
   12058:	e3510000 	cmp	r1, #0
   1205c:	13520001 	cmpne	r2, #1
   12060:	e51b2074 	ldr	r2, [fp, #-116]	; 0xffffff8c
   12064:	e7882003 	str	r2, [r8, r3]
   12068:	1a000005 	bne	12084 <__dcigettext+0x3d8>
   1206c:	e51b3050 	ldr	r3, [fp, #-80]	; 0xffffffb0
   12070:	ea000004 	b	12088 <__dcigettext+0x3dc>
   12074:	e59b2004 	ldr	r2, [fp, #4]
   12078:	e3530000 	cmp	r3, #0
   1207c:	13520001 	cmpne	r2, #1
   12080:	0afffff9 	beq	1206c <__dcigettext+0x3c0>
   12084:	e51b306c 	ldr	r3, [fp, #-108]	; 0xffffff94
   12088:	e1a00003 	mov	r0, r3
   1208c:	e51b3058 	ldr	r3, [fp, #-88]	; 0xffffffa8
   12090:	e51b2028 	ldr	r2, [fp, #-40]	; 0xffffffd8
   12094:	e5933000 	ldr	r3, [r3]
   12098:	e1520003 	cmp	r2, r3
   1209c:	1a00010f 	bne	124e0 <__dcigettext+0x834>
   120a0:	e24bd020 	sub	sp, fp, #32
   120a4:	e8bd8ff0 	pop	{r4, r5, r6, r7, r8, r9, sl, fp, pc}
   120a8:	e3010be4 	movw	r0, #7140	; 0x1be4
   120ac:	e3400007 	movt	r0, #7
   120b0:	eb000f55 	bl	15e0c <getenv>
   120b4:	e3500000 	cmp	r0, #0
   120b8:	0affff93 	beq	11f0c <__dcigettext+0x260>
   120bc:	e5d03000 	ldrb	r3, [r0]
   120c0:	e3530000 	cmp	r3, #0
   120c4:	11a04000 	movne	r4, r0
   120c8:	eaffff8f 	b	11f0c <__dcigettext+0x260>
   120cc:	e2841001 	add	r1, r4, #1
   120d0:	e1a02006 	mov	r2, r6
   120d4:	e4c23001 	strb	r3, [r2], #1
   120d8:	e1a04001 	mov	r4, r1
   120dc:	e5d13000 	ldrb	r3, [r1]
   120e0:	e2811001 	add	r1, r1, #1
   120e4:	e3530000 	cmp	r3, #0
   120e8:	1353003a 	cmpne	r3, #58	; 0x3a
   120ec:	13a00001 	movne	r0, #1
   120f0:	03a00000 	moveq	r0, #0
   120f4:	1afffff6 	bne	120d4 <__dcigettext+0x428>
   120f8:	e5993000 	ldr	r3, [r9]
   120fc:	e5c20000 	strb	r0, [r2]
   12100:	e3530000 	cmp	r3, #0
   12104:	0a000004 	beq	1211c <__dcigettext+0x470>
   12108:	e3a0102f 	mov	r1, #47	; 0x2f
   1210c:	e1a00006 	mov	r0, r6
   12110:	eb004c4a 	bl	25240 <strchr>
   12114:	e3500000 	cmp	r0, #0
   12118:	1affffa0 	bne	11fa0 <__dcigettext+0x2f4>
   1211c:	e5d63000 	ldrb	r3, [r6]
   12120:	e3530043 	cmp	r3, #67	; 0x43
   12124:	1affffa8 	bne	11fcc <__dcigettext+0x320>
   12128:	eaffffa4 	b	11fc0 <__dcigettext+0x314>
   1212c:	e2844001 	add	r4, r4, #1
   12130:	eaffff9a 	b	11fa0 <__dcigettext+0x2f4>
   12134:	e51b2060 	ldr	r2, [fp, #-96]	; 0xffffffa0
   12138:	e5920010 	ldr	r0, [r2, #16]
   1213c:	e3500000 	cmp	r0, #0
   12140:	0affff96 	beq	11fa0 <__dcigettext+0x2f4>
   12144:	e2822014 	add	r2, r2, #20
   12148:	e50b4080 	str	r4, [fp, #-128]	; 0xffffff80
   1214c:	e50b6084 	str	r6, [fp, #-132]	; 0xffffff7c
   12150:	e1a06003 	mov	r6, r3
   12154:	e50ba088 	str	sl, [fp, #-136]	; 0xffffff78
   12158:	e1a04002 	mov	r4, r2
   1215c:	e51ba050 	ldr	sl, [fp, #-80]	; 0xffffffb0
   12160:	ea000005 	b	1217c <__dcigettext+0x4d0>
   12164:	e3500000 	cmp	r0, #0
   12168:	1a000056 	bne	122c8 <__dcigettext+0x61c>
   1216c:	e4940004 	ldr	r0, [r4], #4
   12170:	e2866001 	add	r6, r6, #1
   12174:	e3500000 	cmp	r0, #0
   12178:	0a00007e 	beq	12378 <__dcigettext+0x6cc>
   1217c:	e24b304c 	sub	r3, fp, #76	; 0x4c
   12180:	e1a0200a 	mov	r2, sl
   12184:	e58d3000 	str	r3, [sp]
   12188:	e1a01005 	mov	r1, r5
   1218c:	e3a03001 	mov	r3, #1
   12190:	ebfffc1c 	bl	11208 <_nl_find_msg>
   12194:	e3700001 	cmn	r0, #1
   12198:	1afffff1 	bne	12164 <__dcigettext+0x4b8>
   1219c:	eaffffa1 	b	12028 <__dcigettext+0x37c>
   121a0:	e3500000 	cmp	r0, #0
   121a4:	0a00002e 	beq	12264 <__dcigettext+0x5b8>
   121a8:	e51b3050 	ldr	r3, [fp, #-80]	; 0xffffffb0
   121ac:	e59b0008 	ldr	r0, [fp, #8]
   121b0:	e50b4038 	str	r4, [fp, #-56]	; 0xffffffc8
   121b4:	e50b302c 	str	r3, [fp, #-44]	; 0xffffffd4
   121b8:	e50b7048 	str	r7, [fp, #-72]	; 0xffffffb8
   121bc:	e50b0044 	str	r0, [fp, #-68]	; 0xffffffbc
   121c0:	eb0093a1 	bl	3704c <__current_locale_name>
   121c4:	e1a04000 	mov	r4, r0
   121c8:	fa004e1c 	blx	25a40 <strlen>
   121cc:	e1a01004 	mov	r1, r4
   121d0:	e280300f 	add	r3, r0, #15
   121d4:	e2802001 	add	r2, r0, #1
   121d8:	e3c33007 	bic	r3, r3, #7
   121dc:	e04dd003 	sub	sp, sp, r3
   121e0:	e28d0008 	add	r0, sp, #8
   121e4:	eb005329 	bl	26e90 <memcpy>
   121e8:	e50b007c 	str	r0, [fp, #-124]	; 0xffffff84
   121ec:	e50b0040 	str	r0, [fp, #-64]	; 0xffffffc0
   121f0:	eafffee7 	b	11d94 <__dcigettext+0xe8>
   121f4:	e3013bfc 	movw	r3, #7164	; 0x1bfc
   121f8:	e3403007 	movt	r3, #7
   121fc:	e50b3054 	str	r3, [fp, #-84]	; 0xffffffac
   12200:	eaffff32 	b	11ed0 <__dcigettext+0x224>
   12204:	e3013bfc 	movw	r3, #7164	; 0x1bfc
   12208:	e3a05000 	mov	r5, #0
   1220c:	e3403007 	movt	r3, #7
   12210:	e50b3054 	str	r3, [fp, #-84]	; 0xffffffac
   12214:	eaffff2d 	b	11ed0 <__dcigettext+0x224>
   12218:	e51b3068 	ldr	r3, [fp, #-104]	; 0xffffff98
   1221c:	e3530000 	cmp	r3, #0
   12220:	05923014 	ldreq	r3, [r2, #20]
   12224:	1a00004b 	bne	12358 <__dcigettext+0x6ac>
   12228:	e51b2064 	ldr	r2, [fp, #-100]	; 0xffffff9c
   1222c:	e3520000 	cmp	r2, #0
   12230:	0a000006 	beq	12250 <__dcigettext+0x5a4>
   12234:	e59f02ac 	ldr	r0, [pc, #684]	; 124e8 <__dcigettext+0x83c>
   12238:	e50b3050 	str	r3, [fp, #-80]	; 0xffffffb0
   1223c:	e320f000 	nop	{0}
   12240:	e3080598 	movw	r0, #34200	; 0x8598
   12244:	e3400009 	movt	r0, #9
   12248:	e320f000 	nop	{0}
   1224c:	e51b3050 	ldr	r3, [fp, #-80]	; 0xffffffb0
   12250:	e59f22a4 	ldr	r2, [pc, #676]	; 124fc <__dcigettext+0x850>
   12254:	e51b1074 	ldr	r1, [fp, #-116]	; 0xffffff8c
   12258:	e79f2002 	ldr	r2, [pc, r2]
   1225c:	e7881002 	str	r1, [r8, r2]
   12260:	eaffff88 	b	12088 <__dcigettext+0x3dc>
   12264:	e3073090 	movw	r3, #28816	; 0x7090
   12268:	e3403009 	movt	r3, #9
   1226c:	e51b2050 	ldr	r2, [fp, #-80]	; 0xffffffb0
   12270:	e5937000 	ldr	r7, [r3]
   12274:	e3a03000 	mov	r3, #0
   12278:	e59b0008 	ldr	r0, [fp, #8]
   1227c:	e50b202c 	str	r2, [fp, #-44]	; 0xffffffd4
   12280:	e50b3038 	str	r3, [fp, #-56]	; 0xffffffc8
   12284:	e50b0044 	str	r0, [fp, #-68]	; 0xffffffbc
   12288:	e50b7048 	str	r7, [fp, #-72]	; 0xffffffb8
   1228c:	eb00936e 	bl	3704c <__current_locale_name>
   12290:	e1a05000 	mov	r5, r0
   12294:	fa004de9 	blx	25a40 <strlen>
   12298:	e1a01005 	mov	r1, r5
   1229c:	e280300f 	add	r3, r0, #15
   122a0:	e2802001 	add	r2, r0, #1
   122a4:	e3c33007 	bic	r3, r3, #7
   122a8:	e04dd003 	sub	sp, sp, r3
   122ac:	e28d0008 	add	r0, sp, #8
   122b0:	eb0052f6 	bl	26e90 <memcpy>
   122b4:	e3540000 	cmp	r4, #0
   122b8:	e50b007c 	str	r0, [fp, #-124]	; 0xffffff84
   122bc:	e50b0040 	str	r0, [fp, #-64]	; 0xffffffc0
   122c0:	1afffeb1 	bne	11d8c <__dcigettext+0xe0>
   122c4:	eafffeb2 	b	11d94 <__dcigettext+0xe8>
   122c8:	e51b1060 	ldr	r1, [fp, #-96]	; 0xffffffa0
   122cc:	e2862004 	add	r2, r6, #4
   122d0:	e1a03000 	mov	r3, r0
   122d4:	e7912102 	ldr	r2, [r1, r2, lsl #2]
   122d8:	e50b2060 	str	r2, [fp, #-96]	; 0xffffffa0
   122dc:	e51b2070 	ldr	r2, [fp, #-112]	; 0xffffff90
   122e0:	e3520000 	cmp	r2, #0
   122e4:	0a00002f 	beq	123a8 <__dcigettext+0x6fc>
   122e8:	e51b2070 	ldr	r2, [fp, #-112]	; 0xffffff90
   122ec:	e3081a50 	movw	r1, #35408	; 0x8a50
   122f0:	e3401009 	movt	r1, #9
   122f4:	e51bc060 	ldr	ip, [fp, #-96]	; 0xffffffa0
   122f8:	e5922000 	ldr	r2, [r2]
   122fc:	e5910000 	ldr	r0, [r1]
   12300:	e51b104c 	ldr	r1, [fp, #-76]	; 0xffffffb4
   12304:	e582c010 	str	ip, [r2, #16]
   12308:	e5823014 	str	r3, [r2, #20]
   1230c:	e582000c 	str	r0, [r2, #12]
   12310:	e5821018 	str	r1, [r2, #24]
   12314:	e59f21e4 	ldr	r2, [pc, #484]	; 12500 <__dcigettext+0x854>
   12318:	e51b1068 	ldr	r1, [fp, #-104]	; 0xffffff98
   1231c:	e79f2002 	ldr	r2, [pc, r2]
   12320:	e3510000 	cmp	r1, #0
   12324:	e51b1074 	ldr	r1, [fp, #-116]	; 0xffffff8c
   12328:	e7881002 	str	r1, [r8, r2]
   1232c:	1a000015 	bne	12388 <__dcigettext+0x6dc>
   12330:	e51b2064 	ldr	r2, [fp, #-100]	; 0xffffff9c
   12334:	e3520000 	cmp	r2, #0
   12338:	0affff52 	beq	12088 <__dcigettext+0x3dc>
   1233c:	e59f01a4 	ldr	r0, [pc, #420]	; 124e8 <__dcigettext+0x83c>
   12340:	e50b3050 	str	r3, [fp, #-80]	; 0xffffffb0
   12344:	e320f000 	nop	{0}
   12348:	e3080598 	movw	r0, #34200	; 0x8598
   1234c:	e3400009 	movt	r0, #9
   12350:	e320f000 	nop	{0}
   12354:	eaffff44 	b	1206c <__dcigettext+0x3c0>
   12358:	e5920010 	ldr	r0, [r2, #16]
   1235c:	e5923018 	ldr	r3, [r2, #24]
   12360:	e59b1004 	ldr	r1, [fp, #4]
   12364:	e5922014 	ldr	r2, [r2, #20]
   12368:	e5900008 	ldr	r0, [r0, #8]
   1236c:	ebfffb8e 	bl	111ac <plural_lookup.isra.1>
   12370:	e1a03000 	mov	r3, r0
   12374:	eaffffab 	b	12228 <__dcigettext+0x57c>
   12378:	e51b4080 	ldr	r4, [fp, #-128]	; 0xffffff80
   1237c:	e51b6084 	ldr	r6, [fp, #-132]	; 0xffffff7c
   12380:	e51ba088 	ldr	sl, [fp, #-136]	; 0xffffff78
   12384:	eaffff05 	b	11fa0 <__dcigettext+0x2f4>
   12388:	e1a02003 	mov	r2, r3
   1238c:	e51b3060 	ldr	r3, [fp, #-96]	; 0xffffffa0
   12390:	e59b1004 	ldr	r1, [fp, #4]
   12394:	e5930008 	ldr	r0, [r3, #8]
   12398:	e51b304c 	ldr	r3, [fp, #-76]	; 0xffffffb4
   1239c:	ebfffb82 	bl	111ac <plural_lookup.isra.1>
   123a0:	e1a03000 	mov	r3, r0
   123a4:	eaffffe1 	b	12330 <__dcigettext+0x684>
   123a8:	e51b0050 	ldr	r0, [fp, #-80]	; 0xffffffb0
   123ac:	e50b3054 	str	r3, [fp, #-84]	; 0xffffffac
   123b0:	fa004da2 	blx	25a40 <strlen>
   123b4:	e51ba07c 	ldr	sl, [fp, #-124]	; 0xffffff84
   123b8:	e2806001 	add	r6, r0, #1
   123bc:	e1a0000a 	mov	r0, sl
   123c0:	fa004d9e 	blx	25a40 <strlen>
   123c4:	e51b4078 	ldr	r4, [fp, #-120]	; 0xffffff88
   123c8:	e1a09000 	mov	r9, r0
   123cc:	e284001e 	add	r0, r4, #30
   123d0:	e0800009 	add	r0, r0, r9
   123d4:	e0800006 	add	r0, r0, r6
   123d8:	eb0043cb 	bl	2330c <__libc_malloc>
   123dc:	e51b3054 	ldr	r3, [fp, #-84]	; 0xffffffac
   123e0:	e2505000 	subs	r5, r0, #0
   123e4:	0affffca 	beq	12314 <__dcigettext+0x668>
   123e8:	e1a02006 	mov	r2, r6
   123ec:	e51b1050 	ldr	r1, [fp, #-80]	; 0xffffffb0
   123f0:	e285001c 	add	r0, r5, #28
   123f4:	e2844001 	add	r4, r4, #1
   123f8:	eb0052a4 	bl	26e90 <memcpy>
   123fc:	e1a01007 	mov	r1, r7
   12400:	e1a02004 	mov	r2, r4
   12404:	e0804006 	add	r4, r0, r6
   12408:	e0846002 	add	r6, r4, r2
   1240c:	e1a00004 	mov	r0, r4
   12410:	eb00529e 	bl	26e90 <memcpy>
   12414:	e2892001 	add	r2, r9, #1
   12418:	e1a0100a 	mov	r1, sl
   1241c:	e1a00006 	mov	r0, r6
   12420:	eb00529a 	bl	26e90 <memcpy>
   12424:	e59b3008 	ldr	r3, [fp, #8]
   12428:	e3081a50 	movw	r1, #35408	; 0x8a50
   1242c:	e3401009 	movt	r1, #9
   12430:	e3002000 	movw	r2, #0
   12434:	e51b004c 	ldr	r0, [fp, #-76]	; 0xffffffb4
   12438:	e5853004 	str	r3, [r5, #4]
   1243c:	e3402000 	movt	r2, #0
   12440:	e51b3060 	ldr	r3, [fp, #-96]	; 0xffffffa0
   12444:	e3520000 	cmp	r2, #0
   12448:	e5911000 	ldr	r1, [r1]
   1244c:	e5856008 	str	r6, [r5, #8]
   12450:	e5853010 	str	r3, [r5, #16]
   12454:	e51b3054 	ldr	r3, [fp, #-84]	; 0xffffffac
   12458:	e5854000 	str	r4, [r5]
   1245c:	e585100c 	str	r1, [r5, #12]
   12460:	e5853014 	str	r3, [r5, #20]
   12464:	e5850018 	str	r0, [r5, #24]
   12468:	0a000003 	beq	1247c <__dcigettext+0x7d0>
   1246c:	e59f0078 	ldr	r0, [pc, #120]	; 124ec <__dcigettext+0x840>
   12470:	e50b3050 	str	r3, [fp, #-80]	; 0xffffffb0
   12474:	e320f000 	nop	{0}
   12478:	e51b3050 	ldr	r3, [fp, #-80]	; 0xffffffb0
   1247c:	e3012140 	movw	r2, #4416	; 0x1140
   12480:	e30810ec 	movw	r1, #33004	; 0x80ec
   12484:	e3402001 	movt	r2, #1
   12488:	e3401009 	movt	r1, #9
   1248c:	e1a00005 	mov	r0, r5
   12490:	e50b3050 	str	r3, [fp, #-80]	; 0xffffffb0
   12494:	eb005c0d 	bl	294d0 <__tsearch>
   12498:	e51b3064 	ldr	r3, [fp, #-100]	; 0xffffff9c
   1249c:	e3530000 	cmp	r3, #0
   124a0:	e51b3050 	ldr	r3, [fp, #-80]	; 0xffffffb0
   124a4:	e1a04000 	mov	r4, r0
   124a8:	0a000002 	beq	124b8 <__dcigettext+0x80c>
   124ac:	e59f0038 	ldr	r0, [pc, #56]	; 124ec <__dcigettext+0x840>
   124b0:	e320f000 	nop	{0}
   124b4:	e51b3050 	ldr	r3, [fp, #-80]	; 0xffffffb0
   124b8:	e3540000 	cmp	r4, #0
   124bc:	0a000002 	beq	124cc <__dcigettext+0x820>
   124c0:	e5942000 	ldr	r2, [r4]
   124c4:	e1550002 	cmp	r5, r2
   124c8:	0affff91 	beq	12314 <__dcigettext+0x668>
   124cc:	e1a00005 	mov	r0, r5
   124d0:	e50b3050 	str	r3, [fp, #-80]	; 0xffffffb0
   124d4:	eb0044a4 	bl	2376c <__cfree>
   124d8:	e51b3050 	ldr	r3, [fp, #-80]	; 0xffffffb0
   124dc:	eaffff8c 	b	12314 <__dcigettext+0x668>
   124e0:	eb006140 	bl	2a9e8 <__stack_chk_fail>
   124e4:	00085328 	.word	0x00085328
   124e8:	00098108 	.word	0x00098108
   124ec:	00098128 	.word	0x00098128
   124f0:	000851dc 	.word	0x000851dc
   124f4:	000851ac 	.word	0x000851ac
   124f8:	00084fec 	.word	0x00084fec
   124fc:	00084de8 	.word	0x00084de8
   12500:	00084d24 	.word	0x00084d24

00012504 <_nl_find_domain>:
   12504:	e92d4ff0 	push	{r4, r5, r6, r7, r8, r9, sl, fp, lr}
   12508:	e3065f8c 	movw	r5, #28556	; 0x6f8c
   1250c:	e3405009 	movt	r5, #9
   12510:	e300c000 	movw	ip, #0
   12514:	e340c000 	movt	ip, #0
   12518:	e24dd044 	sub	sp, sp, #68	; 0x44
   1251c:	e595e000 	ldr	lr, [r5]
   12520:	e35c0000 	cmp	ip, #0
   12524:	e1a07000 	mov	r7, r0
   12528:	e1a08001 	mov	r8, r1
   1252c:	e1a09002 	mov	r9, r2
   12530:	e1a0a003 	mov	sl, r3
   12534:	e58de03c 	str	lr, [sp, #60]	; 0x3c
   12538:	0a000002 	beq	12548 <_nl_find_domain+0x44>
   1253c:	e3080148 	movw	r0, #33096	; 0x8148
   12540:	e3400009 	movt	r0, #9
   12544:	e320f000 	nop	{0}
   12548:	e1a00007 	mov	r0, r7
   1254c:	e3006000 	movw	r6, #0
   12550:	fa004d3a 	blx	25a40 <strlen>
   12554:	e3a02000 	mov	r2, #0
   12558:	e1a03002 	mov	r3, r2
   1255c:	e58d2018 	str	r2, [sp, #24]
   12560:	e58d2010 	str	r2, [sp, #16]
   12564:	e1a01007 	mov	r1, r7
   12568:	e58d200c 	str	r2, [sp, #12]
   1256c:	e3406000 	movt	r6, #0
   12570:	e58d2008 	str	r2, [sp, #8]
   12574:	e58d2004 	str	r2, [sp, #4]
   12578:	e58d9014 	str	r9, [sp, #20]
   1257c:	e58d8000 	str	r8, [sp]
   12580:	e2802001 	add	r2, r0, #1
   12584:	e59f0224 	ldr	r0, [pc, #548]	; 127b0 <_nl_find_domain+0x2ac>
   12588:	eb000729 	bl	14234 <_nl_make_l10nflist>
   1258c:	e3560000 	cmp	r6, #0
   12590:	e1a04000 	mov	r4, r0
   12594:	0a000002 	beq	125a4 <_nl_find_domain+0xa0>
   12598:	e3080148 	movw	r0, #33096	; 0x8148
   1259c:	e3400009 	movt	r0, #9
   125a0:	e320f000 	nop	{0}
   125a4:	e3540000 	cmp	r4, #0
   125a8:	0a000022 	beq	12638 <_nl_find_domain+0x134>
   125ac:	e5943004 	ldr	r3, [r4, #4]
   125b0:	e3530000 	cmp	r3, #0
   125b4:	da00001b 	ble	12628 <_nl_find_domain+0x124>
   125b8:	e5943008 	ldr	r3, [r4, #8]
   125bc:	e3530000 	cmp	r3, #0
   125c0:	0a000006 	beq	125e0 <_nl_find_domain+0xdc>
   125c4:	e59d203c 	ldr	r2, [sp, #60]	; 0x3c
   125c8:	e1a00004 	mov	r0, r4
   125cc:	e5953000 	ldr	r3, [r5]
   125d0:	e1520003 	cmp	r2, r3
   125d4:	1a000074 	bne	127ac <_nl_find_domain+0x2a8>
   125d8:	e28dd044 	add	sp, sp, #68	; 0x44
   125dc:	e8bd8ff0 	pop	{r4, r5, r6, r7, r8, r9, sl, fp, pc}
   125e0:	e5940010 	ldr	r0, [r4, #16]
   125e4:	e3500000 	cmp	r0, #0
   125e8:	0afffff5 	beq	125c4 <_nl_find_domain+0xc0>
   125ec:	e2846010 	add	r6, r4, #16
   125f0:	ea000006 	b	12610 <_nl_find_domain+0x10c>
   125f4:	e4963004 	ldr	r3, [r6], #4
   125f8:	e5933008 	ldr	r3, [r3, #8]
   125fc:	e3530000 	cmp	r3, #0
   12600:	1affffef 	bne	125c4 <_nl_find_domain+0xc0>
   12604:	e5960000 	ldr	r0, [r6]
   12608:	e3500000 	cmp	r0, #0
   1260c:	0affffec 	beq	125c4 <_nl_find_domain+0xc0>
   12610:	e5903004 	ldr	r3, [r0, #4]
   12614:	e3530000 	cmp	r3, #0
   12618:	cafffff5 	bgt	125f4 <_nl_find_domain+0xf0>
   1261c:	e1a0100a 	mov	r1, sl
   12620:	eb000063 	bl	127b4 <_nl_load_domain>
   12624:	eafffff2 	b	125f4 <_nl_find_domain+0xf0>
   12628:	e1a0100a 	mov	r1, sl
   1262c:	e1a00004 	mov	r0, r4
   12630:	eb00005f 	bl	127b4 <_nl_load_domain>
   12634:	eaffffdf 	b	125b8 <_nl_find_domain+0xb4>
   12638:	e1a00008 	mov	r0, r8
   1263c:	eb000689 	bl	14068 <_nl_expand_alias>
   12640:	e2503000 	subs	r3, r0, #0
   12644:	e58d3024 	str	r3, [sp, #36]	; 0x24
   12648:	0a000002 	beq	12658 <_nl_find_domain+0x154>
   1264c:	eb004ce5 	bl	259e8 <__strdup>
   12650:	e2508000 	subs	r8, r0, #0
   12654:	0affffda 	beq	125c4 <_nl_find_domain+0xc0>
   12658:	e28d3038 	add	r3, sp, #56	; 0x38
   1265c:	e28d2034 	add	r2, sp, #52	; 0x34
   12660:	e58d3004 	str	r3, [sp, #4]
   12664:	e28d1028 	add	r1, sp, #40	; 0x28
   12668:	e58d2000 	str	r2, [sp]
   1266c:	e28d3030 	add	r3, sp, #48	; 0x30
   12670:	e28d202c 	add	r2, sp, #44	; 0x2c
   12674:	e1a00008 	mov	r0, r8
   12678:	eb000875 	bl	14854 <_nl_explode_name>
   1267c:	e3700001 	cmn	r0, #1
   12680:	e1a0b000 	mov	fp, r0
   12684:	0affffce 	beq	125c4 <_nl_find_domain+0xc0>
   12688:	e3003000 	movw	r3, #0
   1268c:	e3403000 	movt	r3, #0
   12690:	e3530000 	cmp	r3, #0
   12694:	0a000002 	beq	126a4 <_nl_find_domain+0x1a0>
   12698:	e3080148 	movw	r0, #33096	; 0x8148
   1269c:	e3400009 	movt	r0, #9
   126a0:	e320f000 	nop	{0}
   126a4:	e1a00007 	mov	r0, r7
   126a8:	fa004ce4 	blx	25a40 <strlen>
   126ac:	e59dc02c 	ldr	ip, [sp, #44]	; 0x2c
   126b0:	e59d2034 	ldr	r2, [sp, #52]	; 0x34
   126b4:	e1a01007 	mov	r1, r7
   126b8:	e59d3030 	ldr	r3, [sp, #48]	; 0x30
   126bc:	e59de038 	ldr	lr, [sp, #56]	; 0x38
   126c0:	e58dc010 	str	ip, [sp, #16]
   126c4:	e59dc028 	ldr	ip, [sp, #40]	; 0x28
   126c8:	e58d2008 	str	r2, [sp, #8]
   126cc:	e3a02001 	mov	r2, #1
   126d0:	e58d3004 	str	r3, [sp, #4]
   126d4:	e1a0300b 	mov	r3, fp
   126d8:	e58d2018 	str	r2, [sp, #24]
   126dc:	e58d9014 	str	r9, [sp, #20]
   126e0:	e58de00c 	str	lr, [sp, #12]
   126e4:	e58dc000 	str	ip, [sp]
   126e8:	e0802002 	add	r2, r0, r2
   126ec:	e59f00bc 	ldr	r0, [pc, #188]	; 127b0 <_nl_find_domain+0x2ac>
   126f0:	eb0006cf 	bl	14234 <_nl_make_l10nflist>
   126f4:	e3560000 	cmp	r6, #0
   126f8:	e1a04000 	mov	r4, r0
   126fc:	0a000002 	beq	1270c <_nl_find_domain+0x208>
   12700:	e3080148 	movw	r0, #33096	; 0x8148
   12704:	e3400009 	movt	r0, #9
   12708:	e320f000 	nop	{0}
   1270c:	e3540000 	cmp	r4, #0
   12710:	0a00000a 	beq	12740 <_nl_find_domain+0x23c>
   12714:	e5943004 	ldr	r3, [r4, #4]
   12718:	e3530000 	cmp	r3, #0
   1271c:	da00001e 	ble	1279c <_nl_find_domain+0x298>
   12720:	e5943008 	ldr	r3, [r4, #8]
   12724:	e3530000 	cmp	r3, #0
   12728:	0a000009 	beq	12754 <_nl_find_domain+0x250>
   1272c:	e59d3024 	ldr	r3, [sp, #36]	; 0x24
   12730:	e3530000 	cmp	r3, #0
   12734:	0a000001 	beq	12740 <_nl_find_domain+0x23c>
   12738:	e1a00008 	mov	r0, r8
   1273c:	eb00440a 	bl	2376c <__cfree>
   12740:	e31b0001 	tst	fp, #1
   12744:	0affff9e 	beq	125c4 <_nl_find_domain+0xc0>
   12748:	e59d0038 	ldr	r0, [sp, #56]	; 0x38
   1274c:	eb004406 	bl	2376c <__cfree>
   12750:	eaffff9b 	b	125c4 <_nl_find_domain+0xc0>
   12754:	e5940010 	ldr	r0, [r4, #16]
   12758:	e3500000 	cmp	r0, #0
   1275c:	0afffff2 	beq	1272c <_nl_find_domain+0x228>
   12760:	e2846010 	add	r6, r4, #16
   12764:	ea000006 	b	12784 <_nl_find_domain+0x280>
   12768:	e4963004 	ldr	r3, [r6], #4
   1276c:	e5933008 	ldr	r3, [r3, #8]
   12770:	e3530000 	cmp	r3, #0
   12774:	1affffec 	bne	1272c <_nl_find_domain+0x228>
   12778:	e5960000 	ldr	r0, [r6]
   1277c:	e3500000 	cmp	r0, #0
   12780:	0affffe9 	beq	1272c <_nl_find_domain+0x228>
   12784:	e5903004 	ldr	r3, [r0, #4]
   12788:	e3530000 	cmp	r3, #0
   1278c:	cafffff5 	bgt	12768 <_nl_find_domain+0x264>
   12790:	e1a0100a 	mov	r1, sl
   12794:	eb000006 	bl	127b4 <_nl_load_domain>
   12798:	eafffff2 	b	12768 <_nl_find_domain+0x264>
   1279c:	e1a0100a 	mov	r1, sl
   127a0:	e1a00004 	mov	r0, r4
   127a4:	eb000002 	bl	127b4 <_nl_load_domain>
   127a8:	eaffffdc 	b	12720 <_nl_find_domain+0x21c>
   127ac:	eb00608d 	bl	2a9e8 <__stack_chk_fail>
   127b0:	00098168 	.word	0x00098168

000127b4 <_nl_load_domain>:
   127b4:	e92d4ff0 	push	{r4, r5, r6, r7, r8, r9, sl, fp, lr}
   127b8:	e308416c 	movw	r4, #33132	; 0x816c
   127bc:	e3404009 	movt	r4, #9
   127c0:	e3068f8c 	movw	r8, #28556	; 0x6f8c
   127c4:	e3408009 	movt	r8, #9
   127c8:	e28db020 	add	fp, sp, #32
   127cc:	e24dd0ec 	sub	sp, sp, #236	; 0xec
   127d0:	e5942008 	ldr	r2, [r4, #8]
   127d4:	ee1d5f70 	mrc	15, 0, r5, cr13, cr0, {3}
   127d8:	e5983000 	ldr	r3, [r8]
   127dc:	e2456d13 	sub	r6, r5, #1216	; 0x4c0
   127e0:	e1560002 	cmp	r6, r2
   127e4:	e1a09000 	mov	r9, r0
   127e8:	e50b10ac 	str	r1, [fp, #-172]	; 0xffffff54
   127ec:	e50b3028 	str	r3, [fp, #-40]	; 0xffffffd8
   127f0:	0a00000b 	beq	12824 <_nl_load_domain+0x70>
   127f4:	e3a03001 	mov	r3, #1
   127f8:	e3a02000 	mov	r2, #0
   127fc:	e50b209c 	str	r2, [fp, #-156]	; 0xffffff64
   12800:	e1942f9f 	ldrex	r2, [r4]
   12804:	e3520000 	cmp	r2, #0
   12808:	1a000003 	bne	1281c <_nl_load_domain+0x68>
   1280c:	e1841f93 	strex	r1, r3, [r4]
   12810:	e3510000 	cmp	r1, #0
   12814:	1afffff9 	bne	12800 <_nl_load_domain+0x4c>
   12818:	f57ff05b 	dmb	ish
   1281c:	1a000112 	bne	12c6c <_nl_load_domain+0x4b8>
   12820:	e5846008 	str	r6, [r4, #8]
   12824:	e5991004 	ldr	r1, [r9, #4]
   12828:	e5943004 	ldr	r3, [r4, #4]
   1282c:	e3510000 	cmp	r1, #0
   12830:	e2833001 	add	r3, r3, #1
   12834:	e5843004 	str	r3, [r4, #4]
   12838:	1a000101 	bne	12c44 <_nl_load_domain+0x490>
   1283c:	e5990000 	ldr	r0, [r9]
   12840:	e3e02000 	mvn	r2, #0
   12844:	e5891008 	str	r1, [r9, #8]
   12848:	e3500000 	cmp	r0, #0
   1284c:	e5892004 	str	r2, [r9, #4]
   12850:	0a0000f9 	beq	12c3c <_nl_load_domain+0x488>
   12854:	e3a07005 	mov	r7, #5
   12858:	ef000000 	svc	0x00000000
   1285c:	e3700a01 	cmn	r0, #4096	; 0x1000
   12860:	e50b00a8 	str	r0, [fp, #-168]	; 0xffffff58
   12864:	8a0000ef 	bhi	12c28 <_nl_load_domain+0x474>
   12868:	e51ba0a8 	ldr	sl, [fp, #-168]	; 0xffffff58
   1286c:	e24b209c 	sub	r2, fp, #156	; 0x9c
   12870:	e3a00003 	mov	r0, #3
   12874:	e1a0100a 	mov	r1, sl
   12878:	eb0056ae 	bl	28338 <___fxstat64>
   1287c:	e2503000 	subs	r3, r0, #0
   12880:	e50b30b0 	str	r3, [fp, #-176]	; 0xffffff50
   12884:	e1a01003 	mov	r1, r3
   12888:	1a000102 	bne	12c98 <_nl_load_domain+0x4e4>
   1288c:	e14b26dc 	ldrd	r2, [fp, #-108]	; 0xffffff94
   12890:	e1a07003 	mov	r7, r3
   12894:	e3a03000 	mov	r3, #0
   12898:	e1530007 	cmp	r3, r7
   1289c:	e1a06002 	mov	r6, r2
   128a0:	01520006 	cmpeq	r2, r6
   128a4:	e14b6bfc 	strd	r6, [fp, #-188]	; 0xffffff44
   128a8:	13a03001 	movne	r3, #1
   128ac:	03a03000 	moveq	r3, #0
   128b0:	e356002f 	cmp	r6, #47	; 0x2f
   128b4:	93833001 	orrls	r3, r3, #1
   128b8:	e3530000 	cmp	r3, #0
   128bc:	1a0000f5 	bne	12c98 <_nl_load_domain+0x4e4>
   128c0:	e58d1004 	str	r1, [sp, #4]
   128c4:	e3a03002 	mov	r3, #2
   128c8:	e58da000 	str	sl, [sp]
   128cc:	e3a02001 	mov	r2, #1
   128d0:	e1a01006 	mov	r1, r6
   128d4:	e50ba0a8 	str	sl, [fp, #-168]	; 0xffffff58
   128d8:	eb005a04 	bl	290f0 <__mmap>
   128dc:	e3700001 	cmn	r0, #1
   128e0:	e1a0a000 	mov	sl, r0
   128e4:	0a0001b9 	beq	12fd0 <_nl_load_domain+0x81c>
   128e8:	e51b00a8 	ldr	r0, [fp, #-168]	; 0xffffff58
   128ec:	e3a07006 	mov	r7, #6
   128f0:	ef000000 	svc	0x00000000
   128f4:	e59a2000 	ldr	r2, [sl]
   128f8:	e30132de 	movw	r3, #4830	; 0x12de
   128fc:	e3493504 	movt	r3, #38148	; 0x9504
   12900:	e3001495 	movw	r1, #1173	; 0x495
   12904:	e0525003 	subs	r5, r2, r3
   12908:	e34d1e12 	movt	r1, #56850	; 0xde12
   1290c:	13a05001 	movne	r5, #1
   12910:	e1520001 	cmp	r2, r1
   12914:	11520003 	cmpne	r2, r3
   12918:	1a0001db 	bne	1308c <_nl_load_domain+0x8d8>
   1291c:	e3a03001 	mov	r3, #1
   12920:	e50b30b0 	str	r3, [fp, #-176]	; 0xffffff50
   12924:	e3a00068 	mov	r0, #104	; 0x68
   12928:	eb004277 	bl	2330c <__libc_malloc>
   1292c:	e2506000 	subs	r6, r0, #0
   12930:	0a0000fe 	beq	12d30 <_nl_load_domain+0x57c>
   12934:	e51b30b0 	ldr	r3, [fp, #-176]	; 0xffffff50
   12938:	e3550000 	cmp	r5, #0
   1293c:	e3a00000 	mov	r0, #0
   12940:	e5896008 	str	r6, [r9, #8]
   12944:	e586a000 	str	sl, [r6]
   12948:	e5863004 	str	r3, [r6, #4]
   1294c:	e51b30bc 	ldr	r3, [fp, #-188]	; 0xffffff44
   12950:	e586500c 	str	r5, [r6, #12]
   12954:	e5860010 	str	r0, [r6, #16]
   12958:	e5863008 	str	r3, [r6, #8]
   1295c:	e59a3004 	ldr	r3, [sl, #4]
   12960:	0a0000f4 	beq	12d38 <_nl_load_domain+0x584>
   12964:	e6bf3f33 	rev	r3, r3
   12968:	e3530802 	cmp	r3, #131072	; 0x20000
   1296c:	2a0000e4 	bcs	12d04 <_nl_load_domain+0x550>
   12970:	e59a2014 	ldr	r2, [sl, #20]
   12974:	e59a100c 	ldr	r1, [sl, #12]
   12978:	e6bf2f32 	rev	r2, r2
   1297c:	e50b20a8 	str	r2, [fp, #-168]	; 0xffffff58
   12980:	e3520002 	cmp	r2, #2
   12984:	e59a0008 	ldr	r0, [sl, #8]
   12988:	e1a0c002 	mov	ip, r2
   1298c:	e59a2010 	ldr	r2, [sl, #16]
   12990:	e6bf1f31 	rev	r1, r1
   12994:	e6bf0f30 	rev	r0, r0
   12998:	e6bf2f32 	rev	r2, r2
   1299c:	e08a1001 	add	r1, sl, r1
   129a0:	e08a2002 	add	r2, sl, r2
   129a4:	e5860014 	str	r0, [r6, #20]
   129a8:	e5861018 	str	r1, [r6, #24]
   129ac:	e586201c 	str	r2, [r6, #28]
   129b0:	e586c02c 	str	ip, [r6, #44]	; 0x2c
   129b4:	9a000111 	bls	12e00 <_nl_load_domain+0x64c>
   129b8:	e59a2018 	ldr	r2, [sl, #24]
   129bc:	e6bf2f32 	rev	r2, r2
   129c0:	e6ff3073 	uxth	r3, r3
   129c4:	e08a2002 	add	r2, sl, r2
   129c8:	e3530000 	cmp	r3, #0
   129cc:	e5862030 	str	r2, [r6, #48]	; 0x30
   129d0:	e5865034 	str	r5, [r6, #52]	; 0x34
   129d4:	0a0000ee 	beq	12d94 <_nl_load_domain+0x5e0>
   129d8:	e3520000 	cmp	r2, #0
   129dc:	0a00010d 	beq	12e18 <_nl_load_domain+0x664>
   129e0:	e3550000 	cmp	r5, #0
   129e4:	e59a3024 	ldr	r3, [sl, #36]	; 0x24
   129e8:	0a00010c 	beq	12e20 <_nl_load_domain+0x66c>
   129ec:	e6bf3f33 	rev	r3, r3
   129f0:	e50b30b4 	str	r3, [fp, #-180]	; 0xffffff4c
   129f4:	e3530000 	cmp	r3, #0
   129f8:	0a0000e5 	beq	12d94 <_nl_load_domain+0x5e0>
   129fc:	e59a301c 	ldr	r3, [sl, #28]
   12a00:	e59a2020 	ldr	r2, [sl, #32]
   12a04:	e6bf3f33 	rev	r3, r3
   12a08:	e50b30cc 	str	r3, [fp, #-204]	; 0xffffff34
   12a0c:	e3530000 	cmp	r3, #0
   12a10:	e6bf2f32 	rev	r2, r2
   12a14:	e1a03103 	lsl	r3, r3, #2
   12a18:	e08ac002 	add	ip, sl, r2
   12a1c:	e283300e 	add	r3, r3, #14
   12a20:	e3c33007 	bic	r3, r3, #7
   12a24:	e04dd003 	sub	sp, sp, r3
   12a28:	e28d3008 	add	r3, sp, #8
   12a2c:	e50b30c0 	str	r3, [fp, #-192]	; 0xffffff40
   12a30:	0a00019e 	beq	130b0 <_nl_load_domain+0x8fc>
   12a34:	e3013c40 	movw	r3, #7232	; 0x1c40
   12a38:	e303115c 	movw	r1, #12636	; 0x315c
   12a3c:	e3403007 	movt	r3, #7
   12a40:	e3401007 	movt	r1, #7
   12a44:	e50b10dc 	str	r1, [fp, #-220]	; 0xffffff24
   12a48:	e3021a68 	movw	r1, #10856	; 0x2a68
   12a4c:	e3401007 	movt	r1, #7
   12a50:	e50b10e4 	str	r1, [fp, #-228]	; 0xffffff1c
   12a54:	e3011c28 	movw	r1, #7208	; 0x1c28
   12a58:	e3401007 	movt	r1, #7
   12a5c:	e50b10ec 	str	r1, [fp, #-236]	; 0xffffff14
   12a60:	e3052e60 	movw	r2, #24160	; 0x5e60
   12a64:	e51b10c0 	ldr	r1, [fp, #-192]	; 0xffffff40
   12a68:	e3402008 	movt	r2, #8
   12a6c:	e50b60c4 	str	r6, [fp, #-196]	; 0xffffff3c
   12a70:	e1a0000c 	mov	r0, ip
   12a74:	e50b20d4 	str	r2, [fp, #-212]	; 0xffffff2c
   12a78:	e241e004 	sub	lr, r1, #4
   12a7c:	e3012c1c 	movw	r2, #7196	; 0x1c1c
   12a80:	e50b90c8 	str	r9, [fp, #-200]	; 0xffffff38
   12a84:	e3402007 	movt	r2, #7
   12a88:	e3a07000 	mov	r7, #0
   12a8c:	e50b20d8 	str	r2, [fp, #-216]	; 0xffffff28
   12a90:	e1a09003 	mov	r9, r3
   12a94:	e3012c20 	movw	r2, #7200	; 0x1c20
   12a98:	e51b60cc 	ldr	r6, [fp, #-204]	; 0xffffff34
   12a9c:	e3402007 	movt	r2, #7
   12aa0:	e50b40d0 	str	r4, [fp, #-208]	; 0xffffff30
   12aa4:	e50b20e0 	str	r2, [fp, #-224]	; 0xffffff20
   12aa8:	e3012c24 	movw	r2, #7204	; 0x1c24
   12aac:	e3402007 	movt	r2, #7
   12ab0:	e50b20e8 	str	r2, [fp, #-232]	; 0xffffff18
   12ab4:	e3012c30 	movw	r2, #7216	; 0x1c30
   12ab8:	e3402007 	movt	r2, #7
   12abc:	e50b20f0 	str	r2, [fp, #-240]	; 0xffffff10
   12ac0:	ea00000a 	b	12af0 <_nl_load_domain+0x33c>
   12ac4:	e3510049 	cmp	r1, #73	; 0x49
   12ac8:	1a000003 	bne	12adc <_nl_load_domain+0x328>
   12acc:	e5d33001 	ldrb	r3, [r3, #1]
   12ad0:	e3530000 	cmp	r3, #0
   12ad4:	01a02009 	moveq	r2, r9
   12ad8:	13a02000 	movne	r2, #0
   12adc:	e2877001 	add	r7, r7, #1
   12ae0:	e5ae2004 	str	r2, [lr, #4]!
   12ae4:	e1560007 	cmp	r6, r7
   12ae8:	e2800008 	add	r0, r0, #8
   12aec:	9a00016a 	bls	1309c <_nl_load_domain+0x8e8>
   12af0:	e5903004 	ldr	r3, [r0, #4]
   12af4:	e3550000 	cmp	r5, #0
   12af8:	e79c2187 	ldr	r2, [ip, r7, lsl #3]
   12afc:	16bf3f33 	revne	r3, r3
   12b00:	008a3003 	addeq	r3, sl, r3
   12b04:	16bf2f32 	revne	r2, r2
   12b08:	108a3003 	addne	r3, sl, r3
   12b0c:	e3520000 	cmp	r2, #0
   12b10:	0a000158 	beq	13078 <_nl_load_domain+0x8c4>
   12b14:	e0832002 	add	r2, r3, r2
   12b18:	e5522001 	ldrb	r2, [r2, #-1]
   12b1c:	e3520000 	cmp	r2, #0
   12b20:	1a000154 	bne	13078 <_nl_load_domain+0x8c4>
   12b24:	e5d31000 	ldrb	r1, [r3]
   12b28:	e3510050 	cmp	r1, #80	; 0x50
   12b2c:	1affffe4 	bne	12ac4 <_nl_load_domain+0x310>
   12b30:	e5d31001 	ldrb	r1, [r3, #1]
   12b34:	e3510052 	cmp	r1, #82	; 0x52
   12b38:	1affffe7 	bne	12adc <_nl_load_domain+0x328>
   12b3c:	e5d31002 	ldrb	r1, [r3, #2]
   12b40:	e3510049 	cmp	r1, #73	; 0x49
   12b44:	1affffe4 	bne	12adc <_nl_load_domain+0x328>
   12b48:	e5d31003 	ldrb	r1, [r3, #3]
   12b4c:	e3510069 	cmp	r1, #105	; 0x69
   12b50:	13510064 	cmpne	r1, #100	; 0x64
   12b54:	03a04001 	moveq	r4, #1
   12b58:	13a04000 	movne	r4, #0
   12b5c:	e50b40f4 	str	r4, [fp, #-244]	; 0xffffff0c
   12b60:	e351006f 	cmp	r1, #111	; 0x6f
   12b64:	03844001 	orreq	r4, r4, #1
   12b68:	e50b40f8 	str	r4, [fp, #-248]	; 0xffffff08
   12b6c:	e3510075 	cmp	r1, #117	; 0x75
   12b70:	03844001 	orreq	r4, r4, #1
   12b74:	e50b40fc 	str	r4, [fp, #-252]	; 0xffffff04
   12b78:	e3510078 	cmp	r1, #120	; 0x78
   12b7c:	03844001 	orreq	r4, r4, #1
   12b80:	e50b4100 	str	r4, [fp, #-256]	; 0xffffff00
   12b84:	e3510058 	cmp	r1, #88	; 0x58
   12b88:	03844001 	orreq	r4, r4, #1
   12b8c:	e3540000 	cmp	r4, #0
   12b90:	01a02004 	moveq	r2, r4
   12b94:	0affffd0 	beq	12adc <_nl_load_domain+0x328>
   12b98:	e5d34004 	ldrb	r4, [r3, #4]
   12b9c:	e3540038 	cmp	r4, #56	; 0x38
   12ba0:	0a00014e 	beq	130e0 <_nl_load_domain+0x92c>
   12ba4:	e3540031 	cmp	r4, #49	; 0x31
   12ba8:	0a000183 	beq	131bc <_nl_load_domain+0xa08>
   12bac:	e3540033 	cmp	r4, #51	; 0x33
   12bb0:	1a000162 	bne	13140 <_nl_load_domain+0x98c>
   12bb4:	e5d32005 	ldrb	r2, [r3, #5]
   12bb8:	e3520032 	cmp	r2, #50	; 0x32
   12bbc:	13a02000 	movne	r2, #0
   12bc0:	1affffc5 	bne	12adc <_nl_load_domain+0x328>
   12bc4:	e5d33006 	ldrb	r3, [r3, #6]
   12bc8:	e3530000 	cmp	r3, #0
   12bcc:	13a02000 	movne	r2, #0
   12bd0:	1affffc1 	bne	12adc <_nl_load_domain+0x328>
   12bd4:	e3510064 	cmp	r1, #100	; 0x64
   12bd8:	051b20d4 	ldreq	r2, [fp, #-212]	; 0xffffff2c
   12bdc:	0affffbe 	beq	12adc <_nl_load_domain+0x328>
   12be0:	e51b30f4 	ldr	r3, [fp, #-244]	; 0xffffff0c
   12be4:	e3530000 	cmp	r3, #0
   12be8:	151b20d8 	ldrne	r2, [fp, #-216]	; 0xffffff28
   12bec:	1affffba 	bne	12adc <_nl_load_domain+0x328>
   12bf0:	e51b30f8 	ldr	r3, [fp, #-248]	; 0xffffff08
   12bf4:	e3530000 	cmp	r3, #0
   12bf8:	151b20dc 	ldrne	r2, [fp, #-220]	; 0xffffff24
   12bfc:	1affffb6 	bne	12adc <_nl_load_domain+0x328>
   12c00:	e51b30fc 	ldr	r3, [fp, #-252]	; 0xffffff04
   12c04:	e3530000 	cmp	r3, #0
   12c08:	151b20e0 	ldrne	r2, [fp, #-224]	; 0xffffff20
   12c0c:	1affffb2 	bne	12adc <_nl_load_domain+0x328>
   12c10:	e51b1100 	ldr	r1, [fp, #-256]	; 0xffffff00
   12c14:	e51b30e8 	ldr	r3, [fp, #-232]	; 0xffffff18
   12c18:	e3510000 	cmp	r1, #0
   12c1c:	e51b20e4 	ldr	r2, [fp, #-228]	; 0xffffff1c
   12c20:	11a02003 	movne	r2, r3
   12c24:	eaffffac 	b	12adc <_nl_load_domain+0x328>
   12c28:	e59f2f94 	ldr	r2, [pc, #3988]	; 13bc4 <_nl_load_domain+0x1410>
   12c2c:	e2606000 	rsb	r6, r0, #0
   12c30:	e5943004 	ldr	r3, [r4, #4]
   12c34:	e79f2002 	ldr	r2, [pc, r2]
   12c38:	e7856002 	str	r6, [r5, r2]
   12c3c:	e3a02001 	mov	r2, #1
   12c40:	e5892004 	str	r2, [r9, #4]
   12c44:	e2433001 	sub	r3, r3, #1
   12c48:	e5843004 	str	r3, [r4, #4]
   12c4c:	e3530000 	cmp	r3, #0
   12c50:	0a000015 	beq	12cac <_nl_load_domain+0x4f8>
   12c54:	e51b2028 	ldr	r2, [fp, #-40]	; 0xffffffd8
   12c58:	e5983000 	ldr	r3, [r8]
   12c5c:	e1520003 	cmp	r2, r3
   12c60:	1a000171 	bne	1322c <_nl_load_domain+0xa78>
   12c64:	e24bd020 	sub	sp, fp, #32
   12c68:	e8bd8ff0 	pop	{r4, r5, r6, r7, r8, r9, sl, fp, pc}
   12c6c:	e1a00004 	mov	r0, r4
   12c70:	e50b209c 	str	r2, [fp, #-156]	; 0xffffff64
   12c74:	eb005de2 	bl	2a404 <__lll_lock_wait_private>
   12c78:	eafffee8 	b	12820 <_nl_load_domain+0x6c>
   12c7c:	e59f2f44 	ldr	r2, [pc, #3908]	; 13bc8 <_nl_load_domain+0x1414>
   12c80:	e2600000 	rsb	r0, r0, #0
   12c84:	e3500004 	cmp	r0, #4
   12c88:	e79f2002 	ldr	r2, [pc, r2]
   12c8c:	e7850002 	str	r0, [r5, r2]
   12c90:	0a0000e1 	beq	1301c <_nl_load_domain+0x868>
   12c94:	e50b60a8 	str	r6, [fp, #-168]	; 0xffffff58
   12c98:	e51b00a8 	ldr	r0, [fp, #-168]	; 0xffffff58
   12c9c:	e3a07006 	mov	r7, #6
   12ca0:	ef000000 	svc	0x00000000
   12ca4:	e5943004 	ldr	r3, [r4, #4]
   12ca8:	eaffffe3 	b	12c3c <_nl_load_domain+0x488>
   12cac:	e5843008 	str	r3, [r4, #8]
   12cb0:	f57ff05b 	dmb	ish
   12cb4:	e1942f9f 	ldrex	r2, [r4]
   12cb8:	e1841f93 	strex	r1, r3, [r4]
   12cbc:	e3510000 	cmp	r1, #0
   12cc0:	1afffffb 	bne	12cb4 <_nl_load_domain+0x500>
   12cc4:	e3520001 	cmp	r2, #1
   12cc8:	daffffe1 	ble	12c54 <_nl_load_domain+0x4a0>
   12ccc:	e308016c 	movw	r0, #33132	; 0x816c
   12cd0:	e3a01081 	mov	r1, #129	; 0x81
   12cd4:	e3400009 	movt	r0, #9
   12cd8:	e3a02001 	mov	r2, #1
   12cdc:	e3a070f0 	mov	r7, #240	; 0xf0
   12ce0:	ef000000 	svc	0x00000000
   12ce4:	eaffffda 	b	12c54 <_nl_load_domain+0x4a0>
   12ce8:	e3003000 	movw	r3, #0
   12cec:	e3403000 	movt	r3, #0
   12cf0:	e3530000 	cmp	r3, #0
   12cf4:	0a000047 	beq	12e18 <_nl_load_domain+0x664>
   12cf8:	e2860040 	add	r0, r6, #64	; 0x40
   12cfc:	e320f000 	nop	{0}
   12d00:	e5960010 	ldr	r0, [r6, #16]
   12d04:	eb004298 	bl	2376c <__cfree>
   12d08:	e51b30b0 	ldr	r3, [fp, #-176]	; 0xffffff50
   12d0c:	e3530000 	cmp	r3, #0
   12d10:	0a00001a 	beq	12d80 <_nl_load_domain+0x5cc>
   12d14:	e51b10bc 	ldr	r1, [fp, #-188]	; 0xffffff44
   12d18:	e1a0000a 	mov	r0, sl
   12d1c:	eb005933 	bl	291f0 <__munmap>
   12d20:	e1a00006 	mov	r0, r6
   12d24:	eb004290 	bl	2376c <__cfree>
   12d28:	e3a03000 	mov	r3, #0
   12d2c:	e5893008 	str	r3, [r9, #8]
   12d30:	e5943004 	ldr	r3, [r4, #4]
   12d34:	eaffffc0 	b	12c3c <_nl_load_domain+0x488>
   12d38:	e3530802 	cmp	r3, #131072	; 0x20000
   12d3c:	2a000012 	bcs	12d8c <_nl_load_domain+0x5d8>
   12d40:	e59a2014 	ldr	r2, [sl, #20]
   12d44:	e59a0008 	ldr	r0, [sl, #8]
   12d48:	e59a100c 	ldr	r1, [sl, #12]
   12d4c:	e3520002 	cmp	r2, #2
   12d50:	e1a0c002 	mov	ip, r2
   12d54:	e50b20a8 	str	r2, [fp, #-168]	; 0xffffff58
   12d58:	e59a2010 	ldr	r2, [sl, #16]
   12d5c:	e08a1001 	add	r1, sl, r1
   12d60:	e5860014 	str	r0, [r6, #20]
   12d64:	e08a2002 	add	r2, sl, r2
   12d68:	e5861018 	str	r1, [r6, #24]
   12d6c:	e586c02c 	str	ip, [r6, #44]	; 0x2c
   12d70:	e586201c 	str	r2, [r6, #28]
   12d74:	9a000021 	bls	12e00 <_nl_load_domain+0x64c>
   12d78:	e59a2018 	ldr	r2, [sl, #24]
   12d7c:	eaffff0f 	b	129c0 <_nl_load_domain+0x20c>
   12d80:	e1a0000a 	mov	r0, sl
   12d84:	eb004278 	bl	2376c <__cfree>
   12d88:	eaffffe4 	b	12d20 <_nl_load_domain+0x56c>
   12d8c:	e1a00005 	mov	r0, r5
   12d90:	eaffffdb 	b	12d04 <_nl_load_domain+0x550>
   12d94:	e3a03000 	mov	r3, #0
   12d98:	e5863020 	str	r3, [r6, #32]
   12d9c:	e5863024 	str	r3, [r6, #36]	; 0x24
   12da0:	e5863028 	str	r3, [r6, #40]	; 0x28
   12da4:	e3003000 	movw	r3, #0
   12da8:	e3403000 	movt	r3, #0
   12dac:	e3530000 	cmp	r3, #0
   12db0:	e3a01000 	mov	r1, #0
   12db4:	e5861038 	str	r1, [r6, #56]	; 0x38
   12db8:	e586103c 	str	r1, [r6, #60]	; 0x3c
   12dbc:	0a000001 	beq	12dc8 <_nl_load_domain+0x614>
   12dc0:	e2860040 	add	r0, r6, #64	; 0x40
   12dc4:	e320f000 	nop	{0}
   12dc8:	e24b30a0 	sub	r3, fp, #160	; 0xa0
   12dcc:	e51b10ac 	ldr	r1, [fp, #-172]	; 0xffffff54
   12dd0:	e58d3000 	str	r3, [sp]
   12dd4:	e30228c4 	movw	r2, #10436	; 0x28c4
   12dd8:	e3a03000 	mov	r3, #0
   12ddc:	e3402008 	movt	r2, #8
   12de0:	e1a00009 	mov	r0, r9
   12de4:	ebfff907 	bl	11208 <_nl_find_msg>
   12de8:	e3700001 	cmn	r0, #1
   12dec:	0affffbd 	beq	12ce8 <_nl_load_domain+0x534>
   12df0:	e2862064 	add	r2, r6, #100	; 0x64
   12df4:	e2861060 	add	r1, r6, #96	; 0x60
   12df8:	eb0009ac 	bl	154b0 <__gettext_extract_plural>
   12dfc:	eaffffcb 	b	12d30 <_nl_load_domain+0x57c>
   12e00:	e6ff3073 	uxth	r3, r3
   12e04:	e5865034 	str	r5, [r6, #52]	; 0x34
   12e08:	e3530000 	cmp	r3, #0
   12e0c:	e3a03000 	mov	r3, #0
   12e10:	e5863030 	str	r3, [r6, #48]	; 0x30
   12e14:	0affffde 	beq	12d94 <_nl_load_domain+0x5e0>
   12e18:	e5960010 	ldr	r0, [r6, #16]
   12e1c:	eaffffb8 	b	12d04 <_nl_load_domain+0x550>
   12e20:	e3530000 	cmp	r3, #0
   12e24:	e50b30b4 	str	r3, [fp, #-180]	; 0xffffff4c
   12e28:	0affffd9 	beq	12d94 <_nl_load_domain+0x5e0>
   12e2c:	e59a301c 	ldr	r3, [sl, #28]
   12e30:	e59a2020 	ldr	r2, [sl, #32]
   12e34:	e3530000 	cmp	r3, #0
   12e38:	e50b30cc 	str	r3, [fp, #-204]	; 0xffffff34
   12e3c:	e1a03103 	lsl	r3, r3, #2
   12e40:	e283300e 	add	r3, r3, #14
   12e44:	e08ac002 	add	ip, sl, r2
   12e48:	e3c33007 	bic	r3, r3, #7
   12e4c:	e04dd003 	sub	sp, sp, r3
   12e50:	e28d3008 	add	r3, sp, #8
   12e54:	e50b30c0 	str	r3, [fp, #-192]	; 0xffffff40
   12e58:	1afffef5 	bne	12a34 <_nl_load_domain+0x280>
   12e5c:	e59a3028 	ldr	r3, [sl, #40]	; 0x28
   12e60:	e59a202c 	ldr	r2, [sl, #44]	; 0x2c
   12e64:	e08a3003 	add	r3, sl, r3
   12e68:	e51b10a8 	ldr	r1, [fp, #-168]	; 0xffffff58
   12e6c:	e08a2002 	add	r2, sl, r2
   12e70:	e50b60e0 	str	r6, [fp, #-224]	; 0xffffff20
   12e74:	e3a00000 	mov	r0, #0
   12e78:	e50b40ec 	str	r4, [fp, #-236]	; 0xffffff14
   12e7c:	e51b60c0 	ldr	r6, [fp, #-192]	; 0xffffff40
   12e80:	e1a01101 	lsl	r1, r1, #2
   12e84:	e51b40cc 	ldr	r4, [fp, #-204]	; 0xffffff34
   12e88:	e50b80e8 	str	r8, [fp, #-232]	; 0xffffff18
   12e8c:	e1a08002 	mov	r8, r2
   12e90:	e50b10f0 	str	r1, [fp, #-240]	; 0xffffff10
   12e94:	e50b20d8 	str	r2, [fp, #-216]	; 0xffffff28
   12e98:	e50b30dc 	str	r3, [fp, #-220]	; 0xffffff24
   12e9c:	e50b00d0 	str	r0, [fp, #-208]	; 0xffffff30
   12ea0:	e50b30c8 	str	r3, [fp, #-200]	; 0xffffff38
   12ea4:	e50b10d4 	str	r1, [fp, #-212]	; 0xffffff2c
   12ea8:	e50b00a8 	str	r0, [fp, #-168]	; 0xffffff58
   12eac:	e50ba0c4 	str	sl, [fp, #-196]	; 0xffffff3c
   12eb0:	e50b90e4 	str	r9, [fp, #-228]	; 0xffffff1c
   12eb4:	e3a07000 	mov	r7, #0
   12eb8:	e3550000 	cmp	r5, #0
   12ebc:	0a000068 	beq	13064 <_nl_load_domain+0x8b0>
   12ec0:	e3570000 	cmp	r7, #0
   12ec4:	051b30c8 	ldreq	r3, [fp, #-200]	; 0xffffff38
   12ec8:	15983000 	ldrne	r3, [r8]
   12ecc:	05933000 	ldreq	r3, [r3]
   12ed0:	e6bfaf33 	rev	sl, r3
   12ed4:	e51b30c4 	ldr	r3, [fp, #-196]	; 0xffffff3c
   12ed8:	e083a00a 	add	sl, r3, sl
   12edc:	e59a9008 	ldr	r9, [sl, #8]
   12ee0:	e2999001 	adds	r9, r9, #1
   12ee4:	13a09001 	movne	r9, #1
   12ee8:	e3590000 	cmp	r9, #0
   12eec:	0a000013 	beq	12f40 <_nl_load_domain+0x78c>
   12ef0:	e28aa00c 	add	sl, sl, #12
   12ef4:	e3a00000 	mov	r0, #0
   12ef8:	ea000007 	b	12f1c <_nl_load_domain+0x768>
   12efc:	e1530004 	cmp	r3, r4
   12f00:	2a000070 	bcs	130c8 <_nl_load_domain+0x914>
   12f04:	e7960103 	ldr	r0, [r6, r3, lsl #2]
   12f08:	e28aa008 	add	sl, sl, #8
   12f0c:	e3500000 	cmp	r0, #0
   12f10:	0a000018 	beq	12f78 <_nl_load_domain+0x7c4>
   12f14:	fa004ac9 	blx	25a40 <strlen>
   12f18:	e0800009 	add	r0, r0, r9
   12f1c:	e51a9008 	ldr	r9, [sl, #-8]
   12f20:	e3550000 	cmp	r5, #0
   12f24:	e51a3004 	ldr	r3, [sl, #-4]
   12f28:	16bf9f39 	revne	r9, r9
   12f2c:	00809009 	addeq	r9, r0, r9
   12f30:	16bf3f33 	revne	r3, r3
   12f34:	10809009 	addne	r9, r0, r9
   12f38:	e3730001 	cmn	r3, #1
   12f3c:	1affffee 	bne	12efc <_nl_load_domain+0x748>
   12f40:	e24b3030 	sub	r3, fp, #48	; 0x30
   12f44:	e7839107 	str	r9, [r3, r7, lsl #2]
   12f48:	e2877001 	add	r7, r7, #1
   12f4c:	e3570002 	cmp	r7, #2
   12f50:	1affffd8 	bne	12eb8 <_nl_load_domain+0x704>
   12f54:	e51b20a8 	ldr	r2, [fp, #-168]	; 0xffffff58
   12f58:	e51b3030 	ldr	r3, [fp, #-48]	; 0xffffffd0
   12f5c:	e2822001 	add	r2, r2, #1
   12f60:	e50b20a8 	str	r2, [fp, #-168]	; 0xffffff58
   12f64:	e51b202c 	ldr	r2, [fp, #-44]	; 0xffffffd4
   12f68:	e0833002 	add	r3, r3, r2
   12f6c:	e51b20d4 	ldr	r2, [fp, #-212]	; 0xffffff2c
   12f70:	e0823003 	add	r3, r2, r3
   12f74:	e50b30d4 	str	r3, [fp, #-212]	; 0xffffff2c
   12f78:	e51b20c8 	ldr	r2, [fp, #-200]	; 0xffffff38
   12f7c:	e2888004 	add	r8, r8, #4
   12f80:	e51b30d0 	ldr	r3, [fp, #-208]	; 0xffffff30
   12f84:	e2822004 	add	r2, r2, #4
   12f88:	e50b20c8 	str	r2, [fp, #-200]	; 0xffffff38
   12f8c:	e51b20b4 	ldr	r2, [fp, #-180]	; 0xffffff4c
   12f90:	e2833001 	add	r3, r3, #1
   12f94:	e50b30d0 	str	r3, [fp, #-208]	; 0xffffff30
   12f98:	e1530002 	cmp	r3, r2
   12f9c:	3affffc4 	bcc	12eb4 <_nl_load_domain+0x700>
   12fa0:	e51b30a8 	ldr	r3, [fp, #-168]	; 0xffffff58
   12fa4:	e24b40ec 	sub	r4, fp, #236	; 0xec
   12fa8:	e51ba0c4 	ldr	sl, [fp, #-196]	; 0xffffff3c
   12fac:	e3530000 	cmp	r3, #0
   12fb0:	e51b60e0 	ldr	r6, [fp, #-224]	; 0xffffff20
   12fb4:	e8940310 	ldm	r4, {r4, r8, r9}
   12fb8:	1a00009c 	bne	13230 <_nl_load_domain+0xa7c>
   12fbc:	e51b30a8 	ldr	r3, [fp, #-168]	; 0xffffff58
   12fc0:	e5863020 	str	r3, [r6, #32]
   12fc4:	e5863024 	str	r3, [r6, #36]	; 0x24
   12fc8:	e5863028 	str	r3, [r6, #40]	; 0x28
   12fcc:	eaffff74 	b	12da4 <_nl_load_domain+0x5f0>
   12fd0:	e14b6bdc 	ldrd	r6, [fp, #-188]	; 0xffffff44
   12fd4:	e1a00006 	mov	r0, r6
   12fd8:	eb0040cb 	bl	2330c <__libc_malloc>
   12fdc:	e250a000 	subs	sl, r0, #0
   12fe0:	0affff2c 	beq	12c98 <_nl_load_domain+0x4e4>
   12fe4:	e1a03006 	mov	r3, r6
   12fe8:	e51b60a8 	ldr	r6, [fp, #-168]	; 0xffffff58
   12fec:	e1a0c00a 	mov	ip, sl
   12ff0:	e1a00006 	mov	r0, r6
   12ff4:	e1a0100c 	mov	r1, ip
   12ff8:	e1a02003 	mov	r2, r3
   12ffc:	e3a07003 	mov	r7, #3
   13000:	ef000000 	svc	0x00000000
   13004:	e3700a01 	cmn	r0, #4096	; 0x1000
   13008:	8affff1b 	bhi	12c7c <_nl_load_domain+0x4c8>
   1300c:	e3500000 	cmp	r0, #0
   13010:	daffff1f 	ble	12c94 <_nl_load_domain+0x4e0>
   13014:	e08cc000 	add	ip, ip, r0
   13018:	e0433000 	sub	r3, r3, r0
   1301c:	e3530000 	cmp	r3, #0
   13020:	1afffff2 	bne	12ff0 <_nl_load_domain+0x83c>
   13024:	e1a00006 	mov	r0, r6
   13028:	e3a07006 	mov	r7, #6
   1302c:	ef000000 	svc	0x00000000
   13030:	e59a2000 	ldr	r2, [sl]
   13034:	e30132de 	movw	r3, #4830	; 0x12de
   13038:	e3493504 	movt	r3, #38148	; 0x9504
   1303c:	e3001495 	movw	r1, #1173	; 0x495
   13040:	e0525003 	subs	r5, r2, r3
   13044:	e34d1e12 	movt	r1, #56850	; 0xde12
   13048:	13a05001 	movne	r5, #1
   1304c:	e1520001 	cmp	r2, r1
   13050:	11520003 	cmpne	r2, r3
   13054:	0afffe32 	beq	12924 <_nl_load_domain+0x170>
   13058:	e1a0000a 	mov	r0, sl
   1305c:	eb0041c2 	bl	2376c <__cfree>
   13060:	eaffff32 	b	12d30 <_nl_load_domain+0x57c>
   13064:	e3570000 	cmp	r7, #0
   13068:	051b30c8 	ldreq	r3, [fp, #-200]	; 0xffffff38
   1306c:	1598a000 	ldrne	sl, [r8]
   13070:	0593a000 	ldreq	sl, [r3]
   13074:	eaffff96 	b	12ed4 <_nl_load_domain+0x720>
   13078:	e51b60c4 	ldr	r6, [fp, #-196]	; 0xffffff3c
   1307c:	e51b90c8 	ldr	r9, [fp, #-200]	; 0xffffff38
   13080:	e51b40d0 	ldr	r4, [fp, #-208]	; 0xffffff30
   13084:	e5960010 	ldr	r0, [r6, #16]
   13088:	eaffff1d 	b	12d04 <_nl_load_domain+0x550>
   1308c:	e51b10bc 	ldr	r1, [fp, #-188]	; 0xffffff44
   13090:	e1a0000a 	mov	r0, sl
   13094:	eb005855 	bl	291f0 <__munmap>
   13098:	eaffff24 	b	12d30 <_nl_load_domain+0x57c>
   1309c:	e3550000 	cmp	r5, #0
   130a0:	e51b60c4 	ldr	r6, [fp, #-196]	; 0xffffff3c
   130a4:	e51b90c8 	ldr	r9, [fp, #-200]	; 0xffffff38
   130a8:	e51b40d0 	ldr	r4, [fp, #-208]	; 0xffffff30
   130ac:	0affff6a 	beq	12e5c <_nl_load_domain+0x6a8>
   130b0:	e59a3028 	ldr	r3, [sl, #40]	; 0x28
   130b4:	e59a202c 	ldr	r2, [sl, #44]	; 0x2c
   130b8:	e6bf3f33 	rev	r3, r3
   130bc:	e08a3003 	add	r3, sl, r3
   130c0:	e6bf2f32 	rev	r2, r2
   130c4:	eaffff67 	b	12e68 <_nl_load_domain+0x6b4>
   130c8:	e51b60e0 	ldr	r6, [fp, #-224]	; 0xffffff20
   130cc:	e24b40ec 	sub	r4, fp, #236	; 0xec
   130d0:	e51ba0c4 	ldr	sl, [fp, #-196]	; 0xffffff3c
   130d4:	e8940310 	ldm	r4, {r4, r8, r9}
   130d8:	e5960010 	ldr	r0, [r6, #16]
   130dc:	eaffff08 	b	12d04 <_nl_load_domain+0x550>
   130e0:	e5d33005 	ldrb	r3, [r3, #5]
   130e4:	e3530000 	cmp	r3, #0
   130e8:	1afffe7b 	bne	12adc <_nl_load_domain+0x328>
   130ec:	e3510064 	cmp	r1, #100	; 0x64
   130f0:	051b20d4 	ldreq	r2, [fp, #-212]	; 0xffffff2c
   130f4:	0afffe78 	beq	12adc <_nl_load_domain+0x328>
   130f8:	e51b30f4 	ldr	r3, [fp, #-244]	; 0xffffff0c
   130fc:	e3530000 	cmp	r3, #0
   13100:	151b20d8 	ldrne	r2, [fp, #-216]	; 0xffffff28
   13104:	1afffe74 	bne	12adc <_nl_load_domain+0x328>
   13108:	e51b30f8 	ldr	r3, [fp, #-248]	; 0xffffff08
   1310c:	e3530000 	cmp	r3, #0
   13110:	151b20dc 	ldrne	r2, [fp, #-220]	; 0xffffff24
   13114:	1afffe70 	bne	12adc <_nl_load_domain+0x328>
   13118:	e51b30fc 	ldr	r3, [fp, #-252]	; 0xffffff04
   1311c:	e3530000 	cmp	r3, #0
   13120:	151b20e0 	ldrne	r2, [fp, #-224]	; 0xffffff20
   13124:	1afffe6c 	bne	12adc <_nl_load_domain+0x328>
   13128:	e51b1100 	ldr	r1, [fp, #-256]	; 0xffffff00
   1312c:	e51b30e8 	ldr	r3, [fp, #-232]	; 0xffffff18
   13130:	e3510000 	cmp	r1, #0
   13134:	e51b20e4 	ldr	r2, [fp, #-228]	; 0xffffff1c
   13138:	11a02003 	movne	r2, r3
   1313c:	eafffe66 	b	12adc <_nl_load_domain+0x328>
   13140:	e3540036 	cmp	r4, #54	; 0x36
   13144:	1a00012c 	bne	135fc <_nl_load_domain+0xe48>
   13148:	e5d32005 	ldrb	r2, [r3, #5]
   1314c:	e3520034 	cmp	r2, #52	; 0x34
   13150:	13a02000 	movne	r2, #0
   13154:	1afffe60 	bne	12adc <_nl_load_domain+0x328>
   13158:	e5d33006 	ldrb	r3, [r3, #6]
   1315c:	e3530000 	cmp	r3, #0
   13160:	13a02000 	movne	r2, #0
   13164:	1afffe5c 	bne	12adc <_nl_load_domain+0x328>
   13168:	e3510064 	cmp	r1, #100	; 0x64
   1316c:	051b20ec 	ldreq	r2, [fp, #-236]	; 0xffffff14
   13170:	0afffe59 	beq	12adc <_nl_load_domain+0x328>
   13174:	e51b30f4 	ldr	r3, [fp, #-244]	; 0xffffff0c
   13178:	e3530000 	cmp	r3, #0
   1317c:	151b20f0 	ldrne	r2, [fp, #-240]	; 0xffffff10
   13180:	1afffe55 	bne	12adc <_nl_load_domain+0x328>
   13184:	e51b30f8 	ldr	r3, [fp, #-248]	; 0xffffff08
   13188:	e3530000 	cmp	r3, #0
   1318c:	1a000117 	bne	135f0 <_nl_load_domain+0xe3c>
   13190:	e51b30fc 	ldr	r3, [fp, #-252]	; 0xffffff04
   13194:	e3530000 	cmp	r3, #0
   13198:	1a000151 	bne	136e4 <_nl_load_domain+0xf30>
   1319c:	e51b1100 	ldr	r1, [fp, #-256]	; 0xffffff00
   131a0:	e3013c3c 	movw	r3, #7228	; 0x1c3c
   131a4:	e3403007 	movt	r3, #7
   131a8:	e3012c34 	movw	r2, #7220	; 0x1c34
   131ac:	e3510000 	cmp	r1, #0
   131b0:	e3402007 	movt	r2, #7
   131b4:	01a02003 	moveq	r2, r3
   131b8:	eafffe47 	b	12adc <_nl_load_domain+0x328>
   131bc:	e5d34005 	ldrb	r4, [r3, #5]
   131c0:	e3540036 	cmp	r4, #54	; 0x36
   131c4:	1afffe44 	bne	12adc <_nl_load_domain+0x328>
   131c8:	e5d33006 	ldrb	r3, [r3, #6]
   131cc:	e3530000 	cmp	r3, #0
   131d0:	13a02000 	movne	r2, #0
   131d4:	1afffe40 	bne	12adc <_nl_load_domain+0x328>
   131d8:	e3510064 	cmp	r1, #100	; 0x64
   131dc:	051b20d4 	ldreq	r2, [fp, #-212]	; 0xffffff2c
   131e0:	0afffe3d 	beq	12adc <_nl_load_domain+0x328>
   131e4:	e51b30f4 	ldr	r3, [fp, #-244]	; 0xffffff0c
   131e8:	e3530000 	cmp	r3, #0
   131ec:	151b20d8 	ldrne	r2, [fp, #-216]	; 0xffffff28
   131f0:	1afffe39 	bne	12adc <_nl_load_domain+0x328>
   131f4:	e51b30f8 	ldr	r3, [fp, #-248]	; 0xffffff08
   131f8:	e3530000 	cmp	r3, #0
   131fc:	151b20dc 	ldrne	r2, [fp, #-220]	; 0xffffff24
   13200:	1afffe35 	bne	12adc <_nl_load_domain+0x328>
   13204:	e51b30fc 	ldr	r3, [fp, #-252]	; 0xffffff04
   13208:	e3530000 	cmp	r3, #0
   1320c:	151b20e0 	ldrne	r2, [fp, #-224]	; 0xffffff20
   13210:	1afffe31 	bne	12adc <_nl_load_domain+0x328>
   13214:	e51b1100 	ldr	r1, [fp, #-256]	; 0xffffff00
   13218:	e51b30e8 	ldr	r3, [fp, #-232]	; 0xffffff18
   1321c:	e3510000 	cmp	r1, #0
   13220:	e51b20e4 	ldr	r2, [fp, #-228]	; 0xffffff1c
   13224:	11a02003 	movne	r2, r3
   13228:	eafffe2b 	b	12adc <_nl_load_domain+0x328>
   1322c:	eb005ded 	bl	2a9e8 <__stack_chk_fail>
   13230:	e51b20a8 	ldr	r2, [fp, #-168]	; 0xffffff58
   13234:	e51b30d4 	ldr	r3, [fp, #-212]	; 0xffffff2c
   13238:	e0830202 	add	r0, r3, r2, lsl #4
   1323c:	eb004032 	bl	2330c <__libc_malloc>
   13240:	e2503000 	subs	r3, r0, #0
   13244:	e50b30cc 	str	r3, [fp, #-204]	; 0xffffff34
   13248:	0afffef2 	beq	12e18 <_nl_load_domain+0x664>
   1324c:	e51b20a8 	ldr	r2, [fp, #-168]	; 0xffffff58
   13250:	e3a01000 	mov	r1, #0
   13254:	e51b30cc 	ldr	r3, [fp, #-204]	; 0xffffff34
   13258:	e51b00f0 	ldr	r0, [fp, #-240]	; 0xffffff10
   1325c:	e0837202 	add	r7, r3, r2, lsl #4
   13260:	e50ba0c4 	str	sl, [fp, #-196]	; 0xffffff3c
   13264:	e0870000 	add	r0, r7, r0
   13268:	e51ba0c0 	ldr	sl, [fp, #-192]	; 0xffffff40
   1326c:	e5863010 	str	r3, [r6, #16]
   13270:	e0833182 	add	r3, r3, r2, lsl #3
   13274:	e50b60d4 	str	r6, [fp, #-212]	; 0xffffff2c
   13278:	e1a06000 	mov	r6, r0
   1327c:	e50b10c8 	str	r1, [fp, #-200]	; 0xffffff38
   13280:	e50b10d0 	str	r1, [fp, #-208]	; 0xffffff30
   13284:	e50b30e4 	str	r3, [fp, #-228]	; 0xffffff1c
   13288:	e50b70ec 	str	r7, [fp, #-236]	; 0xffffff14
   1328c:	e50b90f0 	str	r9, [fp, #-240]	; 0xffffff10
   13290:	e50b80f4 	str	r8, [fp, #-244]	; 0xffffff0c
   13294:	e50b40f8 	str	r4, [fp, #-248]	; 0xffffff08
   13298:	e51b30d4 	ldr	r3, [fp, #-212]	; 0xffffff2c
   1329c:	e3a00000 	mov	r0, #0
   132a0:	e593700c 	ldr	r7, [r3, #12]
   132a4:	e3570000 	cmp	r7, #0
   132a8:	0a000095 	beq	13504 <_nl_load_domain+0xd50>
   132ac:	e3500000 	cmp	r0, #0
   132b0:	051b30dc 	ldreq	r3, [fp, #-220]	; 0xffffff24
   132b4:	151b30d8 	ldrne	r3, [fp, #-216]	; 0xffffff28
   132b8:	e5933000 	ldr	r3, [r3]
   132bc:	e6bf2f33 	rev	r2, r3
   132c0:	e51b30c4 	ldr	r3, [fp, #-196]	; 0xffffff3c
   132c4:	e0832002 	add	r2, r3, r2
   132c8:	e5923008 	ldr	r3, [r2, #8]
   132cc:	e2933001 	adds	r3, r3, #1
   132d0:	13a03001 	movne	r3, #1
   132d4:	e3530000 	cmp	r3, #0
   132d8:	0a00000a 	beq	13308 <_nl_load_domain+0xb54>
   132dc:	e2822004 	add	r2, r2, #4
   132e0:	ea000003 	b	132f4 <_nl_load_domain+0xb40>
   132e4:	e79a3103 	ldr	r3, [sl, r3, lsl #2]
   132e8:	e3530000 	cmp	r3, #0
   132ec:	0a000030 	beq	133b4 <_nl_load_domain+0xc00>
   132f0:	e2822008 	add	r2, r2, #8
   132f4:	e5923004 	ldr	r3, [r2, #4]
   132f8:	e3570000 	cmp	r7, #0
   132fc:	16bf3f33 	revne	r3, r3
   13300:	e3730001 	cmn	r3, #1
   13304:	1afffff6 	bne	132e4 <_nl_load_domain+0xb30>
   13308:	e2800001 	add	r0, r0, #1
   1330c:	e3500002 	cmp	r0, #2
   13310:	1affffe3 	bne	132a4 <_nl_load_domain+0xaf0>
   13314:	e51b30c8 	ldr	r3, [fp, #-200]	; 0xffffff38
   13318:	e1a02183 	lsl	r2, r3, #3
   1331c:	e3a03000 	mov	r3, #0
   13320:	e50b30c0 	str	r3, [fp, #-192]	; 0xffffff40
   13324:	e51b30cc 	ldr	r3, [fp, #-204]	; 0xffffff34
   13328:	e0833002 	add	r3, r3, r2
   1332c:	e50b30e0 	str	r3, [fp, #-224]	; 0xffffff20
   13330:	e51b30e4 	ldr	r3, [fp, #-228]	; 0xffffff1c
   13334:	e0833002 	add	r3, r3, r2
   13338:	e50b30e8 	str	r3, [fp, #-232]	; 0xffffff18
   1333c:	e3570000 	cmp	r7, #0
   13340:	e51b30c0 	ldr	r3, [fp, #-192]	; 0xffffff40
   13344:	0a000094 	beq	1359c <_nl_load_domain+0xde8>
   13348:	e3530000 	cmp	r3, #0
   1334c:	e51b20c4 	ldr	r2, [fp, #-196]	; 0xffffff3c
   13350:	051b30dc 	ldreq	r3, [fp, #-220]	; 0xffffff24
   13354:	151b30d8 	ldrne	r3, [fp, #-216]	; 0xffffff28
   13358:	051b90e0 	ldreq	r9, [fp, #-224]	; 0xffffff20
   1335c:	05933000 	ldreq	r3, [r3]
   13360:	15933000 	ldrne	r3, [r3]
   13364:	151b90e8 	ldrne	r9, [fp, #-232]	; 0xffffff18
   13368:	e6bf3f33 	rev	r3, r3
   1336c:	e0824003 	add	r4, r2, r3
   13370:	e7928003 	ldr	r8, [r2, r3]
   13374:	e5943008 	ldr	r3, [r4, #8]
   13378:	e6bf8f38 	rev	r8, r8
   1337c:	e3730001 	cmn	r3, #1
   13380:	e0828008 	add	r8, r2, r8
   13384:	1a000066 	bne	13524 <_nl_load_domain+0xd70>
   13388:	e5943004 	ldr	r3, [r4, #4]
   1338c:	e6bf3f33 	rev	r3, r3
   13390:	e8890108 	stm	r9, {r3, r8}
   13394:	e51b30c0 	ldr	r3, [fp, #-192]	; 0xffffff40
   13398:	e2833001 	add	r3, r3, #1
   1339c:	e50b30c0 	str	r3, [fp, #-192]	; 0xffffff40
   133a0:	e3530002 	cmp	r3, #2
   133a4:	1a00005b 	bne	13518 <_nl_load_domain+0xd64>
   133a8:	e51b30c8 	ldr	r3, [fp, #-200]	; 0xffffff38
   133ac:	e2833001 	add	r3, r3, #1
   133b0:	e50b30c8 	str	r3, [fp, #-200]	; 0xffffff38
   133b4:	e51b20dc 	ldr	r2, [fp, #-220]	; 0xffffff24
   133b8:	e51b30d0 	ldr	r3, [fp, #-208]	; 0xffffff30
   133bc:	e2822004 	add	r2, r2, #4
   133c0:	e50b20dc 	str	r2, [fp, #-220]	; 0xffffff24
   133c4:	e51b20b4 	ldr	r2, [fp, #-180]	; 0xffffff4c
   133c8:	e2833001 	add	r3, r3, #1
   133cc:	e50b30d0 	str	r3, [fp, #-208]	; 0xffffff30
   133d0:	e1530002 	cmp	r3, r2
   133d4:	e51b30d8 	ldr	r3, [fp, #-216]	; 0xffffff28
   133d8:	e2833004 	add	r3, r3, #4
   133dc:	e50b30d8 	str	r3, [fp, #-216]	; 0xffffff28
   133e0:	3affffac 	bcc	13298 <_nl_load_domain+0xae4>
   133e4:	e51b30a8 	ldr	r3, [fp, #-168]	; 0xffffff58
   133e8:	e24b40f8 	sub	r4, fp, #248	; 0xf8
   133ec:	e51b20c8 	ldr	r2, [fp, #-200]	; 0xffffff38
   133f0:	e51ba0c4 	ldr	sl, [fp, #-196]	; 0xffffff3c
   133f4:	e1530002 	cmp	r3, r2
   133f8:	e51b60d4 	ldr	r6, [fp, #-212]	; 0xffffff2c
   133fc:	e51b70ec 	ldr	r7, [fp, #-236]	; 0xffffff14
   13400:	e8940310 	ldm	r4, {r4, r8, r9}
   13404:	1a0000b5 	bne	136e0 <_nl_load_domain+0xf2c>
   13408:	e596202c 	ldr	r2, [r6, #44]	; 0x2c
   1340c:	e3520000 	cmp	r2, #0
   13410:	10872102 	addne	r2, r7, r2, lsl #2
   13414:	1596c034 	ldrne	ip, [r6, #52]	; 0x34
   13418:	11a03007 	movne	r3, r7
   1341c:	15960030 	ldrne	r0, [r6, #48]	; 0x30
   13420:	0a000006 	beq	13440 <_nl_load_domain+0xc8c>
   13424:	e0431007 	sub	r1, r3, r7
   13428:	e35c0000 	cmp	ip, #0
   1342c:	e7901001 	ldr	r1, [r0, r1]
   13430:	16bf1f31 	revne	r1, r1
   13434:	e4831004 	str	r1, [r3], #4
   13438:	e1520003 	cmp	r2, r3
   1343c:	1afffff8 	bne	13424 <_nl_load_domain+0xc70>
   13440:	e51b30cc 	ldr	r3, [fp, #-204]	; 0xffffff34
   13444:	e3a02000 	mov	r2, #0
   13448:	e50b80c4 	str	r8, [fp, #-196]	; 0xffffff3c
   1344c:	e50b40c8 	str	r4, [fp, #-200]	; 0xffffff38
   13450:	e1a04002 	mov	r4, r2
   13454:	e1a08003 	mov	r8, r3
   13458:	e50ba0b4 	str	sl, [fp, #-180]	; 0xffffff4c
   1345c:	e50b90c0 	str	r9, [fp, #-192]	; 0xffffff40
   13460:	e5980004 	ldr	r0, [r8, #4]
   13464:	eb00085c 	bl	155dc <__hash_string>
   13468:	e596a02c 	ldr	sl, [r6, #44]	; 0x2c
   1346c:	e1a0100a 	mov	r1, sl
   13470:	e1a09000 	mov	r9, r0
   13474:	eb016e33 	bl	6ed48 <__aeabi_uidivmod>
   13478:	e1a00009 	mov	r0, r9
   1347c:	e1a05001 	mov	r5, r1
   13480:	e24a1002 	sub	r1, sl, #2
   13484:	eb016e2f 	bl	6ed48 <__aeabi_uidivmod>
   13488:	e2811001 	add	r1, r1, #1
   1348c:	e04ac001 	sub	ip, sl, r1
   13490:	e041a00a 	sub	sl, r1, sl
   13494:	ea000002 	b	134a4 <_nl_load_domain+0xcf0>
   13498:	e155000c 	cmp	r5, ip
   1349c:	2085500a 	addcs	r5, r5, sl
   134a0:	30855001 	addcc	r5, r5, r1
   134a4:	e7973105 	ldr	r3, [r7, r5, lsl #2]
   134a8:	e0870105 	add	r0, r7, r5, lsl #2
   134ac:	e3530000 	cmp	r3, #0
   134b0:	1afffff8 	bne	13498 <_nl_load_domain+0xce4>
   134b4:	e5961014 	ldr	r1, [r6, #20]
   134b8:	e2888008 	add	r8, r8, #8
   134bc:	e51b20a8 	ldr	r2, [fp, #-168]	; 0xffffff58
   134c0:	e2811001 	add	r1, r1, #1
   134c4:	e0811004 	add	r1, r1, r4
   134c8:	e2844001 	add	r4, r4, #1
   134cc:	e1520004 	cmp	r2, r4
   134d0:	e5801000 	str	r1, [r0]
   134d4:	1affffe1 	bne	13460 <_nl_load_domain+0xcac>
   134d8:	e5862020 	str	r2, [r6, #32]
   134dc:	e24b40c8 	sub	r4, fp, #200	; 0xc8
   134e0:	e51b20cc 	ldr	r2, [fp, #-204]	; 0xffffff34
   134e4:	e51ba0b4 	ldr	sl, [fp, #-180]	; 0xffffff4c
   134e8:	e8940310 	ldm	r4, {r4, r8, r9}
   134ec:	e5862024 	str	r2, [r6, #36]	; 0x24
   134f0:	e51b20e4 	ldr	r2, [fp, #-228]	; 0xffffff1c
   134f4:	e5867030 	str	r7, [r6, #48]	; 0x30
   134f8:	e5863034 	str	r3, [r6, #52]	; 0x34
   134fc:	e5862028 	str	r2, [r6, #40]	; 0x28
   13500:	eafffe27 	b	12da4 <_nl_load_domain+0x5f0>
   13504:	e3500000 	cmp	r0, #0
   13508:	051b30dc 	ldreq	r3, [fp, #-220]	; 0xffffff24
   1350c:	151b30d8 	ldrne	r3, [fp, #-216]	; 0xffffff28
   13510:	e5932000 	ldr	r2, [r3]
   13514:	eaffff69 	b	132c0 <_nl_load_domain+0xb0c>
   13518:	e51b30d4 	ldr	r3, [fp, #-212]	; 0xffffff2c
   1351c:	e593700c 	ldr	r7, [r3, #12]
   13520:	eaffff85 	b	1333c <_nl_load_domain+0xb88>
   13524:	e284400c 	add	r4, r4, #12
   13528:	e5896004 	str	r6, [r9, #4]
   1352c:	e50b90fc 	str	r9, [fp, #-252]	; 0xffffff04
   13530:	ea00000a 	b	13560 <_nl_load_domain+0xdac>
   13534:	e3750001 	cmn	r5, #1
   13538:	e2844008 	add	r4, r4, #8
   1353c:	0a000026 	beq	135dc <_nl_load_domain+0xe28>
   13540:	e79a5105 	ldr	r5, [sl, r5, lsl #2]
   13544:	e1a00005 	mov	r0, r5
   13548:	fa00493c 	blx	25a40 <strlen>
   1354c:	e1a01005 	mov	r1, r5
   13550:	e1a02000 	mov	r2, r0
   13554:	e1a00006 	mov	r0, r6
   13558:	e0866002 	add	r6, r6, r2
   1355c:	eb004e4b 	bl	26e90 <memcpy>
   13560:	e3570000 	cmp	r7, #0
   13564:	19140028 	ldmdbne	r4, {r3, r5}
   13568:	05149008 	ldreq	r9, [r4, #-8]
   1356c:	16bf9f33 	revne	r9, r3
   13570:	16bf5f35 	revne	r5, r5
   13574:	05145004 	ldreq	r5, [r4, #-4]
   13578:	e3590000 	cmp	r9, #0
   1357c:	0affffec 	beq	13534 <_nl_load_domain+0xd80>
   13580:	e1a01008 	mov	r1, r8
   13584:	e1a00006 	mov	r0, r6
   13588:	e1a02009 	mov	r2, r9
   1358c:	e0888009 	add	r8, r8, r9
   13590:	eb004e3e 	bl	26e90 <memcpy>
   13594:	e0866009 	add	r6, r6, r9
   13598:	eaffffe5 	b	13534 <_nl_load_domain+0xd80>
   1359c:	e3530000 	cmp	r3, #0
   135a0:	e51b20c4 	ldr	r2, [fp, #-196]	; 0xffffff3c
   135a4:	051b30dc 	ldreq	r3, [fp, #-220]	; 0xffffff24
   135a8:	151b30d8 	ldrne	r3, [fp, #-216]	; 0xffffff28
   135ac:	051b90e0 	ldreq	r9, [fp, #-224]	; 0xffffff20
   135b0:	05933000 	ldreq	r3, [r3]
   135b4:	15933000 	ldrne	r3, [r3]
   135b8:	151b90e8 	ldrne	r9, [fp, #-232]	; 0xffffff18
   135bc:	e0824003 	add	r4, r2, r3
   135c0:	e7928003 	ldr	r8, [r2, r3]
   135c4:	e5943008 	ldr	r3, [r4, #8]
   135c8:	e0828008 	add	r8, r2, r8
   135cc:	e3730001 	cmn	r3, #1
   135d0:	1affffd3 	bne	13524 <_nl_load_domain+0xd70>
   135d4:	e5943004 	ldr	r3, [r4, #4]
   135d8:	eaffff6c 	b	13390 <_nl_load_domain+0xbdc>
   135dc:	e51b90fc 	ldr	r9, [fp, #-252]	; 0xffffff04
   135e0:	e5993004 	ldr	r3, [r9, #4]
   135e4:	e0463003 	sub	r3, r6, r3
   135e8:	e5893000 	str	r3, [r9]
   135ec:	eaffff68 	b	13394 <_nl_load_domain+0xbe0>
   135f0:	e3012c38 	movw	r2, #7224	; 0x1c38
   135f4:	e3402007 	movt	r2, #7
   135f8:	eafffd37 	b	12adc <_nl_load_domain+0x328>
   135fc:	e354004c 	cmp	r4, #76	; 0x4c
   13600:	1a000093 	bne	13854 <_nl_load_domain+0x10a0>
   13604:	e5d32005 	ldrb	r2, [r3, #5]
   13608:	e3520045 	cmp	r2, #69	; 0x45
   1360c:	13a02000 	movne	r2, #0
   13610:	1afffd31 	bne	12adc <_nl_load_domain+0x328>
   13614:	e5d32006 	ldrb	r2, [r3, #6]
   13618:	e3520041 	cmp	r2, #65	; 0x41
   1361c:	13a02000 	movne	r2, #0
   13620:	1afffd2d 	bne	12adc <_nl_load_domain+0x328>
   13624:	e5d32007 	ldrb	r2, [r3, #7]
   13628:	e3520053 	cmp	r2, #83	; 0x53
   1362c:	13a02000 	movne	r2, #0
   13630:	1afffd29 	bne	12adc <_nl_load_domain+0x328>
   13634:	e5d32008 	ldrb	r2, [r3, #8]
   13638:	e3520054 	cmp	r2, #84	; 0x54
   1363c:	13a02000 	movne	r2, #0
   13640:	1afffd25 	bne	12adc <_nl_load_domain+0x328>
   13644:	e5d32009 	ldrb	r2, [r3, #9]
   13648:	e3520038 	cmp	r2, #56	; 0x38
   1364c:	0a000067 	beq	137f0 <_nl_load_domain+0x103c>
   13650:	e3520031 	cmp	r2, #49	; 0x31
   13654:	0a000048 	beq	1377c <_nl_load_domain+0xfc8>
   13658:	e3520033 	cmp	r2, #51	; 0x33
   1365c:	0a000029 	beq	13708 <_nl_load_domain+0xf54>
   13660:	e3520036 	cmp	r2, #54	; 0x36
   13664:	13a02000 	movne	r2, #0
   13668:	1afffd1b 	bne	12adc <_nl_load_domain+0x328>
   1366c:	e5d3200a 	ldrb	r2, [r3, #10]
   13670:	e3520034 	cmp	r2, #52	; 0x34
   13674:	13a02000 	movne	r2, #0
   13678:	1afffd17 	bne	12adc <_nl_load_domain+0x328>
   1367c:	e5d3300b 	ldrb	r3, [r3, #11]
   13680:	e3530000 	cmp	r3, #0
   13684:	13a02000 	movne	r2, #0
   13688:	1afffd13 	bne	12adc <_nl_load_domain+0x328>
   1368c:	e3510064 	cmp	r1, #100	; 0x64
   13690:	051b20ec 	ldreq	r2, [fp, #-236]	; 0xffffff14
   13694:	0afffd10 	beq	12adc <_nl_load_domain+0x328>
   13698:	e51b30f4 	ldr	r3, [fp, #-244]	; 0xffffff0c
   1369c:	e3530000 	cmp	r3, #0
   136a0:	151b20f0 	ldrne	r2, [fp, #-240]	; 0xffffff10
   136a4:	1afffd0c 	bne	12adc <_nl_load_domain+0x328>
   136a8:	e51b30f8 	ldr	r3, [fp, #-248]	; 0xffffff08
   136ac:	e3530000 	cmp	r3, #0
   136b0:	1a000011 	bne	136fc <_nl_load_domain+0xf48>
   136b4:	e51b30fc 	ldr	r3, [fp, #-252]	; 0xffffff04
   136b8:	e3530000 	cmp	r3, #0
   136bc:	1a00000b 	bne	136f0 <_nl_load_domain+0xf3c>
   136c0:	e51b1100 	ldr	r1, [fp, #-256]	; 0xffffff00
   136c4:	e3013c3c 	movw	r3, #7228	; 0x1c3c
   136c8:	e3403007 	movt	r3, #7
   136cc:	e3012c34 	movw	r2, #7220	; 0x1c34
   136d0:	e3510000 	cmp	r1, #0
   136d4:	e3402007 	movt	r2, #7
   136d8:	01a02003 	moveq	r2, r3
   136dc:	eafffcfe 	b	12adc <_nl_load_domain+0x328>
   136e0:	eb0007cc 	bl	15618 <abort>
   136e4:	e3012c2c 	movw	r2, #7212	; 0x1c2c
   136e8:	e3402007 	movt	r2, #7
   136ec:	eafffcfa 	b	12adc <_nl_load_domain+0x328>
   136f0:	e3012c2c 	movw	r2, #7212	; 0x1c2c
   136f4:	e3402007 	movt	r2, #7
   136f8:	eafffcf7 	b	12adc <_nl_load_domain+0x328>
   136fc:	e3012c38 	movw	r2, #7224	; 0x1c38
   13700:	e3402007 	movt	r2, #7
   13704:	eafffcf4 	b	12adc <_nl_load_domain+0x328>
   13708:	e5d3200a 	ldrb	r2, [r3, #10]
   1370c:	e3520032 	cmp	r2, #50	; 0x32
   13710:	13a02000 	movne	r2, #0
   13714:	1afffcf0 	bne	12adc <_nl_load_domain+0x328>
   13718:	e5d3300b 	ldrb	r3, [r3, #11]
   1371c:	e3530000 	cmp	r3, #0
   13720:	13a02000 	movne	r2, #0
   13724:	1afffcec 	bne	12adc <_nl_load_domain+0x328>
   13728:	e3510064 	cmp	r1, #100	; 0x64
   1372c:	051b20d4 	ldreq	r2, [fp, #-212]	; 0xffffff2c
   13730:	0afffce9 	beq	12adc <_nl_load_domain+0x328>
   13734:	e51b30f4 	ldr	r3, [fp, #-244]	; 0xffffff0c
   13738:	e3530000 	cmp	r3, #0
   1373c:	151b20d8 	ldrne	r2, [fp, #-216]	; 0xffffff28
   13740:	1afffce5 	bne	12adc <_nl_load_domain+0x328>
   13744:	e51b30f8 	ldr	r3, [fp, #-248]	; 0xffffff08
   13748:	e3530000 	cmp	r3, #0
   1374c:	151b20dc 	ldrne	r2, [fp, #-220]	; 0xffffff24
   13750:	1afffce1 	bne	12adc <_nl_load_domain+0x328>
   13754:	e51b30fc 	ldr	r3, [fp, #-252]	; 0xffffff04
   13758:	e3530000 	cmp	r3, #0
   1375c:	151b20e0 	ldrne	r2, [fp, #-224]	; 0xffffff20
   13760:	1afffcdd 	bne	12adc <_nl_load_domain+0x328>
   13764:	e51b1100 	ldr	r1, [fp, #-256]	; 0xffffff00
   13768:	e51b30e8 	ldr	r3, [fp, #-232]	; 0xffffff18
   1376c:	e3510000 	cmp	r1, #0
   13770:	e51b20e4 	ldr	r2, [fp, #-228]	; 0xffffff1c
   13774:	11a02003 	movne	r2, r3
   13778:	eafffcd7 	b	12adc <_nl_load_domain+0x328>
   1377c:	e5d3200a 	ldrb	r2, [r3, #10]
   13780:	e3520036 	cmp	r2, #54	; 0x36
   13784:	13a02000 	movne	r2, #0
   13788:	1afffcd3 	bne	12adc <_nl_load_domain+0x328>
   1378c:	e5d3300b 	ldrb	r3, [r3, #11]
   13790:	e3530000 	cmp	r3, #0
   13794:	13a02000 	movne	r2, #0
   13798:	1afffccf 	bne	12adc <_nl_load_domain+0x328>
   1379c:	e3510064 	cmp	r1, #100	; 0x64
   137a0:	051b20d4 	ldreq	r2, [fp, #-212]	; 0xffffff2c
   137a4:	0afffccc 	beq	12adc <_nl_load_domain+0x328>
   137a8:	e51b30f4 	ldr	r3, [fp, #-244]	; 0xffffff0c
   137ac:	e3530000 	cmp	r3, #0
   137b0:	151b20d8 	ldrne	r2, [fp, #-216]	; 0xffffff28
   137b4:	1afffcc8 	bne	12adc <_nl_load_domain+0x328>
   137b8:	e51b30f8 	ldr	r3, [fp, #-248]	; 0xffffff08
   137bc:	e3530000 	cmp	r3, #0
   137c0:	151b20dc 	ldrne	r2, [fp, #-220]	; 0xffffff24
   137c4:	1afffcc4 	bne	12adc <_nl_load_domain+0x328>
   137c8:	e51b30fc 	ldr	r3, [fp, #-252]	; 0xffffff04
   137cc:	e3530000 	cmp	r3, #0
   137d0:	151b20e0 	ldrne	r2, [fp, #-224]	; 0xffffff20
   137d4:	1afffcc0 	bne	12adc <_nl_load_domain+0x328>
   137d8:	e51b1100 	ldr	r1, [fp, #-256]	; 0xffffff00
   137dc:	e51b30e8 	ldr	r3, [fp, #-232]	; 0xffffff18
   137e0:	e3510000 	cmp	r1, #0
   137e4:	e51b20e4 	ldr	r2, [fp, #-228]	; 0xffffff1c
   137e8:	11a02003 	movne	r2, r3
   137ec:	eafffcba 	b	12adc <_nl_load_domain+0x328>
   137f0:	e5d3300a 	ldrb	r3, [r3, #10]
   137f4:	e3530000 	cmp	r3, #0
   137f8:	13a02000 	movne	r2, #0
   137fc:	1afffcb6 	bne	12adc <_nl_load_domain+0x328>
   13800:	e3510064 	cmp	r1, #100	; 0x64
   13804:	051b20d4 	ldreq	r2, [fp, #-212]	; 0xffffff2c
   13808:	0afffcb3 	beq	12adc <_nl_load_domain+0x328>
   1380c:	e51b30f4 	ldr	r3, [fp, #-244]	; 0xffffff0c
   13810:	e3530000 	cmp	r3, #0
   13814:	151b20d8 	ldrne	r2, [fp, #-216]	; 0xffffff28
   13818:	1afffcaf 	bne	12adc <_nl_load_domain+0x328>
   1381c:	e51b30f8 	ldr	r3, [fp, #-248]	; 0xffffff08
   13820:	e3530000 	cmp	r3, #0
   13824:	151b20dc 	ldrne	r2, [fp, #-220]	; 0xffffff24
   13828:	1afffcab 	bne	12adc <_nl_load_domain+0x328>
   1382c:	e51b30fc 	ldr	r3, [fp, #-252]	; 0xffffff04
   13830:	e3530000 	cmp	r3, #0
   13834:	151b20e0 	ldrne	r2, [fp, #-224]	; 0xffffff20
   13838:	1afffca7 	bne	12adc <_nl_load_domain+0x328>
   1383c:	e51b1100 	ldr	r1, [fp, #-256]	; 0xffffff00
   13840:	e51b30e8 	ldr	r3, [fp, #-232]	; 0xffffff18
   13844:	e3510000 	cmp	r1, #0
   13848:	e51b20e4 	ldr	r2, [fp, #-228]	; 0xffffff1c
   1384c:	11a02003 	movne	r2, r3
   13850:	eafffca1 	b	12adc <_nl_load_domain+0x328>
   13854:	e3540046 	cmp	r4, #70	; 0x46
   13858:	1a000032 	bne	13928 <_nl_load_domain+0x1174>
   1385c:	e5d32005 	ldrb	r2, [r3, #5]
   13860:	e3520041 	cmp	r2, #65	; 0x41
   13864:	13a02000 	movne	r2, #0
   13868:	1afffc9b 	bne	12adc <_nl_load_domain+0x328>
   1386c:	e5d32006 	ldrb	r2, [r3, #6]
   13870:	e3520053 	cmp	r2, #83	; 0x53
   13874:	13a02000 	movne	r2, #0
   13878:	1afffc97 	bne	12adc <_nl_load_domain+0x328>
   1387c:	e5d32007 	ldrb	r2, [r3, #7]
   13880:	e3520054 	cmp	r2, #84	; 0x54
   13884:	13a02000 	movne	r2, #0
   13888:	1afffc93 	bne	12adc <_nl_load_domain+0x328>
   1388c:	e5d32008 	ldrb	r2, [r3, #8]
   13890:	e3520038 	cmp	r2, #56	; 0x38
   13894:	0a000092 	beq	13ae4 <_nl_load_domain+0x1330>
   13898:	e3520031 	cmp	r2, #49	; 0x31
   1389c:	0a000073 	beq	13a70 <_nl_load_domain+0x12bc>
   138a0:	e3520033 	cmp	r2, #51	; 0x33
   138a4:	0a0000a7 	beq	13b48 <_nl_load_domain+0x1394>
   138a8:	e3520036 	cmp	r2, #54	; 0x36
   138ac:	13a02000 	movne	r2, #0
   138b0:	1afffc89 	bne	12adc <_nl_load_domain+0x328>
   138b4:	e5d32009 	ldrb	r2, [r3, #9]
   138b8:	e3520034 	cmp	r2, #52	; 0x34
   138bc:	13a02000 	movne	r2, #0
   138c0:	1afffc85 	bne	12adc <_nl_load_domain+0x328>
   138c4:	e5d3300a 	ldrb	r3, [r3, #10]
   138c8:	e3530000 	cmp	r3, #0
   138cc:	13a02000 	movne	r2, #0
   138d0:	1afffc81 	bne	12adc <_nl_load_domain+0x328>
   138d4:	e3510064 	cmp	r1, #100	; 0x64
   138d8:	051b20ec 	ldreq	r2, [fp, #-236]	; 0xffffff14
   138dc:	0afffc7e 	beq	12adc <_nl_load_domain+0x328>
   138e0:	e51b30f4 	ldr	r3, [fp, #-244]	; 0xffffff0c
   138e4:	e3530000 	cmp	r3, #0
   138e8:	151b20f0 	ldrne	r2, [fp, #-240]	; 0xffffff10
   138ec:	1afffc7a 	bne	12adc <_nl_load_domain+0x328>
   138f0:	e51b30f8 	ldr	r3, [fp, #-248]	; 0xffffff08
   138f4:	e3530000 	cmp	r3, #0
   138f8:	1a000059 	bne	13a64 <_nl_load_domain+0x12b0>
   138fc:	e51b30fc 	ldr	r3, [fp, #-252]	; 0xffffff04
   13900:	e3530000 	cmp	r3, #0
   13904:	1a00002a 	bne	139b4 <_nl_load_domain+0x1200>
   13908:	e51b1100 	ldr	r1, [fp, #-256]	; 0xffffff00
   1390c:	e3013c3c 	movw	r3, #7228	; 0x1c3c
   13910:	e3403007 	movt	r3, #7
   13914:	e3012c34 	movw	r2, #7220	; 0x1c34
   13918:	e3510000 	cmp	r1, #0
   1391c:	e3402007 	movt	r2, #7
   13920:	01a02003 	moveq	r2, r3
   13924:	eafffc6c 	b	12adc <_nl_load_domain+0x328>
   13928:	e354004d 	cmp	r4, #77	; 0x4d
   1392c:	1a000029 	bne	139d8 <_nl_load_domain+0x1224>
   13930:	e5d32005 	ldrb	r2, [r3, #5]
   13934:	e3520041 	cmp	r2, #65	; 0x41
   13938:	13a02000 	movne	r2, #0
   1393c:	1afffc66 	bne	12adc <_nl_load_domain+0x328>
   13940:	e5d32006 	ldrb	r2, [r3, #6]
   13944:	e3520058 	cmp	r2, #88	; 0x58
   13948:	13a02000 	movne	r2, #0
   1394c:	1afffc62 	bne	12adc <_nl_load_domain+0x328>
   13950:	e5d33007 	ldrb	r3, [r3, #7]
   13954:	e3530000 	cmp	r3, #0
   13958:	13a02000 	movne	r2, #0
   1395c:	1afffc5e 	bne	12adc <_nl_load_domain+0x328>
   13960:	e3510064 	cmp	r1, #100	; 0x64
   13964:	051b20ec 	ldreq	r2, [fp, #-236]	; 0xffffff14
   13968:	0afffc5b 	beq	12adc <_nl_load_domain+0x328>
   1396c:	e51b30f4 	ldr	r3, [fp, #-244]	; 0xffffff0c
   13970:	e3530000 	cmp	r3, #0
   13974:	151b20f0 	ldrne	r2, [fp, #-240]	; 0xffffff10
   13978:	1afffc57 	bne	12adc <_nl_load_domain+0x328>
   1397c:	e51b30f8 	ldr	r3, [fp, #-248]	; 0xffffff08
   13980:	e3530000 	cmp	r3, #0
   13984:	1a000010 	bne	139cc <_nl_load_domain+0x1218>
   13988:	e51b30fc 	ldr	r3, [fp, #-252]	; 0xffffff04
   1398c:	e3530000 	cmp	r3, #0
   13990:	1a00000a 	bne	139c0 <_nl_load_domain+0x120c>
   13994:	e51b1100 	ldr	r1, [fp, #-256]	; 0xffffff00
   13998:	e3013c3c 	movw	r3, #7228	; 0x1c3c
   1399c:	e3403007 	movt	r3, #7
   139a0:	e3012c34 	movw	r2, #7220	; 0x1c34
   139a4:	e3510000 	cmp	r1, #0
   139a8:	e3402007 	movt	r2, #7
   139ac:	01a02003 	moveq	r2, r3
   139b0:	eafffc49 	b	12adc <_nl_load_domain+0x328>
   139b4:	e3012c2c 	movw	r2, #7212	; 0x1c2c
   139b8:	e3402007 	movt	r2, #7
   139bc:	eafffc46 	b	12adc <_nl_load_domain+0x328>
   139c0:	e3012c2c 	movw	r2, #7212	; 0x1c2c
   139c4:	e3402007 	movt	r2, #7
   139c8:	eafffc43 	b	12adc <_nl_load_domain+0x328>
   139cc:	e3012c38 	movw	r2, #7224	; 0x1c38
   139d0:	e3402007 	movt	r2, #7
   139d4:	eafffc40 	b	12adc <_nl_load_domain+0x328>
   139d8:	e3540050 	cmp	r4, #80	; 0x50
   139dc:	1a000076 	bne	13bbc <_nl_load_domain+0x1408>
   139e0:	e5d32005 	ldrb	r2, [r3, #5]
   139e4:	e3520054 	cmp	r2, #84	; 0x54
   139e8:	13a02000 	movne	r2, #0
   139ec:	1afffc3a 	bne	12adc <_nl_load_domain+0x328>
   139f0:	e5d32006 	ldrb	r2, [r3, #6]
   139f4:	e3520052 	cmp	r2, #82	; 0x52
   139f8:	13a02000 	movne	r2, #0
   139fc:	1afffc36 	bne	12adc <_nl_load_domain+0x328>
   13a00:	e5d33007 	ldrb	r3, [r3, #7]
   13a04:	e3530000 	cmp	r3, #0
   13a08:	13a02000 	movne	r2, #0
   13a0c:	1afffc32 	bne	12adc <_nl_load_domain+0x328>
   13a10:	e3510064 	cmp	r1, #100	; 0x64
   13a14:	051b20d4 	ldreq	r2, [fp, #-212]	; 0xffffff2c
   13a18:	0afffc2f 	beq	12adc <_nl_load_domain+0x328>
   13a1c:	e51b30f4 	ldr	r3, [fp, #-244]	; 0xffffff0c
   13a20:	e3530000 	cmp	r3, #0
   13a24:	151b20d8 	ldrne	r2, [fp, #-216]	; 0xffffff28
   13a28:	1afffc2b 	bne	12adc <_nl_load_domain+0x328>
   13a2c:	e51b30f8 	ldr	r3, [fp, #-248]	; 0xffffff08
   13a30:	e3530000 	cmp	r3, #0
   13a34:	151b20dc 	ldrne	r2, [fp, #-220]	; 0xffffff24
   13a38:	1afffc27 	bne	12adc <_nl_load_domain+0x328>
   13a3c:	e51b30fc 	ldr	r3, [fp, #-252]	; 0xffffff04
   13a40:	e3530000 	cmp	r3, #0
   13a44:	151b20e0 	ldrne	r2, [fp, #-224]	; 0xffffff20
   13a48:	1afffc23 	bne	12adc <_nl_load_domain+0x328>
   13a4c:	e51b1100 	ldr	r1, [fp, #-256]	; 0xffffff00
   13a50:	e51b30e8 	ldr	r3, [fp, #-232]	; 0xffffff18
   13a54:	e3510000 	cmp	r1, #0
   13a58:	e51b20e4 	ldr	r2, [fp, #-228]	; 0xffffff1c
   13a5c:	11a02003 	movne	r2, r3
   13a60:	eafffc1d 	b	12adc <_nl_load_domain+0x328>
   13a64:	e3012c38 	movw	r2, #7224	; 0x1c38
   13a68:	e3402007 	movt	r2, #7
   13a6c:	eafffc1a 	b	12adc <_nl_load_domain+0x328>
   13a70:	e5d32009 	ldrb	r2, [r3, #9]
   13a74:	e3520036 	cmp	r2, #54	; 0x36
   13a78:	13a02000 	movne	r2, #0
   13a7c:	1afffc16 	bne	12adc <_nl_load_domain+0x328>
   13a80:	e5d3300a 	ldrb	r3, [r3, #10]
   13a84:	e3530000 	cmp	r3, #0
   13a88:	13a02000 	movne	r2, #0
   13a8c:	1afffc12 	bne	12adc <_nl_load_domain+0x328>
   13a90:	e3510064 	cmp	r1, #100	; 0x64
   13a94:	051b20d4 	ldreq	r2, [fp, #-212]	; 0xffffff2c
   13a98:	0afffc0f 	beq	12adc <_nl_load_domain+0x328>
   13a9c:	e51b30f4 	ldr	r3, [fp, #-244]	; 0xffffff0c
   13aa0:	e3530000 	cmp	r3, #0
   13aa4:	151b20d8 	ldrne	r2, [fp, #-216]	; 0xffffff28
   13aa8:	1afffc0b 	bne	12adc <_nl_load_domain+0x328>
   13aac:	e51b30f8 	ldr	r3, [fp, #-248]	; 0xffffff08
   13ab0:	e3530000 	cmp	r3, #0
   13ab4:	151b20dc 	ldrne	r2, [fp, #-220]	; 0xffffff24
   13ab8:	1afffc07 	bne	12adc <_nl_load_domain+0x328>
   13abc:	e51b30fc 	ldr	r3, [fp, #-252]	; 0xffffff04
   13ac0:	e3530000 	cmp	r3, #0
   13ac4:	151b20e0 	ldrne	r2, [fp, #-224]	; 0xffffff20
   13ac8:	1afffc03 	bne	12adc <_nl_load_domain+0x328>
   13acc:	e51b1100 	ldr	r1, [fp, #-256]	; 0xffffff00
   13ad0:	e51b30e8 	ldr	r3, [fp, #-232]	; 0xffffff18
   13ad4:	e3510000 	cmp	r1, #0
   13ad8:	e51b20e4 	ldr	r2, [fp, #-228]	; 0xffffff1c
   13adc:	11a02003 	movne	r2, r3
   13ae0:	eafffbfd 	b	12adc <_nl_load_domain+0x328>
   13ae4:	e5d33009 	ldrb	r3, [r3, #9]
   13ae8:	e3530000 	cmp	r3, #0
   13aec:	13a02000 	movne	r2, #0
   13af0:	1afffbf9 	bne	12adc <_nl_load_domain+0x328>
   13af4:	e3510064 	cmp	r1, #100	; 0x64
   13af8:	051b20d4 	ldreq	r2, [fp, #-212]	; 0xffffff2c
   13afc:	0afffbf6 	beq	12adc <_nl_load_domain+0x328>
   13b00:	e51b30f4 	ldr	r3, [fp, #-244]	; 0xffffff0c
   13b04:	e3530000 	cmp	r3, #0
   13b08:	151b20d8 	ldrne	r2, [fp, #-216]	; 0xffffff28
   13b0c:	1afffbf2 	bne	12adc <_nl_load_domain+0x328>
   13b10:	e51b30f8 	ldr	r3, [fp, #-248]	; 0xffffff08
   13b14:	e3530000 	cmp	r3, #0
   13b18:	151b20dc 	ldrne	r2, [fp, #-220]	; 0xffffff24
   13b1c:	1afffbee 	bne	12adc <_nl_load_domain+0x328>
   13b20:	e51b30fc 	ldr	r3, [fp, #-252]	; 0xffffff04
   13b24:	e3530000 	cmp	r3, #0
   13b28:	151b20e0 	ldrne	r2, [fp, #-224]	; 0xffffff20
   13b2c:	1afffbea 	bne	12adc <_nl_load_domain+0x328>
   13b30:	e51b1100 	ldr	r1, [fp, #-256]	; 0xffffff00
   13b34:	e51b30e8 	ldr	r3, [fp, #-232]	; 0xffffff18
   13b38:	e3510000 	cmp	r1, #0
   13b3c:	e51b20e4 	ldr	r2, [fp, #-228]	; 0xffffff1c
   13b40:	11a02003 	movne	r2, r3
   13b44:	eafffbe4 	b	12adc <_nl_load_domain+0x328>
   13b48:	e5d32009 	ldrb	r2, [r3, #9]
   13b4c:	e3520032 	cmp	r2, #50	; 0x32
   13b50:	13a02000 	movne	r2, #0
   13b54:	1afffbe0 	bne	12adc <_nl_load_domain+0x328>
   13b58:	e5d3300a 	ldrb	r3, [r3, #10]
   13b5c:	e3530000 	cmp	r3, #0
   13b60:	13a02000 	movne	r2, #0
   13b64:	1afffbdc 	bne	12adc <_nl_load_domain+0x328>
   13b68:	e3510064 	cmp	r1, #100	; 0x64
   13b6c:	051b20d4 	ldreq	r2, [fp, #-212]	; 0xffffff2c
   13b70:	0afffbd9 	beq	12adc <_nl_load_domain+0x328>
   13b74:	e51b30f4 	ldr	r3, [fp, #-244]	; 0xffffff0c
   13b78:	e3530000 	cmp	r3, #0
   13b7c:	151b20d8 	ldrne	r2, [fp, #-216]	; 0xffffff28
   13b80:	1afffbd5 	bne	12adc <_nl_load_domain+0x328>
   13b84:	e51b30f8 	ldr	r3, [fp, #-248]	; 0xffffff08
   13b88:	e3530000 	cmp	r3, #0
   13b8c:	151b20dc 	ldrne	r2, [fp, #-220]	; 0xffffff24
   13b90:	1afffbd1 	bne	12adc <_nl_load_domain+0x328>
   13b94:	e51b30fc 	ldr	r3, [fp, #-252]	; 0xffffff04
   13b98:	e3530000 	cmp	r3, #0
   13b9c:	151b20e0 	ldrne	r2, [fp, #-224]	; 0xffffff20
   13ba0:	1afffbcd 	bne	12adc <_nl_load_domain+0x328>
   13ba4:	e51b1100 	ldr	r1, [fp, #-256]	; 0xffffff00
   13ba8:	e51b30e8 	ldr	r3, [fp, #-232]	; 0xffffff18
   13bac:	e3510000 	cmp	r1, #0
   13bb0:	e51b20e4 	ldr	r2, [fp, #-228]	; 0xffffff1c
   13bb4:	11a02003 	movne	r2, r3
   13bb8:	eafffbc7 	b	12adc <_nl_load_domain+0x328>
   13bbc:	e3a02000 	mov	r2, #0
   13bc0:	eafffbc5 	b	12adc <_nl_load_domain+0x328>
   13bc4:	0008440c 	.word	0x0008440c
   13bc8:	000843b8 	.word	0x000843b8

00013bcc <alias_compare>:
   13bcc:	e300256c 	movw	r2, #1388	; 0x56c
   13bd0:	e5911000 	ldr	r1, [r1]
   13bd4:	e5900000 	ldr	r0, [r0]
   13bd8:	e3402008 	movt	r2, #8
   13bdc:	ea004c9a 	b	26e4c <__strcasecmp_l>

00013be0 <read_alias_file>:
   13be0:	e3062f8c 	movw	r2, #28556	; 0x6f8c
   13be4:	e3402009 	movt	r2, #9
   13be8:	e281301c 	add	r3, r1, #28
   13bec:	e92d4ff0 	push	{r4, r5, r6, r7, r8, r9, sl, fp, lr}
   13bf0:	e1a0c002 	mov	ip, r2
   13bf4:	e28db020 	add	fp, sp, #32
   13bf8:	e3c33007 	bic	r3, r3, #7
   13bfc:	e24ddf73 	sub	sp, sp, #460	; 0x1cc
   13c00:	e04dd003 	sub	sp, sp, r3
   13c04:	e59c3000 	ldr	r3, [ip]
   13c08:	e1a04001 	mov	r4, r1
   13c0c:	e50b21e8 	str	r2, [fp, #-488]	; 0xfffffe18
   13c10:	e1a01000 	mov	r1, r0
   13c14:	e1a02004 	mov	r2, r4
   13c18:	e1a0000d 	mov	r0, sp
   13c1c:	e50b3028 	str	r3, [fp, #-40]	; 0xffffffd8
   13c20:	eb004c9a 	bl	26e90 <memcpy>
   13c24:	e3013c48 	movw	r3, #7240	; 0x1c48
   13c28:	e3403007 	movt	r3, #7
   13c2c:	e080c004 	add	ip, r0, r4
   13c30:	e1a0e000 	mov	lr, r0
   13c34:	e8b30007 	ldm	r3!, {r0, r1, r2}
   13c38:	e1d330b0 	ldrh	r3, [r3]
   13c3c:	e78e0004 	str	r0, [lr, r4]
   13c40:	e1a0000d 	mov	r0, sp
   13c44:	e58c1004 	str	r1, [ip, #4]
   13c48:	e3011c44 	movw	r1, #7236	; 0x1c44
   13c4c:	e1cc30bc 	strh	r3, [ip, #12]
   13c50:	e3401007 	movt	r1, #7
   13c54:	e58c2008 	str	r2, [ip, #8]
   13c58:	eb000ed3 	bl	177ac <_IO_new_fopen>
   13c5c:	e250a000 	subs	sl, r0, #0
   13c60:	0a0000f8 	beq	14048 <read_alias_file+0x468>
   13c64:	e59a3000 	ldr	r3, [sl]
   13c68:	e2132010 	ands	r2, r3, #16
   13c6c:	e3833902 	orr	r3, r3, #32768	; 0x8000
   13c70:	e58a3000 	str	r3, [sl]
   13c74:	1a0000f5 	bne	14050 <read_alias_file+0x470>
   13c78:	e3088178 	movw	r8, #33144	; 0x8178
   13c7c:	e3408009 	movt	r8, #9
   13c80:	ee1d9f70 	mrc	15, 0, r9, cr13, cr0, {3}
   13c84:	e3083b70 	movw	r3, #35696	; 0x8b70
   13c88:	e50b21c4 	str	r2, [fp, #-452]	; 0xfffffe3c
   13c8c:	e3403009 	movt	r3, #9
   13c90:	e50b31c8 	str	r3, [fp, #-456]	; 0xfffffe38
   13c94:	e1a0200a 	mov	r2, sl
   13c98:	e3a01e19 	mov	r1, #400	; 0x190
   13c9c:	e24b0f6e 	sub	r0, fp, #440	; 0x1b8
   13ca0:	eb00171f 	bl	19924 <__fgets_unlocked>
   13ca4:	e3500000 	cmp	r0, #0
   13ca8:	0a00007c 	beq	13ea0 <read_alias_file+0x2c0>
   13cac:	e3a0100a 	mov	r1, #10
   13cb0:	e24b0f6e 	sub	r0, fp, #440	; 0x1b8
   13cb4:	eb004561 	bl	25240 <strchr>
   13cb8:	e59f33a4 	ldr	r3, [pc, #932]	; 14064 <read_alias_file+0x484>
   13cbc:	e55b21b8 	ldrb	r2, [fp, #-440]	; 0xfffffe48
   13cc0:	e24b4f6e 	sub	r4, fp, #440	; 0x1b8
   13cc4:	e79f3003 	ldr	r3, [pc, r3]
   13cc8:	e1a01082 	lsl	r1, r2, #1
   13ccc:	e7993003 	ldr	r3, [r9, r3]
   13cd0:	e19310b1 	ldrh	r1, [r3, r1]
   13cd4:	e3110a02 	tst	r1, #8192	; 0x2000
   13cd8:	e1a06000 	mov	r6, r0
   13cdc:	0a000004 	beq	13cf4 <read_alias_file+0x114>
   13ce0:	e5f42001 	ldrb	r2, [r4, #1]!
   13ce4:	e1a01082 	lsl	r1, r2, #1
   13ce8:	e19310b1 	ldrh	r1, [r3, r1]
   13cec:	e3110a02 	tst	r1, #8192	; 0x2000
   13cf0:	1afffffa 	bne	13ce0 <read_alias_file+0x100>
   13cf4:	e3520000 	cmp	r2, #0
   13cf8:	13520023 	cmpne	r2, #35	; 0x23
   13cfc:	0a000062 	beq	13e8c <read_alias_file+0x2ac>
   13d00:	e5d42001 	ldrb	r2, [r4, #1]
   13d04:	e2845001 	add	r5, r4, #1
   13d08:	e3520000 	cmp	r2, #0
   13d0c:	1a000003 	bne	13d20 <read_alias_file+0x140>
   13d10:	ea000085 	b	13f2c <read_alias_file+0x34c>
   13d14:	e5f52001 	ldrb	r2, [r5, #1]!
   13d18:	e3520000 	cmp	r2, #0
   13d1c:	0a000082 	beq	13f2c <read_alias_file+0x34c>
   13d20:	e1a02082 	lsl	r2, r2, #1
   13d24:	e19320b2 	ldrh	r2, [r3, r2]
   13d28:	e3120a02 	tst	r2, #8192	; 0x2000
   13d2c:	0afffff8 	beq	13d14 <read_alias_file+0x134>
   13d30:	e5d52001 	ldrb	r2, [r5, #1]
   13d34:	e3a00000 	mov	r0, #0
   13d38:	e5c50000 	strb	r0, [r5]
   13d3c:	e2855001 	add	r5, r5, #1
   13d40:	e1a01082 	lsl	r1, r2, #1
   13d44:	e19310b1 	ldrh	r1, [r3, r1]
   13d48:	e3110a02 	tst	r1, #8192	; 0x2000
   13d4c:	0a000004 	beq	13d64 <read_alias_file+0x184>
   13d50:	e5f52001 	ldrb	r2, [r5, #1]!
   13d54:	e1a01082 	lsl	r1, r2, #1
   13d58:	e19310b1 	ldrh	r1, [r3, r1]
   13d5c:	e3110a02 	tst	r1, #8192	; 0x2000
   13d60:	1afffffa 	bne	13d50 <read_alias_file+0x170>
   13d64:	e3520000 	cmp	r2, #0
   13d68:	0a000047 	beq	13e8c <read_alias_file+0x2ac>
   13d6c:	e5d52001 	ldrb	r2, [r5, #1]
   13d70:	e2851001 	add	r1, r5, #1
   13d74:	e3520000 	cmp	r2, #0
   13d78:	1a000003 	bne	13d8c <read_alias_file+0x1ac>
   13d7c:	ea00000b 	b	13db0 <read_alias_file+0x1d0>
   13d80:	e5f12001 	ldrb	r2, [r1, #1]!
   13d84:	e3520000 	cmp	r2, #0
   13d88:	0a000008 	beq	13db0 <read_alias_file+0x1d0>
   13d8c:	e1a00082 	lsl	r0, r2, #1
   13d90:	e19300b0 	ldrh	r0, [r3, r0]
   13d94:	e3100a02 	tst	r0, #8192	; 0x2000
   13d98:	0afffff8 	beq	13d80 <read_alias_file+0x1a0>
   13d9c:	e352000a 	cmp	r2, #10
   13da0:	1a000081 	bne	13fac <read_alias_file+0x3cc>
   13da4:	e3a03000 	mov	r3, #0
   13da8:	e5c12001 	strb	r2, [r1, #1]
   13dac:	e5c13000 	strb	r3, [r1]
   13db0:	e5983000 	ldr	r3, [r8]
   13db4:	e1a02003 	mov	r2, r3
   13db8:	e50b31c0 	str	r3, [fp, #-448]	; 0xfffffe40
   13dbc:	e5983004 	ldr	r3, [r8, #4]
   13dc0:	e1520003 	cmp	r2, r3
   13dc4:	2a00007b 	bcs	13fb8 <read_alias_file+0x3d8>
   13dc8:	e1a00004 	mov	r0, r4
   13dcc:	fa00471b 	blx	25a40 <strlen>
   13dd0:	e2803001 	add	r3, r0, #1
   13dd4:	e1a00005 	mov	r0, r5
   13dd8:	e50b31cc 	str	r3, [fp, #-460]	; 0xfffffe34
   13ddc:	e1a07003 	mov	r7, r3
   13de0:	fa004716 	blx	25a40 <strlen>
   13de4:	e5983008 	ldr	r3, [r8, #8]
   13de8:	e1a01003 	mov	r1, r3
   13dec:	e50b31d4 	str	r3, [fp, #-468]	; 0xfffffe2c
   13df0:	e0872001 	add	r2, r7, r1
   13df4:	e598300c 	ldr	r3, [r8, #12]
   13df8:	e50b21d8 	str	r2, [fp, #-472]	; 0xfffffe28
   13dfc:	e2801001 	add	r1, r0, #1
   13e00:	e50b11d0 	str	r1, [fp, #-464]	; 0xfffffe30
   13e04:	e0812002 	add	r2, r1, r2
   13e08:	e50b21dc 	str	r2, [fp, #-476]	; 0xfffffe24
   13e0c:	e1520003 	cmp	r2, r3
   13e10:	8a000049 	bhi	13f3c <read_alias_file+0x35c>
   13e14:	e51b31c8 	ldr	r3, [fp, #-456]	; 0xfffffe38
   13e18:	e51b21c0 	ldr	r2, [fp, #-448]	; 0xfffffe40
   13e1c:	e5937004 	ldr	r7, [r3, #4]
   13e20:	e5933000 	ldr	r3, [r3]
   13e24:	e1a02182 	lsl	r2, r2, #3
   13e28:	e50b21e4 	str	r2, [fp, #-484]	; 0xfffffe1c
   13e2c:	e50b31e0 	str	r3, [fp, #-480]	; 0xfffffe20
   13e30:	e1a01004 	mov	r1, r4
   13e34:	e51b31d4 	ldr	r3, [fp, #-468]	; 0xfffffe2c
   13e38:	e51b21cc 	ldr	r2, [fp, #-460]	; 0xfffffe34
   13e3c:	e0870003 	add	r0, r7, r3
   13e40:	e51b31c4 	ldr	r3, [fp, #-452]	; 0xfffffe3c
   13e44:	e2833001 	add	r3, r3, #1
   13e48:	e50b31c4 	str	r3, [fp, #-452]	; 0xfffffe3c
   13e4c:	eb004c0f 	bl	26e90 <memcpy>
   13e50:	e51b31e0 	ldr	r3, [fp, #-480]	; 0xfffffe20
   13e54:	e51bc1e4 	ldr	ip, [fp, #-484]	; 0xfffffe1c
   13e58:	e1a01005 	mov	r1, r5
   13e5c:	e51b21d0 	ldr	r2, [fp, #-464]	; 0xfffffe30
   13e60:	e083400c 	add	r4, r3, ip
   13e64:	e783000c 	str	r0, [r3, ip]
   13e68:	e51b31d8 	ldr	r3, [fp, #-472]	; 0xfffffe28
   13e6c:	e0870003 	add	r0, r7, r3
   13e70:	eb004c06 	bl	26e90 <memcpy>
   13e74:	e51b21dc 	ldr	r2, [fp, #-476]	; 0xfffffe24
   13e78:	e51b31c0 	ldr	r3, [fp, #-448]	; 0xfffffe40
   13e7c:	e5882008 	str	r2, [r8, #8]
   13e80:	e2833001 	add	r3, r3, #1
   13e84:	e5883000 	str	r3, [r8]
   13e88:	e5840004 	str	r0, [r4, #4]
   13e8c:	e3560000 	cmp	r6, #0
   13e90:	0a00001e 	beq	13f10 <read_alias_file+0x330>
   13e94:	e59a3000 	ldr	r3, [sl]
   13e98:	e3130010 	tst	r3, #16
   13e9c:	0affff7c 	beq	13c94 <read_alias_file+0xb4>
   13ea0:	e1a0000a 	mov	r0, sl
   13ea4:	eb000cc5 	bl	171c0 <_IO_new_fclose>
   13ea8:	e51b31c4 	ldr	r3, [fp, #-452]	; 0xfffffe3c
   13eac:	e3530000 	cmp	r3, #0
   13eb0:	0a000009 	beq	13edc <read_alias_file+0x2fc>
   13eb4:	e3081178 	movw	r1, #33144	; 0x8178
   13eb8:	e3080b70 	movw	r0, #35696	; 0x8b70
   13ebc:	e3401009 	movt	r1, #9
   13ec0:	e3400009 	movt	r0, #9
   13ec4:	e3033bcc 	movw	r3, #15308	; 0x3bcc
   13ec8:	e3a02008 	mov	r2, #8
   13ecc:	e5911000 	ldr	r1, [r1]
   13ed0:	e3403001 	movt	r3, #1
   13ed4:	e5900000 	ldr	r0, [r0]
   13ed8:	eb0007c4 	bl	15df0 <qsort>
   13edc:	e51b31e8 	ldr	r3, [fp, #-488]	; 0xfffffe18
   13ee0:	e51b2028 	ldr	r2, [fp, #-40]	; 0xffffffd8
   13ee4:	e51b01c4 	ldr	r0, [fp, #-452]	; 0xfffffe3c
   13ee8:	e5933000 	ldr	r3, [r3]
   13eec:	e1520003 	cmp	r2, r3
   13ef0:	1a00005a 	bne	14060 <read_alias_file+0x480>
   13ef4:	e24bd020 	sub	sp, fp, #32
   13ef8:	e8bd8ff0 	pop	{r4, r5, r6, r7, r8, r9, sl, fp, pc}
   13efc:	e3a0100a 	mov	r1, #10
   13f00:	e24b0f6e 	sub	r0, fp, #440	; 0x1b8
   13f04:	eb0044cd 	bl	25240 <strchr>
   13f08:	e3500000 	cmp	r0, #0
   13f0c:	1affffe0 	bne	13e94 <read_alias_file+0x2b4>
   13f10:	e1a0200a 	mov	r2, sl
   13f14:	e3a01e19 	mov	r1, #400	; 0x190
   13f18:	e24b0f6e 	sub	r0, fp, #440	; 0x1b8
   13f1c:	eb001680 	bl	19924 <__fgets_unlocked>
   13f20:	e3500000 	cmp	r0, #0
   13f24:	1afffff4 	bne	13efc <read_alias_file+0x31c>
   13f28:	eaffffd9 	b	13e94 <read_alias_file+0x2b4>
   13f2c:	e1d320b0 	ldrh	r2, [r3]
   13f30:	e3120a02 	tst	r2, #8192	; 0x2000
   13f34:	1affff85 	bne	13d50 <read_alias_file+0x170>
   13f38:	eaffffd3 	b	13e8c <read_alias_file+0x2ac>
   13f3c:	e51b21cc 	ldr	r2, [fp, #-460]	; 0xfffffe34
   13f40:	e51b11d0 	ldr	r1, [fp, #-464]	; 0xfffffe30
   13f44:	e0821001 	add	r1, r2, r1
   13f48:	e51b21c8 	ldr	r2, [fp, #-456]	; 0xfffffe38
   13f4c:	e3510b01 	cmp	r1, #1024	; 0x400
   13f50:	20833001 	addcs	r3, r3, r1
   13f54:	32833b01 	addcc	r3, r3, #1024	; 0x400
   13f58:	e50b31e0 	str	r3, [fp, #-480]	; 0xfffffe20
   13f5c:	e5922004 	ldr	r2, [r2, #4]
   13f60:	e1a01003 	mov	r1, r3
   13f64:	e1a00002 	mov	r0, r2
   13f68:	e50b21e4 	str	r2, [fp, #-484]	; 0xfffffe1c
   13f6c:	eb003e29 	bl	23818 <__libc_realloc>
   13f70:	e2507000 	subs	r7, r0, #0
   13f74:	0affffc9 	beq	13ea0 <read_alias_file+0x2c0>
   13f78:	e51b21e4 	ldr	r2, [fp, #-484]	; 0xfffffe1c
   13f7c:	e1520007 	cmp	r2, r7
   13f80:	1a00001a 	bne	13ff0 <read_alias_file+0x410>
   13f84:	e51b31c8 	ldr	r3, [fp, #-456]	; 0xfffffe38
   13f88:	e51b21c0 	ldr	r2, [fp, #-448]	; 0xfffffe40
   13f8c:	e5933000 	ldr	r3, [r3]
   13f90:	e1a02182 	lsl	r2, r2, #3
   13f94:	e50b21e4 	str	r2, [fp, #-484]	; 0xfffffe1c
   13f98:	e51b21c8 	ldr	r2, [fp, #-456]	; 0xfffffe38
   13f9c:	e5827004 	str	r7, [r2, #4]
   13fa0:	e51b21e0 	ldr	r2, [fp, #-480]	; 0xfffffe20
   13fa4:	e588200c 	str	r2, [r8, #12]
   13fa8:	eaffff9f 	b	13e2c <read_alias_file+0x24c>
   13fac:	e3a03000 	mov	r3, #0
   13fb0:	e5c13000 	strb	r3, [r1]
   13fb4:	eaffff7d 	b	13db0 <read_alias_file+0x1d0>
   13fb8:	e3530000 	cmp	r3, #0
   13fbc:	11a07083 	lslne	r7, r3, #1
   13fc0:	11a01203 	lslne	r1, r3, #4
   13fc4:	e51b31c8 	ldr	r3, [fp, #-456]	; 0xfffffe38
   13fc8:	03a01e32 	moveq	r1, #800	; 0x320
   13fcc:	03a07064 	moveq	r7, #100	; 0x64
   13fd0:	e5930000 	ldr	r0, [r3]
   13fd4:	eb003e0f 	bl	23818 <__libc_realloc>
   13fd8:	e3500000 	cmp	r0, #0
   13fdc:	0affffaf 	beq	13ea0 <read_alias_file+0x2c0>
   13fe0:	e51b31c8 	ldr	r3, [fp, #-456]	; 0xfffffe38
   13fe4:	e5887004 	str	r7, [r8, #4]
   13fe8:	e5830000 	str	r0, [r3]
   13fec:	eaffff75 	b	13dc8 <read_alias_file+0x1e8>
   13ff0:	e51b11c0 	ldr	r1, [fp, #-448]	; 0xfffffe40
   13ff4:	e3510000 	cmp	r1, #0
   13ff8:	0affffe1 	beq	13f84 <read_alias_file+0x3a4>
   13ffc:	e51b31c8 	ldr	r3, [fp, #-456]	; 0xfffffe38
   14000:	e1a01181 	lsl	r1, r1, #3
   14004:	e0472002 	sub	r2, r7, r2
   14008:	e50b11e4 	str	r1, [fp, #-484]	; 0xfffffe1c
   1400c:	e5933000 	ldr	r3, [r3]
   14010:	e2830004 	add	r0, r3, #4
   14014:	e083e001 	add	lr, r3, r1
   14018:	e1a01003 	mov	r1, r3
   1401c:	e510c004 	ldr	ip, [r0, #-4]
   14020:	e2811008 	add	r1, r1, #8
   14024:	e2800008 	add	r0, r0, #8
   14028:	e08cc002 	add	ip, ip, r2
   1402c:	e500c00c 	str	ip, [r0, #-12]
   14030:	e511c004 	ldr	ip, [r1, #-4]
   14034:	e08cc002 	add	ip, ip, r2
   14038:	e501c004 	str	ip, [r1, #-4]
   1403c:	e151000e 	cmp	r1, lr
   14040:	1afffff5 	bne	1401c <read_alias_file+0x43c>
   14044:	eaffffd3 	b	13f98 <read_alias_file+0x3b8>
   14048:	e50ba1c4 	str	sl, [fp, #-452]	; 0xfffffe3c
   1404c:	eaffffa2 	b	13edc <read_alias_file+0x2fc>
   14050:	eb000c5a 	bl	171c0 <_IO_new_fclose>
   14054:	e3a03000 	mov	r3, #0
   14058:	e50b31c4 	str	r3, [fp, #-452]	; 0xfffffe3c
   1405c:	eaffff9e 	b	13edc <read_alias_file+0x2fc>
   14060:	eb005a60 	bl	2a9e8 <__stack_chk_fail>
   14064:	0008338c 	.word	0x0008338c

00014068 <_nl_expand_alias>:
   14068:	e92d4ff0 	push	{r4, r5, r6, r7, r8, r9, sl, fp, lr}
   1406c:	e3063f8c 	movw	r3, #28556	; 0x6f8c
   14070:	e24dd014 	sub	sp, sp, #20
   14074:	e3403009 	movt	r3, #9
   14078:	e3a01000 	mov	r1, #0
   1407c:	e1a09000 	mov	r9, r0
   14080:	e58d3004 	str	r3, [sp, #4]
   14084:	e3a02001 	mov	r2, #1
   14088:	e5933000 	ldr	r3, [r3]
   1408c:	e58d1008 	str	r1, [sp, #8]
   14090:	e59f1198 	ldr	r1, [pc, #408]	; 14230 <_nl_expand_alias+0x1c8>
   14094:	e58d300c 	str	r3, [sp, #12]
   14098:	e1913f9f 	ldrex	r3, [r1]
   1409c:	e3530000 	cmp	r3, #0
   140a0:	1a000003 	bne	140b4 <_nl_expand_alias+0x4c>
   140a4:	e1810f92 	strex	r0, r2, [r1]
   140a8:	e3500000 	cmp	r0, #0
   140ac:	1afffff9 	bne	14098 <_nl_expand_alias+0x30>
   140b0:	f57ff05b 	dmb	ish
   140b4:	0a000002 	beq	140c4 <_nl_expand_alias+0x5c>
   140b8:	e1a00001 	mov	r0, r1
   140bc:	e58d3008 	str	r3, [sp, #8]
   140c0:	eb0058cf 	bl	2a404 <__lll_lock_wait_private>
   140c4:	e308a178 	movw	sl, #33144	; 0x8178
   140c8:	e340a009 	movt	sl, #9
   140cc:	e300756c 	movw	r7, #1388	; 0x56c
   140d0:	e3407008 	movt	r7, #8
   140d4:	e59a3014 	ldr	r3, [sl, #20]
   140d8:	e3530000 	cmp	r3, #0
   140dc:	03013bfc 	movweq	r3, #7164	; 0x1bfc
   140e0:	03403007 	movteq	r3, #7
   140e4:	058a3014 	streq	r3, [sl, #20]
   140e8:	e3083b70 	movw	r3, #35696	; 0x8b70
   140ec:	e3403009 	movt	r3, #9
   140f0:	e58d3000 	str	r3, [sp]
   140f4:	e59ab000 	ldr	fp, [sl]
   140f8:	e35b0000 	cmp	fp, #0
   140fc:	0a000013 	beq	14150 <_nl_expand_alias+0xe8>
   14100:	e59d3000 	ldr	r3, [sp]
   14104:	e3a06000 	mov	r6, #0
   14108:	e5935000 	ldr	r5, [r3]
   1410c:	ea000003 	b	14120 <_nl_expand_alias+0xb8>
   14110:	0a00003d 	beq	1420c <_nl_expand_alias+0x1a4>
   14114:	e2846001 	add	r6, r4, #1
   14118:	e15b0006 	cmp	fp, r6
   1411c:	9a00000b 	bls	14150 <_nl_expand_alias+0xe8>
   14120:	e08b4006 	add	r4, fp, r6
   14124:	e1a02007 	mov	r2, r7
   14128:	e1a00009 	mov	r0, r9
   1412c:	e1a040a4 	lsr	r4, r4, #1
   14130:	e7951184 	ldr	r1, [r5, r4, lsl #3]
   14134:	e0858184 	add	r8, r5, r4, lsl #3
   14138:	eb004b43 	bl	26e4c <__strcasecmp_l>
   1413c:	e3500000 	cmp	r0, #0
   14140:	aafffff2 	bge	14110 <_nl_expand_alias+0xa8>
   14144:	e1a0b004 	mov	fp, r4
   14148:	e15b0006 	cmp	fp, r6
   1414c:	8afffff3 	bhi	14120 <_nl_expand_alias+0xb8>
   14150:	e59a2014 	ldr	r2, [sl, #20]
   14154:	e5d23000 	ldrb	r3, [r2]
   14158:	e3530000 	cmp	r3, #0
   1415c:	0a000012 	beq	141ac <_nl_expand_alias+0x144>
   14160:	e353003a 	cmp	r3, #58	; 0x3a
   14164:	e1a00002 	mov	r0, r2
   14168:	1a000004 	bne	14180 <_nl_expand_alias+0x118>
   1416c:	e5f03001 	ldrb	r3, [r0, #1]!
   14170:	e353003a 	cmp	r3, #58	; 0x3a
   14174:	0afffffc 	beq	1416c <_nl_expand_alias+0x104>
   14178:	e3530000 	cmp	r3, #0
   1417c:	0a000009 	beq	141a8 <_nl_expand_alias+0x140>
   14180:	e1a02000 	mov	r2, r0
   14184:	e5f23001 	ldrb	r3, [r2, #1]!
   14188:	e3530000 	cmp	r3, #0
   1418c:	1353003a 	cmpne	r3, #58	; 0x3a
   14190:	1afffffb 	bne	14184 <_nl_expand_alias+0x11c>
   14194:	e1500002 	cmp	r0, r2
   14198:	3a000015 	bcc	141f4 <_nl_expand_alias+0x18c>
   1419c:	e3530000 	cmp	r3, #0
   141a0:	e1a00002 	mov	r0, r2
   141a4:	1affffed 	bne	14160 <_nl_expand_alias+0xf8>
   141a8:	e58a0014 	str	r0, [sl, #20]
   141ac:	e3a0c000 	mov	ip, #0
   141b0:	e59f1078 	ldr	r1, [pc, #120]	; 14230 <_nl_expand_alias+0x1c8>
   141b4:	e3a03000 	mov	r3, #0
   141b8:	f57ff05b 	dmb	ish
   141bc:	e1912f9f 	ldrex	r2, [r1]
   141c0:	e1810f93 	strex	r0, r3, [r1]
   141c4:	e3500000 	cmp	r0, #0
   141c8:	1afffffb 	bne	141bc <_nl_expand_alias+0x154>
   141cc:	e3520001 	cmp	r2, #1
   141d0:	ca00000f 	bgt	14214 <_nl_expand_alias+0x1ac>
   141d4:	e59d3004 	ldr	r3, [sp, #4]
   141d8:	e1a0000c 	mov	r0, ip
   141dc:	e59d200c 	ldr	r2, [sp, #12]
   141e0:	e5933000 	ldr	r3, [r3]
   141e4:	e1520003 	cmp	r2, r3
   141e8:	1a00000f 	bne	1422c <_nl_expand_alias+0x1c4>
   141ec:	e28dd014 	add	sp, sp, #20
   141f0:	e8bd8ff0 	pop	{r4, r5, r6, r7, r8, r9, sl, fp, pc}
   141f4:	e0421000 	sub	r1, r2, r0
   141f8:	e58a2014 	str	r2, [sl, #20]
   141fc:	ebfffe77 	bl	13be0 <read_alias_file>
   14200:	e3500000 	cmp	r0, #0
   14204:	0affffd1 	beq	14150 <_nl_expand_alias+0xe8>
   14208:	eaffffb9 	b	140f4 <_nl_expand_alias+0x8c>
   1420c:	e598c004 	ldr	ip, [r8, #4]
   14210:	eaffffe6 	b	141b0 <_nl_expand_alias+0x148>
   14214:	e1a00001 	mov	r0, r1
   14218:	e3a02001 	mov	r2, #1
   1421c:	e3a01081 	mov	r1, #129	; 0x81
   14220:	e3a070f0 	mov	r7, #240	; 0xf0
   14224:	ef000000 	svc	0x00000000
   14228:	eaffffe9 	b	141d4 <_nl_expand_alias+0x16c>
   1422c:	eb0059ed 	bl	2a9e8 <__stack_chk_fail>
   14230:	00098188 	.word	0x00098188

00014234 <_nl_make_l10nflist>:
   14234:	e92d4ff0 	push	{r4, r5, r6, r7, r8, r9, sl, fp, lr}
   14238:	e24dd03c 	sub	sp, sp, #60	; 0x3c
   1423c:	e1a0b000 	mov	fp, r0
   14240:	e1a09003 	mov	r9, r3
   14244:	e59da060 	ldr	sl, [sp, #96]	; 0x60
   14248:	e2824002 	add	r4, r2, #2
   1424c:	e58d1024 	str	r1, [sp, #36]	; 0x24
   14250:	e58d2020 	str	r2, [sp, #32]
   14254:	e1a0000a 	mov	r0, sl
   14258:	fa0045f8 	blx	25a40 <strlen>
   1425c:	e2197004 	ands	r7, r9, #4
   14260:	01a06007 	moveq	r6, r7
   14264:	e1a05000 	mov	r5, r0
   14268:	0a000002 	beq	14278 <_nl_make_l10nflist+0x44>
   1426c:	e59d0064 	ldr	r0, [sp, #100]	; 0x64
   14270:	fa0045f2 	blx	25a40 <strlen>
   14274:	e2806001 	add	r6, r0, #1
   14278:	e2193002 	ands	r3, r9, #2
   1427c:	e0854004 	add	r4, r5, r4
   14280:	e58d3028 	str	r3, [sp, #40]	; 0x28
   14284:	0a0000f1 	beq	14650 <_nl_make_l10nflist+0x41c>
   14288:	e59d0068 	ldr	r0, [sp, #104]	; 0x68
   1428c:	fa0045eb 	blx	25a40 <strlen>
   14290:	e2805001 	add	r5, r0, #1
   14294:	e2193001 	ands	r3, r9, #1
   14298:	e0864004 	add	r4, r6, r4
   1429c:	e58d302c 	str	r3, [sp, #44]	; 0x2c
   142a0:	0a0000e8 	beq	14648 <_nl_make_l10nflist+0x414>
   142a4:	e59d006c 	ldr	r0, [sp, #108]	; 0x6c
   142a8:	fa0045e4 	blx	25a40 <strlen>
   142ac:	e2806001 	add	r6, r0, #1
   142b0:	e2193008 	ands	r3, r9, #8
   142b4:	e0855004 	add	r5, r5, r4
   142b8:	e58d3030 	str	r3, [sp, #48]	; 0x30
   142bc:	0a0000df 	beq	14640 <_nl_make_l10nflist+0x40c>
   142c0:	e59d0070 	ldr	r0, [sp, #112]	; 0x70
   142c4:	fa0045dd 	blx	25a40 <strlen>
   142c8:	e2804001 	add	r4, r0, #1
   142cc:	e59d0074 	ldr	r0, [sp, #116]	; 0x74
   142d0:	e0865005 	add	r5, r6, r5
   142d4:	fa0045d9 	blx	25a40 <strlen>
   142d8:	e1a03000 	mov	r3, r0
   142dc:	e58d0034 	str	r0, [sp, #52]	; 0x34
   142e0:	e0850004 	add	r0, r5, r4
   142e4:	e0800003 	add	r0, r0, r3
   142e8:	eb003c07 	bl	2330c <__libc_malloc>
   142ec:	e2506000 	subs	r6, r0, #0
   142f0:	0a000108 	beq	14718 <_nl_make_l10nflist+0x4e4>
   142f4:	e59d4020 	ldr	r4, [sp, #32]
   142f8:	e59d1024 	ldr	r1, [sp, #36]	; 0x24
   142fc:	e1a02004 	mov	r2, r4
   14300:	eb004ae2 	bl	26e90 <memcpy>
   14304:	e3540000 	cmp	r4, #0
   14308:	0a00000a 	beq	14338 <_nl_make_l10nflist+0x104>
   1430c:	e1a08004 	mov	r8, r4
   14310:	e1a05006 	mov	r5, r6
   14314:	e3a0403a 	mov	r4, #58	; 0x3a
   14318:	e1a00005 	mov	r0, r5
   1431c:	fa0045c7 	blx	25a40 <strlen>
   14320:	e1e03000 	mvn	r3, r0
   14324:	e0988003 	adds	r8, r8, r3
   14328:	e0855000 	add	r5, r5, r0
   1432c:	15c54000 	strbne	r4, [r5]
   14330:	12855001 	addne	r5, r5, #1
   14334:	1afffff7 	bne	14318 <_nl_make_l10nflist+0xe4>
   14338:	e59d3020 	ldr	r3, [sp, #32]
   1433c:	e1a0100a 	mov	r1, sl
   14340:	e0860003 	add	r0, r6, r3
   14344:	e3a0302f 	mov	r3, #47	; 0x2f
   14348:	e5403001 	strb	r3, [r0, #-1]
   1434c:	eb0044b3 	bl	25620 <__stpcpy>
   14350:	e3570000 	cmp	r7, #0
   14354:	1a0000bf 	bne	14658 <_nl_make_l10nflist+0x424>
   14358:	e59d3028 	ldr	r3, [sp, #40]	; 0x28
   1435c:	e3530000 	cmp	r3, #0
   14360:	1a0000c4 	bne	14678 <_nl_make_l10nflist+0x444>
   14364:	e59d302c 	ldr	r3, [sp, #44]	; 0x2c
   14368:	e3530000 	cmp	r3, #0
   1436c:	1a0000c9 	bne	14698 <_nl_make_l10nflist+0x464>
   14370:	e59d3030 	ldr	r3, [sp, #48]	; 0x30
   14374:	e3530000 	cmp	r3, #0
   14378:	1a0000ce 	bne	146b8 <_nl_make_l10nflist+0x484>
   1437c:	e59d3034 	ldr	r3, [sp, #52]	; 0x34
   14380:	e59d1074 	ldr	r1, [sp, #116]	; 0x74
   14384:	e2832001 	add	r2, r3, #1
   14388:	e3a0302f 	mov	r3, #47	; 0x2f
   1438c:	e4c03001 	strb	r3, [r0], #1
   14390:	eb004abe 	bl	26e90 <memcpy>
   14394:	e59b3000 	ldr	r3, [fp]
   14398:	e3530000 	cmp	r3, #0
   1439c:	e58d3028 	str	r3, [sp, #40]	; 0x28
   143a0:	0a0000de 	beq	14720 <_nl_make_l10nflist+0x4ec>
   143a4:	e1a08003 	mov	r8, r3
   143a8:	e3a05000 	mov	r5, #0
   143ac:	e5980000 	ldr	r0, [r8]
   143b0:	e1a01006 	mov	r1, r6
   143b4:	e3500000 	cmp	r0, #0
   143b8:	0a000004 	beq	143d0 <_nl_make_l10nflist+0x19c>
   143bc:	fa0043db 	blx	25330 <strcmp>
   143c0:	e3500000 	cmp	r0, #0
   143c4:	0a0000c2 	beq	146d4 <_nl_make_l10nflist+0x4a0>
   143c8:	ba000003 	blt	143dc <_nl_make_l10nflist+0x1a8>
   143cc:	e1a05008 	mov	r5, r8
   143d0:	e598800c 	ldr	r8, [r8, #12]
   143d4:	e3580000 	cmp	r8, #0
   143d8:	1afffff3 	bne	143ac <_nl_make_l10nflist+0x178>
   143dc:	e59d3078 	ldr	r3, [sp, #120]	; 0x78
   143e0:	e3530000 	cmp	r3, #0
   143e4:	0a0000b9 	beq	146d0 <_nl_make_l10nflist+0x49c>
   143e8:	e59d3020 	ldr	r3, [sp, #32]
   143ec:	e3530000 	cmp	r3, #0
   143f0:	0a0000be 	beq	146f0 <_nl_make_l10nflist+0x4bc>
   143f4:	e59d4020 	ldr	r4, [sp, #32]
   143f8:	e3a07000 	mov	r7, #0
   143fc:	e59d8024 	ldr	r8, [sp, #36]	; 0x24
   14400:	e1a00008 	mov	r0, r8
   14404:	e2877001 	add	r7, r7, #1
   14408:	fa00458c 	blx	25a40 <strlen>
   1440c:	e1e03000 	mvn	r3, r0
   14410:	e0944003 	adds	r4, r4, r3
   14414:	e2800001 	add	r0, r0, #1
   14418:	e0888000 	add	r8, r8, r0
   1441c:	1afffff7 	bne	14400 <_nl_make_l10nflist+0x1cc>
   14420:	e30d2555 	movw	r2, #54613	; 0xd555
   14424:	e34f2fff 	movt	r2, #65535	; 0xffff
   14428:	e00220c9 	and	r2, r2, r9, asr #1
   1442c:	e3050555 	movw	r0, #21845	; 0x5555
   14430:	e0000009 	and	r0, r0, r9
   14434:	e30f1333 	movw	r1, #62259	; 0xf333
   14438:	e0822000 	add	r2, r2, r0
   1443c:	e34f1fff 	movt	r1, #65535	; 0xffff
   14440:	e3030333 	movw	r0, #13107	; 0x3333
   14444:	e0000002 	and	r0, r0, r2
   14448:	e0012142 	and	r2, r1, r2, asr #2
   1444c:	e3001f0f 	movw	r1, #3855	; 0xf0f
   14450:	e0822000 	add	r2, r2, r0
   14454:	e0822242 	add	r2, r2, r2, asr #4
   14458:	e7e30452 	ubfx	r0, r2, #8, #4
   1445c:	e0022001 	and	r2, r2, r1
   14460:	e0802002 	add	r2, r0, r2
   14464:	e6ef0072 	uxtb	r0, r2
   14468:	e1a03017 	lsl	r3, r7, r0
   1446c:	e2830005 	add	r0, r3, #5
   14470:	e1a00100 	lsl	r0, r0, #2
   14474:	eb003ba4 	bl	2330c <__libc_malloc>
   14478:	e2508000 	subs	r8, r0, #0
   1447c:	0a0000a1 	beq	14708 <_nl_make_l10nflist+0x4d4>
   14480:	e5886000 	str	r6, [r8]
   14484:	e59d7020 	ldr	r7, [sp, #32]
   14488:	e59d6024 	ldr	r6, [sp, #36]	; 0x24
   1448c:	e1a00006 	mov	r0, r6
   14490:	e2844001 	add	r4, r4, #1
   14494:	fa004569 	blx	25a40 <strlen>
   14498:	e1e03000 	mvn	r3, r0
   1449c:	e0977003 	adds	r7, r7, r3
   144a0:	e2800001 	add	r0, r0, #1
   144a4:	e0866000 	add	r6, r6, r0
   144a8:	1afffff7 	bne	1448c <_nl_make_l10nflist+0x258>
   144ac:	e3540001 	cmp	r4, #1
   144b0:	02093003 	andeq	r3, r9, #3
   144b4:	02433003 	subeq	r3, r3, #3
   144b8:	13a03001 	movne	r3, #1
   144bc:	016f3f13 	clzeq	r3, r3
   144c0:	01a032a3 	lsreq	r3, r3, #5
   144c4:	e3550000 	cmp	r5, #0
   144c8:	e5883004 	str	r3, [r8, #4]
   144cc:	e3a03000 	mov	r3, #0
   144d0:	e5883008 	str	r3, [r8, #8]
   144d4:	1595300c 	ldrne	r3, [r5, #12]
   144d8:	059d3028 	ldreq	r3, [sp, #40]	; 0x28
   144dc:	058b8000 	streq	r8, [fp]
   144e0:	1588300c 	strne	r3, [r8, #12]
   144e4:	0588300c 	streq	r3, [r8, #12]
   144e8:	e59d3020 	ldr	r3, [sp, #32]
   144ec:	1585800c 	strne	r8, [r5, #12]
   144f0:	e3530000 	cmp	r3, #0
   144f4:	0a00000d 	beq	14530 <_nl_make_l10nflist+0x2fc>
   144f8:	e59d4024 	ldr	r4, [sp, #36]	; 0x24
   144fc:	e1a05003 	mov	r5, r3
   14500:	e3a06000 	mov	r6, #0
   14504:	e1a00004 	mov	r0, r4
   14508:	e2866001 	add	r6, r6, #1
   1450c:	fa00454b 	blx	25a40 <strlen>
   14510:	e1e03000 	mvn	r3, r0
   14514:	e0955003 	adds	r5, r5, r3
   14518:	e2800001 	add	r0, r0, #1
   1451c:	e0844000 	add	r4, r4, r0
   14520:	1afffff7 	bne	14504 <_nl_make_l10nflist+0x2d0>
   14524:	e3560001 	cmp	r6, #1
   14528:	02497001 	subeq	r7, r9, #1
   1452c:	0a000000 	beq	14534 <_nl_make_l10nflist+0x300>
   14530:	e1a07009 	mov	r7, r9
   14534:	e3570000 	cmp	r7, #0
   14538:	ba00006a 	blt	146e8 <_nl_make_l10nflist+0x4b4>
   1453c:	e1e03009 	mvn	r3, r9
   14540:	e3a06000 	mov	r6, #0
   14544:	e58d3028 	str	r3, [sp, #40]	; 0x28
   14548:	e58d802c 	str	r8, [sp, #44]	; 0x2c
   1454c:	e59d9074 	ldr	r9, [sp, #116]	; 0x74
   14550:	ea000001 	b	1455c <_nl_make_l10nflist+0x328>
   14554:	e2577001 	subs	r7, r7, #1
   14558:	3a000031 	bcc	14624 <_nl_make_l10nflist+0x3f0>
   1455c:	e59d3028 	ldr	r3, [sp, #40]	; 0x28
   14560:	e0134007 	ands	r4, r3, r7
   14564:	1afffffa 	bne	14554 <_nl_make_l10nflist+0x320>
   14568:	e59d3024 	ldr	r3, [sp, #36]	; 0x24
   1456c:	e2865004 	add	r5, r6, #4
   14570:	e59d2020 	ldr	r2, [sp, #32]
   14574:	e3a01000 	mov	r1, #0
   14578:	e1540001 	cmp	r4, r1
   1457c:	e1a00004 	mov	r0, r4
   14580:	e0838002 	add	r8, r3, r2
   14584:	e59d302c 	ldr	r3, [sp, #44]	; 0x2c
   14588:	e0835105 	add	r5, r3, r5, lsl #2
   1458c:	0a00001e 	beq	1460c <_nl_make_l10nflist+0x3d8>
   14590:	e1540008 	cmp	r4, r8
   14594:	2affffee 	bcs	14554 <_nl_make_l10nflist+0x320>
   14598:	eb004b08 	bl	271c0 <__rawmemchr>
   1459c:	e2804001 	add	r4, r0, #1
   145a0:	e3540000 	cmp	r4, #0
   145a4:	11540008 	cmpne	r4, r8
   145a8:	2affffe9 	bcs	14554 <_nl_make_l10nflist+0x320>
   145ac:	e1a00004 	mov	r0, r4
   145b0:	e2866001 	add	r6, r6, #1
   145b4:	fa004521 	blx	25a40 <strlen>
   145b8:	e59d3070 	ldr	r3, [sp, #112]	; 0x70
   145bc:	e59d1068 	ldr	r1, [sp, #104]	; 0x68
   145c0:	e3a02001 	mov	r2, #1
   145c4:	e59dc064 	ldr	ip, [sp, #100]	; 0x64
   145c8:	e58d3010 	str	r3, [sp, #16]
   145cc:	e59d306c 	ldr	r3, [sp, #108]	; 0x6c
   145d0:	e58d1008 	str	r1, [sp, #8]
   145d4:	e1a01004 	mov	r1, r4
   145d8:	e58d2018 	str	r2, [sp, #24]
   145dc:	e58d300c 	str	r3, [sp, #12]
   145e0:	e1a03007 	mov	r3, r7
   145e4:	e58d9014 	str	r9, [sp, #20]
   145e8:	e88d1400 	stm	sp, {sl, ip}
   145ec:	e0802002 	add	r2, r0, r2
   145f0:	e1a0000b 	mov	r0, fp
   145f4:	ebffff0e 	bl	14234 <_nl_make_l10nflist>
   145f8:	e3a01000 	mov	r1, #0
   145fc:	e1540001 	cmp	r4, r1
   14600:	e4850004 	str	r0, [r5], #4
   14604:	e1a00004 	mov	r0, r4
   14608:	1affffe0 	bne	14590 <_nl_make_l10nflist+0x35c>
   1460c:	e59d3020 	ldr	r3, [sp, #32]
   14610:	e59d4024 	ldr	r4, [sp, #36]	; 0x24
   14614:	e3530000 	cmp	r3, #0
   14618:	1affffe3 	bne	145ac <_nl_make_l10nflist+0x378>
   1461c:	e2577001 	subs	r7, r7, #1
   14620:	2affffcd 	bcs	1455c <_nl_make_l10nflist+0x328>
   14624:	e59d802c 	ldr	r8, [sp, #44]	; 0x2c
   14628:	e2866004 	add	r6, r6, #4
   1462c:	e3a03000 	mov	r3, #0
   14630:	e7883106 	str	r3, [r8, r6, lsl #2]
   14634:	e1a00008 	mov	r0, r8
   14638:	e28dd03c 	add	sp, sp, #60	; 0x3c
   1463c:	e8bd8ff0 	pop	{r4, r5, r6, r7, r8, r9, sl, fp, pc}
   14640:	e2194008 	ands	r4, r9, #8
   14644:	eaffff20 	b	142cc <_nl_make_l10nflist+0x98>
   14648:	e2196001 	ands	r6, r9, #1
   1464c:	eaffff17 	b	142b0 <_nl_make_l10nflist+0x7c>
   14650:	e2195002 	ands	r5, r9, #2
   14654:	eaffff0e 	b	14294 <_nl_make_l10nflist+0x60>
   14658:	e3a0305f 	mov	r3, #95	; 0x5f
   1465c:	e2800001 	add	r0, r0, #1
   14660:	e5403001 	strb	r3, [r0, #-1]
   14664:	e59d1064 	ldr	r1, [sp, #100]	; 0x64
   14668:	eb0043ec 	bl	25620 <__stpcpy>
   1466c:	e59d3028 	ldr	r3, [sp, #40]	; 0x28
   14670:	e3530000 	cmp	r3, #0
   14674:	0affff3a 	beq	14364 <_nl_make_l10nflist+0x130>
   14678:	e3a0302e 	mov	r3, #46	; 0x2e
   1467c:	e2800001 	add	r0, r0, #1
   14680:	e5403001 	strb	r3, [r0, #-1]
   14684:	e59d1068 	ldr	r1, [sp, #104]	; 0x68
   14688:	eb0043e4 	bl	25620 <__stpcpy>
   1468c:	e59d302c 	ldr	r3, [sp, #44]	; 0x2c
   14690:	e3530000 	cmp	r3, #0
   14694:	0affff35 	beq	14370 <_nl_make_l10nflist+0x13c>
   14698:	e3a0302e 	mov	r3, #46	; 0x2e
   1469c:	e2800001 	add	r0, r0, #1
   146a0:	e5403001 	strb	r3, [r0, #-1]
   146a4:	e59d106c 	ldr	r1, [sp, #108]	; 0x6c
   146a8:	eb0043dc 	bl	25620 <__stpcpy>
   146ac:	e59d3030 	ldr	r3, [sp, #48]	; 0x30
   146b0:	e3530000 	cmp	r3, #0
   146b4:	0affff30 	beq	1437c <_nl_make_l10nflist+0x148>
   146b8:	e3a03040 	mov	r3, #64	; 0x40
   146bc:	e59d1070 	ldr	r1, [sp, #112]	; 0x70
   146c0:	e5c03000 	strb	r3, [r0]
   146c4:	e2800001 	add	r0, r0, #1
   146c8:	eb0043d4 	bl	25620 <__stpcpy>
   146cc:	eaffff2a 	b	1437c <_nl_make_l10nflist+0x148>
   146d0:	e59d8078 	ldr	r8, [sp, #120]	; 0x78
   146d4:	e1a00006 	mov	r0, r6
   146d8:	eb003c23 	bl	2376c <__cfree>
   146dc:	e1a00008 	mov	r0, r8
   146e0:	e28dd03c 	add	sp, sp, #60	; 0x3c
   146e4:	e8bd8ff0 	pop	{r4, r5, r6, r7, r8, r9, sl, fp, pc}
   146e8:	e3a06000 	mov	r6, #0
   146ec:	eaffffcd 	b	14628 <_nl_make_l10nflist+0x3f4>
   146f0:	e3a00014 	mov	r0, #20
   146f4:	eb003b04 	bl	2330c <__libc_malloc>
   146f8:	e2508000 	subs	r8, r0, #0
   146fc:	15886000 	strne	r6, [r8]
   14700:	13a03001 	movne	r3, #1
   14704:	1affff6e 	bne	144c4 <_nl_make_l10nflist+0x290>
   14708:	e1a00006 	mov	r0, r6
   1470c:	e3a08000 	mov	r8, #0
   14710:	eb003c15 	bl	2376c <__cfree>
   14714:	eaffffc6 	b	14634 <_nl_make_l10nflist+0x400>
   14718:	e1a08006 	mov	r8, r6
   1471c:	eaffffc4 	b	14634 <_nl_make_l10nflist+0x400>
   14720:	e59d5028 	ldr	r5, [sp, #40]	; 0x28
   14724:	eaffff2c 	b	143dc <_nl_make_l10nflist+0x1a8>

00014728 <_nl_normalize_codeset>:
   14728:	e92d41f0 	push	{r4, r5, r6, r7, r8, lr}
   1472c:	e2518000 	subs	r8, r1, #0
   14730:	e1a04000 	mov	r4, r0
   14734:	0a00003f 	beq	14838 <_nl_normalize_codeset+0x110>
   14738:	e300756c 	movw	r7, #1388	; 0x56c
   1473c:	e3407008 	movt	r7, #8
   14740:	e0805008 	add	r5, r0, r8
   14744:	e1a02000 	mov	r2, r0
   14748:	e5971034 	ldr	r1, [r7, #52]	; 0x34
   1474c:	e3a06001 	mov	r6, #1
   14750:	e3a00000 	mov	r0, #0
   14754:	e4d23001 	ldrb	r3, [r2], #1
   14758:	e243c030 	sub	ip, r3, #48	; 0x30
   1475c:	e1a03083 	lsl	r3, r3, #1
   14760:	e19130b3 	ldrh	r3, [r1, r3]
   14764:	e3130008 	tst	r3, #8
   14768:	0a000002 	beq	14778 <_nl_normalize_codeset+0x50>
   1476c:	e35c000a 	cmp	ip, #10
   14770:	e2800001 	add	r0, r0, #1
   14774:	23a06000 	movcs	r6, #0
   14778:	e1550002 	cmp	r5, r2
   1477c:	1afffff4 	bne	14754 <_nl_normalize_codeset+0x2c>
   14780:	e3560000 	cmp	r6, #0
   14784:	1a00001c 	bne	147fc <_nl_normalize_codeset+0xd4>
   14788:	e2800001 	add	r0, r0, #1
   1478c:	eb003ade 	bl	2330c <__libc_malloc>
   14790:	e250c000 	subs	ip, r0, #0
   14794:	11a0000c 	movne	r0, ip
   14798:	0a00002b 	beq	1484c <_nl_normalize_codeset+0x124>
   1479c:	e5978034 	ldr	r8, [r7, #52]	; 0x34
   147a0:	e1a02004 	mov	r2, r4
   147a4:	e5976038 	ldr	r6, [r7, #56]	; 0x38
   147a8:	ea000004 	b	147c0 <_nl_normalize_codeset+0x98>
   147ac:	e7963101 	ldr	r3, [r6, r1, lsl #2]
   147b0:	e1550002 	cmp	r5, r2
   147b4:	e28cc001 	add	ip, ip, #1
   147b8:	e54c3001 	strb	r3, [ip, #-1]
   147bc:	0a00000b 	beq	147f0 <_nl_normalize_codeset+0xc8>
   147c0:	e4d23001 	ldrb	r3, [r2], #1
   147c4:	e2434030 	sub	r4, r3, #48	; 0x30
   147c8:	e6bf1073 	sxth	r1, r3
   147cc:	e1a0e081 	lsl	lr, r1, #1
   147d0:	e198e0be 	ldrh	lr, [r8, lr]
   147d4:	e31e0b01 	tst	lr, #1024	; 0x400
   147d8:	1afffff3 	bne	147ac <_nl_normalize_codeset+0x84>
   147dc:	e3540009 	cmp	r4, #9
   147e0:	95cc3000 	strbls	r3, [ip]
   147e4:	928cc001 	addls	ip, ip, #1
   147e8:	e1550002 	cmp	r5, r2
   147ec:	1afffff3 	bne	147c0 <_nl_normalize_codeset+0x98>
   147f0:	e3a03000 	mov	r3, #0
   147f4:	e5cc3000 	strb	r3, [ip]
   147f8:	e8bd81f0 	pop	{r4, r5, r6, r7, r8, pc}
   147fc:	e2800004 	add	r0, r0, #4
   14800:	eb003ac1 	bl	2330c <__libc_malloc>
   14804:	e3500000 	cmp	r0, #0
   14808:	0a000009 	beq	14834 <_nl_normalize_codeset+0x10c>
   1480c:	e3580000 	cmp	r8, #0
   14810:	e1a0c000 	mov	ip, r0
   14814:	e3073369 	movw	r3, #29545	; 0x7369
   14818:	e340306f 	movt	r3, #111	; 0x6f
   1481c:	e48c3003 	str	r3, [ip], #3
   14820:	0afffff2 	beq	147f0 <_nl_normalize_codeset+0xc8>
   14824:	e300756c 	movw	r7, #1388	; 0x56c
   14828:	e0845008 	add	r5, r4, r8
   1482c:	e3407008 	movt	r7, #8
   14830:	eaffffd9 	b	1479c <_nl_normalize_codeset+0x74>
   14834:	e8bd81f0 	pop	{r4, r5, r6, r7, r8, pc}
   14838:	e3a00004 	mov	r0, #4
   1483c:	eb003ab2 	bl	2330c <__libc_malloc>
   14840:	e3500000 	cmp	r0, #0
   14844:	1afffff0 	bne	1480c <_nl_normalize_codeset+0xe4>
   14848:	e8bd81f0 	pop	{r4, r5, r6, r7, r8, pc}
   1484c:	e1a00006 	mov	r0, r6
   14850:	e8bd81f0 	pop	{r4, r5, r6, r7, r8, pc}

00014854 <_nl_explode_name>:
   14854:	e92d4ff8 	push	{r3, r4, r5, r6, r7, r8, r9, sl, fp, lr}
   14858:	e1a09003 	mov	r9, r3
   1485c:	e59d6028 	ldr	r6, [sp, #40]	; 0x28
   14860:	e3a03000 	mov	r3, #0
   14864:	e1a08002 	mov	r8, r2
   14868:	e5823000 	str	r3, [r2]
   1486c:	e59d202c 	ldr	r2, [sp, #44]	; 0x2c
   14870:	e5893000 	str	r3, [r9]
   14874:	e5863000 	str	r3, [r6]
   14878:	e5823000 	str	r3, [r2]
   1487c:	e5810000 	str	r0, [r1]
   14880:	e5d03000 	ldrb	r3, [r0]
   14884:	e20320bf 	and	r2, r3, #191	; 0xbf
   14888:	e353005f 	cmp	r3, #95	; 0x5f
   1488c:	13520000 	cmpne	r2, #0
   14890:	0a000066 	beq	14a30 <_nl_explode_name+0x1dc>
   14894:	e353002e 	cmp	r3, #46	; 0x2e
   14898:	0a000064 	beq	14a30 <_nl_explode_name+0x1dc>
   1489c:	e1a0c000 	mov	ip, r0
   148a0:	ea000005 	b	148bc <_nl_explode_name+0x68>
   148a4:	e3510040 	cmp	r1, #64	; 0x40
   148a8:	1351002e 	cmpne	r1, #46	; 0x2e
   148ac:	e1a0c00e 	mov	ip, lr
   148b0:	13a05001 	movne	r5, #1
   148b4:	03a05000 	moveq	r5, #0
   148b8:	0a00003f 	beq	149bc <_nl_explode_name+0x168>
   148bc:	e5dc1001 	ldrb	r1, [ip, #1]
   148c0:	e28ce001 	add	lr, ip, #1
   148c4:	e3510000 	cmp	r1, #0
   148c8:	1351005f 	cmpne	r1, #95	; 0x5f
   148cc:	13a05001 	movne	r5, #1
   148d0:	03a05000 	moveq	r5, #0
   148d4:	1afffff2 	bne	148a4 <_nl_explode_name+0x50>
   148d8:	e150000e 	cmp	r0, lr
   148dc:	0a000053 	beq	14a30 <_nl_explode_name+0x1dc>
   148e0:	e351005f 	cmp	r1, #95	; 0x5f
   148e4:	11a0400e 	movne	r4, lr
   148e8:	1a000036 	bne	149c8 <_nl_explode_name+0x174>
   148ec:	e5ce5000 	strb	r5, [lr]
   148f0:	e28c4002 	add	r4, ip, #2
   148f4:	e5894000 	str	r4, [r9]
   148f8:	e5de1001 	ldrb	r1, [lr, #1]
   148fc:	e20130bf 	and	r3, r1, #191	; 0xbf
   14900:	e351002e 	cmp	r1, #46	; 0x2e
   14904:	13530000 	cmpne	r3, #0
   14908:	0a000004 	beq	14920 <_nl_explode_name+0xcc>
   1490c:	e5f41001 	ldrb	r1, [r4, #1]!
   14910:	e20130bf 	and	r3, r1, #191	; 0xbf
   14914:	e351002e 	cmp	r1, #46	; 0x2e
   14918:	13530000 	cmpne	r3, #0
   1491c:	1afffffa 	bne	1490c <_nl_explode_name+0xb8>
   14920:	e351002e 	cmp	r1, #46	; 0x2e
   14924:	e3a05004 	mov	r5, #4
   14928:	1a000028 	bne	149d0 <_nl_explode_name+0x17c>
   1492c:	e1a00004 	mov	r0, r4
   14930:	e3a03000 	mov	r3, #0
   14934:	e4c03001 	strb	r3, [r0], #1
   14938:	e5860000 	str	r0, [r6]
   1493c:	e5d41001 	ldrb	r1, [r4, #1]
   14940:	e31100bf 	tst	r1, #191	; 0xbf
   14944:	0a00003f 	beq	14a48 <_nl_explode_name+0x1f4>
   14948:	e1a0a000 	mov	sl, r0
   1494c:	ea000000 	b	14954 <_nl_explode_name+0x100>
   14950:	e1a0a004 	mov	sl, r4
   14954:	e5da3001 	ldrb	r3, [sl, #1]
   14958:	e28a4001 	add	r4, sl, #1
   1495c:	e31300bf 	tst	r3, #191	; 0xbf
   14960:	1afffffa 	bne	14950 <_nl_explode_name+0xfc>
   14964:	e1500004 	cmp	r0, r4
   14968:	e385b002 	orr	fp, r5, #2
   1496c:	0a000038 	beq	14a54 <_nl_explode_name+0x200>
   14970:	e0441000 	sub	r1, r4, r0
   14974:	ebffff6b 	bl	14728 <_nl_normalize_codeset>
   14978:	e59d302c 	ldr	r3, [sp, #44]	; 0x2c
   1497c:	e3500000 	cmp	r0, #0
   14980:	e1a07000 	mov	r7, r0
   14984:	e5830000 	str	r0, [r3]
   14988:	0a000033 	beq	14a5c <_nl_explode_name+0x208>
   1498c:	e1a01000 	mov	r1, r0
   14990:	e5960000 	ldr	r0, [r6]
   14994:	fa004265 	blx	25330 <strcmp>
   14998:	e3500000 	cmp	r0, #0
   1499c:	13855003 	orrne	r5, r5, #3
   149a0:	15da1001 	ldrbne	r1, [sl, #1]
   149a4:	1a000009 	bne	149d0 <_nl_explode_name+0x17c>
   149a8:	e1a00007 	mov	r0, r7
   149ac:	e1a0500b 	mov	r5, fp
   149b0:	eb003b6d 	bl	2376c <__cfree>
   149b4:	e5da1001 	ldrb	r1, [sl, #1]
   149b8:	ea000004 	b	149d0 <_nl_explode_name+0x17c>
   149bc:	e150000e 	cmp	r0, lr
   149c0:	0a00001a 	beq	14a30 <_nl_explode_name+0x1dc>
   149c4:	e1a0400e 	mov	r4, lr
   149c8:	e351002e 	cmp	r1, #46	; 0x2e
   149cc:	0affffd6 	beq	1492c <_nl_explode_name+0xd8>
   149d0:	e3510040 	cmp	r1, #64	; 0x40
   149d4:	0a00000d 	beq	14a10 <_nl_explode_name+0x1bc>
   149d8:	e5993000 	ldr	r3, [r9]
   149dc:	e3530000 	cmp	r3, #0
   149e0:	0a000002 	beq	149f0 <_nl_explode_name+0x19c>
   149e4:	e5d33000 	ldrb	r3, [r3]
   149e8:	e3530000 	cmp	r3, #0
   149ec:	03c55004 	biceq	r5, r5, #4
   149f0:	e5963000 	ldr	r3, [r6]
   149f4:	e3530000 	cmp	r3, #0
   149f8:	0a000002 	beq	14a08 <_nl_explode_name+0x1b4>
   149fc:	e5d33000 	ldrb	r3, [r3]
   14a00:	e3530000 	cmp	r3, #0
   14a04:	03c55002 	biceq	r5, r5, #2
   14a08:	e1a00005 	mov	r0, r5
   14a0c:	e8bd8ff8 	pop	{r3, r4, r5, r6, r7, r8, r9, sl, fp, pc}
   14a10:	e1a03004 	mov	r3, r4
   14a14:	e3a02000 	mov	r2, #0
   14a18:	e4c32001 	strb	r2, [r3], #1
   14a1c:	e5883000 	str	r3, [r8]
   14a20:	e5d43001 	ldrb	r3, [r4, #1]
   14a24:	e1530002 	cmp	r3, r2
   14a28:	13855008 	orrne	r5, r5, #8
   14a2c:	eaffffe9 	b	149d8 <_nl_explode_name+0x184>
   14a30:	e3a01000 	mov	r1, #0
   14a34:	e3a05000 	mov	r5, #0
   14a38:	eb0049e0 	bl	271c0 <__rawmemchr>
   14a3c:	e1a04000 	mov	r4, r0
   14a40:	e5d01000 	ldrb	r1, [r0]
   14a44:	eaffffe1 	b	149d0 <_nl_explode_name+0x17c>
   14a48:	e3855002 	orr	r5, r5, #2
   14a4c:	e1a04000 	mov	r4, r0
   14a50:	eaffffde 	b	149d0 <_nl_explode_name+0x17c>
   14a54:	e1a0500b 	mov	r5, fp
   14a58:	eaffffdc 	b	149d0 <_nl_explode_name+0x17c>
   14a5c:	e3e05000 	mvn	r5, #0
   14a60:	eaffffe8 	b	14a08 <_nl_explode_name+0x1b4>

00014a64 <__gettext_free_exp>:
   14a64:	e92d4010 	push	{r4, lr}
   14a68:	e2504000 	subs	r4, r0, #0
   14a6c:	08bd8010 	popeq	{r4, pc}
   14a70:	e5943000 	ldr	r3, [r4]
   14a74:	e3530002 	cmp	r3, #2
   14a78:	0a000008 	beq	14aa0 <__gettext_free_exp+0x3c>
   14a7c:	e3530003 	cmp	r3, #3
   14a80:	0a000004 	beq	14a98 <__gettext_free_exp+0x34>
   14a84:	e3530001 	cmp	r3, #1
   14a88:	0a000006 	beq	14aa8 <__gettext_free_exp+0x44>
   14a8c:	e1a00004 	mov	r0, r4
   14a90:	e8bd4010 	pop	{r4, lr}
   14a94:	ea003b34 	b	2376c <__cfree>
   14a98:	e5940010 	ldr	r0, [r4, #16]
   14a9c:	ebfffff0 	bl	14a64 <__gettext_free_exp>
   14aa0:	e594000c 	ldr	r0, [r4, #12]
   14aa4:	ebffffee 	bl	14a64 <__gettext_free_exp>
   14aa8:	e5940008 	ldr	r0, [r4, #8]
   14aac:	ebffffec 	bl	14a64 <__gettext_free_exp>
   14ab0:	e1a00004 	mov	r0, r4
   14ab4:	e8bd4010 	pop	{r4, lr}
   14ab8:	ea003b2b 	b	2376c <__cfree>

00014abc <new_exp>:
   14abc:	e92d47f0 	push	{r4, r5, r6, r7, r8, r9, sl, lr}
   14ac0:	e2504001 	subs	r4, r0, #1
   14ac4:	e1a08000 	mov	r8, r0
   14ac8:	e1a09001 	mov	r9, r1
   14acc:	4a000022 	bmi	14b5c <new_exp+0xa0>
   14ad0:	e7926104 	ldr	r6, [r2, r4, lsl #2]
   14ad4:	e1a07104 	lsl	r7, r4, #2
   14ad8:	e0825007 	add	r5, r2, r7
   14adc:	e1a0a002 	mov	sl, r2
   14ae0:	e3560000 	cmp	r6, #0
   14ae4:	11a03004 	movne	r3, r4
   14ae8:	11a00005 	movne	r0, r5
   14aec:	1a000003 	bne	14b00 <new_exp+0x44>
   14af0:	ea000012 	b	14b40 <new_exp+0x84>
   14af4:	e530c004 	ldr	ip, [r0, #-4]!
   14af8:	e35c0000 	cmp	ip, #0
   14afc:	0a00000f 	beq	14b40 <new_exp+0x84>
   14b00:	e2533001 	subs	r3, r3, #1
   14b04:	2afffffa 	bcs	14af4 <new_exp+0x38>
   14b08:	e3a00014 	mov	r0, #20
   14b0c:	eb0039fe 	bl	2330c <__libc_malloc>
   14b10:	e3500000 	cmp	r0, #0
   14b14:	0a000009 	beq	14b40 <new_exp+0x84>
   14b18:	e2873008 	add	r3, r7, #8
   14b1c:	e5808000 	str	r8, [r0]
   14b20:	e0803003 	add	r3, r0, r3
   14b24:	e5809004 	str	r9, [r0, #4]
   14b28:	e155000a 	cmp	r5, sl
   14b2c:	e4036004 	str	r6, [r3], #-4
   14b30:	08bd87f0 	popeq	{r4, r5, r6, r7, r8, r9, sl, pc}
   14b34:	e5356004 	ldr	r6, [r5, #-4]!
   14b38:	eafffffa 	b	14b28 <new_exp+0x6c>
   14b3c:	e5356004 	ldr	r6, [r5, #-4]!
   14b40:	e1a00006 	mov	r0, r6
   14b44:	e2444001 	sub	r4, r4, #1
   14b48:	ebffffc5 	bl	14a64 <__gettext_free_exp>
   14b4c:	e3740001 	cmn	r4, #1
   14b50:	1afffff9 	bne	14b3c <new_exp+0x80>
   14b54:	e3a00000 	mov	r0, #0
   14b58:	e8bd87f0 	pop	{r4, r5, r6, r7, r8, r9, sl, pc}
   14b5c:	e3a00014 	mov	r0, #20
   14b60:	eb0039e9 	bl	2330c <__libc_malloc>
   14b64:	e3500000 	cmp	r0, #0
   14b68:	0afffff9 	beq	14b54 <new_exp+0x98>
   14b6c:	e8800300 	stm	r0, {r8, r9}
   14b70:	e8bd87f0 	pop	{r4, r5, r6, r7, r8, r9, sl, pc}

00014b74 <__gettextparse>:
   14b74:	e3063f8c 	movw	r3, #28556	; 0x6f8c
   14b78:	e3403009 	movt	r3, #9
   14b7c:	e92d4ff0 	push	{r4, r5, r6, r7, r8, r9, sl, fp, lr}
   14b80:	e24dde4e 	sub	sp, sp, #1248	; 0x4e0
   14b84:	e24dd004 	sub	sp, sp, #4
   14b88:	e1a02003 	mov	r2, r3
   14b8c:	e28db02c 	add	fp, sp, #44	; 0x2c
   14b90:	e5922000 	ldr	r2, [r2]
   14b94:	e58d3018 	str	r3, [sp, #24]
   14b98:	e3017c58 	movw	r7, #7256	; 0x1c58
   14b9c:	e3a03000 	mov	r3, #0
   14ba0:	e3407007 	movt	r7, #7
   14ba4:	e1a05003 	mov	r5, r3
   14ba8:	e1a0400b 	mov	r4, fp
   14bac:	e1a0800b 	mov	r8, fp
   14bb0:	e3e0a001 	mvn	sl, #1
   14bb4:	e3a090c8 	mov	r9, #200	; 0xc8
   14bb8:	e28d6f6f 	add	r6, sp, #444	; 0x1bc
   14bbc:	e58d000c 	str	r0, [sp, #12]
   14bc0:	e1cd32bc 	strh	r3, [sp, #44]	; 0x2c
   14bc4:	e58d24dc 	str	r2, [sp, #1244]	; 0x4dc
   14bc8:	e58d3010 	str	r3, [sp, #16]
   14bcc:	e58d6004 	str	r6, [sp, #4]
   14bd0:	e58db008 	str	fp, [sp, #8]
   14bd4:	e19730d5 	ldrsb	r3, [r7, r5]
   14bd8:	e373000a 	cmn	r3, #10
   14bdc:	0a00000d 	beq	14c18 <__gettextparse+0xa4>
   14be0:	e37a0002 	cmn	sl, #2
   14be4:	0a0000ba 	beq	14ed4 <__gettextparse+0x360>
   14be8:	e35a0000 	cmp	sl, #0
   14bec:	c087200a 	addgt	r2, r7, sl
   14bf0:	c5d2201c 	ldrbgt	r2, [r2, #28]
   14bf4:	da0000a6 	ble	14e94 <__gettextparse+0x320>
   14bf8:	e0823003 	add	r3, r2, r3
   14bfc:	e3530036 	cmp	r3, #54	; 0x36
   14c00:	8a000004 	bhi	14c18 <__gettextparse+0xa4>
   14c04:	e0873003 	add	r3, r7, r3
   14c08:	e2831f49 	add	r1, r3, #292	; 0x124
   14c0c:	e1d110d0 	ldrsb	r1, [r1]
   14c10:	e1520001 	cmp	r2, r1
   14c14:	0a0000a1 	beq	14ea0 <__gettextparse+0x32c>
   14c18:	e0873005 	add	r3, r7, r5
   14c1c:	e5d33194 	ldrb	r3, [r3, #404]	; 0x194
   14c20:	e3530000 	cmp	r3, #0
   14c24:	0a000013 	beq	14c78 <__gettextparse+0x104>
   14c28:	e0872003 	add	r2, r7, r3
   14c2c:	e2431002 	sub	r1, r3, #2
   14c30:	e5d221b0 	ldrb	r2, [r2, #432]	; 0x1b0
   14c34:	e2620001 	rsb	r0, r2, #1
   14c38:	e7960100 	ldr	r0, [r6, r0, lsl #2]
   14c3c:	e351000b 	cmp	r1, #11
   14c40:	979ff101 	ldrls	pc, [pc, r1, lsl #2]
   14c44:	ea000207 	b	15468 <__gettextparse+0x8f4>
   14c48:	000151bc 	.word	0x000151bc
   14c4c:	000151e4 	.word	0x000151e4
   14c50:	00015220 	.word	0x00015220
   14c54:	00015238 	.word	0x00015238
   14c58:	00014d34 	.word	0x00014d34
   14c5c:	00014d34 	.word	0x00014d34
   14c60:	00014d34 	.word	0x00014d34
   14c64:	00014d34 	.word	0x00014d34
   14c68:	00015120 	.word	0x00015120
   14c6c:	00015164 	.word	0x00015164
   14c70:	00015188 	.word	0x00015188
   14c74:	0001514c 	.word	0x0001514c
   14c78:	e59d3010 	ldr	r3, [sp, #16]
   14c7c:	e3530003 	cmp	r3, #3
   14c80:	1a000004 	bne	14c98 <__gettextparse+0x124>
   14c84:	ea000017 	b	14ce8 <__gettextparse+0x174>
   14c88:	e1540008 	cmp	r4, r8
   14c8c:	0a000019 	beq	14cf8 <__gettextparse+0x184>
   14c90:	e17450f2 	ldrsh	r5, [r4, #-2]!
   14c94:	e2466004 	sub	r6, r6, #4
   14c98:	e19730d5 	ldrsb	r3, [r7, r5]
   14c9c:	e373000a 	cmn	r3, #10
   14ca0:	0afffff8 	beq	14c88 <__gettextparse+0x114>
   14ca4:	e2833001 	add	r3, r3, #1
   14ca8:	e3530036 	cmp	r3, #54	; 0x36
   14cac:	8afffff5 	bhi	14c88 <__gettextparse+0x114>
   14cb0:	e0873003 	add	r3, r7, r3
   14cb4:	e5d32124 	ldrb	r2, [r3, #292]	; 0x124
   14cb8:	e3520001 	cmp	r2, #1
   14cbc:	1afffff1 	bne	14c88 <__gettextparse+0x114>
   14cc0:	e5d3515c 	ldrb	r5, [r3, #348]	; 0x15c
   14cc4:	e3550000 	cmp	r5, #0
   14cc8:	0affffee 	beq	14c88 <__gettextparse+0x114>
   14ccc:	e59d301c 	ldr	r3, [sp, #28]
   14cd0:	e3a02003 	mov	r2, #3
   14cd4:	e2866004 	add	r6, r6, #4
   14cd8:	e58d2010 	str	r2, [sp, #16]
   14cdc:	e5863000 	str	r3, [r6]
   14ce0:	e1a03004 	mov	r3, r4
   14ce4:	ea00002f 	b	14da8 <__gettextparse+0x234>
   14ce8:	e35a0000 	cmp	sl, #0
   14cec:	c3e0a001 	mvngt	sl, #1
   14cf0:	caffffe8 	bgt	14c98 <__gettextparse+0x124>
   14cf4:	1affffe7 	bne	14c98 <__gettextparse+0x124>
   14cf8:	e59db008 	ldr	fp, [sp, #8]
   14cfc:	e3a04001 	mov	r4, #1
   14d00:	e158000b 	cmp	r8, fp
   14d04:	0a000001 	beq	14d10 <__gettextparse+0x19c>
   14d08:	e1a00008 	mov	r0, r8
   14d0c:	eb003a96 	bl	2376c <__cfree>
   14d10:	e59d3018 	ldr	r3, [sp, #24]
   14d14:	e1a00004 	mov	r0, r4
   14d18:	e59d24dc 	ldr	r2, [sp, #1244]	; 0x4dc
   14d1c:	e5933000 	ldr	r3, [r3]
   14d20:	e1520003 	cmp	r2, r3
   14d24:	1a0001e0 	bne	154ac <__gettextparse+0x938>
   14d28:	e28dde4e 	add	sp, sp, #1248	; 0x4e0
   14d2c:	e28dd004 	add	sp, sp, #4
   14d30:	e8bd8ff0 	pop	{r4, r5, r6, r7, r8, r9, sl, fp, pc}
   14d34:	e5161004 	ldr	r1, [r6, #-4]
   14d38:	e28d2020 	add	r2, sp, #32
   14d3c:	e596c000 	ldr	ip, [r6]
   14d40:	e3a00002 	mov	r0, #2
   14d44:	e5163008 	ldr	r3, [r6, #-8]
   14d48:	e58d3020 	str	r3, [sp, #32]
   14d4c:	e3e05000 	mvn	r5, #0
   14d50:	e58dc024 	str	ip, [sp, #36]	; 0x24
   14d54:	ebffff58 	bl	14abc <new_exp>
   14d58:	e3a02002 	mov	r2, #2
   14d5c:	e3e03005 	mvn	r3, #5
   14d60:	e3e0100b 	mvn	r1, #11
   14d64:	e194c0f3 	ldrsh	ip, [r4, r3]
   14d68:	e0861001 	add	r1, r6, r1
   14d6c:	e0843003 	add	r3, r4, r3
   14d70:	e2816004 	add	r6, r1, #4
   14d74:	e08c5005 	add	r5, ip, r5
   14d78:	e5810004 	str	r0, [r1, #4]
   14d7c:	e3550036 	cmp	r5, #54	; 0x36
   14d80:	8a000005 	bhi	14d9c <__gettextparse+0x228>
   14d84:	e0875005 	add	r5, r7, r5
   14d88:	e2851f49 	add	r1, r5, #292	; 0x124
   14d8c:	e1d110d0 	ldrsb	r1, [r1]
   14d90:	e151000c 	cmp	r1, ip
   14d94:	05d5515c 	ldrbeq	r5, [r5, #348]	; 0x15c
   14d98:	0a000002 	beq	14da8 <__gettextparse+0x234>
   14d9c:	e0872002 	add	r2, r7, r2
   14da0:	e2822f75 	add	r2, r2, #468	; 0x1d4
   14da4:	e1d250d0 	ldrsb	r5, [r2]
   14da8:	e2492106 	sub	r2, r9, #-2147483647	; 0x80000001
   14dac:	e2834002 	add	r4, r3, #2
   14db0:	e1c350b2 	strh	r5, [r3, #2]
   14db4:	e1a03082 	lsl	r3, r2, #1
   14db8:	e0882003 	add	r2, r8, r3
   14dbc:	e1540002 	cmp	r4, r2
   14dc0:	3a00002e 	bcc	14e80 <__gettextparse+0x30c>
   14dc4:	e0446008 	sub	r6, r4, r8
   14dc8:	e302270f 	movw	r2, #9999	; 0x270f
   14dcc:	e1590002 	cmp	r9, r2
   14dd0:	e1a060c6 	asr	r6, r6, #1
   14dd4:	e2866001 	add	r6, r6, #1
   14dd8:	8a000193 	bhi	1542c <__gettextparse+0x8b8>
   14ddc:	e2833002 	add	r3, r3, #2
   14de0:	e3029710 	movw	r9, #10000	; 0x2710
   14de4:	e1530009 	cmp	r3, r9
   14de8:	e3a00006 	mov	r0, #6
   14dec:	31a09003 	movcc	r9, r3
   14df0:	e0000990 	mul	r0, r0, r9
   14df4:	e2800003 	add	r0, r0, #3
   14df8:	eb003943 	bl	2330c <__libc_malloc>
   14dfc:	e2503000 	subs	r3, r0, #0
   14e00:	0a000189 	beq	1542c <__gettextparse+0x8b8>
   14e04:	e1a04086 	lsl	r4, r6, #1
   14e08:	e083b089 	add	fp, r3, r9, lsl #1
   14e0c:	e1a06106 	lsl	r6, r6, #2
   14e10:	e1a01008 	mov	r1, r8
   14e14:	e1a02004 	mov	r2, r4
   14e18:	e58d3014 	str	r3, [sp, #20]
   14e1c:	eb00481b 	bl	26e90 <memcpy>
   14e20:	e1a02006 	mov	r2, r6
   14e24:	e59d1004 	ldr	r1, [sp, #4]
   14e28:	e1a0000b 	mov	r0, fp
   14e2c:	eb004817 	bl	26e90 <memcpy>
   14e30:	e59d3008 	ldr	r3, [sp, #8]
   14e34:	e1a02089 	lsl	r2, r9, #1
   14e38:	e1580003 	cmp	r8, r3
   14e3c:	e59d3014 	ldr	r3, [sp, #20]
   14e40:	0a000004 	beq	14e58 <__gettextparse+0x2e4>
   14e44:	e1a00008 	mov	r0, r8
   14e48:	e58d2004 	str	r2, [sp, #4]
   14e4c:	eb003a46 	bl	2376c <__cfree>
   14e50:	e59d3014 	ldr	r3, [sp, #20]
   14e54:	e59d2004 	ldr	r2, [sp, #4]
   14e58:	e2444002 	sub	r4, r4, #2
   14e5c:	e2422002 	sub	r2, r2, #2
   14e60:	e0834004 	add	r4, r3, r4
   14e64:	e0832002 	add	r2, r3, r2
   14e68:	e1540002 	cmp	r4, r2
   14e6c:	e2466004 	sub	r6, r6, #4
   14e70:	e08b6006 	add	r6, fp, r6
   14e74:	2a000177 	bcs	15458 <__gettextparse+0x8e4>
   14e78:	e1a08003 	mov	r8, r3
   14e7c:	e58db004 	str	fp, [sp, #4]
   14e80:	e3550009 	cmp	r5, #9
   14e84:	1affff52 	bne	14bd4 <__gettextparse+0x60>
   14e88:	e59db008 	ldr	fp, [sp, #8]
   14e8c:	e3a04000 	mov	r4, #0
   14e90:	eaffff9a 	b	14d00 <__gettextparse+0x18c>
   14e94:	e3a0a000 	mov	sl, #0
   14e98:	e1a0200a 	mov	r2, sl
   14e9c:	eaffff55 	b	14bf8 <__gettextparse+0x84>
   14ea0:	e5d3515c 	ldrb	r5, [r3, #348]	; 0x15c
   14ea4:	e3550000 	cmp	r5, #0
   14ea8:	0a0000e7 	beq	1524c <__gettextparse+0x6d8>
   14eac:	e59d3010 	ldr	r3, [sp, #16]
   14eb0:	e2866004 	add	r6, r6, #4
   14eb4:	e3e0a001 	mvn	sl, #1
   14eb8:	e3530000 	cmp	r3, #0
   14ebc:	12433001 	subne	r3, r3, #1
   14ec0:	158d3010 	strne	r3, [sp, #16]
   14ec4:	e59d301c 	ldr	r3, [sp, #28]
   14ec8:	e5863000 	str	r3, [r6]
   14ecc:	e1a03004 	mov	r3, r4
   14ed0:	eaffffb4 	b	14da8 <__gettextparse+0x234>
   14ed4:	e59d200c 	ldr	r2, [sp, #12]
   14ed8:	e5921000 	ldr	r1, [r2]
   14edc:	e5d10000 	ldrb	r0, [r1]
   14ee0:	e3500000 	cmp	r0, #0
   14ee4:	1a000003 	bne	14ef8 <__gettextparse+0x384>
   14ee8:	ea000087 	b	1510c <__gettextparse+0x598>
   14eec:	e5f10001 	ldrb	r0, [r1, #1]!
   14ef0:	e3500000 	cmp	r0, #0
   14ef4:	0a000084 	beq	1510c <__gettextparse+0x598>
   14ef8:	e3500020 	cmp	r0, #32
   14efc:	13500009 	cmpne	r0, #9
   14f00:	0afffff9 	beq	14eec <__gettextparse+0x378>
   14f04:	e2812001 	add	r2, r1, #1
   14f08:	e1a0a000 	mov	sl, r0
   14f0c:	e350007c 	cmp	r0, #124	; 0x7c
   14f10:	979ff100 	ldrls	pc, [pc, r0, lsl #2]
   14f14:	ea0000f4 	b	152ec <__gettextparse+0x778>
   14f18:	0001510c 	.word	0x0001510c
   14f1c:	000152ec 	.word	0x000152ec
   14f20:	000152ec 	.word	0x000152ec
   14f24:	000152ec 	.word	0x000152ec
   14f28:	000152ec 	.word	0x000152ec
   14f2c:	000152ec 	.word	0x000152ec
   14f30:	000152ec 	.word	0x000152ec
   14f34:	000152ec 	.word	0x000152ec
   14f38:	000152ec 	.word	0x000152ec
   14f3c:	000152ec 	.word	0x000152ec
   14f40:	0001510c 	.word	0x0001510c
   14f44:	000152ec 	.word	0x000152ec
   14f48:	000152ec 	.word	0x000152ec
   14f4c:	000152ec 	.word	0x000152ec
   14f50:	000152ec 	.word	0x000152ec
   14f54:	000152ec 	.word	0x000152ec
   14f58:	000152ec 	.word	0x000152ec
   14f5c:	000152ec 	.word	0x000152ec
   14f60:	000152ec 	.word	0x000152ec
   14f64:	000152ec 	.word	0x000152ec
   14f68:	000152ec 	.word	0x000152ec
   14f6c:	000152ec 	.word	0x000152ec
   14f70:	000152ec 	.word	0x000152ec
   14f74:	000152ec 	.word	0x000152ec
   14f78:	000152ec 	.word	0x000152ec
   14f7c:	000152ec 	.word	0x000152ec
   14f80:	000152ec 	.word	0x000152ec
   14f84:	000152ec 	.word	0x000152ec
   14f88:	000152ec 	.word	0x000152ec
   14f8c:	000152ec 	.word	0x000152ec
   14f90:	000152ec 	.word	0x000152ec
   14f94:	000152ec 	.word	0x000152ec
   14f98:	000152ec 	.word	0x000152ec
   14f9c:	0001540c 	.word	0x0001540c
   14fa0:	000152ec 	.word	0x000152ec
   14fa4:	000152ec 	.word	0x000152ec
   14fa8:	000152ec 	.word	0x000152ec
   14fac:	000152d0 	.word	0x000152d0
   14fb0:	000153f0 	.word	0x000153f0
   14fb4:	000152ec 	.word	0x000152ec
   14fb8:	00015400 	.word	0x00015400
   14fbc:	00015400 	.word	0x00015400
   14fc0:	000152b4 	.word	0x000152b4
   14fc4:	0001527c 	.word	0x0001527c
   14fc8:	000152ec 	.word	0x000152ec
   14fcc:	00015298 	.word	0x00015298
   14fd0:	000152ec 	.word	0x000152ec
   14fd4:	00015260 	.word	0x00015260
   14fd8:	0001539c 	.word	0x0001539c
   14fdc:	0001539c 	.word	0x0001539c
   14fe0:	0001539c 	.word	0x0001539c
   14fe4:	0001539c 	.word	0x0001539c
   14fe8:	0001539c 	.word	0x0001539c
   14fec:	0001539c 	.word	0x0001539c
   14ff0:	0001539c 	.word	0x0001539c
   14ff4:	0001539c 	.word	0x0001539c
   14ff8:	0001539c 	.word	0x0001539c
   14ffc:	0001539c 	.word	0x0001539c
   15000:	00015400 	.word	0x00015400
   15004:	0001510c 	.word	0x0001510c
   15008:	00015364 	.word	0x00015364
   1500c:	00015338 	.word	0x00015338
   15010:	00015300 	.word	0x00015300
   15014:	00015400 	.word	0x00015400
   15018:	000152ec 	.word	0x000152ec
   1501c:	000152ec 	.word	0x000152ec
   15020:	000152ec 	.word	0x000152ec
   15024:	000152ec 	.word	0x000152ec
   15028:	000152ec 	.word	0x000152ec
   1502c:	000152ec 	.word	0x000152ec
   15030:	000152ec 	.word	0x000152ec
   15034:	000152ec 	.word	0x000152ec
   15038:	000152ec 	.word	0x000152ec
   1503c:	000152ec 	.word	0x000152ec
   15040:	000152ec 	.word	0x000152ec
   15044:	000152ec 	.word	0x000152ec
   15048:	000152ec 	.word	0x000152ec
   1504c:	000152ec 	.word	0x000152ec
   15050:	000152ec 	.word	0x000152ec
   15054:	000152ec 	.word	0x000152ec
   15058:	000152ec 	.word	0x000152ec
   1505c:	000152ec 	.word	0x000152ec
   15060:	000152ec 	.word	0x000152ec
   15064:	000152ec 	.word	0x000152ec
   15068:	000152ec 	.word	0x000152ec
   1506c:	000152ec 	.word	0x000152ec
   15070:	000152ec 	.word	0x000152ec
   15074:	000152ec 	.word	0x000152ec
   15078:	000152ec 	.word	0x000152ec
   1507c:	000152ec 	.word	0x000152ec
   15080:	000152ec 	.word	0x000152ec
   15084:	000152ec 	.word	0x000152ec
   15088:	000152ec 	.word	0x000152ec
   1508c:	000152ec 	.word	0x000152ec
   15090:	000152ec 	.word	0x000152ec
   15094:	000152ec 	.word	0x000152ec
   15098:	000152ec 	.word	0x000152ec
   1509c:	000152ec 	.word	0x000152ec
   150a0:	000152ec 	.word	0x000152ec
   150a4:	000152ec 	.word	0x000152ec
   150a8:	000152ec 	.word	0x000152ec
   150ac:	000152ec 	.word	0x000152ec
   150b0:	000152ec 	.word	0x000152ec
   150b4:	000152ec 	.word	0x000152ec
   150b8:	000152ec 	.word	0x000152ec
   150bc:	000152ec 	.word	0x000152ec
   150c0:	000152ec 	.word	0x000152ec
   150c4:	000152ec 	.word	0x000152ec
   150c8:	000152ec 	.word	0x000152ec
   150cc:	000152ec 	.word	0x000152ec
   150d0:	00015400 	.word	0x00015400
   150d4:	000152ec 	.word	0x000152ec
   150d8:	000152ec 	.word	0x000152ec
   150dc:	000152ec 	.word	0x000152ec
   150e0:	000152ec 	.word	0x000152ec
   150e4:	000152ec 	.word	0x000152ec
   150e8:	000152ec 	.word	0x000152ec
   150ec:	000152ec 	.word	0x000152ec
   150f0:	000152ec 	.word	0x000152ec
   150f4:	000152ec 	.word	0x000152ec
   150f8:	000152ec 	.word	0x000152ec
   150fc:	000152ec 	.word	0x000152ec
   15100:	000152ec 	.word	0x000152ec
   15104:	000152ec 	.word	0x000152ec
   15108:	000153f0 	.word	0x000153f0
   1510c:	e59d000c 	ldr	r0, [sp, #12]
   15110:	e3a02000 	mov	r2, #0
   15114:	e1a0a002 	mov	sl, r2
   15118:	e5801000 	str	r1, [r0]
   1511c:	eafffeb5 	b	14bf8 <__gettextparse+0x84>
   15120:	e5963000 	ldr	r3, [r6]
   15124:	e28d2e4e 	add	r2, sp, #1248	; 0x4e0
   15128:	e3a01002 	mov	r1, #2
   1512c:	e3a00001 	mov	r0, #1
   15130:	e3e05000 	mvn	r5, #0
   15134:	e52234c0 	str	r3, [r2, #-1216]!	; 0xfffffb40
   15138:	ebfffe5f 	bl	14abc <new_exp>
   1513c:	e3a02002 	mov	r2, #2
   15140:	e3e03003 	mvn	r3, #3
   15144:	e3e01007 	mvn	r1, #7
   15148:	eaffff05 	b	14d64 <__gettextparse+0x1f0>
   1514c:	e5160004 	ldr	r0, [r6, #-4]
   15150:	e3e05000 	mvn	r5, #0
   15154:	e3a02002 	mov	r2, #2
   15158:	e3e03005 	mvn	r3, #5
   1515c:	e3e0100b 	mvn	r1, #11
   15160:	eafffeff 	b	14d64 <__gettextparse+0x1f0>
   15164:	e3a02000 	mov	r2, #0
   15168:	e3e05000 	mvn	r5, #0
   1516c:	e1a01002 	mov	r1, r2
   15170:	e1a00002 	mov	r0, r2
   15174:	ebfffe50 	bl	14abc <new_exp>
   15178:	e3a02002 	mov	r2, #2
   1517c:	e3e03001 	mvn	r3, #1
   15180:	e3e01003 	mvn	r1, #3
   15184:	eafffef6 	b	14d64 <__gettextparse+0x1f0>
   15188:	e3a02000 	mov	r2, #0
   1518c:	e3a01001 	mov	r1, #1
   15190:	e1a00002 	mov	r0, r2
   15194:	ebfffe48 	bl	14abc <new_exp>
   15198:	e3500000 	cmp	r0, #0
   1519c:	0a0000bd 	beq	15498 <__gettextparse+0x924>
   151a0:	e596c000 	ldr	ip, [r6]
   151a4:	e3e05000 	mvn	r5, #0
   151a8:	e3a02002 	mov	r2, #2
   151ac:	e3e03001 	mvn	r3, #1
   151b0:	e3e01003 	mvn	r1, #3
   151b4:	e580c008 	str	ip, [r0, #8]
   151b8:	eafffee9 	b	14d64 <__gettextparse+0x1f0>
   151bc:	e5963000 	ldr	r3, [r6]
   151c0:	e3530000 	cmp	r3, #0
   151c4:	0afffecb 	beq	14cf8 <__gettextparse+0x184>
   151c8:	e59d200c 	ldr	r2, [sp, #12]
   151cc:	e3e05009 	mvn	r5, #9
   151d0:	e3e01003 	mvn	r1, #3
   151d4:	e5823004 	str	r3, [r2, #4]
   151d8:	e3a02001 	mov	r2, #1
   151dc:	e3e03001 	mvn	r3, #1
   151e0:	eafffedf 	b	14d64 <__gettextparse+0x1f0>
   151e4:	e5163010 	ldr	r3, [r6, #-16]
   151e8:	e28d2020 	add	r2, sp, #32
   151ec:	e516e008 	ldr	lr, [r6, #-8]
   151f0:	e3a01010 	mov	r1, #16
   151f4:	e596c000 	ldr	ip, [r6]
   151f8:	e3a00003 	mov	r0, #3
   151fc:	e58d3020 	str	r3, [sp, #32]
   15200:	e3e05000 	mvn	r5, #0
   15204:	e58de024 	str	lr, [sp, #36]	; 0x24
   15208:	e58dc028 	str	ip, [sp, #40]	; 0x28
   1520c:	ebfffe2a 	bl	14abc <new_exp>
   15210:	e3a02002 	mov	r2, #2
   15214:	e3e03009 	mvn	r3, #9
   15218:	e3e01013 	mvn	r1, #19
   1521c:	eafffed0 	b	14d64 <__gettextparse+0x1f0>
   15220:	e596c000 	ldr	ip, [r6]
   15224:	e28d2020 	add	r2, sp, #32
   15228:	e5163008 	ldr	r3, [r6, #-8]
   1522c:	e3a0100f 	mov	r1, #15
   15230:	e3a00002 	mov	r0, #2
   15234:	eafffec3 	b	14d48 <__gettextparse+0x1d4>
   15238:	e596c000 	ldr	ip, [r6]
   1523c:	e28d2020 	add	r2, sp, #32
   15240:	e5163008 	ldr	r3, [r6, #-8]
   15244:	e3a0100e 	mov	r1, #14
   15248:	eafffff8 	b	15230 <__gettextparse+0x6bc>
   1524c:	e5960004 	ldr	r0, [r6, #4]
   15250:	e3e0200f 	mvn	r2, #15
   15254:	e1a03005 	mov	r3, r5
   15258:	e1a01005 	mov	r1, r5
   1525c:	eafffec0 	b	14d64 <__gettextparse+0x1f0>
   15260:	e59d100c 	ldr	r1, [sp, #12]
   15264:	e300a105 	movw	sl, #261	; 0x105
   15268:	e5812000 	str	r2, [r1]
   1526c:	e3a01004 	mov	r1, #4
   15270:	e3a02009 	mov	r2, #9
   15274:	e58d101c 	str	r1, [sp, #28]
   15278:	eafffe5e 	b	14bf8 <__gettextparse+0x84>
   1527c:	e59d100c 	ldr	r1, [sp, #12]
   15280:	e3a0af41 	mov	sl, #260	; 0x104
   15284:	e5812000 	str	r2, [r1]
   15288:	e3a01006 	mov	r1, #6
   1528c:	e3a02008 	mov	r2, #8
   15290:	e58d101c 	str	r1, [sp, #28]
   15294:	eafffe57 	b	14bf8 <__gettextparse+0x84>
   15298:	e59d100c 	ldr	r1, [sp, #12]
   1529c:	e3a0af41 	mov	sl, #260	; 0x104
   152a0:	e5812000 	str	r2, [r1]
   152a4:	e3a01007 	mov	r1, #7
   152a8:	e3a02008 	mov	r2, #8
   152ac:	e58d101c 	str	r1, [sp, #28]
   152b0:	eafffe50 	b	14bf8 <__gettextparse+0x84>
   152b4:	e59d100c 	ldr	r1, [sp, #12]
   152b8:	e300a105 	movw	sl, #261	; 0x105
   152bc:	e5812000 	str	r2, [r1]
   152c0:	e3a01003 	mov	r1, #3
   152c4:	e3a02009 	mov	r2, #9
   152c8:	e58d101c 	str	r1, [sp, #28]
   152cc:	eafffe49 	b	14bf8 <__gettextparse+0x84>
   152d0:	e59d100c 	ldr	r1, [sp, #12]
   152d4:	e300a105 	movw	sl, #261	; 0x105
   152d8:	e5812000 	str	r2, [r1]
   152dc:	e3a01005 	mov	r1, #5
   152e0:	e3a02009 	mov	r2, #9
   152e4:	e58d101c 	str	r1, [sp, #28]
   152e8:	eafffe42 	b	14bf8 <__gettextparse+0x84>
   152ec:	e59d100c 	ldr	r1, [sp, #12]
   152f0:	e3a0ac01 	mov	sl, #256	; 0x100
   152f4:	e5812000 	str	r2, [r1]
   152f8:	e3a02001 	mov	r2, #1
   152fc:	eafffe3d 	b	14bf8 <__gettextparse+0x84>
   15300:	e5d10001 	ldrb	r0, [r1, #1]
   15304:	e300a103 	movw	sl, #259	; 0x103
   15308:	e350003d 	cmp	r0, #61	; 0x3d
   1530c:	02811002 	addeq	r1, r1, #2
   15310:	159d100c 	ldrne	r1, [sp, #12]
   15314:	03a02007 	moveq	r2, #7
   15318:	059d000c 	ldreq	r0, [sp, #12]
   1531c:	15812000 	strne	r2, [r1]
   15320:	13a01009 	movne	r1, #9
   15324:	05801000 	streq	r1, [r0]
   15328:	13a02007 	movne	r2, #7
   1532c:	03a0100b 	moveq	r1, #11
   15330:	e58d101c 	str	r1, [sp, #28]
   15334:	eafffe2f 	b	14bf8 <__gettextparse+0x84>
   15338:	e5d10001 	ldrb	r0, [r1, #1]
   1533c:	e350003d 	cmp	r0, #61	; 0x3d
   15340:	1affffe9 	bne	152ec <__gettextparse+0x778>
   15344:	e59d000c 	ldr	r0, [sp, #12]
   15348:	e2811002 	add	r1, r1, #2
   1534c:	e3a02006 	mov	r2, #6
   15350:	e300a102 	movw	sl, #258	; 0x102
   15354:	e5801000 	str	r1, [r0]
   15358:	e3a0100c 	mov	r1, #12
   1535c:	e58d101c 	str	r1, [sp, #28]
   15360:	eafffe24 	b	14bf8 <__gettextparse+0x84>
   15364:	e5d10001 	ldrb	r0, [r1, #1]
   15368:	e300a103 	movw	sl, #259	; 0x103
   1536c:	e350003d 	cmp	r0, #61	; 0x3d
   15370:	02811002 	addeq	r1, r1, #2
   15374:	159d100c 	ldrne	r1, [sp, #12]
   15378:	03a02007 	moveq	r2, #7
   1537c:	059d000c 	ldreq	r0, [sp, #12]
   15380:	15812000 	strne	r2, [r1]
   15384:	13a01008 	movne	r1, #8
   15388:	05801000 	streq	r1, [r0]
   1538c:	13a02007 	movne	r2, #7
   15390:	03a0100a 	moveq	r1, #10
   15394:	e58d101c 	str	r1, [sp, #28]
   15398:	eafffe16 	b	14bf8 <__gettextparse+0x84>
   1539c:	e2400030 	sub	r0, r0, #48	; 0x30
   153a0:	e5d11001 	ldrb	r1, [r1, #1]
   153a4:	e58d001c 	str	r0, [sp, #28]
   153a8:	e1a0c000 	mov	ip, r0
   153ac:	e2410030 	sub	r0, r1, #48	; 0x30
   153b0:	e3500009 	cmp	r0, #9
   153b4:	8a000008 	bhi	153dc <__gettextparse+0x868>
   153b8:	e3a0e00a 	mov	lr, #10
   153bc:	e1a0000c 	mov	r0, ip
   153c0:	e020109e 	mla	r0, lr, r0, r1
   153c4:	e5f21001 	ldrb	r1, [r2, #1]!
   153c8:	e241c030 	sub	ip, r1, #48	; 0x30
   153cc:	e35c0009 	cmp	ip, #9
   153d0:	e2400030 	sub	r0, r0, #48	; 0x30
   153d4:	9afffff9 	bls	153c0 <__gettextparse+0x84c>
   153d8:	e58d001c 	str	r0, [sp, #28]
   153dc:	e59d100c 	ldr	r1, [sp, #12]
   153e0:	e300a106 	movw	sl, #262	; 0x106
   153e4:	e5812000 	str	r2, [r1]
   153e8:	e3a0200b 	mov	r2, #11
   153ec:	eafffe01 	b	14bf8 <__gettextparse+0x84>
   153f0:	e5d1c001 	ldrb	ip, [r1, #1]
   153f4:	e150000c 	cmp	r0, ip
   153f8:	02812002 	addeq	r2, r1, #2
   153fc:	1affffba 	bne	152ec <__gettextparse+0x778>
   15400:	e59d100c 	ldr	r1, [sp, #12]
   15404:	e5812000 	str	r2, [r1]
   15408:	eafffdf6 	b	14be8 <__gettextparse+0x74>
   1540c:	e5d10001 	ldrb	r0, [r1, #1]
   15410:	e350003d 	cmp	r0, #61	; 0x3d
   15414:	0a000007 	beq	15438 <__gettextparse+0x8c4>
   15418:	e59d100c 	ldr	r1, [sp, #12]
   1541c:	e3a0a021 	mov	sl, #33	; 0x21
   15420:	e5812000 	str	r2, [r1]
   15424:	e3a0200a 	mov	r2, #10
   15428:	eafffdf2 	b	14bf8 <__gettextparse+0x84>
   1542c:	e59db008 	ldr	fp, [sp, #8]
   15430:	e3a04002 	mov	r4, #2
   15434:	eafffe31 	b	14d00 <__gettextparse+0x18c>
   15438:	e59d000c 	ldr	r0, [sp, #12]
   1543c:	e2811002 	add	r1, r1, #2
   15440:	e3a02006 	mov	r2, #6
   15444:	e300a102 	movw	sl, #258	; 0x102
   15448:	e5801000 	str	r1, [r0]
   1544c:	e3a0100d 	mov	r1, #13
   15450:	e58d101c 	str	r1, [sp, #28]
   15454:	eafffde7 	b	14bf8 <__gettextparse+0x84>
   15458:	e59db008 	ldr	fp, [sp, #8]
   1545c:	e1a08003 	mov	r8, r3
   15460:	e3a04001 	mov	r4, #1
   15464:	eafffe25 	b	14d00 <__gettextparse+0x18c>
   15468:	e0873003 	add	r3, r7, r3
   1546c:	e6bf2072 	sxth	r2, r2
   15470:	e5d3c1c0 	ldrb	ip, [r3, #448]	; 0x1c0
   15474:	e1a01102 	lsl	r1, r2, #2
   15478:	e1a03082 	lsl	r3, r2, #1
   1547c:	e2611000 	rsb	r1, r1, #0
   15480:	e24c2010 	sub	r2, ip, #16
   15484:	e2633000 	rsb	r3, r3, #0
   15488:	e087c002 	add	ip, r7, r2
   1548c:	e28cce1d 	add	ip, ip, #464	; 0x1d0
   15490:	e1dc50d0 	ldrsb	r5, [ip]
   15494:	eafffe32 	b	14d64 <__gettextparse+0x1f0>
   15498:	e3e05000 	mvn	r5, #0
   1549c:	e3a02002 	mov	r2, #2
   154a0:	e3e03001 	mvn	r3, #1
   154a4:	e3e01003 	mvn	r1, #3
   154a8:	eafffe2d 	b	14d64 <__gettextparse+0x1f0>
   154ac:	eb00554d 	bl	2a9e8 <__stack_chk_fail>

000154b0 <__gettext_extract_plural>:
   154b0:	e92d41f0 	push	{r4, r5, r6, r7, r8, lr}
   154b4:	e3068f8c 	movw	r8, #28556	; 0x6f8c
   154b8:	e3408009 	movt	r8, #9
   154bc:	e24dd010 	sub	sp, sp, #16
   154c0:	e2504000 	subs	r4, r0, #0
   154c4:	e1a06001 	mov	r6, r1
   154c8:	e5983000 	ldr	r3, [r8]
   154cc:	e1a05002 	mov	r5, r2
   154d0:	e58d300c 	str	r3, [sp, #12]
   154d4:	0a00001e 	beq	15554 <__gettext_extract_plural+0xa4>
   154d8:	e3011e6c 	movw	r1, #7788	; 0x1e6c
   154dc:	e3401007 	movt	r1, #7
   154e0:	eb004313 	bl	26134 <strstr>
   154e4:	e3011e74 	movw	r1, #7796	; 0x1e74
   154e8:	e3401007 	movt	r1, #7
   154ec:	e1a07000 	mov	r7, r0
   154f0:	e1a00004 	mov	r0, r4
   154f4:	eb00430e 	bl	26134 <strstr>
   154f8:	e3500000 	cmp	r0, #0
   154fc:	13570000 	cmpne	r7, #0
   15500:	0a000013 	beq	15554 <__gettext_extract_plural+0xa4>
   15504:	e5d03009 	ldrb	r3, [r0, #9]
   15508:	e2804009 	add	r4, r0, #9
   1550c:	e3530000 	cmp	r3, #0
   15510:	0a00000f 	beq	15554 <__gettext_extract_plural+0xa4>
   15514:	e59f10bc 	ldr	r1, [pc, #188]	; 155d8 <__gettext_extract_plural+0x128>
   15518:	ee1d0f70 	mrc	15, 0, r0, cr13, cr0, {3}
   1551c:	e1a02083 	lsl	r2, r3, #1
   15520:	e79f1001 	ldr	r1, [pc, r1]
   15524:	e7901001 	ldr	r1, [r0, r1]
   15528:	e19120b2 	ldrh	r2, [r1, r2]
   1552c:	e3120a02 	tst	r2, #8192	; 0x2000
   15530:	1a000004 	bne	15548 <__gettext_extract_plural+0x98>
   15534:	ea000011 	b	15580 <__gettext_extract_plural+0xd0>
   15538:	e1a02083 	lsl	r2, r3, #1
   1553c:	e19120b2 	ldrh	r2, [r1, r2]
   15540:	e3120a02 	tst	r2, #8192	; 0x2000
   15544:	0a00000d 	beq	15580 <__gettext_extract_plural+0xd0>
   15548:	e5f43001 	ldrb	r3, [r4, #1]!
   1554c:	e3530000 	cmp	r3, #0
   15550:	1afffff8 	bne	15538 <__gettext_extract_plural+0x88>
   15554:	e3013e30 	movw	r3, #7728	; 0x1e30
   15558:	e3a02002 	mov	r2, #2
   1555c:	e3403007 	movt	r3, #7
   15560:	e5863000 	str	r3, [r6]
   15564:	e5852000 	str	r2, [r5]
   15568:	e59d200c 	ldr	r2, [sp, #12]
   1556c:	e5983000 	ldr	r3, [r8]
   15570:	e1520003 	cmp	r2, r3
   15574:	1a000016 	bne	155d4 <__gettext_extract_plural+0x124>
   15578:	e28dd010 	add	sp, sp, #16
   1557c:	e8bd81f0 	pop	{r4, r5, r6, r7, r8, pc}
   15580:	e2433030 	sub	r3, r3, #48	; 0x30
   15584:	e3530009 	cmp	r3, #9
   15588:	8afffff1 	bhi	15554 <__gettext_extract_plural+0xa4>
   1558c:	e3a0200a 	mov	r2, #10
   15590:	e1a0100d 	mov	r1, sp
   15594:	e1a00004 	mov	r0, r4
   15598:	eb000345 	bl	162b4 <__strtoul>
   1559c:	e59d3000 	ldr	r3, [sp]
   155a0:	e1530004 	cmp	r3, r4
   155a4:	0affffea 	beq	15554 <__gettext_extract_plural+0xa4>
   155a8:	e28d3010 	add	r3, sp, #16
   155ac:	e5850000 	str	r0, [r5]
   155b0:	e2877007 	add	r7, r7, #7
   155b4:	e523700c 	str	r7, [r3, #-12]!
   155b8:	e1a00003 	mov	r0, r3
   155bc:	ebfffd6c 	bl	14b74 <__gettextparse>
   155c0:	e3500000 	cmp	r0, #0
   155c4:	1affffe2 	bne	15554 <__gettext_extract_plural+0xa4>
   155c8:	e59d3008 	ldr	r3, [sp, #8]
   155cc:	e5863000 	str	r3, [r6]
   155d0:	eaffffe4 	b	15568 <__gettext_extract_plural+0xb8>
   155d4:	eb005503 	bl	2a9e8 <__stack_chk_fail>
   155d8:	00081b30 	.word	0x00081b30

000155dc <__hash_string>:
   155dc:	e2402001 	sub	r2, r0, #1
   155e0:	e3a00000 	mov	r0, #0
   155e4:	ea000003 	b	155f8 <__hash_string+0x1c>
   155e8:	e0830200 	add	r0, r3, r0, lsl #4
   155ec:	e210120f 	ands	r1, r0, #-268435456	; 0xf0000000
   155f0:	e3c0320f 	bic	r3, r0, #-268435456	; 0xf0000000
   155f4:	10230c21 	eorne	r0, r3, r1, lsr #24
   155f8:	e5f23001 	ldrb	r3, [r2, #1]!
   155fc:	e3530000 	cmp	r3, #0
   15600:	1afffff8 	bne	155e8 <__hash_string+0xc>
   15604:	e12fff1e 	bx	lr
	...

00015610 <_setjmp>:
   15610:	e3a01000 	mov	r1, #0
   15614:	ea0086c9 	b	37140 <__sigsetjmp>

00015618 <abort>:
   15618:	e3084190 	movw	r4, #33168	; 0x8190
   1561c:	e3404009 	movt	r4, #9
   15620:	e3063f8c 	movw	r3, #28556	; 0x6f8c
   15624:	e3403009 	movt	r3, #9
   15628:	e5942008 	ldr	r2, [r4, #8]
   1562c:	ee1d6f70 	mrc	15, 0, r6, cr13, cr0, {3}
   15630:	e5933000 	ldr	r3, [r3]
   15634:	e2466d13 	sub	r6, r6, #1216	; 0x4c0
   15638:	e92d4080 	push	{r7, lr}
   1563c:	e1560002 	cmp	r6, r2
   15640:	e24ddf46 	sub	sp, sp, #280	; 0x118
   15644:	e58d3114 	str	r3, [sp, #276]	; 0x114
   15648:	0a00000b 	beq	1567c <abort+0x64>
   1564c:	e3a03001 	mov	r3, #1
   15650:	e3a02000 	mov	r2, #0
   15654:	e58d2004 	str	r2, [sp, #4]
   15658:	e1942f9f 	ldrex	r2, [r4]
   1565c:	e3520000 	cmp	r2, #0
   15660:	1a000003 	bne	15674 <abort+0x5c>
   15664:	e1841f93 	strex	r1, r3, [r4]
   15668:	e3510000 	cmp	r1, #0
   1566c:	1afffff9 	bne	15658 <abort+0x40>
   15670:	f57ff05b 	dmb	ish
   15674:	1a000015 	bne	156d0 <abort+0xb8>
   15678:	e5846008 	str	r6, [r4, #8]
   1567c:	e594500c 	ldr	r5, [r4, #12]
   15680:	e5943004 	ldr	r3, [r4, #4]
   15684:	e3550000 	cmp	r5, #0
   15688:	e2833001 	add	r3, r3, #1
   1568c:	e5843004 	str	r3, [r4, #4]
   15690:	0a000012 	beq	156e0 <abort+0xc8>
   15694:	e3550001 	cmp	r5, #1
   15698:	0a000064 	beq	15830 <abort+0x218>
   1569c:	e3550002 	cmp	r5, #2
   156a0:	0a00001c 	beq	15718 <abort+0x100>
   156a4:	e3550003 	cmp	r5, #3
   156a8:	0a000039 	beq	15794 <abort+0x17c>
   156ac:	e3550004 	cmp	r5, #4
   156b0:	0a000064 	beq	15848 <abort+0x230>
   156b4:	e3550005 	cmp	r5, #5
   156b8:	0a000067 	beq	1585c <abort+0x244>
   156bc:	e3550006 	cmp	r5, #6
   156c0:	0a00006a 	beq	15870 <abort+0x258>
   156c4:	e3550007 	cmp	r5, #7
   156c8:	0a000045 	beq	157e4 <abort+0x1cc>
   156cc:	e7f000f0 	udf	#0
   156d0:	e1a00004 	mov	r0, r4
   156d4:	e58d2004 	str	r2, [sp, #4]
   156d8:	eb005349 	bl	2a404 <__lll_lock_wait_private>
   156dc:	eaffffe5 	b	15678 <abort+0x60>
   156e0:	e1a01005 	mov	r1, r5
   156e4:	e3a07001 	mov	r7, #1
   156e8:	e3a02080 	mov	r2, #128	; 0x80
   156ec:	e28d0008 	add	r0, sp, #8
   156f0:	e584700c 	str	r7, [r4, #12]
   156f4:	eb0045b5 	bl	26dd0 <memset>
   156f8:	e1a02005 	mov	r2, r5
   156fc:	e28d1008 	add	r1, sp, #8
   15700:	e1a00007 	mov	r0, r7
   15704:	e3a03020 	mov	r3, #32
   15708:	e58d3008 	str	r3, [sp, #8]
   1570c:	eb008744 	bl	37424 <__sigprocmask>
   15710:	e594500c 	ldr	r5, [r4, #12]
   15714:	eaffffde 	b	15694 <abort+0x7c>
   15718:	e5943004 	ldr	r3, [r4, #4]
   1571c:	e3a02000 	mov	r2, #0
   15720:	e584200c 	str	r2, [r4, #12]
   15724:	e2433001 	sub	r3, r3, #1
   15728:	e5843004 	str	r3, [r4, #4]
   1572c:	e1530002 	cmp	r3, r2
   15730:	0a00002f 	beq	157f4 <abort+0x1dc>
   15734:	e3a00006 	mov	r0, #6
   15738:	eb0086a4 	bl	371d0 <raise>
   1573c:	e5943008 	ldr	r3, [r4, #8]
   15740:	e1560003 	cmp	r6, r3
   15744:	0a00000f 	beq	15788 <abort+0x170>
   15748:	e3a03001 	mov	r3, #1
   1574c:	e3a02000 	mov	r2, #0
   15750:	e58d2004 	str	r2, [sp, #4]
   15754:	e1942f9f 	ldrex	r2, [r4]
   15758:	e3520000 	cmp	r2, #0
   1575c:	1a000003 	bne	15770 <abort+0x158>
   15760:	e1841f93 	strex	r1, r3, [r4]
   15764:	e3510000 	cmp	r1, #0
   15768:	1afffff9 	bne	15754 <abort+0x13c>
   1576c:	f57ff05b 	dmb	ish
   15770:	0a000003 	beq	15784 <abort+0x16c>
   15774:	e3080190 	movw	r0, #33168	; 0x8190
   15778:	e3400009 	movt	r0, #9
   1577c:	e58d2004 	str	r2, [sp, #4]
   15780:	eb00531f 	bl	2a404 <__lll_lock_wait_private>
   15784:	e5846008 	str	r6, [r4, #8]
   15788:	e5943004 	ldr	r3, [r4, #4]
   1578c:	e2833001 	add	r3, r3, #1
   15790:	e5843004 	str	r3, [r4, #4]
   15794:	e3a0208c 	mov	r2, #140	; 0x8c
   15798:	e3a01000 	mov	r1, #0
   1579c:	e28d0088 	add	r0, sp, #136	; 0x88
   157a0:	e3a03004 	mov	r3, #4
   157a4:	e584300c 	str	r3, [r4, #12]
   157a8:	eb004588 	bl	26dd0 <memset>
   157ac:	e28d3f43 	add	r3, sp, #268	; 0x10c
   157b0:	e28d108c 	add	r1, sp, #140	; 0x8c
   157b4:	e3e02000 	mvn	r2, #0
   157b8:	e5232004 	str	r2, [r3, #-4]!
   157bc:	e1530001 	cmp	r3, r1
   157c0:	1afffffc 	bne	157b8 <abort+0x1a0>
   157c4:	e3a03000 	mov	r3, #0
   157c8:	e28d1088 	add	r1, sp, #136	; 0x88
   157cc:	e1a02003 	mov	r2, r3
   157d0:	e3a00006 	mov	r0, #6
   157d4:	e58d310c 	str	r3, [sp, #268]	; 0x10c
   157d8:	eb008705 	bl	373f4 <__sigaction>
   157dc:	e594500c 	ldr	r5, [r4, #12]
   157e0:	eaffffb1 	b	156ac <abort+0x94>
   157e4:	e3a0007f 	mov	r0, #127	; 0x7f
   157e8:	e3a03008 	mov	r3, #8
   157ec:	e584300c 	str	r3, [r4, #12]
   157f0:	eb0047f8 	bl	277d8 <_exit>
   157f4:	e5843008 	str	r3, [r4, #8]
   157f8:	f57ff05b 	dmb	ish
   157fc:	e1942f9f 	ldrex	r2, [r4]
   15800:	e1841f93 	strex	r1, r3, [r4]
   15804:	e3510000 	cmp	r1, #0
   15808:	1afffffb 	bne	157fc <abort+0x1e4>
   1580c:	e3520001 	cmp	r2, #1
   15810:	daffffc7 	ble	15734 <abort+0x11c>
   15814:	e3080190 	movw	r0, #33168	; 0x8190
   15818:	e3a01081 	mov	r1, #129	; 0x81
   1581c:	e3400009 	movt	r0, #9
   15820:	e3a02001 	mov	r2, #1
   15824:	e3a070f0 	mov	r7, #240	; 0xf0
   15828:	ef000000 	svc	0x00000000
   1582c:	eaffffc0 	b	15734 <abort+0x11c>
   15830:	e3a00000 	mov	r0, #0
   15834:	e3a03002 	mov	r3, #2
   15838:	e584300c 	str	r3, [r4, #12]
   1583c:	eb001f66 	bl	1d5dc <_IO_flush_all_lockp>
   15840:	e594500c 	ldr	r5, [r4, #12]
   15844:	eaffff94 	b	1569c <abort+0x84>
   15848:	e3a03005 	mov	r3, #5
   1584c:	e584300c 	str	r3, [r4, #12]
   15850:	eb000f6d 	bl	1960c <__fcloseall>
   15854:	e594500c 	ldr	r5, [r4, #12]
   15858:	eaffff95 	b	156b4 <abort+0x9c>
   1585c:	e3a00006 	mov	r0, #6
   15860:	e584000c 	str	r0, [r4, #12]
   15864:	eb008659 	bl	371d0 <raise>
   15868:	e594500c 	ldr	r5, [r4, #12]
   1586c:	eaffff92 	b	156bc <abort+0xa4>
   15870:	e3a03007 	mov	r3, #7
   15874:	e584300c 	str	r3, [r4, #12]
   15878:	e7f000f0 	udf	#0

0001587c <msort_with_tmp.part.0>:
   1587c:	e92d4ff0 	push	{r4, r5, r6, r7, r8, r9, sl, fp, lr}
   15880:	e1a070a2 	lsr	r7, r2, #1
   15884:	e5905000 	ldr	r5, [r0]
   15888:	e24dd014 	sub	sp, sp, #20
   1588c:	e3570001 	cmp	r7, #1
   15890:	e0426007 	sub	r6, r2, r7
   15894:	e58d200c 	str	r2, [sp, #12]
   15898:	e58d0000 	str	r0, [sp]
   1589c:	e58d1004 	str	r1, [sp, #4]
   158a0:	e0251795 	mla	r5, r5, r7, r1
   158a4:	9a000001 	bls	158b0 <msort_with_tmp.part.0+0x34>
   158a8:	e1a02007 	mov	r2, r7
   158ac:	ebfffff2 	bl	1587c <msort_with_tmp.part.0>
   158b0:	e3560001 	cmp	r6, #1
   158b4:	9a000003 	bls	158c8 <msort_with_tmp.part.0+0x4c>
   158b8:	e1a02006 	mov	r2, r6
   158bc:	e1a01005 	mov	r1, r5
   158c0:	e59d0000 	ldr	r0, [sp]
   158c4:	ebffffec 	bl	1587c <msort_with_tmp.part.0>
   158c8:	e59d2000 	ldr	r2, [sp]
   158cc:	e59d8004 	ldr	r8, [sp, #4]
   158d0:	e5923004 	ldr	r3, [r2, #4]
   158d4:	e5924010 	ldr	r4, [r2, #16]
   158d8:	e5929000 	ldr	r9, [r2]
   158dc:	e592b008 	ldr	fp, [r2, #8]
   158e0:	e592a00c 	ldr	sl, [r2, #12]
   158e4:	e3530003 	cmp	r3, #3
   158e8:	979ff103 	ldrls	pc, [pc, r3, lsl #2]
   158ec:	ea000008 	b	15914 <msort_with_tmp.part.0+0x98>
   158f0:	00015a8c 	.word	0x00015a8c
   158f4:	00015a44 	.word	0x00015a44
   158f8:	000159cc 	.word	0x000159cc
   158fc:	00015958 	.word	0x00015958
   15900:	e1a01008 	mov	r1, r8
   15904:	e2477001 	sub	r7, r7, #1
   15908:	eb004560 	bl	26e90 <memcpy>
   1590c:	e0888009 	add	r8, r8, r9
   15910:	e0804009 	add	r4, r0, r9
   15914:	e3570000 	cmp	r7, #0
   15918:	13560000 	cmpne	r6, #0
   1591c:	e1a01005 	mov	r1, r5
   15920:	e1a0200a 	mov	r2, sl
   15924:	e1a00008 	mov	r0, r8
   15928:	0a00000d 	beq	15964 <msort_with_tmp.part.0+0xe8>
   1592c:	e12fff3b 	blx	fp
   15930:	e1a01005 	mov	r1, r5
   15934:	e1a02009 	mov	r2, r9
   15938:	e3500000 	cmp	r0, #0
   1593c:	e1a00004 	mov	r0, r4
   15940:	daffffee 	ble	15900 <msort_with_tmp.part.0+0x84>
   15944:	eb004551 	bl	26e90 <memcpy>
   15948:	e0855009 	add	r5, r5, r9
   1594c:	e2466001 	sub	r6, r6, #1
   15950:	e0804009 	add	r4, r0, r9
   15954:	eaffffee 	b	15914 <msort_with_tmp.part.0+0x98>
   15958:	e3560000 	cmp	r6, #0
   1595c:	13570000 	cmpne	r7, #0
   15960:	1a00000a 	bne	15990 <msort_with_tmp.part.0+0x114>
   15964:	e3570000 	cmp	r7, #0
   15968:	1a000059 	bne	15ad4 <msort_with_tmp.part.0+0x258>
   1596c:	e59d300c 	ldr	r3, [sp, #12]
   15970:	e59d0004 	ldr	r0, [sp, #4]
   15974:	e0432006 	sub	r2, r3, r6
   15978:	e59d3000 	ldr	r3, [sp]
   1597c:	e0020299 	mul	r2, r9, r2
   15980:	e5931010 	ldr	r1, [r3, #16]
   15984:	e28dd014 	add	sp, sp, #20
   15988:	e8bd4ff0 	pop	{r4, r5, r6, r7, r8, r9, sl, fp, lr}
   1598c:	ea00453f 	b	26e90 <memcpy>
   15990:	e5951000 	ldr	r1, [r5]
   15994:	e1a0200a 	mov	r2, sl
   15998:	e5980000 	ldr	r0, [r8]
   1599c:	e2844004 	add	r4, r4, #4
   159a0:	e12fff3b 	blx	fp
   159a4:	e3500000 	cmp	r0, #0
   159a8:	d2477001 	suble	r7, r7, #1
   159ac:	c2466001 	subgt	r6, r6, #1
   159b0:	d4983004 	ldrle	r3, [r8], #4
   159b4:	c4953004 	ldrgt	r3, [r5], #4
   159b8:	e3570000 	cmp	r7, #0
   159bc:	13560000 	cmpne	r6, #0
   159c0:	e5043004 	str	r3, [r4, #-4]
   159c4:	1afffff1 	bne	15990 <msort_with_tmp.part.0+0x114>
   159c8:	eaffffe5 	b	15964 <msort_with_tmp.part.0+0xe8>
   159cc:	e58da008 	str	sl, [sp, #8]
   159d0:	e1a0a005 	mov	sl, r5
   159d4:	e3570000 	cmp	r7, #0
   159d8:	13560000 	cmpne	r6, #0
   159dc:	0affffe0 	beq	15964 <msort_with_tmp.part.0+0xe8>
   159e0:	e1a0100a 	mov	r1, sl
   159e4:	e1a00008 	mov	r0, r8
   159e8:	e59d2008 	ldr	r2, [sp, #8]
   159ec:	e0845009 	add	r5, r4, r9
   159f0:	e12fff3b 	blx	fp
   159f4:	e3500000 	cmp	r0, #0
   159f8:	c2466001 	subgt	r6, r6, #1
   159fc:	d2477001 	suble	r7, r7, #1
   15a00:	c1a0100a 	movgt	r1, sl
   15a04:	d1a01008 	movle	r1, r8
   15a08:	c08aa009 	addgt	sl, sl, r9
   15a0c:	d0888009 	addle	r8, r8, r9
   15a10:	e1540005 	cmp	r4, r5
   15a14:	2a000008 	bcs	15a3c <msort_with_tmp.part.0+0x1c0>
   15a18:	e1e00004 	mvn	r0, r4
   15a1c:	e0800005 	add	r0, r0, r5
   15a20:	e3c00003 	bic	r0, r0, #3
   15a24:	e2442004 	sub	r2, r4, #4
   15a28:	e0844000 	add	r4, r4, r0
   15a2c:	e4913004 	ldr	r3, [r1], #4
   15a30:	e5a23004 	str	r3, [r2, #4]!
   15a34:	e1540002 	cmp	r4, r2
   15a38:	1afffffb 	bne	15a2c <msort_with_tmp.part.0+0x1b0>
   15a3c:	e1a04005 	mov	r4, r5
   15a40:	eaffffe3 	b	159d4 <msort_with_tmp.part.0+0x158>
   15a44:	e3560000 	cmp	r6, #0
   15a48:	13570000 	cmpne	r7, #0
   15a4c:	0affffc4 	beq	15964 <msort_with_tmp.part.0+0xe8>
   15a50:	e1a0200a 	mov	r2, sl
   15a54:	e1a01005 	mov	r1, r5
   15a58:	e1a00008 	mov	r0, r8
   15a5c:	e2844008 	add	r4, r4, #8
   15a60:	e12fff3b 	blx	fp
   15a64:	e3500000 	cmp	r0, #0
   15a68:	d2477001 	suble	r7, r7, #1
   15a6c:	c2466001 	subgt	r6, r6, #1
   15a70:	d0c820d8 	ldrdle	r2, [r8], #8
   15a74:	c0c520d8 	ldrdgt	r2, [r5], #8
   15a78:	e3570000 	cmp	r7, #0
   15a7c:	13560000 	cmpne	r6, #0
   15a80:	e14420f8 	strd	r2, [r4, #-8]
   15a84:	1afffff1 	bne	15a50 <msort_with_tmp.part.0+0x1d4>
   15a88:	eaffffb5 	b	15964 <msort_with_tmp.part.0+0xe8>
   15a8c:	e3560000 	cmp	r6, #0
   15a90:	13570000 	cmpne	r7, #0
   15a94:	0affffb2 	beq	15964 <msort_with_tmp.part.0+0xe8>
   15a98:	e1a01005 	mov	r1, r5
   15a9c:	e1a00008 	mov	r0, r8
   15aa0:	e1a0200a 	mov	r2, sl
   15aa4:	e2844004 	add	r4, r4, #4
   15aa8:	e12fff3b 	blx	fp
   15aac:	e3500000 	cmp	r0, #0
   15ab0:	d2477001 	suble	r7, r7, #1
   15ab4:	c2466001 	subgt	r6, r6, #1
   15ab8:	d4983004 	ldrle	r3, [r8], #4
   15abc:	c4953004 	ldrgt	r3, [r5], #4
   15ac0:	e3570000 	cmp	r7, #0
   15ac4:	13560000 	cmpne	r6, #0
   15ac8:	e5043004 	str	r3, [r4, #-4]
   15acc:	1afffff1 	bne	15a98 <msort_with_tmp.part.0+0x21c>
   15ad0:	eaffffa3 	b	15964 <msort_with_tmp.part.0+0xe8>
   15ad4:	e0020997 	mul	r2, r7, r9
   15ad8:	e1a01008 	mov	r1, r8
   15adc:	e1a00004 	mov	r0, r4
   15ae0:	eb0044ea 	bl	26e90 <memcpy>
   15ae4:	eaffffa0 	b	1596c <msort_with_tmp.part.0+0xf0>

00015ae8 <__qsort_r>:
   15ae8:	e3520020 	cmp	r2, #32
   15aec:	e306cf8c 	movw	ip, #28556	; 0x6f8c
   15af0:	e92d4ff0 	push	{r4, r5, r6, r7, r8, r9, sl, fp, lr}
   15af4:	e28db020 	add	fp, sp, #32
   15af8:	e1a07002 	mov	r7, r2
   15afc:	e1a05003 	mov	r5, r3
   15b00:	91a03001 	movls	r3, r1
   15b04:	e24dd03c 	sub	sp, sp, #60	; 0x3c
   15b08:	90060397 	mulls	r6, r7, r3
   15b0c:	e50b1048 	str	r1, [fp, #-72]	; 0xffffffb8
   15b10:	851b3048 	ldrhi	r3, [fp, #-72]	; 0xffffffb8
   15b14:	e340c009 	movt	ip, #9
   15b18:	e50b0040 	str	r0, [fp, #-64]	; 0xffffffc0
   15b1c:	e59c2000 	ldr	r2, [ip]
   15b20:	80876183 	addhi	r6, r7, r3, lsl #3
   15b24:	e50bc050 	str	ip, [fp, #-80]	; 0xffffffb0
   15b28:	e3560b01 	cmp	r6, #1024	; 0x400
   15b2c:	e59b4004 	ldr	r4, [fp, #4]
   15b30:	e50b2028 	str	r2, [fp, #-40]	; 0xffffffd8
   15b34:	3a000086 	bcc	15d54 <__qsort_r+0x26c>
   15b38:	e30881a4 	movw	r8, #33188	; 0x81a4
   15b3c:	e3408009 	movt	r8, #9
   15b40:	e5981000 	ldr	r1, [r8]
   15b44:	e3510000 	cmp	r1, #0
   15b48:	0a000089 	beq	15d74 <__qsort_r+0x28c>
   15b4c:	e1a00006 	mov	r0, r6
   15b50:	eb016401 	bl	6eb5c <__aeabi_uidiv>
   15b54:	e5983004 	ldr	r3, [r8, #4]
   15b58:	e1500003 	cmp	r0, r3
   15b5c:	8a00005a 	bhi	15ccc <__qsort_r+0x1e4>
   15b60:	e59f3280 	ldr	r3, [pc, #640]	; 15de8 <__qsort_r+0x300>
   15b64:	e1a00006 	mov	r0, r6
   15b68:	ee1d6f70 	mrc	15, 0, r6, cr13, cr0, {3}
   15b6c:	e79f3003 	ldr	r3, [pc, r3]
   15b70:	e7968003 	ldr	r8, [r6, r3]
   15b74:	eb0035e4 	bl	2330c <__libc_malloc>
   15b78:	e59f326c 	ldr	r3, [pc, #620]	; 15dec <__qsort_r+0x304>
   15b7c:	e79f3003 	ldr	r3, [pc, r3]
   15b80:	e7868003 	str	r8, [r6, r3]
   15b84:	e2503000 	subs	r3, r0, #0
   15b88:	e50b3054 	str	r3, [fp, #-84]	; 0xffffffac
   15b8c:	0a00004e 	beq	15ccc <__qsort_r+0x1e4>
   15b90:	e50b302c 	str	r3, [fp, #-44]	; 0xffffffd4
   15b94:	e3570020 	cmp	r7, #32
   15b98:	e3a03004 	mov	r3, #4
   15b9c:	e50b703c 	str	r7, [fp, #-60]	; 0xffffffc4
   15ba0:	e50b5034 	str	r5, [fp, #-52]	; 0xffffffcc
   15ba4:	e50b4030 	str	r4, [fp, #-48]	; 0xffffffd0
   15ba8:	e50b3038 	str	r3, [fp, #-56]	; 0xffffffc8
   15bac:	9a000053 	bls	15d00 <__qsort_r+0x218>
   15bb0:	e51b3048 	ldr	r3, [fp, #-72]	; 0xffffffb8
   15bb4:	e51b602c 	ldr	r6, [fp, #-44]	; 0xffffffd4
   15bb8:	e1a01103 	lsl	r1, r3, #2
   15bbc:	e0866001 	add	r6, r6, r1
   15bc0:	e0863001 	add	r3, r6, r1
   15bc4:	e50b304c 	str	r3, [fp, #-76]	; 0xffffffb4
   15bc8:	e1560003 	cmp	r6, r3
   15bcc:	e1a00003 	mov	r0, r3
   15bd0:	2a000081 	bcs	15ddc <__qsort_r+0x2f4>
   15bd4:	e51b3040 	ldr	r3, [fp, #-64]	; 0xffffffc0
   15bd8:	e1a02006 	mov	r2, r6
   15bdc:	e4823004 	str	r3, [r2], #4
   15be0:	e1500002 	cmp	r0, r2
   15be4:	e0833007 	add	r3, r3, r7
   15be8:	8afffffb 	bhi	15bdc <__qsort_r+0xf4>
   15bec:	e51b302c 	ldr	r3, [fp, #-44]	; 0xffffffd4
   15bf0:	e0831001 	add	r1, r3, r1
   15bf4:	e51b2048 	ldr	r2, [fp, #-72]	; 0xffffffb8
   15bf8:	e3a03004 	mov	r3, #4
   15bfc:	e50b303c 	str	r3, [fp, #-60]	; 0xffffffc4
   15c00:	e3a03003 	mov	r3, #3
   15c04:	e3520001 	cmp	r2, #1
   15c08:	e50b3038 	str	r3, [fp, #-56]	; 0xffffffc8
   15c0c:	9a000068 	bls	15db4 <__qsort_r+0x2cc>
   15c10:	e24b003c 	sub	r0, fp, #60	; 0x3c
   15c14:	ebffff18 	bl	1587c <msort_with_tmp.part.0>
   15c18:	e51b8040 	ldr	r8, [fp, #-64]	; 0xffffffc0
   15c1c:	e3a03000 	mov	r3, #0
   15c20:	e50b3044 	str	r3, [fp, #-68]	; 0xffffffbc
   15c24:	e51ba044 	ldr	sl, [fp, #-68]	; 0xffffffbc
   15c28:	e796410a 	ldr	r4, [r6, sl, lsl #2]
   15c2c:	e1540008 	cmp	r4, r8
   15c30:	0a00001b 	beq	15ca4 <__qsort_r+0x1bc>
   15c34:	e1a02007 	mov	r2, r7
   15c38:	e1a01008 	mov	r1, r8
   15c3c:	e51b004c 	ldr	r0, [fp, #-76]	; 0xffffffb4
   15c40:	e1a09008 	mov	r9, r8
   15c44:	eb004491 	bl	26e90 <memcpy>
   15c48:	ea000000 	b	15c50 <__qsort_r+0x168>
   15c4c:	e1a04003 	mov	r4, r3
   15c50:	e51b3040 	ldr	r3, [fp, #-64]	; 0xffffffc0
   15c54:	e1a01007 	mov	r1, r7
   15c58:	e0440003 	sub	r0, r4, r3
   15c5c:	eb0163be 	bl	6eb5c <__aeabi_uidiv>
   15c60:	e786910a 	str	r9, [r6, sl, lsl #2]
   15c64:	e1a02007 	mov	r2, r7
   15c68:	e1a01004 	mov	r1, r4
   15c6c:	e1a05000 	mov	r5, r0
   15c70:	e1a00009 	mov	r0, r9
   15c74:	eb004485 	bl	26e90 <memcpy>
   15c78:	e7963105 	ldr	r3, [r6, r5, lsl #2]
   15c7c:	e0860105 	add	r0, r6, r5, lsl #2
   15c80:	e1a0a005 	mov	sl, r5
   15c84:	e1530008 	cmp	r3, r8
   15c88:	e1a09004 	mov	r9, r4
   15c8c:	1affffee 	bne	15c4c <__qsort_r+0x164>
   15c90:	e5804000 	str	r4, [r0]
   15c94:	e1a02007 	mov	r2, r7
   15c98:	e1a00004 	mov	r0, r4
   15c9c:	e51b104c 	ldr	r1, [fp, #-76]	; 0xffffffb4
   15ca0:	eb00447a 	bl	26e90 <memcpy>
   15ca4:	e51b3044 	ldr	r3, [fp, #-68]	; 0xffffffbc
   15ca8:	e0888007 	add	r8, r8, r7
   15cac:	e51b2048 	ldr	r2, [fp, #-72]	; 0xffffffb8
   15cb0:	e2833001 	add	r3, r3, #1
   15cb4:	e50b3044 	str	r3, [fp, #-68]	; 0xffffffbc
   15cb8:	e1520003 	cmp	r2, r3
   15cbc:	1affffd8 	bne	15c24 <__qsort_r+0x13c>
   15cc0:	e51b0054 	ldr	r0, [fp, #-84]	; 0xffffffac
   15cc4:	eb0036a8 	bl	2376c <__cfree>
   15cc8:	ea000005 	b	15ce4 <__qsort_r+0x1fc>
   15ccc:	e58d4000 	str	r4, [sp]
   15cd0:	e1a03005 	mov	r3, r5
   15cd4:	e1a02007 	mov	r2, r7
   15cd8:	e51b1048 	ldr	r1, [fp, #-72]	; 0xffffffb8
   15cdc:	e51b0040 	ldr	r0, [fp, #-64]	; 0xffffffc0
   15ce0:	eb00860c 	bl	37518 <_quicksort>
   15ce4:	e51b3050 	ldr	r3, [fp, #-80]	; 0xffffffb0
   15ce8:	e51b2028 	ldr	r2, [fp, #-40]	; 0xffffffd8
   15cec:	e5933000 	ldr	r3, [r3]
   15cf0:	e1520003 	cmp	r2, r3
   15cf4:	1a00003a 	bne	15de4 <__qsort_r+0x2fc>
   15cf8:	e24bd020 	sub	sp, fp, #32
   15cfc:	e8bd8ff0 	pop	{r4, r5, r6, r7, r8, r9, sl, fp, pc}
   15d00:	e3170003 	tst	r7, #3
   15d04:	1a000008 	bne	15d2c <__qsort_r+0x244>
   15d08:	e51b3040 	ldr	r3, [fp, #-64]	; 0xffffffc0
   15d0c:	e2133003 	ands	r3, r3, #3
   15d10:	1a000005 	bne	15d2c <__qsort_r+0x244>
   15d14:	e3570004 	cmp	r7, #4
   15d18:	0a000002 	beq	15d28 <__qsort_r+0x240>
   15d1c:	e3570008 	cmp	r7, #8
   15d20:	0a000027 	beq	15dc4 <__qsort_r+0x2dc>
   15d24:	e3a03002 	mov	r3, #2
   15d28:	e50b3038 	str	r3, [fp, #-56]	; 0xffffffc8
   15d2c:	e51b3048 	ldr	r3, [fp, #-72]	; 0xffffffb8
   15d30:	e3530001 	cmp	r3, #1
   15d34:	9affffe1 	bls	15cc0 <__qsort_r+0x1d8>
   15d38:	e24b003c 	sub	r0, fp, #60	; 0x3c
   15d3c:	e1a02003 	mov	r2, r3
   15d40:	e51b1040 	ldr	r1, [fp, #-64]	; 0xffffffc0
   15d44:	ebfffecc 	bl	1587c <msort_with_tmp.part.0>
   15d48:	e51b0054 	ldr	r0, [fp, #-84]	; 0xffffffac
   15d4c:	eb003686 	bl	2376c <__cfree>
   15d50:	eaffffe3 	b	15ce4 <__qsort_r+0x1fc>
   15d54:	e286300e 	add	r3, r6, #14
   15d58:	e3a02000 	mov	r2, #0
   15d5c:	e3c33007 	bic	r3, r3, #7
   15d60:	e50b2054 	str	r2, [fp, #-84]	; 0xffffffac
   15d64:	e04dd003 	sub	sp, sp, r3
   15d68:	e28d3008 	add	r3, sp, #8
   15d6c:	e50b302c 	str	r3, [fp, #-44]	; 0xffffffd4
   15d70:	eaffff87 	b	15b94 <__qsort_r+0xac>
   15d74:	e3a00055 	mov	r0, #85	; 0x55
   15d78:	eb0046b3 	bl	2784c <__sysconf>
   15d7c:	e3700001 	cmn	r0, #1
   15d80:	03e0320e 	mvneq	r3, #-536870912	; 0xe0000000
   15d84:	0a000003 	beq	15d98 <__qsort_r+0x2b0>
   15d88:	e2803003 	add	r3, r0, #3
   15d8c:	e3500000 	cmp	r0, #0
   15d90:	b1a00003 	movlt	r0, r3
   15d94:	e1a03140 	asr	r3, r0, #2
   15d98:	e5883004 	str	r3, [r8, #4]
   15d9c:	e3a0001e 	mov	r0, #30
   15da0:	f57ff05b 	dmb	ish
   15da4:	eb0046a8 	bl	2784c <__sysconf>
   15da8:	e1a01000 	mov	r1, r0
   15dac:	e5880000 	str	r0, [r8]
   15db0:	eaffff65 	b	15b4c <__qsort_r+0x64>
   15db4:	e51b3048 	ldr	r3, [fp, #-72]	; 0xffffffb8
   15db8:	e3530000 	cmp	r3, #0
   15dbc:	1affff95 	bne	15c18 <__qsort_r+0x130>
   15dc0:	eaffffbe 	b	15cc0 <__qsort_r+0x1d8>
   15dc4:	e51b3040 	ldr	r3, [fp, #-64]	; 0xffffffc0
   15dc8:	e3130007 	tst	r3, #7
   15dcc:	03a03001 	moveq	r3, #1
   15dd0:	050b3038 	streq	r3, [fp, #-56]	; 0xffffffc8
   15dd4:	0affffd4 	beq	15d2c <__qsort_r+0x244>
   15dd8:	eaffffd1 	b	15d24 <__qsort_r+0x23c>
   15ddc:	e1a01006 	mov	r1, r6
   15de0:	eaffff83 	b	15bf4 <__qsort_r+0x10c>
   15de4:	eb0052ff 	bl	2a9e8 <__stack_chk_fail>
   15de8:	000814d4 	.word	0x000814d4
   15dec:	000814c4 	.word	0x000814c4

00015df0 <qsort>:
   15df0:	e52de004 	push	{lr}		; (str lr, [sp, #-4]!)
   15df4:	e24dd00c 	sub	sp, sp, #12
   15df8:	e3a0c000 	mov	ip, #0
   15dfc:	e58dc000 	str	ip, [sp]
   15e00:	ebffff38 	bl	15ae8 <__qsort_r>
   15e04:	e28dd00c 	add	sp, sp, #12
   15e08:	e49df004 	pop	{pc}		; (ldr pc, [sp], #4)

00015e0c <getenv>:
   15e0c:	e92d47f0 	push	{r4, r5, r6, r7, r8, r9, sl, lr}
   15e10:	e1a06000 	mov	r6, r0
   15e14:	fa003f09 	blx	25a40 <strlen>
   15e18:	e3083548 	movw	r3, #34120	; 0x8548
   15e1c:	e3403009 	movt	r3, #9
   15e20:	e5935000 	ldr	r5, [r3]
   15e24:	e3550000 	cmp	r5, #0
   15e28:	0a000035 	beq	15f04 <getenv+0xf8>
   15e2c:	e5d62000 	ldrb	r2, [r6]
   15e30:	e3520000 	cmp	r2, #0
   15e34:	0a000030 	beq	15efc <getenv+0xf0>
   15e38:	e5d69001 	ldrb	r9, [r6, #1]
   15e3c:	e3590000 	cmp	r9, #0
   15e40:	1a00000f 	bne	15e84 <getenv+0x78>
   15e44:	e5954000 	ldr	r4, [r5]
   15e48:	e3822c3d 	orr	r2, r2, #15616	; 0x3d00
   15e4c:	e3540000 	cmp	r4, #0
   15e50:	1a000003 	bne	15e64 <getenv+0x58>
   15e54:	ea000008 	b	15e7c <getenv+0x70>
   15e58:	e5b54004 	ldr	r4, [r5, #4]!
   15e5c:	e3540000 	cmp	r4, #0
   15e60:	0a000005 	beq	15e7c <getenv+0x70>
   15e64:	e5d41001 	ldrb	r1, [r4, #1]
   15e68:	e5d43000 	ldrb	r3, [r4]
   15e6c:	e1833401 	orr	r3, r3, r1, lsl #8
   15e70:	e1520003 	cmp	r2, r3
   15e74:	1afffff7 	bne	15e58 <getenv+0x4c>
   15e78:	e2844002 	add	r4, r4, #2
   15e7c:	e1a00004 	mov	r0, r4
   15e80:	e8bd87f0 	pop	{r4, r5, r6, r7, r8, r9, sl, pc}
   15e84:	e5954000 	ldr	r4, [r5]
   15e88:	e1822409 	orr	r2, r2, r9, lsl #8
   15e8c:	e1a08000 	mov	r8, r0
   15e90:	e2866002 	add	r6, r6, #2
   15e94:	e3540000 	cmp	r4, #0
   15e98:	e2407002 	sub	r7, r0, #2
   15e9c:	e6bf9072 	sxth	r9, r2
   15ea0:	1a000003 	bne	15eb4 <getenv+0xa8>
   15ea4:	eafffff4 	b	15e7c <getenv+0x70>
   15ea8:	e5b54004 	ldr	r4, [r5, #4]!
   15eac:	e3540000 	cmp	r4, #0
   15eb0:	0afffff1 	beq	15e7c <getenv+0x70>
   15eb4:	e5d42001 	ldrb	r2, [r4, #1]
   15eb8:	e5d43000 	ldrb	r3, [r4]
   15ebc:	e1833402 	orr	r3, r3, r2, lsl #8
   15ec0:	e6bf3073 	sxth	r3, r3
   15ec4:	e1590003 	cmp	r9, r3
   15ec8:	1afffff6 	bne	15ea8 <getenv+0x9c>
   15ecc:	e1a02007 	mov	r2, r7
   15ed0:	e1a01006 	mov	r1, r6
   15ed4:	e2840002 	add	r0, r4, #2
   15ed8:	eb003f0f 	bl	25b1c <strncmp>
   15edc:	e3500000 	cmp	r0, #0
   15ee0:	1afffff0 	bne	15ea8 <getenv+0x9c>
   15ee4:	e7d43008 	ldrb	r3, [r4, r8]
   15ee8:	e353003d 	cmp	r3, #61	; 0x3d
   15eec:	1affffed 	bne	15ea8 <getenv+0x9c>
   15ef0:	e2888001 	add	r8, r8, #1
   15ef4:	e0844008 	add	r4, r4, r8
   15ef8:	eaffffdf 	b	15e7c <getenv+0x70>
   15efc:	e1a04002 	mov	r4, r2
   15f00:	eaffffdd 	b	15e7c <getenv+0x70>
   15f04:	e1a04005 	mov	r4, r5
   15f08:	eaffffdb 	b	15e7c <getenv+0x70>

00015f0c <__run_exit_handlers>:
   15f0c:	e300c000 	movw	ip, #0
   15f10:	e340c000 	movt	ip, #0
   15f14:	e35c0000 	cmp	ip, #0
   15f18:	e1a05000 	mov	r5, r0
   15f1c:	e92d4080 	push	{r7, lr}
   15f20:	e1a07002 	mov	r7, r2
   15f24:	01a0200c 	moveq	r2, ip
   15f28:	13a02001 	movne	r2, #1
   15f2c:	e1130002 	tst	r3, r2
   15f30:	e1a06001 	mov	r6, r1
   15f34:	1a00003f 	bne	16038 <__run_exit_handlers+0x12c>
   15f38:	e3068f90 	movw	r8, #28560	; 0x6f90
   15f3c:	e3408009 	movt	r8, #9
   15f40:	e5964000 	ldr	r4, [r6]
   15f44:	e3540000 	cmp	r4, #0
   15f48:	0a000013 	beq	15f9c <__run_exit_handlers+0x90>
   15f4c:	e5943004 	ldr	r3, [r4, #4]
   15f50:	e3530000 	cmp	r3, #0
   15f54:	e0841203 	add	r1, r4, r3, lsl #4
   15f58:	0a00000b 	beq	15f8c <__run_exit_handlers+0x80>
   15f5c:	e5112008 	ldr	r2, [r1, #-8]
   15f60:	e2433001 	sub	r3, r3, #1
   15f64:	e5843004 	str	r3, [r4, #4]
   15f68:	e3520003 	cmp	r2, #3
   15f6c:	0a000028 	beq	16014 <__run_exit_handlers+0x108>
   15f70:	e3520004 	cmp	r2, #4
   15f74:	0a00001e 	beq	15ff4 <__run_exit_handlers+0xe8>
   15f78:	e3520002 	cmp	r2, #2
   15f7c:	0a000014 	beq	15fd4 <__run_exit_handlers+0xc8>
   15f80:	e3530000 	cmp	r3, #0
   15f84:	e2411010 	sub	r1, r1, #16
   15f88:	1afffff3 	bne	15f5c <__run_exit_handlers+0x50>
   15f8c:	e5943000 	ldr	r3, [r4]
   15f90:	e3530000 	cmp	r3, #0
   15f94:	e5863000 	str	r3, [r6]
   15f98:	1a000023 	bne	1602c <__run_exit_handlers+0x120>
   15f9c:	e3570000 	cmp	r7, #0
   15fa0:	0a000009 	beq	15fcc <__run_exit_handlers+0xc0>
   15fa4:	e3064268 	movw	r4, #25192	; 0x6268
   15fa8:	e306626c 	movw	r6, #25196	; 0x626c
   15fac:	e3404008 	movt	r4, #8
   15fb0:	e3406008 	movt	r6, #8
   15fb4:	e1540006 	cmp	r4, r6
   15fb8:	2a000003 	bcs	15fcc <__run_exit_handlers+0xc0>
   15fbc:	e4943004 	ldr	r3, [r4], #4
   15fc0:	e12fff33 	blx	r3
   15fc4:	e1540006 	cmp	r4, r6
   15fc8:	3afffffb 	bcc	15fbc <__run_exit_handlers+0xb0>
   15fcc:	e1a00005 	mov	r0, r5
   15fd0:	eb004600 	bl	277d8 <_exit>
   15fd4:	e0843203 	add	r3, r4, r3, lsl #4
   15fd8:	e598c000 	ldr	ip, [r8]
   15fdc:	e1a00005 	mov	r0, r5
   15fe0:	e593200c 	ldr	r2, [r3, #12]
   15fe4:	e5931010 	ldr	r1, [r3, #16]
   15fe8:	e022300c 	eor	r3, r2, ip
   15fec:	e12fff33 	blx	r3
   15ff0:	eaffffd5 	b	15f4c <__run_exit_handlers+0x40>
   15ff4:	e0843203 	add	r3, r4, r3, lsl #4
   15ff8:	e598c000 	ldr	ip, [r8]
   15ffc:	e1a01005 	mov	r1, r5
   16000:	e593200c 	ldr	r2, [r3, #12]
   16004:	e5930010 	ldr	r0, [r3, #16]
   16008:	e022300c 	eor	r3, r2, ip
   1600c:	e12fff33 	blx	r3
   16010:	eaffffcd 	b	15f4c <__run_exit_handlers+0x40>
   16014:	e0843203 	add	r3, r4, r3, lsl #4
   16018:	e5982000 	ldr	r2, [r8]
   1601c:	e593300c 	ldr	r3, [r3, #12]
   16020:	e0233002 	eor	r3, r3, r2
   16024:	e12fff33 	blx	r3
   16028:	eaffffc7 	b	15f4c <__run_exit_handlers+0x40>
   1602c:	e1a00004 	mov	r0, r4
   16030:	eb0035cd 	bl	2376c <__cfree>
   16034:	eaffffc1 	b	15f40 <__run_exit_handlers+0x34>
   16038:	e320f000 	nop	{0}
   1603c:	eaffffbd 	b	15f38 <__run_exit_handlers+0x2c>

00016040 <exit>:
   16040:	e3a03001 	mov	r3, #1
   16044:	e3071094 	movw	r1, #28820	; 0x7094
   16048:	e92d4010 	push	{r4, lr}
   1604c:	e1a02003 	mov	r2, r3
   16050:	e3401009 	movt	r1, #9
   16054:	ebffffac 	bl	15f0c <__run_exit_handlers>

00016058 <__new_exitfn>:
   16058:	e92d41f0 	push	{r4, r5, r6, r7, r8, lr}
   1605c:	e3064f8c 	movw	r4, #28556	; 0x6f8c
   16060:	e3404009 	movt	r4, #9
   16064:	e24dd008 	sub	sp, sp, #8
   16068:	e30851ac 	movw	r5, #33196	; 0x81ac
   1606c:	e3405009 	movt	r5, #9
   16070:	e5942000 	ldr	r2, [r4]
   16074:	e3a03000 	mov	r3, #0
   16078:	e1a07000 	mov	r7, r0
   1607c:	e58d3000 	str	r3, [sp]
   16080:	e3a03001 	mov	r3, #1
   16084:	e58d2004 	str	r2, [sp, #4]
   16088:	e1952f9f 	ldrex	r2, [r5]
   1608c:	e3520000 	cmp	r2, #0
   16090:	1a000003 	bne	160a4 <__new_exitfn+0x4c>
   16094:	e1851f93 	strex	r1, r3, [r5]
   16098:	e3510000 	cmp	r1, #0
   1609c:	1afffff9 	bne	16088 <__new_exitfn+0x30>
   160a0:	f57ff05b 	dmb	ish
   160a4:	0a000002 	beq	160b4 <__new_exitfn+0x5c>
   160a8:	e1a00005 	mov	r0, r5
   160ac:	e58d2000 	str	r2, [sp]
   160b0:	eb0050d3 	bl	2a404 <__lll_lock_wait_private>
   160b4:	e5976000 	ldr	r6, [r7]
   160b8:	e3560000 	cmp	r6, #0
   160bc:	13a0e000 	movne	lr, #0
   160c0:	11a00006 	movne	r0, r6
   160c4:	11a0800e 	movne	r8, lr
   160c8:	0a00004c 	beq	16200 <__new_exitfn+0x1a8>
   160cc:	e5903004 	ldr	r3, [r0, #4]
   160d0:	e3530000 	cmp	r3, #0
   160d4:	0a00000e 	beq	16114 <__new_exitfn+0xbc>
   160d8:	e2432001 	sub	r2, r3, #1
   160dc:	e0801202 	add	r1, r0, r2, lsl #4
   160e0:	e5911008 	ldr	r1, [r1, #8]
   160e4:	e3510000 	cmp	r1, #0
   160e8:	1a000010 	bne	16130 <__new_exitfn+0xd8>
   160ec:	e0803203 	add	r3, r0, r3, lsl #4
   160f0:	ea000005 	b	1610c <__new_exitfn+0xb4>
   160f4:	e2433010 	sub	r3, r3, #16
   160f8:	e5131008 	ldr	r1, [r3, #-8]
   160fc:	e242c001 	sub	ip, r2, #1
   16100:	e3510000 	cmp	r1, #0
   16104:	1a00000a 	bne	16134 <__new_exitfn+0xdc>
   16108:	e1a0200c 	mov	r2, ip
   1610c:	e3520000 	cmp	r2, #0
   16110:	1afffff7 	bne	160f4 <__new_exitfn+0x9c>
   16114:	e5903000 	ldr	r3, [r0]
   16118:	e1a0e000 	mov	lr, r0
   1611c:	e5808004 	str	r8, [r0, #4]
   16120:	e3530000 	cmp	r3, #0
   16124:	0a00002a 	beq	161d4 <__new_exitfn+0x17c>
   16128:	e1a00003 	mov	r0, r3
   1612c:	eaffffe6 	b	160cc <__new_exitfn+0x74>
   16130:	e1a02003 	mov	r2, r3
   16134:	e3520020 	cmp	r2, #32
   16138:	0a00001a 	beq	161a8 <__new_exitfn+0x150>
   1613c:	e080c202 	add	ip, r0, r2, lsl #4
   16140:	e2822001 	add	r2, r2, #1
   16144:	e28cc008 	add	ip, ip, #8
   16148:	e5802004 	str	r2, [r0, #4]
   1614c:	e3081a58 	movw	r1, #35416	; 0x8a58
   16150:	e3401009 	movt	r1, #9
   16154:	e3a03001 	mov	r3, #1
   16158:	e58c3000 	str	r3, [ip]
   1615c:	e1c120d0 	ldrd	r2, [r1]
   16160:	e2922001 	adds	r2, r2, #1
   16164:	e2a33000 	adc	r3, r3, #0
   16168:	e1c120f0 	strd	r2, [r1]
   1616c:	e3a03000 	mov	r3, #0
   16170:	f57ff05b 	dmb	ish
   16174:	e1952f9f 	ldrex	r2, [r5]
   16178:	e1851f93 	strex	r1, r3, [r5]
   1617c:	e3510000 	cmp	r1, #0
   16180:	1afffffb 	bne	16174 <__new_exitfn+0x11c>
   16184:	e3520001 	cmp	r2, #1
   16188:	ca000015 	bgt	161e4 <__new_exitfn+0x18c>
   1618c:	e59d2004 	ldr	r2, [sp, #4]
   16190:	e1a0000c 	mov	r0, ip
   16194:	e5943000 	ldr	r3, [r4]
   16198:	e1520003 	cmp	r2, r3
   1619c:	1a00001f 	bne	16220 <__new_exitfn+0x1c8>
   161a0:	e28dd008 	add	sp, sp, #8
   161a4:	e8bd81f0 	pop	{r4, r5, r6, r7, r8, pc}
   161a8:	e35e0000 	cmp	lr, #0
   161ac:	11a0000e 	movne	r0, lr
   161b0:	1a000007 	bne	161d4 <__new_exitfn+0x17c>
   161b4:	e3a01f82 	mov	r1, #520	; 0x208
   161b8:	e3a00001 	mov	r0, #1
   161bc:	eb003642 	bl	23acc <__calloc>
   161c0:	e3500000 	cmp	r0, #0
   161c4:	01a0c000 	moveq	ip, r0
   161c8:	0affffe7 	beq	1616c <__new_exitfn+0x114>
   161cc:	e5806000 	str	r6, [r0]
   161d0:	e5870000 	str	r0, [r7]
   161d4:	e3a03001 	mov	r3, #1
   161d8:	e280c008 	add	ip, r0, #8
   161dc:	e5803004 	str	r3, [r0, #4]
   161e0:	eaffffd9 	b	1614c <__new_exitfn+0xf4>
   161e4:	e30801ac 	movw	r0, #33196	; 0x81ac
   161e8:	e3a01081 	mov	r1, #129	; 0x81
   161ec:	e3400009 	movt	r0, #9
   161f0:	e3a02001 	mov	r2, #1
   161f4:	e3a070f0 	mov	r7, #240	; 0xf0
   161f8:	ef000000 	svc	0x00000000
   161fc:	eaffffe2 	b	1618c <__new_exitfn+0x134>
   16200:	e3013e9c 	movw	r3, #7836	; 0x1e9c
   16204:	e3011e80 	movw	r1, #7808	; 0x1e80
   16208:	e3010e90 	movw	r0, #7824	; 0x1e90
   1620c:	e3403007 	movt	r3, #7
   16210:	e3401007 	movt	r1, #7
   16214:	e3a02064 	mov	r2, #100	; 0x64
   16218:	e3400007 	movt	r0, #7
