	.file	"arm-elf.c"
@ GNU C (GCC) version 4.7.2 (arm-elf)
@	compiled by GNU C version 4.2.1 20070719  [FreeBSD], GMP version 5.1.1, MPFR version 3.1.2, MPC version 1.0.1
@ GGC heuristics: --param ggc-min-expand=100 --param ggc-min-heapsize=131072
@ options passed:  -nostdinc -D__USES_INITFINI__ -D ___FreeBSD___
@ -D ARCH="arm-elf" arm-elf.c -auxbase-strip arm-elf.s -g -O -Wall
@ -fno-builtin -fverbose-asm -fomit-frame-pointer
@ options enabled:  -fauto-inc-dec -fbranch-count-reg
@ -fcombine-stack-adjustments -fcommon -fcompare-elim -fcprop-registers
@ -fdebug-types-section -fdefer-pop -fdelete-null-pointer-checks
@ -fdwarf2-cfi-asm -fearly-inlining -feliminate-unused-debug-types
@ -fforward-propagate -ffunction-cse -fgcse-lm -fgnu-runtime
@ -fguess-branch-probability -fident -fif-conversion -fif-conversion2
@ -finline -finline-atomics -finline-functions-called-once -fipa-profile
@ -fipa-pure-const -fipa-reference -fira-share-save-slots
@ -fira-share-spill-slots -fivopts -fkeep-static-consts
@ -fleading-underscore -fmath-errno -fmerge-constants -fmerge-debug-strings
@ -fmove-loop-invariants -fomit-frame-pointer -fpeephole
@ -fprefetch-loop-arrays -freg-struct-return
@ -fsched-critical-path-heuristic -fsched-dep-count-heuristic
@ -fsched-group-heuristic -fsched-interblock -fsched-last-insn-heuristic
@ -fsched-rank-heuristic -fsched-spec -fsched-spec-insn-heuristic
@ -fsched-stalled-insns-dep -fsection-anchors -fshow-column -fshrink-wrap
@ -fsigned-zeros -fsplit-ivs-in-unroller -fsplit-wide-types
@ -fstrict-volatile-bitfields -ftoplevel-reorder -ftrapping-math
@ -ftree-bit-ccp -ftree-ccp -ftree-ch -ftree-copy-prop -ftree-copyrename
@ -ftree-cselim -ftree-dce -ftree-dominator-opts -ftree-dse -ftree-forwprop
@ -ftree-fre -ftree-loop-if-convert -ftree-loop-im -ftree-loop-ivcanon
@ -ftree-loop-optimize -ftree-parallelize-loops= -ftree-phiprop -ftree-pta
@ -ftree-reassoc -ftree-scev-cprop -ftree-sink -ftree-slp-vectorize
@ -ftree-sra -ftree-ter -ftree-vect-loop-version -funit-at-a-time
@ -fvar-tracking -fvar-tracking-assignments -fverbose-asm
@ -fzero-initialized-in-bss -marm -mlittle-endian -msched-prolog
@ -mvectorize-with-neon-quad

	.text
.Ltext0:
	.cfi_sections	.debug_frame
	.align	2
	.global	exit
	.type	exit, %function
exit:
.LFB0:
	.file 1 "arm-elf.c"
	.loc 1 30 0
	.cfi_startproc
	@ Volatile: function does not return.
	@ args = 0, pretend = 0, frame = 0
	@ frame_needed = 0, uses_anonymous_args = 0
.LVL0:
	str	lr, [sp, #-4]!	@,
.LCFI0:
	.cfi_def_cfa_offset 4
	.cfi_offset 14, -4
	.loc 1 31 0
	bl	__exit	@
.LVL1:
	.cfi_endproc
.LFE0:
	.size	exit, .-exit
	.align	2
	.global	write1
	.type	write1, %function
write1:
.LFB1:
	.loc 1 35 0
	.cfi_startproc
	@ args = 0, pretend = 0, frame = 4
	@ frame_needed = 0, uses_anonymous_args = 0
.LVL2:
	str	lr, [sp, #-4]!	@,
.LCFI1:
	.cfi_def_cfa_offset 4
	.cfi_offset 14, -4
	sub	sp, sp, #4	@,,
.LCFI2:
	.cfi_def_cfa_offset 8
	add	r3, sp, #4	@ tmp139,,
	strb	r1, [r3, #-4]!	@ c, c
	.loc 1 36 0
	mov	r1, sp	@,
.LVL3:
	mov	r2, #1	@,
	bl	__write	@
.LVL4:
	.loc 1 37 0
	add	sp, sp, #4	@,,
	ldmfd	sp!, {pc}
	.cfi_endproc
.LFE1:
	.size	write1, .-write1
	.align	2
	.global	putchar
	.type	putchar, %function
putchar:
.LFB2:
	.loc 1 40 0
	.cfi_startproc
	@ args = 0, pretend = 0, frame = 0
	@ frame_needed = 0, uses_anonymous_args = 0
.LVL5:
	stmfd	sp!, {r4, lr}	@,
.LCFI3:
	.cfi_def_cfa_offset 8
	.cfi_offset 4, -8
	.cfi_offset 14, -4
	mov	r4, r1	@ c, c
	.loc 1 41 0
	and	r1, r1, #255	@ tmp138, c,
.LVL6:
	bl	write1	@
.LVL7:
	.loc 1 43 0
	mov	r0, r4	@, c
	ldmfd	sp!, {r4, pc}	@
	.cfi_endproc
.LFE2:
	.size	putchar, .-putchar
	.align	2
	.global	puts
	.type	puts, %function
puts:
.LFB3:
	.loc 1 46 0
	.cfi_startproc
	@ args = 0, pretend = 0, frame = 0
	@ frame_needed = 0, uses_anonymous_args = 0
.LVL8:
	stmfd	sp!, {r4, r5, lr}	@,
.LCFI4:
	.cfi_def_cfa_offset 12
	.cfi_offset 4, -12
	.cfi_offset 5, -8
	.cfi_offset 14, -4
	mov	r5, r0	@ fd, fd
	mov	r4, r1	@ str, str
	.loc 1 47 0
	ldrb	r1, [r1, #0]	@ zero_extendqisi2	@ D.960, *str_2(D)
.LVL9:
	cmp	r1, #0	@ D.960,
	beq	.L5	@,
.LVL10:
.L6:
	.loc 1 48 0 discriminator 2
	mov	r0, r5	@, fd
	bl	putchar	@
.LVL11:
	.loc 1 47 0 discriminator 2
	ldrb	r1, [r4, #1]!	@ zero_extendqisi2	@ D.960, MEM[base: D.996_12, offset: 1B]
	cmp	r1, #0	@ D.960,
	bne	.L6	@,
.L5:
	.loc 1 50 0
	mov	r0, #0	@,
	ldmfd	sp!, {r4, r5, pc}	@
	.cfi_endproc
.LFE3:
	.size	puts, .-puts
	.align	2
	.global	putxval
	.type	putxval, %function
putxval:
.LFB4:
	.loc 1 83 0
	.cfi_startproc
	@ args = 0, pretend = 0, frame = 20
	@ frame_needed = 0, uses_anonymous_args = 0
.LVL12:
	stmfd	sp!, {r4, lr}	@,
.LCFI5:
	.cfi_def_cfa_offset 8
	.cfi_offset 4, -8
	.cfi_offset 14, -4
	sub	sp, sp, #20	@,,
.LCFI6:
	.cfi_def_cfa_offset 28
.LVL13:
	.loc 1 88 0
	mov	r3, #0	@ tmp150,
	strb	r3, [sp, #16]	@ tmp150, MEM[(char *)&buf + 16B]
.LVL14:
	.loc 1 90 0
	mov	ip, r2	@ column, column
	mov	r3, r1	@ value, value
	cmp	r2, #0	@ column,
	cmpeq	r1, #0	@, value,
	.loc 1 91 0
	addeq	ip, r2, #1	@ column, column,
.LVL15:
	.loc 1 88 0
	add	r1, sp, #15	@ p,,
.LVL16:
	.loc 1 94 0
	ldr	r4, .L16	@ tmp172,
	b	.L15	@
.L12:
	and	lr, r3, #15	@ tmp160, value,
	ldrb	lr, [r4, lr]	@ zero_extendqisi2	@ tmp161,
	strb	lr, [r1], #-1	@ tmp161, MEM[base: p_3, offset: 0B]
.LVL17:
	.loc 1 95 0
	mov	r3, r3, lsr #4	@ value, value,
.LVL18:
	.loc 1 96 0
	cmp	r2, #0	@ D.954,
	subne	ip, ip, #1	@ column, column,
.LVL19:
.L15:
	.loc 1 93 0 discriminator 1
	adds	r2, ip, #0	@ D.954, column,
	movne	r2, #1	@ D.954,
	cmp	ip, #0	@ column,
	cmpeq	r3, #0	@, value,
	bne	.L12	@,
	.loc 1 99 0
	add	r1, r1, #1	@, p,
.LVL20:
	bl	puts	@
.LVL21:
	.loc 1 102 0
	mov	r0, #0	@,
	add	sp, sp, #20	@,,
	ldmfd	sp!, {r4, pc}
.L17:
	.align	2
.L16:
	.word	.LC0
	.cfi_endproc
.LFE4:
	.size	putxval, .-putxval
	.align	2
	.global	main
	.type	main, %function
main:
.LFB5:
	.loc 1 105 0
	.cfi_startproc
	@ args = 0, pretend = 0, frame = 0
	@ frame_needed = 0, uses_anonymous_args = 0
	str	lr, [sp, #-4]!	@,
.LCFI7:
	.cfi_def_cfa_offset 4
	.cfi_offset 14, -4
.LVL22:
	.loc 1 107 0
	mov	r0, #1	@,
	ldr	r1, .L19	@,
	bl	puts	@
.LVL23:
	.loc 1 108 0
	mov	r0, #1	@,
	ldr	r3, .L19+4	@ tmp138,
	ldr	r1, [r3, #0]	@, data_value
	mov	r2, #0	@,
	bl	putxval	@
.LVL24:
	.loc 1 109 0
	mov	r0, #1	@,
	ldr	r1, .L19+8	@,
	bl	puts	@
.LVL25:
	.loc 1 110 0
	mov	r0, #0	@,
	bl	exit	@
.LVL26:
.L20:
	.align	2
.L19:
	.word	.LC1
	.word	.LANCHOR0
	.word	.LC2
	.cfi_endproc
.LFE5:
	.size	main, .-main
	.comm	bss_value,4,4
	.global	data_value
	.data
	.align	2
	.set	.LANCHOR0,. + 0
	.type	data_value, %object
	.size	data_value, 4
data_value:
	.word	-1414661426
	.section	.rodata.str1.4,"aMS",%progbits,1
	.align	2
.LC0:
	.ascii	"0123456789abcdef\000"
	.space	3
.LC1:
	.ascii	"Hello World! \000"
	.space	2
.LC2:
	.ascii	" This architecture is arm-elf\012\000"
	.text
.Letext0:
	.file 2 "syscall.h"