	.file	"arm16-elf.c"
@ GNU C (GCC) version 4.7.2 (arm-elf)
@	compiled by GNU C version 4.2.1 20070719  [FreeBSD], GMP version 5.1.1, MPFR version 3.1.2, MPC version 1.0.1
@ GGC heuristics: --param ggc-min-expand=100 --param ggc-min-heapsize=131072
@ options passed:  -nostdinc -D__USES_INITFINI__ -D ___FreeBSD___
@ -D ARCH="arm16-elf" arm16-elf.c -mthumb -mthumb-interwork
@ -auxbase-strip arm16-elf.s -g -O -Wall -fno-builtin -fverbose-asm
@ -fomit-frame-pointer
@ options enabled:  -fauto-inc-dec -fbranch-count-reg
@ -fcombine-stack-adjustments -fcommon -fcompare-elim -fcprop-registers
@ -fdebug-types-section -fdefer-pop -fdelete-null-pointer-checks
@ -fdwarf2-cfi-asm -fearly-inlining -feliminate-unused-debug-types
@ -fforward-propagate -ffunction-cse -fgcse-lm -fgnu-runtime
@ -fguess-branch-probability -fident -fif-conversion -fif-conversion2
@ -finline -finline-atomics -finline-functions-called-once -fipa-profile
@ -fipa-pure-const -fipa-reference -fira-share-save-slots
@ -fira-share-spill-slots -fivopts -fkeep-static-consts
@ -fleading-underscore -fmath-errno -fmerge-constants -fmerge-debug-strings
@ -fmove-loop-invariants -fomit-frame-pointer -fpeephole
@ -fprefetch-loop-arrays -freg-struct-return
@ -fsched-critical-path-heuristic -fsched-dep-count-heuristic
@ -fsched-group-heuristic -fsched-interblock -fsched-last-insn-heuristic
@ -fsched-rank-heuristic -fsched-spec -fsched-spec-insn-heuristic
@ -fsched-stalled-insns-dep -fsection-anchors -fshow-column -fshrink-wrap
@ -fsigned-zeros -fsplit-ivs-in-unroller -fsplit-wide-types
@ -fstrict-volatile-bitfields -ftoplevel-reorder -ftrapping-math
@ -ftree-bit-ccp -ftree-ccp -ftree-ch -ftree-copy-prop -ftree-copyrename
@ -ftree-cselim -ftree-dce -ftree-dominator-opts -ftree-dse -ftree-forwprop
@ -ftree-fre -ftree-loop-if-convert -ftree-loop-im -ftree-loop-ivcanon
@ -ftree-loop-optimize -ftree-parallelize-loops= -ftree-phiprop -ftree-pta
@ -ftree-reassoc -ftree-scev-cprop -ftree-sink -ftree-slp-vectorize
@ -ftree-sra -ftree-ter -ftree-vect-loop-version -funit-at-a-time
@ -fvar-tracking -fvar-tracking-assignments -fverbose-asm
@ -fzero-initialized-in-bss -mlittle-endian -msched-prolog -mthumb
@ -mthumb-interwork -mvectorize-with-neon-quad

	.text
.Ltext0:
	.cfi_sections	.debug_frame
	.align	2
	.global	exit
	.code	16
	.thumb_func
	.type	exit, %function
exit:
.LFB0:
	.file 1 "arm16-elf.c"
	.loc 1 30 0
	.cfi_startproc
.LVL0:
	push	{lr}	@
.LCFI0:
	.cfi_def_cfa_offset 4
	.cfi_offset 14, -4
	.loc 1 31 0
	bl	__exit	@
.LVL1:
	.cfi_endproc
.LFE0:
	.size	exit, .-exit
	.align	2
	.global	write1
	.code	16
	.thumb_func
	.type	write1, %function
write1:
.LFB1:
	.loc 1 35 0
	.cfi_startproc
.LVL2:
	push	{lr}	@
.LCFI1:
	.cfi_def_cfa_offset 4
	.cfi_offset 14, -4
	sub	sp, sp, #4	@,,
.LCFI2:
	.cfi_def_cfa_offset 8
	mov	r3, sp	@,
	strb	r1, [r3]	@ c, c
	.loc 1 36 0
	mov	r1, sp	@,
.LVL3:
	mov	r2, #1	@,
	bl	__write	@
.LVL4:
	.loc 1 37 0
	add	sp, sp, #4	@,,
	@ sp needed for prologue	@
	pop	{r1}
	bx	r1
	.cfi_endproc
.LFE1:
	.size	write1, .-write1
	.align	2
	.global	putchar
	.code	16
	.thumb_func
	.type	putchar, %function
putchar:
.LFB2:
	.loc 1 40 0
	.cfi_startproc
.LVL5:
	push	{r4, lr}	@
.LCFI3:
	.cfi_def_cfa_offset 8
	.cfi_offset 4, -8
	.cfi_offset 14, -4
	mov	r4, r1	@ c, c
	.loc 1 41 0
	mov	r1, #255	@ tmp138,
.LVL6:
	and	r1, r4	@ tmp139, c
	bl	write1	@
.LVL7:
	.loc 1 43 0
	mov	r0, r4	@, c
	@ sp needed for prologue	@
.LVL8:
	pop	{r4}
	pop	{r1}
	bx	r1
	.cfi_endproc
.LFE2:
	.size	putchar, .-putchar
	.align	2
	.global	puts
	.code	16
	.thumb_func
	.type	puts, %function
puts:
.LFB3:
	.loc 1 46 0
	.cfi_startproc
.LVL9:
	push	{r4, r5, lr}	@
.LCFI4:
	.cfi_def_cfa_offset 12
	.cfi_offset 4, -12
	.cfi_offset 5, -8
	.cfi_offset 14, -4
	mov	r5, r0	@ fd, fd
	mov	r4, r1	@ str, str
	.loc 1 47 0
	ldrb	r1, [r1]	@ D.960, *str_2(D)
.LVL10:
	cmp	r1, #0	@ D.960,
	beq	.L5	@,
.LVL11:
.L7:
	.loc 1 48 0 discriminator 2
	mov	r0, r5	@, fd
	bl	putchar	@
.LVL12:
	.loc 1 47 0 discriminator 2
	add	r4, r4, #1	@ str,
.LVL13:
	ldrb	r1, [r4]	@ D.960, MEM[base: str_7, offset: 0B]
	cmp	r1, #0	@ D.960,
	bne	.L7	@,
.L5:
	.loc 1 50 0
	mov	r0, #0	@,
	@ sp needed for prologue	@
.LVL14:
.LVL15:
	pop	{r4, r5}
	pop	{r1}
	bx	r1
	.cfi_endproc
.LFE3:
	.size	puts, .-puts
	.align	2
	.global	putxval
	.code	16
	.thumb_func
	.type	putxval, %function
putxval:
.LFB4:
	.loc 1 83 0
	.cfi_startproc
.LVL16:
	push	{r4, r5, r6, r7, lr}	@
.LCFI5:
	.cfi_def_cfa_offset 20
	.cfi_offset 4, -20
	.cfi_offset 5, -16
	.cfi_offset 6, -12
	.cfi_offset 7, -8
	.cfi_offset 14, -4
	sub	sp, sp, #20	@,,
.LCFI6:
	.cfi_def_cfa_offset 40
.LVL17:
	.loc 1 88 0
	mov	r4, #0	@ tmp151,
	add	r3, sp, #16	@ tmp150,,
.LVL18:
	strb	r4, [r3]	@ tmp151, MEM[(char *)&buf + 16B]
.LVL19:
	.loc 1 90 0
	cmp	r2, #0	@ column,
	bne	.L10	@,
	.loc 1 91 0
	neg	r3, r1	@ tmp180, value
	adc	r3, r3, r1	@ tmp180, value
	add	r2, r2, r3	@ column, column, tmp180
.LVL20:
.L10:
	.loc 1 88 0 discriminator 1
	mov	r3, sp	@ p,
	add	r3, r3, #15	@ p,
	.loc 1 94 0 discriminator 1
	ldr	r7, .L15	@ tmp185,
	mov	r6, #15	@ tmp186,
	b	.L14	@
.LVL21:
.L13:
	.loc 1 94 0 is_stmt 0
	mov	r5, r6	@ tmp165, tmp186
	and	r5, r1	@ tmp165, value
	ldrb	r5, [r7, r5]	@ tmp166,
	strb	r5, [r3]	@ tmp166, MEM[base: p_3, offset: 0B]
	sub	r3, r3, #1	@ p,
.LVL22:
	.loc 1 95 0 is_stmt 1
	lsr	r1, r1, #4	@ value, value,
.LVL23:
	.loc 1 96 0
	sub	r5, r4, #1	@ tmp184, D.954
	sbc	r4, r4, r5	@ tmp183, D.954, tmp184
	sub	r2, r2, r4	@ column, column, tmp183
.LVL24:
.L14:
	.loc 1 93 0 discriminator 1
	mov	r4, r2	@ D.954, column
	sub	r5, r4, #1	@ tmp170, D.954
	sbc	r4, r4, r5	@ D.954, D.954, tmp170
	cmp	r4, #0	@ D.954,
	bne	.L13	@,
	cmp	r1, #0	@ value,
	bne	.L13	@,
	.loc 1 99 0
	add	r1, r3, #1	@ tmp177, p,
.LVL25:
	bl	puts	@
.LVL26:
	.loc 1 102 0
	mov	r0, #0	@,
	add	sp, sp, #20	@,,
	@ sp needed for prologue	@
	pop	{r4, r5, r6, r7}
	pop	{r1}
	bx	r1
.L16:
	.align	2
.L15:
	.word	.LC2
	.cfi_endproc
.LFE4:
	.size	putxval, .-putxval
	.align	2
	.global	main
	.code	16
	.thumb_func
	.type	main, %function
main:
.LFB5:
	.loc 1 105 0
	.cfi_startproc
	push	{lr}	@
.LCFI7:
	.cfi_def_cfa_offset 4
	.cfi_offset 14, -4
.LVL27:
	.loc 1 107 0
	mov	r0, #1	@,
	ldr	r1, .L18	@,
	bl	puts	@
.LVL28:
	.loc 1 108 0
	ldr	r3, .L18+4	@ tmp138,
	ldr	r1, [r3]	@ data_value, data_value
	mov	r0, #1	@,
	mov	r2, #0	@,
	bl	putxval	@
.LVL29:
	.loc 1 109 0
	mov	r0, #1	@,
	ldr	r1, .L18+8	@,
	bl	puts	@
.LVL30:
	.loc 1 110 0
	mov	r0, #0	@,
	bl	exit	@
.LVL31:
.L19:
	.align	2
.L18:
	.word	.LC4
	.word	.LANCHOR0
	.word	.LC7
	.cfi_endproc
.LFE5:
	.size	main, .-main
	.comm	bss_value,4,4
	.global	data_value
	.data
	.align	2
	.set	.LANCHOR0,. + 0
	.type	data_value, %object
	.size	data_value, 4
data_value:
	.word	-1414661426
	.section	.rodata.str1.4,"aMS",%progbits,1
	.align	2
.LC2:
	.ascii	"0123456789abcdef\000"
	.space	3
.LC4:
	.ascii	"Hello World! \000"
	.space	2
.LC7:
	.ascii	" This architecture is arm16-elf\012\000"
	.text
.Letext0:
	.file 2 "syscall.h"