	.file	"i386-elf.c"
	.text
.Ltext0:
	.globl	exit
	.type	exit, @function
exit:
.LFB0:
	.file 1 "i386-elf.c"
	.loc 1 30 0
	.cfi_startproc
.LVL0:
	subl	$28, %esp
.LCFI0:
	.cfi_def_cfa_offset 32
	.loc 1 31 0
	movl	32(%esp), %eax
	movl	%eax, (%esp)
	call	__exit
.LVL1:
	.cfi_endproc
.LFE0:
	.size	exit, .-exit
	.globl	write1
	.type	write1, @function
write1:
.LFB1:
	.loc 1 35 0
	.cfi_startproc
.LVL2:
	subl	$44, %esp
.LCFI1:
	.cfi_def_cfa_offset 48
	movl	52(%esp), %eax
	movb	%al, 28(%esp)
	.loc 1 36 0
	movl	$1, 8(%esp)
	leal	28(%esp), %eax
	movl	%eax, 4(%esp)
	movl	48(%esp), %eax
	movl	%eax, (%esp)
	call	__write
.LVL3:
	.loc 1 37 0
	addl	$44, %esp
.LCFI2:
	.cfi_def_cfa_offset 4
	ret
	.cfi_endproc
.LFE1:
	.size	write1, .-write1
	.globl	putchar
	.type	putchar, @function
putchar:
.LFB2:
	.loc 1 40 0
	.cfi_startproc
.LVL4:
	subl	$28, %esp
.LCFI3:
	.cfi_def_cfa_offset 32
	.loc 1 41 0
	movzbl	36(%esp), %eax
	movl	%eax, 4(%esp)
	movl	32(%esp), %eax
	movl	%eax, (%esp)
	call	write1
.LVL5:
	.loc 1 43 0
	movl	36(%esp), %eax
	addl	$28, %esp
.LCFI4:
	.cfi_def_cfa_offset 4
	ret
	.cfi_endproc
.LFE2:
	.size	putchar, .-putchar
	.globl	puts
	.type	puts, @function
puts:
.LFB3:
	.loc 1 46 0
	.cfi_startproc
.LVL6:
	pushl	%esi
.LCFI5:
	.cfi_def_cfa_offset 8
	.cfi_offset 6, -8
	pushl	%ebx
.LCFI6:
	.cfi_def_cfa_offset 12
	.cfi_offset 3, -12
	subl	$20, %esp
.LCFI7:
	.cfi_def_cfa_offset 32
	movl	32(%esp), %esi
	movl	36(%esp), %ebx
.LVL7:
	.loc 1 47 0
	movb	(%ebx), %al
	testb	%al, %al
	je	.L8
.L10:
	.loc 1 48 0 discriminator 2
	movsbl	%al, %eax
	movl	%eax, 4(%esp)
	movl	%esi, (%esp)
	call	putchar
.LVL8:
	.loc 1 47 0 discriminator 2
	incl	%ebx
.LVL9:
	movb	(%ebx), %al
	testb	%al, %al
	jne	.L10
.L8:
	.loc 1 50 0
	movl	$0, %eax
	addl	$20, %esp
.LCFI8:
	.cfi_def_cfa_offset 12
	popl	%ebx
.LCFI9:
	.cfi_restore 3
	.cfi_def_cfa_offset 8
.LVL10:
	popl	%esi
.LCFI10:
	.cfi_restore 6
	.cfi_def_cfa_offset 4
	ret
	.cfi_endproc
.LFE3:
	.size	puts, .-puts
	.section	.rodata.str1.1,"aMS",@progbits,1
.LC0:
	.string	"0123456789abcdef"
	.text
	.globl	putxval
	.type	putxval, @function
putxval:
.LFB4:
	.loc 1 83 0
	.cfi_startproc
.LVL11:
	pushl	%ebx
.LCFI11:
	.cfi_def_cfa_offset 8
	.cfi_offset 3, -8
	subl	$56, %esp
.LCFI12:
	.cfi_def_cfa_offset 64
	movl	68(%esp), %edx
	movl	72(%esp), %ecx
.LVL12:
	.loc 1 88 0
	movb	$0, 47(%esp)
.LVL13:
	.loc 1 90 0
	testl	%edx, %edx
	jne	.L14
	.loc 1 90 0 is_stmt 0 discriminator 1
	testl	%ecx, %ecx
	jne	.L14
	.loc 1 91 0 is_stmt 1
	movb	$1, %cl
.L14:
	.loc 1 82 0 discriminator 1
	leal	45(%esp), %eax
	jmp	.L15
.LVL14:
.L17:
	.loc 1 94 0
	movl	%edx, %ebx
.LVL15:
	andl	$15, %ebx
	movb	.LC0(%ebx), %bl
	movb	%bl, 1(%eax)
.LVL16:
	.loc 1 95 0
	shrl	$4, %edx
.LVL17:
	.loc 1 96 0
	testl	%ecx, %ecx
	je	.L16
.LVL18:
.L19:
	.loc 1 96 0 is_stmt 0 discriminator 1
	decl	%ecx
.LVL19:
.L16:
	decl	%eax
.LVL20:
.L15:
	.loc 1 82 0 is_stmt 1 discriminator 1
	leal	1(%eax), %ebx
.LVL21:
	.loc 1 93 0 discriminator 1
	testl	%edx, %edx
	jne	.L17
	.loc 1 93 0 is_stmt 0 discriminator 2
	testl	%ecx, %ecx
	je	.L22
	.loc 1 94 0 is_stmt 1
	movb	$48, 1(%eax)
.LVL22:
	jmp	.L19
.LVL23:
.L22:
	.loc 1 99 0
	incl	%ebx
.LVL24:
	movl	%ebx, 4(%esp)
	movl	64(%esp), %eax
	movl	%eax, (%esp)
	call	puts
.LVL25:
	.loc 1 102 0
	movl	$0, %eax
	addl	$56, %esp
.LCFI13:
	.cfi_def_cfa_offset 8
	popl	%ebx
.LCFI14:
	.cfi_restore 3
	.cfi_def_cfa_offset 4
.LVL26:
	ret
	.cfi_endproc
.LFE4:
	.size	putxval, .-putxval
	.section	.rodata.str1.1
.LC1:
	.string	"Hello World! "
	.section	.rodata.str1.4,"aMS",@progbits,1
	.align 4
.LC2:
	.string	" This architecture is i386-elf\n"
	.text
	.globl	main
	.type	main, @function
main:
.LFB5:
	.loc 1 105 0
	.cfi_startproc
	pushl	%ebp
.LCFI15:
	.cfi_def_cfa_offset 8
	.cfi_offset 5, -8
	movl	%esp, %ebp
.LCFI16:
	.cfi_def_cfa_register 5
	andl	$-16, %esp
	subl	$16, %esp
.LVL27:
	.loc 1 107 0
	movl	$.LC1, 4(%esp)
	movl	$1, (%esp)
	call	puts
.LVL28:
	.loc 1 108 0
	movl	$0, 8(%esp)
	movl	data_value, %eax
	movl	%eax, 4(%esp)
	movl	$1, (%esp)
	call	putxval
.LVL29:
	.loc 1 109 0
	movl	$.LC2, 4(%esp)
	movl	$1, (%esp)
	call	puts
.LVL30:
	.loc 1 110 0
	movl	$0, (%esp)
	call	exit
.LVL31:
	.cfi_endproc
.LFE5:
	.size	main, .-main
	.comm	bss_value,4,4
	.globl	data_value
	.data
	.align 4
	.type	data_value, @object
	.size	data_value, 4
data_value:
	.long	-1414661426
	.text
.Letext0:
	.file 2 "syscall.h"