
mips16-elf.x:     file format elf32-bigmips


Disassembly of section .text:

80000000 <_start>:
80000000:	b214      	lw	v0,80000050 <_stack_addr>
80000002:	65ba      	move	sp,v0
80000004:	b214      	lw	v0,80000054 <_gp_addr>
80000006:	1800 0045 	jal	80000114 <main>
8000000a:	659a      	move	gp,v0
8000000c:	6500      	nop
8000000e:	6782      	move	a0,v0

80000010 <__exit>:
80000010:	03ff000d 	break	0x3ff
80000014:	e8206500 	swc2	$0,25856(at)
80000018:	65006500 	0x65006500

8000001c <__read>:
8000001c:	00000385 	0x385
80000020:	e8206500 	swc2	$0,25856(at)
80000024:	65006500 	0x65006500

80000028 <__write>:
80000028:	00000405 	0x405
8000002c:	e8206500 	swc2	$0,25856(at)
80000030:	65006500 	0x65006500

80000034 <__open>:
80000034:	00000305 	0x305
80000038:	e8206500 	swc2	$0,25856(at)
8000003c:	65006500 	0x65006500

80000040 <__close>:
80000040:	00000505 	0x505
80000044:	e8206500 	swc2	$0,25856(at)
80000048:	65006500 	0x65006500
8000004c:	65006500 	0x65006500

80000050 <_stack_addr>:
80000050:	80000810 	lb	zero,2064(zero)

80000054 <_gp_addr>:
80000054:	80000400 	lb	zero,1024(zero)
80000058:	65006500 	0x65006500
8000005c:	65006500 	0x65006500

80000060 <exit>:
80000060:	63fd      	addiu	sp,-24
80000062:	6205      	sw	ra,20(sp)
80000064:	1c00 0004 	jalx	80000010 <__exit>
80000068:	6500      	nop
8000006a:	6500      	nop

8000006c <write1>:
8000006c:	63fd      	addiu	sp,-24
8000006e:	6205      	sw	ra,20(sp)
80000070:	675d      	move	v0,sp
80000072:	c2bc      	sb	a1,28(v0)
80000074:	0507      	addiu	a1,sp,28
80000076:	1c00 000a 	jalx	80000028 <__write>
8000007a:	6e01      	li	a2,1
8000007c:	9705      	lw	a3,20(sp)
8000007e:	ef00      	jr	a3
80000080:	6303      	addiu	sp,24
80000082:	6500      	nop

80000084 <putchar>:
80000084:	63fd      	addiu	sp,-24
80000086:	6205      	sw	ra,20(sp)
80000088:	d004      	sw	s0,16(sp)
8000008a:	6705      	move	s0,a1
8000008c:	6dff      	li	a1,255
8000008e:	1800 001b 	jal	8000006c <write1>
80000092:	ed0c      	and	a1,s0
80000094:	6750      	move	v0,s0
80000096:	9705      	lw	a3,20(sp)
80000098:	9004      	lw	s0,16(sp)
8000009a:	ef00      	jr	a3
8000009c:	6303      	addiu	sp,24
8000009e:	6500      	nop

800000a0 <puts>:
800000a0:	63fc      	addiu	sp,-32
800000a2:	6207      	sw	ra,28(sp)
800000a4:	d106      	sw	s1,24(sp)
800000a6:	d005      	sw	s0,20(sp)
800000a8:	6724      	move	s1,a0
800000aa:	6705      	move	s0,a1
800000ac:	85a0      	lb	a1,0(a1)
800000ae:	2506      	beqz	a1,800000bc <puts+0x1c>
800000b0:	1800 0021 	jal	80000084 <putchar>
800000b4:	6791      	move	a0,s1
800000b6:	4801      	addiu	s0,1
800000b8:	80a0      	lb	a1,0(s0)
800000ba:	2dfa      	bnez	a1,800000b0 <puts+0x10>
800000bc:	6a00      	li	v0,0
800000be:	9707      	lw	a3,28(sp)
800000c0:	9106      	lw	s1,24(sp)
800000c2:	9005      	lw	s0,20(sp)
800000c4:	ef00      	jr	a3
800000c6:	6304      	addiu	sp,32

800000c8 <putxval>:
800000c8:	63fa      	addiu	sp,-48
800000ca:	620b      	sw	ra,44(sp)
800000cc:	6a00      	li	v0,0
800000ce:	677d      	move	v1,sp
800000d0:	f020 c340 	sb	v0,32(v1)
800000d4:	2d02      	bnez	a1,800000da <putxval+0x12>
800000d6:	2e01      	bnez	a2,800000da <putxval+0x12>
800000d8:	6e01      	li	a2,1
800000da:	f000 021e 	addiu	v0,sp,30
800000de:	100a      	b	800000f4 <putxval+0x2c>
800000e0:	6b0f      	li	v1,15
800000e2:	ebac      	and	v1,a1
800000e4:	b70b      	lw	a3,80000110 <putxval+0x48>
800000e6:	e76d      	addu	v1,a3,v1
800000e8:	a360      	lbu	v1,0(v1)
800000ea:	c261      	sb	v1,1(v0)
800000ec:	35b2      	srl	a1,4
800000ee:	2601      	beqz	a2,800000f2 <putxval+0x2a>
800000f0:	4eff      	addiu	a2,-1
800000f2:	4aff      	addiu	v0,-1
800000f4:	4261      	addiu	v1,v0,1
800000f6:	2df4      	bnez	a1,800000e0 <putxval+0x18>
800000f8:	2603      	beqz	a2,80000100 <putxval+0x38>
800000fa:	6b30      	li	v1,48
800000fc:	c261      	sb	v1,1(v0)
800000fe:	17f8      	b	800000f0 <putxval+0x28>
80000100:	1800 0028 	jal	800000a0 <puts>
80000104:	43a1      	addiu	a1,v1,1
80000106:	6a00      	li	v0,0
80000108:	970b      	lw	a3,44(sp)
8000010a:	ef00      	jr	a3
8000010c:	6306      	addiu	sp,48
8000010e:	6500      	nop
80000110:	8000      	lb	s0,0(s0)
80000112:	0144      	addiu	s1,sp,272

80000114 <main>:
80000114:	63fd      	addiu	sp,-24
80000116:	6205      	sw	ra,20(sp)
80000118:	b509      	lw	a1,8000013c <main+0x28>
8000011a:	1800 0028 	jal	800000a0 <puts>
8000011e:	6c01      	li	a0,1
80000120:	6c01      	li	a0,1
80000122:	675c      	move	v0,gp
80000124:	f000 9aa0 	lw	a1,0(v0)
80000128:	1800 0032 	jal	800000c8 <putxval>
8000012c:	6e00      	li	a2,0
8000012e:	b505      	lw	a1,80000140 <main+0x2c>
80000130:	1800 0028 	jal	800000a0 <puts>
80000134:	6c01      	li	a0,1
80000136:	1800 0018 	jal	80000060 <exit>
8000013a:	6c00      	li	a0,0
8000013c:	8000      	lb	s0,0(s0)
8000013e:	0158      	addiu	s1,sp,352
80000140:	8000      	lb	s0,0(s0)
80000142:	0168      	addiu	s1,sp,416
