	.section .mdebug.abi32
	.previous
	.gnu_attribute 4, 1

 # -G value = 8, Arch = mips1, ISA = 1
 # GNU C (GCC) version 4.7.2 (mips-elf)
 #	compiled by GNU C version 4.2.1 20070719  [FreeBSD], GMP version 5.1.1, MPFR version 3.1.2, MPC version 1.0.1
 # GGC heuristics: --param ggc-min-expand=100 --param ggc-min-heapsize=131072
 # options passed:  -nostdinc -D ___FreeBSD___ -D ARCH="mips-elf"
 # mips-elf.c -mno-synci -auxbase-strip mips-elf.s -g -O -Wall -fno-builtin
 # -fverbose-asm -fomit-frame-pointer
 # options enabled:  -fauto-inc-dec -fbranch-count-reg
 # -fcombine-stack-adjustments -fcommon -fcompare-elim -fcprop-registers
 # -fdebug-types-section -fdefer-pop -fdelayed-branch
 # -fdelete-null-pointer-checks -fdwarf2-cfi-asm -fearly-inlining
 # -feliminate-unused-debug-types -fforward-propagate -ffunction-cse
 # -fgcse-lm -fgnu-runtime -fguess-branch-probability -fident
 # -fif-conversion -fif-conversion2 -finline -finline-atomics
 # -finline-functions-called-once -fipa-profile -fipa-pure-const
 # -fipa-reference -fira-share-save-slots -fira-share-spill-slots -fivopts
 # -fkeep-static-consts -fleading-underscore -fmath-errno -fmerge-constants
 # -fmerge-debug-strings -fmove-loop-invariants -fomit-frame-pointer
 # -fpcc-struct-return -fpeephole -fprefetch-loop-arrays
 # -fsched-critical-path-heuristic -fsched-dep-count-heuristic
 # -fsched-group-heuristic -fsched-interblock -fsched-last-insn-heuristic
 # -fsched-rank-heuristic -fsched-spec -fsched-spec-insn-heuristic
 # -fsched-stalled-insns-dep -fshow-column -fshrink-wrap -fsigned-zeros
 # -fsplit-ivs-in-unroller -fsplit-wide-types -fstrict-volatile-bitfields
 # -ftoplevel-reorder -ftrapping-math -ftree-bit-ccp -ftree-ccp -ftree-ch
 # -ftree-copy-prop -ftree-copyrename -ftree-cselim -ftree-dce
 # -ftree-dominator-opts -ftree-dse -ftree-forwprop -ftree-fre
 # -ftree-loop-if-convert -ftree-loop-im -ftree-loop-ivcanon
 # -ftree-loop-optimize -ftree-parallelize-loops= -ftree-phiprop -ftree-pta
 # -ftree-reassoc -ftree-scev-cprop -ftree-sink -ftree-slp-vectorize
 # -ftree-sra -ftree-ter -ftree-vect-loop-version -funit-at-a-time
 # -fvar-tracking -fvar-tracking-assignments -fverbose-asm
 # -fzero-initialized-in-bss -mcheck-zero-division -mdivide-traps
 # -mdouble-float -meb -mexplicit-relocs -mextern-sdata -mfp-exceptions
 # -mfp32 -mfused-madd -mgp32 -mgpopt -mhard-float -mlocal-sdata -mlong32
 # -mno-mdmx -mno-mips16 -mno-mips3d -mshared

	.text
$Ltext0:
	.cfi_sections	.debug_frame
	.align	2
	.globl	exit
$LFB0 = .
	.file 1 "mips-elf.c"
	.loc 1 30 0
	.cfi_startproc
	.set	nomips16
	.ent	exit
	.type	exit, @function
exit:
	.frame	$sp,24,$31		# vars= 0, regs= 1/0, args= 16, gp= 0
	.mask	0x80000000,-4
	.fmask	0x00000000,0
	.set	noreorder
	.set	nomacro
$LVL0 = .
	addiu	$sp,$sp,-24	 #,,
$LCFI0 = .
	.cfi_def_cfa_offset 24
	sw	$31,20($sp)	 #,
	.cfi_offset 31, -4
	.loc 1 31 0
	jal	__exit
	nop
	 #
$LVL1 = .
	.set	macro
	.set	reorder
	.end	exit
	.cfi_endproc
$LFE0:
	.size	exit, .-exit
	.align	2
	.globl	write1
$LFB1 = .
	.loc 1 35 0
	.cfi_startproc
	.set	nomips16
	.ent	write1
	.type	write1, @function
write1:
	.frame	$sp,24,$31		# vars= 0, regs= 1/0, args= 16, gp= 0
	.mask	0x80000000,-4
	.fmask	0x00000000,0
	.set	noreorder
	.set	nomacro
$LVL2 = .
	addiu	$sp,$sp,-24	 #,,
$LCFI1 = .
	.cfi_def_cfa_offset 24
	sw	$31,20($sp)	 #,
	.cfi_offset 31, -4
	sb	$5,28($sp)	 # c, c
	.loc 1 36 0
	addiu	$5,$sp,28	 #,,
$LVL3 = .
	jal	__write	 #
	li	$6,1			# 0x1	 #,

$LVL4 = .
	.loc 1 37 0
	lw	$31,20($sp)	 #,
	nop
	j	$31	 #
	addiu	$sp,$sp,24	 #,,

$LCFI2 = .
	.cfi_def_cfa_offset 0
	.cfi_restore 31
	.set	macro
	.set	reorder
	.end	write1
	.cfi_endproc
$LFE1:
	.size	write1, .-write1
	.align	2
	.globl	putchar
$LFB2 = .
	.loc 1 40 0
	.cfi_startproc
	.set	nomips16
	.ent	putchar
	.type	putchar, @function
putchar:
	.frame	$sp,24,$31		# vars= 0, regs= 2/0, args= 16, gp= 0
	.mask	0x80010000,-4
	.fmask	0x00000000,0
	.set	noreorder
	.set	nomacro
$LVL5 = .
	addiu	$sp,$sp,-24	 #,,
$LCFI3 = .
	.cfi_def_cfa_offset 24
	sw	$31,20($sp)	 #,
	sw	$16,16($sp)	 #,
	.cfi_offset 31, -4
	.cfi_offset 16, -8
	move	$16,$5	 # c, c
$LVL6 = .
	.loc 1 41 0
	jal	write1	 #
	andi	$5,$5,0x00ff	 #, c

$LVL7 = .
	.loc 1 43 0
	move	$2,$16	 #, c
	lw	$31,20($sp)	 #,
	lw	$16,16($sp)	 #,
$LVL8 = .
	j	$31	 #
	addiu	$sp,$sp,24	 #,,

$LCFI4 = .
	.cfi_def_cfa_offset 0
	.cfi_restore 16
	.cfi_restore 31
	.set	macro
	.set	reorder
	.end	putchar
	.cfi_endproc
$LFE2:
	.size	putchar, .-putchar
	.align	2
	.globl	puts
$LFB3 = .
	.loc 1 46 0
	.cfi_startproc
	.set	nomips16
	.ent	puts
	.type	puts, @function
puts:
	.frame	$sp,32,$31		# vars= 0, regs= 3/0, args= 16, gp= 0
	.mask	0x80030000,-4
	.fmask	0x00000000,0
	.set	noreorder
	.set	nomacro
$LVL9 = .
	addiu	$sp,$sp,-32	 #,,
$LCFI5 = .
	.cfi_def_cfa_offset 32
	sw	$31,28($sp)	 #,
	sw	$17,24($sp)	 #,
	sw	$16,20($sp)	 #,
	.cfi_offset 31, -4
	.cfi_offset 17, -8
	.cfi_offset 16, -12
	move	$16,$5	 # str, str
	.loc 1 47 0
	lb	$5,0($5)	 # D.987, *str_2(D)
	nop
$LVL10 = .
	beq	$5,$0,$L8	 #, D.987,,
	move	$17,$4	 # fd, fd

$LVL11 = .
$L10:
	.loc 1 48 0 discriminator 2
	jal	putchar	 #
	move	$4,$17	 #, fd

$LVL12 = .
	.loc 1 47 0 discriminator 2
	addiu	$16,$16,1	 # str, str,
$LVL13 = .
	lb	$5,0($16)	 # D.987, MEM[base: str_7, offset: 0B]
	nop
	bne	$5,$0,$L10
	nop
	 #, D.987,,
$L8:
	.loc 1 50 0
	move	$2,$0	 #,
	lw	$31,28($sp)	 #,
	lw	$17,24($sp)	 #,
$LVL14 = .
	lw	$16,20($sp)	 #,
$LVL15 = .
	j	$31	 #
	addiu	$sp,$sp,32	 #,,

$LCFI6 = .
	.cfi_def_cfa_offset 0
	.cfi_restore 16
	.cfi_restore 17
	.cfi_restore 31
	.set	macro
	.set	reorder
	.end	puts
	.cfi_endproc
$LFE3:
	.size	puts, .-puts
	.section	.rodata.str1.4,"aMS",@progbits,1
	.align	2
$LC0:
	.ascii	"0123456789abcdef\000"
	.text
	.align	2
	.globl	putxval
$LFB4 = .
	.loc 1 83 0
	.cfi_startproc
	.set	nomips16
	.ent	putxval
	.type	putxval, @function
putxval:
	.frame	$sp,48,$31		# vars= 24, regs= 1/0, args= 16, gp= 0
	.mask	0x80000000,-4
	.fmask	0x00000000,0
	.set	noreorder
	.set	nomacro
$LVL16 = .
	addiu	$sp,$sp,-48	 #,,
$LCFI7 = .
	.cfi_def_cfa_offset 48
	sw	$31,44($sp)	 #,
	.cfi_offset 31, -4
$LVL17 = .
	.loc 1 90 0
	bne	$5,$0,$L14	 #, value,,
	sb	$0,32($sp)	 #, MEM[(char *)&buf + 16B]

	.loc 1 90 0 is_stmt 0 discriminator 1
	bne	$6,$0,$L14
	nop
	 #, column,,
	.loc 1 91 0 is_stmt 1
	li	$6,1			# 0x1	 # column,
$LVL18 = .
$L14:
	.loc 1 82 0 discriminator 1
	addiu	$2,$sp,30	 # ivtmp.18,,
	.loc 1 94 0 discriminator 1
	li	$8,48			# 0x30	 # tmp215,
	lui	$7,%hi($LC0)	 # tmp216,
	j	$L15	 #
	addiu	$7,$7,%lo($LC0)	 # tmp217, tmp216,

$LVL19 = .
$L17:
	.loc 1 94 0 is_stmt 0
	andi	$3,$5,0xf	 # tmp208, value,
$LVL20 = .
	addu	$3,$3,$7	 # tmp209, tmp208, tmp217
	lbu	$3,0($3)	 #,
	nop
	sb	$3,1($2)	 # tmp211, MEM[base: D.1022_24, offset: 1B]
$LVL21 = .
	.loc 1 96 0 is_stmt 1
	beq	$6,$0,$L16	 #, column,,
	srl	$5,$5,4	 # value, value,

$LVL22 = .
$L19:
	.loc 1 96 0 is_stmt 0 discriminator 1
	addiu	$6,$6,-1	 # column, column,
$LVL23 = .
$L16:
	addiu	$2,$2,-1	 # ivtmp.18, ivtmp.18,
$LVL24 = .
$L15:
	.loc 1 93 0 is_stmt 1 discriminator 1
	bne	$5,$0,$L17	 #, value,,
	addiu	$3,$2,1	 # p, ivtmp.18,

	.loc 1 93 0 is_stmt 0 discriminator 2
	beq	$6,$0,$L22
	nop
	 #, column,,
$LVL25 = .
	.loc 1 94 0 is_stmt 1
	j	$L19	 #
	sb	$8,1($2)	 # tmp215, MEM[base: D.1023_5, offset: 1B]

$LVL26 = .
$L22:
	.loc 1 99 0
	jal	puts	 #
	addiu	$5,$3,1	 #, p,

$LVL27 = .
	.loc 1 102 0
	move	$2,$0	 #,
	lw	$31,44($sp)	 #,
	nop
	j	$31	 #
	addiu	$sp,$sp,48	 #,,

$LCFI8 = .
	.cfi_def_cfa_offset 0
	.cfi_restore 31
	.set	macro
	.set	reorder
	.end	putxval
	.cfi_endproc
$LFE4:
	.size	putxval, .-putxval
	.section	.rodata.str1.4
	.align	2
$LC1:
	.ascii	"Hello World! \000"
	.align	2
$LC2:
	.ascii	" This architecture is mips-elf\012\000"
	.text
	.align	2
	.globl	main
$LFB5 = .
	.loc 1 105 0
	.cfi_startproc
	.set	nomips16
	.ent	main
	.type	main, @function
main:
	.frame	$sp,24,$31		# vars= 0, regs= 1/0, args= 16, gp= 0
	.mask	0x80000000,-4
	.fmask	0x00000000,0
	.set	noreorder
	.set	nomacro
	addiu	$sp,$sp,-24	 #,,
$LCFI9 = .
	.cfi_def_cfa_offset 24
	sw	$31,20($sp)	 #,
	.cfi_offset 31, -4
$LVL28 = .
	.loc 1 107 0
	li	$4,1			# 0x1	 #,
	lui	$5,%hi($LC1)	 # tmp197,
	jal	puts	 #
	addiu	$5,$5,%lo($LC1)	 #, tmp197,

$LVL29 = .
	.loc 1 108 0
	li	$4,1			# 0x1	 #,
	lw	$5,%gp_rel(data_value)($28)	 #, data_value
	jal	putxval	 #
	move	$6,$0	 #,

$LVL30 = .
	.loc 1 109 0
	li	$4,1			# 0x1	 #,
	lui	$5,%hi($LC2)	 # tmp199,
	jal	puts	 #
	addiu	$5,$5,%lo($LC2)	 #, tmp199,

$LVL31 = .
	.loc 1 110 0
	jal	exit	 #
	move	$4,$0	 #,

$LVL32 = .
	.set	macro
	.set	reorder
	.end	main
	.cfi_endproc
$LFE5:
	.size	main, .-main

	.comm	bss_value,4,4
	.globl	data_value
	.section	.sdata,"aw",@progbits
	.align	2
	.type	data_value, @object
	.size	data_value, 4
data_value:
	.word	-1414661426
	.text
$Letext0:
	.file 2 "syscall.h"