	.file	"sh-elf.c"
	.text
! GNU C (GCC) version 4.7.2 (sh-elf)
!	compiled by GNU C version 4.2.1 20070719  [FreeBSD], GMP version 5.1.1, MPFR version 3.1.2, MPC version 1.0.1
! GGC heuristics: --param ggc-min-expand=100 --param ggc-min-heapsize=131072
! options passed:  -nostdinc -D ___FreeBSD___ -D ARCH="sh-elf"
! -D USE_SYSCALL_WRAPPER sh-elf.c -auxbase-strip sh-elf.s -g -O -Wall
! -fno-builtin -fverbose-asm -fomit-frame-pointer
! options enabled:  -fauto-inc-dec -fbranch-count-reg
! -fcombine-stack-adjustments -fcommon -fcompare-elim -fcprop-registers
! -fdebug-types-section -fdefer-pop -fdelayed-branch
! -fdelete-null-pointer-checks -fdwarf2-cfi-asm -fearly-inlining
! -feliminate-unused-debug-types -fforward-propagate -ffunction-cse
! -fgcse-lm -fgnu-runtime -fguess-branch-probability -fident
! -fif-conversion -fif-conversion2 -finline -finline-atomics
! -finline-functions-called-once -fipa-profile -fipa-pure-const
! -fipa-reference -fira-share-save-slots -fira-share-spill-slots -fivopts
! -fkeep-static-consts -fleading-underscore -fmath-errno -fmerge-constants
! -fmerge-debug-strings -fmove-loop-invariants -fomit-frame-pointer
! -fpeephole -fprefetch-loop-arrays -freg-struct-return
! -fsched-critical-path-heuristic -fsched-dep-count-heuristic
! -fsched-group-heuristic -fsched-interblock -fsched-last-insn-heuristic
! -fsched-rank-heuristic -fsched-spec -fsched-spec-insn-heuristic
! -fsched-stalled-insns-dep -fshow-column -fshrink-wrap -fsigned-zeros
! -fsplit-ivs-in-unroller -fsplit-wide-types -fstrict-volatile-bitfields
! -ftoplevel-reorder -ftrapping-math -ftree-bit-ccp -ftree-ccp -ftree-ch
! -ftree-copy-prop -ftree-copyrename -ftree-cselim -ftree-dce
! -ftree-dominator-opts -ftree-dse -ftree-forwprop -ftree-fre
! -ftree-loop-if-convert -ftree-loop-im -ftree-loop-ivcanon
! -ftree-loop-optimize -ftree-parallelize-loops= -ftree-phiprop -ftree-pta
! -ftree-reassoc -ftree-scev-cprop -ftree-sink -ftree-slp-vectorize
! -ftree-sra -ftree-ter -ftree-vect-loop-version -funit-at-a-time
! -fvar-tracking -fvar-tracking-assignments -fverbose-asm
! -fzero-initialized-in-bss -maccumulate-outgoing-args -mb

	.text
.Ltext0:
	.cfi_sections	.debug_frame
	.align 1
	.global	___exit
	.type	___exit, @function
___exit:
.LFB0:
	.file 1 "sh-elf.c"
	.loc 1 8 0
	.cfi_startproc
.LVL0:
	sts.l	pr,@-r15	!,
.LCFI0:
	.cfi_def_cfa_offset 4
	.cfi_offset 17, -4
	mov	r4,r5	! status, status
.LVL1:
	.loc 1 9 0
	mov.l	.L2,r1	!, tmp161
	jsr	@r1	! tmp161
	mov	#0,r4	!,
.LVL2:
.L3:
	.align 2
.L2:
	.long	___r_exit
	.cfi_endproc
.LFE0:
	.size	___exit, .-___exit
	.align 1
	.global	___read
	.type	___read, @function
___read:
.LFB1:
	.loc 1 12 0
	.cfi_startproc
.LVL3:
	sts.l	pr,@-r15	!,
.LCFI1:
	.cfi_def_cfa_offset 4
	.cfi_offset 17, -4
	mov	r4,r2	! fd, fd
	mov	r5,r1	! buffer, buffer
	mov	r6,r7	! size, size
	.loc 1 13 0
	mov	#0,r4	!,
.LVL4:
	mov	r2,r5	! fd,
.LVL5:
	mov.l	.L5,r0	!, tmp165
	jsr	@r0	! tmp165
	mov	r1,r6	! buffer,
.LVL6:
	.loc 1 14 0
	lds.l   @r15+,pr	!,
	rts	
	nop
.L6:
	.align 2
.L5:
	.long	___r_read
	.cfi_endproc
.LFE1:
	.size	___read, .-___read
	.align 1
	.global	___write
	.type	___write, @function
___write:
.LFB2:
	.loc 1 16 0
	.cfi_startproc
.LVL7:
	sts.l	pr,@-r15	!,
.LCFI2:
	.cfi_def_cfa_offset 4
	.cfi_offset 17, -4
	mov	r4,r2	! fd, fd
	mov	r5,r1	! buffer, buffer
	mov	r6,r7	! size, size
	.loc 1 17 0
	mov	#0,r4	!,
.LVL8:
	mov	r2,r5	! fd,
.LVL9:
	mov.l	.L8,r0	!, tmp165
	jsr	@r0	! tmp165
	mov	r1,r6	! buffer,
.LVL10:
	.loc 1 18 0
	lds.l   @r15+,pr	!,
	rts	
	nop
.L9:
	.align 2
.L8:
	.long	___r_write
	.cfi_endproc
.LFE2:
	.size	___write, .-___write
	.align 1
	.global	___open
	.type	___open, @function
___open:
.LFB3:
	.loc 1 20 0
	.cfi_startproc
.LVL11:
	sts.l	pr,@-r15	!,
.LCFI3:
	.cfi_def_cfa_offset 4
	.cfi_offset 17, -4
	mov	r4,r2	! path, path
	mov	r5,r1	! flags, flags
	mov	r6,r7	! mode, mode
	.loc 1 21 0
	mov	#0,r4	!,
.LVL12:
	mov	r2,r5	! path,
.LVL13:
	mov.l	.L11,r0	!, tmp165
	jsr	@r0	! tmp165
	mov	r1,r6	! flags,
.LVL14:
	.loc 1 22 0
	lds.l   @r15+,pr	!,
	rts	
	nop
.L12:
	.align 2
.L11:
	.long	___r_open
	.cfi_endproc
.LFE3:
	.size	___open, .-___open
	.align 1
	.global	___close
	.type	___close, @function
___close:
.LFB4:
	.loc 1 24 0
	.cfi_startproc
.LVL15:
	sts.l	pr,@-r15	!,
.LCFI4:
	.cfi_def_cfa_offset 4
	.cfi_offset 17, -4
	mov	r4,r5	! fd, fd
.LVL16:
	.loc 1 25 0
	mov.l	.L14,r0	!, tmp163
	jsr	@r0	! tmp163
	mov	#0,r4	!,
.LVL17:
	.loc 1 26 0
	lds.l   @r15+,pr	!,
	rts	
	nop
.L15:
	.align 2
.L14:
	.long	___r_close
	.cfi_endproc
.LFE4:
	.size	___close, .-___close
	.align 1
	.global	_exit
	.type	_exit, @function
_exit:
.LFB5:
	.loc 1 30 0
	.cfi_startproc
.LVL18:
	sts.l	pr,@-r15	!,
.LCFI5:
	.cfi_def_cfa_offset 4
	.cfi_offset 17, -4
	.loc 1 31 0
	mov.l	.L17,r1	!, tmp161
	jsr	@r1
	nop	! tmp161
.LVL19:
.L18:
	.align 2
.L17:
	.long	___exit
	.cfi_endproc
.LFE5:
	.size	_exit, .-_exit
	.align 1
	.global	_write1
	.type	_write1, @function
_write1:
.LFB6:
	.loc 1 35 0
	.cfi_startproc
.LVL20:
	sts.l	pr,@-r15	!,
.LCFI6:
	.cfi_def_cfa_offset 4
	.cfi_offset 17, -4
	add	#-4,r15	!,
.LCFI7:
	.cfi_def_cfa_offset 8
	mov.b	r5,@r15	! c, c
	.loc 1 36 0
	mov	r15,r5	!,
.LVL21:
	mov.l	.L20,r0	!, tmp167
	jsr	@r0	! tmp167
	mov	#1,r6	!,
.LVL22:
	.loc 1 37 0
	add	#4,r15	!,
	lds.l   @r15+,pr	!,
	rts	
	nop
.L21:
	.align 2
.L20:
	.long	___write
	.cfi_endproc
.LFE6:
	.size	_write1, .-_write1
	.align 1
	.global	_putchar
	.type	_putchar, @function
_putchar:
.LFB7:
	.loc 1 40 0
	.cfi_startproc
.LVL23:
	mov.l	r8,@-r15	!,
.LCFI8:
	.cfi_def_cfa_offset 4
	.cfi_offset 8, -4
	sts.l	pr,@-r15	!,
.LCFI9:
	.cfi_def_cfa_offset 8
	.cfi_offset 17, -8
	mov	r5,r8	! c, c
.LVL24:
	.loc 1 41 0
	mov.l	.L23,r0	!, tmp165
	jsr	@r0	! tmp165
	extu.b	r5,r5	! c,
.LVL25:
	.loc 1 43 0
	mov	r8,r0	! c,
	lds.l   @r15+,pr	!,
	mov.l   @r15+,r8	!,
.LVL26:
	rts	
	nop
.L24:
	.align 2
.L23:
	.long	_write1
	.cfi_endproc
.LFE7:
	.size	_putchar, .-_putchar
	.align 1
	.global	_puts
	.type	_puts, @function
_puts:
.LFB8:
	.loc 1 46 0
	.cfi_startproc
.LVL27:
	mov.l	r8,@-r15	!,
.LCFI10:
	.cfi_def_cfa_offset 4
	.cfi_offset 8, -4
	mov.l	r9,@-r15	!,
.LCFI11:
	.cfi_def_cfa_offset 8
	.cfi_offset 9, -8
	mov.l	r10,@-r15	!,
.LCFI12:
	.cfi_def_cfa_offset 12
	.cfi_offset 10, -12
	sts.l	pr,@-r15	!,
.LCFI13:
	.cfi_def_cfa_offset 16
	.cfi_offset 17, -16
	mov	r4,r9	! fd, fd
	mov	r5,r8	! str, str
	.loc 1 47 0
	mov.b	@r5,r5	! *str_2(D), D.1000
.LVL28:
	tst	r5,r5	! D.1000
	bt	.L26	!
	.loc 1 45 0
	add	#1,r8	!, ivtmp.25
.LVL29:
	.loc 1 48 0
	mov.l	.L29,r10	!, tmp198
.LVL30:
.L27:
	.loc 1 48 0 is_stmt 0 discriminator 2
	jsr	@r10	! tmp198
	mov	r9,r4	! fd,
.LVL31:
	.loc 1 47 0 is_stmt 1 discriminator 2
	mov.b	@r8+,r5	! MEM[base: D.1057_19, offset: 0B], D.1000
	tst	r5,r5	! D.1000
	bf	.L27	!
.L26:
	.loc 1 50 0
	mov	#0,r0	!,
	lds.l   @r15+,pr	!,
	mov.l   @r15+,r10	!,
	mov.l   @r15+,r9	!,
.LVL32:
	mov.l   @r15+,r8	!,
	rts	
	nop
.L30:
	.align 2
.L29:
	.long	_putchar
	.cfi_endproc
.LFE8:
	.size	_puts, .-_puts
	.section	.rodata.str1.4,"aMS",@progbits,1
	.align 2
.LC0:
	.string	"0123456789abcdef"
	.text
	.align 1
	.global	_putxval
	.type	_putxval, @function
_putxval:
.LFB9:
	.loc 1 83 0
	.cfi_startproc
.LVL33:
	mov.l	r8,@-r15	!,
.LCFI14:
	.cfi_def_cfa_offset 4
	.cfi_offset 8, -4
	sts.l	pr,@-r15	!,
.LCFI15:
	.cfi_def_cfa_offset 8
	.cfi_offset 17, -8
	add	#-20,r15	!,
.LCFI16:
	.cfi_def_cfa_offset 28
	mov	r5,r8	! value, value
.LVL34:
	.loc 1 88 0
	mov	#0,r2	!, tmp179
	mov	r15,r1	!, tmp178
	add	#16,r1	!, tmp178
	mov.b	r2,@r1	! tmp179, MEM[(char *)&buf + 16B]
.LVL35:
	.loc 1 90 0
	tst	r6,r6	! column
	bf	.L32	!
	tst	r5,r5	! value
	.loc 1 91 0
	movt	r1	! tmp208
	add	r1,r6	! tmp208, column
.LVL36:
.L32:
	.loc 1 88 0 discriminator 1
	mov	r15,r5	!, p
.LVL37:
	add	#15,r5	!, p
	.loc 1 94 0 discriminator 1
	mov.l	.L39,r7	!, tmp206
	.loc 1 93 0 discriminator 1
	bra	.L38	!
	mov	#-1,r2	!, tmp205
.LVL38:
	.align 1
.L35:
	.loc 1 94 0
	mov	#15,r3	!, tmp187
	and	r8,r3	! value, tmp187
	mov	r3,r0	! tmp187,
	mov.b	@(r0,r7),r3	!,
	mov.b	r3,@r5	! tmp188, MEM[base: p_3, offset: 0B]
	add	#-1,r5	!, p
.LVL39:
	.loc 1 95 0
	shlr2	r8	!, value
.LVL40:
	shlr2	r8	!, value
.LVL41:
	.loc 1 96 0
	tst	r1,r1	! D.994
	bt	.L38	!
	.loc 1 96 0 is_stmt 0 discriminator 1
	add	#-1,r6	!, column
.LVL42:
.L38:
	.loc 1 93 0 is_stmt 1 discriminator 1
	tst	r6,r6	! column
	negc	r2,r1	! tmp205, tmp190
	extu.b	r1,r1	! tmp190, D.994
	tst	r1,r1	! D.994
	bf	.L35	!
	tst	r8,r8	! value
	negc	r2,r3	! tmp205, tmp193
	extu.b	r3,r3	! tmp193, tmp195
	tst	r3,r3	! tmp195
	bf	.L35	!
.LVL43:
	.loc 1 99 0
	mov.l	.L40,r0	!, tmp197
	jsr	@r0	! tmp197
	add	#1,r5	!,
.LVL44:
	.loc 1 102 0
	mov	#0,r0	!,
	add	#20,r15	!,
	lds.l   @r15+,pr	!,
	mov.l   @r15+,r8	!,
.LVL45:
	rts	
	nop
.L41:
	.align 2
.L39:
	.long	.LC0
.L40:
	.long	_puts
	.cfi_endproc
.LFE9:
	.size	_putxval, .-_putxval
	.section	.rodata.str1.4
	.align 2
.LC1:
	.string	"Hello World! "
	.align 2
.LC2:
	.string	" This architecture is sh-elf\n"
	.text
	.align 1
	.global	_main
	.type	_main, @function
_main:
.LFB10:
	.loc 1 105 0
	.cfi_startproc
	mov.l	r8,@-r15	!,
.LCFI17:
	.cfi_def_cfa_offset 4
	.cfi_offset 8, -4
	sts.l	pr,@-r15	!,
.LCFI18:
	.cfi_def_cfa_offset 8
	.cfi_offset 17, -8
.LVL46:
	.loc 1 107 0
	mov.l	.L43,r8	!, tmp164
	mov.l	.L44,r5	!,
	jsr	@r8	! tmp164
	mov	#1,r4	!,
.LVL47:
	.loc 1 108 0
	mov	#1,r4	!,
	mov.l	.L45,r1	!, tmp165
	mov.l	@r1,r5	! data_value,
	mov.l	.L46,r0	!, tmp166
	jsr	@r0	! tmp166
	mov	#0,r6	!,
.LVL48:
	.loc 1 109 0
	mov.l	.L47,r5	!,
	jsr	@r8	! tmp164
	mov	#1,r4	!,
.LVL49:
	.loc 1 110 0
	mov.l	.L48,r1	!, tmp169
	jsr	@r1	! tmp169
	mov	#0,r4	!,
.LVL50:
.L49:
	.align 2
.L43:
	.long	_puts
.L44:
	.long	.LC1
.L45:
	.long	_data_value
.L46:
	.long	_putxval
.L47:
	.long	.LC2
.L48:
	.long	_exit
	.cfi_endproc
.LFE10:
	.size	_main, .-_main
	.comm	_bss_value,4,4
	.global	_data_value
	.data
	.align 2
	.type	_data_value, @object
	.size	_data_value, 4
_data_value:
	.long	-1414661426
	.text
.Letext0: