	.file	"sparc-elf.c"
! GNU C (GCC) version 4.7.2 (sparc-elf)
!	compiled by GNU C version 4.2.1 20070719  [FreeBSD], GMP version 5.1.1, MPFR version 3.1.2, MPC version 1.0.1
! GGC heuristics: --param ggc-min-expand=100 --param ggc-min-heapsize=131072
! options passed:  -nostdinc -D ___FreeBSD___ -D ARCH="sparc-elf"
! sparc-elf.c -mcpu=v7 -auxbase-strip sparc-elf.s -g -O -Wall -fno-builtin
! -fverbose-asm -fomit-frame-pointer
! options enabled:  -fauto-inc-dec -fbranch-count-reg
! -fcombine-stack-adjustments -fcommon -fcompare-elim -fcprop-registers
! -fdebug-types-section -fdefer-pop -fdelayed-branch
! -fdelete-null-pointer-checks -fdwarf2-cfi-asm -fearly-inlining
! -feliminate-unused-debug-types -fforward-propagate -ffunction-cse
! -fgcse-lm -fgnu-runtime -fguess-branch-probability -fident
! -fif-conversion -fif-conversion2 -finline -finline-atomics
! -finline-functions-called-once -fipa-profile -fipa-pure-const
! -fipa-reference -fira-share-spill-slots -fivopts -fkeep-static-consts
! -fleading-underscore -fmath-errno -fmerge-constants -fmerge-debug-strings
! -fmove-loop-invariants -fomit-frame-pointer -fpcc-struct-return
! -fpeephole -fprefetch-loop-arrays -fsched-critical-path-heuristic
! -fsched-dep-count-heuristic -fsched-group-heuristic -fsched-interblock
! -fsched-last-insn-heuristic -fsched-rank-heuristic -fsched-spec
! -fsched-spec-insn-heuristic -fsched-stalled-insns-dep -fshow-column
! -fshrink-wrap -fsigned-zeros -fsplit-ivs-in-unroller -fsplit-wide-types
! -fstrict-volatile-bitfields -ftoplevel-reorder -ftrapping-math
! -ftree-bit-ccp -ftree-ccp -ftree-ch -ftree-copy-prop -ftree-copyrename
! -ftree-cselim -ftree-dce -ftree-dominator-opts -ftree-dse -ftree-forwprop
! -ftree-fre -ftree-loop-if-convert -ftree-loop-im -ftree-loop-ivcanon
! -ftree-loop-optimize -ftree-parallelize-loops= -ftree-phiprop -ftree-pta
! -ftree-reassoc -ftree-scev-cprop -ftree-sink -ftree-slp-vectorize
! -ftree-sra -ftree-ter -ftree-vect-loop-version -funit-at-a-time
! -fvar-tracking -fvar-tracking-assignments -fverbose-asm
! -fzero-initialized-in-bss -m32 -mapp-regs -mfpu -mptr32 -msoft-quad-float

	.section	".text"
.LLtext0:
	.cfi_sections	.debug_frame
	.align 4
	.global exit
	.type	exit, #function
	.proc	020
exit:
.LLFB0:
	.file 1 "sparc-elf.c"
	.loc 1 30 0
	.cfi_startproc
.LLVL0:
	save	%sp, -96, %sp	!
.LLCFI0:
	.cfi_window_save
	.cfi_register 15, 31
	.cfi_def_cfa_register 30
.LLVL1:
	.loc 1 31 0
	call	__exit, 0	!,
	 mov	%i0, %o0	! status,
.LLVL2:
	nop
	.cfi_endproc
.LLFE0:
	.size	exit, .-exit
	.align 4
	.global write1
	.type	write1, #function
	.proc	04
write1:
.LLFB1:
	.loc 1 35 0
	.cfi_startproc
.LLVL3:
	save	%sp, -96, %sp	!
.LLCFI1:
	.cfi_window_save
	.cfi_register 15, 31
	.cfi_def_cfa_register 30
.LLVL4:
	stb	%i1, [%fp+72]	! c, c
	.loc 1 36 0
	mov	%i0, %o0	! fd,
	add	%fp, 72, %o1	!,,
	call	__write, 0	!,
	 mov	1, %o2	!,
.LLVL5:
	.loc 1 37 0
	jmp	%i7+8
	 restore %g0, %o0, %o0	!,
	.cfi_endproc
.LLFE1:
	.size	write1, .-write1
	.align 4
	.global putchar
	.type	putchar, #function
	.proc	04
putchar:
.LLFB2:
	.loc 1 40 0
	.cfi_startproc
.LLVL6:
	save	%sp, -96, %sp	!
.LLCFI2:
	.cfi_window_save
	.cfi_register 15, 31
	.cfi_def_cfa_register 30
.LLVL7:
	.loc 1 41 0
	mov	%i0, %o0	! fd,
	call	write1, 0	!,
	 and	%i1, 0xff, %o1	! c,
.LLVL8:
	.loc 1 43 0
	jmp	%i7+8
	 restore %g0, %i1, %o0	! c,
	.cfi_endproc
.LLFE2:
	.size	putchar, .-putchar
	.align 4
	.global puts
	.type	puts, #function
	.proc	04
puts:
.LLFB3:
	.loc 1 46 0
	.cfi_startproc
.LLVL9:
	save	%sp, -96, %sp	!
.LLCFI3:
	.cfi_window_save
	.cfi_register 15, 31
	.cfi_def_cfa_register 30
.LLVL10:
	.loc 1 47 0
	ldsb	[%i1], %g1	! *str_2(D), tmp137
	cmp	%g1, 0	! tmp137,
	be	.LL5	!
	 ldub	[%i1], %o1	! *str_2(D),
.LL7:
	.loc 1 48 0 discriminator 2
	sll	%o1, 24, %o1	! D.983,, tmp140
	mov	%i0, %o0	! fd,
	call	putchar, 0	!,
	 sra	%o1, 24, %o1	! tmp140,,
.LLVL11:
	.loc 1 47 0 discriminator 2
	add	%i1, 1, %i1	! str,, str
.LLVL12:
	ldsb	[%i1], %g1	! MEM[base: str_7, offset: 0B], tmp141
	cmp	%g1, 0	! tmp141,
	bne	.LL7	!
	 ldub	[%i1], %o1	! MEM[base: str_7, offset: 0B],
.LL5:
.LLVL13:
	.loc 1 50 0
	jmp	%i7+8
	 restore %g0, 0, %o0	!,
	.cfi_endproc
.LLFE3:
	.size	puts, .-puts
	.section	.rodata.str1.8,"aMS",@progbits,1
	.align 8
.LLC0:
	.asciz	"0123456789abcdef"
	.section	".text"
	.align 4
	.global putxval
	.type	putxval, #function
	.proc	04
putxval:
.LLFB4:
	.loc 1 83 0
	.cfi_startproc
.LLVL14:
	save	%sp, -120, %sp	!
.LLCFI4:
	.cfi_window_save
	.cfi_register 15, 31
	.cfi_def_cfa_register 30
.LLVL15:
	.loc 1 90 0
	cmp	%i2, 0	! column,
	bne	.LL10	!
	 stb	%g0, [%fp-8]	!, MEM[(char *)&buf + 16B]
	subcc	%g0, %i1, %g0	! value
	subx	%g0, -1, %g1	! tmp132
	.loc 1 91 0
	add	%i2, %g1, %i2	! column, tmp132, column
.LLVL16:
.LL10:
	.loc 1 88 0 discriminator 1
	add	%fp, -9, %o1	!,, p
	.loc 1 94 0 discriminator 1
	b	.LL14	!
	 sethi	%hi(.LLC0), %g4	!, tmp153
.LLVL17:
.LL15:
	.loc 1 94 0 is_stmt 0
	and	%i1, 15, %g2	! value,, tmp135
.LL16:
	ldub	[%g3+%g2], %g2	!,
	stb	%g2, [%o1]	! tmp136, MEM[base: p_3, offset: 0B]
	add	%o1, -1, %o1	! p,, p
.LLVL18:
	.loc 1 95 0 is_stmt 1
	srl	%i1, 4, %i1	! value,, value
.LLVL19:
	.loc 1 96 0
	andcc	%g1, 0xff, %g1	! D.977, D.977
	sub	%i2, %g1, %i2	! column, D.977, column
.LLVL20:
.LL14:
	.loc 1 93 0 discriminator 1
	subcc	%g0, %i2, %g0	! column
	addx	%g0, 0, %g1	! tmp138
	andcc	%g1, 0xff, %g0	! D.977
	bne	.LL15	!
	 or	%g4, %lo(.LLC0), %g3	! tmp153,, tmp133
	cmp	%i1, 0	! value,
	bne	.LL16	!
	 and	%i1, 15, %g2	! value,, tmp135
	.loc 1 99 0
	mov	%i0, %o0	! fd,
.LLVL21:
	call	puts, 0	!,
	 add	%o1, 1, %o1	! p,,
.LLVL22:
	.loc 1 102 0
	jmp	%i7+8
	 restore %g0, 0, %o0	!,
	.cfi_endproc
.LLFE4:
	.size	putxval, .-putxval
	.section	.rodata.str1.8
	.align 8
.LLC1:
	.asciz	"Hello World! "
	.align 8
.LLC2:
	.asciz	" This architecture is sparc-elf\n"
	.section	".text"
	.align 4
	.global main
	.type	main, #function
	.proc	04
main:
.LLFB5:
	.loc 1 105 0
	.cfi_startproc
	save	%sp, -96, %sp	!
.LLCFI5:
	.cfi_window_save
	.cfi_register 15, 31
	.cfi_def_cfa_register 30
.LLVL23:
	.loc 1 107 0
	mov	1, %o0	!,
	sethi	%hi(.LLC1), %o1	!, tmp112
	call	puts, 0	!,
	 or	%o1, %lo(.LLC1), %o1	! tmp112,,
.LLVL24:
	.loc 1 108 0
	mov	1, %o0	!,
	sethi	%hi(data_value), %g1	!, tmp114
	ld	[%g1+%lo(data_value)], %o1	! data_value,
	call	putxval, 0	!,
	 mov	0, %o2	!,
.LLVL25:
	.loc 1 109 0
	mov	1, %o0	!,
	sethi	%hi(.LLC2), %o1	!, tmp116
	call	puts, 0	!,
	 or	%o1, %lo(.LLC2), %o1	! tmp116,,
.LLVL26:
	.loc 1 110 0
	call	exit, 0	!,
	 mov	0, %o0	!,
.LLVL27:
	nop
	.cfi_endproc
.LLFE5:
	.size	main, .-main
	.common	bss_value,4,4
	.global data_value
	.section	".data"
	.align 4
	.type	data_value, #object
	.size	data_value, 4
data_value:
	.long	-1414661426
	.section	".text"
.LLetext0:
	.file 2 "syscall.h"