
memo:     file format elf64-x86-64


Disassembly of section .init:

00000000000008b0 <_init>:
 8b0:	48 83 ec 08          	sub    rsp,0x8
 8b4:	48 8b 05 6d 0d 20 00 	mov    rax,QWORD PTR [rip+0x200d6d]        # 201628 <_DYNAMIC+0x1e8>
 8bb:	48 85 c0             	test   rax,rax
 8be:	74 05                	je     8c5 <_init+0x15>
 8c0:	e8 db 00 00 00       	call   9a0 <atoi@plt+0x10>
 8c5:	48 83 c4 08          	add    rsp,0x8
 8c9:	c3                   	ret    

Disassembly of section .plt:

00000000000008d0 <free@plt-0x10>:
 8d0:	ff 35 7a 0d 20 00    	push   QWORD PTR [rip+0x200d7a]        # 201650 <_GLOBAL_OFFSET_TABLE_+0x8>
 8d6:	ff 25 7c 0d 20 00    	jmp    QWORD PTR [rip+0x200d7c]        # 201658 <_GLOBAL_OFFSET_TABLE_+0x10>
 8dc:	0f 1f 40 00          	nop    DWORD PTR [rax+0x0]

00000000000008e0 <free@plt>:
 8e0:	ff 25 7a 0d 20 00    	jmp    QWORD PTR [rip+0x200d7a]        # 201660 <_GLOBAL_OFFSET_TABLE_+0x18>
 8e6:	68 00 00 00 00       	push   0x0
 8eb:	e9 e0 ff ff ff       	jmp    8d0 <_init+0x20>

00000000000008f0 <puts@plt>:
 8f0:	ff 25 72 0d 20 00    	jmp    QWORD PTR [rip+0x200d72]        # 201668 <_GLOBAL_OFFSET_TABLE_+0x20>
 8f6:	68 01 00 00 00       	push   0x1
 8fb:	e9 d0 ff ff ff       	jmp    8d0 <_init+0x20>

0000000000000900 <__stack_chk_fail@plt>:
 900:	ff 25 6a 0d 20 00    	jmp    QWORD PTR [rip+0x200d6a]        # 201670 <_GLOBAL_OFFSET_TABLE_+0x28>
 906:	68 02 00 00 00       	push   0x2
 90b:	e9 c0 ff ff ff       	jmp    8d0 <_init+0x20>

0000000000000910 <setbuf@plt>:
 910:	ff 25 62 0d 20 00    	jmp    QWORD PTR [rip+0x200d62]        # 201678 <_GLOBAL_OFFSET_TABLE_+0x30>
 916:	68 03 00 00 00       	push   0x3
 91b:	e9 b0 ff ff ff       	jmp    8d0 <_init+0x20>

0000000000000920 <strchr@plt>:
 920:	ff 25 5a 0d 20 00    	jmp    QWORD PTR [rip+0x200d5a]        # 201680 <_GLOBAL_OFFSET_TABLE_+0x38>
 926:	68 04 00 00 00       	push   0x4
 92b:	e9 a0 ff ff ff       	jmp    8d0 <_init+0x20>

0000000000000930 <printf@plt>:
 930:	ff 25 52 0d 20 00    	jmp    QWORD PTR [rip+0x200d52]        # 201688 <_GLOBAL_OFFSET_TABLE_+0x40>
 936:	68 05 00 00 00       	push   0x5
 93b:	e9 90 ff ff ff       	jmp    8d0 <_init+0x20>

0000000000000940 <__libc_start_main@plt>:
 940:	ff 25 4a 0d 20 00    	jmp    QWORD PTR [rip+0x200d4a]        # 201690 <_GLOBAL_OFFSET_TABLE_+0x48>
 946:	68 06 00 00 00       	push   0x6
 94b:	e9 80 ff ff ff       	jmp    8d0 <_init+0x20>

0000000000000950 <fgets@plt>:
 950:	ff 25 42 0d 20 00    	jmp    QWORD PTR [rip+0x200d42]        # 201698 <_GLOBAL_OFFSET_TABLE_+0x50>
 956:	68 07 00 00 00       	push   0x7
 95b:	e9 70 ff ff ff       	jmp    8d0 <_init+0x20>

0000000000000960 <calloc@plt>:
 960:	ff 25 3a 0d 20 00    	jmp    QWORD PTR [rip+0x200d3a]        # 2016a0 <_GLOBAL_OFFSET_TABLE_+0x58>
 966:	68 08 00 00 00       	push   0x8
 96b:	e9 60 ff ff ff       	jmp    8d0 <_init+0x20>

0000000000000970 <prctl@plt>:
 970:	ff 25 32 0d 20 00    	jmp    QWORD PTR [rip+0x200d32]        # 2016a8 <_GLOBAL_OFFSET_TABLE_+0x60>
 976:	68 09 00 00 00       	push   0x9
 97b:	e9 50 ff ff ff       	jmp    8d0 <_init+0x20>

0000000000000980 <perror@plt>:
 980:	ff 25 2a 0d 20 00    	jmp    QWORD PTR [rip+0x200d2a]        # 2016b0 <_GLOBAL_OFFSET_TABLE_+0x68>
 986:	68 0a 00 00 00       	push   0xa
 98b:	e9 40 ff ff ff       	jmp    8d0 <_init+0x20>

0000000000000990 <atoi@plt>:
 990:	ff 25 22 0d 20 00    	jmp    QWORD PTR [rip+0x200d22]        # 2016b8 <_GLOBAL_OFFSET_TABLE_+0x70>
 996:	68 0b 00 00 00       	push   0xb
 99b:	e9 30 ff ff ff       	jmp    8d0 <_init+0x20>

Disassembly of section .plt.got:

00000000000009a0 <.plt.got>:
 9a0:	ff 25 82 0c 20 00    	jmp    QWORD PTR [rip+0x200c82]        # 201628 <_DYNAMIC+0x1e8>
 9a6:	66 90                	xchg   ax,ax
 9a8:	ff 25 92 0c 20 00    	jmp    QWORD PTR [rip+0x200c92]        # 201640 <_DYNAMIC+0x200>
 9ae:	66 90                	xchg   ax,ax

Disassembly of section .text:

00000000000009b0 <_start>:
     9b0:	31 ed                	xor    ebp,ebp
     9b2:	49 89 d1             	mov    r9,rdx
     9b5:	5e                   	pop    rsi
     9b6:	48 89 e2             	mov    rdx,rsp
     9b9:	48 83 e4 f0          	and    rsp,0xfffffffffffffff0
     9bd:	50                   	push   rax
     9be:	54                   	push   rsp
     9bf:	4c 8d 05 ca 06 00 00 	lea    r8,[rip+0x6ca]        # 1090 <__libc_csu_fini>
     9c6:	48 8d 0d 53 06 00 00 	lea    rcx,[rip+0x653]        # 1020 <__libc_csu_init>
     9cd:	48 8d 3d c3 02 00 00 	lea    rdi,[rip+0x2c3]        # c97 <main>
     9d4:	e8 67 ff ff ff       	call   940 <__libc_start_main@plt>
     9d9:	f4                   	hlt    
     9da:	66 0f 1f 44 00 00    	nop    WORD PTR [rax+rax*1+0x0]

00000000000009e0 <deregister_tm_clones>:
     9e0:	48 8d 3d e9 0c 20 00 	lea    rdi,[rip+0x200ce9]        # 2016d0 <__TMC_END__>
     9e7:	48 8d 05 e9 0c 20 00 	lea    rax,[rip+0x200ce9]        # 2016d7 <__TMC_END__+0x7>
     9ee:	55                   	push   rbp
     9ef:	48 29 f8             	sub    rax,rdi
     9f2:	48 89 e5             	mov    rbp,rsp
     9f5:	48 83 f8 0e          	cmp    rax,0xe
     9f9:	76 15                	jbe    a10 <deregister_tm_clones+0x30>
     9fb:	48 8b 05 1e 0c 20 00 	mov    rax,QWORD PTR [rip+0x200c1e]        # 201620 <_DYNAMIC+0x1e0>
     a02:	48 85 c0             	test   rax,rax
     a05:	74 09                	je     a10 <deregister_tm_clones+0x30>
     a07:	5d                   	pop    rbp
     a08:	ff e0                	jmp    rax
     a0a:	66 0f 1f 44 00 00    	nop    WORD PTR [rax+rax*1+0x0]
     a10:	5d                   	pop    rbp
     a11:	c3                   	ret    
     a12:	0f 1f 40 00          	nop    DWORD PTR [rax+0x0]
     a16:	66 2e 0f 1f 84 00 00 	nop    WORD PTR cs:[rax+rax*1+0x0]
     a1d:	00 00 00 

0000000000000a20 <register_tm_clones>:
     a20:	48 8d 3d a9 0c 20 00 	lea    rdi,[rip+0x200ca9]        # 2016d0 <__TMC_END__>
     a27:	48 8d 35 a2 0c 20 00 	lea    rsi,[rip+0x200ca2]        # 2016d0 <__TMC_END__>
     a2e:	55                   	push   rbp
     a2f:	48 29 fe             	sub    rsi,rdi
     a32:	48 89 e5             	mov    rbp,rsp
     a35:	48 c1 fe 03          	sar    rsi,0x3
     a39:	48 89 f0             	mov    rax,rsi
     a3c:	48 c1 e8 3f          	shr    rax,0x3f
     a40:	48 01 c6             	add    rsi,rax
     a43:	48 d1 fe             	sar    rsi,1
     a46:	74 18                	je     a60 <register_tm_clones+0x40>
     a48:	48 8b 05 e9 0b 20 00 	mov    rax,QWORD PTR [rip+0x200be9]        # 201638 <_DYNAMIC+0x1f8>
     a4f:	48 85 c0             	test   rax,rax
     a52:	74 0c                	je     a60 <register_tm_clones+0x40>
     a54:	5d                   	pop    rbp
     a55:	ff e0                	jmp    rax
     a57:	66 0f 1f 84 00 00 00 	nop    WORD PTR [rax+rax*1+0x0]
     a5e:	00 00 
     a60:	5d                   	pop    rbp
     a61:	c3                   	ret    
     a62:	0f 1f 40 00          	nop    DWORD PTR [rax+0x0]
     a66:	66 2e 0f 1f 84 00 00 	nop    WORD PTR cs:[rax+rax*1+0x0]
     a6d:	00 00 00 

0000000000000a70 <__do_global_dtors_aux>:
     a70:	80 3d 91 0c 20 00 00 	cmp    BYTE PTR [rip+0x200c91],0x0        # 201708 <completed.7594>
     a77:	75 27                	jne    aa0 <__do_global_dtors_aux+0x30>
     a79:	48 83 3d bf 0b 20 00 	cmp    QWORD PTR [rip+0x200bbf],0x0        # 201640 <_DYNAMIC+0x200>
     a80:	00 
     a81:	55                   	push   rbp
     a82:	48 89 e5             	mov    rbp,rsp
     a85:	74 0c                	je     a93 <__do_global_dtors_aux+0x23>
     a87:	48 8b 3d 3a 0c 20 00 	mov    rdi,QWORD PTR [rip+0x200c3a]        # 2016c8 <__dso_handle>
     a8e:	e8 15 ff ff ff       	call   9a8 <atoi@plt+0x18>
     a93:	e8 48 ff ff ff       	call   9e0 <deregister_tm_clones>
     a98:	5d                   	pop    rbp
     a99:	c6 05 68 0c 20 00 01 	mov    BYTE PTR [rip+0x200c68],0x1        # 201708 <completed.7594>
     aa0:	f3 c3                	repz ret 
     aa2:	0f 1f 40 00          	nop    DWORD PTR [rax+0x0]
     aa6:	66 2e 0f 1f 84 00 00 	nop    WORD PTR cs:[rax+rax*1+0x0]
     aad:	00 00 00 

0000000000000ab0 <frame_dummy>:
     ab0:	48 8d 3d 81 09 20 00 	lea    rdi,[rip+0x200981]        # 201438 <__JCR_END__>
     ab7:	48 83 3f 00          	cmp    QWORD PTR [rdi],0x0
     abb:	75 0b                	jne    ac8 <frame_dummy+0x18>
     abd:	e9 5e ff ff ff       	jmp    a20 <register_tm_clones>
     ac2:	66 0f 1f 44 00 00    	nop    WORD PTR [rax+rax*1+0x0]
     ac8:	48 8b 05 61 0b 20 00 	mov    rax,QWORD PTR [rip+0x200b61]        # 201630 <_DYNAMIC+0x1f0>
     acf:	48 85 c0             	test   rax,rax
     ad2:	74 e9                	je     abd <frame_dummy+0xd>
     ad4:	55                   	push   rbp
     ad5:	48 89 e5             	mov    rbp,rsp
     ad8:	ff d0                	call   rax
     ada:	5d                   	pop    rbp
     adb:	e9 40 ff ff ff       	jmp    a20 <register_tm_clones>

0000000000000ae0 <init>:
     ae0:	55                   	push   rbp
     ae1:	48 89 e5             	mov    rbp,rsp
     ae4:	48 8b 05 f5 0b 20 00 	mov    rax,QWORD PTR [rip+0x200bf5]        # 2016e0 <stdout@@GLIBC_2.2.5>
     aeb:	be 00 00 00 00       	mov    esi,0x0
     af0:	48 89 c7             	mov    rdi,rax
     af3:	e8 18 fe ff ff       	call   910 <setbuf@plt>
     af8:	48 8b 05 01 0c 20 00 	mov    rax,QWORD PTR [rip+0x200c01]        # 201700 <stderr@@GLIBC_2.2.5>
     aff:	be 00 00 00 00       	mov    esi,0x0
     b04:	48 89 c7             	mov    rdi,rax
     b07:	e8 04 fe ff ff       	call   910 <setbuf@plt>
     b0c:	e8 07 00 00 00       	call   b18 <set_seccomp>
     b11:	b8 00 00 00 00       	mov    eax,0x0
     b16:	5d                   	pop    rbp
     b17:	c3                   	ret    

0000000000000b18 <set_seccomp>:
     b18:	55                   	push   rbp
     b19:	48 89 e5             	mov    rbp,rsp
     b1c:	48 83 ec 70          	sub    rsp,0x70
     b20:	64 48 8b 04 25 28 00 	mov    rax,QWORD PTR fs:0x28
     b27:	00 00 
     b29:	48 89 45 f8          	mov    QWORD PTR [rbp-0x8],rax
     b2d:	31 c0                	xor    eax,eax
     b2f:	66 c7 45 a0 20 00    	mov    WORD PTR [rbp-0x60],0x20
     b35:	c6 45 a2 00          	mov    BYTE PTR [rbp-0x5e],0x0
     b39:	c6 45 a3 00          	mov    BYTE PTR [rbp-0x5d],0x0
     b3d:	c7 45 a4 04 00 00 00 	mov    DWORD PTR [rbp-0x5c],0x4
     b44:	66 c7 45 a8 15 00    	mov    WORD PTR [rbp-0x58],0x15
     b4a:	c6 45 aa 01          	mov    BYTE PTR [rbp-0x56],0x1
     b4e:	c6 45 ab 00          	mov    BYTE PTR [rbp-0x55],0x0
     b52:	c7 45 ac 3e 00 00 c0 	mov    DWORD PTR [rbp-0x54],0xc000003e
     b59:	66 c7 45 b0 06 00    	mov    WORD PTR [rbp-0x50],0x6
     b5f:	c6 45 b2 00          	mov    BYTE PTR [rbp-0x4e],0x0
     b63:	c6 45 b3 00          	mov    BYTE PTR [rbp-0x4d],0x0
     b67:	c7 45 b4 00 00 00 00 	mov    DWORD PTR [rbp-0x4c],0x0
     b6e:	66 c7 45 b8 20 00    	mov    WORD PTR [rbp-0x48],0x20
     b74:	c6 45 ba 00          	mov    BYTE PTR [rbp-0x46],0x0
     b78:	c6 45 bb 00          	mov    BYTE PTR [rbp-0x45],0x0
     b7c:	c7 45 bc 00 00 00 00 	mov    DWORD PTR [rbp-0x44],0x0
     b83:	66 c7 45 c0 35 00    	mov    WORD PTR [rbp-0x40],0x35
     b89:	c6 45 c2 00          	mov    BYTE PTR [rbp-0x3e],0x0
     b8d:	c6 45 c3 01          	mov    BYTE PTR [rbp-0x3d],0x1
     b91:	c7 45 c4 00 00 00 40 	mov    DWORD PTR [rbp-0x3c],0x40000000
     b98:	66 c7 45 c8 06 00    	mov    WORD PTR [rbp-0x38],0x6
     b9e:	c6 45 ca 00          	mov    BYTE PTR [rbp-0x36],0x0
     ba2:	c6 45 cb 00          	mov    BYTE PTR [rbp-0x35],0x0
     ba6:	c7 45 cc 00 00 00 00 	mov    DWORD PTR [rbp-0x34],0x0
     bad:	66 c7 45 d0 15 00    	mov    WORD PTR [rbp-0x30],0x15
     bb3:	c6 45 d2 01          	mov    BYTE PTR [rbp-0x2e],0x1
     bb7:	c6 45 d3 00          	mov    BYTE PTR [rbp-0x2d],0x0
     bbb:	c7 45 d4 02 00 00 00 	mov    DWORD PTR [rbp-0x2c],0x2
     bc2:	66 c7 45 d8 15 00    	mov    WORD PTR [rbp-0x28],0x15
     bc8:	c6 45 da 00          	mov    BYTE PTR [rbp-0x26],0x0
     bcc:	c6 45 db 01          	mov    BYTE PTR [rbp-0x25],0x1
     bd0:	c7 45 dc 01 01 00 00 	mov    DWORD PTR [rbp-0x24],0x101
     bd7:	66 c7 45 e0 06 00    	mov    WORD PTR [rbp-0x20],0x6
     bdd:	c6 45 e2 00          	mov    BYTE PTR [rbp-0x1e],0x0
     be1:	c6 45 e3 00          	mov    BYTE PTR [rbp-0x1d],0x0
     be5:	c7 45 e4 00 00 00 00 	mov    DWORD PTR [rbp-0x1c],0x0
     bec:	66 c7 45 e8 06 00    	mov    WORD PTR [rbp-0x18],0x6
     bf2:	c6 45 ea 00          	mov    BYTE PTR [rbp-0x16],0x0
     bf6:	c6 45 eb 00          	mov    BYTE PTR [rbp-0x15],0x0
     bfa:	c7 45 ec 00 00 ff 7f 	mov    DWORD PTR [rbp-0x14],0x7fff0000
     c01:	66 c7 45 90 0a 00    	mov    WORD PTR [rbp-0x70],0xa
     c07:	48 8d 45 a0          	lea    rax,[rbp-0x60]
     c0b:	48 89 45 98          	mov    QWORD PTR [rbp-0x68],rax
     c0f:	41 b8 00 00 00 00    	mov    r8d,0x0
     c15:	b9 00 00 00 00       	mov    ecx,0x0
     c1a:	ba 00 00 00 00       	mov    edx,0x0
     c1f:	be 01 00 00 00       	mov    esi,0x1
     c24:	bf 26 00 00 00       	mov    edi,0x26
     c29:	b8 00 00 00 00       	mov    eax,0x0
     c2e:	e8 3d fd ff ff       	call   970 <prctl@plt>
     c33:	85 c0                	test   eax,eax
     c35:	74 13                	je     c4a <set_seccomp+0x132>
     c37:	48 8d 3d 6a 04 00 00 	lea    rdi,[rip+0x46a]        # 10a8 <_IO_stdin_used+0x8>
     c3e:	e8 3d fd ff ff       	call   980 <perror@plt>
     c43:	b8 ff ff ff ff       	mov    eax,0xffffffff
     c48:	eb 37                	jmp    c81 <set_seccomp+0x169>
     c4a:	48 8d 45 90          	lea    rax,[rbp-0x70]
     c4e:	48 89 c2             	mov    rdx,rax
     c51:	be 02 00 00 00       	mov    esi,0x2
     c56:	bf 16 00 00 00       	mov    edi,0x16
     c5b:	b8 00 00 00 00       	mov    eax,0x0
     c60:	e8 0b fd ff ff       	call   970 <prctl@plt>
     c65:	85 c0                	test   eax,eax
     c67:	74 13                	je     c7c <set_seccomp+0x164>
     c69:	48 8d 3d 52 04 00 00 	lea    rdi,[rip+0x452]        # 10c2 <_IO_stdin_used+0x22>
     c70:	e8 0b fd ff ff       	call   980 <perror@plt>
     c75:	b8 ff ff ff ff       	mov    eax,0xffffffff
     c7a:	eb 05                	jmp    c81 <set_seccomp+0x169>
     c7c:	b8 00 00 00 00       	mov    eax,0x0
     c81:	48 8b 4d f8          	mov    rcx,QWORD PTR [rbp-0x8]
     c85:	64 48 33 0c 25 28 00 	xor    rcx,QWORD PTR fs:0x28
     c8c:	00 00 
     c8e:	74 05                	je     c95 <set_seccomp+0x17d>
     c90:	e8 6b fc ff ff       	call   900 <__stack_chk_fail@plt>
     c95:	c9                   	leave  
     c96:	c3                   	ret    

0000000000000c97 <main>:
     c97:	55                   	push   rbp
     c98:	48 89 e5             	mov    rbp,rsp
     c9b:	48 81 ec 90 00 00 00 	sub    rsp,0x90
     ca2:	64 48 8b 04 25 28 00 	mov    rax,QWORD PTR fs:0x28
     ca9:	00 00 
     cab:	48 89 45 f8          	mov    QWORD PTR [rbp-0x8],rax
     caf:	31 c0                	xor    eax,eax
     cb1:	48 8d 95 70 ff ff ff 	lea    rdx,[rbp-0x90]
     cb8:	b8 00 00 00 00       	mov    eax,0x0
     cbd:	b9 10 00 00 00       	mov    ecx,0x10
     cc2:	48 89 d7             	mov    rdi,rdx
     cc5:	f3 48 ab             	rep stos QWORD PTR es:[rdi],rax
     cc8:	48 8d 3d 08 04 00 00 	lea    rdi,[rip+0x408]        # 10d7 <_IO_stdin_used+0x37>
     ccf:	e8 1c fc ff ff       	call   8f0 <puts@plt>
     cd4:	e8 85 00 00 00       	call   d5e <menu>
     cd9:	83 f8 01             	cmp    eax,0x1
     cdc:	74 17                	je     cf5 <main+0x5e>
     cde:	83 f8 01             	cmp    eax,0x1
     ce1:	7f 06                	jg     ce9 <main+0x52>
     ce3:	85 c0                	test   eax,eax
     ce5:	74 4f                	je     d36 <main+0x9f>
     ce7:	eb 3f                	jmp    d28 <main+0x91>
     ce9:	83 f8 02             	cmp    eax,0x2
     cec:	74 18                	je     d06 <main+0x6f>
     cee:	83 f8 03             	cmp    eax,0x3
     cf1:	74 24                	je     d17 <main+0x80>
     cf3:	eb 33                	jmp    d28 <main+0x91>
     cf5:	48 8d 85 70 ff ff ff 	lea    rax,[rbp-0x90]
     cfc:	48 89 c7             	mov    rdi,rax
     cff:	e8 76 00 00 00       	call   d7a <add>
     d04:	eb 2e                	jmp    d34 <main+0x9d>
     d06:	48 8d 85 70 ff ff ff 	lea    rax,[rbp-0x90]
     d0d:	48 89 c7             	mov    rdi,rax
     d10:	e8 31 01 00 00       	call   e46 <show>
     d15:	eb 1d                	jmp    d34 <main+0x9d>
     d17:	48 8d 85 70 ff ff ff 	lea    rax,[rbp-0x90]
     d1e:	48 89 c7             	mov    rdi,rax
     d21:	e8 9e 01 00 00       	call   ec4 <delete>
     d26:	eb 0c                	jmp    d34 <main+0x9d>
     d28:	48 8d 3d c6 03 00 00 	lea    rdi,[rip+0x3c6]        # 10f5 <_IO_stdin_used+0x55>
     d2f:	e8 bc fb ff ff       	call   8f0 <puts@plt>
     d34:	eb 9e                	jmp    cd4 <main+0x3d>
     d36:	90                   	nop
     d37:	48 8d 3d c4 03 00 00 	lea    rdi,[rip+0x3c4]        # 1102 <_IO_stdin_used+0x62>
     d3e:	e8 ad fb ff ff       	call   8f0 <puts@plt>
     d43:	b8 00 00 00 00       	mov    eax,0x0
     d48:	48 8b 75 f8          	mov    rsi,QWORD PTR [rbp-0x8]
     d4c:	64 48 33 34 25 28 00 	xor    rsi,QWORD PTR fs:0x28
     d53:	00 00 
     d55:	74 05                	je     d5c <main+0xc5>
     d57:	e8 a4 fb ff ff       	call   900 <__stack_chk_fail@plt>
     d5c:	c9                   	leave  
     d5d:	c3                   	ret    

0000000000000d5e <menu>:
     d5e:	55                   	push   rbp
     d5f:	48 89 e5             	mov    rbp,rsp
     d62:	48 8d 3d 9f 03 00 00 	lea    rdi,[rip+0x39f]        # 1108 <_IO_stdin_used+0x68>
     d69:	b8 00 00 00 00       	mov    eax,0x0
     d6e:	e8 bd fb ff ff       	call   930 <printf@plt>
     d73:	e8 4b 02 00 00       	call   fc3 <getint>
     d78:	5d                   	pop    rbp
     d79:	c3                   	ret    

0000000000000d7a <add>:
     d7a:	55                   	push   rbp
     d7b:	48 89 e5             	mov    rbp,rsp
     d7e:	53                   	push   rbx
     d7f:	48 83 ec 28          	sub    rsp,0x28
     d83:	48 89 7d d8          	mov    QWORD PTR [rbp-0x28],rdi
     d87:	c7 45 ec 00 00 00 00 	mov    DWORD PTR [rbp-0x14],0x0
     d8e:	eb 20                	jmp    db0 <add+0x36>
     d90:	8b 45 ec             	mov    eax,DWORD PTR [rbp-0x14]
     d93:	48 98                	cdqe   
     d95:	48 8d 14 c5 00 00 00 	lea    rdx,[rax*8+0x0]
     d9c:	00 
     d9d:	48 8b 45 d8          	mov    rax,QWORD PTR [rbp-0x28]
     da1:	48 01 d0             	add    rax,rdx
     da4:	48 8b 00             	mov    rax,QWORD PTR [rax]
     da7:	48 85 c0             	test   rax,rax
     daa:	74 0c                	je     db8 <add+0x3e>
     dac:	83 45 ec 01          	add    DWORD PTR [rbp-0x14],0x1
     db0:	83 7d ec 0f          	cmp    DWORD PTR [rbp-0x14],0xf
     db4:	7e da                	jle    d90 <add+0x16>
     db6:	eb 01                	jmp    db9 <add+0x3f>
     db8:	90                   	nop
     db9:	83 7d ec 0f          	cmp    DWORD PTR [rbp-0x14],0xf
     dbd:	7e 0e                	jle    dcd <add+0x53>
     dbf:	48 8d 3d 6c 03 00 00 	lea    rdi,[rip+0x36c]        # 1132 <_IO_stdin_used+0x92>
     dc6:	e8 25 fb ff ff       	call   8f0 <puts@plt>
     dcb:	eb 72                	jmp    e3f <add+0xc5>
     dcd:	8b 45 ec             	mov    eax,DWORD PTR [rbp-0x14]
     dd0:	48 98                	cdqe   
     dd2:	48 8d 14 c5 00 00 00 	lea    rdx,[rax*8+0x0]
     dd9:	00 
     dda:	48 8b 45 d8          	mov    rax,QWORD PTR [rbp-0x28]
     dde:	48 8d 1c 02          	lea    rbx,[rdx+rax*1]
     de2:	be 01 00 00 00       	mov    esi,0x1
     de7:	bf 28 00 00 00       	mov    edi,0x28
     dec:	e8 6f fb ff ff       	call   960 <calloc@plt>
     df1:	48 89 03             	mov    QWORD PTR [rbx],rax
     df4:	48 8d 3d 48 03 00 00 	lea    rdi,[rip+0x348]        # 1143 <_IO_stdin_used+0xa3>
     dfb:	b8 00 00 00 00       	mov    eax,0x0
     e00:	e8 2b fb ff ff       	call   930 <printf@plt>
     e05:	8b 45 ec             	mov    eax,DWORD PTR [rbp-0x14]
     e08:	48 98                	cdqe   
     e0a:	48 8d 14 c5 00 00 00 	lea    rdx,[rax*8+0x0]
     e11:	00 
     e12:	48 8b 45 d8          	mov    rax,QWORD PTR [rbp-0x28]
     e16:	48 01 d0             	add    rax,rdx
     e19:	48 8b 00             	mov    rax,QWORD PTR [rax]
     e1c:	be 28 00 00 00       	mov    esi,0x28
     e21:	48 89 c7             	mov    rdi,rax
     e24:	e8 3c 01 00 00       	call   f65 <getnline>
     e29:	8b 45 ec             	mov    eax,DWORD PTR [rbp-0x14]
     e2c:	89 c6                	mov    esi,eax
     e2e:	48 8d 3d 1c 03 00 00 	lea    rdi,[rip+0x31c]        # 1151 <_IO_stdin_used+0xb1>
     e35:	b8 00 00 00 00       	mov    eax,0x0
     e3a:	e8 f1 fa ff ff       	call   930 <printf@plt>
     e3f:	48 83 c4 28          	add    rsp,0x28
     e43:	5b                   	pop    rbx
     e44:	5d                   	pop    rbp
     e45:	c3                   	ret    

0000000000000e46 <show>:
     e46:	55                   	push   rbp
     e47:	48 89 e5             	mov    rbp,rsp
     e4a:	48 83 ec 20          	sub    rsp,0x20
     e4e:	48 89 7d e8          	mov    QWORD PTR [rbp-0x18],rdi
     e52:	48 8d 3d 07 03 00 00 	lea    rdi,[rip+0x307]        # 1160 <_IO_stdin_used+0xc0>
     e59:	b8 00 00 00 00       	mov    eax,0x0
     e5e:	e8 cd fa ff ff       	call   930 <printf@plt>
     e63:	e8 5b 01 00 00       	call   fc3 <getint>
     e68:	89 45 fc             	mov    DWORD PTR [rbp-0x4],eax
     e6b:	8b 45 fc             	mov    eax,DWORD PTR [rbp-0x4]
     e6e:	48 98                	cdqe   
     e70:	48 8d 14 c5 00 00 00 	lea    rdx,[rax*8+0x0]
     e77:	00 
     e78:	48 8b 45 e8          	mov    rax,QWORD PTR [rbp-0x18]
     e7c:	48 01 d0             	add    rax,rdx
     e7f:	48 8b 00             	mov    rax,QWORD PTR [rax]
     e82:	48 85 c0             	test   rax,rax
     e85:	75 0e                	jne    e95 <show+0x4f>
     e87:	48 8d 3d de 02 00 00 	lea    rdi,[rip+0x2de]        # 116c <_IO_stdin_used+0xcc>
     e8e:	e8 5d fa ff ff       	call   8f0 <puts@plt>
     e93:	eb 2d                	jmp    ec2 <show+0x7c>
     e95:	8b 45 fc             	mov    eax,DWORD PTR [rbp-0x4]
     e98:	48 98                	cdqe   
     e9a:	48 8d 14 c5 00 00 00 	lea    rdx,[rax*8+0x0]
     ea1:	00 
     ea2:	48 8b 45 e8          	mov    rax,QWORD PTR [rbp-0x18]
     ea6:	48 01 d0             	add    rax,rdx
     ea9:	48 8b 10             	mov    rdx,QWORD PTR [rax]
     eac:	8b 45 fc             	mov    eax,DWORD PTR [rbp-0x4]
     eaf:	89 c6                	mov    esi,eax
     eb1:	48 8d 3d cc 02 00 00 	lea    rdi,[rip+0x2cc]        # 1184 <_IO_stdin_used+0xe4>
     eb8:	b8 00 00 00 00       	mov    eax,0x0
     ebd:	e8 6e fa ff ff       	call   930 <printf@plt>
     ec2:	c9                   	leave  
     ec3:	c3                   	ret    

0000000000000ec4 <delete>:
     ec4:	55                   	push   rbp
     ec5:	48 89 e5             	mov    rbp,rsp
     ec8:	48 83 ec 20          	sub    rsp,0x20
     ecc:	48 89 7d e8          	mov    QWORD PTR [rbp-0x18],rdi
     ed0:	48 8d 3d 89 02 00 00 	lea    rdi,[rip+0x289]        # 1160 <_IO_stdin_used+0xc0>
     ed7:	b8 00 00 00 00       	mov    eax,0x0
     edc:	e8 4f fa ff ff       	call   930 <printf@plt>
     ee1:	e8 dd 00 00 00       	call   fc3 <getint>
     ee6:	89 45 fc             	mov    DWORD PTR [rbp-0x4],eax
     ee9:	8b 45 fc             	mov    eax,DWORD PTR [rbp-0x4]
     eec:	48 98                	cdqe   
     eee:	48 8d 14 c5 00 00 00 	lea    rdx,[rax*8+0x0]
     ef5:	00 
     ef6:	48 8b 45 e8          	mov    rax,QWORD PTR [rbp-0x18]
     efa:	48 01 d0             	add    rax,rdx
     efd:	48 8b 00             	mov    rax,QWORD PTR [rax]
     f00:	48 85 c0             	test   rax,rax
     f03:	75 0e                	jne    f13 <delete+0x4f>
     f05:	48 8d 3d 60 02 00 00 	lea    rdi,[rip+0x260]        # 116c <_IO_stdin_used+0xcc>
     f0c:	e8 df f9 ff ff       	call   8f0 <puts@plt>
     f11:	eb 50                	jmp    f63 <delete+0x9f>
     f13:	8b 45 fc             	mov    eax,DWORD PTR [rbp-0x4]
     f16:	48 98                	cdqe   
     f18:	48 8d 14 c5 00 00 00 	lea    rdx,[rax*8+0x0]
     f1f:	00 
     f20:	48 8b 45 e8          	mov    rax,QWORD PTR [rbp-0x18]
     f24:	48 01 d0             	add    rax,rdx
     f27:	48 8b 00             	mov    rax,QWORD PTR [rax]
     f2a:	48 89 c7             	mov    rdi,rax
     f2d:	e8 ae f9 ff ff       	call   8e0 <free@plt>
     f32:	8b 45 fc             	mov    eax,DWORD PTR [rbp-0x4]
     f35:	48 98                	cdqe   
     f37:	48 8d 14 c5 00 00 00 	lea    rdx,[rax*8+0x0]
     f3e:	00 
     f3f:	48 8b 45 e8          	mov    rax,QWORD PTR [rbp-0x18]
     f43:	48 01 d0             	add    rax,rdx
     f46:	48 c7 00 00 00 00 00 	mov    QWORD PTR [rax],0x0
     f4d:	8b 45 fc             	mov    eax,DWORD PTR [rbp-0x4]
     f50:	89 c6                	mov    esi,eax
     f52:	48 8d 3d 3c 02 00 00 	lea    rdi,[rip+0x23c]        # 1195 <_IO_stdin_used+0xf5>
     f59:	b8 00 00 00 00       	mov    eax,0x0
     f5e:	e8 cd f9 ff ff       	call   930 <printf@plt>
     f63:	c9                   	leave  
     f64:	c3                   	ret    

0000000000000f65 <getnline>:
     f65:	55                   	push   rbp
     f66:	48 89 e5             	mov    rbp,rsp
     f69:	48 83 ec 20          	sub    rsp,0x20
     f6d:	48 89 7d e8          	mov    QWORD PTR [rbp-0x18],rdi
     f71:	89 75 e4             	mov    DWORD PTR [rbp-0x1c],esi
     f74:	83 7d e4 00          	cmp    DWORD PTR [rbp-0x1c],0x0
     f78:	79 07                	jns    f81 <getnline+0x1c>
     f7a:	b8 00 00 00 00       	mov    eax,0x0
     f7f:	eb 40                	jmp    fc1 <getnline+0x5c>
     f81:	48 8b 15 68 07 20 00 	mov    rdx,QWORD PTR [rip+0x200768]        # 2016f0 <stdin@@GLIBC_2.2.5>
     f88:	8b 4d e4             	mov    ecx,DWORD PTR [rbp-0x1c]
     f8b:	48 8b 45 e8          	mov    rax,QWORD PTR [rbp-0x18]
     f8f:	89 ce                	mov    esi,ecx
     f91:	48 89 c7             	mov    rdi,rax
     f94:	e8 b7 f9 ff ff       	call   950 <fgets@plt>
     f99:	48 8b 45 e8          	mov    rax,QWORD PTR [rbp-0x18]
     f9d:	be 0a 00 00 00       	mov    esi,0xa
     fa2:	48 89 c7             	mov    rdi,rax
     fa5:	e8 76 f9 ff ff       	call   920 <strchr@plt>
     faa:	48 89 45 f8          	mov    QWORD PTR [rbp-0x8],rax
     fae:	48 83 7d f8 00       	cmp    QWORD PTR [rbp-0x8],0x0
     fb3:	74 07                	je     fbc <getnline+0x57>
     fb5:	48 8b 45 f8          	mov    rax,QWORD PTR [rbp-0x8]
     fb9:	c6 00 00             	mov    BYTE PTR [rax],0x0
     fbc:	b8 01 00 00 00       	mov    eax,0x1
     fc1:	c9                   	leave  
     fc2:	c3                   	ret    

0000000000000fc3 <getint>:
     fc3:	55                   	push   rbp
     fc4:	48 89 e5             	mov    rbp,rsp
     fc7:	48 81 ec 90 00 00 00 	sub    rsp,0x90
     fce:	64 48 8b 04 25 28 00 	mov    rax,QWORD PTR fs:0x28
     fd5:	00 00 
     fd7:	48 89 45 f8          	mov    QWORD PTR [rbp-0x8],rax
     fdb:	31 c0                	xor    eax,eax
     fdd:	48 8d 85 70 ff ff ff 	lea    rax,[rbp-0x90]
     fe4:	be 80 00 00 00       	mov    esi,0x80
     fe9:	48 89 c7             	mov    rdi,rax
     fec:	e8 74 ff ff ff       	call   f65 <getnline>
     ff1:	48 8d 85 70 ff ff ff 	lea    rax,[rbp-0x90]
     ff8:	48 89 c7             	mov    rdi,rax
     ffb:	e8 90 f9 ff ff       	call   990 <atoi@plt>
    1000:	48 8b 55 f8          	mov    rdx,QWORD PTR [rbp-0x8]
    1004:	64 48 33 14 25 28 00 	xor    rdx,QWORD PTR fs:0x28
    100b:	00 00 
    100d:	74 05                	je     1014 <getint+0x51>
    100f:	e8 ec f8 ff ff       	call   900 <__stack_chk_fail@plt>
    1014:	c9                   	leave  
    1015:	c3                   	ret    
    1016:	66 2e 0f 1f 84 00 00 	nop    WORD PTR cs:[rax+rax*1+0x0]
    101d:	00 00 00 

0000000000001020 <__libc_csu_init>:
    1020:	41 57                	push   r15
    1022:	41 56                	push   r14
    1024:	41 89 ff             	mov    r15d,edi
    1027:	41 55                	push   r13
    1029:	41 54                	push   r12
    102b:	4c 8d 25 ee 03 20 00 	lea    r12,[rip+0x2003ee]        # 201420 <__frame_dummy_init_array_entry>
    1032:	55                   	push   rbp
    1033:	48 8d 2d f6 03 20 00 	lea    rbp,[rip+0x2003f6]        # 201430 <__init_array_end>
    103a:	53                   	push   rbx
    103b:	49 89 f6             	mov    r14,rsi
    103e:	49 89 d5             	mov    r13,rdx
    1041:	4c 29 e5             	sub    rbp,r12
    1044:	48 83 ec 08          	sub    rsp,0x8
    1048:	48 c1 fd 03          	sar    rbp,0x3
    104c:	e8 5f f8 ff ff       	call   8b0 <_init>
    1051:	48 85 ed             	test   rbp,rbp
    1054:	74 20                	je     1076 <__libc_csu_init+0x56>
    1056:	31 db                	xor    ebx,ebx
    1058:	0f 1f 84 00 00 00 00 	nop    DWORD PTR [rax+rax*1+0x0]
    105f:	00 
    1060:	4c 89 ea             	mov    rdx,r13
    1063:	4c 89 f6             	mov    rsi,r14
    1066:	44 89 ff             	mov    edi,r15d
    1069:	41 ff 14 dc          	call   QWORD PTR [r12+rbx*8]
    106d:	48 83 c3 01          	add    rbx,0x1
    1071:	48 39 eb             	cmp    rbx,rbp
    1074:	75 ea                	jne    1060 <__libc_csu_init+0x40>
    1076:	48 83 c4 08          	add    rsp,0x8
    107a:	5b                   	pop    rbx
    107b:	5d                   	pop    rbp
    107c:	41 5c                	pop    r12
    107e:	41 5d                	pop    r13
    1080:	41 5e                	pop    r14
    1082:	41 5f                	pop    r15
    1084:	c3                   	ret    
    1085:	90                   	nop
    1086:	66 2e 0f 1f 84 00 00 	nop    WORD PTR cs:[rax+rax*1+0x0]
    108d:	00 00 00 

0000000000001090 <__libc_csu_fini>:
    1090:	f3 c3                	repz ret 

Disassembly of section .fini:

0000000000001094 <_fini>:
    1094:	48 83 ec 08          	sub    rsp,0x8
    1098:	48 83 c4 08          	add    rsp,0x8
    109c:	c3                   	ret    
